Certificate:
    Data:
        Version: 3 (0x2)
        Serial Number: 6888 (0x1ae8)
    Signature Algorithm: md5WithRSAEncryption
        Issuer: C=US, ST=OH, L=Columbus, O=VikingVPN, OU=MyOrganizationalUnit, CN=VikingVPN CA/name=EasyRSA/emailAddress=me@myhost.mydomain
        Validity
            Not Before: Dec 12 05:54:33 2015 GMT
            Not After : Dec  9 05:54:33 2025 GMT
        Subject: CN=Client2039Certac7502
        Subject Public Key Info:
            Public Key Algorithm: rsaEncryption
                Public-Key: (4096 bit)
                Modulus:
                    00:c3:6a:d3:60:40:f7:4a:2d:99:07:7c:9d:0f:24:
                    2b:0c:15:8a:28:67:21:9f:ca:47:8a:0e:56:81:18:
                    7d:da:b9:64:16:79:00:1c:0d:42:4f:40:0d:e3:4c:
                    eb:3e:1a:d8:60:53:62:e3:d7:b8:6a:06:95:ad:0b:
                    6e:fe:28:a2:5c:ea:6e:23:9b:f2:85:11:87:53:e7:
                    15:c0:43:8d:4f:1f:4f:c3:9a:66:11:78:6b:2b:98:
                    11:4e:4e:56:c4:cd:0b:40:f7:d7:74:a2:92:c7:4a:
                    d0:d7:12:bf:3d:99:84:92:a3:d8:da:a7:09:bc:ed:
                    4f:7f:70:5a:64:09:d3:f9:23:06:b3:71:81:7e:e1:
                    53:b7:2d:e9:12:10:3c:a0:2f:0f:4d:64:3b:d4:88:
                    e4:da:55:e8:9e:b6:94:66:05:70:2b:fa:c9:49:b3:
                    a6:02:09:72:bd:1d:6a:00:6f:5f:ee:6f:98:b7:c3:
                    fd:90:bc:49:b3:30:b9:2b:34:e0:40:b0:a1:1d:12:
                    20:f9:b4:dc:18:52:e1:53:66:8d:81:eb:77:c6:ba:
                    f0:c1:69:ff:c1:65:cc:a0:85:72:0c:99:02:1d:60:
                    60:9e:f9:e3:6c:6c:63:bb:ce:a9:d4:d9:e5:7a:6e:
                    17:d0:ee:a9:4c:75:b9:03:ea:9c:34:a5:9b:5a:3f:
                    08:34:37:ff:3f:cf:93:91:09:eb:51:9e:ba:ef:98:
                    b5:fa:a4:bd:98:16:a7:6d:60:b6:6c:79:cb:14:91:
                    8d:dd:f7:80:d2:07:d4:d4:62:d8:d4:c6:3c:05:4f:
                    43:25:ce:18:a9:de:89:50:63:12:d5:d3:11:bc:1e:
                    f5:8a:b8:a7:4c:5f:08:f8:16:3a:25:f6:44:82:09:
                    b9:bf:db:d9:e6:f6:40:a0:09:2b:6a:e7:e9:c8:6d:
                    71:b9:9d:52:b3:8f:f7:01:0a:2c:51:52:d7:57:2d:
                    60:20:95:ff:44:80:6a:45:6f:4b:c6:0c:f3:b7:70:
                    fc:2a:21:90:ef:cf:e2:fc:f0:08:e2:a3:83:fe:e7:
                    0e:6f:d2:86:fc:aa:65:4b:3a:94:01:5f:06:64:fd:
                    6c:da:66:c1:1b:92:e0:46:a1:27:12:d3:cb:04:d5:
                    fd:c6:cc:61:3f:3a:29:4d:ef:20:6a:73:48:15:df:
                    62:47:c3:45:f6:ed:83:87:1e:dd:a6:48:fc:2b:ae:
                    08:66:33:d9:b0:92:b0:09:0b:89:8c:20:93:e1:14:
                    9a:41:b1:21:e7:75:05:14:b5:fa:be:a7:5e:de:01:
                    a0:ac:08:19:76:b1:3e:da:d6:f4:0d:23:74:0b:24:
                    19:b0:60:22:51:f1:06:42:76:4e:05:d4:a2:07:ce:
                    99:8c:47
                Exponent: 65537 (0x10001)
        X509v3 extensions:
            X509v3 Basic Constraints: 
                CA:FALSE
            Netscape Comment: 
                Easy-RSA Generated Certificate
            X509v3 Subject Key Identifier: 
                E7:38:1C:67:E6:35:4A:A8:40:E5:E0:E1:B6:EC:0B:E2:57:D9:41:7D
            X509v3 Authority Key Identifier: 
                keyid:12:CD:60:04:D2:A0:80:9E:70:ED:C6:99:B8:7B:2C:C6:52:FD:19:A1
                DirName:/C=US/ST=OH/L=Columbus/O=VikingVPN/OU=MyOrganizationalUnit/CN=VikingVPN CA/name=EasyRSA/emailAddress=me@myhost.mydomain
                serial:CF:35:85:EE:80:BF:2A:3E

            X509v3 Extended Key Usage: 
                TLS Web Client Authentication
            X509v3 Key Usage: 
                Digital Signature
    Signature Algorithm: md5WithRSAEncryption
         88:75:d5:86:6f:7d:0c:12:58:26:62:fa:46:47:b8:ec:6b:6e:
         d5:d6:9a:34:96:18:be:1e:5b:6e:34:01:13:2a:97:dd:89:56:
         fd:7f:45:ee:73:3e:fd:47:be:13:5a:1d:4d:26:ae:bb:f5:c2:
         40:dc:fc:30:de:67:74:10:7b:68:cf:54:ce:15:60:a0:d3:78:
         79:f1:3d:d2:59:0e:35:f3:a7:18:50:85:7c:c1:c4:d1:17:e0:
         a6:df:75:1d:ed:1b:f8:68:2e:d0:f5:11:cf:5a:be:47:6c:b9:
         e4:0c:53:9a:da:08:de:ef:a7:13:7d:41:d1:68:51:d3:81:b1:
         fa:2a:59:8e:49:8a:1c:b0:1d:dc:22:8a:73:04:f6:fb:6d:ab:
         3b:7f:a7:7f:51:ef:70:30:c4:ce:a2:a6:d2:5b:f6:81:17:6d:
         8e:79:f5:2a:b9:fa:c1:96:01:76:c1:6c:ac:3a:0d:64:96:19:
         84:24:80:81:8c:73:26:b6:af:d0:5d:3f:be:89:4d:00:12:86:
         32:76:09:7d:b5:27:5c:e6:a5:35:d5:e5:c7:2c:98:0f:5b:d5:
         36:de:f7:a7:a3:ec:b5:a0:08:45:4a:f8:4c:3a:8e:69:34:ee:
         c3:40:06:43:fe:6b:63:c1:3d:de:da:2b:01:5a:19:1d:45:59:
         c5:e8:e3:59:38:64:17:59:fc:98:fc:d1:4b:4b:56:f7:b8:16:
         8c:92:82:14:a4:8e:27:f4:06:07:06:1e:11:be:ac:6c:9e:68:
         9d:b6:4a:bd:71:17:50:7a:83:3c:7b:b5:91:2d:c1:25:b0:76:
         e6:46:46:f0:6d:d0:69:02:a9:ea:61:db:4c:f9:49:b6:0a:18:
         53:da:71:08:d7:76:cf:c3:d0:e1:27:4d:69:78:ca:8a:a4:f7:
         0b:e3:d7:29:88:11:45:6c:c5:6a:ef:4f:cd:0e:98:3c:a0:3c:
         07:a4:c3:1d:ef:7f:ff:50:72:42:be:59:af:77:2d:61:a9:9e:
         1d:fd:c3:16:0c:fa:0f:c1:36:9e:18:19:04:16:f0:bc:61:7b:
         eb:94:cb:c8:f6:92:6a:d5:94:74:c9:bf:2e:e8:03:8b:18:e9:
         35:35:fe:e9:67:a9:c2:4e:2d:ed:c1:35:3e:09:cd:ea:97:92:
         fa:37:18:dd:12:3e:fc:0c:49:dd:a3:cd:4f:39:67:43:ce:bb:
         99:04:31:00:27:a9:5d:76:43:c8:ee:b0:f4:0d:32:b5:e8:c9:
         c6:3f:0a:14:6e:87:22:08:81:7b:f7:6d:0b:39:e2:01:82:e7:
         9d:80:a2:1f:ea:84:b7:4a:57:51:95:40:b6:e1:ee:f8:55:88:
         28:08:5e:e4:d8:23:b1:b3
-----BEGIN CERTIFICATE-----
MIIGrTCCBJWgAwIBAgICGugwDQYJKoZIhvcNAQEEBQAwgawxCzAJBgNVBAYTAlVT
MQswCQYDVQQIEwJPSDERMA8GA1UEBxMIQ29sdW1idXMxEjAQBgNVBAoTCVZpa2lu
Z1ZQTjEdMBsGA1UECxMUTXlPcmdhbml6YXRpb25hbFVuaXQxFTATBgNVBAMTDFZp
a2luZ1ZQTiBDQTEQMA4GA1UEKRMHRWFzeVJTQTEhMB8GCSqGSIb3DQEJARYSbWVA
bXlob3N0Lm15ZG9tYWluMB4XDTE1MTIxMjA1NTQzM1oXDTI1MTIwOTA1NTQzM1ow
HzEdMBsGA1UEAxMUQ2xpZW50MjAzOUNlcnRhYzc1MDIwggIiMA0GCSqGSIb3DQEB
AQUAA4ICDwAwggIKAoICAQDDatNgQPdKLZkHfJ0PJCsMFYooZyGfykeKDlaBGH3a
uWQWeQAcDUJPQA3jTOs+GthgU2Lj17hqBpWtC27+KKJc6m4jm/KFEYdT5xXAQ41P
H0/DmmYReGsrmBFOTlbEzQtA99d0opLHStDXEr89mYSSo9japwm87U9/cFpkCdP5
IwazcYF+4VO3LekSEDygLw9NZDvUiOTaVeietpRmBXAr+slJs6YCCXK9HWoAb1/u
b5i3w/2QvEmzMLkrNOBAsKEdEiD5tNwYUuFTZo2B63fGuvDBaf/BZcyghXIMmQId
YGCe+eNsbGO7zqnU2eV6bhfQ7qlMdbkD6pw0pZtaPwg0N/8/z5ORCetRnrrvmLX6
pL2YFqdtYLZsecsUkY3d94DSB9TUYtjUxjwFT0Mlzhip3olQYxLV0xG8HvWKuKdM
Xwj4Fjol9kSCCbm/29nm9kCgCStq5+nIbXG5nVKzj/cBCixRUtdXLWAglf9EgGpF
b0vGDPO3cPwqIZDvz+L88Ajio4P+5w5v0ob8qmVLOpQBXwZk/WzaZsEbkuBGoScS
08sE1f3GzGE/OilN7yBqc0gV32JHw0X27YOHHt2mSPwrrghmM9mwkrAJC4mMIJPh
FJpBsSHndQUUtfq+p17eAaCsCBl2sT7a1vQNI3QLJBmwYCJR8QZCdk4F1KIHzpmM
RwIDAQABo4IBYzCCAV8wCQYDVR0TBAIwADAtBglghkgBhvhCAQ0EIBYeRWFzeS1S
U0EgR2VuZXJhdGVkIENlcnRpZmljYXRlMB0GA1UdDgQWBBTnOBxn5jVKqEDl4OG2
7AviV9lBfTCB4QYDVR0jBIHZMIHWgBQSzWAE0qCAnnDtxpm4eyzGUv0ZoaGBsqSB
rzCBrDELMAkGA1UEBhMCVVMxCzAJBgNVBAgTAk9IMREwDwYDVQQHEwhDb2x1bWJ1
czESMBAGA1UEChMJVmlraW5nVlBOMR0wGwYDVQQLExRNeU9yZ2FuaXphdGlvbmFs
VW5pdDEVMBMGA1UEAxMMVmlraW5nVlBOIENBMRAwDgYDVQQpEwdFYXN5UlNBMSEw
HwYJKoZIhvcNAQkBFhJtZUBteWhvc3QubXlkb21haW6CCQDPNYXugL8qPjATBgNV
HSUEDDAKBggrBgEFBQcDAjALBgNVHQ8EBAMCB4AwDQYJKoZIhvcNAQEEBQADggIB
AIh11YZvfQwSWCZi+kZHuOxrbtXWmjSWGL4eW240ARMql92JVv1/Re5zPv1HvhNa
HU0mrrv1wkDc/DDeZ3QQe2jPVM4VYKDTeHnxPdJZDjXzpxhQhXzBxNEX4KbfdR3t
G/hoLtD1Ec9avkdsueQMU5raCN7vpxN9QdFoUdOBsfoqWY5JihywHdwiinME9vtt
qzt/p39R73AwxM6iptJb9oEXbY559Sq5+sGWAXbBbKw6DWSWGYQkgIGMcya2r9Bd
P76JTQAShjJ2CX21J1zmpTXV5ccsmA9b1Tbe96ej7LWgCEVK+Ew6jmk07sNABkP+
a2PBPd7aKwFaGR1FWcXo41k4ZBdZ/Jj80UtLVve4FoySghSkjif0BgcGHhG+rGye
aJ22Sr1xF1B6gzx7tZEtwSWwduZGRvBt0GkCqeph20z5SbYKGFPacQjXds/D0OEn
TWl4yoqk9wvj1ymIEUVsxWrvT80OmDygPAekwx3vf/9QckK+Wa93LWGpnh39wxYM
+g/BNp4YGQQW8Lxhe+uUy8j2kmrVlHTJvy7oA4sY6TU1/ulnqcJOLe3BNT4JzeqX
kvo3GN0SPvwMSd2jzU85Z0POu5kEMQAnqV12Q8jusPQNMrXoycY/ChRuhyIIgXv3
bQs54gGC552Aoh/qhLdKV1GVQLbh7vhViCgIXuTYI7Gz
-----END CERTIFICATE-----
