Certificate:
    Data:
        Version: 3 (0x2)
        Serial Number: 1707 (0x6ab)
    Signature Algorithm: md5WithRSAEncryption
        Issuer: C=US, ST=OH, L=Columbus, O=VikingVPN, OU=MyOrganizationalUnit, CN=VikingVPN CA/name=EasyRSA/emailAddress=me@myhost.mydomain
        Validity
            Not Before: Apr 23 18:37:12 2014 GMT
            Not After : Apr 20 18:37:12 2024 GMT
        Subject: CN=Client380Certb0c3d6
        Subject Public Key Info:
            Public Key Algorithm: rsaEncryption
                Public-Key: (4096 bit)
                Modulus:
                    00:ea:c2:f7:31:4a:04:01:6c:98:d6:3a:1b:17:d2:
                    5c:f3:67:0c:be:8c:4f:41:98:f4:22:5a:af:f0:ec:
                    78:49:c1:53:2b:21:b6:05:15:49:5b:bd:40:27:d8:
                    3d:cb:8a:1f:ab:ac:31:b7:c6:8f:14:7f:21:cf:36:
                    b7:e1:2d:67:3c:80:7b:e8:1c:3e:3e:a1:1e:27:ac:
                    b0:ef:57:f5:e2:88:3a:78:68:f6:57:d0:48:4f:1b:
                    7c:8f:2c:8c:3c:52:ce:4d:1a:08:c3:72:29:94:b0:
                    8a:75:d6:ad:ae:ff:e1:3d:b2:37:13:90:62:95:4c:
                    38:e2:5c:8b:14:a0:55:98:d0:77:f7:a5:5c:8b:b7:
                    0d:13:da:6d:8f:b4:db:e6:7f:80:fc:bf:01:88:af:
                    f9:ce:54:a7:78:cc:be:7e:47:65:3d:e5:89:5f:08:
                    0c:bb:b9:c0:bd:8a:c1:70:9f:84:99:46:69:93:8e:
                    9b:a9:e4:8b:ce:f6:63:80:33:e1:1e:7a:38:78:4c:
                    a7:b5:de:62:23:4b:07:e9:e8:4c:e4:d6:89:4f:a4:
                    11:68:07:ca:ea:ae:41:4b:dd:d3:af:0d:e2:a7:e5:
                    52:33:1b:43:f8:1a:78:c9:8c:97:c1:03:fd:af:b0:
                    7d:17:d3:30:cd:10:9f:ea:68:05:51:1c:f5:8a:f6:
                    2e:cd:39:58:06:f3:c8:6f:2a:45:9f:c8:6b:8b:07:
                    1a:99:96:6f:65:2d:6e:f9:2f:c3:67:33:c6:c7:5c:
                    d2:9a:8d:2b:a0:08:44:05:ea:b0:cc:71:27:e6:14:
                    70:f7:e8:07:fa:6c:a9:f6:26:5a:fe:53:9c:8a:ed:
                    70:e0:53:71:2a:24:a4:81:7d:04:3f:af:50:89:86:
                    f3:5b:12:0a:1f:5f:6c:98:f7:ba:15:be:88:e0:b6:
                    40:77:79:55:f6:e6:c8:eb:1f:fa:30:fc:6f:dc:cc:
                    11:1e:31:bb:df:ba:0e:e0:ea:8c:f1:af:29:ea:f8:
                    f7:39:f1:8c:80:0d:ac:3d:f7:22:2b:60:18:e5:92:
                    25:14:34:68:59:53:ff:d0:98:17:90:11:17:3b:ff:
                    a3:9e:40:90:c8:56:29:02:d2:0d:04:dc:4e:bc:de:
                    ae:d9:ba:0c:b4:ff:27:f5:b6:2a:fa:e4:af:f4:df:
                    20:60:91:c6:dc:3a:a5:52:ef:13:37:19:bd:c9:b0:
                    f6:9b:26:50:47:c4:c6:59:ec:86:f6:78:40:98:c4:
                    0e:97:04:96:44:9d:8d:ea:24:f0:bf:cc:c5:fa:de:
                    8b:98:3c:b0:cf:e2:5f:55:59:54:1c:bd:16:70:ee:
                    42:a3:13:09:7e:ac:11:49:60:31:3e:90:fc:26:61:
                    57:5d:07
                Exponent: 65537 (0x10001)
        X509v3 extensions:
            X509v3 Basic Constraints: 
                CA:FALSE
            Netscape Comment: 
                Easy-RSA Generated Certificate
            X509v3 Subject Key Identifier: 
                2A:6C:0F:6F:C3:C8:90:BE:69:4D:DC:78:F6:8F:26:44:BD:CD:02:6A
            X509v3 Authority Key Identifier: 
                keyid:12:CD:60:04:D2:A0:80:9E:70:ED:C6:99:B8:7B:2C:C6:52:FD:19:A1
                DirName:/C=US/ST=OH/L=Columbus/O=VikingVPN/OU=MyOrganizationalUnit/CN=VikingVPN CA/name=EasyRSA/emailAddress=me@myhost.mydomain
                serial:CF:35:85:EE:80:BF:2A:3E

            X509v3 Extended Key Usage: 
                TLS Web Client Authentication
            X509v3 Key Usage: 
                Digital Signature
    Signature Algorithm: md5WithRSAEncryption
         b9:23:85:b8:e0:b0:89:f4:98:55:96:2e:40:1d:10:17:ef:62:
         79:85:bd:47:a0:35:d6:76:2e:82:3b:93:eb:03:38:76:c4:44:
         4e:11:9f:b1:e0:3c:df:3d:d3:ec:69:96:3b:58:db:c2:39:a2:
         63:00:37:cd:b1:1e:20:50:77:41:4c:40:f9:78:8f:e3:4e:86:
         88:9b:80:8c:5a:70:a1:7b:75:90:1b:22:25:67:05:05:8b:bd:
         67:22:9a:cb:cf:d6:cd:43:b0:9b:7a:90:8a:ca:0e:3f:93:2a:
         06:61:6d:ea:48:d2:f0:f8:62:c2:5a:fd:76:16:c9:d5:c1:45:
         90:32:27:72:73:5d:30:d4:19:f3:85:8e:49:73:3d:42:ba:a3:
         67:4c:28:aa:53:f8:ab:b9:7f:14:cc:cb:b1:ad:da:12:84:d6:
         b4:b8:7c:71:be:83:aa:7e:e1:35:21:78:56:4f:2e:07:b7:a8:
         b8:5f:c8:78:7e:f7:25:fa:61:25:9a:7f:9e:84:e3:38:e6:17:
         0a:20:6c:26:be:05:0b:72:79:93:be:77:c0:d6:02:fd:04:e4:
         72:00:3e:ce:df:52:f3:be:82:9e:61:ef:4f:b9:2c:f7:53:66:
         45:df:cb:04:b5:29:c9:e2:91:73:5b:37:6d:14:24:b9:25:cf:
         e1:d6:d5:49:9a:9c:18:45:5e:71:31:3b:c4:63:94:42:c9:42:
         d6:9b:7b:2c:00:32:d2:08:da:0a:74:1c:4e:c6:2e:d3:83:59:
         68:bf:66:7e:68:4c:5a:42:94:28:61:e0:08:71:a2:38:e3:4f:
         13:0e:2c:b2:96:cf:48:f3:19:4a:6d:bb:b8:6f:09:6c:8b:93:
         65:cd:5f:db:95:3c:75:83:75:4c:01:3f:69:7b:54:2e:1e:0c:
         7e:8f:75:b8:ed:6c:91:10:fd:ca:53:7b:64:ed:eb:2c:9e:91:
         f4:a4:23:82:1c:8d:2a:00:a1:b4:94:db:f2:09:73:ed:d9:b7:
         5b:91:4b:e2:c2:a6:6b:15:3b:56:7a:d3:68:f2:63:4f:27:ae:
         bf:35:fb:6c:d0:02:59:b0:e0:c4:23:6d:40:78:d9:a9:14:7b:
         58:76:9d:e0:e4:a3:0c:cc:40:b0:a5:34:e2:46:c8:99:5f:66:
         21:b3:1d:0a:1e:b8:13:90:06:ba:bc:02:cd:0d:66:eb:21:28:
         cc:99:a7:f7:28:1e:86:e3:d5:ad:80:a7:79:a3:c8:0f:00:a8:
         38:b6:cd:f9:20:5f:61:54:df:ed:c5:9a:6a:5e:3f:72:2e:68:
         66:20:a5:89:61:5b:d7:33:eb:8c:83:15:cb:e3:8d:f6:04:04:
         ce:48:39:b6:83:55:50:f2
-----BEGIN CERTIFICATE-----
MIIGrDCCBJSgAwIBAgICBqswDQYJKoZIhvcNAQEEBQAwgawxCzAJBgNVBAYTAlVT
MQswCQYDVQQIEwJPSDERMA8GA1UEBxMIQ29sdW1idXMxEjAQBgNVBAoTCVZpa2lu
Z1ZQTjEdMBsGA1UECxMUTXlPcmdhbml6YXRpb25hbFVuaXQxFTATBgNVBAMTDFZp
a2luZ1ZQTiBDQTEQMA4GA1UEKRMHRWFzeVJTQTEhMB8GCSqGSIb3DQEJARYSbWVA
bXlob3N0Lm15ZG9tYWluMB4XDTE0MDQyMzE4MzcxMloXDTI0MDQyMDE4MzcxMlow
HjEcMBoGA1UEAxMTQ2xpZW50MzgwQ2VydGIwYzNkNjCCAiIwDQYJKoZIhvcNAQEB
BQADggIPADCCAgoCggIBAOrC9zFKBAFsmNY6GxfSXPNnDL6MT0GY9CJar/DseEnB
UyshtgUVSVu9QCfYPcuKH6usMbfGjxR/Ic82t+EtZzyAe+gcPj6hHiessO9X9eKI
Onho9lfQSE8bfI8sjDxSzk0aCMNyKZSwinXWra7/4T2yNxOQYpVMOOJcixSgVZjQ
d/elXIu3DRPabY+02+Z/gPy/AYiv+c5Up3jMvn5HZT3liV8IDLu5wL2KwXCfhJlG
aZOOm6nki872Y4Az4R56OHhMp7XeYiNLB+noTOTWiU+kEWgHyuquQUvd068N4qfl
UjMbQ/gaeMmMl8ED/a+wfRfTMM0Qn+poBVEc9Yr2Ls05WAbzyG8qRZ/Ia4sHGpmW
b2Utbvkvw2czxsdc0pqNK6AIRAXqsMxxJ+YUcPfoB/psqfYmWv5TnIrtcOBTcSok
pIF9BD+vUImG81sSCh9fbJj3uhW+iOC2QHd5VfbmyOsf+jD8b9zMER4xu9+6DuDq
jPGvKer49znxjIANrD33IitgGOWSJRQ0aFlT/9CYF5ARFzv/o55AkMhWKQLSDQTc
Trzertm6DLT/J/W2Kvrkr/TfIGCRxtw6pVLvEzcZvcmw9psmUEfExlnshvZ4QJjE
DpcElkSdjeok8L/Mxfrei5g8sM/iX1VZVBy9FnDuQqMTCX6sEUlgMT6Q/CZhV10H
AgMBAAGjggFjMIIBXzAJBgNVHRMEAjAAMC0GCWCGSAGG+EIBDQQgFh5FYXN5LVJT
QSBHZW5lcmF0ZWQgQ2VydGlmaWNhdGUwHQYDVR0OBBYEFCpsD2/DyJC+aU3cePaP
JkS9zQJqMIHhBgNVHSMEgdkwgdaAFBLNYATSoICecO3Gmbh7LMZS/RmhoYGypIGv
MIGsMQswCQYDVQQGEwJVUzELMAkGA1UECBMCT0gxETAPBgNVBAcTCENvbHVtYnVz
MRIwEAYDVQQKEwlWaWtpbmdWUE4xHTAbBgNVBAsTFE15T3JnYW5pemF0aW9uYWxV
bml0MRUwEwYDVQQDEwxWaWtpbmdWUE4gQ0ExEDAOBgNVBCkTB0Vhc3lSU0ExITAf
BgkqhkiG9w0BCQEWEm1lQG15aG9zdC5teWRvbWFpboIJAM81he6Avyo+MBMGA1Ud
JQQMMAoGCCsGAQUFBwMCMAsGA1UdDwQEAwIHgDANBgkqhkiG9w0BAQQFAAOCAgEA
uSOFuOCwifSYVZYuQB0QF+9ieYW9R6A11nYugjuT6wM4dsREThGfseA83z3T7GmW
O1jbwjmiYwA3zbEeIFB3QUxA+XiP406GiJuAjFpwoXt1kBsiJWcFBYu9ZyKay8/W
zUOwm3qQisoOP5MqBmFt6kjS8Phiwlr9dhbJ1cFFkDIncnNdMNQZ84WOSXM9Qrqj
Z0woqlP4q7l/FMzLsa3aEoTWtLh8cb6Dqn7hNSF4Vk8uB7eouF/IeH73JfphJZp/
noTjOOYXCiBsJr4FC3J5k753wNYC/QTkcgA+zt9S876CnmHvT7ks91NmRd/LBLUp
yeKRc1s3bRQkuSXP4dbVSZqcGEVecTE7xGOUQslC1pt7LAAy0gjaCnQcTsYu04NZ
aL9mfmhMWkKUKGHgCHGiOONPEw4sspbPSPMZSm27uG8JbIuTZc1f25U8dYN1TAE/
aXtULh4Mfo91uO1skRD9ylN7ZO3rLJ6R9KQjghyNKgChtJTb8glz7dm3W5FL4sKm
axU7VnrTaPJjTyeuvzX7bNACWbDgxCNtQHjZqRR7WHad4OSjDMxAsKU04kbImV9m
IbMdCh64E5AGurwCzQ1m6yEozJmn9ygehuPVrYCneaPIDwCoOLbN+SBfYVTf7cWa
al4/ci5oZiCliWFb1zPrjIMVy+ON9gQEzkg5toNVUPI=
-----END CERTIFICATE-----
