Certificate:
    Data:
        Version: 3 (0x2)
        Serial Number: 7187 (0x1c13)
    Signature Algorithm: md5WithRSAEncryption
        Issuer: C=US, ST=OH, L=Columbus, O=VikingVPN, OU=MyOrganizationalUnit, CN=VikingVPN CA/name=EasyRSA/emailAddress=me@myhost.mydomain
        Validity
            Not Before: Feb 14 11:20:19 2016 GMT
            Not After : Feb 11 11:20:19 2026 GMT
        Subject: CN=Client1613Cert5b4292
        Subject Public Key Info:
            Public Key Algorithm: rsaEncryption
                Public-Key: (4096 bit)
                Modulus:
                    00:d1:7c:61:59:bb:ee:00:55:d0:55:6a:54:cb:97:
                    8b:b4:53:62:eb:8b:0c:25:23:52:ab:b8:b4:58:26:
                    44:b6:f5:93:61:25:af:7e:6b:21:99:b1:0d:a7:39:
                    7d:5a:25:57:68:f0:57:13:c4:a8:7b:ea:eb:8b:ad:
                    06:3f:67:07:31:75:7f:ed:b6:49:06:da:70:90:12:
                    64:9b:06:42:6c:91:fc:ab:34:35:60:25:da:bc:0c:
                    d3:d8:d0:93:7b:c8:f0:68:96:82:f6:fe:35:5c:21:
                    9f:0c:f1:e4:1c:42:85:f2:b6:23:ab:54:d4:1d:b2:
                    cc:85:dc:e3:8f:2c:95:ad:8d:cf:50:40:d3:99:70:
                    53:10:0b:af:8d:d4:d2:55:26:8e:b0:88:6a:0f:e3:
                    1f:86:e1:d6:4c:bf:f6:39:9b:17:79:67:08:52:a2:
                    0d:b2:cf:97:4d:4e:8f:d1:06:f4:e3:9d:81:1c:15:
                    8e:42:d3:0d:2e:94:03:d6:d3:76:e0:50:f9:da:84:
                    a4:a3:5f:d0:6c:d9:00:4d:63:57:24:ae:b4:f3:49:
                    aa:77:4c:8a:db:9b:7e:4d:8f:f8:17:ae:d0:e4:80:
                    82:5a:3d:dc:e8:59:0f:43:86:e2:4e:8e:68:2b:60:
                    cb:86:cb:f8:e0:f2:06:b2:aa:31:10:cd:01:53:22:
                    a1:64:d7:8c:61:91:73:d6:ab:24:0a:bd:e3:03:b3:
                    8d:08:a3:e5:53:dc:7e:d5:01:b9:ca:73:28:a9:13:
                    48:f3:c8:54:a5:e1:00:ce:e9:17:1f:b3:e9:7c:80:
                    b3:04:61:9f:b8:86:f7:a3:5f:d5:fa:25:96:0e:18:
                    c3:f9:68:f4:79:09:92:7e:c4:c4:16:aa:9a:31:47:
                    a4:ea:cc:60:3c:6b:83:bc:f5:61:9b:ea:b7:c5:3b:
                    23:0d:40:91:7a:f3:ff:ef:1d:76:fc:82:d2:db:af:
                    48:61:41:0f:ed:10:51:66:0c:1d:7a:d7:74:41:5a:
                    ca:5f:da:cc:be:8c:33:0b:be:d5:6e:1a:69:bb:f5:
                    e7:c7:51:8e:4e:78:3b:ce:57:25:e9:97:c8:e1:c5:
                    89:5e:a6:4d:33:22:be:47:e5:c9:fd:d4:2a:4a:7f:
                    36:50:e2:33:8e:3d:a1:63:5b:c4:0d:a6:9f:64:2c:
                    77:db:02:e3:fc:1a:a7:52:d4:a0:95:f3:62:17:ff:
                    00:41:8b:7b:6a:3e:0f:db:60:21:37:cf:a9:e3:50:
                    52:b0:20:8a:0b:a2:8f:e0:f5:8e:52:d7:b3:19:a4:
                    f8:02:3c:ba:f8:12:e3:b5:00:23:07:3d:ec:81:27:
                    8a:a3:ab:91:ff:80:a7:50:fb:bf:42:7e:eb:92:20:
                    a7:58:5f
                Exponent: 65537 (0x10001)
        X509v3 extensions:
            X509v3 Basic Constraints: 
                CA:FALSE
            Netscape Comment: 
                Easy-RSA Generated Certificate
            X509v3 Subject Key Identifier: 
                0D:7F:67:4F:65:ED:BB:0D:9E:F4:6C:48:F8:CD:57:03:72:DF:08:C9
            X509v3 Authority Key Identifier: 
                keyid:12:CD:60:04:D2:A0:80:9E:70:ED:C6:99:B8:7B:2C:C6:52:FD:19:A1
                DirName:/C=US/ST=OH/L=Columbus/O=VikingVPN/OU=MyOrganizationalUnit/CN=VikingVPN CA/name=EasyRSA/emailAddress=me@myhost.mydomain
                serial:CF:35:85:EE:80:BF:2A:3E

            X509v3 Extended Key Usage: 
                TLS Web Client Authentication
            X509v3 Key Usage: 
                Digital Signature
    Signature Algorithm: md5WithRSAEncryption
         73:c7:c7:07:fd:be:39:d6:ee:d8:0f:d3:08:28:1b:b6:a1:a4:
         22:ae:93:c0:b6:70:19:03:07:c4:80:ca:a7:47:8e:cd:b5:03:
         5c:ed:60:bd:a8:f1:c7:c5:41:e1:64:5e:3c:5d:fb:51:cc:1b:
         e7:54:f1:94:57:ac:01:09:27:b8:46:de:9d:6d:81:9b:8b:88:
         7a:0f:d9:e1:34:66:35:8a:18:19:ff:96:f2:7d:91:5d:ef:72:
         23:1c:9f:b5:cc:5a:51:1e:65:4b:0d:d5:9f:08:9f:7c:5f:d2:
         7b:29:99:ac:a2:22:a9:ca:7b:26:b1:4e:0e:04:cb:05:fb:0a:
         64:7e:6b:7e:67:df:41:3e:98:18:8a:c5:e7:3d:fe:fa:55:c9:
         8a:11:e0:fc:11:23:70:13:73:16:d0:5a:15:d0:0f:29:fb:d4:
         1d:f8:77:48:58:e6:29:f2:e7:97:37:39:88:c6:3d:e7:a9:d8:
         8b:3e:ca:c2:ce:85:67:83:f6:e9:6b:6f:4f:3f:b0:bc:92:ae:
         d4:77:86:07:dd:0a:56:48:06:bd:a2:0e:44:4c:d0:f7:0e:e5:
         38:54:36:b0:17:d2:89:dd:b2:7a:65:1c:37:20:4f:f0:ad:00:
         97:e3:56:1b:21:62:ef:6a:a1:83:61:80:15:03:c3:09:c5:36:
         de:82:f1:1e:c6:c6:f8:9a:e1:78:f8:73:21:aa:47:a6:f2:8e:
         4e:a2:0f:c6:5e:2c:51:db:70:70:46:ce:72:f2:b5:33:97:fe:
         fe:fa:9c:05:f2:84:c3:f3:6e:b0:ff:3b:ec:5f:2c:b2:0c:12:
         32:f2:d3:d5:13:a0:3e:46:9d:a5:02:03:bc:74:b7:8e:be:f6:
         ea:78:93:f5:dc:3d:0e:28:b6:4e:09:6c:e7:23:d5:9a:65:5a:
         64:93:75:47:1c:bf:53:29:79:78:6c:3b:10:86:de:ed:ec:e2:
         fa:9b:b4:9c:a0:b3:dc:7b:38:7b:f0:eb:89:af:6b:22:78:8d:
         c8:35:50:10:57:9c:bc:a1:5d:88:5f:e1:8c:51:0b:73:f2:41:
         9e:c2:0e:35:47:85:9d:f7:25:86:44:8a:1b:05:8a:a7:82:48:
         f8:ad:0e:69:c9:36:21:ae:ed:c2:03:cb:c2:cd:3a:ec:23:d1:
         b0:5e:6c:3a:ee:dd:53:fc:31:f3:73:e4:fc:ab:9f:f1:f5:2b:
         03:08:10:d0:2b:37:1c:de:8b:b1:d7:5c:38:51:52:f0:be:b1:
         72:39:ab:b8:5e:b2:7e:af:92:01:1e:1d:4c:85:e8:4e:d8:39:
         00:35:a7:c4:e6:81:32:95:27:4d:a1:4e:74:ee:50:a3:5d:a8:
         dd:a2:21:83:d9:a2:d0:38
-----BEGIN CERTIFICATE-----
MIIGrTCCBJWgAwIBAgICHBMwDQYJKoZIhvcNAQEEBQAwgawxCzAJBgNVBAYTAlVT
MQswCQYDVQQIEwJPSDERMA8GA1UEBxMIQ29sdW1idXMxEjAQBgNVBAoTCVZpa2lu
Z1ZQTjEdMBsGA1UECxMUTXlPcmdhbml6YXRpb25hbFVuaXQxFTATBgNVBAMTDFZp
a2luZ1ZQTiBDQTEQMA4GA1UEKRMHRWFzeVJTQTEhMB8GCSqGSIb3DQEJARYSbWVA
bXlob3N0Lm15ZG9tYWluMB4XDTE2MDIxNDExMjAxOVoXDTI2MDIxMTExMjAxOVow
HzEdMBsGA1UEAxMUQ2xpZW50MTYxM0NlcnQ1YjQyOTIwggIiMA0GCSqGSIb3DQEB
AQUAA4ICDwAwggIKAoICAQDRfGFZu+4AVdBValTLl4u0U2LriwwlI1KruLRYJkS2
9ZNhJa9+ayGZsQ2nOX1aJVdo8FcTxKh76uuLrQY/ZwcxdX/ttkkG2nCQEmSbBkJs
kfyrNDVgJdq8DNPY0JN7yPBoloL2/jVcIZ8M8eQcQoXytiOrVNQdssyF3OOPLJWt
jc9QQNOZcFMQC6+N1NJVJo6wiGoP4x+G4dZMv/Y5mxd5ZwhSog2yz5dNTo/RBvTj
nYEcFY5C0w0ulAPW03bgUPnahKSjX9Bs2QBNY1ckrrTzSap3TIrbm35Nj/gXrtDk
gIJaPdzoWQ9DhuJOjmgrYMuGy/jg8gayqjEQzQFTIqFk14xhkXPWqyQKveMDs40I
o+VT3H7VAbnKcyipE0jzyFSl4QDO6Rcfs+l8gLMEYZ+4hvejX9X6JZYOGMP5aPR5
CZJ+xMQWqpoxR6TqzGA8a4O89WGb6rfFOyMNQJF68//vHXb8gtLbr0hhQQ/tEFFm
DB1613RBWspf2sy+jDMLvtVuGmm79efHUY5OeDvOVyXpl8jhxYlepk0zIr5H5cn9
1CpKfzZQ4jOOPaFjW8QNpp9kLHfbAuP8GqdS1KCV82IX/wBBi3tqPg/bYCE3z6nj
UFKwIIoLoo/g9Y5S17MZpPgCPLr4EuO1ACMHPeyBJ4qjq5H/gKdQ+79CfuuSIKdY
XwIDAQABo4IBYzCCAV8wCQYDVR0TBAIwADAtBglghkgBhvhCAQ0EIBYeRWFzeS1S
U0EgR2VuZXJhdGVkIENlcnRpZmljYXRlMB0GA1UdDgQWBBQNf2dPZe27DZ70bEj4
zVcDct8IyTCB4QYDVR0jBIHZMIHWgBQSzWAE0qCAnnDtxpm4eyzGUv0ZoaGBsqSB
rzCBrDELMAkGA1UEBhMCVVMxCzAJBgNVBAgTAk9IMREwDwYDVQQHEwhDb2x1bWJ1
czESMBAGA1UEChMJVmlraW5nVlBOMR0wGwYDVQQLExRNeU9yZ2FuaXphdGlvbmFs
VW5pdDEVMBMGA1UEAxMMVmlraW5nVlBOIENBMRAwDgYDVQQpEwdFYXN5UlNBMSEw
HwYJKoZIhvcNAQkBFhJtZUBteWhvc3QubXlkb21haW6CCQDPNYXugL8qPjATBgNV
HSUEDDAKBggrBgEFBQcDAjALBgNVHQ8EBAMCB4AwDQYJKoZIhvcNAQEEBQADggIB
AHPHxwf9vjnW7tgP0wgoG7ahpCKuk8C2cBkDB8SAyqdHjs21A1ztYL2o8cfFQeFk
Xjxd+1HMG+dU8ZRXrAEJJ7hG3p1tgZuLiHoP2eE0ZjWKGBn/lvJ9kV3vciMcn7XM
WlEeZUsN1Z8In3xf0nspmayiIqnKeyaxTg4EywX7CmR+a35n30E+mBiKxec9/vpV
yYoR4PwRI3ATcxbQWhXQDyn71B34d0hY5iny55c3OYjGPeep2Is+ysLOhWeD9ulr
b08/sLySrtR3hgfdClZIBr2iDkRM0PcO5ThUNrAX0ondsnplHDcgT/CtAJfjVhsh
Yu9qoYNhgBUDwwnFNt6C8R7Gxvia4Xj4cyGqR6byjk6iD8ZeLFHbcHBGznLytTOX
/v76nAXyhMPzbrD/O+xfLLIMEjLy09UToD5GnaUCA7x0t46+9up4k/XcPQ4otk4J
bOcj1ZplWmSTdUccv1MpeXhsOxCG3u3s4vqbtJygs9x7OHvw64mvayJ4jcg1UBBX
nLyhXYhf4YxRC3PyQZ7CDjVHhZ33JYZEihsFiqeCSPitDmnJNiGu7cIDy8LNOuwj
0bBebDru3VP8MfNz5Pyrn/H1KwMIENArNxzei7HXXDhRUvC+sXI5q7hesn6vkgEe
HUyF6E7YOQA1p8TmgTKVJ02hTnTuUKNdqN2iIYPZotA4
-----END CERTIFICATE-----
