Certificate:
    Data:
        Version: 3 (0x2)
        Serial Number: 9346 (0x2482)
    Signature Algorithm: sha256WithRSAEncryption
        Issuer: C=US, ST=OH, L=Columbus, O=VikingVPN, OU=MyOrganizationalUnit, CN=VikingVPN CA/name=EasyRSA/emailAddress=me@myhost.mydomain
        Validity
            Not Before: Oct 28 10:36:13 2016 GMT
            Not After : Oct 26 10:36:13 2026 GMT
        Subject: CN=Client2561Cert0d3314
        Subject Public Key Info:
            Public Key Algorithm: rsaEncryption
                Public-Key: (4096 bit)
                Modulus:
                    00:9e:96:0c:d2:57:e5:78:4e:91:4f:83:30:84:32:
                    59:cb:52:3f:73:a8:27:47:29:fe:73:0b:9c:ea:80:
                    39:5c:fd:a4:ab:3a:9c:b7:47:fb:05:f8:a0:28:fd:
                    57:78:ac:aa:12:00:36:2c:5c:a3:b7:1b:68:c2:c6:
                    ee:9a:9d:7f:c4:80:9a:56:eb:d2:d1:e6:19:7e:56:
                    db:bb:fd:d4:72:2e:61:a7:f9:01:ef:f9:5e:68:c4:
                    76:b0:a0:6e:0c:00:15:99:7e:88:2e:ac:67:12:44:
                    26:55:46:92:09:e8:90:25:c9:46:7d:5e:82:aa:e9:
                    65:54:f0:a0:d2:b4:a0:d4:2a:e2:57:e3:8a:81:ec:
                    19:dd:60:f4:b8:ff:7d:9a:c1:09:80:ea:f0:3a:b4:
                    1e:a7:ba:b5:3b:78:16:a1:57:79:b3:13:53:3e:64:
                    c7:60:f3:27:8a:44:68:a8:20:73:ed:35:31:06:ae:
                    a1:23:76:9b:0c:43:db:fb:b9:1b:b0:ab:2d:ba:83:
                    38:1f:50:ed:e8:48:f8:35:48:f2:d9:a8:a5:51:76:
                    93:cb:1d:4d:f2:35:7b:8d:dd:ec:12:4f:95:ab:da:
                    2d:f5:41:ac:4e:c1:8f:75:98:d9:8b:06:39:e7:a5:
                    b0:4a:40:37:13:4e:30:ef:87:07:0c:5b:34:dd:a8:
                    64:15:a8:cb:46:e3:5c:c1:9d:7b:eb:81:8e:0c:5a:
                    d5:b5:5f:c9:06:2a:58:5d:82:89:5a:53:6a:82:72:
                    aa:16:4d:24:00:ce:46:e8:a3:48:a9:95:5a:67:ae:
                    2e:2d:73:34:ba:a6:68:1b:57:7c:7c:01:1d:19:9c:
                    74:cb:30:c3:7a:93:3a:55:75:44:3e:d7:89:b5:29:
                    b8:5a:70:65:94:b3:77:a7:45:bb:59:1f:7c:a2:0e:
                    a3:90:dc:59:be:83:34:6f:0f:f9:0d:c2:75:40:c7:
                    3b:81:89:60:4f:a2:f4:2f:9d:5d:70:0e:23:01:0c:
                    1f:91:ba:a8:db:8e:51:8b:e6:a2:1a:5a:a7:3e:94:
                    c5:42:36:45:4d:6d:bd:a2:f6:4a:75:2e:20:ad:ac:
                    b3:c3:82:c3:32:6c:96:fb:03:d9:ad:2d:28:d6:36:
                    b2:b8:57:d0:a8:00:1a:8c:23:61:b6:5e:58:0c:c9:
                    da:79:d5:78:f2:ad:db:21:27:6e:9e:9e:ed:6b:d7:
                    0d:63:9a:23:c0:72:19:71:9f:1b:79:dd:2d:6b:9e:
                    40:84:53:bb:12:92:d1:22:a9:aa:ad:2e:21:dd:a1:
                    f2:4a:a6:1c:cd:c2:e9:d5:28:45:be:6d:2e:60:29:
                    07:ac:75:5c:60:a2:98:e0:28:b1:38:6c:14:f8:08:
                    8e:9a:79
                Exponent: 65537 (0x10001)
        X509v3 extensions:
            X509v3 Basic Constraints: 
                CA:FALSE
            Netscape Comment: 
                Easy-RSA Generated Certificate
            X509v3 Subject Key Identifier: 
                E7:0E:10:E8:82:D7:AC:40:07:7E:3C:48:88:FD:33:8C:D6:FF:99:C3
            X509v3 Authority Key Identifier: 
                keyid:12:CD:60:04:D2:A0:80:9E:70:ED:C6:99:B8:7B:2C:C6:52:FD:19:A1
                DirName:/C=US/ST=OH/L=Columbus/O=VikingVPN/OU=MyOrganizationalUnit/CN=VikingVPN CA/name=EasyRSA/emailAddress=me@myhost.mydomain
                serial:CF:35:85:EE:80:BF:2A:3E

            X509v3 Extended Key Usage: 
                TLS Web Client Authentication
            X509v3 Key Usage: 
                Digital Signature
    Signature Algorithm: sha256WithRSAEncryption
         1d:3c:d9:98:c6:2e:18:33:5b:a5:19:cc:fe:d8:11:67:87:59:
         8d:3f:7d:5e:87:7e:a4:9e:7e:f3:f8:38:22:6b:93:24:a1:50:
         92:34:0b:24:a0:53:c6:20:ff:8b:78:60:55:fd:e9:83:60:9b:
         18:4e:9b:ec:f7:c3:91:ad:0a:be:2e:ff:66:50:8b:59:1f:13:
         5e:88:96:6e:a0:82:bb:bb:18:2a:39:8c:9d:fc:59:24:72:17:
         1b:e2:05:df:15:9f:1d:42:94:4a:3b:9b:eb:57:85:a3:77:50:
         60:c9:9b:a3:41:56:6d:3f:c4:4d:0f:23:a6:22:0a:21:08:f6:
         14:80:b2:21:f9:59:56:dd:25:b7:1e:2e:46:b8:d1:75:0b:7e:
         95:14:43:b1:14:66:a6:31:b3:17:06:ba:2d:3f:88:9f:87:36:
         88:8d:f4:7f:3b:a6:42:cd:49:fc:f3:30:5c:09:1e:61:65:cf:
         20:30:3e:8f:e3:ac:05:08:88:65:33:4c:84:fe:a7:5e:cf:ab:
         36:db:0d:66:8a:75:e6:0c:88:24:56:44:bb:13:5e:f5:3d:e5:
         d3:de:a7:11:0a:00:94:ba:d6:ae:29:1e:76:d1:4c:e7:0f:80:
         61:1a:f1:23:24:57:30:d6:be:bf:3b:11:70:28:65:9a:b9:10:
         e6:57:13:2f:0c:cd:15:53:3e:28:78:81:2b:b3:1f:f6:3c:e8:
         6c:c1:84:cc:6e:92:0c:f7:24:0b:d8:2a:79:d8:06:ac:9d:35:
         af:12:df:99:f4:ee:81:b4:58:41:d2:1c:51:fb:3b:ca:35:62:
         b7:d7:47:a4:18:46:57:27:ec:fd:e2:2b:7f:07:43:56:4c:9e:
         48:f4:73:75:be:d7:ca:ab:b2:cc:6c:e8:b0:cb:c9:0c:61:db:
         a4:0d:20:e4:dd:46:04:c3:f3:d6:28:dd:92:75:9c:5b:fa:a7:
         48:5f:3e:7b:f8:f5:19:06:df:b7:4a:8f:c1:5d:81:71:ea:b6:
         87:e0:68:31:fb:14:7e:86:25:1d:4b:c0:ef:cb:72:a4:f7:9a:
         65:cd:92:2c:12:79:1f:17:d2:57:6c:a1:8b:ed:a0:10:4d:69:
         6b:8e:73:f6:50:ee:69:d9:14:b8:4f:b5:11:61:68:07:76:09:
         c0:5d:c4:7c:f9:67:07:d4:68:83:03:5f:1a:65:39:f7:08:a8:
         14:6e:c9:b2:73:d2:38:28:3e:28:5b:3a:ed:0a:e3:1a:d6:1a:
         ad:06:13:81:37:f7:28:1d:16:64:b6:ca:b3:54:10:1e:c7:59:
         fa:4f:db:d1:d8:01:55:a8:26:d8:28:57:1f:0e:b2:fd:30:ee:
         99:03:20:2a:9a:ef:48:f9
-----BEGIN CERTIFICATE-----
MIIGrTCCBJWgAwIBAgICJIIwDQYJKoZIhvcNAQELBQAwgawxCzAJBgNVBAYTAlVT
MQswCQYDVQQIEwJPSDERMA8GA1UEBxMIQ29sdW1idXMxEjAQBgNVBAoTCVZpa2lu
Z1ZQTjEdMBsGA1UECxMUTXlPcmdhbml6YXRpb25hbFVuaXQxFTATBgNVBAMTDFZp
a2luZ1ZQTiBDQTEQMA4GA1UEKRMHRWFzeVJTQTEhMB8GCSqGSIb3DQEJARYSbWVA
bXlob3N0Lm15ZG9tYWluMB4XDTE2MTAyODEwMzYxM1oXDTI2MTAyNjEwMzYxM1ow
HzEdMBsGA1UEAxMUQ2xpZW50MjU2MUNlcnQwZDMzMTQwggIiMA0GCSqGSIb3DQEB
AQUAA4ICDwAwggIKAoICAQCelgzSV+V4TpFPgzCEMlnLUj9zqCdHKf5zC5zqgDlc
/aSrOpy3R/sF+KAo/Vd4rKoSADYsXKO3G2jCxu6anX/EgJpW69LR5hl+Vtu7/dRy
LmGn+QHv+V5oxHawoG4MABWZfogurGcSRCZVRpIJ6JAlyUZ9XoKq6WVU8KDStKDU
KuJX44qB7BndYPS4/32awQmA6vA6tB6nurU7eBahV3mzE1M+ZMdg8yeKRGioIHPt
NTEGrqEjdpsMQ9v7uRuwqy26gzgfUO3oSPg1SPLZqKVRdpPLHU3yNXuN3ewST5Wr
2i31QaxOwY91mNmLBjnnpbBKQDcTTjDvhwcMWzTdqGQVqMtG41zBnXvrgY4MWtW1
X8kGKlhdgolaU2qCcqoWTSQAzkboo0iplVpnri4tczS6pmgbV3x8AR0ZnHTLMMN6
kzpVdUQ+14m1KbhacGWUs3enRbtZH3yiDqOQ3Fm+gzRvD/kNwnVAxzuBiWBPovQv
nV1wDiMBDB+RuqjbjlGL5qIaWqc+lMVCNkVNbb2i9kp1LiCtrLPDgsMybJb7A9mt
LSjWNrK4V9CoABqMI2G2XlgMydp51XjyrdshJ26enu1r1w1jmiPAchlxnxt53S1r
nkCEU7sSktEiqaqtLiHdofJKphzNwunVKEW+bS5gKQesdVxgopjgKLE4bBT4CI6a
eQIDAQABo4IBYzCCAV8wCQYDVR0TBAIwADAtBglghkgBhvhCAQ0EIBYeRWFzeS1S
U0EgR2VuZXJhdGVkIENlcnRpZmljYXRlMB0GA1UdDgQWBBTnDhDogtesQAd+PEiI
/TOM1v+ZwzCB4QYDVR0jBIHZMIHWgBQSzWAE0qCAnnDtxpm4eyzGUv0ZoaGBsqSB
rzCBrDELMAkGA1UEBhMCVVMxCzAJBgNVBAgTAk9IMREwDwYDVQQHEwhDb2x1bWJ1
czESMBAGA1UEChMJVmlraW5nVlBOMR0wGwYDVQQLExRNeU9yZ2FuaXphdGlvbmFs
VW5pdDEVMBMGA1UEAxMMVmlraW5nVlBOIENBMRAwDgYDVQQpEwdFYXN5UlNBMSEw
HwYJKoZIhvcNAQkBFhJtZUBteWhvc3QubXlkb21haW6CCQDPNYXugL8qPjATBgNV
HSUEDDAKBggrBgEFBQcDAjALBgNVHQ8EBAMCB4AwDQYJKoZIhvcNAQELBQADggIB
AB082ZjGLhgzW6UZzP7YEWeHWY0/fV6HfqSefvP4OCJrkyShUJI0CySgU8Yg/4t4
YFX96YNgmxhOm+z3w5GtCr4u/2ZQi1kfE16Ilm6ggru7GCo5jJ38WSRyFxviBd8V
nx1ClEo7m+tXhaN3UGDJm6NBVm0/xE0PI6YiCiEI9hSAsiH5WVbdJbceLka40XUL
fpUUQ7EUZqYxsxcGui0/iJ+HNoiN9H87pkLNSfzzMFwJHmFlzyAwPo/jrAUIiGUz
TIT+p17PqzbbDWaKdeYMiCRWRLsTXvU95dPepxEKAJS61q4pHnbRTOcPgGEa8SMk
VzDWvr87EXAoZZq5EOZXEy8MzRVTPih4gSuzH/Y86GzBhMxukgz3JAvYKnnYBqyd
Na8S35n07oG0WEHSHFH7O8o1YrfXR6QYRlcn7P3iK38HQ1ZMnkj0c3W+18qrssxs
6LDLyQxh26QNIOTdRgTD89Yo3ZJ1nFv6p0hfPnv49RkG37dKj8FdgXHqtofgaDH7
FH6GJR1LwO/LcqT3mmXNkiwSeR8X0ldsoYvtoBBNaWuOc/ZQ7mnZFLhPtRFhaAd2
CcBdxHz5ZwfUaIMDXxplOfcIqBRuybJz0jgoPihbOu0K4xrWGq0GE4E39ygdFmS2
yrNUEB7HWfpP29HYAVWoJtgoVx8Osv0w7pkDICqa70j5
-----END CERTIFICATE-----
