Certificate:
    Data:
        Version: 3 (0x2)
        Serial Number: 6197 (0x1835)
    Signature Algorithm: md5WithRSAEncryption
        Issuer: C=US, ST=OH, L=Columbus, O=VikingVPN, OU=MyOrganizationalUnit, CN=VikingVPN CA/name=EasyRSA/emailAddress=me@myhost.mydomain
        Validity
            Not Before: Sep  3 20:25:24 2015 GMT
            Not After : Aug 31 20:25:24 2025 GMT
        Subject: CN=Client1364Certf64676
        Subject Public Key Info:
            Public Key Algorithm: rsaEncryption
                Public-Key: (4096 bit)
                Modulus:
                    00:e4:7f:f2:2f:db:0a:34:3a:4e:4f:b5:4c:ae:02:
                    cf:de:05:34:ff:b9:0c:10:03:04:84:d4:1f:a2:d4:
                    a2:42:07:2f:b3:68:01:35:b2:c6:a8:f0:fd:24:fc:
                    4d:8a:e6:5d:15:56:01:d5:7c:7f:e6:a1:8e:12:52:
                    73:21:47:2e:82:f7:e6:40:2b:b7:16:0f:57:f5:53:
                    8d:b7:33:d8:25:c4:3c:32:8e:e3:84:21:67:b1:b4:
                    7d:d1:13:9f:bc:f5:83:fc:7d:08:56:d4:99:57:43:
                    83:af:9e:46:4d:46:73:30:40:08:2e:a4:6d:18:05:
                    24:b2:e1:87:36:95:ee:fa:78:58:89:f2:5b:4e:2f:
                    11:b9:ff:fa:4a:fb:71:cc:81:57:8d:8e:f5:86:94:
                    21:87:50:76:d9:3a:5c:42:3a:65:78:5c:b3:76:98:
                    df:c0:fd:91:6c:cb:fd:c2:f7:09:67:c4:fe:1c:4c:
                    6f:62:cc:f6:c4:a5:7f:3e:f6:98:a5:33:6d:5b:f1:
                    f1:24:70:0c:90:a2:03:cb:e4:47:f7:3c:78:eb:50:
                    0e:65:b0:57:cf:6d:24:01:26:82:97:b5:b5:22:48:
                    70:34:61:87:3b:61:1b:ee:d2:d2:53:8f:0c:56:e9:
                    76:b0:66:d1:1b:c2:37:39:d5:8f:07:22:68:d8:92:
                    a2:d3:65:62:87:eb:8e:ae:e2:aa:46:ea:15:d5:57:
                    de:07:a8:01:7e:7f:7e:4e:ad:c4:47:32:76:38:b3:
                    f7:62:57:90:28:a6:11:35:a9:b8:94:a9:d2:91:91:
                    5d:c4:bf:76:d0:a1:b5:3d:2e:8b:59:4a:e7:73:b6:
                    f4:a2:00:3b:39:06:29:48:c9:9b:37:dc:ad:da:0a:
                    3e:8f:e3:ac:99:1a:df:e8:c4:3a:a0:41:8f:bc:8b:
                    12:35:d2:ec:d6:95:ad:72:5a:b8:51:2f:2b:f3:2c:
                    7a:22:18:3d:37:ab:ff:1f:5a:d9:3c:b7:9c:7c:31:
                    d6:42:11:89:39:a2:57:34:71:a9:e8:b6:2a:e1:e0:
                    89:1f:50:98:e7:6c:52:a1:59:cd:a6:06:a8:7d:17:
                    f2:d1:4b:5e:11:19:16:8f:25:ef:e7:83:95:b0:64:
                    b6:cf:e3:4b:d9:ae:df:09:12:5b:53:88:be:a6:07:
                    44:ef:11:da:e6:d1:22:9c:01:37:b6:da:50:6f:87:
                    04:8a:b4:13:8a:fd:f2:1b:32:d9:8a:50:9f:3b:ff:
                    ca:a5:71:32:e8:75:35:74:d1:a2:cb:bc:4c:0a:f8:
                    9f:8c:0c:ec:59:0f:7c:8c:e1:d6:98:8f:ae:6c:8d:
                    11:17:73:34:b1:26:5b:6a:f3:2c:01:8b:ae:04:2e:
                    64:1d:af
                Exponent: 65537 (0x10001)
        X509v3 extensions:
            X509v3 Basic Constraints: 
                CA:FALSE
            Netscape Comment: 
                Easy-RSA Generated Certificate
            X509v3 Subject Key Identifier: 
                37:81:80:14:DE:45:4E:4E:10:C1:5D:85:B1:37:EE:72:D1:12:24:EE
            X509v3 Authority Key Identifier: 
                keyid:12:CD:60:04:D2:A0:80:9E:70:ED:C6:99:B8:7B:2C:C6:52:FD:19:A1
                DirName:/C=US/ST=OH/L=Columbus/O=VikingVPN/OU=MyOrganizationalUnit/CN=VikingVPN CA/name=EasyRSA/emailAddress=me@myhost.mydomain
                serial:CF:35:85:EE:80:BF:2A:3E

            X509v3 Extended Key Usage: 
                TLS Web Client Authentication
            X509v3 Key Usage: 
                Digital Signature
    Signature Algorithm: md5WithRSAEncryption
         c5:ee:15:01:b7:35:05:ce:ad:a9:fe:8c:c9:18:e4:8d:66:12:
         2c:ad:db:0b:63:60:aa:54:e1:6e:8c:89:1b:31:00:f4:97:3a:
         75:90:1c:77:ee:10:d4:42:51:39:ef:df:8e:2d:7c:d3:e5:09:
         00:39:20:01:64:75:b4:6d:42:dd:ef:1f:b1:7e:b0:b4:a2:e6:
         49:62:e8:55:5b:a7:e9:87:98:28:a0:5f:bb:5b:1c:43:16:47:
         70:7f:c3:42:c8:81:b2:2b:cf:2a:b5:09:95:60:f0:aa:ad:e4:
         42:54:49:6a:05:9d:f7:68:54:fe:dc:ca:fa:e3:ac:21:af:ce:
         71:68:b7:fa:72:6f:6c:78:cd:38:88:fa:45:8e:50:d0:64:72:
         0b:80:38:fe:ec:0a:fb:34:be:68:53:82:8c:f5:a9:61:30:52:
         9d:c3:13:4f:fc:7b:16:24:be:43:2b:9a:18:ce:fa:9c:c2:4e:
         ff:ec:af:22:b0:df:e1:4b:80:3c:c1:54:c8:70:a7:62:7c:b2:
         d2:8e:fb:a8:2b:03:7f:ca:3a:3a:86:88:24:cb:9d:56:f4:ce:
         7c:20:4d:d5:2d:b9:22:97:98:9c:46:0d:a5:bf:55:c3:0f:b2:
         34:d7:26:89:41:90:a5:76:01:0f:b0:d2:e5:87:34:a7:c0:0a:
         5a:65:8b:0a:a7:37:e3:11:77:04:62:46:53:b9:ea:d5:8e:92:
         5a:68:1b:30:e0:d3:21:be:ec:61:cd:b7:dd:e4:bc:55:0a:f0:
         a7:c3:29:34:bf:20:78:9f:e3:8d:5d:97:97:ed:4c:72:84:a1:
         0e:14:b6:ad:61:d5:86:4c:a2:6f:5b:ea:0f:48:63:f0:93:aa:
         fd:9c:97:5b:ec:bb:bb:b2:4e:fc:ff:8c:df:f0:05:90:78:22:
         92:6f:65:58:82:e7:d9:d3:0f:5a:b3:76:48:23:04:14:2f:33:
         1e:e3:da:a4:59:77:3d:25:61:dd:d9:69:6e:b8:f4:e2:ab:9f:
         f7:84:b3:eb:46:73:59:d4:b4:4f:44:0a:8a:fd:0f:01:9f:78:
         e6:83:21:13:41:41:82:0c:1c:64:c5:1a:c2:1b:c3:e0:ee:dd:
         6c:d3:3e:ed:7a:f8:06:fe:25:33:21:57:fd:70:4e:8f:2c:58:
         40:38:e6:53:ce:be:40:9c:ba:2d:a9:2b:b1:38:29:31:8f:61:
         06:56:a7:6d:1a:8c:7a:59:e8:53:b9:fa:96:88:55:55:00:72:
         9c:78:bb:9f:8c:92:9a:4e:86:ad:61:23:fd:54:e7:5f:83:0a:
         db:cf:3b:c9:b4:8b:5b:70:44:23:2b:0f:75:85:bd:53:74:ed:
         f1:08:88:77:16:14:f8:97
-----BEGIN CERTIFICATE-----
MIIGrTCCBJWgAwIBAgICGDUwDQYJKoZIhvcNAQEEBQAwgawxCzAJBgNVBAYTAlVT
MQswCQYDVQQIEwJPSDERMA8GA1UEBxMIQ29sdW1idXMxEjAQBgNVBAoTCVZpa2lu
Z1ZQTjEdMBsGA1UECxMUTXlPcmdhbml6YXRpb25hbFVuaXQxFTATBgNVBAMTDFZp
a2luZ1ZQTiBDQTEQMA4GA1UEKRMHRWFzeVJTQTEhMB8GCSqGSIb3DQEJARYSbWVA
bXlob3N0Lm15ZG9tYWluMB4XDTE1MDkwMzIwMjUyNFoXDTI1MDgzMTIwMjUyNFow
HzEdMBsGA1UEAxMUQ2xpZW50MTM2NENlcnRmNjQ2NzYwggIiMA0GCSqGSIb3DQEB
AQUAA4ICDwAwggIKAoICAQDkf/Iv2wo0Ok5PtUyuAs/eBTT/uQwQAwSE1B+i1KJC
By+zaAE1ssao8P0k/E2K5l0VVgHVfH/moY4SUnMhRy6C9+ZAK7cWD1f1U423M9gl
xDwyjuOEIWextH3RE5+89YP8fQhW1JlXQ4OvnkZNRnMwQAgupG0YBSSy4Yc2le76
eFiJ8ltOLxG5//pK+3HMgVeNjvWGlCGHUHbZOlxCOmV4XLN2mN/A/ZFsy/3C9wln
xP4cTG9izPbEpX8+9pilM21b8fEkcAyQogPL5Ef3PHjrUA5lsFfPbSQBJoKXtbUi
SHA0YYc7YRvu0tJTjwxW6XawZtEbwjc51Y8HImjYkqLTZWKH646u4qpG6hXVV94H
qAF+f35OrcRHMnY4s/diV5AophE1qbiUqdKRkV3Ev3bQobU9LotZSudztvSiADs5
BilIyZs33K3aCj6P46yZGt/oxDqgQY+8ixI10uzWla1yWrhRLyvzLHoiGD03q/8f
Wtk8t5x8MdZCEYk5olc0canotirh4IkfUJjnbFKhWc2mBqh9F/LRS14RGRaPJe/n
g5WwZLbP40vZrt8JEltTiL6mB0TvEdrm0SKcATe22lBvhwSKtBOK/fIbMtmKUJ87
/8qlcTLodTV00aLLvEwK+J+MDOxZD3yM4daYj65sjREXczSxJltq8ywBi64ELmQd
rwIDAQABo4IBYzCCAV8wCQYDVR0TBAIwADAtBglghkgBhvhCAQ0EIBYeRWFzeS1S
U0EgR2VuZXJhdGVkIENlcnRpZmljYXRlMB0GA1UdDgQWBBQ3gYAU3kVOThDBXYWx
N+5y0RIk7jCB4QYDVR0jBIHZMIHWgBQSzWAE0qCAnnDtxpm4eyzGUv0ZoaGBsqSB
rzCBrDELMAkGA1UEBhMCVVMxCzAJBgNVBAgTAk9IMREwDwYDVQQHEwhDb2x1bWJ1
czESMBAGA1UEChMJVmlraW5nVlBOMR0wGwYDVQQLExRNeU9yZ2FuaXphdGlvbmFs
VW5pdDEVMBMGA1UEAxMMVmlraW5nVlBOIENBMRAwDgYDVQQpEwdFYXN5UlNBMSEw
HwYJKoZIhvcNAQkBFhJtZUBteWhvc3QubXlkb21haW6CCQDPNYXugL8qPjATBgNV
HSUEDDAKBggrBgEFBQcDAjALBgNVHQ8EBAMCB4AwDQYJKoZIhvcNAQEEBQADggIB
AMXuFQG3NQXOran+jMkY5I1mEiyt2wtjYKpU4W6MiRsxAPSXOnWQHHfuENRCUTnv
344tfNPlCQA5IAFkdbRtQt3vH7F+sLSi5kli6FVbp+mHmCigX7tbHEMWR3B/w0LI
gbIrzyq1CZVg8Kqt5EJUSWoFnfdoVP7cyvrjrCGvznFot/pyb2x4zTiI+kWOUNBk
cguAOP7sCvs0vmhTgoz1qWEwUp3DE0/8exYkvkMrmhjO+pzCTv/sryKw3+FLgDzB
VMhwp2J8stKO+6grA3/KOjqGiCTLnVb0znwgTdUtuSKXmJxGDaW/VcMPsjTXJolB
kKV2AQ+w0uWHNKfAClpliwqnN+MRdwRiRlO56tWOklpoGzDg0yG+7GHNt93kvFUK
8KfDKTS/IHif441dl5ftTHKEoQ4Utq1h1YZMom9b6g9IY/CTqv2cl1vsu7uyTvz/
jN/wBZB4IpJvZViC59nTD1qzdkgjBBQvMx7j2qRZdz0lYd3ZaW649OKrn/eEs+tG
c1nUtE9ECor9DwGfeOaDIRNBQYIMHGTFGsIbw+Du3WzTPu16+Ab+JTMhV/1wTo8s
WEA45lPOvkCcui2pK7E4KTGPYQZWp20ajHpZ6FO5+paIVVUAcpx4u5+MkppOhq1h
I/1U51+DCtvPO8m0i1twRCMrD3WFvVN07fEIiHcWFPiX
-----END CERTIFICATE-----
