Certificate:
    Data:
        Version: 3 (0x2)
        Serial Number: 12162 (0x2f82)
    Signature Algorithm: sha256WithRSAEncryption
        Issuer: C=US, ST=OH, L=Columbus, O=VikingVPN, OU=MyOrganizationalUnit, CN=VikingVPN CA/name=EasyRSA/emailAddress=me@myhost.mydomain
        Validity
            Not Before: Nov 26 11:50:41 2017 GMT
            Not After : Nov 24 11:50:41 2027 GMT
        Subject: CN=Client3163Certf98f9c
        Subject Public Key Info:
            Public Key Algorithm: rsaEncryption
                Public-Key: (4096 bit)
                Modulus:
                    00:af:45:41:43:1f:77:79:30:e7:ea:4c:4e:90:a3:
                    d2:68:57:f1:2b:e0:36:25:42:51:bc:2b:b0:6e:0a:
                    4e:b1:70:61:f7:38:0d:cc:73:24:62:c4:1c:b2:3a:
                    df:83:a7:a0:7d:2a:ab:22:09:70:a5:dc:00:34:45:
                    d4:a2:db:d6:0b:23:69:49:bc:27:2a:02:86:b9:49:
                    88:88:e6:9d:8d:65:ab:01:b5:92:34:c8:7a:2c:e5:
                    a3:b5:f7:41:10:c2:28:a2:5d:a4:e9:84:41:66:fe:
                    76:33:be:8b:06:aa:f2:15:9f:ab:8c:a9:bc:b9:87:
                    61:f5:76:78:3e:b0:4c:1b:81:92:27:a2:8b:9d:da:
                    b7:fa:7f:5f:aa:df:6f:92:65:b7:db:8b:25:78:30:
                    03:d8:53:5b:57:8e:f7:60:c5:92:16:4a:a8:8d:16:
                    66:32:cd:45:29:15:3f:fb:01:fe:98:5d:ce:cc:40:
                    cf:48:08:80:52:a1:c5:7e:40:ce:08:24:9b:f2:cf:
                    9b:61:33:fa:94:9f:ca:b8:40:8d:10:ec:3b:92:ae:
                    f0:f3:c5:c6:ce:ea:08:aa:9f:6b:60:c1:dd:08:db:
                    d3:fc:04:d7:e3:9d:64:32:31:33:80:f0:3a:33:dd:
                    db:b2:33:ba:01:50:0e:92:a8:d1:48:56:f8:ec:53:
                    da:64:e3:f9:9a:cb:5a:eb:cf:1f:23:18:08:b8:a2:
                    d5:f8:6c:5f:84:af:80:6b:3f:e3:67:65:ae:4f:2a:
                    79:9f:ce:95:02:a0:08:32:45:f2:7e:60:71:c3:b5:
                    e9:08:38:fa:6c:b4:cf:f0:e1:d7:7a:ad:36:c3:46:
                    26:70:94:c5:06:d5:a1:9e:4d:b6:7f:a1:46:9c:d8:
                    da:8a:3b:7e:3f:91:b8:86:92:38:b5:ed:fa:ea:3b:
                    2f:8a:42:e6:99:c8:4c:15:d3:72:f8:64:26:4b:ac:
                    4f:c0:85:5d:e9:d1:35:c9:6e:8c:40:c4:e0:7a:7e:
                    db:5e:ce:35:08:5b:f1:ae:8b:1a:8a:3b:3e:5d:a0:
                    f5:a5:67:4c:53:c5:88:56:9e:f7:e0:7f:e8:e0:ad:
                    ff:aa:27:f8:1e:5f:94:a1:01:1b:0c:a4:9c:68:94:
                    56:c3:45:a3:17:a5:82:4a:64:47:6e:dd:00:13:83:
                    73:de:e5:0a:3e:42:29:23:01:d2:97:db:31:9f:f0:
                    f0:6a:31:d1:e2:22:c2:e2:a2:bb:d2:75:db:05:39:
                    03:b0:01:96:27:24:6a:cc:6b:c5:14:53:e5:55:dd:
                    53:82:65:32:28:03:52:dc:af:d6:fe:79:47:3e:1e:
                    e8:51:f8:0c:b3:c7:05:0f:78:e8:75:20:26:d3:f0:
                    50:f6:57
                Exponent: 65537 (0x10001)
        X509v3 extensions:
            X509v3 Basic Constraints: 
                CA:FALSE
            Netscape Comment: 
                Easy-RSA Generated Certificate
            X509v3 Subject Key Identifier: 
                09:3B:37:D7:99:94:92:7B:27:5D:FA:82:67:E1:51:EE:0B:B4:46:1F
            X509v3 Authority Key Identifier: 
                keyid:12:CD:60:04:D2:A0:80:9E:70:ED:C6:99:B8:7B:2C:C6:52:FD:19:A1
                DirName:/C=US/ST=OH/L=Columbus/O=VikingVPN/OU=MyOrganizationalUnit/CN=VikingVPN CA/name=EasyRSA/emailAddress=me@myhost.mydomain
                serial:CF:35:85:EE:80:BF:2A:3E

            X509v3 Extended Key Usage: 
                TLS Web Client Authentication
            X509v3 Key Usage: 
                Digital Signature
    Signature Algorithm: sha256WithRSAEncryption
         66:16:2a:fe:8a:20:15:54:a8:ce:cc:6f:f1:8a:36:63:9f:34:
         5d:49:f9:fa:13:2a:83:50:b8:f2:79:6c:b6:e8:be:1d:55:94:
         ad:72:c7:72:2e:fa:33:d2:12:b0:03:e9:19:12:2a:6d:e5:af:
         24:3c:c8:13:10:9b:5a:0a:6f:72:97:15:00:05:80:bc:c6:d4:
         1f:5c:22:f3:66:0b:2a:e3:7d:9a:eb:a8:b1:3b:fc:fa:d6:9c:
         e3:e2:d5:73:c0:47:bd:b4:93:7b:c2:71:65:6b:f9:bb:01:a1:
         88:8e:0b:37:6e:57:d9:82:03:9e:80:74:4a:fe:48:df:95:d2:
         ef:72:2b:8b:fd:4c:55:12:53:c5:ef:b8:51:f3:83:b0:cf:2e:
         ff:11:9b:11:a2:c8:59:95:3e:ba:81:b2:49:82:af:7d:31:10:
         45:f2:44:64:7d:42:22:7c:1d:70:ad:03:c1:a2:56:27:d1:c2:
         69:4c:10:b0:61:ba:6f:d9:6c:e8:6a:ca:54:61:5b:eb:78:19:
         57:8f:f0:fe:09:f7:f0:8b:d6:96:23:3f:a9:78:4d:06:25:40:
         9b:1e:57:2a:e6:59:bf:57:96:e4:c1:90:9c:38:49:53:a7:00:
         8d:51:68:f6:44:33:df:04:b8:de:b2:77:ca:6d:47:bb:63:24:
         41:81:9d:41:ac:81:a6:94:ff:14:7d:60:4b:f5:17:4c:fb:55:
         46:11:1d:a7:ac:65:08:a6:43:1d:68:03:17:1a:4f:88:5a:fe:
         bf:f4:97:37:fc:56:e3:25:41:ce:84:2e:ea:2b:68:09:a8:1e:
         8a:3c:3d:6b:2c:7e:6a:c8:79:cd:6e:44:4e:1d:f3:4b:e8:84:
         32:f6:52:3f:d2:d0:bc:0a:70:59:b7:ac:2e:bb:84:70:fb:6d:
         9d:0e:25:09:46:31:3c:22:ec:0b:ca:fe:d2:7e:bd:a2:16:0d:
         42:6a:09:62:a0:d8:07:3c:ae:b1:42:5b:85:3d:5c:17:11:8b:
         dc:ce:11:e0:73:64:a2:43:e4:01:4b:b7:06:54:02:fd:f6:03:
         06:75:31:9d:18:8c:d3:d2:fb:4b:9b:01:17:e6:31:8a:14:8e:
         cd:61:b4:b3:45:59:3b:c3:07:e9:d6:82:e9:8f:a6:dd:5e:c2:
         e9:ff:a8:2e:23:cd:e9:aa:8f:22:ee:d2:85:e2:92:7b:af:92:
         3e:a6:c6:05:74:e1:65:5a:c2:4f:c9:4a:85:11:6f:32:31:94:
         70:21:20:95:8e:c7:6e:c2:21:be:5f:24:d0:7e:21:ce:9c:f6:
         1e:c9:86:4b:d6:e0:7f:d5:7f:0d:df:67:58:b4:2c:0c:cd:46:
         d3:2b:5d:77:0d:24:aa:ca
-----BEGIN CERTIFICATE-----
MIIGrTCCBJWgAwIBAgICL4IwDQYJKoZIhvcNAQELBQAwgawxCzAJBgNVBAYTAlVT
MQswCQYDVQQIEwJPSDERMA8GA1UEBxMIQ29sdW1idXMxEjAQBgNVBAoTCVZpa2lu
Z1ZQTjEdMBsGA1UECxMUTXlPcmdhbml6YXRpb25hbFVuaXQxFTATBgNVBAMTDFZp
a2luZ1ZQTiBDQTEQMA4GA1UEKRMHRWFzeVJTQTEhMB8GCSqGSIb3DQEJARYSbWVA
bXlob3N0Lm15ZG9tYWluMB4XDTE3MTEyNjExNTA0MVoXDTI3MTEyNDExNTA0MVow
HzEdMBsGA1UEAxMUQ2xpZW50MzE2M0NlcnRmOThmOWMwggIiMA0GCSqGSIb3DQEB
AQUAA4ICDwAwggIKAoICAQCvRUFDH3d5MOfqTE6Qo9JoV/Er4DYlQlG8K7BuCk6x
cGH3OA3McyRixByyOt+Dp6B9KqsiCXCl3AA0RdSi29YLI2lJvCcqAoa5SYiI5p2N
ZasBtZI0yHos5aO190EQwiiiXaTphEFm/nYzvosGqvIVn6uMqby5h2H1dng+sEwb
gZInooud2rf6f1+q32+SZbfbiyV4MAPYU1tXjvdgxZIWSqiNFmYyzUUpFT/7Af6Y
Xc7MQM9ICIBSocV+QM4IJJvyz5thM/qUn8q4QI0Q7DuSrvDzxcbO6giqn2tgwd0I
29P8BNfjnWQyMTOA8Doz3duyM7oBUA6SqNFIVvjsU9pk4/may1rrzx8jGAi4otX4
bF+Er4BrP+NnZa5PKnmfzpUCoAgyRfJ+YHHDtekIOPpstM/w4dd6rTbDRiZwlMUG
1aGeTbZ/oUac2NqKO34/kbiGkji17frqOy+KQuaZyEwV03L4ZCZLrE/AhV3p0TXJ
boxAxOB6fttezjUIW/GuixqKOz5doPWlZ0xTxYhWnvfgf+jgrf+qJ/geX5ShARsM
pJxolFbDRaMXpYJKZEdu3QATg3Pe5Qo+QikjAdKX2zGf8PBqMdHiIsLiorvSddsF
OQOwAZYnJGrMa8UUU+VV3VOCZTIoA1Lcr9b+eUc+HuhR+AyzxwUPeOh1ICbT8FD2
VwIDAQABo4IBYzCCAV8wCQYDVR0TBAIwADAtBglghkgBhvhCAQ0EIBYeRWFzeS1S
U0EgR2VuZXJhdGVkIENlcnRpZmljYXRlMB0GA1UdDgQWBBQJOzfXmZSSeydd+oJn
4VHuC7RGHzCB4QYDVR0jBIHZMIHWgBQSzWAE0qCAnnDtxpm4eyzGUv0ZoaGBsqSB
rzCBrDELMAkGA1UEBhMCVVMxCzAJBgNVBAgTAk9IMREwDwYDVQQHEwhDb2x1bWJ1
czESMBAGA1UEChMJVmlraW5nVlBOMR0wGwYDVQQLExRNeU9yZ2FuaXphdGlvbmFs
VW5pdDEVMBMGA1UEAxMMVmlraW5nVlBOIENBMRAwDgYDVQQpEwdFYXN5UlNBMSEw
HwYJKoZIhvcNAQkBFhJtZUBteWhvc3QubXlkb21haW6CCQDPNYXugL8qPjATBgNV
HSUEDDAKBggrBgEFBQcDAjALBgNVHQ8EBAMCB4AwDQYJKoZIhvcNAQELBQADggIB
AGYWKv6KIBVUqM7Mb/GKNmOfNF1J+foTKoNQuPJ5bLbovh1VlK1yx3Iu+jPSErAD
6RkSKm3lryQ8yBMQm1oKb3KXFQAFgLzG1B9cIvNmCyrjfZrrqLE7/PrWnOPi1XPA
R720k3vCcWVr+bsBoYiOCzduV9mCA56AdEr+SN+V0u9yK4v9TFUSU8XvuFHzg7DP
Lv8RmxGiyFmVPrqBskmCr30xEEXyRGR9QiJ8HXCtA8GiVifRwmlMELBhum/ZbOhq
ylRhW+t4GVeP8P4J9/CL1pYjP6l4TQYlQJseVyrmWb9XluTBkJw4SVOnAI1RaPZE
M98EuN6yd8ptR7tjJEGBnUGsgaaU/xR9YEv1F0z7VUYRHaesZQimQx1oAxcaT4ha
/r/0lzf8VuMlQc6ELuoraAmoHoo8PWssfmrIec1uRE4d80vohDL2Uj/S0LwKcFm3
rC67hHD7bZ0OJQlGMTwi7AvK/tJ+vaIWDUJqCWKg2Ac8rrFCW4U9XBcRi9zOEeBz
ZKJD5AFLtwZUAv32AwZ1MZ0YjNPS+0ubARfmMYoUjs1htLNFWTvDB+nWgumPpt1e
wun/qC4jzemqjyLu0oXiknuvkj6mxgV04WVawk/JSoURbzIxlHAhIJWOx27CIb5f
JNB+Ic6c9h7JhkvW4H/Vfw3fZ1i0LAzNRtMrXXcNJKrK
-----END CERTIFICATE-----
