Certificate:
    Data:
        Version: 3 (0x2)
        Serial Number: 8034 (0x1f62)
    Signature Algorithm: md5WithRSAEncryption
        Issuer: C=US, ST=OH, L=Columbus, O=VikingVPN, OU=MyOrganizationalUnit, CN=VikingVPN CA/name=EasyRSA/emailAddress=me@myhost.mydomain
        Validity
            Not Before: May 23 17:19:24 2016 GMT
            Not After : May 21 17:19:24 2026 GMT
        Subject: CN=Client1097Cert3f4a22
        Subject Public Key Info:
            Public Key Algorithm: rsaEncryption
                Public-Key: (4096 bit)
                Modulus:
                    00:c1:8b:ee:29:9a:2a:08:b3:33:af:69:70:08:3c:
                    3b:ee:18:6f:c7:ab:80:74:ef:f5:75:1f:cc:fe:ad:
                    61:ed:a8:52:e0:06:7c:d6:47:99:b8:b4:49:5d:fa:
                    ed:e3:f5:b8:4f:3e:4a:b0:c7:0d:ec:73:57:82:0d:
                    2b:05:31:02:a6:e4:3e:fa:14:c1:f3:78:bc:ef:37:
                    62:ce:dc:5d:a2:53:7d:e5:e0:41:8d:39:18:a7:d4:
                    0c:f4:34:72:de:33:05:0d:28:46:63:0c:a3:3f:d4:
                    0c:13:16:9d:0d:39:53:64:dc:07:b2:de:ab:2f:43:
                    7d:dd:7d:56:d2:f3:9e:83:0d:fe:1c:46:f4:90:15:
                    89:8b:4e:8c:f1:ef:72:4b:19:d4:16:03:9f:ab:2b:
                    a0:78:11:e9:62:53:8a:8e:f2:1e:56:04:a3:b5:6e:
                    16:d3:df:09:52:a1:ef:5d:5d:85:e3:7a:a5:2c:29:
                    e5:ea:97:08:28:d9:e6:29:81:af:3c:df:5e:16:28:
                    78:50:70:f2:21:2c:33:de:b1:4b:e2:29:1d:48:46:
                    ae:e9:b2:03:bb:82:10:6b:14:a2:50:91:a7:4f:f5:
                    09:77:73:da:87:9b:bf:ea:1e:81:28:37:ce:9f:f9:
                    f5:29:9d:3e:f2:6a:71:d0:25:d5:13:1a:73:9c:17:
                    17:43:10:65:a1:84:1e:b4:80:7b:af:0a:14:07:59:
                    b7:44:fd:b7:28:19:13:75:8d:18:29:30:ba:aa:69:
                    b9:aa:52:a3:31:28:81:05:8a:3d:38:78:4e:d1:05:
                    8b:48:56:26:44:c4:d7:d6:1a:74:f2:62:e9:0a:0b:
                    ae:62:c2:29:da:0d:07:fb:a3:bf:3a:d9:cc:57:a1:
                    7b:3c:57:64:94:f5:f5:b3:53:41:91:ff:8d:b1:48:
                    84:4f:9f:1d:2d:50:dd:25:a3:7f:0d:99:14:63:96:
                    40:ae:41:8a:e6:5b:ab:b0:50:76:ce:82:c2:8c:1f:
                    5f:1d:8a:9d:07:65:76:98:63:28:6b:2a:6b:ef:7d:
                    52:94:0e:c2:34:e9:a3:32:eb:d9:58:56:b1:1b:18:
                    b8:7b:07:6d:38:ea:10:08:eb:a2:49:24:21:35:15:
                    4b:20:f5:41:4f:e8:ea:5e:bd:15:97:b9:2e:f0:4d:
                    bf:a8:cc:49:bc:63:d2:06:18:50:b8:b9:63:8b:b1:
                    5b:f8:ae:6d:a5:0f:7c:2e:e5:a8:c2:77:94:0c:55:
                    34:94:49:39:be:2b:e0:65:43:b8:1e:1f:98:58:73:
                    44:01:37:3d:51:76:e5:b0:ad:53:d0:54:22:3f:3e:
                    57:d7:b4:46:16:a7:1a:ad:98:f6:1a:42:9a:5c:fd:
                    7f:f6:db
                Exponent: 65537 (0x10001)
        X509v3 extensions:
            X509v3 Basic Constraints: 
                CA:FALSE
            Netscape Comment: 
                Easy-RSA Generated Certificate
            X509v3 Subject Key Identifier: 
                E3:4D:41:8E:09:3A:F9:1A:7B:12:F3:B1:92:A2:9D:1B:9E:02:0D:64
            X509v3 Authority Key Identifier: 
                keyid:12:CD:60:04:D2:A0:80:9E:70:ED:C6:99:B8:7B:2C:C6:52:FD:19:A1
                DirName:/C=US/ST=OH/L=Columbus/O=VikingVPN/OU=MyOrganizationalUnit/CN=VikingVPN CA/name=EasyRSA/emailAddress=me@myhost.mydomain
                serial:CF:35:85:EE:80:BF:2A:3E

            X509v3 Extended Key Usage: 
                TLS Web Client Authentication
            X509v3 Key Usage: 
                Digital Signature
    Signature Algorithm: md5WithRSAEncryption
         2f:93:26:fa:01:9b:cd:73:c6:6d:19:29:ea:d6:1b:10:b1:24:
         56:b3:65:68:5c:3c:3b:f5:b2:15:4c:cc:49:19:13:d0:17:9f:
         97:ed:d7:f7:c9:67:87:c9:7e:03:c3:9a:15:86:75:3d:4b:ed:
         2c:77:d3:9e:45:da:db:5d:96:93:23:12:99:93:ab:2c:c2:3a:
         83:b7:43:72:0f:76:5b:92:25:20:a0:a6:21:d1:48:5f:22:48:
         86:8d:29:e3:37:64:f8:8f:54:10:27:63:09:bc:b3:09:3a:cb:
         40:e5:a1:3c:78:a8:e2:d2:1d:1d:0d:b7:6f:67:cf:fa:bd:f7:
         88:45:e1:3d:a4:14:fc:4c:75:bd:24:88:ee:cb:30:88:e1:74:
         e9:da:55:10:35:b1:2d:51:61:54:a1:6b:db:79:36:5f:29:73:
         b2:8c:93:9e:71:77:80:bd:6a:83:ee:bb:47:10:e0:fc:ac:4b:
         c7:02:01:4a:bd:51:e7:9d:aa:f0:e2:87:a0:db:6e:bf:00:32:
         01:a6:1b:0f:81:64:9b:d9:34:3e:af:b2:c1:2e:7a:82:be:9f:
         f8:6f:7c:ef:4e:3f:02:8d:bc:29:3f:f8:a4:49:f5:5b:5d:0f:
         12:1f:bc:f6:14:86:bf:78:a9:30:bc:21:a8:08:98:05:27:e0:
         57:84:6f:4c:db:73:d3:6f:b6:f9:f8:da:7a:66:c6:c2:55:35:
         f7:c7:b9:34:23:ab:13:5d:63:01:dd:5f:9e:ab:c6:96:17:9f:
         8f:a9:5c:d2:84:69:ee:6b:58:49:e3:a1:07:46:f7:b2:e5:59:
         87:07:59:71:37:98:a2:8e:f8:2b:aa:d9:8a:9f:96:7b:bb:71:
         a2:46:df:33:b7:3c:ab:c8:23:16:9a:53:dc:8f:24:83:86:63:
         28:3e:7a:b4:13:fb:02:1a:83:f1:92:5c:1f:f9:69:ea:68:16:
         97:5d:4d:68:19:fd:33:61:d1:e2:2e:57:f3:34:fb:ac:a7:29:
         31:9a:09:cc:f3:7d:58:ad:49:75:26:fb:61:d9:b9:33:f1:67:
         78:64:ce:9a:bc:fc:ce:00:87:e9:2d:38:27:24:f9:5e:64:7e:
         73:19:ee:1e:17:d6:50:90:0e:7c:8b:70:dc:0e:fd:02:a5:a5:
         87:33:26:38:68:da:d9:d0:94:92:00:09:b1:d6:c2:e7:ae:97:
         69:bf:66:cb:4e:54:16:57:1c:e7:27:a1:ee:a9:5b:ea:b6:82:
         ec:1b:7e:b8:3c:34:ac:80:d8:c4:e1:ab:79:0f:5d:45:27:39:
         a1:e3:a5:d9:73:7e:36:35:13:08:4b:aa:80:c0:30:5b:e9:5d:
         d2:ba:f9:40:06:8b:2d:07
-----BEGIN CERTIFICATE-----
MIIGrTCCBJWgAwIBAgICH2IwDQYJKoZIhvcNAQEEBQAwgawxCzAJBgNVBAYTAlVT
MQswCQYDVQQIEwJPSDERMA8GA1UEBxMIQ29sdW1idXMxEjAQBgNVBAoTCVZpa2lu
Z1ZQTjEdMBsGA1UECxMUTXlPcmdhbml6YXRpb25hbFVuaXQxFTATBgNVBAMTDFZp
a2luZ1ZQTiBDQTEQMA4GA1UEKRMHRWFzeVJTQTEhMB8GCSqGSIb3DQEJARYSbWVA
bXlob3N0Lm15ZG9tYWluMB4XDTE2MDUyMzE3MTkyNFoXDTI2MDUyMTE3MTkyNFow
HzEdMBsGA1UEAxMUQ2xpZW50MTA5N0NlcnQzZjRhMjIwggIiMA0GCSqGSIb3DQEB
AQUAA4ICDwAwggIKAoICAQDBi+4pmioIszOvaXAIPDvuGG/Hq4B07/V1H8z+rWHt
qFLgBnzWR5m4tEld+u3j9bhPPkqwxw3sc1eCDSsFMQKm5D76FMHzeLzvN2LO3F2i
U33l4EGNORin1Az0NHLeMwUNKEZjDKM/1AwTFp0NOVNk3Aey3qsvQ33dfVbS856D
Df4cRvSQFYmLTozx73JLGdQWA5+rK6B4EeliU4qO8h5WBKO1bhbT3wlSoe9dXYXj
eqUsKeXqlwgo2eYpga88314WKHhQcPIhLDPesUviKR1IRq7psgO7ghBrFKJQkadP
9Ql3c9qHm7/qHoEoN86f+fUpnT7yanHQJdUTGnOcFxdDEGWhhB60gHuvChQHWbdE
/bcoGRN1jRgpMLqqabmqUqMxKIEFij04eE7RBYtIViZExNfWGnTyYukKC65iwina
DQf7o7862cxXoXs8V2SU9fWzU0GR/42xSIRPnx0tUN0lo38NmRRjlkCuQYrmW6uw
UHbOgsKMH18dip0HZXaYYyhrKmvvfVKUDsI06aMy69lYVrEbGLh7B2046hAI66JJ
JCE1FUsg9UFP6OpevRWXuS7wTb+ozEm8Y9IGGFC4uWOLsVv4rm2lD3wu5ajCd5QM
VTSUSTm+K+BlQ7geH5hYc0QBNz1RduWwrVPQVCI/PlfXtEYWpxqtmPYaQppc/X/2
2wIDAQABo4IBYzCCAV8wCQYDVR0TBAIwADAtBglghkgBhvhCAQ0EIBYeRWFzeS1S
U0EgR2VuZXJhdGVkIENlcnRpZmljYXRlMB0GA1UdDgQWBBTjTUGOCTr5GnsS87GS
op0bngINZDCB4QYDVR0jBIHZMIHWgBQSzWAE0qCAnnDtxpm4eyzGUv0ZoaGBsqSB
rzCBrDELMAkGA1UEBhMCVVMxCzAJBgNVBAgTAk9IMREwDwYDVQQHEwhDb2x1bWJ1
czESMBAGA1UEChMJVmlraW5nVlBOMR0wGwYDVQQLExRNeU9yZ2FuaXphdGlvbmFs
VW5pdDEVMBMGA1UEAxMMVmlraW5nVlBOIENBMRAwDgYDVQQpEwdFYXN5UlNBMSEw
HwYJKoZIhvcNAQkBFhJtZUBteWhvc3QubXlkb21haW6CCQDPNYXugL8qPjATBgNV
HSUEDDAKBggrBgEFBQcDAjALBgNVHQ8EBAMCB4AwDQYJKoZIhvcNAQEEBQADggIB
AC+TJvoBm81zxm0ZKerWGxCxJFazZWhcPDv1shVMzEkZE9AXn5ft1/fJZ4fJfgPD
mhWGdT1L7Sx3055F2ttdlpMjEpmTqyzCOoO3Q3IPdluSJSCgpiHRSF8iSIaNKeM3
ZPiPVBAnYwm8swk6y0DloTx4qOLSHR0Nt29nz/q994hF4T2kFPxMdb0kiO7LMIjh
dOnaVRA1sS1RYVSha9t5Nl8pc7KMk55xd4C9aoPuu0cQ4PysS8cCAUq9UeedqvDi
h6Dbbr8AMgGmGw+BZJvZND6vssEueoK+n/hvfO9OPwKNvCk/+KRJ9VtdDxIfvPYU
hr94qTC8IagImAUn4FeEb0zbc9Nvtvn42npmxsJVNffHuTQjqxNdYwHdX56rxpYX
n4+pXNKEae5rWEnjoQdG97LlWYcHWXE3mKKO+Cuq2Yqflnu7caJG3zO3PKvIIxaa
U9yPJIOGYyg+erQT+wIag/GSXB/5aepoFpddTWgZ/TNh0eIuV/M0+6ynKTGaCczz
fVitSXUm+2HZuTPxZ3hkzpq8/M4Ah+ktOCck+V5kfnMZ7h4X1lCQDnyLcNwO/QKl
pYczJjho2tnQlJIACbHWwueul2m/ZstOVBZXHOcnoe6pW+q2guwbfrg8NKyA2MTh
q3kPXUUnOaHjpdlzfjY1EwhLqoDAMFvpXdK6+UAGiy0H
-----END CERTIFICATE-----
