Certificate:
    Data:
        Version: 3 (0x2)
        Serial Number: 10798 (0x2a2e)
    Signature Algorithm: sha256WithRSAEncryption
        Issuer: C=US, ST=OH, L=Columbus, O=VikingVPN, OU=MyOrganizationalUnit, CN=VikingVPN CA/name=EasyRSA/emailAddress=me@myhost.mydomain
        Validity
            Not Before: Apr 25 03:10:32 2017 GMT
            Not After : Apr 23 03:10:32 2027 GMT
        Subject: CN=Client763Certd9a7df
        Subject Public Key Info:
            Public Key Algorithm: rsaEncryption
                Public-Key: (4096 bit)
                Modulus:
                    00:db:5d:d6:e8:c2:6b:0c:36:20:f0:26:8f:0c:92:
                    8b:b6:62:d3:f5:2f:24:b4:1e:e1:87:e5:fd:63:48:
                    1a:5c:4f:5a:c4:bf:c7:88:32:2e:ec:56:58:6e:7c:
                    9c:b5:dd:b5:9e:ab:9c:f8:af:93:2a:b6:d9:bb:12:
                    4b:f9:19:ab:9f:39:0e:0a:9e:55:28:54:21:02:8d:
                    f6:ce:31:ac:be:19:e3:e7:12:45:be:bc:c8:fd:be:
                    cd:25:7b:1b:71:3a:2a:9f:3d:c9:59:5a:65:28:c8:
                    85:93:a2:04:c6:38:bd:da:61:52:8a:0f:b5:9e:32:
                    f5:df:f8:19:ad:d8:a0:83:45:40:3a:dd:17:ee:e8:
                    86:46:06:0f:a4:d0:3a:9a:02:f2:38:70:ee:b0:a5:
                    24:11:a4:24:9f:e7:24:9b:73:e9:84:e8:08:fc:0c:
                    0a:49:47:76:ce:fd:e1:5d:5b:dc:4d:14:86:1e:e7:
                    83:d1:b3:88:af:2e:db:11:56:34:70:8a:31:28:85:
                    2e:10:ff:7a:89:c5:23:c7:e6:74:de:c0:b7:ae:26:
                    53:9c:8c:4d:3a:be:1b:b3:a1:eb:41:bf:7b:4c:57:
                    00:5b:c1:21:50:b9:87:96:c1:3c:e5:b5:b9:0e:09:
                    5e:6c:70:4a:5f:56:0a:a1:35:ef:25:e4:73:18:ca:
                    82:21:ef:b7:c4:5c:5b:b9:b2:c6:57:35:5d:51:a5:
                    50:c6:60:1d:b0:79:95:8f:59:4a:33:c9:47:49:eb:
                    84:2a:ec:59:93:cf:1a:60:8e:57:4b:c9:84:c5:ab:
                    7a:8a:f7:aa:34:9a:ca:d6:63:ef:00:86:0a:c3:51:
                    08:e1:dc:79:4d:da:1f:b0:eb:33:05:f9:26:10:a5:
                    f5:b7:ed:9f:5c:56:75:dc:43:2e:23:71:50:e8:34:
                    e0:88:f4:77:b5:46:8a:60:74:62:c2:11:bb:dc:dc:
                    ea:8f:1e:f2:01:07:02:2f:95:c6:2a:bf:ae:a8:7d:
                    e6:cb:dd:97:da:3a:1d:00:c3:e9:63:16:d2:64:81:
                    bc:39:69:64:81:41:1f:6c:5d:59:fd:8b:44:98:9b:
                    63:66:27:2b:74:81:14:3b:61:e8:09:19:a5:ed:4c:
                    b4:38:d3:e5:26:a4:49:a9:a7:c9:0e:06:23:02:c3:
                    57:80:93:6e:f6:52:8f:a3:e1:a5:53:f4:5b:4d:6f:
                    3c:14:b1:c8:2b:29:b7:0b:86:b3:75:07:5d:3e:6b:
                    08:42:f7:c2:6a:5e:0c:b5:33:cc:1a:29:39:0c:b5:
                    b7:34:bb:15:2c:49:f5:c1:f5:26:db:b6:91:b6:37:
                    6b:3c:49:9f:55:b0:4f:b1:ed:e3:51:fe:90:35:c9:
                    0f:29:4f
                Exponent: 65537 (0x10001)
        X509v3 extensions:
            X509v3 Basic Constraints: 
                CA:FALSE
            Netscape Comment: 
                Easy-RSA Generated Certificate
            X509v3 Subject Key Identifier: 
                87:90:0F:59:2A:02:00:97:F9:65:29:53:EA:DA:0A:F9:66:9F:FC:B8
            X509v3 Authority Key Identifier: 
                keyid:12:CD:60:04:D2:A0:80:9E:70:ED:C6:99:B8:7B:2C:C6:52:FD:19:A1
                DirName:/C=US/ST=OH/L=Columbus/O=VikingVPN/OU=MyOrganizationalUnit/CN=VikingVPN CA/name=EasyRSA/emailAddress=me@myhost.mydomain
                serial:CF:35:85:EE:80:BF:2A:3E

            X509v3 Extended Key Usage: 
                TLS Web Client Authentication
            X509v3 Key Usage: 
                Digital Signature
    Signature Algorithm: sha256WithRSAEncryption
         a5:82:d2:82:94:55:0b:a7:10:b1:ff:43:0a:2d:e3:26:41:f3:
         9e:4c:a9:6c:30:df:44:37:eb:1d:d4:e7:d2:25:4e:86:7c:63:
         86:50:ed:d5:b4:dc:55:94:0e:75:45:61:59:38:6c:c4:e1:0e:
         2a:07:d5:c8:fd:90:ef:c1:bc:45:4c:b7:94:1b:eb:9e:a9:06:
         cf:e1:99:00:58:12:e0:f4:c9:3e:25:89:be:07:0c:4f:03:8c:
         c0:ad:07:34:41:c6:c0:93:83:db:41:f1:fd:19:2d:01:a5:36:
         76:f5:53:c6:b4:fd:7e:a0:56:7e:a0:06:e0:57:e8:f8:fe:3e:
         a3:33:a7:75:08:b4:dc:66:b4:02:46:05:92:69:3d:e0:a2:c0:
         cb:13:fd:39:fe:e7:3d:2f:d5:5e:30:d8:fb:07:16:02:25:39:
         ca:ea:82:d1:56:b7:16:22:4b:64:fd:0c:11:e7:81:3d:61:b6:
         00:92:42:ee:18:c3:9f:ad:fe:11:aa:f7:7f:17:9d:06:12:62:
         b1:60:22:1f:69:e2:7a:f9:fa:da:30:65:43:f8:4f:11:90:5b:
         bc:e0:00:4e:1a:51:fd:52:db:7f:d4:57:5a:2b:fa:97:bf:17:
         e2:bd:ea:a9:11:ee:6b:36:eb:30:c0:cb:95:46:33:48:c6:7e:
         62:55:bb:e7:da:7b:36:47:d4:fd:14:75:e8:18:ed:21:4f:17:
         30:20:49:66:95:66:03:a1:31:68:41:59:a2:e7:96:51:33:fd:
         77:c9:61:45:64:6e:c7:90:42:e8:1b:0a:75:f8:f2:e7:e7:07:
         82:7b:cd:c1:8b:91:74:dd:be:14:58:2c:c9:a8:1a:bc:93:cc:
         b6:e7:0f:2f:56:55:1b:02:56:5f:26:d8:3d:cf:f1:e5:24:d8:
         e2:24:c1:52:99:f0:fc:72:d7:9b:3c:e2:4a:d8:e1:dc:d1:45:
         22:3a:ed:92:54:3b:19:fc:ed:60:9c:32:e4:90:14:06:93:6f:
         35:09:e6:a3:5d:e6:f8:b4:bd:4c:20:fc:49:a0:d0:31:cc:fa:
         b4:cc:1f:4d:fe:c8:61:40:1f:22:3e:a2:ae:96:f6:c6:b3:36:
         9e:6f:09:e7:7e:20:a9:a3:1b:7b:e8:d0:d6:c0:bd:88:23:48:
         82:4d:bc:b9:57:1b:90:03:da:45:12:c4:e3:53:b6:c0:80:21:
         a8:9e:73:22:61:9c:83:ba:08:79:d0:74:cf:0a:7b:d8:ad:81:
         70:15:f1:3f:0c:c5:c9:fc:b1:1b:7b:cd:1a:2c:57:db:21:b7:
         61:ce:30:8e:fb:44:60:ff:01:c7:0c:34:dc:d7:c7:cb:e9:b5:
         57:9a:9f:34:3b:9a:4a:da
-----BEGIN CERTIFICATE-----
MIIGrDCCBJSgAwIBAgICKi4wDQYJKoZIhvcNAQELBQAwgawxCzAJBgNVBAYTAlVT
MQswCQYDVQQIEwJPSDERMA8GA1UEBxMIQ29sdW1idXMxEjAQBgNVBAoTCVZpa2lu
Z1ZQTjEdMBsGA1UECxMUTXlPcmdhbml6YXRpb25hbFVuaXQxFTATBgNVBAMTDFZp
a2luZ1ZQTiBDQTEQMA4GA1UEKRMHRWFzeVJTQTEhMB8GCSqGSIb3DQEJARYSbWVA
bXlob3N0Lm15ZG9tYWluMB4XDTE3MDQyNTAzMTAzMloXDTI3MDQyMzAzMTAzMlow
HjEcMBoGA1UEAxMTQ2xpZW50NzYzQ2VydGQ5YTdkZjCCAiIwDQYJKoZIhvcNAQEB
BQADggIPADCCAgoCggIBANtd1ujCaww2IPAmjwySi7Zi0/UvJLQe4Yfl/WNIGlxP
WsS/x4gyLuxWWG58nLXdtZ6rnPivkyq22bsSS/kZq585DgqeVShUIQKN9s4xrL4Z
4+cSRb68yP2+zSV7G3E6Kp89yVlaZSjIhZOiBMY4vdphUooPtZ4y9d/4Ga3YoINF
QDrdF+7ohkYGD6TQOpoC8jhw7rClJBGkJJ/nJJtz6YToCPwMCklHds794V1b3E0U
hh7ng9GziK8u2xFWNHCKMSiFLhD/eonFI8fmdN7At64mU5yMTTq+G7Oh60G/e0xX
AFvBIVC5h5bBPOW1uQ4JXmxwSl9WCqE17yXkcxjKgiHvt8RcW7myxlc1XVGlUMZg
HbB5lY9ZSjPJR0nrhCrsWZPPGmCOV0vJhMWreor3qjSaytZj7wCGCsNRCOHceU3a
H7DrMwX5JhCl9bftn1xWddxDLiNxUOg04Ij0d7VGimB0YsIRu9zc6o8e8gEHAi+V
xiq/rqh95svdl9o6HQDD6WMW0mSBvDlpZIFBH2xdWf2LRJibY2YnK3SBFDth6AkZ
pe1MtDjT5SakSamnyQ4GIwLDV4CTbvZSj6PhpVP0W01vPBSxyCsptwuGs3UHXT5r
CEL3wmpeDLUzzBopOQy1tzS7FSxJ9cH1Jtu2kbY3azxJn1WwT7Ht41H+kDXJDylP
AgMBAAGjggFjMIIBXzAJBgNVHRMEAjAAMC0GCWCGSAGG+EIBDQQgFh5FYXN5LVJT
QSBHZW5lcmF0ZWQgQ2VydGlmaWNhdGUwHQYDVR0OBBYEFIeQD1kqAgCX+WUpU+ra
Cvlmn/y4MIHhBgNVHSMEgdkwgdaAFBLNYATSoICecO3Gmbh7LMZS/RmhoYGypIGv
MIGsMQswCQYDVQQGEwJVUzELMAkGA1UECBMCT0gxETAPBgNVBAcTCENvbHVtYnVz
MRIwEAYDVQQKEwlWaWtpbmdWUE4xHTAbBgNVBAsTFE15T3JnYW5pemF0aW9uYWxV
bml0MRUwEwYDVQQDEwxWaWtpbmdWUE4gQ0ExEDAOBgNVBCkTB0Vhc3lSU0ExITAf
BgkqhkiG9w0BCQEWEm1lQG15aG9zdC5teWRvbWFpboIJAM81he6Avyo+MBMGA1Ud
JQQMMAoGCCsGAQUFBwMCMAsGA1UdDwQEAwIHgDANBgkqhkiG9w0BAQsFAAOCAgEA
pYLSgpRVC6cQsf9DCi3jJkHznkypbDDfRDfrHdTn0iVOhnxjhlDt1bTcVZQOdUVh
WThsxOEOKgfVyP2Q78G8RUy3lBvrnqkGz+GZAFgS4PTJPiWJvgcMTwOMwK0HNEHG
wJOD20Hx/RktAaU2dvVTxrT9fqBWfqAG4Ffo+P4+ozOndQi03Ga0AkYFkmk94KLA
yxP9Of7nPS/VXjDY+wcWAiU5yuqC0Va3FiJLZP0MEeeBPWG2AJJC7hjDn63+Ear3
fxedBhJisWAiH2nievn62jBlQ/hPEZBbvOAAThpR/VLbf9RXWiv6l78X4r3qqRHu
azbrMMDLlUYzSMZ+YlW759p7NkfU/RR16BjtIU8XMCBJZpVmA6ExaEFZoueWUTP9
d8lhRWRux5BC6BsKdfjy5+cHgnvNwYuRdN2+FFgsyagavJPMtucPL1ZVGwJWXybY
Pc/x5STY4iTBUpnw/HLXmzziStjh3NFFIjrtklQ7GfztYJwy5JAUBpNvNQnmo13m
+LS9TCD8SaDQMcz6tMwfTf7IYUAfIj6irpb2xrM2nm8J534gqaMbe+jQ1sC9iCNI
gk28uVcbkAPaRRLE41O2wIAhqJ5zImGcg7oIedB0zwp72K2BcBXxPwzFyfyxG3vN
GixX2yG3Yc4wjvtEYP8Bxww03NfHy+m1V5qfNDuaSto=
-----END CERTIFICATE-----
