Certificate:
    Data:
        Version: 3 (0x2)
        Serial Number: 10279 (0x2827)
    Signature Algorithm: sha256WithRSAEncryption
        Issuer: C=US, ST=OH, L=Columbus, O=VikingVPN, OU=MyOrganizationalUnit, CN=VikingVPN CA/name=EasyRSA/emailAddress=me@myhost.mydomain
        Validity
            Not Before: Mar 11 01:26:26 2017 GMT
            Not After : Mar  9 01:26:26 2027 GMT
        Subject: CN=Client2761Certf614ff
        Subject Public Key Info:
            Public Key Algorithm: rsaEncryption
                Public-Key: (4096 bit)
                Modulus:
                    00:a1:80:8f:c2:39:d3:10:d1:47:b6:bb:82:57:2c:
                    d7:df:41:b6:ca:6d:92:33:b6:32:de:bc:29:19:a5:
                    90:e0:14:cc:a1:d0:1c:95:1b:e1:72:dd:83:3b:34:
                    8c:fa:09:b2:dd:e3:5e:85:3f:d3:54:01:a6:f4:f0:
                    ca:1c:d3:bc:e3:87:26:2f:1f:96:6a:0e:f3:63:5e:
                    61:7c:f5:d8:b0:01:f7:a3:b6:d3:b0:39:f3:21:c0:
                    60:73:9b:21:2f:c6:ba:34:65:6e:3b:68:20:6e:b9:
                    e1:de:bd:fd:c7:c5:ee:95:d9:c3:20:99:77:62:a6:
                    0e:92:69:b0:28:96:fa:fa:ba:2a:2e:fd:d3:6a:36:
                    2d:62:1f:7c:cd:f3:7b:83:cc:02:9b:26:de:e9:58:
                    8f:12:f6:ab:2a:39:d8:21:3b:08:ba:79:11:0c:d2:
                    00:91:aa:ed:3c:c9:c3:78:85:ca:52:65:57:99:28:
                    ac:0e:64:77:d1:d2:47:39:2e:c3:a8:48:5c:48:a4:
                    d5:28:f6:f6:a7:19:86:29:31:91:44:3c:c1:46:ea:
                    80:53:04:63:47:49:0d:cc:37:d8:b7:70:46:7b:d7:
                    fd:32:30:42:b3:68:27:62:37:59:23:ed:51:ce:52:
                    47:47:01:d3:e0:fe:9c:ee:46:72:9f:a7:3a:89:2c:
                    25:d0:b8:73:65:98:dc:ac:21:59:03:c7:fd:cc:b5:
                    4f:d4:63:ba:10:b4:b4:48:ff:1e:b0:43:1f:f5:9d:
                    29:6a:38:1d:76:07:34:d9:39:7f:92:7b:9c:49:87:
                    4a:81:7d:39:8c:f3:5d:76:dd:7b:51:66:4f:ba:c5:
                    3e:21:b6:cb:c6:8e:5b:8d:92:a6:00:3b:62:fd:83:
                    6e:b0:f3:da:85:0f:46:f4:25:80:82:46:54:2a:84:
                    42:ae:e5:31:2f:f6:47:d5:7d:85:f2:c8:99:6f:d1:
                    58:08:f9:8d:74:8c:20:6f:cc:8b:0b:1f:8c:51:38:
                    21:67:c4:96:76:d7:71:02:fa:26:47:5e:e9:75:58:
                    02:40:6b:76:10:8b:82:a8:6c:83:7e:26:d1:e9:d5:
                    a1:85:54:b7:d6:af:99:98:6e:88:eb:21:11:f2:bb:
                    1e:0d:73:89:20:17:69:2c:a6:b7:9e:95:64:8f:bb:
                    d2:23:99:f1:9b:72:dc:d9:77:75:78:0b:9e:4d:8e:
                    da:47:41:fa:74:a0:55:6e:11:ac:2c:ea:04:1d:76:
                    3d:a3:b5:7a:cc:a4:ab:bd:54:75:d3:a7:61:c6:bd:
                    b5:8c:0a:ce:58:c7:f1:dd:f9:75:e5:41:d7:04:7d:
                    f2:37:9d:54:c5:9f:95:24:af:24:3b:7f:a5:d9:ac:
                    17:c1:79
                Exponent: 65537 (0x10001)
        X509v3 extensions:
            X509v3 Basic Constraints: 
                CA:FALSE
            Netscape Comment: 
                Easy-RSA Generated Certificate
            X509v3 Subject Key Identifier: 
                F7:72:E1:89:B3:12:F2:51:1C:D2:07:66:CE:62:EF:64:54:D4:42:5C
            X509v3 Authority Key Identifier: 
                keyid:12:CD:60:04:D2:A0:80:9E:70:ED:C6:99:B8:7B:2C:C6:52:FD:19:A1
                DirName:/C=US/ST=OH/L=Columbus/O=VikingVPN/OU=MyOrganizationalUnit/CN=VikingVPN CA/name=EasyRSA/emailAddress=me@myhost.mydomain
                serial:CF:35:85:EE:80:BF:2A:3E

            X509v3 Extended Key Usage: 
                TLS Web Client Authentication
            X509v3 Key Usage: 
                Digital Signature
    Signature Algorithm: sha256WithRSAEncryption
         0b:94:25:ee:74:63:be:5e:ac:11:cf:0f:e8:14:fa:66:a5:26:
         ec:68:2a:15:0a:9b:f6:04:8c:3b:53:1f:f5:2e:32:d2:62:96:
         b0:7f:73:4c:3b:d3:b6:ed:ae:ad:03:bf:55:68:2a:b5:47:9c:
         1f:04:1a:01:da:c1:70:6f:d9:fc:14:02:b2:ee:ae:3d:f9:5a:
         a2:6a:05:7e:fe:e3:03:19:a6:a2:0f:34:85:50:d3:e3:0c:56:
         4b:0a:b5:8c:6f:cf:59:1d:71:d6:dd:41:c4:94:7f:bb:d2:16:
         e0:01:2f:9e:fe:c1:51:ac:79:03:33:72:02:b9:db:8b:52:fd:
         65:c4:de:d5:5f:a0:ba:c1:97:9e:90:c5:cf:d7:7f:71:78:c9:
         b1:57:8c:3d:84:db:50:c3:fc:53:09:4a:77:b8:6f:70:c0:fb:
         e5:ff:c1:de:27:54:35:fa:01:ee:f9:18:d7:6e:64:64:fd:40:
         99:4e:b5:e7:89:e5:0f:50:54:f5:8f:ae:ec:7a:0c:3f:e7:df:
         9b:e5:91:11:34:46:7c:03:9d:ae:e3:23:c1:26:9c:26:12:0a:
         b0:d2:07:8f:fa:58:16:7d:76:a2:12:35:0f:e2:2a:30:6a:79:
         9a:56:67:ad:96:3a:a0:03:ab:8c:fd:5d:59:7f:a7:82:55:1c:
         c2:fc:e7:ef:d5:91:67:61:b3:d8:ec:99:8d:03:2a:dc:a8:49:
         56:01:4a:2a:3c:73:73:a7:4e:9a:3c:d5:3a:aa:37:ba:14:6c:
         47:e9:9c:97:c5:89:a0:df:fa:32:31:3e:4d:74:23:d8:cc:e3:
         7b:98:82:26:a5:41:6d:f2:87:86:a0:74:8b:31:15:25:52:9d:
         41:5e:39:b3:14:f5:ca:90:75:9c:fe:2f:d4:80:03:8b:39:dd:
         b8:6d:36:78:1b:6f:ef:11:39:47:78:95:32:2e:7e:07:a7:04:
         33:60:2e:94:0d:26:53:70:c0:a7:29:32:b8:f9:03:3f:dd:71:
         17:19:6f:70:f5:e5:b3:70:52:48:1f:2b:84:31:b2:de:f8:00:
         2a:14:0b:08:8d:75:8b:78:83:76:36:62:44:e5:e4:97:27:0e:
         11:4f:84:18:96:94:b3:9e:1e:41:83:4b:e3:52:3a:4e:bd:24:
         7c:96:85:80:7d:da:65:20:17:25:4c:c8:39:d5:f2:2f:7b:ff:
         00:7b:d3:90:19:21:d0:a4:1d:2c:70:b9:7c:b3:5e:49:6e:bf:
         ff:46:b7:bd:3e:50:fb:8b:ef:43:d2:b0:5a:af:6a:f1:25:ea:
         fa:3f:58:b3:8c:7c:ef:58:c9:c3:f7:51:1d:b5:90:12:4b:45:
         06:7f:2e:18:cb:b9:75:16
-----BEGIN CERTIFICATE-----
MIIGrTCCBJWgAwIBAgICKCcwDQYJKoZIhvcNAQELBQAwgawxCzAJBgNVBAYTAlVT
MQswCQYDVQQIEwJPSDERMA8GA1UEBxMIQ29sdW1idXMxEjAQBgNVBAoTCVZpa2lu
Z1ZQTjEdMBsGA1UECxMUTXlPcmdhbml6YXRpb25hbFVuaXQxFTATBgNVBAMTDFZp
a2luZ1ZQTiBDQTEQMA4GA1UEKRMHRWFzeVJTQTEhMB8GCSqGSIb3DQEJARYSbWVA
bXlob3N0Lm15ZG9tYWluMB4XDTE3MDMxMTAxMjYyNloXDTI3MDMwOTAxMjYyNlow
HzEdMBsGA1UEAxMUQ2xpZW50Mjc2MUNlcnRmNjE0ZmYwggIiMA0GCSqGSIb3DQEB
AQUAA4ICDwAwggIKAoICAQChgI/COdMQ0Ue2u4JXLNffQbbKbZIztjLevCkZpZDg
FMyh0ByVG+Fy3YM7NIz6CbLd416FP9NUAab08Moc07zjhyYvH5ZqDvNjXmF89diw
AfejttOwOfMhwGBzmyEvxro0ZW47aCBuueHevf3Hxe6V2cMgmXdipg6SabAolvr6
uiou/dNqNi1iH3zN83uDzAKbJt7pWI8S9qsqOdghOwi6eREM0gCRqu08ycN4hcpS
ZVeZKKwOZHfR0kc5LsOoSFxIpNUo9vanGYYpMZFEPMFG6oBTBGNHSQ3MN9i3cEZ7
1/0yMEKzaCdiN1kj7VHOUkdHAdPg/pzuRnKfpzqJLCXQuHNlmNysIVkDx/3MtU/U
Y7oQtLRI/x6wQx/1nSlqOB12BzTZOX+Se5xJh0qBfTmM81123XtRZk+6xT4htsvG
jluNkqYAO2L9g26w89qFD0b0JYCCRlQqhEKu5TEv9kfVfYXyyJlv0VgI+Y10jCBv
zIsLH4xROCFnxJZ213EC+iZHXul1WAJAa3YQi4KobIN+JtHp1aGFVLfWr5mYbojr
IRHyux4Nc4kgF2kspreelWSPu9IjmfGbctzZd3V4C55NjtpHQfp0oFVuEaws6gQd
dj2jtXrMpKu9VHXTp2HGvbWMCs5Yx/Hd+XXlQdcEffI3nVTFn5UkryQ7f6XZrBfB
eQIDAQABo4IBYzCCAV8wCQYDVR0TBAIwADAtBglghkgBhvhCAQ0EIBYeRWFzeS1S
U0EgR2VuZXJhdGVkIENlcnRpZmljYXRlMB0GA1UdDgQWBBT3cuGJsxLyURzSB2bO
Yu9kVNRCXDCB4QYDVR0jBIHZMIHWgBQSzWAE0qCAnnDtxpm4eyzGUv0ZoaGBsqSB
rzCBrDELMAkGA1UEBhMCVVMxCzAJBgNVBAgTAk9IMREwDwYDVQQHEwhDb2x1bWJ1
czESMBAGA1UEChMJVmlraW5nVlBOMR0wGwYDVQQLExRNeU9yZ2FuaXphdGlvbmFs
VW5pdDEVMBMGA1UEAxMMVmlraW5nVlBOIENBMRAwDgYDVQQpEwdFYXN5UlNBMSEw
HwYJKoZIhvcNAQkBFhJtZUBteWhvc3QubXlkb21haW6CCQDPNYXugL8qPjATBgNV
HSUEDDAKBggrBgEFBQcDAjALBgNVHQ8EBAMCB4AwDQYJKoZIhvcNAQELBQADggIB
AAuUJe50Y75erBHPD+gU+malJuxoKhUKm/YEjDtTH/UuMtJilrB/c0w707btrq0D
v1VoKrVHnB8EGgHawXBv2fwUArLurj35WqJqBX7+4wMZpqIPNIVQ0+MMVksKtYxv
z1kdcdbdQcSUf7vSFuABL57+wVGseQMzcgK524tS/WXE3tVfoLrBl56Qxc/Xf3F4
ybFXjD2E21DD/FMJSne4b3DA++X/wd4nVDX6Ae75GNduZGT9QJlOteeJ5Q9QVPWP
rux6DD/n35vlkRE0RnwDna7jI8EmnCYSCrDSB4/6WBZ9dqISNQ/iKjBqeZpWZ62W
OqADq4z9XVl/p4JVHML85+/VkWdhs9jsmY0DKtyoSVYBSio8c3OnTpo81TqqN7oU
bEfpnJfFiaDf+jIxPk10I9jM43uYgialQW3yh4agdIsxFSVSnUFeObMU9cqQdZz+
L9SAA4s53bhtNngbb+8ROUd4lTIufgenBDNgLpQNJlNwwKcpMrj5Az/dcRcZb3D1
5bNwUkgfK4Qxst74ACoUCwiNdYt4g3Y2YkTl5JcnDhFPhBiWlLOeHkGDS+NSOk69
JHyWhYB92mUgFyVMyDnV8i97/wB705AZIdCkHSxwuXyzXkluv/9Gt70+UPuL70PS
sFqvavEl6vo/WLOMfO9YycP3UR21kBJLRQZ/LhjLuXUW
-----END CERTIFICATE-----
