Certificate:
    Data:
        Version: 3 (0x2)
        Serial Number: 509 (0x1fd)
    Signature Algorithm: md5WithRSAEncryption
        Issuer: C=US, ST=OH, L=Columbus, O=VikingVPN, OU=MyOrganizationalUnit, CN=VikingVPN CA/name=EasyRSA/emailAddress=me@myhost.mydomain
        Validity
            Not Before: Dec  3 05:25:19 2013 GMT
            Not After : Dec  1 05:25:19 2023 GMT
        Subject: CN=Client216Cert43c075
        Subject Public Key Info:
            Public Key Algorithm: rsaEncryption
                Public-Key: (4096 bit)
                Modulus:
                    00:b7:ae:07:b2:2c:3e:d9:03:26:2e:71:07:ce:0f:
                    5a:6b:2b:a5:87:71:9c:63:24:52:01:8e:55:9b:02:
                    9c:b8:5a:10:7c:c9:a7:97:32:61:c6:c0:42:22:79:
                    d1:ae:67:68:ac:1d:cf:7f:90:54:a8:1f:d0:15:1c:
                    31:8b:ea:08:7e:63:5d:85:f0:51:c1:ce:ab:a2:a1:
                    60:d0:da:1f:6f:8f:f4:88:56:f8:b7:6e:10:1b:ac:
                    e9:03:f6:ff:13:f2:28:e8:db:17:90:9b:90:0a:f3:
                    2e:4b:00:d8:7e:18:9f:b0:c1:e0:f0:b1:83:14:f4:
                    35:c0:12:5c:80:c0:70:c9:68:71:94:bf:8a:4a:25:
                    fd:1a:3e:02:aa:10:97:e6:e2:9c:d5:d1:90:08:c7:
                    68:f9:be:01:66:7a:67:71:ce:ee:f3:68:ff:22:8d:
                    ac:1f:7d:b6:62:17:03:eb:8a:16:d7:ca:f9:3a:94:
                    5f:f2:cf:58:19:80:cb:85:01:25:cd:84:49:0b:ef:
                    8f:ae:15:5c:53:be:9f:f9:71:b7:3c:8b:7a:e2:94:
                    a6:af:23:9d:4f:c8:71:fe:a7:99:21:1f:81:6d:cc:
                    09:80:ea:86:ee:7c:fa:78:f8:f4:0b:15:7d:4a:c8:
                    29:03:6a:18:ff:d8:56:74:d2:4f:5b:5a:0e:72:2d:
                    bc:f7:6b:03:a4:46:fe:b2:18:b0:3f:ec:2b:74:5b:
                    b7:9d:7e:05:ad:b7:76:f7:bc:8a:18:1c:02:08:23:
                    ff:cc:9b:f4:78:e2:0d:71:b1:58:8e:3f:6d:22:cb:
                    5e:2d:14:2d:7d:2c:21:cd:c2:31:c9:71:23:88:46:
                    83:48:50:3e:52:50:60:05:30:a5:64:2f:15:ac:e9:
                    3d:c9:68:4f:3c:81:00:12:1b:5e:c8:34:0f:d8:ef:
                    83:75:a1:6c:00:78:cc:db:de:43:5c:e0:0a:1b:c6:
                    2f:ec:d8:6b:bf:5b:51:a3:2a:9a:f1:26:60:8b:21:
                    40:8a:66:28:17:bc:a0:a6:cf:9e:6f:c5:40:6f:64:
                    b5:06:ac:5c:aa:9b:3a:b4:87:3a:4d:5e:40:7c:c8:
                    19:51:c2:1d:4f:86:a9:67:53:cb:ad:5e:cc:85:ad:
                    04:40:45:51:8d:8c:92:49:c6:f7:65:e5:d2:a1:2a:
                    c9:21:49:b9:25:95:39:b5:e1:5b:fd:a9:21:eb:7a:
                    2e:62:03:f0:02:99:28:63:fb:87:6b:8c:f4:00:2e:
                    4f:a9:e9:e7:eb:b8:05:4c:49:29:87:c9:98:57:bd:
                    dc:83:0b:15:bf:c2:2f:a9:88:59:8c:f1:3d:82:a7:
                    a1:9b:e9:8f:0e:df:af:ba:a8:21:3d:77:51:f6:14:
                    0f:ba:9d
                Exponent: 65537 (0x10001)
        X509v3 extensions:
            X509v3 Basic Constraints: 
                CA:FALSE
            Netscape Comment: 
                Easy-RSA Generated Certificate
            X509v3 Subject Key Identifier: 
                12:CA:2F:F1:97:E6:53:0D:E0:66:E8:B6:77:F6:78:D6:F4:12:05:BC
            X509v3 Authority Key Identifier: 
                keyid:12:CD:60:04:D2:A0:80:9E:70:ED:C6:99:B8:7B:2C:C6:52:FD:19:A1
                DirName:/C=US/ST=OH/L=Columbus/O=VikingVPN/OU=MyOrganizationalUnit/CN=VikingVPN CA/name=EasyRSA/emailAddress=me@myhost.mydomain
                serial:CF:35:85:EE:80:BF:2A:3E

            X509v3 Extended Key Usage: 
                TLS Web Client Authentication
            X509v3 Key Usage: 
                Digital Signature
    Signature Algorithm: md5WithRSAEncryption
         ba:26:0d:5c:5f:7f:a1:1e:6e:73:e5:a8:8b:43:cd:a2:1c:ae:
         2d:f7:e0:0d:81:7f:ac:b1:fe:1e:41:fa:d7:fa:75:eb:b0:b3:
         83:b0:6f:12:29:50:47:59:92:b1:f8:b7:39:36:c5:6c:c7:5e:
         ce:f9:05:bd:c8:58:4b:1a:c2:30:94:31:ea:c2:eb:9f:39:3a:
         72:46:1d:cf:25:03:7c:1a:e7:73:91:9d:ca:7f:be:9f:94:6b:
         8b:4b:86:a3:00:db:b2:7c:97:f7:0f:78:28:1a:ac:70:39:de:
         6b:91:8f:48:51:1b:c2:08:7d:ec:50:da:1d:75:51:aa:a4:af:
         dd:22:f1:5c:94:12:00:c8:66:8a:77:6f:f8:0b:58:35:5e:1d:
         b9:8a:60:57:a2:01:08:46:0f:a9:b9:17:ca:ef:0a:f5:aa:6d:
         0a:74:ba:42:ac:20:b8:7e:1f:49:4c:8b:af:5e:df:46:f2:1e:
         0b:71:35:e6:5a:61:33:81:84:eb:5a:99:9d:dc:c3:4a:5c:e9:
         d2:b4:eb:4d:8f:e5:54:32:b0:5c:23:0e:a2:44:db:dd:74:e4:
         96:c6:f8:ae:dc:c2:5b:2a:fb:df:2c:57:0d:78:4c:d3:af:60:
         9d:31:ea:35:72:e2:aa:5e:6b:7b:4d:94:40:e8:ff:f4:41:35:
         f7:16:81:60:6e:e3:b8:37:59:01:d7:47:66:08:a5:ca:99:97:
         ac:d2:cb:bb:86:0b:9f:c6:c6:90:e2:63:07:fb:4f:c6:3e:f8:
         d8:f2:b4:67:3f:19:f8:47:d3:cc:d1:3a:3a:0d:5e:b7:73:60:
         e7:55:92:6c:01:3e:a4:25:4f:99:5f:80:7a:22:58:1a:1e:3c:
         d9:3e:b9:d4:ef:cf:88:5c:ef:bd:e9:06:d5:c1:59:8e:c3:20:
         e5:23:2a:f5:ef:56:8a:31:bd:b5:b4:39:cc:41:cf:e1:8d:bd:
         ec:33:69:92:fb:38:38:c8:23:be:ea:4a:06:3e:49:8b:a3:0f:
         30:08:8a:b3:2f:3f:9e:57:d5:2b:39:84:77:66:ec:55:12:80:
         59:4c:9c:f0:56:80:2a:7e:cb:a3:c4:14:35:e8:36:5f:4b:bc:
         f4:95:f6:6c:6b:e1:3a:22:d3:90:be:34:68:01:1c:ce:34:a3:
         01:5f:db:98:1a:cf:66:e6:70:6d:3d:71:5a:78:28:be:8e:29:
         15:da:5e:e3:5c:c0:67:79:5a:f3:a4:50:12:cf:49:18:4f:ab:
         fd:c9:5f:cc:8a:c1:47:12:ba:e5:fc:35:9c:d8:d9:5b:e4:74:
         1e:ee:8b:13:a4:66:f4:1d:12:73:51:b0:2c:5d:3c:fc:b2:4b:
         49:0b:90:8e:2f:f2:56:ea
-----BEGIN CERTIFICATE-----
MIIGrDCCBJSgAwIBAgICAf0wDQYJKoZIhvcNAQEEBQAwgawxCzAJBgNVBAYTAlVT
MQswCQYDVQQIEwJPSDERMA8GA1UEBxMIQ29sdW1idXMxEjAQBgNVBAoTCVZpa2lu
Z1ZQTjEdMBsGA1UECxMUTXlPcmdhbml6YXRpb25hbFVuaXQxFTATBgNVBAMTDFZp
a2luZ1ZQTiBDQTEQMA4GA1UEKRMHRWFzeVJTQTEhMB8GCSqGSIb3DQEJARYSbWVA
bXlob3N0Lm15ZG9tYWluMB4XDTEzMTIwMzA1MjUxOVoXDTIzMTIwMTA1MjUxOVow
HjEcMBoGA1UEAxMTQ2xpZW50MjE2Q2VydDQzYzA3NTCCAiIwDQYJKoZIhvcNAQEB
BQADggIPADCCAgoCggIBALeuB7IsPtkDJi5xB84PWmsrpYdxnGMkUgGOVZsCnLha
EHzJp5cyYcbAQiJ50a5naKwdz3+QVKgf0BUcMYvqCH5jXYXwUcHOq6KhYNDaH2+P
9IhW+LduEBus6QP2/xPyKOjbF5CbkArzLksA2H4Yn7DB4PCxgxT0NcASXIDAcMlo
cZS/ikol/Ro+AqoQl+binNXRkAjHaPm+AWZ6Z3HO7vNo/yKNrB99tmIXA+uKFtfK
+TqUX/LPWBmAy4UBJc2ESQvvj64VXFO+n/lxtzyLeuKUpq8jnU/Icf6nmSEfgW3M
CYDqhu58+nj49AsVfUrIKQNqGP/YVnTST1taDnItvPdrA6RG/rIYsD/sK3Rbt51+
Ba23dve8ihgcAggj/8yb9HjiDXGxWI4/bSLLXi0ULX0sIc3CMclxI4hGg0hQPlJQ
YAUwpWQvFazpPcloTzyBABIbXsg0D9jvg3WhbAB4zNveQ1zgChvGL+zYa79bUaMq
mvEmYIshQIpmKBe8oKbPnm/FQG9ktQasXKqbOrSHOk1eQHzIGVHCHU+GqWdTy61e
zIWtBEBFUY2MkknG92Xl0qEqySFJuSWVObXhW/2pIet6LmID8AKZKGP7h2uM9AAu
T6np5+u4BUxJKYfJmFe93IMLFb/CL6mIWYzxPYKnoZvpjw7fr7qoIT13UfYUD7qd
AgMBAAGjggFjMIIBXzAJBgNVHRMEAjAAMC0GCWCGSAGG+EIBDQQgFh5FYXN5LVJT
QSBHZW5lcmF0ZWQgQ2VydGlmaWNhdGUwHQYDVR0OBBYEFBLKL/GX5lMN4Gbotnf2
eNb0EgW8MIHhBgNVHSMEgdkwgdaAFBLNYATSoICecO3Gmbh7LMZS/RmhoYGypIGv
MIGsMQswCQYDVQQGEwJVUzELMAkGA1UECBMCT0gxETAPBgNVBAcTCENvbHVtYnVz
MRIwEAYDVQQKEwlWaWtpbmdWUE4xHTAbBgNVBAsTFE15T3JnYW5pemF0aW9uYWxV
bml0MRUwEwYDVQQDEwxWaWtpbmdWUE4gQ0ExEDAOBgNVBCkTB0Vhc3lSU0ExITAf
BgkqhkiG9w0BCQEWEm1lQG15aG9zdC5teWRvbWFpboIJAM81he6Avyo+MBMGA1Ud
JQQMMAoGCCsGAQUFBwMCMAsGA1UdDwQEAwIHgDANBgkqhkiG9w0BAQQFAAOCAgEA
uiYNXF9/oR5uc+Woi0PNohyuLffgDYF/rLH+HkH61/p167Czg7BvEilQR1mSsfi3
OTbFbMdezvkFvchYSxrCMJQx6sLrnzk6ckYdzyUDfBrnc5Gdyn++n5Rri0uGowDb
snyX9w94KBqscDnea5GPSFEbwgh97FDaHXVRqqSv3SLxXJQSAMhmindv+AtYNV4d
uYpgV6IBCEYPqbkXyu8K9aptCnS6QqwguH4fSUyLr17fRvIeC3E15lphM4GE61qZ
ndzDSlzp0rTrTY/lVDKwXCMOokTb3XTklsb4rtzCWyr73yxXDXhM069gnTHqNXLi
ql5re02UQOj/9EE19xaBYG7juDdZAddHZgilypmXrNLLu4YLn8bGkOJjB/tPxj74
2PK0Zz8Z+EfTzNE6Og1et3Ng51WSbAE+pCVPmV+AeiJYGh482T651O/PiFzvvekG
1cFZjsMg5SMq9e9WijG9tbQ5zEHP4Y297DNpkvs4OMgjvupKBj5Ji6MPMAiKsy8/
nlfVKzmEd2bsVRKAWUyc8FaAKn7Lo8QUNeg2X0u89JX2bGvhOiLTkL40aAEczjSj
AV/bmBrPZuZwbT1xWngovo4pFdpe41zAZ3la86RQEs9JGE+r/clfzIrBRxK65fw1
nNjZW+R0Hu6LE6Rm9B0Sc1GwLF08/LJLSQuQji/yVuo=
-----END CERTIFICATE-----
