Certificate:
    Data:
        Version: 3 (0x2)
        Serial Number: 2618 (0xa3a)
    Signature Algorithm: md5WithRSAEncryption
        Issuer: C=US, ST=OH, L=Columbus, O=VikingVPN, OU=MyOrganizationalUnit, CN=VikingVPN CA/name=EasyRSA/emailAddress=me@myhost.mydomain
        Validity
            Not Before: Aug 19 17:47:04 2014 GMT
            Not After : Aug 16 17:47:04 2024 GMT
        Subject: CN=Client914Certb66d2f
        Subject Public Key Info:
            Public Key Algorithm: rsaEncryption
                Public-Key: (4096 bit)
                Modulus:
                    00:ad:f3:58:fd:39:7d:6d:6c:3f:1f:26:1c:52:cd:
                    bb:3d:8d:9f:00:44:5e:04:40:af:a8:b4:4a:b1:da:
                    4f:86:dc:ad:85:57:34:41:c3:e9:7a:84:69:dc:08:
                    0c:b5:ad:5c:36:1c:29:8d:72:57:28:9b:6b:65:86:
                    94:67:89:b4:02:0c:f6:ee:b3:7d:45:99:80:1a:61:
                    3b:38:e9:62:eb:4b:4b:17:34:51:4b:c9:4e:7a:d3:
                    5e:60:78:51:f1:13:e3:50:0b:7e:ec:98:35:5f:32:
                    f0:51:7f:91:86:a9:62:6d:b4:5c:cd:d6:17:66:72:
                    c8:7d:a5:95:23:c8:89:aa:9b:96:af:24:55:03:6b:
                    cf:1e:83:fe:0d:b5:c1:c4:34:8d:95:b9:10:2d:4d:
                    04:81:51:c6:71:cb:03:5b:da:50:8a:64:57:f5:1c:
                    fd:60:5b:36:95:ea:7d:2d:1f:a2:b0:25:ae:89:0e:
                    fc:fa:21:a0:41:d2:9e:77:b3:d8:d2:4e:c2:ef:bc:
                    40:1a:0e:d8:71:ed:35:7f:26:bd:1f:52:e0:ba:c1:
                    95:7d:d8:04:17:c0:28:f2:7c:af:4d:5b:3d:1b:fb:
                    ab:7b:f6:99:c5:56:95:46:88:4f:de:23:44:e5:c5:
                    ed:c3:a4:73:89:88:d7:55:78:20:24:7f:c8:d9:af:
                    eb:53:1a:8c:16:e4:df:fc:5b:d1:a5:2b:50:ae:ad:
                    6e:f0:d8:2f:67:09:b2:ca:ee:33:3a:55:63:1b:f2:
                    6d:d6:8c:6a:fa:6e:e0:0a:8f:cf:91:46:b8:07:9f:
                    1a:c9:39:41:dd:a0:33:65:31:be:62:ad:5c:2c:f7:
                    e4:5d:92:9a:3e:67:8d:f1:11:42:35:6d:bb:1b:8b:
                    ee:79:15:88:26:2e:f5:7d:7f:80:4b:66:fc:74:62:
                    57:5b:9c:bd:cf:d1:1d:e1:28:c8:75:e1:f6:f5:ea:
                    8f:f7:bb:4c:63:a8:c1:6d:41:3b:a7:0e:8c:81:35:
                    95:1c:8f:68:8b:19:9d:de:93:2d:32:d7:7d:80:31:
                    3d:ff:69:23:a0:16:d9:3a:a0:ba:78:9f:33:db:e1:
                    0c:66:b2:5f:08:2d:dd:19:6b:d4:03:e3:85:60:a1:
                    33:01:d5:1c:d4:87:31:04:00:54:ec:c5:3d:42:1f:
                    8a:f7:c9:aa:e9:b7:1c:28:ef:f3:73:79:2c:97:bd:
                    6a:5c:61:50:a6:72:43:6b:10:9c:24:fb:5d:d2:c2:
                    1c:44:be:93:e8:4a:0d:3f:bd:33:bc:22:94:ed:f0:
                    67:ca:cc:56:75:56:fe:44:ba:f1:4e:70:4b:96:91:
                    c1:87:4d:56:d7:5b:a9:65:f3:88:8d:73:fb:51:fd:
                    6d:06:f9
                Exponent: 65537 (0x10001)
        X509v3 extensions:
            X509v3 Basic Constraints: 
                CA:FALSE
            Netscape Comment: 
                Easy-RSA Generated Certificate
            X509v3 Subject Key Identifier: 
                60:03:A5:F3:E1:15:47:A8:52:4D:46:EB:AE:C6:FC:85:45:F3:1E:F2
            X509v3 Authority Key Identifier: 
                keyid:12:CD:60:04:D2:A0:80:9E:70:ED:C6:99:B8:7B:2C:C6:52:FD:19:A1
                DirName:/C=US/ST=OH/L=Columbus/O=VikingVPN/OU=MyOrganizationalUnit/CN=VikingVPN CA/name=EasyRSA/emailAddress=me@myhost.mydomain
                serial:CF:35:85:EE:80:BF:2A:3E

            X509v3 Extended Key Usage: 
                TLS Web Client Authentication
            X509v3 Key Usage: 
                Digital Signature
    Signature Algorithm: md5WithRSAEncryption
         dc:f1:79:a8:a2:39:75:03:8a:31:54:b1:98:60:72:9b:d0:c8:
         07:7f:a2:3b:c7:8b:68:9b:a3:4f:de:35:c0:88:51:40:93:81:
         46:d5:d5:b7:3f:23:26:50:7a:9a:09:a8:06:58:4b:39:d3:13:
         8d:9b:37:d9:b2:20:59:7a:e8:82:a0:af:30:f8:de:78:c4:32:
         cd:b8:5b:90:a7:aa:6b:d7:62:e6:0e:9a:23:9f:13:33:4f:9b:
         5c:e0:d6:13:fa:41:02:2b:5f:b1:ed:68:05:b4:10:5b:5c:03:
         73:9a:a4:b3:63:02:ec:c9:09:81:94:41:2d:c3:ad:93:b6:b7:
         f9:78:91:b0:a8:1f:ed:5c:ff:23:53:12:14:2e:b5:e7:06:20:
         ea:fe:fd:58:cf:e1:27:c0:be:9e:8b:fa:12:b5:2c:92:08:0e:
         96:c9:3a:b7:35:88:26:77:f1:3e:94:be:60:c8:40:7f:11:8a:
         89:65:03:2e:35:98:c9:6b:93:06:42:82:12:cd:fa:32:ca:ac:
         3d:a8:a0:ab:98:51:b5:6e:5f:90:b4:0c:de:dd:23:5a:3e:48:
         d0:c3:df:ae:5c:75:f4:fe:67:23:fb:c5:19:f7:44:60:2c:8b:
         6b:1f:15:57:ec:2f:73:70:70:04:5b:a1:cd:fe:22:07:62:1d:
         b5:3d:67:41:6e:7c:7d:13:49:f9:f6:d3:ba:9a:ef:84:77:88:
         bc:61:a4:12:b3:02:9e:35:c6:e9:26:11:23:d4:85:e8:69:1d:
         e0:06:65:f6:1e:59:45:b1:0d:6e:cf:05:95:c3:96:ad:cd:e3:
         ea:3b:1f:90:7a:9c:50:7a:aa:fc:50:b7:74:7b:f5:1e:73:72:
         a8:ee:31:16:32:a9:7a:69:c5:fe:c9:f0:9a:5f:33:e1:d2:1d:
         50:31:05:f1:a3:69:72:c6:1d:20:e0:31:75:a9:2c:35:90:f4:
         49:dd:e0:0d:ef:04:71:01:7d:b4:05:44:5c:55:fe:75:33:45:
         72:6f:4c:60:35:bb:f1:34:40:88:75:75:38:a8:2f:2c:ca:ed:
         64:4e:01:68:94:cf:11:2a:49:a0:2c:33:49:a2:4f:03:17:45:
         09:1c:42:b6:1e:ef:fe:9f:02:cd:9e:44:2b:cc:e7:c2:ae:cc:
         bf:4b:c5:07:53:f4:1b:9a:e4:40:14:dd:94:43:4c:7b:8f:92:
         b9:eb:08:25:17:e8:89:4e:2e:ff:93:24:1b:9b:a6:43:78:94:
         fa:09:7e:72:28:77:d5:16:d6:65:03:99:34:90:22:e5:f6:d7:
         60:c4:a1:ae:c0:3a:66:0f:9c:79:e6:29:b8:44:15:38:03:c0:
         f9:32:5f:ed:bd:c6:02:28
-----BEGIN CERTIFICATE-----
MIIGrDCCBJSgAwIBAgICCjowDQYJKoZIhvcNAQEEBQAwgawxCzAJBgNVBAYTAlVT
MQswCQYDVQQIEwJPSDERMA8GA1UEBxMIQ29sdW1idXMxEjAQBgNVBAoTCVZpa2lu
Z1ZQTjEdMBsGA1UECxMUTXlPcmdhbml6YXRpb25hbFVuaXQxFTATBgNVBAMTDFZp
a2luZ1ZQTiBDQTEQMA4GA1UEKRMHRWFzeVJTQTEhMB8GCSqGSIb3DQEJARYSbWVA
bXlob3N0Lm15ZG9tYWluMB4XDTE0MDgxOTE3NDcwNFoXDTI0MDgxNjE3NDcwNFow
HjEcMBoGA1UEAxMTQ2xpZW50OTE0Q2VydGI2NmQyZjCCAiIwDQYJKoZIhvcNAQEB
BQADggIPADCCAgoCggIBAK3zWP05fW1sPx8mHFLNuz2NnwBEXgRAr6i0SrHaT4bc
rYVXNEHD6XqEadwIDLWtXDYcKY1yVyiba2WGlGeJtAIM9u6zfUWZgBphOzjpYutL
Sxc0UUvJTnrTXmB4UfET41ALfuyYNV8y8FF/kYapYm20XM3WF2ZyyH2llSPIiaqb
lq8kVQNrzx6D/g21wcQ0jZW5EC1NBIFRxnHLA1vaUIpkV/Uc/WBbNpXqfS0forAl
rokO/PohoEHSnnez2NJOwu+8QBoO2HHtNX8mvR9S4LrBlX3YBBfAKPJ8r01bPRv7
q3v2mcVWlUaIT94jROXF7cOkc4mI11V4ICR/yNmv61MajBbk3/xb0aUrUK6tbvDY
L2cJssruMzpVYxvybdaMavpu4AqPz5FGuAefGsk5Qd2gM2UxvmKtXCz35F2Smj5n
jfERQjVtuxuL7nkViCYu9X1/gEtm/HRiV1ucvc/RHeEoyHXh9vXqj/e7TGOowW1B
O6cOjIE1lRyPaIsZnd6TLTLXfYAxPf9pI6AW2TqgunifM9vhDGayXwgt3Rlr1APj
hWChMwHVHNSHMQQAVOzFPUIfivfJqum3HCjv83N5LJe9alxhUKZyQ2sQnCT7XdLC
HES+k+hKDT+9M7wilO3wZ8rMVnVW/kS68U5wS5aRwYdNVtdbqWXziI1z+1H9bQb5
AgMBAAGjggFjMIIBXzAJBgNVHRMEAjAAMC0GCWCGSAGG+EIBDQQgFh5FYXN5LVJT
QSBHZW5lcmF0ZWQgQ2VydGlmaWNhdGUwHQYDVR0OBBYEFGADpfPhFUeoUk1G667G
/IVF8x7yMIHhBgNVHSMEgdkwgdaAFBLNYATSoICecO3Gmbh7LMZS/RmhoYGypIGv
MIGsMQswCQYDVQQGEwJVUzELMAkGA1UECBMCT0gxETAPBgNVBAcTCENvbHVtYnVz
MRIwEAYDVQQKEwlWaWtpbmdWUE4xHTAbBgNVBAsTFE15T3JnYW5pemF0aW9uYWxV
bml0MRUwEwYDVQQDEwxWaWtpbmdWUE4gQ0ExEDAOBgNVBCkTB0Vhc3lSU0ExITAf
BgkqhkiG9w0BCQEWEm1lQG15aG9zdC5teWRvbWFpboIJAM81he6Avyo+MBMGA1Ud
JQQMMAoGCCsGAQUFBwMCMAsGA1UdDwQEAwIHgDANBgkqhkiG9w0BAQQFAAOCAgEA
3PF5qKI5dQOKMVSxmGBym9DIB3+iO8eLaJujT941wIhRQJOBRtXVtz8jJlB6mgmo
BlhLOdMTjZs32bIgWXrogqCvMPjeeMQyzbhbkKeqa9di5g6aI58TM0+bXODWE/pB
Aitfse1oBbQQW1wDc5qks2MC7MkJgZRBLcOtk7a3+XiRsKgf7Vz/I1MSFC615wYg
6v79WM/hJ8C+nov6ErUskggOlsk6tzWIJnfxPpS+YMhAfxGKiWUDLjWYyWuTBkKC
Es36MsqsPaigq5hRtW5fkLQM3t0jWj5I0MPfrlx19P5nI/vFGfdEYCyLax8VV+wv
c3BwBFuhzf4iB2IdtT1nQW58fRNJ+fbTuprvhHeIvGGkErMCnjXG6SYRI9SF6Gkd
4AZl9h5ZRbENbs8FlcOWrc3j6jsfkHqcUHqq/FC3dHv1HnNyqO4xFjKpemnF/snw
ml8z4dIdUDEF8aNpcsYdIOAxdaksNZD0Sd3gDe8EcQF9tAVEXFX+dTNFcm9MYDW7
8TRAiHV1OKgvLMrtZE4BaJTPESpJoCwzSaJPAxdFCRxCth7v/p8CzZ5EK8znwq7M
v0vFB1P0G5rkQBTdlENMe4+SuesIJRfoiU4u/5MkG5umQ3iU+gl+cih31RbWZQOZ
NJAi5fbXYMShrsA6Zg+ceeYpuEQVOAPA+TJf7b3GAig=
-----END CERTIFICATE-----
