Certificate:
    Data:
        Version: 3 (0x2)
        Serial Number: 2267 (0x8db)
    Signature Algorithm: md5WithRSAEncryption
        Issuer: C=US, ST=OH, L=Columbus, O=VikingVPN, OU=MyOrganizationalUnit, CN=VikingVPN CA/name=EasyRSA/emailAddress=me@myhost.mydomain
        Validity
            Not Before: Jul 14 20:16:49 2014 GMT
            Not After : Jul 11 20:16:49 2024 GMT
        Subject: CN=Client801Cert7370a4
        Subject Public Key Info:
            Public Key Algorithm: rsaEncryption
                Public-Key: (4096 bit)
                Modulus:
                    00:d1:7f:1a:58:ec:1a:72:bf:45:62:ba:2f:9c:c9:
                    35:6a:a5:37:46:92:18:82:90:b0:30:bc:7e:41:d4:
                    41:62:f0:7b:83:27:42:4a:ff:6f:67:72:4e:cd:f0:
                    5c:6a:73:84:90:c9:ac:29:ac:92:49:e7:8a:b6:d3:
                    21:ae:77:ad:c8:d8:c8:c9:a1:7a:c5:25:99:e7:3d:
                    b7:fb:3e:92:7c:72:19:e6:b9:3e:22:21:54:99:04:
                    20:a4:bb:a9:9a:6c:52:eb:5d:7b:c0:5c:90:61:2b:
                    e8:16:73:8f:0e:70:85:37:4a:39:39:7b:f3:eb:fd:
                    54:6a:a1:be:21:ba:33:d6:96:e7:2d:a8:3d:87:32:
                    1f:17:49:05:d9:66:c5:22:41:3b:eb:89:2a:81:57:
                    18:63:0f:20:8c:c0:7e:0f:22:18:1b:72:ca:47:32:
                    14:5c:46:2b:9b:e8:a8:e8:bd:62:fd:af:c4:9f:82:
                    d2:14:3e:20:04:1d:77:4f:f5:9f:d2:2b:73:ff:34:
                    fc:6f:e8:f1:90:a1:1c:b1:fa:fc:ca:8a:da:d2:d0:
                    d8:6e:22:02:cb:23:eb:43:1d:01:8b:8a:99:1a:95:
                    ed:76:27:e7:6b:1a:b2:16:6d:24:fd:e1:35:48:18:
                    25:00:7a:c4:28:c2:5c:5c:87:37:b5:09:f1:ea:a1:
                    68:59:11:65:f3:50:ee:24:40:5a:8a:ce:8d:84:4e:
                    4a:e2:0b:e2:a4:68:4b:97:e4:af:a5:70:25:62:ea:
                    2a:38:49:ae:54:60:63:48:57:64:45:4d:84:ae:e4:
                    51:e2:1b:ca:4f:a2:b2:ff:d3:4f:d2:5c:43:83:96:
                    e3:2e:4e:1d:5c:e0:42:42:ea:bd:0b:08:75:b0:1f:
                    85:c2:68:09:1c:71:31:5f:a2:7e:f5:4b:1f:22:d6:
                    fa:8c:90:2a:69:80:d0:3f:46:9e:db:88:70:40:77:
                    d0:e1:83:56:38:30:61:1b:cc:49:a0:3d:50:cc:74:
                    b9:37:0f:7b:02:f7:1a:0f:56:03:e5:6e:0a:9f:3a:
                    e9:8f:96:1f:43:3e:7b:8b:5b:e9:29:c4:0e:61:17:
                    17:e6:94:b3:2e:b1:8f:b7:fe:cf:12:9b:de:be:70:
                    3f:da:2c:55:ee:51:60:47:f7:48:af:d8:fc:75:c7:
                    30:7c:77:36:b0:85:cd:70:c2:a5:7d:a5:50:c1:08:
                    8d:7d:3f:23:7c:bb:0f:d0:33:25:65:93:aa:ad:a8:
                    29:9b:46:8b:d3:8c:5f:31:b2:59:33:e9:6a:12:f2:
                    a7:16:f2:1c:ea:4b:6b:23:49:8e:da:51:33:85:6b:
                    fe:b3:d4:01:f8:d2:b0:c0:62:6e:ee:ab:6c:97:61:
                    5b:18:0f
                Exponent: 65537 (0x10001)
        X509v3 extensions:
            X509v3 Basic Constraints: 
                CA:FALSE
            Netscape Comment: 
                Easy-RSA Generated Certificate
            X509v3 Subject Key Identifier: 
                B3:04:A4:72:DB:32:0E:C8:59:27:DD:AF:EF:65:7E:07:7C:F9:AB:68
            X509v3 Authority Key Identifier: 
                keyid:12:CD:60:04:D2:A0:80:9E:70:ED:C6:99:B8:7B:2C:C6:52:FD:19:A1
                DirName:/C=US/ST=OH/L=Columbus/O=VikingVPN/OU=MyOrganizationalUnit/CN=VikingVPN CA/name=EasyRSA/emailAddress=me@myhost.mydomain
                serial:CF:35:85:EE:80:BF:2A:3E

            X509v3 Extended Key Usage: 
                TLS Web Client Authentication
            X509v3 Key Usage: 
                Digital Signature
    Signature Algorithm: md5WithRSAEncryption
         4d:c2:cf:44:16:c7:3f:71:87:0d:81:01:95:2d:13:51:20:67:
         a7:a6:45:c3:c8:a0:8d:77:c6:c7:28:80:ad:78:b5:68:95:40:
         ae:77:bf:16:43:65:1f:37:5c:29:7c:f3:f9:a7:80:3f:92:d6:
         22:8e:10:73:01:4a:d5:84:ab:96:85:45:33:ab:3a:40:99:de:
         e3:bf:58:b0:1c:21:78:4e:53:d2:c3:77:b0:ea:49:60:53:f7:
         ac:d7:cd:ea:3c:be:eb:8b:f2:d8:41:b4:a3:00:b6:fb:b2:3f:
         79:38:48:37:ab:7b:92:fa:f0:09:7e:90:67:07:36:bf:da:01:
         6f:9c:cf:3c:77:97:ff:00:74:06:aa:cf:a3:5f:86:ef:c6:a3:
         58:27:24:49:a6:ad:93:b1:6c:e1:f5:ce:1b:95:21:36:ad:43:
         39:1b:5a:3e:19:09:9e:7c:c1:05:eb:d2:88:1c:41:f6:61:79:
         c7:98:84:bb:ea:60:76:29:b0:81:97:12:db:1a:01:78:8c:a0:
         77:b9:80:17:13:43:5d:87:db:e3:d0:ce:84:b6:b7:10:9d:6f:
         63:86:ce:38:9f:ce:03:62:9e:b6:25:be:84:a1:5d:59:7e:95:
         0f:d5:de:e9:fa:ee:66:d8:77:17:cd:e7:b9:5d:15:0f:47:5f:
         ba:d2:46:12:9f:7a:d4:0f:59:a7:17:d0:7f:fa:7d:2d:eb:7d:
         61:a9:a4:c1:49:b6:50:a9:e0:b9:47:b4:40:21:0b:b1:0e:f8:
         27:a1:33:28:88:1b:02:ed:a7:b2:90:5c:0c:82:58:86:14:96:
         2d:e7:67:8c:47:7e:68:93:7b:c6:c4:73:c2:67:80:11:2e:bf:
         34:ef:e3:58:1a:ef:a0:bd:5a:01:72:05:46:9b:1e:a1:88:fa:
         af:7c:07:0f:1d:4c:2b:1c:6e:41:bf:29:f9:b3:10:4f:6c:45:
         5a:4a:b1:bd:0e:f1:c9:e6:cb:91:af:7b:09:45:a7:db:59:b2:
         74:65:b7:3a:a7:fc:c4:78:5f:d0:ab:a3:fb:89:b3:26:bc:37:
         ba:10:b6:6e:43:76:c3:96:a7:7d:d3:80:22:7d:77:0c:cb:34:
         55:28:ce:5b:74:04:4a:99:2f:34:c8:63:20:7e:9a:dc:79:05:
         44:0b:31:cf:46:ab:2f:1d:13:72:11:13:8f:0d:31:ab:59:8d:
         aa:bc:84:72:3b:c7:57:89:63:e4:49:18:ee:69:e0:10:5a:25:
         fa:8b:f1:98:6f:c0:12:35:5b:03:bf:63:e2:63:4d:ac:43:78:
         d6:dd:0d:f7:8d:8d:23:ce:87:1e:aa:57:14:6a:83:6f:70:b2:
         9e:20:fd:d0:9f:3d:16:ed
-----BEGIN CERTIFICATE-----
MIIGrDCCBJSgAwIBAgICCNswDQYJKoZIhvcNAQEEBQAwgawxCzAJBgNVBAYTAlVT
MQswCQYDVQQIEwJPSDERMA8GA1UEBxMIQ29sdW1idXMxEjAQBgNVBAoTCVZpa2lu
Z1ZQTjEdMBsGA1UECxMUTXlPcmdhbml6YXRpb25hbFVuaXQxFTATBgNVBAMTDFZp
a2luZ1ZQTiBDQTEQMA4GA1UEKRMHRWFzeVJTQTEhMB8GCSqGSIb3DQEJARYSbWVA
bXlob3N0Lm15ZG9tYWluMB4XDTE0MDcxNDIwMTY0OVoXDTI0MDcxMTIwMTY0OVow
HjEcMBoGA1UEAxMTQ2xpZW50ODAxQ2VydDczNzBhNDCCAiIwDQYJKoZIhvcNAQEB
BQADggIPADCCAgoCggIBANF/GljsGnK/RWK6L5zJNWqlN0aSGIKQsDC8fkHUQWLw
e4MnQkr/b2dyTs3wXGpzhJDJrCmskknnirbTIa53rcjYyMmhesUlmec9t/s+knxy
Gea5PiIhVJkEIKS7qZpsUutde8BckGEr6BZzjw5whTdKOTl78+v9VGqhviG6M9aW
5y2oPYcyHxdJBdlmxSJBO+uJKoFXGGMPIIzAfg8iGBtyykcyFFxGK5voqOi9Yv2v
xJ+C0hQ+IAQdd0/1n9Irc/80/G/o8ZChHLH6/MqK2tLQ2G4iAssj60MdAYuKmRqV
7XYn52sashZtJP3hNUgYJQB6xCjCXFyHN7UJ8eqhaFkRZfNQ7iRAWorOjYROSuIL
4qRoS5fkr6VwJWLqKjhJrlRgY0hXZEVNhK7kUeIbyk+isv/TT9JcQ4OW4y5OHVzg
QkLqvQsIdbAfhcJoCRxxMV+ifvVLHyLW+oyQKmmA0D9GntuIcEB30OGDVjgwYRvM
SaA9UMx0uTcPewL3Gg9WA+VuCp866Y+WH0M+e4tb6SnEDmEXF+aUsy6xj7f+zxKb
3r5wP9osVe5RYEf3SK/Y/HXHMHx3NrCFzXDCpX2lUMEIjX0/I3y7D9AzJWWTqq2o
KZtGi9OMXzGyWTPpahLypxbyHOpLayNJjtpRM4Vr/rPUAfjSsMBibu6rbJdhWxgP
AgMBAAGjggFjMIIBXzAJBgNVHRMEAjAAMC0GCWCGSAGG+EIBDQQgFh5FYXN5LVJT
QSBHZW5lcmF0ZWQgQ2VydGlmaWNhdGUwHQYDVR0OBBYEFLMEpHLbMg7IWSfdr+9l
fgd8+atoMIHhBgNVHSMEgdkwgdaAFBLNYATSoICecO3Gmbh7LMZS/RmhoYGypIGv
MIGsMQswCQYDVQQGEwJVUzELMAkGA1UECBMCT0gxETAPBgNVBAcTCENvbHVtYnVz
MRIwEAYDVQQKEwlWaWtpbmdWUE4xHTAbBgNVBAsTFE15T3JnYW5pemF0aW9uYWxV
bml0MRUwEwYDVQQDEwxWaWtpbmdWUE4gQ0ExEDAOBgNVBCkTB0Vhc3lSU0ExITAf
BgkqhkiG9w0BCQEWEm1lQG15aG9zdC5teWRvbWFpboIJAM81he6Avyo+MBMGA1Ud
JQQMMAoGCCsGAQUFBwMCMAsGA1UdDwQEAwIHgDANBgkqhkiG9w0BAQQFAAOCAgEA
TcLPRBbHP3GHDYEBlS0TUSBnp6ZFw8igjXfGxyiArXi1aJVArne/FkNlHzdcKXzz
+aeAP5LWIo4QcwFK1YSrloVFM6s6QJne479YsBwheE5T0sN3sOpJYFP3rNfN6jy+
64vy2EG0owC2+7I/eThIN6t7kvrwCX6QZwc2v9oBb5zPPHeX/wB0BqrPo1+G78aj
WCckSaatk7Fs4fXOG5UhNq1DORtaPhkJnnzBBevSiBxB9mF5x5iEu+pgdimwgZcS
2xoBeIygd7mAFxNDXYfb49DOhLa3EJ1vY4bOOJ/OA2KetiW+hKFdWX6VD9Xe6fru
Zth3F83nuV0VD0dfutJGEp961A9ZpxfQf/p9Let9YamkwUm2UKnguUe0QCELsQ74
J6EzKIgbAu2nspBcDIJYhhSWLednjEd+aJN7xsRzwmeAES6/NO/jWBrvoL1aAXIF
RpseoYj6r3wHDx1MKxxuQb8p+bMQT2xFWkqxvQ7xyebLka97CUWn21mydGW3Oqf8
xHhf0Kuj+4mzJrw3uhC2bkN2w5anfdOAIn13DMs0VSjOW3QESpkvNMhjIH6a3HkF
RAsxz0arLx0TchETjw0xq1mNqryEcjvHV4lj5EkY7mngEFol+ovxmG/AEjVbA79j
4mNNrEN41t0N942NI86HHqpXFGqDb3CyniD90J89Fu0=
-----END CERTIFICATE-----
