Certificate:
    Data:
        Version: 3 (0x2)
        Serial Number: 5055 (0x13bf)
    Signature Algorithm: md5WithRSAEncryption
        Issuer: C=US, ST=OH, L=Columbus, O=VikingVPN, OU=MyOrganizationalUnit, CN=VikingVPN CA/name=EasyRSA/emailAddress=me@myhost.mydomain
        Validity
            Not Before: Apr 23 01:50:25 2015 GMT
            Not After : Apr 20 01:50:25 2025 GMT
        Subject: CN=Client1634Cert1f99ca
        Subject Public Key Info:
            Public Key Algorithm: rsaEncryption
                Public-Key: (4096 bit)
                Modulus:
                    00:be:fc:79:f4:95:eb:fa:66:bb:80:ce:f8:04:63:
                    f2:99:2e:f8:d5:fd:27:7f:da:b6:32:8b:8d:0c:b9:
                    01:7c:82:18:82:ac:d0:1e:9d:71:db:b2:f9:16:9c:
                    23:51:a2:90:05:c0:af:32:80:44:b1:66:f8:6b:d9:
                    02:94:69:a1:94:24:d4:0f:07:4e:95:7c:2b:9b:6c:
                    18:ba:27:64:94:6b:60:d9:71:62:ac:b4:fd:45:af:
                    b1:3f:68:fd:ed:1c:28:b7:e8:5a:c8:0e:d7:d9:53:
                    b7:db:d0:ce:85:1b:8f:16:bc:3e:f7:33:df:9d:f2:
                    3b:17:23:1d:f8:ce:36:64:22:cb:99:9d:6d:86:38:
                    eb:0f:ef:6b:ee:94:bd:1c:82:95:a1:ce:7f:f7:21:
                    f5:4f:1f:52:51:37:05:7a:9d:68:a3:5e:1c:14:44:
                    57:14:bd:9a:7b:c0:63:d8:51:d3:14:d1:30:5f:7c:
                    f2:6f:0c:9f:4b:96:99:be:67:ad:e6:1e:84:2c:eb:
                    dd:3d:c7:d8:5b:12:52:7f:a9:ad:98:00:32:c1:96:
                    22:5f:8e:58:0c:a7:7a:86:db:69:c5:32:48:c5:b5:
                    96:fa:4e:b9:4f:a6:0f:db:cc:07:ad:7b:ee:79:84:
                    db:ea:15:e6:72:ba:05:ea:f4:e0:09:b3:71:f3:49:
                    5d:f6:01:97:2d:cc:dd:81:10:86:15:f1:8d:1f:cb:
                    83:1a:e5:97:da:0b:29:1c:2a:6b:97:f3:2a:2b:7a:
                    7f:ed:03:f2:27:08:39:1a:50:66:92:7c:96:47:a4:
                    7e:48:a6:85:db:58:85:03:3b:4b:d0:24:79:52:8d:
                    c6:ab:8b:1d:39:d6:7b:28:1d:29:6b:8f:b8:98:57:
                    5a:b7:c2:4d:fb:42:4e:4f:1c:03:7b:f5:23:30:af:
                    4d:c8:91:db:46:3d:6f:90:d3:b1:07:57:80:ed:5b:
                    fe:fd:c2:ae:17:ff:cc:9d:a1:47:7a:1c:26:db:76:
                    94:8e:67:c7:3f:11:2a:15:a6:b4:79:bb:99:61:28:
                    fe:44:78:f9:a2:52:c6:70:49:ac:3d:83:33:27:12:
                    30:5d:7a:69:9b:09:f8:c4:d6:a2:a0:0b:1d:58:55:
                    7a:6f:0c:d2:a7:ca:ab:03:33:f3:bb:0e:32:fc:78:
                    60:59:15:08:c0:09:99:9f:ae:9d:4d:f2:3b:90:26:
                    f9:2a:af:2c:4e:0d:f0:8d:91:d7:92:13:5b:91:59:
                    67:6f:32:4d:f0:f2:91:bf:21:0b:db:fd:de:44:44:
                    71:f1:92:fd:6d:48:67:8e:9c:fe:0c:db:2c:d4:b3:
                    75:68:e8:f1:99:95:1b:7d:c9:db:d4:91:e9:d8:3a:
                    42:44:21
                Exponent: 65537 (0x10001)
        X509v3 extensions:
            X509v3 Basic Constraints: 
                CA:FALSE
            Netscape Comment: 
                Easy-RSA Generated Certificate
            X509v3 Subject Key Identifier: 
                17:F1:BD:66:B2:45:74:84:4A:68:B0:41:A9:3D:AD:30:41:4A:0A:8D
            X509v3 Authority Key Identifier: 
                keyid:12:CD:60:04:D2:A0:80:9E:70:ED:C6:99:B8:7B:2C:C6:52:FD:19:A1
                DirName:/C=US/ST=OH/L=Columbus/O=VikingVPN/OU=MyOrganizationalUnit/CN=VikingVPN CA/name=EasyRSA/emailAddress=me@myhost.mydomain
                serial:CF:35:85:EE:80:BF:2A:3E

            X509v3 Extended Key Usage: 
                TLS Web Client Authentication
            X509v3 Key Usage: 
                Digital Signature
    Signature Algorithm: md5WithRSAEncryption
         8a:9a:2f:cd:c5:7c:c5:2d:20:f3:8f:ae:a5:4c:c8:05:e0:40:
         b0:4b:4c:f1:32:ec:62:2d:01:49:d6:1e:6a:5c:bc:12:fa:58:
         a5:5e:22:01:1f:57:b4:27:8f:bc:a3:69:3b:1d:63:fe:55:07:
         e1:92:e8:e9:12:41:12:2f:9d:0c:86:32:05:f8:1b:9b:6a:fb:
         2f:03:3e:ca:00:76:98:bb:8a:25:8f:04:b0:0a:33:21:76:93:
         98:8d:59:82:f0:32:d2:f8:ea:1d:95:29:1d:34:fa:7a:c6:45:
         45:da:08:b1:22:47:d2:9f:49:86:38:18:68:2e:83:6f:3b:f6:
         72:52:9e:26:6c:1b:e5:86:36:21:c0:31:fc:4a:8a:17:b0:df:
         1f:43:b2:3b:33:f4:f4:a4:95:c1:5d:71:32:a6:05:33:ac:aa:
         47:f0:62:8c:ce:26:b3:93:7c:ce:1b:e1:0e:29:ce:81:49:27:
         99:75:6b:8b:06:10:89:6b:ab:db:fb:24:10:e4:a6:2b:ba:30:
         48:f2:c9:b6:f7:32:5b:67:0b:01:c2:9e:3a:8b:4c:13:23:55:
         12:39:26:b7:72:fd:5f:3c:b0:80:94:d6:d6:33:40:7b:3a:54:
         5a:de:ab:0c:65:f3:7d:b0:5b:89:7f:14:63:b8:aa:45:22:6d:
         89:e3:44:62:0e:dd:e4:b3:0e:ef:cf:98:ec:8d:66:69:84:40:
         1b:de:8d:0c:fe:5c:7f:d7:29:7f:c5:c1:85:95:ae:d2:15:8b:
         9d:8b:c3:55:c5:28:68:c1:5e:98:e0:65:74:3a:4b:86:40:a9:
         f8:63:17:56:d3:12:8a:68:e5:c9:02:71:63:05:a0:f2:c2:ee:
         6b:05:1b:76:ac:54:2c:71:86:f0:8f:69:73:a3:04:51:6c:fe:
         6c:f3:75:bf:b7:9c:29:9f:a9:85:a0:c4:ce:54:a1:7d:59:5a:
         c6:70:43:75:ee:93:6b:de:0f:7e:bc:6a:e4:b4:02:06:e6:71:
         0c:b2:d9:c8:b5:bb:be:b9:c4:fb:c8:9b:ac:62:66:0b:60:cf:
         c3:3f:d9:24:aa:57:13:02:9e:f9:ba:3a:41:53:5c:c7:31:83:
         f1:d3:99:b5:cf:75:65:53:d6:59:af:d6:88:9c:9e:9e:45:d3:
         6e:25:19:43:ed:60:79:1f:7c:92:4a:ef:f1:2a:7c:7c:0d:1a:
         44:ec:7b:ad:39:f5:2d:09:cc:98:14:60:69:71:7c:9c:65:31:
         01:3c:5f:09:77:04:31:46:f6:3b:b9:cb:96:b1:b9:ff:b9:b5:
         7d:0d:c2:1f:c8:ad:79:6f:fe:fd:71:ff:21:e6:67:21:4b:90:
         24:a0:00:e5:51:eb:5c:bf
-----BEGIN CERTIFICATE-----
MIIGrTCCBJWgAwIBAgICE78wDQYJKoZIhvcNAQEEBQAwgawxCzAJBgNVBAYTAlVT
MQswCQYDVQQIEwJPSDERMA8GA1UEBxMIQ29sdW1idXMxEjAQBgNVBAoTCVZpa2lu
Z1ZQTjEdMBsGA1UECxMUTXlPcmdhbml6YXRpb25hbFVuaXQxFTATBgNVBAMTDFZp
a2luZ1ZQTiBDQTEQMA4GA1UEKRMHRWFzeVJTQTEhMB8GCSqGSIb3DQEJARYSbWVA
bXlob3N0Lm15ZG9tYWluMB4XDTE1MDQyMzAxNTAyNVoXDTI1MDQyMDAxNTAyNVow
HzEdMBsGA1UEAxMUQ2xpZW50MTYzNENlcnQxZjk5Y2EwggIiMA0GCSqGSIb3DQEB
AQUAA4ICDwAwggIKAoICAQC+/Hn0lev6ZruAzvgEY/KZLvjV/Sd/2rYyi40MuQF8
ghiCrNAenXHbsvkWnCNRopAFwK8ygESxZvhr2QKUaaGUJNQPB06VfCubbBi6J2SU
a2DZcWKstP1Fr7E/aP3tHCi36FrIDtfZU7fb0M6FG48WvD73M9+d8jsXIx34zjZk
IsuZnW2GOOsP72vulL0cgpWhzn/3IfVPH1JRNwV6nWijXhwURFcUvZp7wGPYUdMU
0TBffPJvDJ9Llpm+Z63mHoQs6909x9hbElJ/qa2YADLBliJfjlgMp3qG22nFMkjF
tZb6TrlPpg/bzAete+55hNvqFeZyugXq9OAJs3HzSV32AZctzN2BEIYV8Y0fy4Ma
5ZfaCykcKmuX8yoren/tA/InCDkaUGaSfJZHpH5IpoXbWIUDO0vQJHlSjcarix05
1nsoHSlrj7iYV1q3wk37Qk5PHAN79SMwr03IkdtGPW+Q07EHV4DtW/79wq4X/8yd
oUd6HCbbdpSOZ8c/ESoVprR5u5lhKP5EePmiUsZwSaw9gzMnEjBdemmbCfjE1qKg
Cx1YVXpvDNKnyqsDM/O7DjL8eGBZFQjACZmfrp1N8juQJvkqryxODfCNkdeSE1uR
WWdvMk3w8pG/IQvb/d5ERHHxkv1tSGeOnP4M2yzUs3Vo6PGZlRt9ydvUkenYOkJE
IQIDAQABo4IBYzCCAV8wCQYDVR0TBAIwADAtBglghkgBhvhCAQ0EIBYeRWFzeS1S
U0EgR2VuZXJhdGVkIENlcnRpZmljYXRlMB0GA1UdDgQWBBQX8b1mskV0hEposEGp
Pa0wQUoKjTCB4QYDVR0jBIHZMIHWgBQSzWAE0qCAnnDtxpm4eyzGUv0ZoaGBsqSB
rzCBrDELMAkGA1UEBhMCVVMxCzAJBgNVBAgTAk9IMREwDwYDVQQHEwhDb2x1bWJ1
czESMBAGA1UEChMJVmlraW5nVlBOMR0wGwYDVQQLExRNeU9yZ2FuaXphdGlvbmFs
VW5pdDEVMBMGA1UEAxMMVmlraW5nVlBOIENBMRAwDgYDVQQpEwdFYXN5UlNBMSEw
HwYJKoZIhvcNAQkBFhJtZUBteWhvc3QubXlkb21haW6CCQDPNYXugL8qPjATBgNV
HSUEDDAKBggrBgEFBQcDAjALBgNVHQ8EBAMCB4AwDQYJKoZIhvcNAQEEBQADggIB
AIqaL83FfMUtIPOPrqVMyAXgQLBLTPEy7GItAUnWHmpcvBL6WKVeIgEfV7Qnj7yj
aTsdY/5VB+GS6OkSQRIvnQyGMgX4G5tq+y8DPsoAdpi7iiWPBLAKMyF2k5iNWYLw
MtL46h2VKR00+nrGRUXaCLEiR9KfSYY4GGgug2879nJSniZsG+WGNiHAMfxKihew
3x9Dsjsz9PSklcFdcTKmBTOsqkfwYozOJrOTfM4b4Q4pzoFJJ5l1a4sGEIlrq9v7
JBDkpiu6MEjyybb3MltnCwHCnjqLTBMjVRI5Jrdy/V88sICU1tYzQHs6VFreqwxl
832wW4l/FGO4qkUibYnjRGIO3eSzDu/PmOyNZmmEQBvejQz+XH/XKX/FwYWVrtIV
i52Lw1XFKGjBXpjgZXQ6S4ZAqfhjF1bTEopo5ckCcWMFoPLC7msFG3asVCxxhvCP
aXOjBFFs/mzzdb+3nCmfqYWgxM5UoX1ZWsZwQ3Xuk2veD368auS0AgbmcQyy2ci1
u765xPvIm6xiZgtgz8M/2SSqVxMCnvm6OkFTXMcxg/HTmbXPdWVT1lmv1oicnp5F
024lGUPtYHkffJJK7/EqfHwNGkTse6059S0JzJgUYGlxfJxlMQE8Xwl3BDFG9ju5
y5axuf+5tX0Nwh/IrXlv/v1x/yHmZyFLkCSgAOVR61y/
-----END CERTIFICATE-----
