Certificate:
    Data:
        Version: 3 (0x2)
        Serial Number: 11095 (0x2b57)
    Signature Algorithm: sha256WithRSAEncryption
        Issuer: C=US, ST=OH, L=Columbus, O=VikingVPN, OU=MyOrganizationalUnit, CN=VikingVPN CA/name=EasyRSA/emailAddress=me@myhost.mydomain
        Validity
            Not Before: Jun  7 15:10:01 2017 GMT
            Not After : Jun  5 15:10:01 2027 GMT
        Subject: CN=Client2296Certab8f5e
        Subject Public Key Info:
            Public Key Algorithm: rsaEncryption
                Public-Key: (4096 bit)
                Modulus:
                    00:c6:d3:1f:6c:66:88:e1:29:ae:cc:a5:55:e1:1a:
                    e8:8b:1d:e5:a9:80:e2:b5:b1:6c:99:ae:ef:15:b2:
                    81:fb:47:32:88:69:19:5a:73:53:c4:07:49:ed:0d:
                    e3:c7:bc:ed:8e:bb:47:6e:c3:ca:02:cf:24:23:12:
                    d8:31:b1:7b:71:cb:bb:d6:7e:2e:6e:65:1e:7c:0e:
                    00:5b:8a:31:15:ac:64:cd:14:04:d3:39:14:6b:dc:
                    20:8d:47:ba:05:99:ef:50:f8:6d:1d:a8:e8:66:5c:
                    d4:22:f5:8e:ab:db:e2:73:94:06:45:fb:47:1f:c8:
                    15:22:5e:ef:1b:9a:5c:30:d2:42:d4:5b:22:c3:70:
                    95:74:13:ae:67:69:3b:ee:f7:c7:7b:54:61:00:bd:
                    79:1b:4d:9d:c9:56:26:3c:67:b3:0a:04:91:cf:76:
                    98:91:a1:f8:24:00:1d:7b:fe:fa:64:70:28:79:4e:
                    0e:23:4f:1d:fd:67:93:90:88:4f:80:7e:ed:43:9b:
                    42:b9:44:db:74:79:5c:f3:c7:31:5d:39:4a:59:c5:
                    8e:3b:0f:b3:2e:5c:26:98:62:71:05:8b:d8:71:6e:
                    10:b3:cd:f3:b5:1a:16:c6:a0:8f:5e:37:4a:dc:3e:
                    5c:c1:96:60:6f:1d:d2:7a:0e:f8:03:1e:59:7c:ad:
                    7b:59:99:be:23:0a:68:97:f2:3c:bb:24:2f:dd:c6:
                    1c:fd:17:7c:ba:65:96:0e:b2:b7:80:99:c5:f5:81:
                    1b:8b:a3:81:26:dd:b6:63:84:11:0f:fa:40:7f:31:
                    d3:a8:1d:da:60:11:6c:4a:14:83:dc:6b:1a:09:2b:
                    a4:1e:b9:66:5d:80:b4:d9:f3:c6:bd:eb:98:ee:e2:
                    36:d4:05:87:27:6a:d7:02:d1:bb:17:a1:97:fd:bd:
                    06:9d:ec:a9:86:38:74:cb:84:ed:39:f7:de:8b:27:
                    b1:a2:10:fe:d0:4d:eb:97:67:02:80:96:fd:ea:0e:
                    b4:32:ab:3b:2c:9a:ed:78:b2:14:1c:fe:6f:fc:1c:
                    9a:57:f9:36:c6:2f:e9:91:ab:76:2a:ee:12:28:de:
                    54:6f:19:a1:6b:ca:24:98:60:69:ce:a3:26:62:d7:
                    da:ae:03:e3:39:a0:5f:87:bd:d1:4d:0a:f6:4d:a4:
                    03:50:45:bc:17:ae:23:73:86:73:e4:a6:ae:fc:ad:
                    c4:99:fa:ea:04:ac:06:a8:09:43:d3:0b:f7:98:14:
                    2e:77:56:eb:6b:12:94:c0:3e:4e:2b:10:f6:0e:3a:
                    8a:19:dc:67:d7:4b:d7:cf:2d:b7:ed:75:e4:8e:c2:
                    e5:0d:da:c2:97:14:df:1c:17:be:76:84:39:e1:7a:
                    d8:f8:e7
                Exponent: 65537 (0x10001)
        X509v3 extensions:
            X509v3 Basic Constraints: 
                CA:FALSE
            Netscape Comment: 
                Easy-RSA Generated Certificate
            X509v3 Subject Key Identifier: 
                24:44:2D:93:9D:DE:D1:58:D3:97:12:D8:C9:CB:E5:D9:F9:03:1A:7A
            X509v3 Authority Key Identifier: 
                keyid:12:CD:60:04:D2:A0:80:9E:70:ED:C6:99:B8:7B:2C:C6:52:FD:19:A1
                DirName:/C=US/ST=OH/L=Columbus/O=VikingVPN/OU=MyOrganizationalUnit/CN=VikingVPN CA/name=EasyRSA/emailAddress=me@myhost.mydomain
                serial:CF:35:85:EE:80:BF:2A:3E

            X509v3 Extended Key Usage: 
                TLS Web Client Authentication
            X509v3 Key Usage: 
                Digital Signature
    Signature Algorithm: sha256WithRSAEncryption
         47:32:79:16:6e:0d:db:68:82:d0:d4:03:ce:bd:f2:0f:78:87:
         7d:01:c8:fe:b0:5b:bb:f9:a4:b8:8b:94:42:9c:fc:b4:79:79:
         1c:48:fe:98:c5:0d:7a:9c:82:b8:c3:73:2d:d9:4c:33:d7:21:
         71:4f:b5:03:4e:e4:8e:b3:02:5a:92:22:4d:c0:52:19:9a:d1:
         75:36:6c:c1:00:d1:73:6c:8a:00:66:8f:a4:0c:89:51:1c:1e:
         0b:b4:ef:61:2b:a2:35:fa:1c:57:c0:59:71:33:d6:70:e7:1c:
         84:81:53:12:4e:75:cf:05:61:81:e2:e2:7a:48:e2:00:38:6e:
         d8:dd:80:69:63:0c:7c:48:59:5e:59:bd:10:9b:39:66:7d:31:
         d0:b5:96:1c:53:4b:2b:f5:54:3f:28:c6:25:d0:55:f8:27:f0:
         81:92:fa:00:39:0d:c1:f1:be:08:07:08:1f:40:9a:d8:9c:8e:
         22:45:c5:1e:47:f0:02:64:a5:c1:6d:5d:94:a0:52:f7:44:5a:
         18:ac:2d:69:d7:3f:8f:d6:01:7d:fe:48:5e:97:57:96:ee:a8:
         5b:c7:59:29:0d:a8:a1:51:a1:ca:f6:e8:3a:9e:d4:38:81:4b:
         dd:43:31:e0:41:d9:01:ac:7f:96:23:87:6a:cc:0f:6f:27:3d:
         3d:6d:cc:9a:f3:ea:ce:90:f7:6c:fb:dc:28:21:69:7a:95:94:
         11:7f:2e:1b:51:56:92:1b:38:b1:a8:1a:9e:1e:bf:57:bf:47:
         da:13:5e:ac:67:25:69:0e:6c:79:b2:1e:09:bd:6a:3b:e8:e0:
         16:87:92:01:55:7a:e5:f9:de:d9:9b:98:77:fe:39:48:a8:e3:
         37:da:87:14:cb:56:6c:6c:66:70:06:28:16:a5:dc:8b:e6:9b:
         c0:1a:b3:97:b1:49:60:d3:45:49:82:87:32:7c:57:e9:c7:81:
         e4:91:15:b2:6e:b7:83:b1:ba:49:45:20:1a:49:93:a6:05:85:
         d8:52:3d:e0:68:de:f7:c7:db:d4:39:48:f8:59:e0:9d:d1:c4:
         13:67:f6:43:f7:e6:72:a0:97:0e:5f:c8:ef:7f:85:63:11:b4:
         90:d1:d8:7d:cc:d4:69:d3:75:5c:5f:9f:6a:37:6a:46:18:7b:
         da:de:16:97:bf:a5:48:55:0d:51:d2:cd:cf:4d:6e:d2:9c:72:
         a1:03:31:5f:7f:6e:97:e4:bf:db:b9:2e:b9:13:7a:ee:0f:9c:
         59:52:a9:43:6a:09:a9:21:da:86:8c:c3:39:1b:8e:6f:bc:e2:
         4b:eb:37:b3:53:5b:c0:a2:6b:b2:99:0b:8f:b6:d5:50:fb:36:
         37:e6:7c:58:e4:b4:83:0c
-----BEGIN CERTIFICATE-----
MIIGrTCCBJWgAwIBAgICK1cwDQYJKoZIhvcNAQELBQAwgawxCzAJBgNVBAYTAlVT
MQswCQYDVQQIEwJPSDERMA8GA1UEBxMIQ29sdW1idXMxEjAQBgNVBAoTCVZpa2lu
Z1ZQTjEdMBsGA1UECxMUTXlPcmdhbml6YXRpb25hbFVuaXQxFTATBgNVBAMTDFZp
a2luZ1ZQTiBDQTEQMA4GA1UEKRMHRWFzeVJTQTEhMB8GCSqGSIb3DQEJARYSbWVA
bXlob3N0Lm15ZG9tYWluMB4XDTE3MDYwNzE1MTAwMVoXDTI3MDYwNTE1MTAwMVow
HzEdMBsGA1UEAxMUQ2xpZW50MjI5NkNlcnRhYjhmNWUwggIiMA0GCSqGSIb3DQEB
AQUAA4ICDwAwggIKAoICAQDG0x9sZojhKa7MpVXhGuiLHeWpgOK1sWyZru8VsoH7
RzKIaRlac1PEB0ntDePHvO2Ou0duw8oCzyQjEtgxsXtxy7vWfi5uZR58DgBbijEV
rGTNFATTORRr3CCNR7oFme9Q+G0dqOhmXNQi9Y6r2+JzlAZF+0cfyBUiXu8bmlww
0kLUWyLDcJV0E65naTvu98d7VGEAvXkbTZ3JViY8Z7MKBJHPdpiRofgkAB17/vpk
cCh5Tg4jTx39Z5OQiE+Afu1Dm0K5RNt0eVzzxzFdOUpZxY47D7MuXCaYYnEFi9hx
bhCzzfO1GhbGoI9eN0rcPlzBlmBvHdJ6DvgDHll8rXtZmb4jCmiX8jy7JC/dxhz9
F3y6ZZYOsreAmcX1gRuLo4Em3bZjhBEP+kB/MdOoHdpgEWxKFIPcaxoJK6QeuWZd
gLTZ88a965ju4jbUBYcnatcC0bsXoZf9vQad7KmGOHTLhO05996LJ7GiEP7QTeuX
ZwKAlv3qDrQyqzssmu14shQc/m/8HJpX+TbGL+mRq3Yq7hIo3lRvGaFryiSYYGnO
oyZi19quA+M5oF+HvdFNCvZNpANQRbwXriNzhnPkpq78rcSZ+uoErAaoCUPTC/eY
FC53VutrEpTAPk4rEPYOOooZ3GfXS9fPLbftdeSOwuUN2sKXFN8cF752hDnhetj4
5wIDAQABo4IBYzCCAV8wCQYDVR0TBAIwADAtBglghkgBhvhCAQ0EIBYeRWFzeS1S
U0EgR2VuZXJhdGVkIENlcnRpZmljYXRlMB0GA1UdDgQWBBQkRC2Tnd7RWNOXEtjJ
y+XZ+QMaejCB4QYDVR0jBIHZMIHWgBQSzWAE0qCAnnDtxpm4eyzGUv0ZoaGBsqSB
rzCBrDELMAkGA1UEBhMCVVMxCzAJBgNVBAgTAk9IMREwDwYDVQQHEwhDb2x1bWJ1
czESMBAGA1UEChMJVmlraW5nVlBOMR0wGwYDVQQLExRNeU9yZ2FuaXphdGlvbmFs
VW5pdDEVMBMGA1UEAxMMVmlraW5nVlBOIENBMRAwDgYDVQQpEwdFYXN5UlNBMSEw
HwYJKoZIhvcNAQkBFhJtZUBteWhvc3QubXlkb21haW6CCQDPNYXugL8qPjATBgNV
HSUEDDAKBggrBgEFBQcDAjALBgNVHQ8EBAMCB4AwDQYJKoZIhvcNAQELBQADggIB
AEcyeRZuDdtogtDUA8698g94h30ByP6wW7v5pLiLlEKc/LR5eRxI/pjFDXqcgrjD
cy3ZTDPXIXFPtQNO5I6zAlqSIk3AUhma0XU2bMEA0XNsigBmj6QMiVEcHgu072Er
ojX6HFfAWXEz1nDnHISBUxJOdc8FYYHi4npI4gA4btjdgGljDHxIWV5ZvRCbOWZ9
MdC1lhxTSyv1VD8oxiXQVfgn8IGS+gA5DcHxvggHCB9AmticjiJFxR5H8AJkpcFt
XZSgUvdEWhisLWnXP4/WAX3+SF6XV5buqFvHWSkNqKFRocr26Dqe1DiBS91DMeBB
2QGsf5Yjh2rMD28nPT1tzJrz6s6Q92z73CghaXqVlBF/LhtRVpIbOLGoGp4ev1e/
R9oTXqxnJWkObHmyHgm9ajvo4BaHkgFVeuX53tmbmHf+OUio4zfahxTLVmxsZnAG
KBal3Ivmm8Aas5exSWDTRUmChzJ8V+nHgeSRFbJut4OxuklFIBpJk6YFhdhSPeBo
3vfH29Q5SPhZ4J3RxBNn9kP35nKglw5fyO9/hWMRtJDR2H3M1GnTdVxfn2o3akYY
e9reFpe/pUhVDVHSzc9NbtKccqEDMV9/bpfkv9u5LrkTeu4PnFlSqUNqCakh2oaM
wzkbjm+84kvrN7NTW8Cia7KZC4+21VD7NjfmfFjktIMM
-----END CERTIFICATE-----
