Certificate:
    Data:
        Version: 3 (0x2)
        Serial Number: 59 (0x3b)
    Signature Algorithm: md5WithRSAEncryption
        Issuer: C=US, ST=OH, L=Columbus, O=VikingVPN, OU=MyOrganizationalUnit, CN=VikingVPN CA/name=EasyRSA/emailAddress=me@myhost.mydomain
        Validity
            Not Before: Aug  9 20:45:10 2013 GMT
            Not After : Aug  7 20:45:10 2023 GMT
        Subject: CN=Client43Certc14046
        Subject Public Key Info:
            Public Key Algorithm: rsaEncryption
                Public-Key: (4096 bit)
                Modulus:
                    00:ef:88:a6:77:af:b8:b7:72:d7:36:ea:0a:8f:df:
                    eb:91:90:9b:25:ff:49:8a:f7:17:4a:7b:0b:c0:7e:
                    9d:e2:2c:96:ad:7a:e0:c9:9c:51:5e:96:4b:e9:ac:
                    f6:c6:20:32:b3:ec:d2:4d:5a:a0:f2:4a:56:db:6b:
                    98:62:cd:df:ae:63:90:4a:fc:53:32:35:f2:85:db:
                    de:71:0f:f1:c1:59:16:43:c8:ce:9f:9a:a8:ab:e0:
                    5e:af:96:48:d6:af:1a:ab:95:05:a2:c3:ef:a9:e3:
                    a5:2b:63:f7:ed:72:4e:94:e9:3e:30:01:2a:a6:c1:
                    ff:d3:70:46:92:b0:50:b9:51:7c:b5:29:4e:36:5c:
                    41:42:ce:9d:db:0e:14:8e:1b:72:f9:5d:0e:92:27:
                    6c:e7:a3:b0:71:6e:62:70:94:38:83:b7:e6:0c:bd:
                    a0:b2:6a:6c:24:74:f0:3d:ec:d9:86:18:f3:cc:4f:
                    1d:72:28:b1:ae:a4:39:da:84:fa:20:de:c2:06:37:
                    b0:4a:b1:9e:ae:9d:fe:84:8b:bf:5a:37:1a:be:b8:
                    3f:8d:a6:70:5e:8e:ef:94:5a:dc:ec:f5:b4:3d:ee:
                    d8:d4:55:0b:4c:7c:bd:d0:84:eb:85:04:bf:04:94:
                    31:47:29:63:d2:07:a4:e6:78:93:39:7b:27:f9:da:
                    3d:5a:ff:11:83:02:fc:c4:70:cd:16:03:74:92:0b:
                    75:3d:41:00:e2:03:7e:3a:2f:18:89:14:3c:f6:22:
                    b0:e4:8f:6e:6b:d1:a5:74:ab:5f:98:5b:26:5c:10:
                    dc:f4:25:fc:89:52:62:95:07:19:09:7a:df:94:88:
                    6d:6f:7f:c2:fd:09:67:64:60:82:15:ff:77:c0:b3:
                    8c:7f:7d:e9:b2:02:cb:b6:bd:13:83:7d:f3:0b:18:
                    95:91:e9:17:36:f2:de:9b:44:ed:a5:33:8f:ec:37:
                    15:e0:48:76:8c:36:af:6e:a8:41:1f:78:cb:25:f4:
                    29:da:87:d0:33:46:75:4e:ba:a7:81:fe:77:da:5c:
                    a7:17:e0:a7:31:e1:1c:b4:e2:e0:f6:f5:c6:53:61:
                    09:85:ce:1f:8e:b6:c8:46:f3:84:69:11:8b:22:62:
                    b2:75:38:c3:f3:61:ed:26:ad:1c:c8:56:a9:00:75:
                    9e:59:b6:27:3d:96:d7:3d:2a:60:46:2e:97:45:ea:
                    d9:db:40:eb:c0:75:bd:ef:c9:74:be:f9:de:b6:60:
                    de:a5:fc:9a:8d:17:4e:eb:1a:67:5f:84:27:23:df:
                    38:16:07:38:3a:85:a6:95:8e:1d:8d:02:ee:d8:06:
                    66:ec:ad:4a:1c:6a:d0:28:55:af:3b:bc:34:eb:d7:
                    25:de:61
                Exponent: 65537 (0x10001)
        X509v3 extensions:
            X509v3 Basic Constraints: 
                CA:FALSE
            Netscape Comment: 
                Easy-RSA Generated Certificate
            X509v3 Subject Key Identifier: 
                21:2E:5C:31:F8:82:E1:8D:60:EC:C9:D1:70:2E:E9:7F:D9:21:CA:F9
            X509v3 Authority Key Identifier: 
                keyid:12:CD:60:04:D2:A0:80:9E:70:ED:C6:99:B8:7B:2C:C6:52:FD:19:A1
                DirName:/C=US/ST=OH/L=Columbus/O=VikingVPN/OU=MyOrganizationalUnit/CN=VikingVPN CA/name=EasyRSA/emailAddress=me@myhost.mydomain
                serial:CF:35:85:EE:80:BF:2A:3E

            X509v3 Extended Key Usage: 
                TLS Web Client Authentication
            X509v3 Key Usage: 
                Digital Signature
    Signature Algorithm: md5WithRSAEncryption
         b3:9a:56:4d:76:0e:8a:74:c7:bb:ef:bd:74:ca:5d:69:14:7e:
         b4:f0:7b:0d:ea:85:1c:22:d6:20:59:bc:28:f9:b6:7d:f6:44:
         b2:8f:a5:d7:1c:b2:a4:e7:95:ff:a1:a9:1a:61:c8:f9:09:cb:
         05:27:07:1b:3c:3c:e8:33:f1:ab:bb:a4:31:e3:a5:72:c2:bd:
         00:18:01:b8:7e:0e:36:3f:96:40:6e:90:89:1c:71:86:d0:48:
         09:7c:70:a3:db:3c:26:96:7d:27:0a:c3:65:0d:21:4b:ea:fa:
         2b:35:a2:28:08:c2:5a:ec:49:94:48:9c:e4:a4:91:ee:5f:16:
         9b:23:d3:96:2e:3c:d6:3c:a6:92:d3:e0:30:da:d1:87:fd:16:
         6d:5d:d9:d2:75:4e:2a:87:64:30:d8:4e:d1:80:5c:7f:21:bb:
         dd:84:df:99:44:27:f9:dc:81:b6:ba:6d:26:dd:7d:e1:49:11:
         14:a0:5e:b0:9b:2f:6d:2a:f5:1e:bf:e1:1b:bc:86:17:be:d9:
         6d:4b:62:00:37:90:88:8a:6f:c2:0c:21:64:c6:86:11:e2:1d:
         3d:cf:03:f2:2d:e3:8f:c4:fd:de:fd:60:1c:3d:1a:fa:0a:64:
         0f:22:59:47:52:19:ac:8f:be:fc:b2:a2:0d:4e:85:19:e7:99:
         fe:f2:c4:0c:a1:e4:c4:be:7b:0d:24:13:8e:f9:2e:6d:b0:26:
         cd:b1:59:a4:4e:14:c6:11:45:a4:c8:b3:d3:bb:30:e9:d7:85:
         6b:e7:27:4d:54:16:f0:fc:78:9c:91:ef:18:1f:c5:3f:b5:77:
         bf:08:75:bc:53:19:44:a8:8c:75:6b:94:f0:03:dc:7d:5a:2f:
         93:30:d7:1e:6b:43:3b:3a:d4:c4:1b:cd:af:39:a3:29:bc:1b:
         8a:54:52:82:ff:23:25:23:3b:27:71:ac:da:f3:d1:9b:52:90:
         6c:93:85:f7:b0:39:ff:74:9b:b3:b4:70:8f:3f:3f:42:e4:4d:
         4c:a4:e2:4d:db:6f:13:0b:43:92:4a:54:eb:7d:aa:ad:8f:ff:
         4f:ba:ce:be:95:f9:3d:71:94:cb:52:05:a8:ac:e2:81:1e:19:
         23:19:37:df:fd:a0:fd:b8:71:de:22:46:b2:10:8f:e1:de:5c:
         21:1c:32:d2:86:57:e5:10:4b:3b:bb:8f:3e:f1:19:22:68:53:
         b4:8d:71:16:d0:d8:75:39:47:81:29:26:16:cd:1c:3f:9c:70:
         c0:f0:1e:cf:7e:9d:5d:25:9b:19:d7:50:ce:4b:77:ba:2e:82:
         c1:fd:39:41:39:0e:84:a5:ef:8f:f4:02:8d:a4:f1:58:9d:98:
         19:5f:ea:e8:d8:2b:13:2b
-----BEGIN CERTIFICATE-----
MIIGqjCCBJKgAwIBAgIBOzANBgkqhkiG9w0BAQQFADCBrDELMAkGA1UEBhMCVVMx
CzAJBgNVBAgTAk9IMREwDwYDVQQHEwhDb2x1bWJ1czESMBAGA1UEChMJVmlraW5n
VlBOMR0wGwYDVQQLExRNeU9yZ2FuaXphdGlvbmFsVW5pdDEVMBMGA1UEAxMMVmlr
aW5nVlBOIENBMRAwDgYDVQQpEwdFYXN5UlNBMSEwHwYJKoZIhvcNAQkBFhJtZUBt
eWhvc3QubXlkb21haW4wHhcNMTMwODA5MjA0NTEwWhcNMjMwODA3MjA0NTEwWjAd
MRswGQYDVQQDExJDbGllbnQ0M0NlcnRjMTQwNDYwggIiMA0GCSqGSIb3DQEBAQUA
A4ICDwAwggIKAoICAQDviKZ3r7i3ctc26gqP3+uRkJsl/0mK9xdKewvAfp3iLJat
euDJnFFelkvprPbGIDKz7NJNWqDySlbba5hizd+uY5BK/FMyNfKF295xD/HBWRZD
yM6fmqir4F6vlkjWrxqrlQWiw++p46UrY/ftck6U6T4wASqmwf/TcEaSsFC5UXy1
KU42XEFCzp3bDhSOG3L5XQ6SJ2zno7BxbmJwlDiDt+YMvaCyamwkdPA97NmGGPPM
Tx1yKLGupDnahPog3sIGN7BKsZ6unf6Ei79aNxq+uD+NpnBeju+UWtzs9bQ97tjU
VQtMfL3QhOuFBL8ElDFHKWPSB6TmeJM5eyf52j1a/xGDAvzEcM0WA3SSC3U9QQDi
A346LxiJFDz2IrDkj25r0aV0q1+YWyZcENz0JfyJUmKVBxkJet+UiG1vf8L9CWdk
YIIV/3fAs4x/femyAsu2vRODffMLGJWR6Rc28t6bRO2lM4/sNxXgSHaMNq9uqEEf
eMsl9Cnah9AzRnVOuqeB/nfaXKcX4Kcx4Ry04uD29cZTYQmFzh+OtshG84RpEYsi
YrJ1OMPzYe0mrRzIVqkAdZ5Ztic9ltc9KmBGLpdF6tnbQOvAdb3vyXS++d62YN6l
/JqNF07rGmdfhCcj3zgWBzg6haaVjh2NAu7YBmbsrUocatAoVa87vDTr1yXeYQID
AQABo4IBYzCCAV8wCQYDVR0TBAIwADAtBglghkgBhvhCAQ0EIBYeRWFzeS1SU0Eg
R2VuZXJhdGVkIENlcnRpZmljYXRlMB0GA1UdDgQWBBQhLlwx+ILhjWDsydFwLul/
2SHK+TCB4QYDVR0jBIHZMIHWgBQSzWAE0qCAnnDtxpm4eyzGUv0ZoaGBsqSBrzCB
rDELMAkGA1UEBhMCVVMxCzAJBgNVBAgTAk9IMREwDwYDVQQHEwhDb2x1bWJ1czES
MBAGA1UEChMJVmlraW5nVlBOMR0wGwYDVQQLExRNeU9yZ2FuaXphdGlvbmFsVW5p
dDEVMBMGA1UEAxMMVmlraW5nVlBOIENBMRAwDgYDVQQpEwdFYXN5UlNBMSEwHwYJ
KoZIhvcNAQkBFhJtZUBteWhvc3QubXlkb21haW6CCQDPNYXugL8qPjATBgNVHSUE
DDAKBggrBgEFBQcDAjALBgNVHQ8EBAMCB4AwDQYJKoZIhvcNAQEEBQADggIBALOa
Vk12Dop0x7vvvXTKXWkUfrTwew3qhRwi1iBZvCj5tn32RLKPpdccsqTnlf+hqRph
yPkJywUnBxs8POgz8au7pDHjpXLCvQAYAbh+DjY/lkBukIkccYbQSAl8cKPbPCaW
fScKw2UNIUvq+is1oigIwlrsSZRInOSkke5fFpsj05YuPNY8ppLT4DDa0Yf9Fm1d
2dJ1TiqHZDDYTtGAXH8hu92E35lEJ/ncgba6bSbdfeFJERSgXrCbL20q9R6/4Ru8
hhe+2W1LYgA3kIiKb8IMIWTGhhHiHT3PA/It44/E/d79YBw9GvoKZA8iWUdSGayP
vvyyog1OhRnnmf7yxAyh5MS+ew0kE475Lm2wJs2xWaROFMYRRaTIs9O7MOnXhWvn
J01UFvD8eJyR7xgfxT+1d78IdbxTGUSojHVrlPAD3H1aL5Mw1x5rQzs61MQbza85
oym8G4pUUoL/IyUjOydxrNrz0ZtSkGyThfewOf90m7O0cI8/P0LkTUyk4k3bbxML
Q5JKVOt9qq2P/0+6zr6V+T1xlMtSBais4oEeGSMZN9/9oP24cd4iRrIQj+HeXCEc
MtKGV+UQSzu7jz7xGSJoU7SNcRbQ2HU5R4EpJhbNHD+ccMDwHs9+nV0lmxnXUM5L
d7ougsH9OUE5DoSl74/0Ao2k8VidmBlf6ujYKxMr
-----END CERTIFICATE-----
