Certificate:
    Data:
        Version: 3 (0x2)
        Serial Number: 12500 (0x30d4)
    Signature Algorithm: sha256WithRSAEncryption
        Issuer: C=US, ST=OH, L=Columbus, O=VikingVPN, OU=MyOrganizationalUnit, CN=VikingVPN CA/name=EasyRSA/emailAddress=me@myhost.mydomain
        Validity
            Not Before: Jan 30 18:34:49 2018 GMT
            Not After : Jan 28 18:34:49 2028 GMT
        Subject: CN=Client2122Cert2d3072
        Subject Public Key Info:
            Public Key Algorithm: rsaEncryption
                Public-Key: (4096 bit)
                Modulus:
                    00:b0:2f:29:96:dc:9b:87:6d:04:d0:ab:de:1f:d9:
                    c0:9a:f3:b2:b8:6d:72:38:b8:15:3c:c1:40:d9:2b:
                    c1:8e:b4:12:52:da:8d:b2:45:64:8a:52:f3:49:09:
                    c8:6c:83:bd:ac:66:5a:01:45:d1:c8:61:dd:ec:e7:
                    b2:24:18:25:5c:70:80:3e:5d:1a:7e:ca:41:b1:e4:
                    7a:62:4b:02:0b:e3:d9:69:b1:3b:1c:c0:3b:34:52:
                    eb:53:bc:aa:b9:76:ad:db:b0:e6:77:77:84:68:80:
                    0c:c1:1b:08:89:8f:e3:0e:0d:85:fa:5c:8a:2f:b3:
                    a7:d7:f2:70:12:5e:a6:a5:1b:ff:f2:5a:b4:c3:ec:
                    26:e1:23:91:55:fa:50:b3:c7:5a:57:d5:4a:f1:db:
                    4e:a1:6c:1c:07:46:5a:09:40:5c:a2:02:cd:cb:36:
                    f3:27:e0:0a:0c:cf:73:8b:d9:c5:0d:c9:fd:46:fe:
                    6b:7c:b5:d0:ae:1a:f2:76:d0:d3:09:9f:2c:1e:12:
                    1c:ba:a0:91:68:cf:5a:62:44:37:43:4a:6a:2a:4e:
                    5c:6c:bc:e5:e8:6c:1a:ed:24:3a:f6:c2:fa:57:25:
                    b0:e2:89:f2:2a:81:6c:c9:0a:2d:a6:1c:38:d3:51:
                    17:78:60:a3:27:ce:75:dc:40:25:b4:5f:25:34:6e:
                    68:92:be:50:ca:f8:84:f2:49:a0:31:b0:21:56:f9:
                    7f:e6:05:54:37:c6:d5:89:ae:a3:8b:33:d8:e7:8b:
                    ae:33:25:d5:33:d5:6a:12:05:ca:36:b0:18:54:c6:
                    a8:91:d0:8e:65:a0:fa:d9:fe:55:06:30:ab:cb:e9:
                    d6:ae:de:7c:56:c9:f3:4b:dd:54:8a:df:b9:8a:8c:
                    9f:37:68:c4:ef:35:89:0c:9a:bd:c6:51:88:d4:0f:
                    d0:e0:61:4b:64:fd:f9:93:57:f6:79:cd:f5:7f:3d:
                    06:4c:e7:ba:55:72:33:ee:c8:1c:cc:35:b5:5a:15:
                    52:86:0d:eb:f4:32:3a:74:7b:c1:15:93:41:b6:33:
                    dd:7f:57:77:6d:3e:0d:60:13:71:40:ab:19:81:25:
                    c5:b8:6a:cd:a6:3b:b2:fd:cb:de:9c:ef:7e:ce:20:
                    77:52:be:80:8f:de:b9:4e:3d:5b:f3:1f:aa:d1:f2:
                    53:81:55:a7:9d:5e:00:20:a7:4c:85:b1:76:c2:de:
                    fb:66:25:60:98:de:25:20:1e:d6:b5:82:bb:f9:d4:
                    2f:54:fc:d3:ee:7a:99:ec:8e:46:77:c1:8d:dd:69:
                    af:44:89:60:b5:b2:b8:7a:0c:8d:87:18:ec:1e:5d:
                    19:4a:a3:da:86:2b:8f:43:5d:f9:7c:6f:60:b4:10:
                    d5:5c:31
                Exponent: 65537 (0x10001)
        X509v3 extensions:
            X509v3 Basic Constraints: 
                CA:FALSE
            Netscape Comment: 
                Easy-RSA Generated Certificate
            X509v3 Subject Key Identifier: 
                89:74:B6:B9:60:FB:66:31:72:58:58:93:1E:64:76:5F:5B:03:37:EC
            X509v3 Authority Key Identifier: 
                keyid:12:CD:60:04:D2:A0:80:9E:70:ED:C6:99:B8:7B:2C:C6:52:FD:19:A1
                DirName:/C=US/ST=OH/L=Columbus/O=VikingVPN/OU=MyOrganizationalUnit/CN=VikingVPN CA/name=EasyRSA/emailAddress=me@myhost.mydomain
                serial:CF:35:85:EE:80:BF:2A:3E

            X509v3 Extended Key Usage: 
                TLS Web Client Authentication
            X509v3 Key Usage: 
                Digital Signature
    Signature Algorithm: sha256WithRSAEncryption
         1a:bf:9b:9f:4d:06:47:0f:2a:df:74:9a:7b:bb:eb:9b:7a:3c:
         be:d8:95:69:8a:52:77:22:19:ee:5f:22:9b:9c:ae:36:d5:a8:
         ce:6b:a1:bf:c6:03:88:9e:15:1d:dc:9a:b2:f3:9b:b9:2f:a1:
         cc:71:a7:94:9c:cb:aa:5e:d7:35:2c:a5:0a:0e:e1:d7:40:bb:
         73:4f:f2:83:ec:2e:7e:61:a1:2a:db:1e:a9:18:0d:09:92:3e:
         11:1c:50:ac:95:c3:9a:a4:50:08:da:b8:49:81:76:d4:ff:88:
         1f:87:6b:b7:cf:e7:0f:31:14:cb:10:69:94:72:21:83:66:59:
         7d:5e:cb:37:52:83:34:5f:3f:58:9b:b4:8d:e7:14:1b:34:b9:
         05:4a:be:e2:45:c5:90:6b:2d:20:97:1f:4d:12:ee:17:51:3a:
         ac:7b:f4:55:a7:7c:6a:97:e9:dc:49:56:3f:7e:5d:3e:7f:46:
         68:80:44:ad:69:12:72:be:dd:fa:c6:7d:63:bf:e9:e9:b6:01:
         3d:ea:c5:66:a0:19:45:e1:b4:51:64:06:c5:f5:f3:0d:0c:f5:
         a4:c6:4d:8c:c4:0e:ce:cc:6c:a7:1a:5f:21:f1:59:fc:16:e4:
         75:bd:00:4e:3d:47:48:25:fb:f1:57:2a:4e:01:ec:f9:c3:9e:
         30:c7:88:2a:48:fb:13:a4:7a:75:5e:9a:56:3e:c6:30:ad:e5:
         1f:ed:f1:3d:8a:91:9c:dc:b4:7a:79:0a:08:cb:15:19:b8:5b:
         ba:fc:e5:d5:f5:54:56:47:28:92:ef:97:e1:60:7a:93:8a:99:
         b6:eb:d4:23:40:6b:c3:b7:8b:87:7c:6a:36:ba:c2:c0:b6:89:
         48:ea:13:63:c9:21:bf:04:b9:f9:d1:db:e6:49:76:4f:5d:3b:
         43:30:02:b9:17:5a:28:18:00:7a:c6:63:f7:f3:63:8c:be:72:
         d4:50:b0:12:78:30:a2:d9:06:06:6f:d1:06:7a:4d:22:73:b5:
         8b:9e:f1:34:af:3a:d9:f1:5c:bb:7c:cf:c4:7f:8f:6e:20:72:
         db:a2:de:86:d8:f8:fa:7a:f5:58:9a:27:db:e6:e3:98:5d:3f:
         73:e6:b9:0a:a0:7a:59:3f:37:d8:e0:39:e2:55:55:82:f3:6b:
         ca:60:73:cf:5b:f9:ae:34:51:a5:75:f9:64:b8:2b:33:10:10:
         b8:86:58:de:36:a4:10:64:92:2d:ef:10:ec:8c:67:d9:1b:60:
         b8:5c:df:19:14:7f:e8:83:3e:54:fd:50:94:2e:c4:9e:c4:3e:
         67:54:6f:b9:f0:31:26:60:20:88:dd:d7:3f:06:e8:0a:c5:71:
         e4:28:93:e9:69:ca:78:c5
-----BEGIN CERTIFICATE-----
MIIGrTCCBJWgAwIBAgICMNQwDQYJKoZIhvcNAQELBQAwgawxCzAJBgNVBAYTAlVT
MQswCQYDVQQIEwJPSDERMA8GA1UEBxMIQ29sdW1idXMxEjAQBgNVBAoTCVZpa2lu
Z1ZQTjEdMBsGA1UECxMUTXlPcmdhbml6YXRpb25hbFVuaXQxFTATBgNVBAMTDFZp
a2luZ1ZQTiBDQTEQMA4GA1UEKRMHRWFzeVJTQTEhMB8GCSqGSIb3DQEJARYSbWVA
bXlob3N0Lm15ZG9tYWluMB4XDTE4MDEzMDE4MzQ0OVoXDTI4MDEyODE4MzQ0OVow
HzEdMBsGA1UEAxMUQ2xpZW50MjEyMkNlcnQyZDMwNzIwggIiMA0GCSqGSIb3DQEB
AQUAA4ICDwAwggIKAoICAQCwLymW3JuHbQTQq94f2cCa87K4bXI4uBU8wUDZK8GO
tBJS2o2yRWSKUvNJCchsg72sZloBRdHIYd3s57IkGCVccIA+XRp+ykGx5HpiSwIL
49lpsTscwDs0UutTvKq5dq3bsOZ3d4RogAzBGwiJj+MODYX6XIovs6fX8nASXqal
G//yWrTD7CbhI5FV+lCzx1pX1Urx206hbBwHRloJQFyiAs3LNvMn4AoMz3OL2cUN
yf1G/mt8tdCuGvJ20NMJnyweEhy6oJFoz1piRDdDSmoqTlxsvOXobBrtJDr2wvpX
JbDiifIqgWzJCi2mHDjTURd4YKMnznXcQCW0XyU0bmiSvlDK+ITySaAxsCFW+X/m
BVQ3xtWJrqOLM9jni64zJdUz1WoSBco2sBhUxqiR0I5loPrZ/lUGMKvL6dau3nxW
yfNL3VSK37mKjJ83aMTvNYkMmr3GUYjUD9DgYUtk/fmTV/Z5zfV/PQZM57pVcjPu
yBzMNbVaFVKGDev0Mjp0e8EVk0G2M91/V3dtPg1gE3FAqxmBJcW4as2mO7L9y96c
737OIHdSvoCP3rlOPVvzH6rR8lOBVaedXgAgp0yFsXbC3vtmJWCY3iUgHta1grv5
1C9U/NPuepnsjkZ3wY3daa9EiWC1srh6DI2HGOweXRlKo9qGK49DXfl8b2C0ENVc
MQIDAQABo4IBYzCCAV8wCQYDVR0TBAIwADAtBglghkgBhvhCAQ0EIBYeRWFzeS1S
U0EgR2VuZXJhdGVkIENlcnRpZmljYXRlMB0GA1UdDgQWBBSJdLa5YPtmMXJYWJMe
ZHZfWwM37DCB4QYDVR0jBIHZMIHWgBQSzWAE0qCAnnDtxpm4eyzGUv0ZoaGBsqSB
rzCBrDELMAkGA1UEBhMCVVMxCzAJBgNVBAgTAk9IMREwDwYDVQQHEwhDb2x1bWJ1
czESMBAGA1UEChMJVmlraW5nVlBOMR0wGwYDVQQLExRNeU9yZ2FuaXphdGlvbmFs
VW5pdDEVMBMGA1UEAxMMVmlraW5nVlBOIENBMRAwDgYDVQQpEwdFYXN5UlNBMSEw
HwYJKoZIhvcNAQkBFhJtZUBteWhvc3QubXlkb21haW6CCQDPNYXugL8qPjATBgNV
HSUEDDAKBggrBgEFBQcDAjALBgNVHQ8EBAMCB4AwDQYJKoZIhvcNAQELBQADggIB
ABq/m59NBkcPKt90mnu765t6PL7YlWmKUnciGe5fIpucrjbVqM5rob/GA4ieFR3c
mrLzm7kvocxxp5Scy6pe1zUspQoO4ddAu3NP8oPsLn5hoSrbHqkYDQmSPhEcUKyV
w5qkUAjauEmBdtT/iB+Ha7fP5w8xFMsQaZRyIYNmWX1eyzdSgzRfP1ibtI3nFBs0
uQVKvuJFxZBrLSCXH00S7hdROqx79FWnfGqX6dxJVj9+XT5/RmiARK1pEnK+3frG
fWO/6em2AT3qxWagGUXhtFFkBsX18w0M9aTGTYzEDs7MbKcaXyHxWfwW5HW9AE49
R0gl+/FXKk4B7PnDnjDHiCpI+xOkenVemlY+xjCt5R/t8T2KkZzctHp5CgjLFRm4
W7r85dX1VFZHKJLvl+FgepOKmbbr1CNAa8O3i4d8aja6wsC2iUjqE2PJIb8EufnR
2+ZJdk9dO0MwArkXWigYAHrGY/fzY4y+ctRQsBJ4MKLZBgZv0QZ6TSJztYue8TSv
OtnxXLt8z8R/j24gctui3obY+Pp69ViaJ9vm45hdP3PmuQqgelk/N9jgOeJVVYLz
a8pgc89b+a40UaV1+WS4KzMQELiGWN42pBBkki3vEOyMZ9kbYLhc3xkUf+iDPlT9
UJQuxJ7EPmdUb7nwMSZgIIjd1z8G6ArFceQok+lpynjF
-----END CERTIFICATE-----
