Certificate:
    Data:
        Version: 3 (0x2)
        Serial Number: 12962 (0x32a2)
    Signature Algorithm: sha256WithRSAEncryption
        Issuer: C=US, ST=OH, L=Columbus, O=VikingVPN, OU=MyOrganizationalUnit, CN=VikingVPN CA/name=EasyRSA/emailAddress=me@myhost.mydomain
        Validity
            Not Before: Apr 11 13:14:11 2018 GMT
            Not After : Apr  8 13:14:11 2028 GMT
        Subject: CN=Client2726Cert7ec491
        Subject Public Key Info:
            Public Key Algorithm: rsaEncryption
                Public-Key: (4096 bit)
                Modulus:
                    00:e4:a5:cf:8c:08:e8:ae:b5:71:45:32:55:af:bf:
                    2c:2d:d9:8a:fd:23:d1:e8:3f:47:18:e1:a8:9f:b7:
                    ac:71:a6:6e:9a:c1:01:88:84:b0:f0:aa:19:5d:3b:
                    74:cb:a9:05:05:8c:f4:2b:22:21:84:73:00:59:68:
                    69:cf:81:24:e0:97:7e:f0:c1:8c:3d:03:2e:c0:30:
                    80:aa:2c:63:82:e8:50:37:f9:5b:82:1c:17:d6:5c:
                    67:3c:10:bb:fe:20:56:d4:a6:c0:0d:1e:d3:81:00:
                    77:c0:e6:53:0b:8c:c0:c3:01:f0:ae:c6:c5:96:20:
                    42:d3:68:49:41:58:13:bb:cf:8c:23:75:98:7a:e8:
                    8a:eb:68:49:97:6a:36:5c:00:cc:e4:13:fd:a0:9f:
                    56:5d:e5:4c:95:97:df:15:00:09:1a:90:d5:df:c8:
                    06:fb:9b:ac:d3:b8:72:4b:c5:29:03:8d:b3:de:c8:
                    79:01:53:ff:37:bf:e2:54:3d:e5:e7:3a:1d:94:38:
                    8d:55:28:96:6e:d8:8b:e2:b5:8a:52:d2:27:66:f4:
                    b1:55:57:73:56:5f:0e:62:09:64:86:31:2c:44:2e:
                    fd:f9:ec:f7:76:d7:60:95:70:93:68:64:30:87:d4:
                    b5:eb:6e:b5:24:32:23:f9:56:f1:3a:27:00:64:0d:
                    37:34:98:8f:c9:1b:68:d1:06:c5:0b:2e:e4:a8:7f:
                    02:59:7e:02:57:9c:6b:78:22:c6:c5:16:ab:15:64:
                    47:d2:0d:2c:36:c9:7b:07:84:01:a9:bb:3a:7d:79:
                    62:02:89:8a:ab:2a:e1:cc:2d:1a:a3:db:7d:66:e6:
                    f5:cc:51:0c:bc:18:c4:9b:67:45:6d:ea:4f:38:24:
                    ca:4b:28:10:ff:5e:24:c3:80:18:04:39:de:e6:2f:
                    31:14:f0:1b:5d:e7:b7:0a:00:7e:6e:e6:56:82:d0:
                    b8:e8:c6:0d:f0:e0:c8:35:26:ad:f4:6a:8e:fc:73:
                    8f:a5:d0:82:bc:6d:04:53:ad:b2:74:83:98:08:d2:
                    80:55:99:0d:e3:92:cf:45:bf:11:63:92:11:d4:33:
                    a5:6f:ec:64:8b:5a:b1:25:f0:08:0e:13:4a:89:b3:
                    fe:8a:88:09:5c:ff:8b:24:78:42:5f:25:8b:a1:95:
                    75:e8:6f:96:e0:91:82:08:8b:23:f9:13:dd:78:df:
                    dc:a4:6d:96:15:25:69:2a:3c:60:ee:6a:81:08:cc:
                    5c:fb:06:b9:6e:5e:55:29:e1:46:e9:34:51:70:83:
                    a6:0c:5c:eb:a1:2b:89:fd:5a:3d:12:71:aa:fa:3c:
                    72:57:ce:9e:fd:6e:82:ce:28:8c:65:e8:8c:be:04:
                    25:34:e5
                Exponent: 65537 (0x10001)
        X509v3 extensions:
            X509v3 Basic Constraints: 
                CA:FALSE
            Netscape Comment: 
                Easy-RSA Generated Certificate
            X509v3 Subject Key Identifier: 
                56:A0:87:9F:5E:06:3B:9E:CE:7C:F7:4B:ED:09:13:64:EB:BB:6F:0A
            X509v3 Authority Key Identifier: 
                keyid:12:CD:60:04:D2:A0:80:9E:70:ED:C6:99:B8:7B:2C:C6:52:FD:19:A1
                DirName:/C=US/ST=OH/L=Columbus/O=VikingVPN/OU=MyOrganizationalUnit/CN=VikingVPN CA/name=EasyRSA/emailAddress=me@myhost.mydomain
                serial:CF:35:85:EE:80:BF:2A:3E

            X509v3 Extended Key Usage: 
                TLS Web Client Authentication
            X509v3 Key Usage: 
                Digital Signature
    Signature Algorithm: sha256WithRSAEncryption
         80:a3:b3:4a:65:05:63:1a:38:31:e3:3c:b4:ad:49:83:58:42:
         18:f0:de:d4:8e:d9:e9:e8:5f:d4:c6:41:12:97:a8:36:7a:6c:
         c3:78:a7:00:34:18:61:23:a8:96:38:bf:85:03:59:e8:2d:96:
         95:7c:25:05:af:11:64:45:79:06:96:8f:a5:a5:2d:d4:73:99:
         cb:80:0f:6d:6e:e2:44:0b:97:88:a0:fe:c5:03:85:74:fe:fd:
         30:04:8a:58:86:a8:d6:da:cc:19:13:21:91:b6:46:41:39:e8:
         4f:10:53:95:1b:ca:95:81:cc:61:71:d5:30:74:9f:e9:c4:e5:
         35:2e:f6:2f:ec:44:07:b2:66:27:8e:6a:1e:80:55:2e:bd:3a:
         c5:20:34:d3:96:07:38:c1:b6:3b:32:fa:1f:fd:1e:9b:8a:68:
         4f:73:87:0e:4b:30:4d:cb:79:4a:73:9b:4c:f7:bb:28:0a:7f:
         e9:b8:be:3f:a1:8b:c5:23:2f:ce:82:d0:ad:48:07:6c:ab:8e:
         c1:c9:80:b7:ff:d2:8b:c8:98:9a:12:03:e5:ae:dc:ca:f0:f7:
         38:18:d4:8b:7d:a0:d7:46:ba:68:31:4e:16:50:fe:5d:1a:c2:
         ba:35:c7:de:96:d1:b3:94:cb:a0:21:85:dd:c6:59:62:41:00:
         11:7c:4d:12:a0:f6:e6:29:1e:63:fc:e3:75:64:96:5e:3c:d0:
         4c:95:37:ee:55:4b:39:0c:9a:b5:01:d4:8b:a0:ed:67:08:f2:
         20:cd:df:dd:fc:89:46:8f:9a:91:0e:cc:f6:99:b1:c4:bf:24:
         44:6a:05:de:9d:e8:ef:41:a5:45:7d:f4:20:e1:a4:25:08:d9:
         f1:0a:eb:c7:36:ef:ff:f0:ff:0c:c8:af:34:e5:57:40:31:85:
         07:1b:98:66:2f:ae:01:84:97:b1:0a:e3:af:74:a4:5c:aa:88:
         dc:13:47:b7:08:35:e2:c2:37:25:22:e3:a8:2b:57:6f:df:a2:
         e0:13:ec:46:b9:52:05:80:12:fc:aa:79:fb:73:1f:31:43:b0:
         1a:89:8d:f9:0d:03:fd:15:b9:cb:a1:78:83:28:b5:5e:e7:ee:
         48:94:52:15:f7:fe:17:45:9c:0e:36:67:91:76:de:90:d5:00:
         af:90:6b:90:55:76:e3:b9:0e:59:ce:96:06:0c:3d:70:d7:48:
         4c:42:b0:a0:4b:e7:05:78:4a:49:76:bb:2f:8b:4a:3a:87:bb:
         26:9b:f8:18:5a:5d:09:66:f2:bc:42:c5:e9:d4:d3:2e:21:5a:
         80:38:d1:5c:97:74:5b:e3:fc:21:b0:b6:94:17:6d:c0:2d:e3:
         99:64:8e:30:e8:c7:12:d1
-----BEGIN CERTIFICATE-----
MIIGrTCCBJWgAwIBAgICMqIwDQYJKoZIhvcNAQELBQAwgawxCzAJBgNVBAYTAlVT
MQswCQYDVQQIEwJPSDERMA8GA1UEBxMIQ29sdW1idXMxEjAQBgNVBAoTCVZpa2lu
Z1ZQTjEdMBsGA1UECxMUTXlPcmdhbml6YXRpb25hbFVuaXQxFTATBgNVBAMTDFZp
a2luZ1ZQTiBDQTEQMA4GA1UEKRMHRWFzeVJTQTEhMB8GCSqGSIb3DQEJARYSbWVA
bXlob3N0Lm15ZG9tYWluMB4XDTE4MDQxMTEzMTQxMVoXDTI4MDQwODEzMTQxMVow
HzEdMBsGA1UEAxMUQ2xpZW50MjcyNkNlcnQ3ZWM0OTEwggIiMA0GCSqGSIb3DQEB
AQUAA4ICDwAwggIKAoICAQDkpc+MCOiutXFFMlWvvywt2Yr9I9HoP0cY4aift6xx
pm6awQGIhLDwqhldO3TLqQUFjPQrIiGEcwBZaGnPgSTgl37wwYw9Ay7AMICqLGOC
6FA3+VuCHBfWXGc8ELv+IFbUpsANHtOBAHfA5lMLjMDDAfCuxsWWIELTaElBWBO7
z4wjdZh66IrraEmXajZcAMzkE/2gn1Zd5UyVl98VAAkakNXfyAb7m6zTuHJLxSkD
jbPeyHkBU/83v+JUPeXnOh2UOI1VKJZu2IvitYpS0idm9LFVV3NWXw5iCWSGMSxE
Lv357Pd212CVcJNoZDCH1LXrbrUkMiP5VvE6JwBkDTc0mI/JG2jRBsULLuSofwJZ
fgJXnGt4IsbFFqsVZEfSDSw2yXsHhAGpuzp9eWICiYqrKuHMLRqj231m5vXMUQy8
GMSbZ0Vt6k84JMpLKBD/XiTDgBgEOd7mLzEU8Btd57cKAH5u5laC0Ljoxg3w4Mg1
Jq30ao78c4+l0IK8bQRTrbJ0g5gI0oBVmQ3jks9FvxFjkhHUM6Vv7GSLWrEl8AgO
E0qJs/6KiAlc/4skeEJfJYuhlXXob5bgkYIIiyP5E91439ykbZYVJWkqPGDuaoEI
zFz7BrluXlUp4UbpNFFwg6YMXOuhK4n9Wj0Scar6PHJXzp79boLOKIxl6Iy+BCU0
5QIDAQABo4IBYzCCAV8wCQYDVR0TBAIwADAtBglghkgBhvhCAQ0EIBYeRWFzeS1S
U0EgR2VuZXJhdGVkIENlcnRpZmljYXRlMB0GA1UdDgQWBBRWoIefXgY7ns5890vt
CRNk67tvCjCB4QYDVR0jBIHZMIHWgBQSzWAE0qCAnnDtxpm4eyzGUv0ZoaGBsqSB
rzCBrDELMAkGA1UEBhMCVVMxCzAJBgNVBAgTAk9IMREwDwYDVQQHEwhDb2x1bWJ1
czESMBAGA1UEChMJVmlraW5nVlBOMR0wGwYDVQQLExRNeU9yZ2FuaXphdGlvbmFs
VW5pdDEVMBMGA1UEAxMMVmlraW5nVlBOIENBMRAwDgYDVQQpEwdFYXN5UlNBMSEw
HwYJKoZIhvcNAQkBFhJtZUBteWhvc3QubXlkb21haW6CCQDPNYXugL8qPjATBgNV
HSUEDDAKBggrBgEFBQcDAjALBgNVHQ8EBAMCB4AwDQYJKoZIhvcNAQELBQADggIB
AICjs0plBWMaODHjPLStSYNYQhjw3tSO2enoX9TGQRKXqDZ6bMN4pwA0GGEjqJY4
v4UDWegtlpV8JQWvEWRFeQaWj6WlLdRzmcuAD21u4kQLl4ig/sUDhXT+/TAEiliG
qNbazBkTIZG2RkE56E8QU5UbypWBzGFx1TB0n+nE5TUu9i/sRAeyZieOah6AVS69
OsUgNNOWBzjBtjsy+h/9HpuKaE9zhw5LME3LeUpzm0z3uygKf+m4vj+hi8UjL86C
0K1IB2yrjsHJgLf/0ovImJoSA+Wu3Mrw9zgY1It9oNdGumgxThZQ/l0awro1x96W
0bOUy6Ahhd3GWWJBABF8TRKg9uYpHmP843Vkll480EyVN+5VSzkMmrUB1Iug7WcI
8iDN3938iUaPmpEOzPaZscS/JERqBd6d6O9BpUV99CDhpCUI2fEK68c27//w/wzI
rzTlV0AxhQcbmGYvrgGEl7EK4690pFyqiNwTR7cINeLCNyUi46grV2/fouAT7Ea5
UgWAEvyqeftzHzFDsBqJjfkNA/0VucuheIMotV7n7kiUUhX3/hdFnA42Z5F23pDV
AK+Qa5BVduO5DlnOlgYMPXDXSExCsKBL5wV4Skl2uy+LSjqHuyab+BhaXQlm8rxC
xenU0y4hWoA40VyXdFvj/CGwtpQXbcAt45lkjjDoxxLR
-----END CERTIFICATE-----
