Certificate:
    Data:
        Version: 3 (0x2)
        Serial Number: 5965 (0x174d)
    Signature Algorithm: md5WithRSAEncryption
        Issuer: C=US, ST=OH, L=Columbus, O=VikingVPN, OU=MyOrganizationalUnit, CN=VikingVPN CA/name=EasyRSA/emailAddress=me@myhost.mydomain
        Validity
            Not Before: Aug  3 16:18:28 2015 GMT
            Not After : Jul 31 16:18:28 2025 GMT
        Subject: CN=Client1878Cert5ec9e8
        Subject Public Key Info:
            Public Key Algorithm: rsaEncryption
                Public-Key: (4096 bit)
                Modulus:
                    00:c9:8d:01:5b:11:cf:bc:65:21:97:82:09:8e:1d:
                    83:f7:eb:67:5d:e5:64:b2:06:85:64:84:a3:a3:e6:
                    d7:15:6c:28:9f:87:fe:e3:13:c8:6c:62:e4:be:12:
                    49:f7:7d:5d:3f:16:89:17:7c:fa:f8:a5:9c:36:a4:
                    f0:91:47:79:c6:ed:ef:0d:54:d0:d2:db:75:6b:26:
                    a4:cc:fc:cc:ad:eb:fc:8e:71:51:f4:d5:f2:47:35:
                    65:b3:dc:56:fc:21:dd:8a:a1:a4:03:f2:0e:a2:c6:
                    7b:b0:5a:d8:c9:b9:da:10:80:33:56:87:f4:b9:7a:
                    16:93:1a:c7:7f:ef:b0:9d:88:b4:81:90:af:1f:41:
                    6b:85:d0:da:cc:29:5d:c9:9b:cc:55:26:24:b5:ef:
                    9f:25:b1:f3:b7:71:05:6c:ef:37:5d:55:7d:b9:15:
                    5c:5f:43:11:fb:08:7d:9f:d9:3d:05:a3:2c:4f:62:
                    c0:d1:b7:4b:ce:22:97:6d:02:c1:45:71:32:b8:8c:
                    1b:87:ba:aa:bb:08:39:07:82:c4:50:6d:ab:da:91:
                    cb:ff:3f:17:c2:b7:be:8d:43:d4:96:5b:fa:6f:da:
                    cf:39:59:27:47:5e:32:b7:eb:91:d9:f5:aa:28:b9:
                    a0:be:10:24:4a:21:0b:53:e2:c6:75:c7:d2:a8:61:
                    fe:4b:bd:48:cb:80:48:22:1b:cd:97:75:53:fc:e7:
                    4a:88:a7:48:b2:05:dc:53:67:15:84:2e:1f:9e:43:
                    9d:02:74:d6:66:d4:66:8d:84:b7:44:80:d1:0f:03:
                    ec:52:9a:78:81:04:ab:c5:bf:e7:03:20:01:bb:75:
                    47:a1:ed:ae:e5:bc:a3:9a:c3:c8:80:6a:b4:d4:0e:
                    08:3b:78:a4:92:2f:6f:39:d2:90:7e:f2:99:a6:c5:
                    de:3c:6a:24:fa:1f:d1:b9:9f:4b:64:14:6d:df:0d:
                    09:ba:e0:ae:89:0c:1f:61:4c:96:46:9a:a8:46:d0:
                    a8:4d:05:3c:2f:39:20:6a:15:d9:85:4e:a7:ea:c6:
                    cc:82:be:0e:e9:22:e0:53:99:31:69:49:9b:39:d2:
                    d5:f2:7c:c0:9a:e4:36:2f:dd:6d:86:a3:8f:e8:6e:
                    71:33:73:97:2c:59:aa:7a:7e:d8:53:59:4a:73:7e:
                    2c:32:00:07:7e:f5:33:2c:b3:5d:4c:e5:8e:34:4f:
                    a3:ad:d7:d2:b5:1c:85:89:d6:8b:81:10:c5:ba:5b:
                    4e:cc:e2:91:9f:72:a4:3d:46:2d:6a:a1:38:90:38:
                    da:f7:92:ab:a0:80:30:13:22:79:07:d8:2d:cd:3a:
                    0a:e9:8e:a9:49:5a:09:83:81:29:85:c1:c7:d0:e1:
                    eb:68:e7
                Exponent: 65537 (0x10001)
        X509v3 extensions:
            X509v3 Basic Constraints: 
                CA:FALSE
            Netscape Comment: 
                Easy-RSA Generated Certificate
            X509v3 Subject Key Identifier: 
                5B:E0:94:6F:5C:13:74:86:D2:13:03:20:91:B1:47:BD:72:A1:A4:9A
            X509v3 Authority Key Identifier: 
                keyid:12:CD:60:04:D2:A0:80:9E:70:ED:C6:99:B8:7B:2C:C6:52:FD:19:A1
                DirName:/C=US/ST=OH/L=Columbus/O=VikingVPN/OU=MyOrganizationalUnit/CN=VikingVPN CA/name=EasyRSA/emailAddress=me@myhost.mydomain
                serial:CF:35:85:EE:80:BF:2A:3E

            X509v3 Extended Key Usage: 
                TLS Web Client Authentication
            X509v3 Key Usage: 
                Digital Signature
    Signature Algorithm: md5WithRSAEncryption
         96:99:c3:c9:ce:9f:7b:e2:d4:b2:c7:67:fa:51:4c:27:96:c0:
         5c:40:97:31:60:b3:d5:b6:96:7e:d7:1f:1e:26:11:20:cd:93:
         d8:8d:ee:97:f5:f1:d5:65:c3:d3:a8:6f:9b:76:c4:76:d4:2a:
         43:cb:78:74:aa:0d:68:ba:27:93:7c:e3:1e:e5:91:d3:52:b3:
         9c:d4:6b:63:58:b3:1c:1e:e9:cb:2f:03:6f:3b:65:3a:f3:40:
         f8:7c:40:01:5f:87:39:69:a6:55:b5:f9:3b:df:6c:3c:61:5e:
         ca:c4:e9:51:52:6d:26:37:dc:95:57:04:46:9a:22:96:49:60:
         7f:0c:ff:12:c3:80:19:82:eb:84:ea:89:ff:61:91:88:a8:ad:
         f8:1c:0c:56:83:b4:a5:83:0d:d7:53:fa:4b:d8:89:80:bf:36:
         c0:34:3d:4c:16:ca:4e:ba:de:a0:c1:f8:2a:9a:3c:0a:05:cb:
         7a:07:7f:e5:0f:98:00:74:0b:98:6b:9b:29:e6:85:88:02:d5:
         3d:07:3d:c9:3a:32:61:ae:9c:c3:7a:f8:44:49:d8:32:20:55:
         58:90:b5:a0:d9:35:fc:dc:e8:39:41:b6:cc:05:2d:70:1d:a9:
         b5:54:ff:cd:64:5c:d0:0a:93:87:97:24:a4:b5:96:84:53:db:
         05:a8:38:20:75:ca:ca:e1:c6:63:c9:b3:9d:90:ed:26:ec:e7:
         96:28:0a:68:5c:ab:56:aa:ab:f3:40:d2:de:68:5b:78:1a:3d:
         1f:1b:7f:d9:1d:b8:16:cc:1f:ca:d0:79:e7:7d:13:12:45:d4:
         9f:c0:7f:a9:cc:3c:8d:fb:c5:df:03:da:9b:23:79:38:63:4a:
         60:fa:eb:37:fd:d1:ac:c0:ce:01:db:2b:bb:9f:21:fd:e7:42:
         68:9c:49:24:d1:14:d8:d3:c4:9f:26:7b:57:fd:8e:9a:16:4b:
         af:f9:a2:70:56:10:61:60:ad:42:bd:05:d0:bc:48:0d:c7:11:
         28:bf:f4:83:df:6e:9e:f4:d9:78:27:17:68:1c:70:a8:47:6e:
         e7:f3:3d:8a:33:63:84:e1:d4:ca:41:8e:ae:45:63:9c:f7:cc:
         1e:02:a2:09:56:3b:3f:a5:d2:8d:53:28:b2:75:a7:88:60:3d:
         f6:54:76:e6:bf:30:f5:43:0b:71:4b:52:74:90:01:ad:f5:bd:
         fb:ae:1a:82:0a:09:fd:77:17:1f:84:8a:95:9d:9a:bd:12:4d:
         85:5f:14:38:8f:50:07:1c:66:ce:06:f5:60:66:20:a9:36:d2:
         73:62:4c:83:76:68:b9:fd:1d:b0:0e:4c:07:19:37:11:8f:df:
         2d:92:72:64:03:15:51:2f
-----BEGIN CERTIFICATE-----
MIIGrTCCBJWgAwIBAgICF00wDQYJKoZIhvcNAQEEBQAwgawxCzAJBgNVBAYTAlVT
MQswCQYDVQQIEwJPSDERMA8GA1UEBxMIQ29sdW1idXMxEjAQBgNVBAoTCVZpa2lu
Z1ZQTjEdMBsGA1UECxMUTXlPcmdhbml6YXRpb25hbFVuaXQxFTATBgNVBAMTDFZp
a2luZ1ZQTiBDQTEQMA4GA1UEKRMHRWFzeVJTQTEhMB8GCSqGSIb3DQEJARYSbWVA
bXlob3N0Lm15ZG9tYWluMB4XDTE1MDgwMzE2MTgyOFoXDTI1MDczMTE2MTgyOFow
HzEdMBsGA1UEAxMUQ2xpZW50MTg3OENlcnQ1ZWM5ZTgwggIiMA0GCSqGSIb3DQEB
AQUAA4ICDwAwggIKAoICAQDJjQFbEc+8ZSGXggmOHYP362dd5WSyBoVkhKOj5tcV
bCifh/7jE8hsYuS+Ekn3fV0/FokXfPr4pZw2pPCRR3nG7e8NVNDS23VrJqTM/Myt
6/yOcVH01fJHNWWz3Fb8Id2KoaQD8g6ixnuwWtjJudoQgDNWh/S5ehaTGsd/77Cd
iLSBkK8fQWuF0NrMKV3Jm8xVJiS1758lsfO3cQVs7zddVX25FVxfQxH7CH2f2T0F
oyxPYsDRt0vOIpdtAsFFcTK4jBuHuqq7CDkHgsRQbavakcv/PxfCt76NQ9SWW/pv
2s85WSdHXjK365HZ9aoouaC+ECRKIQtT4sZ1x9KoYf5LvUjLgEgiG82XdVP850qI
p0iyBdxTZxWELh+eQ50CdNZm1GaNhLdEgNEPA+xSmniBBKvFv+cDIAG7dUeh7a7l
vKOaw8iAarTUDgg7eKSSL2850pB+8pmmxd48aiT6H9G5n0tkFG3fDQm64K6JDB9h
TJZGmqhG0KhNBTwvOSBqFdmFTqfqxsyCvg7pIuBTmTFpSZs50tXyfMCa5DYv3W2G
o4/obnEzc5csWap6fthTWUpzfiwyAAd+9TMss11M5Y40T6Ot19K1HIWJ1ouBEMW6
W07M4pGfcqQ9Ri1qoTiQONr3kquggDATInkH2C3NOgrpjqlJWgmDgSmFwcfQ4eto
5wIDAQABo4IBYzCCAV8wCQYDVR0TBAIwADAtBglghkgBhvhCAQ0EIBYeRWFzeS1S
U0EgR2VuZXJhdGVkIENlcnRpZmljYXRlMB0GA1UdDgQWBBRb4JRvXBN0htITAyCR
sUe9cqGkmjCB4QYDVR0jBIHZMIHWgBQSzWAE0qCAnnDtxpm4eyzGUv0ZoaGBsqSB
rzCBrDELMAkGA1UEBhMCVVMxCzAJBgNVBAgTAk9IMREwDwYDVQQHEwhDb2x1bWJ1
czESMBAGA1UEChMJVmlraW5nVlBOMR0wGwYDVQQLExRNeU9yZ2FuaXphdGlvbmFs
VW5pdDEVMBMGA1UEAxMMVmlraW5nVlBOIENBMRAwDgYDVQQpEwdFYXN5UlNBMSEw
HwYJKoZIhvcNAQkBFhJtZUBteWhvc3QubXlkb21haW6CCQDPNYXugL8qPjATBgNV
HSUEDDAKBggrBgEFBQcDAjALBgNVHQ8EBAMCB4AwDQYJKoZIhvcNAQEEBQADggIB
AJaZw8nOn3vi1LLHZ/pRTCeWwFxAlzFgs9W2ln7XHx4mESDNk9iN7pf18dVlw9Oo
b5t2xHbUKkPLeHSqDWi6J5N84x7lkdNSs5zUa2NYsxwe6csvA287ZTrzQPh8QAFf
hzlpplW1+TvfbDxhXsrE6VFSbSY33JVXBEaaIpZJYH8M/xLDgBmC64Tqif9hkYio
rfgcDFaDtKWDDddT+kvYiYC/NsA0PUwWyk663qDB+CqaPAoFy3oHf+UPmAB0C5hr
mynmhYgC1T0HPck6MmGunMN6+ERJ2DIgVViQtaDZNfzc6DlBtswFLXAdqbVU/81k
XNAKk4eXJKS1loRT2wWoOCB1ysrhxmPJs52Q7Sbs55YoCmhcq1aqq/NA0t5oW3ga
PR8bf9kduBbMH8rQeed9ExJF1J/Af6nMPI37xd8D2psjeThjSmD66zf90azAzgHb
K7ufIf3nQmicSSTRFNjTxJ8me1f9jpoWS6/5onBWEGFgrUK9BdC8SA3HESi/9IPf
bp702XgnF2gccKhHbufzPYozY4Th1MpBjq5FY5z3zB4CoglWOz+l0o1TKLJ1p4hg
PfZUdua/MPVDC3FLUnSQAa31vfuuGoIKCf13Fx+EipWdmr0STYVfFDiPUAccZs4G
9WBmIKk20nNiTIN2aLn9HbAOTAcZNxGP3y2ScmQDFVEv
-----END CERTIFICATE-----
