Certificate:
    Data:
        Version: 3 (0x2)
        Serial Number: 2923 (0xb6b)
    Signature Algorithm: md5WithRSAEncryption
        Issuer: C=US, ST=OH, L=Columbus, O=VikingVPN, OU=MyOrganizationalUnit, CN=VikingVPN CA/name=EasyRSA/emailAddress=me@myhost.mydomain
        Validity
            Not Before: Sep 22 14:27:46 2014 GMT
            Not After : Sep 19 14:27:46 2024 GMT
        Subject: CN=Client1000Certb53268
        Subject Public Key Info:
            Public Key Algorithm: rsaEncryption
                Public-Key: (4096 bit)
                Modulus:
                    00:df:77:67:0d:19:7d:58:69:f3:4d:6d:f0:32:4c:
                    40:71:54:05:02:a2:5e:03:32:09:ee:cc:8f:b8:39:
                    3d:97:c4:30:ac:8c:d5:77:37:b4:54:39:89:a2:a5:
                    0b:bd:b5:d9:e9:82:4b:79:86:43:9b:ac:2c:59:87:
                    7f:69:a6:9c:ca:41:eb:7d:eb:cb:fe:7c:d5:a2:0a:
                    b4:d2:90:89:e7:db:1f:eb:3d:70:8a:e0:81:35:f9:
                    4d:09:6f:c4:ff:89:9e:80:83:61:fa:85:3d:04:ed:
                    cc:12:d0:34:c6:ba:9a:2e:1a:f5:99:91:14:c4:9b:
                    fd:20:56:8d:3f:f1:a9:79:4d:ef:e3:40:d4:c8:d0:
                    3a:3b:4c:e3:b3:bd:69:72:52:89:d8:ef:ad:a5:e7:
                    f0:0e:57:1e:bb:ab:89:9d:66:f0:bd:23:d4:d7:4f:
                    e7:d3:85:db:8f:5e:81:3c:db:b8:13:f7:de:09:00:
                    40:bb:ce:83:a8:86:98:68:92:9d:45:11:6d:62:44:
                    ec:62:e3:31:c3:4e:62:9d:8e:4d:34:1a:ff:be:de:
                    f0:a1:72:79:3c:d8:64:3a:dd:69:c0:bc:e9:30:5a:
                    d2:3e:45:60:28:41:e0:05:c1:ad:fc:c2:fa:2e:f3:
                    bc:41:2e:53:47:b8:ab:2b:ee:c0:a3:14:9a:07:3a:
                    3b:56:6d:c7:eb:25:9d:19:93:09:b7:b1:53:68:05:
                    cc:76:7b:9d:8d:d1:44:83:95:a9:3e:25:15:1b:de:
                    1d:86:4d:3b:ec:17:1d:fc:e1:be:54:4f:bf:da:11:
                    26:07:ed:b6:16:a6:3a:36:c7:bb:d9:5f:23:a0:07:
                    34:7c:7f:d3:db:f6:e4:07:c3:e8:23:8f:bf:ef:7a:
                    a1:81:1e:22:23:5d:db:15:5d:49:49:3a:a8:c5:0a:
                    f3:43:8a:eb:7c:21:2b:f2:33:e6:a8:e8:e7:a9:96:
                    69:4b:4e:2a:87:26:cc:85:c9:f0:e4:6d:0e:00:69:
                    6f:e7:b2:a0:92:d1:6c:07:13:03:e0:2a:73:27:53:
                    5e:f2:b9:63:d9:1c:36:e4:29:68:8c:15:43:08:d7:
                    a4:3e:ee:e4:23:b6:be:e1:7d:6a:34:72:29:a0:47:
                    59:5a:46:8f:ea:5f:37:cd:44:4e:cd:96:ec:75:b4:
                    67:f3:29:6f:2d:1d:a7:14:fc:45:ca:6b:05:7a:73:
                    17:6b:5c:bd:5f:02:e5:28:5e:ba:e5:65:87:03:01:
                    02:dd:65:29:d1:27:51:cc:04:aa:8b:f1:05:ec:97:
                    a9:b5:46:a1:49:58:44:15:6a:37:d0:2b:86:5d:01:
                    69:e1:f7:99:0c:f9:92:0b:83:cd:ca:b9:82:5a:5f:
                    bb:a6:8f
                Exponent: 65537 (0x10001)
        X509v3 extensions:
            X509v3 Basic Constraints: 
                CA:FALSE
            Netscape Comment: 
                Easy-RSA Generated Certificate
            X509v3 Subject Key Identifier: 
                13:19:6A:2C:08:41:2E:1E:60:0E:28:7B:57:BF:AE:9A:57:4D:75:02
            X509v3 Authority Key Identifier: 
                keyid:12:CD:60:04:D2:A0:80:9E:70:ED:C6:99:B8:7B:2C:C6:52:FD:19:A1
                DirName:/C=US/ST=OH/L=Columbus/O=VikingVPN/OU=MyOrganizationalUnit/CN=VikingVPN CA/name=EasyRSA/emailAddress=me@myhost.mydomain
                serial:CF:35:85:EE:80:BF:2A:3E

            X509v3 Extended Key Usage: 
                TLS Web Client Authentication
            X509v3 Key Usage: 
                Digital Signature
    Signature Algorithm: md5WithRSAEncryption
         c7:2c:62:06:10:2f:8b:2e:94:bd:fb:b4:62:45:34:87:0e:a9:
         28:50:ed:29:fd:b1:50:75:7e:1f:55:f7:a5:28:f3:63:b9:f1:
         ff:fc:90:33:66:2c:7a:5b:34:81:8c:e0:e5:1f:50:df:98:7e:
         43:3e:35:b9:5a:22:3e:38:6d:f1:66:17:82:b0:5c:2b:a6:55:
         17:52:e0:f6:61:5f:f2:f2:57:7c:fe:32:5b:d3:ed:6f:8a:60:
         a7:ad:f8:6d:50:32:98:d8:d8:9a:3b:a3:a8:19:52:60:fc:12:
         7f:31:dd:af:da:64:ae:e4:e1:ff:e0:1c:fe:74:ff:6e:d8:b5:
         29:c5:16:74:21:be:1a:45:ca:fb:63:c6:0d:af:85:ed:e3:11:
         21:9d:66:14:fd:f3:d9:00:9f:26:23:45:97:40:d8:95:4e:1e:
         2d:24:f1:e5:af:8c:7c:19:27:2d:04:1b:12:e8:cc:f3:71:5d:
         ae:90:56:a8:50:31:bc:20:4f:4b:96:08:28:4d:35:f8:bd:ca:
         9a:29:47:b5:96:7f:f0:51:8e:34:75:d5:09:b1:16:44:d8:93:
         c2:c4:6a:8b:10:40:09:ea:f7:22:14:97:4d:66:52:37:fe:ec:
         71:6f:ba:ac:05:fd:91:77:d2:14:92:3c:90:7f:35:62:93:26:
         ca:ed:c4:d8:04:6a:5e:9c:4d:27:18:67:62:44:c0:30:a5:39:
         15:d3:32:60:27:45:f4:95:ec:00:f5:fa:bf:d4:63:d5:79:3e:
         44:ac:82:80:bc:a1:94:49:d2:25:ba:8b:7c:6f:c3:fb:17:ef:
         84:14:ac:ef:a4:47:e1:a6:a6:ed:19:b2:d2:60:e7:bb:81:d1:
         36:2b:84:48:44:3e:5e:bc:38:ea:ef:b8:07:0b:e0:30:5a:94:
         73:11:59:5d:8b:a8:5d:5d:18:ba:93:d5:5a:be:9b:fa:40:03:
         bb:11:9b:8a:33:14:7f:f8:62:c1:14:68:8a:96:42:b2:e1:c5:
         b6:51:05:77:bd:24:a5:66:fe:70:9e:07:e0:e6:ac:e8:6d:b8:
         2d:a9:3b:a7:45:d0:e0:90:ee:91:c5:d5:1a:6c:e1:8a:24:85:
         d0:80:22:de:2c:52:a1:c4:0f:7e:1e:71:dc:83:9e:f7:9e:ec:
         a8:9c:ea:c6:15:de:4c:6b:29:42:5e:83:17:b8:cc:a5:35:aa:
         c7:ba:69:7b:87:45:1a:e8:26:cb:9d:1d:63:be:63:ff:3e:76:
         88:1d:7d:d2:0f:04:53:9a:f3:0d:d3:92:a0:3f:bd:05:03:a6:
         14:25:3c:37:5a:5d:0b:7d:cf:0e:bd:c6:58:59:26:ae:6f:ae:
         aa:6e:f9:ef:8e:4e:93:55
-----BEGIN CERTIFICATE-----
MIIGrTCCBJWgAwIBAgICC2swDQYJKoZIhvcNAQEEBQAwgawxCzAJBgNVBAYTAlVT
MQswCQYDVQQIEwJPSDERMA8GA1UEBxMIQ29sdW1idXMxEjAQBgNVBAoTCVZpa2lu
Z1ZQTjEdMBsGA1UECxMUTXlPcmdhbml6YXRpb25hbFVuaXQxFTATBgNVBAMTDFZp
a2luZ1ZQTiBDQTEQMA4GA1UEKRMHRWFzeVJTQTEhMB8GCSqGSIb3DQEJARYSbWVA
bXlob3N0Lm15ZG9tYWluMB4XDTE0MDkyMjE0Mjc0NloXDTI0MDkxOTE0Mjc0Nlow
HzEdMBsGA1UEAxMUQ2xpZW50MTAwMENlcnRiNTMyNjgwggIiMA0GCSqGSIb3DQEB
AQUAA4ICDwAwggIKAoICAQDfd2cNGX1YafNNbfAyTEBxVAUCol4DMgnuzI+4OT2X
xDCsjNV3N7RUOYmipQu9tdnpgkt5hkObrCxZh39pppzKQet968v+fNWiCrTSkInn
2x/rPXCK4IE1+U0Jb8T/iZ6Ag2H6hT0E7cwS0DTGupouGvWZkRTEm/0gVo0/8al5
Te/jQNTI0Do7TOOzvWlyUonY762l5/AOVx67q4mdZvC9I9TXT+fThduPXoE827gT
994JAEC7zoOohphokp1FEW1iROxi4zHDTmKdjk00Gv++3vChcnk82GQ63WnAvOkw
WtI+RWAoQeAFwa38wvou87xBLlNHuKsr7sCjFJoHOjtWbcfrJZ0Zkwm3sVNoBcx2
e52N0USDlak+JRUb3h2GTTvsFx384b5UT7/aESYH7bYWpjo2x7vZXyOgBzR8f9Pb
9uQHw+gjj7/veqGBHiIjXdsVXUlJOqjFCvNDiut8ISvyM+ao6OeplmlLTiqHJsyF
yfDkbQ4AaW/nsqCS0WwHEwPgKnMnU17yuWPZHDbkKWiMFUMI16Q+7uQjtr7hfWo0
cimgR1laRo/qXzfNRE7Nlux1tGfzKW8tHacU/EXKawV6cxdrXL1fAuUoXrrlZYcD
AQLdZSnRJ1HMBKqL8QXsl6m1RqFJWEQVajfQK4ZdAWnh95kM+ZILg83KuYJaX7um
jwIDAQABo4IBYzCCAV8wCQYDVR0TBAIwADAtBglghkgBhvhCAQ0EIBYeRWFzeS1S
U0EgR2VuZXJhdGVkIENlcnRpZmljYXRlMB0GA1UdDgQWBBQTGWosCEEuHmAOKHtX
v66aV011AjCB4QYDVR0jBIHZMIHWgBQSzWAE0qCAnnDtxpm4eyzGUv0ZoaGBsqSB
rzCBrDELMAkGA1UEBhMCVVMxCzAJBgNVBAgTAk9IMREwDwYDVQQHEwhDb2x1bWJ1
czESMBAGA1UEChMJVmlraW5nVlBOMR0wGwYDVQQLExRNeU9yZ2FuaXphdGlvbmFs
VW5pdDEVMBMGA1UEAxMMVmlraW5nVlBOIENBMRAwDgYDVQQpEwdFYXN5UlNBMSEw
HwYJKoZIhvcNAQkBFhJtZUBteWhvc3QubXlkb21haW6CCQDPNYXugL8qPjATBgNV
HSUEDDAKBggrBgEFBQcDAjALBgNVHQ8EBAMCB4AwDQYJKoZIhvcNAQEEBQADggIB
AMcsYgYQL4sulL37tGJFNIcOqShQ7Sn9sVB1fh9V96Uo82O58f/8kDNmLHpbNIGM
4OUfUN+YfkM+NblaIj44bfFmF4KwXCumVRdS4PZhX/LyV3z+MlvT7W+KYKet+G1Q
MpjY2Jo7o6gZUmD8En8x3a/aZK7k4f/gHP50/27YtSnFFnQhvhpFyvtjxg2vhe3j
ESGdZhT989kAnyYjRZdA2JVOHi0k8eWvjHwZJy0EGxLozPNxXa6QVqhQMbwgT0uW
CChNNfi9ypopR7WWf/BRjjR11QmxFkTYk8LEaosQQAnq9yIUl01mUjf+7HFvuqwF
/ZF30hSSPJB/NWKTJsrtxNgEal6cTScYZ2JEwDClORXTMmAnRfSV7AD1+r/UY9V5
PkSsgoC8oZRJ0iW6i3xvw/sX74QUrO+kR+Gmpu0ZstJg57uB0TYrhEhEPl68OOrv
uAcL4DBalHMRWV2LqF1dGLqT1Vq+m/pAA7sRm4ozFH/4YsEUaIqWQrLhxbZRBXe9
JKVm/nCeB+DmrOhtuC2pO6dF0OCQ7pHF1Rps4YokhdCAIt4sUqHED34ecdyDnvee
7Kic6sYV3kxrKUJegxe4zKU1qse6aXuHRRroJsudHWO+Y/8+dogdfdIPBFOa8w3T
kqA/vQUDphQlPDdaXQt9zw69xlhZJq5vrqpu+e+OTpNV
-----END CERTIFICATE-----
