Certificate:
    Data:
        Version: 3 (0x2)
        Serial Number: 6846 (0x1abe)
    Signature Algorithm: md5WithRSAEncryption
        Issuer: C=US, ST=OH, L=Columbus, O=VikingVPN, OU=MyOrganizationalUnit, CN=VikingVPN CA/name=EasyRSA/emailAddress=me@myhost.mydomain
        Validity
            Not Before: Dec  4 18:34:49 2015 GMT
            Not After : Dec  1 18:34:49 2025 GMT
        Subject: CN=Client644Certab3d76
        Subject Public Key Info:
            Public Key Algorithm: rsaEncryption
                Public-Key: (4096 bit)
                Modulus:
                    00:ce:dc:76:ab:3d:6e:49:db:66:21:41:18:0f:87:
                    45:24:1b:84:82:35:32:86:4f:c3:36:63:cc:15:68:
                    86:f1:13:ac:83:ec:d2:da:8b:db:d1:b3:f8:5a:3f:
                    d8:07:60:b2:b8:31:31:ab:07:4e:2e:c1:60:b4:b3:
                    44:cf:b3:25:06:2c:3a:39:b3:af:b3:2c:08:55:15:
                    27:4e:54:e5:06:39:86:6a:de:17:31:04:52:dc:04:
                    14:0a:b7:49:18:7f:46:d5:56:94:6d:a1:21:fd:ec:
                    89:a2:a9:69:65:8b:7a:e7:dd:35:f4:64:62:eb:16:
                    ad:9e:fa:3b:c0:b8:37:00:63:54:0f:41:01:d4:98:
                    0d:b5:ff:15:e0:dc:59:67:06:a7:83:5e:19:1a:6c:
                    d9:22:3e:c4:a7:71:f8:54:a9:2e:57:04:5e:f4:24:
                    f4:bd:f9:be:e1:c7:2e:02:64:74:b1:c4:c6:92:e9:
                    c5:9a:de:00:14:7f:ae:0c:e3:d3:2c:6b:93:9a:64:
                    b4:59:df:07:51:c3:c8:f3:ca:de:c1:74:2e:37:08:
                    72:f2:fb:1f:6b:29:d5:3b:62:a4:fd:15:3e:d1:ad:
                    cb:e6:9b:92:a6:61:67:d1:bd:a7:69:ca:23:3c:19:
                    3c:6b:61:0d:d4:e3:92:c2:90:c7:61:a2:97:f4:db:
                    a0:42:f3:89:42:99:71:01:84:2d:fc:3f:90:f1:d3:
                    0b:24:75:5c:73:e5:00:ad:31:cf:ee:d7:80:b7:e7:
                    6a:87:34:88:35:72:81:95:c9:7b:c6:f8:b6:c8:07:
                    a1:b0:91:44:d2:8a:27:a6:03:e4:12:23:35:8c:ef:
                    a8:43:05:29:40:34:ce:16:ee:6d:55:37:99:99:4f:
                    5b:19:11:76:53:4c:7f:4c:bc:ea:3d:44:d3:69:f7:
                    e8:ce:b3:26:38:d3:98:fd:38:f4:36:79:7b:a5:97:
                    4a:45:13:9c:f4:34:78:82:f5:cb:3e:be:d8:1a:ce:
                    47:3c:19:ca:41:d6:25:e0:1f:84:46:57:15:08:95:
                    3e:68:bf:c2:21:f6:fe:a3:62:df:55:1f:5d:cb:a4:
                    7e:58:94:d4:8b:21:25:a5:10:3d:26:ee:3c:a9:b0:
                    15:74:7a:0b:bf:a9:74:05:0c:44:07:07:65:67:2b:
                    bd:f8:03:3a:ce:15:48:7a:07:9d:2f:77:1e:d4:d5:
                    3e:fe:29:fb:03:b5:1b:67:7c:d0:64:d2:e5:49:9d:
                    d9:14:b6:49:ff:e2:6c:a5:2b:ac:d2:a0:51:2d:db:
                    9c:e5:47:d0:5f:f7:68:bb:4a:7b:54:8c:64:37:91:
                    a1:0a:29:36:64:51:4b:79:c2:a3:07:55:06:1b:a8:
                    28:a6:c3
                Exponent: 65537 (0x10001)
        X509v3 extensions:
            X509v3 Basic Constraints: 
                CA:FALSE
            Netscape Comment: 
                Easy-RSA Generated Certificate
            X509v3 Subject Key Identifier: 
                F8:01:C4:F6:C8:7A:3C:4F:5E:91:3A:33:49:7F:C7:D0:45:E0:48:0D
            X509v3 Authority Key Identifier: 
                keyid:12:CD:60:04:D2:A0:80:9E:70:ED:C6:99:B8:7B:2C:C6:52:FD:19:A1
                DirName:/C=US/ST=OH/L=Columbus/O=VikingVPN/OU=MyOrganizationalUnit/CN=VikingVPN CA/name=EasyRSA/emailAddress=me@myhost.mydomain
                serial:CF:35:85:EE:80:BF:2A:3E

            X509v3 Extended Key Usage: 
                TLS Web Client Authentication
            X509v3 Key Usage: 
                Digital Signature
    Signature Algorithm: md5WithRSAEncryption
         d8:48:da:8a:42:c5:fd:9a:7a:fc:45:46:ee:aa:22:af:ef:3b:
         62:aa:d3:49:7a:9d:4a:2f:5e:40:f5:1d:ff:c6:8c:26:ba:5d:
         06:4c:14:46:78:a6:2c:4e:c3:21:6d:70:a2:09:d3:70:ab:92:
         19:50:9d:cd:db:26:2c:9c:04:f3:21:bb:e1:85:49:45:18:dd:
         d5:ba:2d:7d:6e:69:31:73:fc:48:66:be:06:ca:2f:c9:2a:0f:
         9c:68:5b:7e:6c:5d:ec:dc:01:a9:8c:4e:b2:9a:aa:7b:8f:f2:
         a1:01:3d:df:3a:5f:b5:df:f8:76:41:44:2f:16:36:ea:da:25:
         f0:ea:45:88:3c:b6:9e:bc:5e:8b:7e:93:0a:18:df:40:b6:99:
         c5:5b:40:fa:f5:97:dc:ca:26:2a:37:7e:cb:0d:5c:7b:ec:17:
         36:d1:f9:d2:ea:ab:a8:a7:ca:8b:11:12:6b:bc:42:99:d5:6b:
         1e:01:66:27:c4:af:75:3c:b5:37:2b:3b:42:72:18:c9:6a:3a:
         63:cb:ae:75:8b:8a:99:13:89:50:c4:9b:29:38:41:b9:d6:b2:
         b1:4b:90:0f:57:d2:d5:29:71:4f:80:49:dc:dd:36:15:3b:91:
         b4:1c:30:ad:9f:9b:3b:1a:c1:73:53:ff:f9:5b:84:0a:11:6a:
         ef:5e:f6:76:4d:a8:46:04:63:54:eb:3f:34:e8:53:57:d5:f2:
         99:ec:fd:f0:a1:c7:d0:08:d3:24:7f:64:38:89:08:1d:a1:fb:
         76:70:f3:0d:33:93:35:a1:a6:e3:3b:06:c6:15:70:c1:0d:fc:
         01:4f:fb:cd:c8:94:da:60:f1:b9:9d:2b:e9:be:60:0f:df:15:
         c9:04:ed:66:72:06:60:76:4a:88:72:82:2f:db:d4:d5:1c:b8:
         1d:05:c1:86:4a:cc:19:c8:a6:f0:d5:73:ab:5a:d4:98:a6:59:
         0b:d1:31:40:f5:cc:10:6a:e3:b8:49:33:db:12:68:31:f3:23:
         3c:56:7f:3e:46:ff:c1:77:71:37:19:5b:75:76:92:cb:31:15:
         35:be:99:c2:2f:b7:43:2f:fb:bd:9a:73:70:29:fe:77:02:e8:
         c1:4a:ea:ed:34:91:20:87:20:02:7b:f1:07:29:5a:f4:85:1b:
         e7:36:a0:fb:89:70:af:a0:d3:aa:64:a6:86:ac:ab:b9:64:be:
         55:d4:32:b3:f1:a7:c4:84:2f:c8:7d:fc:2d:a9:64:bb:15:05:
         f4:0e:da:84:79:00:8e:26:b4:bf:0e:1a:41:16:c8:33:0c:a7:
         73:57:c7:39:ca:28:64:56:ad:eb:e7:c8:62:cb:ba:bf:93:e0:
         63:79:a0:ab:11:f3:d8:58
-----BEGIN CERTIFICATE-----
MIIGrDCCBJSgAwIBAgICGr4wDQYJKoZIhvcNAQEEBQAwgawxCzAJBgNVBAYTAlVT
MQswCQYDVQQIEwJPSDERMA8GA1UEBxMIQ29sdW1idXMxEjAQBgNVBAoTCVZpa2lu
Z1ZQTjEdMBsGA1UECxMUTXlPcmdhbml6YXRpb25hbFVuaXQxFTATBgNVBAMTDFZp
a2luZ1ZQTiBDQTEQMA4GA1UEKRMHRWFzeVJTQTEhMB8GCSqGSIb3DQEJARYSbWVA
bXlob3N0Lm15ZG9tYWluMB4XDTE1MTIwNDE4MzQ0OVoXDTI1MTIwMTE4MzQ0OVow
HjEcMBoGA1UEAxMTQ2xpZW50NjQ0Q2VydGFiM2Q3NjCCAiIwDQYJKoZIhvcNAQEB
BQADggIPADCCAgoCggIBAM7cdqs9bknbZiFBGA+HRSQbhII1MoZPwzZjzBVohvET
rIPs0tqL29Gz+Fo/2AdgsrgxMasHTi7BYLSzRM+zJQYsOjmzr7MsCFUVJ05U5QY5
hmreFzEEUtwEFAq3SRh/RtVWlG2hIf3siaKpaWWLeufdNfRkYusWrZ76O8C4NwBj
VA9BAdSYDbX/FeDcWWcGp4NeGRps2SI+xKdx+FSpLlcEXvQk9L35vuHHLgJkdLHE
xpLpxZreABR/rgzj0yxrk5pktFnfB1HDyPPK3sF0LjcIcvL7H2sp1TtipP0VPtGt
y+abkqZhZ9G9p2nKIzwZPGthDdTjksKQx2Gil/TboELziUKZcQGELfw/kPHTCyR1
XHPlAK0xz+7XgLfnaoc0iDVygZXJe8b4tsgHobCRRNKKJ6YD5BIjNYzvqEMFKUA0
zhbubVU3mZlPWxkRdlNMf0y86j1E02n36M6zJjjTmP049DZ5e6WXSkUTnPQ0eIL1
yz6+2BrORzwZykHWJeAfhEZXFQiVPmi/wiH2/qNi31UfXcukfliU1IshJaUQPSbu
PKmwFXR6C7+pdAUMRAcHZWcrvfgDOs4VSHoHnS93HtTVPv4p+wO1G2d80GTS5Umd
2RS2Sf/ibKUrrNKgUS3bnOVH0F/3aLtKe1SMZDeRoQopNmRRS3nCowdVBhuoKKbD
AgMBAAGjggFjMIIBXzAJBgNVHRMEAjAAMC0GCWCGSAGG+EIBDQQgFh5FYXN5LVJT
QSBHZW5lcmF0ZWQgQ2VydGlmaWNhdGUwHQYDVR0OBBYEFPgBxPbIejxPXpE6M0l/
x9BF4EgNMIHhBgNVHSMEgdkwgdaAFBLNYATSoICecO3Gmbh7LMZS/RmhoYGypIGv
MIGsMQswCQYDVQQGEwJVUzELMAkGA1UECBMCT0gxETAPBgNVBAcTCENvbHVtYnVz
MRIwEAYDVQQKEwlWaWtpbmdWUE4xHTAbBgNVBAsTFE15T3JnYW5pemF0aW9uYWxV
bml0MRUwEwYDVQQDEwxWaWtpbmdWUE4gQ0ExEDAOBgNVBCkTB0Vhc3lSU0ExITAf
BgkqhkiG9w0BCQEWEm1lQG15aG9zdC5teWRvbWFpboIJAM81he6Avyo+MBMGA1Ud
JQQMMAoGCCsGAQUFBwMCMAsGA1UdDwQEAwIHgDANBgkqhkiG9w0BAQQFAAOCAgEA
2EjaikLF/Zp6/EVG7qoir+87YqrTSXqdSi9eQPUd/8aMJrpdBkwURnimLE7DIW1w
ognTcKuSGVCdzdsmLJwE8yG74YVJRRjd1botfW5pMXP8SGa+BsovySoPnGhbfmxd
7NwBqYxOspqqe4/yoQE93zpftd/4dkFELxY26tol8OpFiDy2nrxei36TChjfQLaZ
xVtA+vWX3MomKjd+yw1ce+wXNtH50uqrqKfKixESa7xCmdVrHgFmJ8SvdTy1Nys7
QnIYyWo6Y8uudYuKmROJUMSbKThBudaysUuQD1fS1SlxT4BJ3N02FTuRtBwwrZ+b
OxrBc1P/+VuEChFq7172dk2oRgRjVOs/NOhTV9Xymez98KHH0AjTJH9kOIkIHaH7
dnDzDTOTNaGm4zsGxhVwwQ38AU/7zciU2mDxuZ0r6b5gD98VyQTtZnIGYHZKiHKC
L9vU1Ry4HQXBhkrMGcim8NVzq1rUmKZZC9ExQPXMEGrjuEkz2xJoMfMjPFZ/Pkb/
wXdxNxlbdXaSyzEVNb6Zwi+3Qy/7vZpzcCn+dwLowUrq7TSRIIcgAnvxByla9IUb
5zag+4lwr6DTqmSmhqyruWS+VdQys/GnxIQvyH38LalkuxUF9A7ahHkAjia0vw4a
QRbIMwync1fHOcooZFat6+fIYsu6v5PgY3mgqxHz2Fg=
-----END CERTIFICATE-----
