Certificate:
    Data:
        Version: 3 (0x2)
        Serial Number: 11058 (0x2b32)
    Signature Algorithm: sha256WithRSAEncryption
        Issuer: C=US, ST=OH, L=Columbus, O=VikingVPN, OU=MyOrganizationalUnit, CN=VikingVPN CA/name=EasyRSA/emailAddress=me@myhost.mydomain
        Validity
            Not Before: Jun  1 13:50:48 2017 GMT
            Not After : May 30 13:50:48 2027 GMT
        Subject: CN=Client2935Certffafc2
        Subject Public Key Info:
            Public Key Algorithm: rsaEncryption
                Public-Key: (4096 bit)
                Modulus:
                    00:e5:22:16:6c:ca:1a:10:a6:c2:81:a8:de:97:b3:
                    de:d4:2a:27:40:37:72:0b:e2:8b:3b:9e:d6:82:50:
                    38:81:5c:55:02:a1:00:21:27:1a:66:03:a2:4d:c8:
                    f0:fe:7a:3b:50:5a:69:2a:6f:cb:40:55:f9:ce:b4:
                    4f:a2:c7:0d:5d:e5:e2:c1:a5:06:fb:43:ed:26:b0:
                    a2:89:ab:2f:c8:bb:91:45:01:10:76:45:05:5e:89:
                    16:56:bb:d1:29:cd:5c:b8:4f:68:9a:1b:13:6b:2c:
                    3e:61:28:60:d2:43:5b:36:1f:91:e1:bc:a9:8b:a6:
                    70:8c:19:f2:14:ce:31:9d:97:e7:67:7d:d7:6e:61:
                    7a:f3:ed:32:05:fb:cd:5c:bb:33:02:ab:15:58:8d:
                    c8:85:05:04:59:56:ce:a0:e5:25:02:ca:57:13:0c:
                    92:0a:b5:89:ca:f8:64:9c:f7:99:29:35:50:f7:b2:
                    d0:8d:2b:66:02:10:25:91:6c:bb:7f:2e:4f:3a:47:
                    9a:95:cf:ca:7b:9a:c4:51:89:e5:4e:36:d0:10:58:
                    df:a7:ec:62:62:00:7c:33:0b:0a:5e:6d:a3:b5:b1:
                    05:e5:78:02:a5:4f:04:d1:f2:35:26:d5:bd:21:61:
                    37:5e:91:fd:66:95:85:67:ca:ac:64:b0:91:5f:26:
                    1b:53:d9:7e:4c:f5:60:ce:d8:48:f0:60:7f:b3:de:
                    c3:56:05:e0:53:f4:62:51:9f:97:d9:fe:63:df:ba:
                    6c:3a:68:c1:e5:80:98:d5:82:7f:c5:4f:b0:6c:95:
                    82:e5:55:9a:1d:1b:57:a5:7c:41:2d:d9:8a:18:27:
                    05:73:af:a9:ef:2b:23:00:9d:cd:3c:76:0e:52:1a:
                    a2:7f:59:eb:86:26:bf:8c:9c:4d:7c:e0:ae:2b:0e:
                    22:0b:45:ce:ac:a9:b8:7b:3b:8b:db:e4:7c:a1:6b:
                    3d:7b:4b:a2:10:d1:be:50:33:66:79:3c:95:c0:07:
                    2d:cb:ac:41:4b:1c:a2:af:38:9a:c5:a7:7d:94:ba:
                    9b:dc:e0:96:c5:b9:c3:51:6c:a5:63:45:a0:fb:14:
                    2d:35:0e:2a:fc:33:87:70:27:0c:01:b4:e9:e0:99:
                    86:5c:91:45:0b:ca:6e:b7:23:28:46:db:ea:05:16:
                    22:51:b7:82:00:cc:0f:bb:ab:0f:47:ba:37:59:1a:
                    40:a8:09:c1:96:51:79:ec:1a:bc:51:51:76:65:0b:
                    1e:a5:e9:49:aa:5d:42:3c:0f:88:e2:0d:de:12:2b:
                    3a:8c:ff:32:e1:32:f8:c5:80:73:e1:b9:5d:cc:f9:
                    37:ad:44:05:6b:be:03:6e:6e:8d:c8:32:50:29:1d:
                    23:de:55
                Exponent: 65537 (0x10001)
        X509v3 extensions:
            X509v3 Basic Constraints: 
                CA:FALSE
            Netscape Comment: 
                Easy-RSA Generated Certificate
            X509v3 Subject Key Identifier: 
                4D:62:DA:00:BA:26:58:EE:DA:CC:7E:EC:CA:F3:52:4B:05:04:91:27
            X509v3 Authority Key Identifier: 
                keyid:12:CD:60:04:D2:A0:80:9E:70:ED:C6:99:B8:7B:2C:C6:52:FD:19:A1
                DirName:/C=US/ST=OH/L=Columbus/O=VikingVPN/OU=MyOrganizationalUnit/CN=VikingVPN CA/name=EasyRSA/emailAddress=me@myhost.mydomain
                serial:CF:35:85:EE:80:BF:2A:3E

            X509v3 Extended Key Usage: 
                TLS Web Client Authentication
            X509v3 Key Usage: 
                Digital Signature
    Signature Algorithm: sha256WithRSAEncryption
         df:0b:84:f8:c6:dc:08:4f:2c:fc:55:95:68:38:31:64:85:61:
         0e:60:b5:50:6c:45:6d:e3:94:e7:fd:8f:a3:68:a4:63:78:8e:
         55:9e:f1:b8:0a:59:7a:4b:09:fc:50:ef:7b:bb:3b:9c:3b:ff:
         bb:4e:af:d1:aa:71:50:26:46:3b:c5:3f:b4:2d:98:16:56:00:
         9c:ad:f6:bd:14:57:57:13:1c:2f:78:91:24:31:ae:bb:e1:63:
         d5:fb:5f:bf:9a:e3:15:76:56:24:0c:d3:b5:36:e7:1d:27:66:
         5d:b6:d1:ce:2e:f8:d8:0f:cc:a1:d6:f6:39:2d:06:e8:12:c4:
         c6:9a:ce:59:3a:11:fd:38:9e:44:c3:f7:8d:16:10:4b:79:27:
         75:61:4f:f5:87:d2:23:72:81:cd:ce:08:a8:a2:c8:c8:2c:22:
         01:2e:5e:a2:26:89:9f:05:ef:5f:d7:00:bb:79:e5:3c:f2:b4:
         2a:8f:13:e8:7b:d2:0c:cb:08:fd:4c:8b:39:0d:03:a8:2a:7f:
         10:34:33:d7:6d:c7:f9:a1:eb:43:fd:2f:63:d5:2a:82:cf:41:
         82:b9:c0:9d:dd:d8:2e:4b:1e:76:5a:ae:86:04:f8:1e:43:1d:
         e6:74:69:87:79:cc:79:8b:fb:ca:0c:08:df:27:bd:4b:d2:da:
         c4:61:0c:be:7c:2e:cd:6a:cb:03:c1:b4:97:de:49:8d:27:4b:
         2f:21:a4:80:bf:a1:13:04:cf:e4:6f:ef:69:35:fd:65:9a:48:
         67:17:56:a7:cb:d4:db:24:03:64:e6:b8:e4:ec:98:03:88:45:
         2a:01:61:1a:58:40:d0:35:bb:25:a7:83:a4:24:af:79:2c:d1:
         89:f0:b1:b1:cd:38:64:11:ed:72:dd:b0:da:f5:5a:16:d1:53:
         83:1e:44:8e:33:83:a4:14:f3:f9:13:57:37:28:27:24:87:1a:
         33:e6:fc:75:84:b7:b0:9f:75:f1:13:20:87:00:70:cb:77:93:
         52:70:b5:d6:01:be:5d:03:a9:7e:53:da:5e:e8:78:48:ec:4a:
         2e:bc:e7:8c:7f:de:1d:88:e8:85:eb:78:4d:75:0e:ce:ba:61:
         63:3b:27:26:9f:e7:99:07:2a:dd:2b:ea:f4:09:f3:44:44:e1:
         93:6e:3d:f9:4a:bb:cf:74:01:e9:12:1e:46:50:52:e3:c1:77:
         c1:7c:ff:3e:8c:09:d2:54:6e:e5:17:1b:98:a1:45:96:37:03:
         e4:73:6b:0e:c6:88:83:87:db:94:a0:9b:38:c7:c6:ae:28:f0:
         59:e5:6e:8e:59:89:2d:7e:51:4c:3b:22:b2:70:21:21:c4:88:
         35:e6:c4:1d:17:96:d1:1c
-----BEGIN CERTIFICATE-----
MIIGrTCCBJWgAwIBAgICKzIwDQYJKoZIhvcNAQELBQAwgawxCzAJBgNVBAYTAlVT
MQswCQYDVQQIEwJPSDERMA8GA1UEBxMIQ29sdW1idXMxEjAQBgNVBAoTCVZpa2lu
Z1ZQTjEdMBsGA1UECxMUTXlPcmdhbml6YXRpb25hbFVuaXQxFTATBgNVBAMTDFZp
a2luZ1ZQTiBDQTEQMA4GA1UEKRMHRWFzeVJTQTEhMB8GCSqGSIb3DQEJARYSbWVA
bXlob3N0Lm15ZG9tYWluMB4XDTE3MDYwMTEzNTA0OFoXDTI3MDUzMDEzNTA0OFow
HzEdMBsGA1UEAxMUQ2xpZW50MjkzNUNlcnRmZmFmYzIwggIiMA0GCSqGSIb3DQEB
AQUAA4ICDwAwggIKAoICAQDlIhZsyhoQpsKBqN6Xs97UKidAN3IL4os7ntaCUDiB
XFUCoQAhJxpmA6JNyPD+ejtQWmkqb8tAVfnOtE+ixw1d5eLBpQb7Q+0msKKJqy/I
u5FFARB2RQVeiRZWu9EpzVy4T2iaGxNrLD5hKGDSQ1s2H5HhvKmLpnCMGfIUzjGd
l+dnfdduYXrz7TIF+81cuzMCqxVYjciFBQRZVs6g5SUCylcTDJIKtYnK+GSc95kp
NVD3stCNK2YCECWRbLt/Lk86R5qVz8p7msRRieVONtAQWN+n7GJiAHwzCwpebaO1
sQXleAKlTwTR8jUm1b0hYTdekf1mlYVnyqxksJFfJhtT2X5M9WDO2EjwYH+z3sNW
BeBT9GJRn5fZ/mPfumw6aMHlgJjVgn/FT7BslYLlVZodG1elfEEt2YoYJwVzr6nv
KyMAnc08dg5SGqJ/WeuGJr+MnE184K4rDiILRc6sqbh7O4vb5Hyhaz17S6IQ0b5Q
M2Z5PJXABy3LrEFLHKKvOJrFp32Uupvc4JbFucNRbKVjRaD7FC01Dir8M4dwJwwB
tOngmYZckUULym63IyhG2+oFFiJRt4IAzA+7qw9HujdZGkCoCcGWUXnsGrxRUXZl
Cx6l6UmqXUI8D4jiDd4SKzqM/zLhMvjFgHPhuV3M+TetRAVrvgNubo3IMlApHSPe
VQIDAQABo4IBYzCCAV8wCQYDVR0TBAIwADAtBglghkgBhvhCAQ0EIBYeRWFzeS1S
U0EgR2VuZXJhdGVkIENlcnRpZmljYXRlMB0GA1UdDgQWBBRNYtoAuiZY7trMfuzK
81JLBQSRJzCB4QYDVR0jBIHZMIHWgBQSzWAE0qCAnnDtxpm4eyzGUv0ZoaGBsqSB
rzCBrDELMAkGA1UEBhMCVVMxCzAJBgNVBAgTAk9IMREwDwYDVQQHEwhDb2x1bWJ1
czESMBAGA1UEChMJVmlraW5nVlBOMR0wGwYDVQQLExRNeU9yZ2FuaXphdGlvbmFs
VW5pdDEVMBMGA1UEAxMMVmlraW5nVlBOIENBMRAwDgYDVQQpEwdFYXN5UlNBMSEw
HwYJKoZIhvcNAQkBFhJtZUBteWhvc3QubXlkb21haW6CCQDPNYXugL8qPjATBgNV
HSUEDDAKBggrBgEFBQcDAjALBgNVHQ8EBAMCB4AwDQYJKoZIhvcNAQELBQADggIB
AN8LhPjG3AhPLPxVlWg4MWSFYQ5gtVBsRW3jlOf9j6NopGN4jlWe8bgKWXpLCfxQ
73u7O5w7/7tOr9GqcVAmRjvFP7QtmBZWAJyt9r0UV1cTHC94kSQxrrvhY9X7X7+a
4xV2ViQM07U25x0nZl220c4u+NgPzKHW9jktBugSxMaazlk6Ef04nkTD940WEEt5
J3VhT/WH0iNygc3OCKiiyMgsIgEuXqImiZ8F71/XALt55TzytCqPE+h70gzLCP1M
izkNA6gqfxA0M9dtx/mh60P9L2PVKoLPQYK5wJ3d2C5LHnZaroYE+B5DHeZ0aYd5
zHmL+8oMCN8nvUvS2sRhDL58Ls1qywPBtJfeSY0nSy8hpIC/oRMEz+Rv72k1/WWa
SGcXVqfL1NskA2TmuOTsmAOIRSoBYRpYQNA1uyWng6Qkr3ks0YnwsbHNOGQR7XLd
sNr1WhbRU4MeRI4zg6QU8/kTVzcoJySHGjPm/HWEt7CfdfETIIcAcMt3k1JwtdYB
vl0DqX5T2l7oeEjsSi6854x/3h2I6IXreE11Ds66YWM7Jyaf55kHKt0r6vQJ80RE
4ZNuPflKu890AekSHkZQUuPBd8F8/z6MCdJUbuUXG5ihRZY3A+Rzaw7GiIOH25Sg
mzjHxq4o8Fnlbo5ZiS1+UUw7IrJwISHEiDXmxB0XltEc
-----END CERTIFICATE-----
