Certificate:
    Data:
        Version: 3 (0x2)
        Serial Number: 8972 (0x230c)
    Signature Algorithm: sha256WithRSAEncryption
        Issuer: C=US, ST=OH, L=Columbus, O=VikingVPN, OU=MyOrganizationalUnit, CN=VikingVPN CA/name=EasyRSA/emailAddress=me@myhost.mydomain
        Validity
            Not Before: Sep  2 22:45:14 2016 GMT
            Not After : Aug 31 22:45:14 2026 GMT
        Subject: CN=Client1600Cert6f0f4d
        Subject Public Key Info:
            Public Key Algorithm: rsaEncryption
                Public-Key: (4096 bit)
                Modulus:
                    00:c1:7f:2e:73:f8:0a:04:d6:40:b6:f3:92:8e:a4:
                    5b:b6:4d:ec:b4:01:62:8f:86:4d:fc:af:d8:94:ab:
                    ad:3f:2d:e2:f0:cd:18:cf:27:a2:f6:36:55:11:5a:
                    90:1f:07:d4:a8:2d:42:94:4f:6d:3c:3f:63:6c:ec:
                    5a:37:1a:69:20:20:62:6b:58:e7:81:08:07:d9:0f:
                    c9:94:2b:6f:5b:6f:21:fe:ff:48:3a:3d:93:26:58:
                    cd:dd:02:a4:dc:7a:b2:68:a0:0e:69:3f:48:9a:12:
                    83:29:c0:6b:a9:b0:77:b1:71:a3:9b:d9:6e:85:cc:
                    1f:c5:b5:c7:1e:e9:d3:45:5a:9d:f2:44:51:65:80:
                    e8:4d:41:55:35:43:7f:48:58:bf:51:12:7f:67:39:
                    9d:0a:d0:66:be:4d:cf:d7:20:cc:f0:69:0a:3a:e0:
                    ab:99:c8:9b:f2:79:79:9e:3b:2e:96:f2:3c:fc:4d:
                    98:8d:fa:47:2e:fa:8c:06:e4:ee:d8:a2:71:f9:27:
                    78:a1:68:f3:9e:a1:88:77:45:31:3b:37:0f:32:af:
                    bd:8c:12:c9:9f:b0:2e:78:1d:3a:3e:2a:cf:13:f7:
                    83:c6:52:18:f9:67:88:9f:61:26:be:78:3f:4d:75:
                    c6:f0:9a:82:4e:0b:d9:39:d2:8e:49:14:9b:5d:12:
                    e3:68:04:b1:68:65:d3:eb:79:af:82:eb:78:76:e1:
                    cb:a3:2f:ce:ce:46:c2:64:04:3e:fc:c6:fc:f3:3b:
                    fd:38:c8:1a:12:26:0d:2f:d3:40:b0:f7:6b:78:ce:
                    b3:d4:6a:72:b7:9b:3e:cf:58:e2:7e:d1:2d:ca:6e:
                    f2:67:ef:05:ab:88:d6:81:01:c7:aa:ab:e6:64:c1:
                    d0:37:50:4f:8b:82:5c:95:23:9e:e0:0f:4b:2d:a2:
                    ae:09:0d:7c:7a:0b:4c:1d:7f:42:c3:0e:b5:c0:d7:
                    59:02:00:2b:71:2b:79:7a:b0:e0:22:20:92:cd:1e:
                    af:54:11:d9:b7:7b:83:7b:a4:ba:94:88:6d:b8:a1:
                    3e:44:88:f3:98:8c:3e:98:a6:ba:01:68:57:9b:71:
                    a8:2c:c7:9b:86:a0:9c:d0:b7:90:c6:8c:2a:2c:87:
                    f8:78:b2:00:a8:dd:dc:b9:36:64:bf:4c:d5:6b:3f:
                    dd:8d:25:ec:2a:5f:3f:04:13:c3:f2:a9:ae:fe:e2:
                    45:1f:eb:5a:bd:90:73:84:4d:f6:b8:a3:89:31:49:
                    00:f2:d5:78:8c:50:de:05:1c:82:be:93:d1:c9:21:
                    46:0d:88:62:b8:6c:05:35:7d:5d:b3:5c:81:7e:53:
                    1c:5a:e0:6b:a1:87:0e:bd:a4:bd:c0:a8:35:79:7f:
                    87:d4:05
                Exponent: 65537 (0x10001)
        X509v3 extensions:
            X509v3 Basic Constraints: 
                CA:FALSE
            Netscape Comment: 
                Easy-RSA Generated Certificate
            X509v3 Subject Key Identifier: 
                68:8A:12:4F:9F:B2:EE:54:14:4D:C6:70:DC:53:1F:2C:1C:AF:F4:17
            X509v3 Authority Key Identifier: 
                keyid:12:CD:60:04:D2:A0:80:9E:70:ED:C6:99:B8:7B:2C:C6:52:FD:19:A1
                DirName:/C=US/ST=OH/L=Columbus/O=VikingVPN/OU=MyOrganizationalUnit/CN=VikingVPN CA/name=EasyRSA/emailAddress=me@myhost.mydomain
                serial:CF:35:85:EE:80:BF:2A:3E

            X509v3 Extended Key Usage: 
                TLS Web Client Authentication
            X509v3 Key Usage: 
                Digital Signature
    Signature Algorithm: sha256WithRSAEncryption
         4c:f4:2f:80:a2:08:f2:f4:6a:74:1c:0a:80:cc:df:c3:3e:1a:
         12:fa:72:49:a5:39:58:44:13:eb:63:03:32:4d:c6:68:31:71:
         a7:24:fd:c2:3e:98:79:5c:cd:90:07:85:95:d2:a7:af:c1:e8:
         9e:c8:d6:c5:ac:a0:42:d5:c9:e1:ab:52:7a:a2:f3:58:6d:66:
         e6:b1:ee:d4:81:64:13:8d:3a:ba:5f:3b:77:02:ab:06:7b:35:
         6f:52:44:52:9d:6c:4b:e7:89:10:e7:8e:70:ae:06:19:e3:e3:
         f8:93:b0:a7:ec:dd:ad:50:0e:ce:ef:b8:d2:39:b8:d2:a4:b8:
         5f:ba:85:c0:7d:01:e3:03:d1:c9:8b:d1:15:d6:ed:52:dc:2e:
         8a:0a:96:c0:89:cd:89:d2:f2:ec:d1:46:01:51:3a:98:30:21:
         96:2d:9d:fa:65:05:39:e1:9a:97:fb:b2:e9:2d:76:ad:24:21:
         79:df:bc:22:73:a3:cd:cc:62:e6:ca:0d:da:90:90:db:a6:96:
         e5:c0:08:e8:3b:33:5a:6a:27:f8:ce:bf:a8:78:ad:09:c9:ac:
         a0:3e:03:7f:cb:bf:7c:62:b9:bc:d2:00:dc:a8:90:e5:cf:6c:
         e0:54:7d:27:bc:44:e6:19:2b:b9:46:40:b0:67:59:8d:49:d1:
         ce:7a:e2:45:61:9b:5c:73:3e:52:95:80:ba:5f:ca:a5:66:86:
         74:ff:e2:22:18:71:57:ac:78:be:21:46:5d:0b:a3:9a:8a:3a:
         ac:d4:52:75:44:e4:ac:6b:d5:48:e1:9a:3b:cd:f3:86:b4:6b:
         e2:f1:a9:b1:09:3a:9d:24:fe:ce:ae:ce:e1:62:ee:c4:7e:80:
         7b:e4:4c:f9:0c:16:62:d2:d3:ff:77:06:4c:bf:ae:18:15:50:
         db:50:2d:09:9e:40:e8:e7:86:a7:17:8a:8d:f3:07:fe:89:07:
         cc:fd:2b:cd:f3:a6:fc:c4:60:27:53:0b:fc:8b:55:b0:17:3f:
         5e:c8:19:f5:dd:83:2b:4e:0c:23:50:a3:f2:29:8d:19:f5:7b:
         b0:cd:27:8f:9e:0d:d2:7e:6b:91:60:76:bf:ad:c6:b3:1b:52:
         e3:73:69:e8:67:c6:1a:43:92:49:c5:38:20:68:e2:eb:c0:cb:
         27:1f:75:c4:df:32:45:21:75:29:26:3c:bc:7d:45:2f:44:48:
         b8:69:0d:96:52:95:a7:2a:6f:81:68:d3:40:ab:2a:6b:0d:fa:
         ae:38:65:c5:61:9f:1c:0d:87:3a:32:ee:a2:03:b5:90:fb:e9:
         9d:70:92:2c:20:4b:01:52:e9:fa:c1:0e:b3:b2:64:b3:c6:ca:
         78:49:cb:a2:eb:58:3b:53
-----BEGIN CERTIFICATE-----
MIIGrTCCBJWgAwIBAgICIwwwDQYJKoZIhvcNAQELBQAwgawxCzAJBgNVBAYTAlVT
MQswCQYDVQQIEwJPSDERMA8GA1UEBxMIQ29sdW1idXMxEjAQBgNVBAoTCVZpa2lu
Z1ZQTjEdMBsGA1UECxMUTXlPcmdhbml6YXRpb25hbFVuaXQxFTATBgNVBAMTDFZp
a2luZ1ZQTiBDQTEQMA4GA1UEKRMHRWFzeVJTQTEhMB8GCSqGSIb3DQEJARYSbWVA
bXlob3N0Lm15ZG9tYWluMB4XDTE2MDkwMjIyNDUxNFoXDTI2MDgzMTIyNDUxNFow
HzEdMBsGA1UEAxMUQ2xpZW50MTYwMENlcnQ2ZjBmNGQwggIiMA0GCSqGSIb3DQEB
AQUAA4ICDwAwggIKAoICAQDBfy5z+AoE1kC285KOpFu2Tey0AWKPhk38r9iUq60/
LeLwzRjPJ6L2NlURWpAfB9SoLUKUT208P2Ns7Fo3GmkgIGJrWOeBCAfZD8mUK29b
byH+/0g6PZMmWM3dAqTcerJooA5pP0iaEoMpwGupsHexcaOb2W6FzB/Ftcce6dNF
Wp3yRFFlgOhNQVU1Q39IWL9REn9nOZ0K0Ga+Tc/XIMzwaQo64KuZyJvyeXmeOy6W
8jz8TZiN+kcu+owG5O7YonH5J3ihaPOeoYh3RTE7Nw8yr72MEsmfsC54HTo+Ks8T
94PGUhj5Z4ifYSa+eD9NdcbwmoJOC9k50o5JFJtdEuNoBLFoZdPrea+C63h24cuj
L87ORsJkBD78xvzzO/04yBoSJg0v00Cw92t4zrPUanK3mz7PWOJ+0S3KbvJn7wWr
iNaBAceqq+ZkwdA3UE+LglyVI57gD0stoq4JDXx6C0wdf0LDDrXA11kCACtxK3l6
sOAiIJLNHq9UEdm3e4N7pLqUiG24oT5EiPOYjD6YproBaFebcagsx5uGoJzQt5DG
jCosh/h4sgCo3dy5NmS/TNVrP92NJewqXz8EE8Pyqa7+4kUf61q9kHOETfa4o4kx
SQDy1XiMUN4FHIK+k9HJIUYNiGK4bAU1fV2zXIF+Uxxa4Guhhw69pL3AqDV5f4fU
BQIDAQABo4IBYzCCAV8wCQYDVR0TBAIwADAtBglghkgBhvhCAQ0EIBYeRWFzeS1S
U0EgR2VuZXJhdGVkIENlcnRpZmljYXRlMB0GA1UdDgQWBBRoihJPn7LuVBRNxnDc
Ux8sHK/0FzCB4QYDVR0jBIHZMIHWgBQSzWAE0qCAnnDtxpm4eyzGUv0ZoaGBsqSB
rzCBrDELMAkGA1UEBhMCVVMxCzAJBgNVBAgTAk9IMREwDwYDVQQHEwhDb2x1bWJ1
czESMBAGA1UEChMJVmlraW5nVlBOMR0wGwYDVQQLExRNeU9yZ2FuaXphdGlvbmFs
VW5pdDEVMBMGA1UEAxMMVmlraW5nVlBOIENBMRAwDgYDVQQpEwdFYXN5UlNBMSEw
HwYJKoZIhvcNAQkBFhJtZUBteWhvc3QubXlkb21haW6CCQDPNYXugL8qPjATBgNV
HSUEDDAKBggrBgEFBQcDAjALBgNVHQ8EBAMCB4AwDQYJKoZIhvcNAQELBQADggIB
AEz0L4CiCPL0anQcCoDM38M+GhL6ckmlOVhEE+tjAzJNxmgxcack/cI+mHlczZAH
hZXSp6/B6J7I1sWsoELVyeGrUnqi81htZuax7tSBZBONOrpfO3cCqwZ7NW9SRFKd
bEvniRDnjnCuBhnj4/iTsKfs3a1QDs7vuNI5uNKkuF+6hcB9AeMD0cmL0RXW7VLc
LooKlsCJzYnS8uzRRgFROpgwIZYtnfplBTnhmpf7suktdq0kIXnfvCJzo83MYubK
DdqQkNumluXACOg7M1pqJ/jOv6h4rQnJrKA+A3/Lv3xiubzSANyokOXPbOBUfSe8
ROYZK7lGQLBnWY1J0c564kVhm1xzPlKVgLpfyqVmhnT/4iIYcVeseL4hRl0Lo5qK
OqzUUnVE5Kxr1UjhmjvN84a0a+LxqbEJOp0k/s6uzuFi7sR+gHvkTPkMFmLS0/93
Bky/rhgVUNtQLQmeQOjnhqcXio3zB/6JB8z9K83zpvzEYCdTC/yLVbAXP17IGfXd
gytODCNQo/IpjRn1e7DNJ4+eDdJ+a5Fgdr+txrMbUuNzaehnxhpDkknFOCBo4uvA
yycfdcTfMkUhdSkmPLx9RS9ESLhpDZZSlacqb4Fo00CrKmsN+q44ZcVhnxwNhzoy
7qIDtZD76Z1wkiwgSwFS6frBDrOyZLPGynhJy6LrWDtT
-----END CERTIFICATE-----
