Certificate:
    Data:
        Version: 3 (0x2)
        Serial Number: 2059 (0x80b)
    Signature Algorithm: md5WithRSAEncryption
        Issuer: C=US, ST=OH, L=Columbus, O=VikingVPN, OU=MyOrganizationalUnit, CN=VikingVPN CA/name=EasyRSA/emailAddress=me@myhost.mydomain
        Validity
            Not Before: Jun  9 16:19:43 2014 GMT
            Not After : Jun  6 16:19:43 2024 GMT
        Subject: CN=Client718Cert9bead5
        Subject Public Key Info:
            Public Key Algorithm: rsaEncryption
                Public-Key: (4096 bit)
                Modulus:
                    00:c8:ff:75:d7:c8:f0:ca:10:6d:92:53:dc:25:1f:
                    40:cf:f7:fd:b1:6f:ff:d3:9c:58:dc:bd:33:ff:a4:
                    1f:86:74:20:20:0b:fc:98:e8:29:98:c7:93:f6:0e:
                    64:dd:ee:18:4c:80:17:ca:7a:c2:63:91:e1:8d:34:
                    8b:3a:59:e8:f8:c5:3b:29:a2:f1:95:f6:48:fc:a1:
                    d0:76:44:65:f9:c4:5b:73:a9:b9:c8:ab:94:83:ae:
                    9e:09:38:88:e5:77:af:72:1b:c9:18:78:8e:6a:8c:
                    33:b3:d7:54:7e:f3:2f:07:17:a5:22:93:76:86:88:
                    bb:95:1a:00:b1:32:79:f7:5d:c6:31:08:3e:3b:b8:
                    18:45:cb:0c:31:d3:97:32:7e:a1:73:98:81:95:7f:
                    12:04:cc:f7:d8:70:a1:ca:4b:45:e0:50:70:4a:b4:
                    f2:4a:a5:0d:84:53:b5:d2:e8:16:fc:d8:c0:66:ba:
                    56:80:c6:2b:a8:da:df:85:68:05:03:f7:54:34:f2:
                    e0:74:b3:8d:d7:b6:d3:db:cb:c2:4b:93:db:c2:20:
                    db:d2:86:81:9f:2f:c6:cc:41:e7:7d:c9:b7:b1:3c:
                    0a:9b:4d:da:5a:a1:18:ad:fd:c7:1d:7d:a1:db:63:
                    8e:41:19:13:7f:00:ed:8a:df:97:dc:69:28:52:49:
                    40:51:61:2e:8f:8e:34:55:31:e9:e9:f6:5b:b6:b0:
                    9a:3f:7e:27:e0:25:4f:3d:03:cb:b6:2e:90:ac:1a:
                    0c:f6:73:b9:bd:77:93:e2:55:c3:1a:d7:e1:49:8c:
                    f7:52:23:43:4d:2d:a3:0c:0c:62:05:07:85:7b:5d:
                    a5:20:dc:d9:fd:8d:28:ae:c5:df:bb:db:57:de:d9:
                    23:8f:61:40:09:59:65:7e:82:0f:3b:d5:e5:f2:b6:
                    96:d6:22:4b:1a:96:f3:d1:1b:f5:d9:19:ad:1d:4f:
                    a3:c1:3d:8d:a4:e9:1d:0f:e2:97:af:c1:c3:1b:28:
                    f5:5d:46:ac:cc:ac:2d:23:f6:34:bc:13:3e:f2:cc:
                    da:d8:94:c5:87:5a:2a:79:8d:73:ac:35:cc:7f:28:
                    d6:b8:3d:56:9b:c4:f2:38:8a:81:fb:1f:7e:bb:c3:
                    8a:13:d9:bc:dc:fb:a0:f4:42:74:20:76:8e:29:37:
                    75:9a:f5:c0:5b:37:db:64:cf:54:eb:f6:90:7c:ac:
                    19:be:a1:3a:a5:9b:21:8f:13:be:6b:4d:bf:01:06:
                    dc:42:e5:e5:21:dc:55:d6:f0:b0:88:f6:8d:15:a2:
                    9f:63:de:20:0b:ae:00:a6:04:fa:f7:3e:bd:0d:0a:
                    2a:77:38:59:87:46:58:70:e9:80:f4:31:dc:41:61:
                    b4:3d:b9
                Exponent: 65537 (0x10001)
        X509v3 extensions:
            X509v3 Basic Constraints: 
                CA:FALSE
            Netscape Comment: 
                Easy-RSA Generated Certificate
            X509v3 Subject Key Identifier: 
                0F:15:1C:D4:8F:E5:59:5C:5B:A9:8A:31:17:54:AF:A1:E0:A7:97:BC
            X509v3 Authority Key Identifier: 
                keyid:12:CD:60:04:D2:A0:80:9E:70:ED:C6:99:B8:7B:2C:C6:52:FD:19:A1
                DirName:/C=US/ST=OH/L=Columbus/O=VikingVPN/OU=MyOrganizationalUnit/CN=VikingVPN CA/name=EasyRSA/emailAddress=me@myhost.mydomain
                serial:CF:35:85:EE:80:BF:2A:3E

            X509v3 Extended Key Usage: 
                TLS Web Client Authentication
            X509v3 Key Usage: 
                Digital Signature
    Signature Algorithm: md5WithRSAEncryption
         51:15:71:f8:d8:d6:0e:f2:e1:1f:48:a0:c4:c8:d0:67:ea:64:
         bc:eb:bc:26:0e:6f:e1:40:a4:20:13:3c:6f:47:c1:97:d6:84:
         33:fc:b8:58:a5:ed:47:8e:3c:48:85:99:74:3e:fc:65:6d:55:
         d4:e3:b1:c3:1e:43:c3:9a:9d:d5:ae:ba:b9:91:a0:08:71:e3:
         cc:01:7b:df:68:30:7b:da:e1:9f:2b:0e:ae:aa:b6:87:48:43:
         80:68:05:89:df:32:e1:04:b4:21:32:6a:6b:a1:6e:5e:57:c4:
         2f:c5:02:c8:ed:1b:99:7b:da:d3:1d:bd:93:b9:1f:f7:c1:4c:
         88:ef:b5:a9:79:50:ff:19:3e:4d:3c:00:47:db:c9:80:4a:2e:
         43:84:d8:2f:37:bf:73:0a:60:14:e3:eb:b8:e3:02:b8:f1:61:
         1a:62:e7:6c:7d:41:a1:c1:36:88:cf:7d:ed:62:f0:5b:89:30:
         97:c8:54:e7:cb:18:4b:7b:ec:ee:df:d0:fd:39:5f:17:00:07:
         26:6d:67:9a:fa:13:e1:bd:39:e5:4f:ab:7c:16:76:46:0d:6d:
         4b:dd:19:74:e0:c9:db:f2:d9:9e:46:4e:7e:3a:94:9c:78:60:
         be:39:99:bf:ea:1d:6f:6c:0e:1c:44:e7:fa:55:66:eb:fd:31:
         26:16:5d:cb:e0:21:0b:31:cc:3d:f5:d5:ec:a6:51:45:9c:a4:
         62:77:c0:e6:b2:ef:8a:7f:b2:f2:dd:eb:af:19:e1:28:79:2f:
         63:fd:0f:51:b4:bf:a6:bb:ac:72:1f:52:61:2d:8a:56:ee:dc:
         2d:13:dd:aa:82:c6:6f:d2:16:73:4b:7d:33:e5:a9:b3:fb:64:
         0e:a9:ea:23:b3:30:e2:15:b9:87:f0:22:d8:67:ce:78:68:24:
         f7:6d:1e:3d:91:d5:25:fa:f1:e7:aa:f5:ae:22:a7:f7:56:e1:
         0f:f0:33:c1:d0:d7:9d:ee:42:26:0a:35:b3:d8:cc:b0:89:47:
         85:fd:06:44:52:1c:81:1c:54:ae:91:08:c0:dc:fb:d7:a2:21:
         29:d9:17:69:15:22:9c:b7:77:aa:81:db:1a:c0:5e:26:fc:ea:
         0e:f9:50:61:79:15:b5:b9:48:a7:c6:b8:d4:3f:87:7c:df:3d:
         d9:a6:d5:3c:80:64:19:86:5a:8b:b9:60:b5:61:25:4b:64:0d:
         15:59:30:00:b9:4f:18:7c:16:dd:00:23:5e:9d:92:b3:43:d0:
         c4:60:c7:42:5d:64:fa:9c:7f:6f:f6:2c:92:2d:39:33:17:3b:
         ae:f9:2f:6b:7d:b9:79:90:9f:25:ba:a6:84:36:4a:bf:77:de:
         5a:5a:c2:31:a9:d2:bb:0e
-----BEGIN CERTIFICATE-----
MIIGrDCCBJSgAwIBAgICCAswDQYJKoZIhvcNAQEEBQAwgawxCzAJBgNVBAYTAlVT
MQswCQYDVQQIEwJPSDERMA8GA1UEBxMIQ29sdW1idXMxEjAQBgNVBAoTCVZpa2lu
Z1ZQTjEdMBsGA1UECxMUTXlPcmdhbml6YXRpb25hbFVuaXQxFTATBgNVBAMTDFZp
a2luZ1ZQTiBDQTEQMA4GA1UEKRMHRWFzeVJTQTEhMB8GCSqGSIb3DQEJARYSbWVA
bXlob3N0Lm15ZG9tYWluMB4XDTE0MDYwOTE2MTk0M1oXDTI0MDYwNjE2MTk0M1ow
HjEcMBoGA1UEAxMTQ2xpZW50NzE4Q2VydDliZWFkNTCCAiIwDQYJKoZIhvcNAQEB
BQADggIPADCCAgoCggIBAMj/ddfI8MoQbZJT3CUfQM/3/bFv/9OcWNy9M/+kH4Z0
ICAL/JjoKZjHk/YOZN3uGEyAF8p6wmOR4Y00izpZ6PjFOymi8ZX2SPyh0HZEZfnE
W3OpucirlIOungk4iOV3r3IbyRh4jmqMM7PXVH7zLwcXpSKTdoaIu5UaALEyefdd
xjEIPju4GEXLDDHTlzJ+oXOYgZV/EgTM99hwocpLReBQcEq08kqlDYRTtdLoFvzY
wGa6VoDGK6ja34VoBQP3VDTy4HSzjde209vLwkuT28Ig29KGgZ8vxsxB533Jt7E8
CptN2lqhGK39xx19odtjjkEZE38A7Yrfl9xpKFJJQFFhLo+ONFUx6en2W7awmj9+
J+AlTz0Dy7YukKwaDPZzub13k+JVwxrX4UmM91IjQ00towwMYgUHhXtdpSDc2f2N
KK7F37vbV97ZI49hQAlZZX6CDzvV5fK2ltYiSxqW89Eb9dkZrR1Po8E9jaTpHQ/i
l6/Bwxso9V1GrMysLSP2NLwTPvLM2tiUxYdaKnmNc6w1zH8o1rg9VpvE8jiKgfsf
frvDihPZvNz7oPRCdCB2jik3dZr1wFs322TPVOv2kHysGb6hOqWbIY8TvmtNvwEG
3ELl5SHcVdbwsIj2jRWin2PeIAuuAKYE+vc+vQ0KKnc4WYdGWHDpgPQx3EFhtD25
AgMBAAGjggFjMIIBXzAJBgNVHRMEAjAAMC0GCWCGSAGG+EIBDQQgFh5FYXN5LVJT
QSBHZW5lcmF0ZWQgQ2VydGlmaWNhdGUwHQYDVR0OBBYEFA8VHNSP5VlcW6mKMRdU
r6Hgp5e8MIHhBgNVHSMEgdkwgdaAFBLNYATSoICecO3Gmbh7LMZS/RmhoYGypIGv
MIGsMQswCQYDVQQGEwJVUzELMAkGA1UECBMCT0gxETAPBgNVBAcTCENvbHVtYnVz
MRIwEAYDVQQKEwlWaWtpbmdWUE4xHTAbBgNVBAsTFE15T3JnYW5pemF0aW9uYWxV
bml0MRUwEwYDVQQDEwxWaWtpbmdWUE4gQ0ExEDAOBgNVBCkTB0Vhc3lSU0ExITAf
BgkqhkiG9w0BCQEWEm1lQG15aG9zdC5teWRvbWFpboIJAM81he6Avyo+MBMGA1Ud
JQQMMAoGCCsGAQUFBwMCMAsGA1UdDwQEAwIHgDANBgkqhkiG9w0BAQQFAAOCAgEA
URVx+NjWDvLhH0igxMjQZ+pkvOu8Jg5v4UCkIBM8b0fBl9aEM/y4WKXtR448SIWZ
dD78ZW1V1OOxwx5Dw5qd1a66uZGgCHHjzAF732gwe9rhnysOrqq2h0hDgGgFid8y
4QS0ITJqa6FuXlfEL8UCyO0bmXva0x29k7kf98FMiO+1qXlQ/xk+TTwAR9vJgEou
Q4TYLze/cwpgFOPruOMCuPFhGmLnbH1BocE2iM997WLwW4kwl8hU58sYS3vs7t/Q
/TlfFwAHJm1nmvoT4b055U+rfBZ2Rg1tS90ZdODJ2/LZnkZOfjqUnHhgvjmZv+od
b2wOHETn+lVm6/0xJhZdy+AhCzHMPfXV7KZRRZykYnfA5rLvin+y8t3rrxnhKHkv
Y/0PUbS/prusch9SYS2KVu7cLRPdqoLGb9IWc0t9M+Wps/tkDqnqI7Mw4hW5h/Ai
2GfOeGgk920ePZHVJfrx56r1riKn91bhD/AzwdDXne5CJgo1s9jMsIlHhf0GRFIc
gRxUrpEIwNz716IhKdkXaRUinLd3qoHbGsBeJvzqDvlQYXkVtblIp8a41D+HfN89
2abVPIBkGYZai7lgtWElS2QNFVkwALlPGHwW3QAjXp2Ss0PQxGDHQl1k+px/b/Ys
ki05Mxc7rvkva325eZCfJbqmhDZKv3feWlrCManSuw4=
-----END CERTIFICATE-----
