Certificate:
    Data:
        Version: 3 (0x2)
        Serial Number: 3298 (0xce2)
    Signature Algorithm: md5WithRSAEncryption
        Issuer: C=US, ST=OH, L=Columbus, O=VikingVPN, OU=MyOrganizationalUnit, CN=VikingVPN CA/name=EasyRSA/emailAddress=me@myhost.mydomain
        Validity
            Not Before: Nov  7 16:06:00 2014 GMT
            Not After : Nov  4 16:06:00 2024 GMT
        Subject: CN=Client1147Certf57caf
        Subject Public Key Info:
            Public Key Algorithm: rsaEncryption
                Public-Key: (4096 bit)
                Modulus:
                    00:b4:a4:6b:3c:92:ae:9f:b5:3c:49:95:cb:7e:02:
                    4b:17:3d:04:6f:35:07:88:8b:8f:53:e5:2c:6f:49:
                    20:7d:35:ec:7f:07:0e:59:09:d8:34:8b:0c:d1:8d:
                    c3:c0:4e:9d:31:f5:99:b6:5e:f4:5c:b2:41:0b:19:
                    7f:9a:52:3b:d5:5c:25:b6:ad:6f:78:b9:54:83:58:
                    fa:88:3e:cc:26:ca:a3:9b:ee:0a:d7:31:14:75:dc:
                    5a:f3:3a:7d:9f:f4:65:26:71:3f:be:59:bc:ef:7e:
                    71:e7:dc:a9:d1:e0:fd:bb:cd:76:3f:c2:a1:83:41:
                    6a:f6:f8:2b:b4:79:e9:83:4c:13:09:f3:fe:d7:70:
                    32:ca:73:21:d2:b7:03:78:a3:5b:7e:3d:39:9c:a0:
                    ca:4f:2c:e5:e6:93:29:9b:cb:02:b1:1b:b8:64:c1:
                    6a:12:0a:84:47:2b:13:e9:3b:d4:46:4c:e7:82:e8:
                    0e:aa:8d:e2:16:b3:66:6a:86:fe:41:c9:c7:50:72:
                    59:0b:3d:3b:a7:95:2e:5c:d6:1f:d7:94:7b:c0:66:
                    75:2a:03:cf:43:8d:56:a3:e3:d7:4d:16:e3:e1:4b:
                    c5:30:42:9a:4e:17:71:26:a3:45:0a:fe:c4:23:5e:
                    b6:f9:0c:39:bd:1d:74:d0:d1:5c:07:f0:5b:13:64:
                    f0:f3:d4:89:26:75:4b:8f:81:d2:84:63:fc:01:dd:
                    db:15:1d:0f:e7:31:49:54:cb:1e:3a:7f:71:14:cf:
                    41:21:1c:be:e8:11:33:65:19:5a:55:3d:56:b5:a5:
                    d8:7a:6c:3c:30:11:04:9f:31:ba:bd:d4:97:ee:47:
                    67:72:8c:ef:c8:69:b8:e9:e2:8d:dd:5e:80:d0:20:
                    ca:a9:6d:7d:a1:e1:49:49:9a:a7:49:ba:a0:39:54:
                    20:46:d9:f6:88:7b:55:e6:88:88:36:4c:55:d8:6b:
                    ab:cb:37:27:78:60:fa:04:8a:2f:0d:64:2f:04:98:
                    4f:26:77:59:5d:fe:67:6c:c6:85:c7:d8:98:ab:9f:
                    b7:58:bc:99:98:18:83:43:c8:40:54:44:31:40:84:
                    e4:73:10:fc:6e:30:ba:f9:0b:6f:73:8c:7b:11:c7:
                    31:15:70:52:5d:c3:c9:59:60:be:68:06:1f:7b:10:
                    b9:20:e0:00:2c:14:d6:85:4b:b3:d2:5d:93:eb:51:
                    08:8c:9b:21:0a:a0:c0:ea:8f:a0:d3:a6:f1:1e:ce:
                    3f:ef:1e:f9:7b:71:13:70:7d:f7:6a:95:f6:b2:fc:
                    df:e0:c5:b9:ab:c3:43:48:45:72:3f:5d:ff:f8:a4:
                    3c:e4:f4:2f:3f:51:c2:6a:9a:d6:65:1d:39:a7:44:
                    96:1f:9b
                Exponent: 65537 (0x10001)
        X509v3 extensions:
            X509v3 Basic Constraints: 
                CA:FALSE
            Netscape Comment: 
                Easy-RSA Generated Certificate
            X509v3 Subject Key Identifier: 
                AA:B4:B6:52:66:1C:CD:BC:DF:60:CC:AA:54:D7:F1:46:2F:4E:C2:DC
            X509v3 Authority Key Identifier: 
                keyid:12:CD:60:04:D2:A0:80:9E:70:ED:C6:99:B8:7B:2C:C6:52:FD:19:A1
                DirName:/C=US/ST=OH/L=Columbus/O=VikingVPN/OU=MyOrganizationalUnit/CN=VikingVPN CA/name=EasyRSA/emailAddress=me@myhost.mydomain
                serial:CF:35:85:EE:80:BF:2A:3E

            X509v3 Extended Key Usage: 
                TLS Web Client Authentication
            X509v3 Key Usage: 
                Digital Signature
    Signature Algorithm: md5WithRSAEncryption
         73:03:fa:c0:e3:44:cc:95:ef:62:58:04:50:dd:82:91:e1:87:
         8e:86:38:9b:aa:4e:5e:4f:cf:7f:3b:7f:6e:62:38:c2:8a:17:
         41:ee:06:2b:b6:6d:19:cf:57:e6:64:8c:8d:ee:6a:53:16:7f:
         e1:e7:ca:16:c8:63:5a:52:10:a6:54:ed:ac:ac:44:e1:19:cf:
         33:9b:91:76:7e:0f:cd:63:01:bf:ae:db:8d:b3:f6:eb:02:e7:
         cf:4d:3d:cb:27:4f:c8:8b:f9:c4:0e:ab:6d:ca:d2:b1:a0:11:
         98:1b:0c:b8:6c:97:d1:0b:34:ef:2d:ed:6e:b2:e2:cc:19:19:
         66:75:c3:96:d0:9c:22:25:34:13:ea:4f:04:08:f6:7e:54:92:
         a6:5d:b3:16:38:d8:a2:ca:1e:8e:2c:a5:6e:bc:dd:4a:94:30:
         3c:ef:52:2c:e3:ec:e2:47:00:10:c0:0f:3c:a6:d4:61:39:d5:
         dd:b4:c2:1e:65:f6:31:c1:6d:1a:49:a3:06:4b:be:2b:fe:64:
         9a:55:2b:f0:89:99:f7:e5:a4:ce:f7:0e:75:2c:a1:a1:04:09:
         3f:b7:f6:f6:c4:3b:6c:a1:cd:9b:ce:3f:73:57:f7:4f:3a:3b:
         7f:f7:ff:17:03:9c:5e:76:b9:bd:f1:d5:1a:d0:9e:da:39:9a:
         31:4e:7a:01:b6:b1:a6:55:61:d3:8f:a7:d7:6f:e5:8e:a6:54:
         30:2c:79:eb:f0:a4:35:d1:3f:13:d3:84:fc:ec:4a:f3:e4:a7:
         56:2d:eb:58:fa:58:70:c5:e9:5d:0c:42:f9:b4:51:3b:07:96:
         05:e3:3e:e3:72:53:35:39:9f:f3:c8:2a:c5:40:ef:d6:21:71:
         2e:c6:36:8c:db:5f:2b:7f:a2:d3:c1:f7:5e:b5:29:c7:a8:df:
         ff:ef:9b:78:75:62:68:df:68:c6:c0:a6:f0:b6:a6:4c:76:4b:
         82:f2:dc:6c:eb:db:95:1c:18:bf:0e:79:65:01:b0:18:9f:e6:
         f1:65:1d:94:e4:f7:f9:fa:83:da:ec:5e:3a:29:bd:a1:42:00:
         69:22:b7:4a:95:ed:fe:c8:59:bf:9d:26:e0:f6:6c:ce:27:ca:
         84:d3:e1:18:53:1f:ba:67:74:06:e9:ef:a1:0f:89:8a:2e:bf:
         4b:87:79:a3:07:4b:ff:85:c0:35:02:7e:8d:9f:fd:c0:59:c6:
         75:00:12:e7:e0:6a:fb:be:54:af:14:07:6c:15:74:20:d2:fa:
         fa:f2:5c:00:20:3b:76:5b:f5:1a:ee:7f:34:74:c8:5e:8e:95:
         9d:c6:51:32:fe:de:7b:a4:1b:47:de:d9:96:15:79:ff:2c:5a:
         82:83:ae:7f:da:00:36:56
-----BEGIN CERTIFICATE-----
MIIGrTCCBJWgAwIBAgICDOIwDQYJKoZIhvcNAQEEBQAwgawxCzAJBgNVBAYTAlVT
MQswCQYDVQQIEwJPSDERMA8GA1UEBxMIQ29sdW1idXMxEjAQBgNVBAoTCVZpa2lu
Z1ZQTjEdMBsGA1UECxMUTXlPcmdhbml6YXRpb25hbFVuaXQxFTATBgNVBAMTDFZp
a2luZ1ZQTiBDQTEQMA4GA1UEKRMHRWFzeVJTQTEhMB8GCSqGSIb3DQEJARYSbWVA
bXlob3N0Lm15ZG9tYWluMB4XDTE0MTEwNzE2MDYwMFoXDTI0MTEwNDE2MDYwMFow
HzEdMBsGA1UEAxMUQ2xpZW50MTE0N0NlcnRmNTdjYWYwggIiMA0GCSqGSIb3DQEB
AQUAA4ICDwAwggIKAoICAQC0pGs8kq6ftTxJlct+AksXPQRvNQeIi49T5SxvSSB9
Nex/Bw5ZCdg0iwzRjcPATp0x9Zm2XvRcskELGX+aUjvVXCW2rW94uVSDWPqIPswm
yqOb7grXMRR13FrzOn2f9GUmcT++WbzvfnHn3KnR4P27zXY/wqGDQWr2+Cu0eemD
TBMJ8/7XcDLKcyHStwN4o1t+PTmcoMpPLOXmkymbywKxG7hkwWoSCoRHKxPpO9RG
TOeC6A6qjeIWs2Zqhv5BycdQclkLPTunlS5c1h/XlHvAZnUqA89DjVaj49dNFuPh
S8UwQppOF3Emo0UK/sQjXrb5DDm9HXTQ0VwH8FsTZPDz1IkmdUuPgdKEY/wB3dsV
HQ/nMUlUyx46f3EUz0EhHL7oETNlGVpVPVa1pdh6bDwwEQSfMbq91JfuR2dyjO/I
abjp4o3dXoDQIMqpbX2h4UlJmqdJuqA5VCBG2faIe1XmiIg2TFXYa6vLNyd4YPoE
ii8NZC8EmE8md1ld/mdsxoXH2Jirn7dYvJmYGINDyEBURDFAhORzEPxuMLr5C29z
jHsRxzEVcFJdw8lZYL5oBh97ELkg4AAsFNaFS7PSXZPrUQiMmyEKoMDqj6DTpvEe
zj/vHvl7cRNwffdqlfay/N/gxbmrw0NIRXI/Xf/4pDzk9C8/UcJqmtZlHTmnRJYf
mwIDAQABo4IBYzCCAV8wCQYDVR0TBAIwADAtBglghkgBhvhCAQ0EIBYeRWFzeS1S
U0EgR2VuZXJhdGVkIENlcnRpZmljYXRlMB0GA1UdDgQWBBSqtLZSZhzNvN9gzKpU
1/FGL07C3DCB4QYDVR0jBIHZMIHWgBQSzWAE0qCAnnDtxpm4eyzGUv0ZoaGBsqSB
rzCBrDELMAkGA1UEBhMCVVMxCzAJBgNVBAgTAk9IMREwDwYDVQQHEwhDb2x1bWJ1
czESMBAGA1UEChMJVmlraW5nVlBOMR0wGwYDVQQLExRNeU9yZ2FuaXphdGlvbmFs
VW5pdDEVMBMGA1UEAxMMVmlraW5nVlBOIENBMRAwDgYDVQQpEwdFYXN5UlNBMSEw
HwYJKoZIhvcNAQkBFhJtZUBteWhvc3QubXlkb21haW6CCQDPNYXugL8qPjATBgNV
HSUEDDAKBggrBgEFBQcDAjALBgNVHQ8EBAMCB4AwDQYJKoZIhvcNAQEEBQADggIB
AHMD+sDjRMyV72JYBFDdgpHhh46GOJuqTl5Pz387f25iOMKKF0HuBiu2bRnPV+Zk
jI3ualMWf+HnyhbIY1pSEKZU7aysROEZzzObkXZ+D81jAb+u242z9usC589NPcsn
T8iL+cQOq23K0rGgEZgbDLhsl9ELNO8t7W6y4swZGWZ1w5bQnCIlNBPqTwQI9n5U
kqZdsxY42KLKHo4spW683UqUMDzvUizj7OJHABDADzym1GE51d20wh5l9jHBbRpJ
owZLviv+ZJpVK/CJmfflpM73DnUsoaEECT+39vbEO2yhzZvOP3NX9086O3/3/xcD
nF52ub3x1RrQnto5mjFOegG2saZVYdOPp9dv5Y6mVDAseevwpDXRPxPThPzsSvPk
p1Yt61j6WHDF6V0MQvm0UTsHlgXjPuNyUzU5n/PIKsVA79YhcS7GNozbXyt/otPB
9161Kceo3//vm3h1YmjfaMbApvC2pkx2S4Ly3Gzr25UcGL8OeWUBsBif5vFlHZTk
9/n6g9rsXjopvaFCAGkit0qV7f7IWb+dJuD2bM4nyoTT4RhTH7pndAbp76EPiYou
v0uHeaMHS/+FwDUCfo2f/cBZxnUAEufgavu+VK8UB2wVdCDS+vryXAAgO3Zb9Rru
fzR0yF6OlZ3GUTL+3nukG0fe2ZYVef8sWoKDrn/aADZW
-----END CERTIFICATE-----
