Certificate:
    Data:
        Version: 3 (0x2)
        Serial Number: 4609 (0x1201)
    Signature Algorithm: md5WithRSAEncryption
        Issuer: C=US, ST=OH, L=Columbus, O=VikingVPN, OU=MyOrganizationalUnit, CN=VikingVPN CA/name=EasyRSA/emailAddress=me@myhost.mydomain
        Validity
            Not Before: Feb 28 14:17:58 2015 GMT
            Not After : Feb 25 14:17:58 2025 GMT
        Subject: CN=Client1051Cert79dd4a
        Subject Public Key Info:
            Public Key Algorithm: rsaEncryption
                Public-Key: (4096 bit)
                Modulus:
                    00:9d:3f:18:ba:fe:15:e9:03:d8:6a:e8:8c:9a:ed:
                    46:83:cd:07:b3:b6:a2:fb:aa:e2:95:94:50:97:a5:
                    45:a2:a5:d8:34:bd:c9:e1:36:b8:8d:2c:22:53:65:
                    07:ab:93:fc:4c:ca:4f:47:01:72:1b:9d:93:76:12:
                    30:21:2e:80:f7:d3:90:df:58:fc:5f:27:fc:4e:8f:
                    72:99:b7:d7:20:5d:d4:33:a7:c0:76:75:e6:5b:92:
                    ce:00:c9:db:1f:05:70:1e:27:3b:41:d9:4c:9d:8f:
                    5e:95:77:24:69:5d:1f:f9:bc:50:fe:74:5a:24:56:
                    2d:e3:3d:49:8e:27:90:57:9d:2f:c9:0a:88:80:ba:
                    08:f1:25:1e:b5:ee:76:5c:38:8c:6d:a9:08:d5:07:
                    cb:d6:91:4f:07:44:2b:99:3e:be:4b:fb:5d:c7:dd:
                    70:39:ed:9f:25:73:fa:58:1e:0c:ee:07:8e:65:c6:
                    4a:5b:22:a3:e5:b9:1b:b5:9e:55:e2:81:2b:bc:4b:
                    05:b7:17:e5:7c:7b:12:3c:30:df:61:26:ec:04:9f:
                    96:82:e7:41:2b:d7:cc:d7:1e:2b:ad:87:ad:08:fa:
                    8a:57:b4:3a:27:33:79:cb:e0:33:fa:2a:23:e1:3d:
                    8c:24:bb:f0:aa:87:b0:de:a6:a3:4f:c8:bb:51:c4:
                    08:43:87:f0:30:63:e3:13:f8:da:0a:b3:65:28:78:
                    1f:1d:57:6c:ef:20:c4:f2:d5:b5:1e:c9:5c:65:21:
                    f7:f5:f1:4b:dc:5b:82:ec:ce:49:a4:5e:88:1d:d8:
                    b0:74:f5:ae:cd:44:3d:5f:a7:3f:7a:b9:ea:f1:e6:
                    01:3f:dc:5f:db:a2:4a:56:25:9c:e1:f6:9f:8d:04:
                    1e:69:2e:20:56:00:e3:38:e6:f0:28:29:4f:b7:e5:
                    46:b2:f3:0c:ed:8c:f5:d1:f6:39:8b:98:86:14:49:
                    e3:7f:71:54:b5:a1:1c:e6:aa:45:ed:8d:e5:d8:b9:
                    61:ee:4b:27:59:e0:75:61:6b:db:4b:65:33:f6:89:
                    15:19:f2:d9:c6:d3:72:99:fe:06:40:59:7a:16:10:
                    a1:9f:64:da:81:53:b0:b4:1c:3a:f2:71:77:d5:0d:
                    bb:f3:86:81:8f:ab:0c:3e:3d:9f:8f:48:f8:05:ae:
                    fd:cb:13:df:db:0e:c3:88:4d:05:d1:4a:e3:18:e2:
                    0b:f9:6a:fc:0a:a8:11:68:38:96:5d:cc:0e:7e:2d:
                    42:dd:ae:7e:09:48:d7:a4:31:a7:de:4c:ef:67:08:
                    6e:34:cb:59:15:d3:ea:ee:34:ff:00:c0:3b:c4:81:
                    c9:48:65:f7:35:ae:6f:8c:a8:6c:8c:f5:76:2b:ab:
                    ad:e8:55
                Exponent: 65537 (0x10001)
        X509v3 extensions:
            X509v3 Basic Constraints: 
                CA:FALSE
            Netscape Comment: 
                Easy-RSA Generated Certificate
            X509v3 Subject Key Identifier: 
                F9:7A:78:C5:05:5D:6B:F8:D2:0B:79:9D:B4:E0:0F:20:FF:68:63:93
            X509v3 Authority Key Identifier: 
                keyid:12:CD:60:04:D2:A0:80:9E:70:ED:C6:99:B8:7B:2C:C6:52:FD:19:A1
                DirName:/C=US/ST=OH/L=Columbus/O=VikingVPN/OU=MyOrganizationalUnit/CN=VikingVPN CA/name=EasyRSA/emailAddress=me@myhost.mydomain
                serial:CF:35:85:EE:80:BF:2A:3E

            X509v3 Extended Key Usage: 
                TLS Web Client Authentication
            X509v3 Key Usage: 
                Digital Signature
    Signature Algorithm: md5WithRSAEncryption
         d3:38:1f:d0:b9:29:58:44:c2:37:e4:00:3e:c8:3f:95:3f:de:
         ae:0d:b3:66:ee:85:8b:70:8c:ba:8a:cf:41:db:22:66:c8:0b:
         61:95:15:c3:82:c4:43:01:38:1d:8d:02:76:2e:64:ba:76:91:
         7f:1e:82:da:de:78:1a:0f:56:c9:d6:6f:35:0e:72:50:b0:aa:
         fe:97:f0:ff:27:55:b1:0d:3a:62:f4:0a:a1:34:90:78:8b:aa:
         52:42:f9:56:af:1e:34:c8:a8:42:fa:50:ef:27:eb:7e:69:af:
         3a:cd:cb:56:26:d8:33:80:d2:ff:9e:33:03:4f:c0:96:2f:1f:
         65:e3:f4:26:c8:98:57:8c:d8:f6:69:39:ea:8d:ad:95:a8:ab:
         f1:3f:5d:33:6f:0b:c1:a3:df:0e:67:8b:7e:12:91:98:35:93:
         73:de:56:0a:c0:5b:bf:e4:d1:17:71:db:4b:8b:f7:a6:6f:86:
         d5:41:64:71:15:d3:e1:32:7f:56:36:d3:4d:b7:42:7d:8c:c3:
         09:c7:de:21:1c:65:f9:39:f9:55:85:5a:78:f0:a9:cf:bb:00:
         00:7c:f9:3c:32:b9:bd:2e:7b:21:13:2d:6c:d0:02:8b:58:a5:
         89:b2:34:c7:74:24:e7:95:29:4a:7a:3c:1f:9d:01:cb:e0:a8:
         1b:68:72:40:92:96:00:53:ae:0f:2d:b4:12:db:84:2c:f8:27:
         13:03:83:65:dc:a7:df:7b:1e:34:38:51:b2:b4:f7:5f:e5:2b:
         ab:c3:98:9e:e7:44:0c:53:26:d1:1f:28:4a:24:0e:7f:a7:82:
         f7:52:c2:20:ac:d0:e4:ca:04:15:72:0f:09:aa:9f:a3:54:e4:
         36:b6:00:56:58:69:f2:bd:69:7a:96:4c:59:dd:05:50:58:ba:
         38:dc:8c:9a:f3:13:2c:a1:44:12:9e:dc:bf:37:b0:f9:1f:59:
         d9:3b:9d:3c:49:5d:8d:60:8c:82:16:bf:b7:c9:5b:7d:d7:9c:
         e3:17:cd:35:d4:7f:29:42:41:c8:68:e4:d2:a5:8d:74:7a:98:
         cd:68:88:27:29:d7:e2:11:40:8d:5d:3e:ac:56:0c:98:65:53:
         17:73:95:9a:32:29:55:9a:70:fb:ae:66:8f:47:b8:20:1e:5e:
         45:7a:f4:06:c5:1a:f0:5e:c7:21:eb:4e:ab:33:65:5c:c5:ae:
         7e:3a:b1:6c:83:2a:c5:06:a8:01:78:1a:93:ef:ac:37:f8:97:
         0e:12:24:41:4f:07:c5:d3:44:93:f8:e1:47:9a:dd:a5:6b:ff:
         de:79:37:0b:2f:44:ea:4d:4a:80:90:4e:95:a4:74:57:4a:5d:
         6f:19:3f:e8:13:50:6a:59
-----BEGIN CERTIFICATE-----
MIIGrTCCBJWgAwIBAgICEgEwDQYJKoZIhvcNAQEEBQAwgawxCzAJBgNVBAYTAlVT
MQswCQYDVQQIEwJPSDERMA8GA1UEBxMIQ29sdW1idXMxEjAQBgNVBAoTCVZpa2lu
Z1ZQTjEdMBsGA1UECxMUTXlPcmdhbml6YXRpb25hbFVuaXQxFTATBgNVBAMTDFZp
a2luZ1ZQTiBDQTEQMA4GA1UEKRMHRWFzeVJTQTEhMB8GCSqGSIb3DQEJARYSbWVA
bXlob3N0Lm15ZG9tYWluMB4XDTE1MDIyODE0MTc1OFoXDTI1MDIyNTE0MTc1OFow
HzEdMBsGA1UEAxMUQ2xpZW50MTA1MUNlcnQ3OWRkNGEwggIiMA0GCSqGSIb3DQEB
AQUAA4ICDwAwggIKAoICAQCdPxi6/hXpA9hq6Iya7UaDzQeztqL7quKVlFCXpUWi
pdg0vcnhNriNLCJTZQerk/xMyk9HAXIbnZN2EjAhLoD305DfWPxfJ/xOj3KZt9cg
XdQzp8B2deZbks4AydsfBXAeJztB2Uydj16VdyRpXR/5vFD+dFokVi3jPUmOJ5BX
nS/JCoiAugjxJR617nZcOIxtqQjVB8vWkU8HRCuZPr5L+13H3XA57Z8lc/pYHgzu
B45lxkpbIqPluRu1nlXigSu8SwW3F+V8exI8MN9hJuwEn5aC50Er18zXHiuth60I
+opXtDonM3nL4DP6KiPhPYwku/Cqh7DepqNPyLtRxAhDh/AwY+MT+NoKs2UoeB8d
V2zvIMTy1bUeyVxlIff18UvcW4LszkmkXogd2LB09a7NRD1fpz96uerx5gE/3F/b
okpWJZzh9p+NBB5pLiBWAOM45vAoKU+35Uay8wztjPXR9jmLmIYUSeN/cVS1oRzm
qkXtjeXYuWHuSydZ4HVha9tLZTP2iRUZ8tnG03KZ/gZAWXoWEKGfZNqBU7C0HDry
cXfVDbvzhoGPqww+PZ+PSPgFrv3LE9/bDsOITQXRSuMY4gv5avwKqBFoOJZdzA5+
LULdrn4JSNekMafeTO9nCG40y1kV0+ruNP8AwDvEgclIZfc1rm+MqGyM9XYrq63o
VQIDAQABo4IBYzCCAV8wCQYDVR0TBAIwADAtBglghkgBhvhCAQ0EIBYeRWFzeS1S
U0EgR2VuZXJhdGVkIENlcnRpZmljYXRlMB0GA1UdDgQWBBT5enjFBV1r+NILeZ20
4A8g/2hjkzCB4QYDVR0jBIHZMIHWgBQSzWAE0qCAnnDtxpm4eyzGUv0ZoaGBsqSB
rzCBrDELMAkGA1UEBhMCVVMxCzAJBgNVBAgTAk9IMREwDwYDVQQHEwhDb2x1bWJ1
czESMBAGA1UEChMJVmlraW5nVlBOMR0wGwYDVQQLExRNeU9yZ2FuaXphdGlvbmFs
VW5pdDEVMBMGA1UEAxMMVmlraW5nVlBOIENBMRAwDgYDVQQpEwdFYXN5UlNBMSEw
HwYJKoZIhvcNAQkBFhJtZUBteWhvc3QubXlkb21haW6CCQDPNYXugL8qPjATBgNV
HSUEDDAKBggrBgEFBQcDAjALBgNVHQ8EBAMCB4AwDQYJKoZIhvcNAQEEBQADggIB
ANM4H9C5KVhEwjfkAD7IP5U/3q4Ns2buhYtwjLqKz0HbImbIC2GVFcOCxEMBOB2N
AnYuZLp2kX8egtreeBoPVsnWbzUOclCwqv6X8P8nVbENOmL0CqE0kHiLqlJC+Vav
HjTIqEL6UO8n635przrNy1Ym2DOA0v+eMwNPwJYvH2Xj9CbImFeM2PZpOeqNrZWo
q/E/XTNvC8Gj3w5ni34SkZg1k3PeVgrAW7/k0Rdx20uL96ZvhtVBZHEV0+Eyf1Y2
0023Qn2MwwnH3iEcZfk5+VWFWnjwqc+7AAB8+Twyub0ueyETLWzQAotYpYmyNMd0
JOeVKUp6PB+dAcvgqBtockCSlgBTrg8ttBLbhCz4JxMDg2Xcp997HjQ4UbK091/l
K6vDmJ7nRAxTJtEfKEokDn+ngvdSwiCs0OTKBBVyDwmqn6NU5Da2AFZYafK9aXqW
TFndBVBYujjcjJrzEyyhRBKe3L83sPkfWdk7nTxJXY1gjIIWv7fJW33XnOMXzTXU
fylCQcho5NKljXR6mM1oiCcp1+IRQI1dPqxWDJhlUxdzlZoyKVWacPuuZo9HuCAe
XkV69AbFGvBexyHrTqszZVzFrn46sWyDKsUGqAF4GpPvrDf4lw4SJEFPB8XTRJP4
4Uea3aVr/955NwsvROpNSoCQTpWkdFdKXW8ZP+gTUGpZ
-----END CERTIFICATE-----
