Certificate:
    Data:
        Version: 3 (0x2)
        Serial Number: 7749 (0x1e45)
    Signature Algorithm: md5WithRSAEncryption
        Issuer: C=US, ST=OH, L=Columbus, O=VikingVPN, OU=MyOrganizationalUnit, CN=VikingVPN CA/name=EasyRSA/emailAddress=me@myhost.mydomain
        Validity
            Not Before: Apr 14 18:20:14 2016 GMT
            Not After : Apr 12 18:20:14 2026 GMT
        Subject: CN=Client1344Certade862
        Subject Public Key Info:
            Public Key Algorithm: rsaEncryption
                Public-Key: (4096 bit)
                Modulus:
                    00:c2:b9:0d:c8:b6:3b:c2:ea:78:24:71:c5:f0:f8:
                    01:84:0c:f9:3f:a3:f8:93:5e:09:a5:e0:0f:84:05:
                    76:bb:a3:d8:64:e0:3b:bb:3c:e2:e6:b9:82:84:7c:
                    3c:6e:86:09:8c:24:f2:b0:fc:33:13:76:6d:28:86:
                    97:86:c4:00:92:36:d0:bd:1a:b0:d8:30:cc:6b:a5:
                    04:51:57:20:db:d3:b1:5a:04:23:4c:2e:69:e4:d0:
                    51:3e:48:7a:34:7e:51:2f:73:b1:04:15:0a:43:14:
                    4c:27:55:d7:31:52:bf:f7:f6:72:77:bf:55:d6:f3:
                    4d:50:8e:d2:41:eb:f0:d1:96:30:b3:97:2f:be:c0:
                    d5:8f:aa:b7:37:81:88:11:b7:86:1b:be:29:ee:09:
                    3e:3e:f7:22:8c:29:f9:63:87:ed:5c:c3:02:7b:be:
                    67:0d:9e:54:1b:ff:0d:d5:02:60:82:f6:a3:80:a7:
                    2b:7a:c0:02:e9:28:e4:57:63:4e:16:75:53:d1:ca:
                    4c:1d:72:35:7c:27:f5:81:8c:ca:3a:e6:79:85:5f:
                    d9:8b:3a:74:23:fd:bf:07:d0:5a:4f:5f:6c:26:b4:
                    4e:c2:0d:c1:d3:3e:55:42:08:04:8b:6a:c2:2e:a7:
                    a1:44:66:19:7f:1e:3c:62:e2:e5:37:78:fc:1b:5a:
                    47:b8:a2:40:f4:63:62:31:6e:44:22:e8:98:42:ef:
                    08:fa:8e:e9:d6:da:7f:20:ba:02:4c:e8:44:7b:58:
                    85:06:a7:93:1c:51:a7:03:f3:d8:65:c4:84:49:b3:
                    f8:2c:46:f3:e8:b8:f4:0a:91:eb:63:3a:1a:20:16:
                    7e:f3:94:44:29:6e:2d:3c:55:1c:fd:20:af:e8:47:
                    76:f9:de:03:cc:5b:9a:d3:04:26:a7:e2:59:69:55:
                    99:e5:f2:e1:ea:2b:47:d0:e4:0e:f9:50:3d:9b:f2:
                    ea:45:79:7a:d0:62:3e:ac:59:25:9f:25:40:12:a4:
                    c4:f7:73:29:a1:16:54:dc:5c:f8:73:f3:c1:dd:1c:
                    11:e4:b4:55:29:06:42:31:94:5e:a6:d5:89:fe:25:
                    03:8f:09:5e:89:3d:69:9e:f3:ed:40:d3:9f:d1:58:
                    46:de:64:82:ab:4b:87:43:76:80:c3:5d:23:df:64:
                    80:2e:98:70:89:d3:45:75:99:1f:17:8f:81:50:aa:
                    5a:b7:01:e8:27:14:76:ba:cd:ba:d6:e1:c7:54:07:
                    c1:9f:bd:dd:92:e1:22:d4:d3:71:61:62:b4:b1:7c:
                    9f:18:25:34:3e:71:98:04:5e:af:d3:f8:54:9c:50:
                    64:55:b8:5d:5e:9d:6c:67:2c:7e:b9:51:2c:eb:29:
                    0f:52:49
                Exponent: 65537 (0x10001)
        X509v3 extensions:
            X509v3 Basic Constraints: 
                CA:FALSE
            Netscape Comment: 
                Easy-RSA Generated Certificate
            X509v3 Subject Key Identifier: 
                CE:E0:B2:74:E9:7C:4B:CE:00:71:34:97:3F:5A:3E:47:B8:0F:8D:37
            X509v3 Authority Key Identifier: 
                keyid:12:CD:60:04:D2:A0:80:9E:70:ED:C6:99:B8:7B:2C:C6:52:FD:19:A1
                DirName:/C=US/ST=OH/L=Columbus/O=VikingVPN/OU=MyOrganizationalUnit/CN=VikingVPN CA/name=EasyRSA/emailAddress=me@myhost.mydomain
                serial:CF:35:85:EE:80:BF:2A:3E

            X509v3 Extended Key Usage: 
                TLS Web Client Authentication
            X509v3 Key Usage: 
                Digital Signature
    Signature Algorithm: md5WithRSAEncryption
         b5:f4:8d:64:1f:84:d1:c6:4c:12:52:ee:a2:db:fc:17:23:86:
         e5:ad:9b:75:ac:af:44:05:06:53:2a:61:63:8c:32:59:6c:9d:
         ba:c3:9f:52:05:d6:c5:a2:78:e3:be:76:1d:82:4e:e8:02:39:
         f2:37:d1:ef:ee:6b:5b:5e:3e:3e:17:1b:2b:a9:e3:20:b3:31:
         07:69:26:22:f1:b8:9f:59:fb:d3:c6:47:68:d2:8a:96:bb:fb:
         fb:c2:6b:34:a9:7d:c8:a5:03:19:ef:f3:a3:c9:df:4f:85:a6:
         23:45:75:ab:01:86:84:f8:fe:70:3c:bc:49:2f:6b:da:9f:7b:
         73:ed:3d:c5:94:1a:56:ce:ee:4f:d4:c5:29:c8:7d:81:3f:bf:
         55:90:33:5a:6e:47:80:af:81:4c:b9:6f:b1:1d:e0:81:04:0b:
         8b:31:f4:50:f9:82:f0:29:43:a4:98:ab:d2:16:0a:d2:70:13:
         3c:29:42:c2:fe:7c:f7:f0:26:a9:f2:56:fe:e2:0f:f2:fe:2f:
         a8:42:2c:d9:0f:4f:b5:3c:12:51:c6:5c:ae:60:84:cd:a9:87:
         1d:49:c1:95:90:4d:a9:f4:2d:f9:ec:34:6b:5e:32:53:ac:43:
         79:06:82:83:f8:62:25:77:e2:03:3c:77:af:5d:90:14:82:0a:
         00:d0:91:6b:19:39:c6:50:25:ed:d5:e2:e3:a5:32:71:f4:d1:
         72:f7:14:90:d9:43:4f:80:39:ca:23:6a:f1:2e:9e:a8:ec:0a:
         d7:85:24:9d:17:f9:fe:69:74:ac:82:37:d8:9b:b9:0b:9d:7a:
         10:3a:d9:f1:65:71:e8:83:f4:7c:e5:0d:11:11:95:61:db:1a:
         ab:33:76:e2:30:ce:62:7a:00:c4:7b:cf:5b:25:39:58:48:f0:
         9b:e4:e0:39:6d:58:7a:1c:9c:10:18:73:bd:9c:f5:3c:c9:f6:
         99:18:a2:36:ed:f2:e5:dd:f0:23:c2:ef:59:8f:eb:25:9b:0a:
         3c:df:70:83:6d:00:1e:1c:ba:8a:93:a4:79:5d:ee:9a:6c:6d:
         78:3e:06:d1:fc:3c:56:2c:d0:ef:b1:6c:4a:0e:f9:d2:1e:89:
         c5:36:40:a3:1b:c7:81:fe:ca:bc:56:44:07:d7:36:b2:3e:f6:
         6a:fc:30:fd:a7:39:ad:20:79:40:a1:66:58:bf:33:99:40:f8:
         af:9f:6e:ff:c0:4a:15:48:c6:70:c0:5b:bf:33:3e:c6:d0:14:
         d9:59:d6:46:85:b4:97:66:ad:97:f6:fc:5f:8d:82:e6:ee:02:
         49:20:96:8e:b7:ed:d6:83:27:20:a1:0e:84:05:d8:58:09:05:
         1e:2a:12:76:5d:61:f0:c2
-----BEGIN CERTIFICATE-----
MIIGrTCCBJWgAwIBAgICHkUwDQYJKoZIhvcNAQEEBQAwgawxCzAJBgNVBAYTAlVT
MQswCQYDVQQIEwJPSDERMA8GA1UEBxMIQ29sdW1idXMxEjAQBgNVBAoTCVZpa2lu
Z1ZQTjEdMBsGA1UECxMUTXlPcmdhbml6YXRpb25hbFVuaXQxFTATBgNVBAMTDFZp
a2luZ1ZQTiBDQTEQMA4GA1UEKRMHRWFzeVJTQTEhMB8GCSqGSIb3DQEJARYSbWVA
bXlob3N0Lm15ZG9tYWluMB4XDTE2MDQxNDE4MjAxNFoXDTI2MDQxMjE4MjAxNFow
HzEdMBsGA1UEAxMUQ2xpZW50MTM0NENlcnRhZGU4NjIwggIiMA0GCSqGSIb3DQEB
AQUAA4ICDwAwggIKAoICAQDCuQ3ItjvC6ngkccXw+AGEDPk/o/iTXgml4A+EBXa7
o9hk4Du7POLmuYKEfDxuhgmMJPKw/DMTdm0ohpeGxACSNtC9GrDYMMxrpQRRVyDb
07FaBCNMLmnk0FE+SHo0flEvc7EEFQpDFEwnVdcxUr/39nJ3v1XW801QjtJB6/DR
ljCzly++wNWPqrc3gYgRt4YbvinuCT4+9yKMKfljh+1cwwJ7vmcNnlQb/w3VAmCC
9qOApyt6wALpKORXY04WdVPRykwdcjV8J/WBjMo65nmFX9mLOnQj/b8H0FpPX2wm
tE7CDcHTPlVCCASLasIup6FEZhl/Hjxi4uU3ePwbWke4okD0Y2IxbkQi6JhC7wj6
junW2n8gugJM6ER7WIUGp5McUacD89hlxIRJs/gsRvPouPQKketjOhogFn7zlEQp
bi08VRz9IK/oR3b53gPMW5rTBCan4llpVZnl8uHqK0fQ5A75UD2b8upFeXrQYj6s
WSWfJUASpMT3cymhFlTcXPhz88HdHBHktFUpBkIxlF6m1Yn+JQOPCV6JPWme8+1A
05/RWEbeZIKrS4dDdoDDXSPfZIAumHCJ00V1mR8Xj4FQqlq3AegnFHa6zbrW4cdU
B8Gfvd2S4SLU03FhYrSxfJ8YJTQ+cZgEXq/T+FScUGRVuF1enWxnLH65USzrKQ9S
SQIDAQABo4IBYzCCAV8wCQYDVR0TBAIwADAtBglghkgBhvhCAQ0EIBYeRWFzeS1S
U0EgR2VuZXJhdGVkIENlcnRpZmljYXRlMB0GA1UdDgQWBBTO4LJ06XxLzgBxNJc/
Wj5HuA+NNzCB4QYDVR0jBIHZMIHWgBQSzWAE0qCAnnDtxpm4eyzGUv0ZoaGBsqSB
rzCBrDELMAkGA1UEBhMCVVMxCzAJBgNVBAgTAk9IMREwDwYDVQQHEwhDb2x1bWJ1
czESMBAGA1UEChMJVmlraW5nVlBOMR0wGwYDVQQLExRNeU9yZ2FuaXphdGlvbmFs
VW5pdDEVMBMGA1UEAxMMVmlraW5nVlBOIENBMRAwDgYDVQQpEwdFYXN5UlNBMSEw
HwYJKoZIhvcNAQkBFhJtZUBteWhvc3QubXlkb21haW6CCQDPNYXugL8qPjATBgNV
HSUEDDAKBggrBgEFBQcDAjALBgNVHQ8EBAMCB4AwDQYJKoZIhvcNAQEEBQADggIB
ALX0jWQfhNHGTBJS7qLb/BcjhuWtm3Wsr0QFBlMqYWOMMllsnbrDn1IF1sWieOO+
dh2CTugCOfI30e/ua1tePj4XGyup4yCzMQdpJiLxuJ9Z+9PGR2jSipa7+/vCazSp
fcilAxnv86PJ30+FpiNFdasBhoT4/nA8vEkva9qfe3PtPcWUGlbO7k/UxSnIfYE/
v1WQM1puR4CvgUy5b7Ed4IEEC4sx9FD5gvApQ6SYq9IWCtJwEzwpQsL+fPfwJqny
Vv7iD/L+L6hCLNkPT7U8ElHGXK5ghM2phx1JwZWQTan0LfnsNGteMlOsQ3kGgoP4
YiV34gM8d69dkBSCCgDQkWsZOcZQJe3V4uOlMnH00XL3FJDZQ0+AOcojavEunqjs
CteFJJ0X+f5pdKyCN9ibuQudehA62fFlceiD9HzlDRERlWHbGqszduIwzmJ6AMR7
z1slOVhI8Jvk4DltWHocnBAYc72c9TzJ9pkYojbt8uXd8CPC71mP6yWbCjzfcINt
AB4cuoqTpHld7ppsbXg+BtH8PFYs0O+xbEoO+dIeicU2QKMbx4H+yrxWRAfXNrI+
9mr8MP2nOa0geUChZli/M5lA+K+fbv/AShVIxnDAW78zPsbQFNlZ1kaFtJdmrZf2
/F+NgubuAkkglo637daDJyChDoQF2FgJBR4qEnZdYfDC
-----END CERTIFICATE-----
