Certificate:
    Data:
        Version: 3 (0x2)
        Serial Number: 10943 (0x2abf)
    Signature Algorithm: sha256WithRSAEncryption
        Issuer: C=US, ST=OH, L=Columbus, O=VikingVPN, OU=MyOrganizationalUnit, CN=VikingVPN CA/name=EasyRSA/emailAddress=me@myhost.mydomain
        Validity
            Not Before: May 15 07:17:24 2017 GMT
            Not After : May 13 07:17:24 2027 GMT
        Subject: CN=Client2915Certf9bd03
        Subject Public Key Info:
            Public Key Algorithm: rsaEncryption
                Public-Key: (4096 bit)
                Modulus:
                    00:bb:d1:05:89:98:09:07:39:42:de:7f:fe:f4:bd:
                    9c:fe:fb:fc:43:b1:ce:0f:05:eb:7b:b9:77:df:d8:
                    7c:f9:27:a0:21:05:0c:7d:40:c2:17:2c:e8:72:41:
                    d7:42:e5:2d:ab:75:2a:08:4a:05:43:b3:6e:51:6a:
                    f9:26:ed:aa:7b:8c:f6:25:26:83:ae:07:87:fe:49:
                    3e:fa:07:94:68:23:09:bb:29:7f:1a:ea:40:7f:9b:
                    8b:eb:a4:99:16:80:cc:84:83:b0:0e:de:9c:e5:33:
                    98:cf:e2:50:d0:e5:1e:38:5e:1d:84:41:d9:e6:cb:
                    08:d0:0c:fd:3c:fa:c9:ca:73:77:bf:51:56:90:11:
                    0d:7d:b0:bb:ae:82:e2:33:e5:8e:5e:9d:ca:f8:5c:
                    e5:fa:dc:47:f1:37:36:40:a3:2f:48:71:7a:fb:31:
                    7e:3d:8e:a7:59:3c:4e:87:d2:1e:80:49:42:dd:52:
                    e4:69:65:84:e2:e8:a5:31:21:7f:28:60:47:a2:1c:
                    93:92:e7:69:c8:32:bb:37:a4:bd:95:55:ff:71:f6:
                    63:1a:ca:d3:74:37:ee:c6:0a:1e:9b:cc:b2:17:41:
                    ff:71:ff:6b:b1:d0:1e:83:7c:92:4e:62:37:46:f6:
                    c5:53:0b:83:49:f4:5f:96:75:4e:61:f4:9f:ad:b8:
                    ad:f5:ca:3c:3c:5f:89:e2:09:e6:3b:21:ff:ca:2b:
                    86:0b:8d:5e:ed:27:b7:08:2a:23:11:64:c5:1c:63:
                    02:d4:c7:de:eb:b5:11:dd:21:0a:be:aa:8b:f7:1d:
                    45:dc:6f:a5:de:69:de:5e:0a:ae:0a:56:25:c3:64:
                    4c:fe:a0:9e:70:97:d9:9e:58:18:6f:08:b2:39:ef:
                    e5:e5:6c:aa:14:e2:36:a1:df:c5:2c:42:1d:e7:03:
                    4d:cb:7f:c7:fb:9f:36:2f:2a:51:16:de:17:f6:15:
                    9d:16:fb:14:dd:dd:a1:26:ea:44:20:4e:a2:f0:d3:
                    c1:2a:53:0e:95:18:06:f4:76:a1:13:27:92:46:b0:
                    b9:7c:e9:9d:b7:75:db:b7:bc:6c:45:35:98:10:1c:
                    96:78:9c:a7:f5:78:6a:08:05:f3:76:48:88:78:a1:
                    a6:db:88:4b:2e:fb:ff:7d:ba:d6:9e:77:b2:b2:d0:
                    c0:20:5d:92:ce:86:80:20:6e:7e:89:79:8e:5f:51:
                    35:dd:70:2f:d8:10:14:2d:56:45:85:d6:ed:38:41:
                    6e:27:e5:d2:67:48:48:25:87:ea:4c:57:6f:53:32:
                    20:bf:ec:f7:ec:f4:bd:ad:a1:d0:71:2a:48:bf:dd:
                    36:ef:61:45:f4:6e:fd:e9:ba:e4:b8:21:06:70:fc:
                    6b:92:e9
                Exponent: 65537 (0x10001)
        X509v3 extensions:
            X509v3 Basic Constraints: 
                CA:FALSE
            Netscape Comment: 
                Easy-RSA Generated Certificate
            X509v3 Subject Key Identifier: 
                45:84:C9:DB:43:C5:0A:B8:49:70:0A:DB:25:EE:76:F3:DF:1F:23:BB
            X509v3 Authority Key Identifier: 
                keyid:12:CD:60:04:D2:A0:80:9E:70:ED:C6:99:B8:7B:2C:C6:52:FD:19:A1
                DirName:/C=US/ST=OH/L=Columbus/O=VikingVPN/OU=MyOrganizationalUnit/CN=VikingVPN CA/name=EasyRSA/emailAddress=me@myhost.mydomain
                serial:CF:35:85:EE:80:BF:2A:3E

            X509v3 Extended Key Usage: 
                TLS Web Client Authentication
            X509v3 Key Usage: 
                Digital Signature
    Signature Algorithm: sha256WithRSAEncryption
         bb:85:c7:ec:a4:59:ab:b5:65:3b:33:9d:fa:65:ce:38:0b:5e:
         c7:8b:24:ef:d4:8c:ec:fe:64:e2:ba:9e:92:26:95:8d:a5:ae:
         7a:74:dd:b2:fb:44:88:4d:2f:11:c3:e7:c0:35:cf:65:92:c1:
         17:90:ad:96:e8:8a:94:19:49:f0:80:14:17:75:38:1f:f3:75:
         57:bf:b7:84:ad:7d:00:91:94:5c:3e:d5:7b:e8:69:f4:89:b1:
         f7:10:1a:ac:5b:7e:9e:16:c2:f8:13:d6:aa:54:bf:0f:f5:f0:
         f0:30:14:c2:f7:f3:1c:df:bf:31:c6:a5:15:e6:5f:94:7a:39:
         dd:82:34:68:ca:47:ba:29:f8:04:ed:5a:1e:6c:24:4c:a3:9a:
         a0:6a:4c:ed:16:58:d8:c5:7c:b3:d5:3e:56:51:32:2d:60:5a:
         30:78:b1:38:4b:49:09:0f:80:51:98:c4:d0:2d:45:03:24:cd:
         eb:27:47:41:8b:57:4c:40:44:57:8b:18:b1:64:98:be:55:28:
         45:b0:2d:86:2d:22:4e:4d:3e:1a:1c:e2:29:88:2c:e4:bb:c3:
         64:65:33:d8:c6:66:ae:63:58:08:01:f6:51:72:d2:3a:58:20:
         86:f6:53:d6:48:a6:df:e0:da:9f:c7:e1:76:c7:dc:33:a8:3c:
         3f:4d:39:25:9f:77:c0:e7:32:20:e4:ad:00:3c:86:54:74:eb:
         15:a5:fa:7c:d6:6f:2d:5b:ff:20:38:50:c9:c3:b1:f0:03:df:
         a7:93:10:60:15:71:76:9f:8b:3c:55:c9:54:aa:4d:87:8b:a6:
         39:88:82:c7:09:62:e4:6e:2a:55:7f:a5:37:c6:18:30:ae:ec:
         84:fb:35:2d:42:c1:e1:f3:55:41:50:a9:a4:14:84:85:b8:d3:
         b1:47:2e:58:71:34:df:c0:7c:fb:ea:0b:4f:e9:92:37:a7:c9:
         8a:3b:87:fd:08:fe:1e:d6:3e:07:86:fc:25:9f:5e:d2:97:9f:
         74:68:ab:e0:25:42:2b:cf:04:09:26:95:a3:03:e7:eb:f1:bd:
         df:db:f5:0e:be:fa:96:64:b5:82:ae:94:7a:1f:97:d5:72:b8:
         8b:b2:5c:89:93:7f:df:03:bd:90:ac:34:42:ff:54:3a:0d:47:
         4d:52:7e:f1:2d:f5:3f:a9:8f:e6:49:a4:ba:7b:56:2d:49:38:
         7e:94:92:0f:4d:d1:7a:79:4c:3a:5a:c1:9d:34:a3:7a:42:12:
         23:98:02:07:7b:ab:61:eb:6e:48:69:a7:81:9e:84:1a:0a:f9:
         ec:c4:2a:04:56:18:87:4c:97:fd:0b:68:8f:84:76:e1:2a:b5:
         a2:ee:e4:8a:d6:c2:f1:fe
-----BEGIN CERTIFICATE-----
MIIGrTCCBJWgAwIBAgICKr8wDQYJKoZIhvcNAQELBQAwgawxCzAJBgNVBAYTAlVT
MQswCQYDVQQIEwJPSDERMA8GA1UEBxMIQ29sdW1idXMxEjAQBgNVBAoTCVZpa2lu
Z1ZQTjEdMBsGA1UECxMUTXlPcmdhbml6YXRpb25hbFVuaXQxFTATBgNVBAMTDFZp
a2luZ1ZQTiBDQTEQMA4GA1UEKRMHRWFzeVJTQTEhMB8GCSqGSIb3DQEJARYSbWVA
bXlob3N0Lm15ZG9tYWluMB4XDTE3MDUxNTA3MTcyNFoXDTI3MDUxMzA3MTcyNFow
HzEdMBsGA1UEAxMUQ2xpZW50MjkxNUNlcnRmOWJkMDMwggIiMA0GCSqGSIb3DQEB
AQUAA4ICDwAwggIKAoICAQC70QWJmAkHOULef/70vZz++/xDsc4PBet7uXff2Hz5
J6AhBQx9QMIXLOhyQddC5S2rdSoISgVDs25Ravkm7ap7jPYlJoOuB4f+ST76B5Ro
Iwm7KX8a6kB/m4vrpJkWgMyEg7AO3pzlM5jP4lDQ5R44Xh2EQdnmywjQDP08+snK
c3e/UVaQEQ19sLuuguIz5Y5encr4XOX63EfxNzZAoy9IcXr7MX49jqdZPE6H0h6A
SULdUuRpZYTi6KUxIX8oYEeiHJOS52nIMrs3pL2VVf9x9mMaytN0N+7GCh6bzLIX
Qf9x/2ux0B6DfJJOYjdG9sVTC4NJ9F+WdU5h9J+tuK31yjw8X4niCeY7If/KK4YL
jV7tJ7cIKiMRZMUcYwLUx97rtRHdIQq+qov3HUXcb6Xead5eCq4KViXDZEz+oJ5w
l9meWBhvCLI57+XlbKoU4jah38UsQh3nA03Lf8f7nzYvKlEW3hf2FZ0W+xTd3aEm
6kQgTqLw08EqUw6VGAb0dqETJ5JGsLl86Z23ddu3vGxFNZgQHJZ4nKf1eGoIBfN2
SIh4oabbiEsu+/99utaed7Ky0MAgXZLOhoAgbn6JeY5fUTXdcC/YEBQtVkWF1u04
QW4n5dJnSEglh+pMV29TMiC/7Pfs9L2todBxKki/3TbvYUX0bv3puuS4IQZw/GuS
6QIDAQABo4IBYzCCAV8wCQYDVR0TBAIwADAtBglghkgBhvhCAQ0EIBYeRWFzeS1S
U0EgR2VuZXJhdGVkIENlcnRpZmljYXRlMB0GA1UdDgQWBBRFhMnbQ8UKuElwCtsl
7nbz3x8juzCB4QYDVR0jBIHZMIHWgBQSzWAE0qCAnnDtxpm4eyzGUv0ZoaGBsqSB
rzCBrDELMAkGA1UEBhMCVVMxCzAJBgNVBAgTAk9IMREwDwYDVQQHEwhDb2x1bWJ1
czESMBAGA1UEChMJVmlraW5nVlBOMR0wGwYDVQQLExRNeU9yZ2FuaXphdGlvbmFs
VW5pdDEVMBMGA1UEAxMMVmlraW5nVlBOIENBMRAwDgYDVQQpEwdFYXN5UlNBMSEw
HwYJKoZIhvcNAQkBFhJtZUBteWhvc3QubXlkb21haW6CCQDPNYXugL8qPjATBgNV
HSUEDDAKBggrBgEFBQcDAjALBgNVHQ8EBAMCB4AwDQYJKoZIhvcNAQELBQADggIB
ALuFx+ykWau1ZTsznfplzjgLXseLJO/UjOz+ZOK6npImlY2lrnp03bL7RIhNLxHD
58A1z2WSwReQrZboipQZSfCAFBd1OB/zdVe/t4StfQCRlFw+1XvoafSJsfcQGqxb
fp4WwvgT1qpUvw/18PAwFML38xzfvzHGpRXmX5R6Od2CNGjKR7op+ATtWh5sJEyj
mqBqTO0WWNjFfLPVPlZRMi1gWjB4sThLSQkPgFGYxNAtRQMkzesnR0GLV0xARFeL
GLFkmL5VKEWwLYYtIk5NPhoc4imILOS7w2RlM9jGZq5jWAgB9lFy0jpYIIb2U9ZI
pt/g2p/H4XbH3DOoPD9NOSWfd8DnMiDkrQA8hlR06xWl+nzWby1b/yA4UMnDsfAD
36eTEGAVcXafizxVyVSqTYeLpjmIgscJYuRuKlV/pTfGGDCu7IT7NS1CweHzVUFQ
qaQUhIW407FHLlhxNN/AfPvqC0/pkjenyYo7h/0I/h7WPgeG/CWfXtKXn3Roq+Al
QivPBAkmlaMD5+vxvd/b9Q6++pZktYKulHofl9VyuIuyXImTf98DvZCsNEL/VDoN
R01SfvEt9T+pj+ZJpLp7Vi1JOH6Ukg9N0Xp5TDpawZ00o3pCEiOYAgd7q2Hrbkhp
p4GehBoK+ezEKgRWGIdMl/0LaI+EduEqtaLu5IrWwvH+
-----END CERTIFICATE-----
