Certificate:
    Data:
        Version: 3 (0x2)
        Serial Number: 7968 (0x1f20)
    Signature Algorithm: md5WithRSAEncryption
        Issuer: C=US, ST=OH, L=Columbus, O=VikingVPN, OU=MyOrganizationalUnit, CN=VikingVPN CA/name=EasyRSA/emailAddress=me@myhost.mydomain
        Validity
            Not Before: May 12 17:21:53 2016 GMT
            Not After : May 10 17:21:53 2026 GMT
        Subject: CN=Client3Cert60a2ac
        Subject Public Key Info:
            Public Key Algorithm: rsaEncryption
                Public-Key: (4096 bit)
                Modulus:
                    00:b3:79:fc:e7:42:8f:1e:89:6d:9b:1a:c5:f2:91:
                    21:60:f0:8d:25:19:89:cc:d0:59:77:8b:60:a1:9f:
                    2a:d5:84:23:31:a2:a4:e1:cc:50:ac:d4:9e:b6:9d:
                    8b:d2:1a:fc:e5:1d:3d:c4:80:cb:87:a1:35:ca:5a:
                    24:2a:23:63:5e:62:41:b4:95:44:d6:44:40:47:32:
                    83:1c:6d:c2:a1:c1:d7:14:ea:dd:95:45:4a:84:31:
                    7f:a0:8e:62:40:a0:a7:5e:12:af:69:26:2a:f8:2f:
                    63:8e:1c:06:e8:c4:ce:85:73:c6:87:b9:a7:32:f8:
                    7a:ea:93:3e:0e:ea:2e:db:c1:88:38:d2:d0:1a:aa:
                    ef:fd:18:be:5f:2b:f9:05:e9:fb:bc:22:3b:31:fa:
                    dd:b3:6d:dc:4a:3d:94:75:7a:50:c6:dd:29:13:ec:
                    1c:f0:a9:45:ca:02:4b:57:3f:59:de:33:7f:29:e8:
                    e6:d0:36:f1:0d:d4:98:ac:4c:a2:a4:f3:0c:82:80:
                    aa:05:dc:9c:bf:08:1a:41:e3:b6:90:56:cf:e5:9b:
                    6f:c3:6f:ae:d2:3e:70:9d:cd:7a:31:5f:2a:b8:cf:
                    a2:49:d6:34:c8:10:33:d2:a2:e7:65:a0:10:8a:83:
                    83:a6:f6:22:a5:ff:6a:c4:06:a2:a2:af:77:65:23:
                    db:1a:71:be:5f:aa:d5:94:83:6b:29:f9:93:c0:87:
                    97:76:b4:46:af:1d:18:87:4e:5f:e7:04:fe:47:11:
                    e0:f7:fb:51:02:95:32:71:e5:00:0a:1f:1f:ba:34:
                    68:d1:38:64:b5:d3:83:b4:65:60:18:e9:52:21:ce:
                    e9:46:00:ce:27:79:8e:f8:6c:44:16:21:fd:be:04:
                    ff:ba:55:61:2c:f8:b8:04:ba:db:cf:3d:21:31:26:
                    ed:71:72:a0:38:86:71:6d:7e:10:2f:b7:a1:f8:4d:
                    dc:cb:da:60:23:ef:b5:a6:0e:bf:8a:10:36:6d:84:
                    36:be:cd:17:5d:b8:9b:17:94:ee:e1:d9:45:81:3e:
                    4e:fa:b6:8e:5e:bd:03:b5:3c:59:c1:12:cb:96:87:
                    b5:40:e6:39:51:77:8b:77:e3:93:52:9a:6a:a2:4c:
                    06:a5:9a:14:7c:8c:1c:dc:d3:a0:78:46:1c:52:c0:
                    70:cf:ed:3f:76:03:e0:bf:4c:b3:01:ed:3b:84:6c:
                    36:8a:68:93:dd:3f:ce:be:93:8c:2d:0f:ae:ec:36:
                    ed:ed:55:13:b9:52:e2:2f:e3:a5:95:13:f0:ca:79:
                    e2:03:28:5c:8b:83:77:e7:1a:91:56:b8:cc:d6:ec:
                    45:38:e4:db:e3:10:be:83:ce:cf:4b:a4:25:50:b9:
                    22:40:77
                Exponent: 65537 (0x10001)
        X509v3 extensions:
            X509v3 Basic Constraints: 
                CA:FALSE
            Netscape Comment: 
                Easy-RSA Generated Certificate
            X509v3 Subject Key Identifier: 
                78:54:28:6D:54:B9:5B:F2:30:FE:1C:14:7E:9D:2C:31:3C:10:79:85
            X509v3 Authority Key Identifier: 
                keyid:12:CD:60:04:D2:A0:80:9E:70:ED:C6:99:B8:7B:2C:C6:52:FD:19:A1
                DirName:/C=US/ST=OH/L=Columbus/O=VikingVPN/OU=MyOrganizationalUnit/CN=VikingVPN CA/name=EasyRSA/emailAddress=me@myhost.mydomain
                serial:CF:35:85:EE:80:BF:2A:3E

            X509v3 Extended Key Usage: 
                TLS Web Client Authentication
            X509v3 Key Usage: 
                Digital Signature
    Signature Algorithm: md5WithRSAEncryption
         90:36:b5:64:ed:5c:94:47:b2:95:d9:ee:a9:03:98:24:a0:b6:
         4a:c4:c8:a9:11:11:34:de:9e:3c:82:66:73:e7:2f:c8:39:7a:
         09:ea:06:d3:e0:d7:0f:d2:f9:2e:4c:4d:a7:42:24:5b:bd:9d:
         8f:9c:74:9a:d2:2f:04:39:cf:91:16:27:1d:ed:7f:2d:83:47:
         d4:f7:ff:2b:22:ec:4b:1f:5a:ba:e3:dd:09:2f:9a:dd:50:09:
         f0:af:c4:ff:43:fc:49:5e:dc:5b:f5:8b:d8:cd:69:8b:d9:b7:
         77:7b:24:32:fd:4c:bf:45:f6:98:5b:df:11:b6:ca:d8:d7:cb:
         36:08:85:6b:74:39:81:58:a6:07:de:f2:e0:ba:0f:4d:b3:26:
         8c:c8:10:41:f9:cc:8a:82:1a:5f:a6:c6:9a:2e:6c:46:dc:fa:
         aa:7b:e1:62:36:8f:62:57:5a:9e:68:a1:98:45:72:df:e0:3e:
         21:f5:38:f5:52:b1:ec:16:5f:04:78:09:98:29:b4:f0:4e:8b:
         03:f3:66:b2:fe:f1:7c:64:a6:6a:b3:65:08:c7:2d:d2:fc:11:
         4e:17:0b:c7:33:6a:23:c5:e1:f5:1f:7c:68:aa:fb:f9:e9:c2:
         36:47:06:24:0b:7f:ed:40:ae:13:00:4f:91:b9:2d:22:42:d3:
         36:76:c8:09:1c:a1:b5:00:cc:f4:ff:59:85:29:11:ec:05:dd:
         45:ed:b1:b7:b4:2b:0d:3b:4d:6c:37:3f:14:f8:2d:7f:77:1a:
         a8:b3:45:77:e5:1f:75:cb:68:86:1d:69:bb:94:96:50:5a:1a:
         69:e5:d0:7a:54:d9:e5:00:cd:e8:e2:03:3d:fc:ff:0d:3e:85:
         44:b8:12:5e:c8:8b:8e:0b:64:1c:41:b8:11:73:2c:95:0c:fc:
         0e:af:7f:4b:40:1b:2f:36:fc:d5:bc:be:0f:e1:5b:94:09:ee:
         76:1e:2b:7c:9f:a8:b6:12:4d:55:1d:ac:a0:1a:43:be:e7:65:
         7f:6a:df:c3:bc:d7:9f:f6:e6:83:1e:6e:5f:ae:7c:fd:28:af:
         bb:b6:3e:3e:64:39:a4:24:31:3c:dc:13:75:36:64:24:26:9d:
         20:be:96:02:10:62:d4:56:46:21:6f:00:39:61:59:e8:db:c5:
         5a:c8:b5:39:68:b4:d2:9d:27:99:29:08:c1:3e:14:7c:10:26:
         75:e7:b2:1b:f0:12:5f:ea:08:11:45:48:ca:d3:38:15:d8:32:
         2d:bd:41:f8:85:a1:8f:1c:6e:69:c4:57:36:4d:c4:14:2e:3d:
         49:7a:fc:c8:12:2b:7f:34:af:2c:d9:24:27:f2:26:1f:4c:a7:
         5d:dd:a7:87:fd:3f:e0:72
-----BEGIN CERTIFICATE-----
MIIGqjCCBJKgAwIBAgICHyAwDQYJKoZIhvcNAQEEBQAwgawxCzAJBgNVBAYTAlVT
MQswCQYDVQQIEwJPSDERMA8GA1UEBxMIQ29sdW1idXMxEjAQBgNVBAoTCVZpa2lu
Z1ZQTjEdMBsGA1UECxMUTXlPcmdhbml6YXRpb25hbFVuaXQxFTATBgNVBAMTDFZp
a2luZ1ZQTiBDQTEQMA4GA1UEKRMHRWFzeVJTQTEhMB8GCSqGSIb3DQEJARYSbWVA
bXlob3N0Lm15ZG9tYWluMB4XDTE2MDUxMjE3MjE1M1oXDTI2MDUxMDE3MjE1M1ow
HDEaMBgGA1UEAxMRQ2xpZW50M0NlcnQ2MGEyYWMwggIiMA0GCSqGSIb3DQEBAQUA
A4ICDwAwggIKAoICAQCzefznQo8eiW2bGsXykSFg8I0lGYnM0Fl3i2ChnyrVhCMx
oqThzFCs1J62nYvSGvzlHT3EgMuHoTXKWiQqI2NeYkG0lUTWREBHMoMcbcKhwdcU
6t2VRUqEMX+gjmJAoKdeEq9pJir4L2OOHAboxM6Fc8aHuacy+Hrqkz4O6i7bwYg4
0tAaqu/9GL5fK/kF6fu8Ijsx+t2zbdxKPZR1elDG3SkT7BzwqUXKAktXP1neM38p
6ObQNvEN1JisTKKk8wyCgKoF3Jy/CBpB47aQVs/lm2/Db67SPnCdzXoxXyq4z6JJ
1jTIEDPSoudloBCKg4Om9iKl/2rEBqKir3dlI9sacb5fqtWUg2sp+ZPAh5d2tEav
HRiHTl/nBP5HEeD3+1EClTJx5QAKHx+6NGjROGS104O0ZWAY6VIhzulGAM4neY74
bEQWIf2+BP+6VWEs+LgEutvPPSExJu1xcqA4hnFtfhAvt6H4TdzL2mAj77WmDr+K
EDZthDa+zRdduJsXlO7h2UWBPk76to5evQO1PFnBEsuWh7VA5jlRd4t345NSmmqi
TAalmhR8jBzc06B4RhxSwHDP7T92A+C/TLMB7TuEbDaKaJPdP86+k4wtD67sNu3t
VRO5UuIv46WVE/DKeeIDKFyLg3fnGpFWuMzW7EU45NvjEL6Dzs9LpCVQuSJAdwID
AQABo4IBYzCCAV8wCQYDVR0TBAIwADAtBglghkgBhvhCAQ0EIBYeRWFzeS1SU0Eg
R2VuZXJhdGVkIENlcnRpZmljYXRlMB0GA1UdDgQWBBR4VChtVLlb8jD+HBR+nSwx
PBB5hTCB4QYDVR0jBIHZMIHWgBQSzWAE0qCAnnDtxpm4eyzGUv0ZoaGBsqSBrzCB
rDELMAkGA1UEBhMCVVMxCzAJBgNVBAgTAk9IMREwDwYDVQQHEwhDb2x1bWJ1czES
MBAGA1UEChMJVmlraW5nVlBOMR0wGwYDVQQLExRNeU9yZ2FuaXphdGlvbmFsVW5p
dDEVMBMGA1UEAxMMVmlraW5nVlBOIENBMRAwDgYDVQQpEwdFYXN5UlNBMSEwHwYJ
KoZIhvcNAQkBFhJtZUBteWhvc3QubXlkb21haW6CCQDPNYXugL8qPjATBgNVHSUE
DDAKBggrBgEFBQcDAjALBgNVHQ8EBAMCB4AwDQYJKoZIhvcNAQEEBQADggIBAJA2
tWTtXJRHspXZ7qkDmCSgtkrEyKkRETTenjyCZnPnL8g5egnqBtPg1w/S+S5MTadC
JFu9nY+cdJrSLwQ5z5EWJx3tfy2DR9T3/ysi7EsfWrrj3Qkvmt1QCfCvxP9D/Ele
3Fv1i9jNaYvZt3d7JDL9TL9F9phb3xG2ytjXyzYIhWt0OYFYpgfe8uC6D02zJozI
EEH5zIqCGl+mxpoubEbc+qp74WI2j2JXWp5ooZhFct/gPiH1OPVSsewWXwR4CZgp
tPBOiwPzZrL+8XxkpmqzZQjHLdL8EU4XC8czaiPF4fUffGiq+/npwjZHBiQLf+1A
rhMAT5G5LSJC0zZ2yAkcobUAzPT/WYUpEewF3UXtsbe0Kw07TWw3PxT4LX93Gqiz
RXflH3XLaIYdabuUllBaGmnl0HpU2eUAzejiAz38/w0+hUS4El7Ii44LZBxBuBFz
LJUM/A6vf0tAGy82/NW8vg/hW5QJ7nYeK3yfqLYSTVUdrKAaQ77nZX9q38O815/2
5oMebl+ufP0or7u2Pj5kOaQkMTzcE3U2ZCQmnSC+lgIQYtRWRiFvADlhWejbxVrI
tTlotNKdJ5kpCME+FHwQJnXnshvwEl/qCBFFSMrTOBXYMi29QfiFoY8cbmnEVzZN
xBQuPUl6/MgSK380ryzZJCfyJh9Mp13dp4f9P+By
-----END CERTIFICATE-----
