Certificate:
    Data:
        Version: 3 (0x2)
        Serial Number: 4260 (0x10a4)
    Signature Algorithm: md5WithRSAEncryption
        Issuer: C=US, ST=OH, L=Columbus, O=VikingVPN, OU=MyOrganizationalUnit, CN=VikingVPN CA/name=EasyRSA/emailAddress=me@myhost.mydomain
        Validity
            Not Before: Jan 25 05:37:42 2015 GMT
            Not After : Jan 22 05:37:42 2025 GMT
        Subject: CN=Client1394Cert2db1c6
        Subject Public Key Info:
            Public Key Algorithm: rsaEncryption
                Public-Key: (4096 bit)
                Modulus:
                    00:ab:3e:35:78:0a:30:ce:9f:8c:89:0f:b9:66:4a:
                    5f:89:5d:c4:58:5f:4c:33:41:c9:98:32:8e:9a:b9:
                    82:b0:50:9f:ad:70:c1:ca:e0:3a:98:b3:bd:bc:a4:
                    82:4d:86:ff:37:fc:0b:df:82:12:6b:b3:c9:c9:a6:
                    4d:aa:ed:e6:69:52:63:4c:68:a0:ba:8e:e5:10:e3:
                    66:7a:07:36:8d:30:94:34:9d:5d:02:8f:39:cf:f6:
                    12:06:cf:1a:51:cc:6c:d7:75:aa:f6:13:62:9d:f9:
                    07:fb:12:fa:6c:6b:14:12:fa:a8:40:02:1f:c5:33:
                    20:89:23:ac:74:d0:d1:c1:37:53:69:65:bc:06:ce:
                    02:5d:9d:9a:88:b2:da:4b:99:74:b0:29:3d:bc:72:
                    e0:5a:49:ab:62:74:4d:ac:73:22:08:9b:7c:a4:31:
                    8d:e1:c3:4b:0b:d4:a5:91:f7:69:d3:58:68:c5:fc:
                    ab:99:65:de:04:7c:2a:80:16:16:0d:c1:f2:22:58:
                    81:18:e7:62:b8:8d:0c:48:5c:47:b5:9a:34:7f:5f:
                    71:c1:3a:d6:be:f6:05:7a:b7:28:93:20:64:71:b8:
                    91:01:48:91:11:a9:98:40:78:4b:2e:ba:6d:f4:c7:
                    b7:92:42:5b:20:28:c0:41:28:bb:ad:9d:6c:ee:49:
                    0e:75:1f:88:8a:af:8b:a0:a9:32:d3:59:48:07:f3:
                    3a:96:8c:57:92:f8:8a:63:e9:66:a5:67:2a:a2:e4:
                    21:fe:7c:c1:66:37:c9:b2:e8:62:9e:a3:7f:d2:bb:
                    f6:07:31:73:50:8e:1d:e5:5b:44:13:1d:e0:6a:92:
                    5e:3c:aa:10:43:2d:24:7f:bc:03:5a:5d:3d:cd:32:
                    f3:5f:97:04:28:1a:b4:a3:6b:73:43:a8:93:f6:d7:
                    e1:1a:37:04:5b:56:bb:c7:29:de:cd:e3:ba:cc:83:
                    94:af:41:d5:58:af:91:b5:71:87:93:10:a1:22:2f:
                    b1:2b:4f:e5:ad:ec:c7:76:85:93:06:09:bc:90:58:
                    98:c2:54:06:ca:f7:ff:80:cc:0a:70:0b:30:1c:39:
                    4e:c3:76:30:fa:57:4c:00:aa:f3:47:7d:87:28:61:
                    5f:95:6c:55:29:64:de:79:22:28:64:ea:e4:1a:9b:
                    d5:90:a6:74:ab:3d:bd:41:6a:64:17:85:2a:c2:ce:
                    ee:a0:74:4a:9e:9a:c5:db:37:a9:fc:bc:ba:cc:91:
                    33:43:4e:70:f5:9d:d9:39:2f:cc:52:d5:8a:03:41:
                    c6:7f:c8:77:89:5f:36:ea:3f:23:fa:ec:05:37:71:
                    99:38:d3:0c:6e:93:bf:95:96:89:73:92:04:a1:fe:
                    4b:b3:e9
                Exponent: 65537 (0x10001)
        X509v3 extensions:
            X509v3 Basic Constraints: 
                CA:FALSE
            Netscape Comment: 
                Easy-RSA Generated Certificate
            X509v3 Subject Key Identifier: 
                DC:58:9E:62:3B:B7:43:A5:4E:F3:C8:AA:F0:50:E9:86:54:E6:09:A7
            X509v3 Authority Key Identifier: 
                keyid:12:CD:60:04:D2:A0:80:9E:70:ED:C6:99:B8:7B:2C:C6:52:FD:19:A1
                DirName:/C=US/ST=OH/L=Columbus/O=VikingVPN/OU=MyOrganizationalUnit/CN=VikingVPN CA/name=EasyRSA/emailAddress=me@myhost.mydomain
                serial:CF:35:85:EE:80:BF:2A:3E

            X509v3 Extended Key Usage: 
                TLS Web Client Authentication
            X509v3 Key Usage: 
                Digital Signature
    Signature Algorithm: md5WithRSAEncryption
         4e:38:45:51:6c:f5:61:a8:fc:fa:af:15:56:22:5d:35:98:44:
         b1:d4:c0:06:14:8a:59:0b:1a:db:84:2f:c2:14:60:ed:07:28:
         b3:dd:38:b9:53:b6:6e:b1:92:f6:c0:88:e5:c6:26:65:f2:98:
         2e:d6:f9:48:c1:9f:0f:45:2f:6b:ca:a5:3b:a7:81:1c:4d:d9:
         87:75:23:10:b3:79:70:8e:f9:b9:5d:a9:93:62:1c:47:b4:06:
         d3:25:60:9d:fc:b4:dc:bd:e4:00:8c:2b:9d:11:c1:dc:1b:39:
         85:f7:54:2c:7d:98:0a:20:a2:21:ad:b4:5c:0b:a6:c2:1c:f1:
         0f:47:49:69:4e:6c:bc:8b:d9:70:68:cf:94:f9:2d:78:08:47:
         57:23:09:fb:7c:13:41:2a:85:37:5a:20:e1:40:44:56:fd:ec:
         af:9f:04:16:9b:61:78:ba:d3:e2:91:45:12:14:5a:b3:39:a1:
         0b:ce:b7:de:f2:d3:b7:60:d9:da:f1:79:d2:56:0f:f4:8f:dc:
         d2:7e:d5:4d:ec:33:43:08:ea:2c:93:f9:2b:4e:dd:87:e3:65:
         cd:2e:10:29:20:1f:2e:46:12:0c:91:74:8a:68:45:d7:ee:d3:
         39:d4:5a:0b:01:e0:f3:4a:9d:6b:ad:8f:3b:49:d6:0f:b3:e4:
         ae:84:ec:55:e1:7d:f0:5f:38:f3:67:ff:fe:b5:6b:35:70:d9:
         37:e3:9e:d9:0b:ab:2e:94:20:d0:94:90:17:11:b6:48:78:57:
         64:ac:5f:08:e9:a8:c1:1a:22:76:7f:54:a4:cb:b2:18:73:f4:
         19:f6:ff:fb:e3:ba:93:1e:2d:70:d0:4f:82:15:95:ad:b1:49:
         92:6e:6f:85:a3:1e:fc:85:d0:1b:c6:52:74:1f:37:3f:2b:95:
         35:2a:21:de:70:48:7d:db:22:e4:b0:23:64:d5:16:ce:15:bf:
         bf:d8:2c:49:a6:e2:b6:6f:f5:3b:6b:31:2f:5e:5e:07:5f:75:
         76:07:32:fd:5b:0f:2f:b7:ee:f2:56:df:2d:23:fd:bd:ed:84:
         66:1a:39:b7:38:67:02:f9:86:dd:28:f8:e1:bb:66:af:3b:9e:
         d7:7a:11:56:78:3d:5c:45:62:73:06:4d:a1:d8:ec:67:9e:d1:
         3e:69:10:89:c1:23:48:ac:ef:9e:61:74:5b:b4:86:9d:0e:6e:
         6d:0e:a3:01:ec:21:22:7f:0a:de:7e:6a:0e:41:8c:fc:56:cd:
         b6:18:2a:34:ce:09:09:7b:28:fc:f5:e0:ec:eb:21:b4:b7:42:
         6c:21:6d:cf:7d:23:39:f8:03:bd:8a:85:ca:6d:38:d0:84:a1:
         7d:2b:eb:63:32:24:79:99
-----BEGIN CERTIFICATE-----
MIIGrTCCBJWgAwIBAgICEKQwDQYJKoZIhvcNAQEEBQAwgawxCzAJBgNVBAYTAlVT
MQswCQYDVQQIEwJPSDERMA8GA1UEBxMIQ29sdW1idXMxEjAQBgNVBAoTCVZpa2lu
Z1ZQTjEdMBsGA1UECxMUTXlPcmdhbml6YXRpb25hbFVuaXQxFTATBgNVBAMTDFZp
a2luZ1ZQTiBDQTEQMA4GA1UEKRMHRWFzeVJTQTEhMB8GCSqGSIb3DQEJARYSbWVA
bXlob3N0Lm15ZG9tYWluMB4XDTE1MDEyNTA1Mzc0MloXDTI1MDEyMjA1Mzc0Mlow
HzEdMBsGA1UEAxMUQ2xpZW50MTM5NENlcnQyZGIxYzYwggIiMA0GCSqGSIb3DQEB
AQUAA4ICDwAwggIKAoICAQCrPjV4CjDOn4yJD7lmSl+JXcRYX0wzQcmYMo6auYKw
UJ+tcMHK4DqYs728pIJNhv83/AvfghJrs8nJpk2q7eZpUmNMaKC6juUQ42Z6BzaN
MJQ0nV0CjznP9hIGzxpRzGzXdar2E2Kd+Qf7EvpsaxQS+qhAAh/FMyCJI6x00NHB
N1NpZbwGzgJdnZqIstpLmXSwKT28cuBaSatidE2scyIIm3ykMY3hw0sL1KWR92nT
WGjF/KuZZd4EfCqAFhYNwfIiWIEY52K4jQxIXEe1mjR/X3HBOta+9gV6tyiTIGRx
uJEBSJERqZhAeEsuum30x7eSQlsgKMBBKLutnWzuSQ51H4iKr4ugqTLTWUgH8zqW
jFeS+Ipj6WalZyqi5CH+fMFmN8my6GKeo3/Su/YHMXNQjh3lW0QTHeBqkl48qhBD
LSR/vANaXT3NMvNflwQoGrSja3NDqJP21+EaNwRbVrvHKd7N47rMg5SvQdVYr5G1
cYeTEKEiL7ErT+Wt7Md2hZMGCbyQWJjCVAbK9/+AzApwCzAcOU7DdjD6V0wAqvNH
fYcoYV+VbFUpZN55Iihk6uQam9WQpnSrPb1BamQXhSrCzu6gdEqemsXbN6n8vLrM
kTNDTnD1ndk5L8xS1YoDQcZ/yHeJXzbqPyP67AU3cZk40wxuk7+VlolzkgSh/kuz
6QIDAQABo4IBYzCCAV8wCQYDVR0TBAIwADAtBglghkgBhvhCAQ0EIBYeRWFzeS1S
U0EgR2VuZXJhdGVkIENlcnRpZmljYXRlMB0GA1UdDgQWBBTcWJ5iO7dDpU7zyKrw
UOmGVOYJpzCB4QYDVR0jBIHZMIHWgBQSzWAE0qCAnnDtxpm4eyzGUv0ZoaGBsqSB
rzCBrDELMAkGA1UEBhMCVVMxCzAJBgNVBAgTAk9IMREwDwYDVQQHEwhDb2x1bWJ1
czESMBAGA1UEChMJVmlraW5nVlBOMR0wGwYDVQQLExRNeU9yZ2FuaXphdGlvbmFs
VW5pdDEVMBMGA1UEAxMMVmlraW5nVlBOIENBMRAwDgYDVQQpEwdFYXN5UlNBMSEw
HwYJKoZIhvcNAQkBFhJtZUBteWhvc3QubXlkb21haW6CCQDPNYXugL8qPjATBgNV
HSUEDDAKBggrBgEFBQcDAjALBgNVHQ8EBAMCB4AwDQYJKoZIhvcNAQEEBQADggIB
AE44RVFs9WGo/PqvFVYiXTWYRLHUwAYUilkLGtuEL8IUYO0HKLPdOLlTtm6xkvbA
iOXGJmXymC7W+UjBnw9FL2vKpTungRxN2Yd1IxCzeXCO+bldqZNiHEe0BtMlYJ38
tNy95ACMK50RwdwbOYX3VCx9mAogoiGttFwLpsIc8Q9HSWlObLyL2XBoz5T5LXgI
R1cjCft8E0EqhTdaIOFARFb97K+fBBabYXi60+KRRRIUWrM5oQvOt97y07dg2drx
edJWD/SP3NJ+1U3sM0MI6iyT+StO3YfjZc0uECkgHy5GEgyRdIpoRdfu0znUWgsB
4PNKnWutjztJ1g+z5K6E7FXhffBfOPNn//61azVw2TfjntkLqy6UINCUkBcRtkh4
V2SsXwjpqMEaInZ/VKTLshhz9Bn2//vjupMeLXDQT4IVla2xSZJub4WjHvyF0BvG
UnQfNz8rlTUqId5wSH3bIuSwI2TVFs4Vv7/YLEmm4rZv9TtrMS9eXgdfdXYHMv1b
Dy+37vJW3y0j/b3thGYaObc4ZwL5ht0o+OG7Zq87ntd6EVZ4PVxFYnMGTaHY7Gee
0T5pEInBI0is755hdFu0hp0Obm0OowHsISJ/Ct5+ag5BjPxWzbYYKjTOCQl7KPz1
4OzrIbS3Qmwhbc99Izn4A72KhcptONCEoX0r62MyJHmZ
-----END CERTIFICATE-----
