Certificate:
    Data:
        Version: 3 (0x2)
        Serial Number: 6530 (0x1982)
    Signature Algorithm: md5WithRSAEncryption
        Issuer: C=US, ST=OH, L=Columbus, O=VikingVPN, OU=MyOrganizationalUnit, CN=VikingVPN CA/name=EasyRSA/emailAddress=me@myhost.mydomain
        Validity
            Not Before: Oct 21 14:03:32 2015 GMT
            Not After : Oct 18 14:03:32 2025 GMT
        Subject: CN=Client2011Certcad216
        Subject Public Key Info:
            Public Key Algorithm: rsaEncryption
                Public-Key: (4096 bit)
                Modulus:
                    00:d5:bb:33:d8:a0:18:47:52:48:02:d5:95:c5:b7:
                    fa:3e:13:58:25:ad:a0:73:cf:3c:f0:a9:50:0f:cf:
                    61:e5:2a:47:05:f4:eb:d5:a0:48:f8:39:11:99:9d:
                    d0:d1:9f:b4:89:1c:0b:c5:2a:a3:fc:48:8e:8a:b0:
                    a2:47:8b:19:54:28:64:9e:ff:37:0c:3b:f9:6c:09:
                    91:c1:ec:08:f2:2e:a2:4c:19:08:36:da:8f:3e:70:
                    0c:b9:37:b5:13:7a:a9:4f:87:74:e5:20:05:11:28:
                    a5:a4:a2:88:5f:07:dd:49:b8:d7:44:b6:a7:d0:4b:
                    d0:a4:8e:69:99:a1:ed:c6:da:2d:be:13:fa:b9:14:
                    e5:bc:3b:0b:11:a6:0f:7d:5b:1e:e2:54:8b:0c:b2:
                    5f:70:2c:96:72:bc:a6:24:02:5e:99:9e:68:34:1c:
                    24:3a:9f:29:ce:34:f5:c0:7b:51:33:6c:47:a6:3e:
                    5b:f4:ce:d3:49:2b:33:74:5e:ca:36:64:1d:1d:a2:
                    0a:85:76:86:82:75:f0:98:21:7e:1a:f6:86:16:81:
                    b3:65:bc:8a:34:32:88:3d:39:ba:22:ae:04:47:9b:
                    5f:7f:4d:85:6d:b2:33:82:cf:51:3a:bb:3c:9e:85:
                    93:87:08:ee:59:d5:bf:8f:2b:59:7a:03:c2:21:9d:
                    31:d0:9d:c3:8a:10:61:56:be:26:15:6f:8f:6e:68:
                    8f:c7:fd:eb:e9:e9:ce:f2:20:c3:8a:6f:a1:3a:af:
                    f9:36:86:25:65:08:ce:87:56:34:60:2c:93:78:60:
                    4b:a5:eb:21:8c:13:cb:ef:00:e5:04:7c:95:f4:98:
                    59:6b:61:fa:e3:73:65:7d:3d:14:60:48:bf:be:14:
                    b9:81:e8:2a:ee:7a:d6:34:f6:9c:2d:b4:4d:1d:10:
                    a2:82:7e:4f:df:78:9c:98:32:aa:07:19:70:69:ba:
                    3c:20:08:fe:19:6b:e4:0d:2f:2d:72:50:71:c2:48:
                    00:b7:79:c1:33:b8:71:ab:08:25:af:df:b2:4f:ee:
                    9a:26:3e:cf:10:a1:b4:98:76:81:6c:54:68:d9:b2:
                    b7:d0:28:87:f1:c6:3d:a7:74:1f:cb:a5:d5:9f:a9:
                    52:11:f0:1c:4a:9a:0c:87:cd:c1:14:56:62:4a:c5:
                    5e:59:cf:42:7b:61:b3:2c:3b:80:74:88:29:2d:eb:
                    82:ee:76:9b:3a:29:f1:4c:b9:88:34:f5:77:ed:c6:
                    61:b2:5b:b8:74:7c:76:18:63:5b:d9:0b:97:30:a9:
                    24:73:0a:52:67:e6:d9:86:80:f1:7c:75:a7:ff:51:
                    6a:d8:fe:0b:ab:ea:fd:b6:12:c1:3a:32:a0:6b:b6:
                    2a:ca:c5
                Exponent: 65537 (0x10001)
        X509v3 extensions:
            X509v3 Basic Constraints: 
                CA:FALSE
            Netscape Comment: 
                Easy-RSA Generated Certificate
            X509v3 Subject Key Identifier: 
                02:0D:1C:CC:20:DD:1A:1C:3A:49:BB:9A:22:EE:CC:C6:C3:84:5A:6D
            X509v3 Authority Key Identifier: 
                keyid:12:CD:60:04:D2:A0:80:9E:70:ED:C6:99:B8:7B:2C:C6:52:FD:19:A1
                DirName:/C=US/ST=OH/L=Columbus/O=VikingVPN/OU=MyOrganizationalUnit/CN=VikingVPN CA/name=EasyRSA/emailAddress=me@myhost.mydomain
                serial:CF:35:85:EE:80:BF:2A:3E

            X509v3 Extended Key Usage: 
                TLS Web Client Authentication
            X509v3 Key Usage: 
                Digital Signature
    Signature Algorithm: md5WithRSAEncryption
         a5:21:d2:ef:a1:78:4e:bf:45:12:dd:72:cd:f4:12:9c:6d:f5:
         aa:92:3c:8c:5d:08:f6:09:1b:69:2d:62:41:d3:72:df:0b:e2:
         99:3f:d3:3b:a9:76:a9:84:a4:17:a7:5d:e4:9d:d8:3d:72:57:
         f6:bd:3f:9a:8b:6c:81:88:6a:c9:8b:dc:77:6c:81:95:7f:40:
         ab:2d:10:71:0a:98:74:ba:cc:7b:f4:ff:15:d5:17:fb:e7:94:
         15:0f:49:fd:c2:e1:fa:51:b9:9f:06:52:97:84:27:4d:5c:3e:
         e4:bc:42:f0:48:0a:02:eb:99:19:4d:6f:fc:bf:ae:b9:e0:66:
         02:d4:73:83:28:13:12:6a:f8:1c:69:2a:d6:cf:e8:4b:4e:6f:
         7b:18:df:e0:41:82:d3:3d:17:e0:af:76:e5:fb:68:e3:92:31:
         3f:8c:6d:a5:8a:40:0f:64:e5:c2:ca:b4:3d:f9:8d:14:df:b6:
         73:e8:14:20:a3:19:c4:bf:49:e5:3d:1d:7f:60:8a:30:48:6d:
         b7:15:46:6f:d8:fa:78:b7:75:c9:61:7b:e0:a1:d5:09:ca:71:
         ae:d6:6d:38:0b:c2:ec:3e:51:02:30:4e:01:56:86:aa:e5:eb:
         cc:ee:a3:e3:ba:08:51:90:de:37:0a:36:f3:20:e2:96:79:ee:
         ae:37:54:6a:b1:df:9b:11:f1:f3:d4:15:40:9b:dd:25:c8:49:
         a9:5c:29:18:60:6a:3c:48:6b:a9:55:df:25:c8:e8:b9:53:c2:
         2b:c7:06:77:0d:0b:69:e9:00:c0:52:10:d4:6a:4d:5d:d8:8d:
         31:6a:88:65:5c:96:b3:1f:fa:72:e5:7d:39:41:99:37:e3:00:
         58:de:8d:c0:10:93:0e:00:94:06:b3:fa:49:72:be:ba:d8:a3:
         22:93:5d:a4:be:c0:e8:3f:9e:7f:36:8c:0b:7d:d3:1e:49:71:
         18:1a:89:e9:01:25:a9:79:70:be:f1:49:08:e7:2e:65:c2:66:
         3d:c3:4d:89:52:a2:40:3a:f3:4a:31:75:75:4d:2a:de:3f:7b:
         00:9e:84:d8:83:96:fa:6b:38:5d:d8:71:35:82:8a:39:87:78:
         51:de:53:fb:52:c9:4c:dc:92:70:64:7e:0e:60:4f:d5:67:0a:
         72:ce:30:7a:5d:75:a9:9e:48:96:8b:2e:29:20:60:13:5a:df:
         81:b7:b4:f8:36:63:f6:2a:4a:42:e3:7d:6b:eb:17:8f:9e:e8:
         2c:35:5e:47:ad:07:d6:bd:d2:bf:37:67:e5:85:2a:05:ff:2d:
         6f:f5:0b:21:a6:29:26:f9:c5:75:d3:63:cf:cd:66:ea:bd:26:
         6d:f8:93:cd:3b:25:fe:77
-----BEGIN CERTIFICATE-----
MIIGrTCCBJWgAwIBAgICGYIwDQYJKoZIhvcNAQEEBQAwgawxCzAJBgNVBAYTAlVT
MQswCQYDVQQIEwJPSDERMA8GA1UEBxMIQ29sdW1idXMxEjAQBgNVBAoTCVZpa2lu
Z1ZQTjEdMBsGA1UECxMUTXlPcmdhbml6YXRpb25hbFVuaXQxFTATBgNVBAMTDFZp
a2luZ1ZQTiBDQTEQMA4GA1UEKRMHRWFzeVJTQTEhMB8GCSqGSIb3DQEJARYSbWVA
bXlob3N0Lm15ZG9tYWluMB4XDTE1MTAyMTE0MDMzMloXDTI1MTAxODE0MDMzMlow
HzEdMBsGA1UEAxMUQ2xpZW50MjAxMUNlcnRjYWQyMTYwggIiMA0GCSqGSIb3DQEB
AQUAA4ICDwAwggIKAoICAQDVuzPYoBhHUkgC1ZXFt/o+E1glraBzzzzwqVAPz2Hl
KkcF9OvVoEj4ORGZndDRn7SJHAvFKqP8SI6KsKJHixlUKGSe/zcMO/lsCZHB7Ajy
LqJMGQg22o8+cAy5N7UTeqlPh3TlIAURKKWkoohfB91JuNdEtqfQS9CkjmmZoe3G
2i2+E/q5FOW8OwsRpg99Wx7iVIsMsl9wLJZyvKYkAl6Znmg0HCQ6nynONPXAe1Ez
bEemPlv0ztNJKzN0Xso2ZB0dogqFdoaCdfCYIX4a9oYWgbNlvIo0Mog9OboirgRH
m19/TYVtsjOCz1E6uzyehZOHCO5Z1b+PK1l6A8IhnTHQncOKEGFWviYVb49uaI/H
/evp6c7yIMOKb6E6r/k2hiVlCM6HVjRgLJN4YEul6yGME8vvAOUEfJX0mFlrYfrj
c2V9PRRgSL++FLmB6CruetY09pwttE0dEKKCfk/feJyYMqoHGXBpujwgCP4Za+QN
Ly1yUHHCSAC3ecEzuHGrCCWv37JP7pomPs8QobSYdoFsVGjZsrfQKIfxxj2ndB/L
pdWfqVIR8BxKmgyHzcEUVmJKxV5Zz0J7YbMsO4B0iCkt64Ludps6KfFMuYg09Xft
xmGyW7h0fHYYY1vZC5cwqSRzClJn5tmGgPF8daf/UWrY/gur6v22EsE6MqBrtirK
xQIDAQABo4IBYzCCAV8wCQYDVR0TBAIwADAtBglghkgBhvhCAQ0EIBYeRWFzeS1S
U0EgR2VuZXJhdGVkIENlcnRpZmljYXRlMB0GA1UdDgQWBBQCDRzMIN0aHDpJu5oi
7szGw4RabTCB4QYDVR0jBIHZMIHWgBQSzWAE0qCAnnDtxpm4eyzGUv0ZoaGBsqSB
rzCBrDELMAkGA1UEBhMCVVMxCzAJBgNVBAgTAk9IMREwDwYDVQQHEwhDb2x1bWJ1
czESMBAGA1UEChMJVmlraW5nVlBOMR0wGwYDVQQLExRNeU9yZ2FuaXphdGlvbmFs
VW5pdDEVMBMGA1UEAxMMVmlraW5nVlBOIENBMRAwDgYDVQQpEwdFYXN5UlNBMSEw
HwYJKoZIhvcNAQkBFhJtZUBteWhvc3QubXlkb21haW6CCQDPNYXugL8qPjATBgNV
HSUEDDAKBggrBgEFBQcDAjALBgNVHQ8EBAMCB4AwDQYJKoZIhvcNAQEEBQADggIB
AKUh0u+heE6/RRLdcs30Epxt9aqSPIxdCPYJG2ktYkHTct8L4pk/0zupdqmEpBen
XeSd2D1yV/a9P5qLbIGIasmL3HdsgZV/QKstEHEKmHS6zHv0/xXVF/vnlBUPSf3C
4fpRuZ8GUpeEJ01cPuS8QvBICgLrmRlNb/y/rrngZgLUc4MoExJq+BxpKtbP6EtO
b3sY3+BBgtM9F+CvduX7aOOSMT+MbaWKQA9k5cLKtD35jRTftnPoFCCjGcS/SeU9
HX9gijBIbbcVRm/Y+ni3dclhe+Ch1QnKca7WbTgLwuw+UQIwTgFWhqrl68zuo+O6
CFGQ3jcKNvMg4pZ57q43VGqx35sR8fPUFUCb3SXISalcKRhgajxIa6lV3yXI6LlT
wivHBncNC2npAMBSENRqTV3YjTFqiGVclrMf+nLlfTlBmTfjAFjejcAQkw4AlAaz
+klyvrrYoyKTXaS+wOg/nn82jAt90x5JcRgaiekBJal5cL7xSQjnLmXCZj3DTYlS
okA680oxdXVNKt4/ewCehNiDlvprOF3YcTWCijmHeFHeU/tSyUzcknBkfg5gT9Vn
CnLOMHpddameSJaLLikgYBNa34G3tPg2Y/YqSkLjfWvrF4+e6Cw1XketB9a90r83
Z+WFKgX/LW/1CyGmKSb5xXXTY8/NZuq9Jm34k807Jf53
-----END CERTIFICATE-----
