Certificate:
    Data:
        Version: 3 (0x2)
        Serial Number: 5396 (0x1514)
    Signature Algorithm: md5WithRSAEncryption
        Issuer: C=US, ST=OH, L=Columbus, O=VikingVPN, OU=MyOrganizationalUnit, CN=VikingVPN CA/name=EasyRSA/emailAddress=me@myhost.mydomain
        Validity
            Not Before: May 26 22:54:13 2015 GMT
            Not After : May 23 22:54:13 2025 GMT
        Subject: CN=Client1653Certbe2601
        Subject Public Key Info:
            Public Key Algorithm: rsaEncryption
                Public-Key: (4096 bit)
                Modulus:
                    00:b9:d5:7c:67:91:fb:62:54:8c:18:6b:b1:33:6c:
                    62:e6:db:6c:3a:a4:44:ab:30:de:ce:61:42:bd:47:
                    20:70:91:1e:e4:50:95:e0:90:75:4c:d4:e4:2e:57:
                    13:7d:3d:3a:92:fd:0a:62:4f:3d:4c:64:73:e3:6d:
                    70:4a:29:d0:36:8c:39:b3:dd:37:a5:e1:de:6d:48:
                    ba:1a:ed:0c:fa:89:af:a1:a9:86:1b:46:72:e8:02:
                    48:17:5d:d3:34:5a:2b:de:7d:03:65:1e:a6:b8:49:
                    2d:85:4d:a0:ad:2b:5f:2b:e5:34:bb:8b:03:0e:88:
                    41:f3:b4:c3:5f:9e:3a:19:ee:1b:db:12:a4:d1:0a:
                    e7:e9:bf:bf:7d:6d:96:68:c5:d8:cb:ae:92:26:b4:
                    56:3d:28:8f:5f:0a:c4:44:0d:0f:83:3f:92:7a:56:
                    61:48:b4:05:0f:4a:83:ce:83:8c:f8:45:05:4c:1c:
                    9a:36:82:8b:cb:e6:78:a2:27:ee:8a:ab:77:57:f6:
                    db:2a:a2:10:86:d9:a3:ac:de:a2:e9:6b:5a:d1:43:
                    df:44:2a:3b:ec:66:a4:aa:30:42:36:75:a4:16:55:
                    8d:40:a8:26:49:a8:74:0d:a6:d8:76:40:60:41:db:
                    4d:5d:b7:43:09:04:46:96:d0:7a:47:a7:2e:51:b4:
                    a1:c9:e4:39:fa:3f:df:75:62:73:df:cf:fc:3b:56:
                    27:09:f2:3a:bc:b9:8f:69:b6:48:54:2d:0f:bd:96:
                    01:c3:b5:29:ce:00:7e:7f:86:70:dd:4c:84:e0:e3:
                    e2:5d:5d:1a:88:cc:4a:92:ea:e2:0e:3c:1e:f2:ee:
                    21:6f:14:95:e9:b7:3b:2c:88:85:f9:13:cc:f8:6d:
                    0e:52:45:17:41:7e:da:40:81:86:c7:37:ff:fb:9a:
                    b7:51:06:07:82:71:6e:60:d6:e6:f3:41:e8:45:40:
                    ab:c3:7d:86:6f:14:46:09:35:ee:b9:d8:2d:88:49:
                    c4:9f:b4:04:b2:22:0b:5d:52:d4:2a:55:e0:c9:11:
                    72:37:8c:f7:0a:9f:60:0a:2f:4c:22:c9:39:02:be:
                    49:de:59:1c:64:85:42:64:84:d3:d0:25:7a:97:00:
                    34:78:7d:11:b6:52:30:53:b9:b5:45:eb:37:00:4c:
                    90:77:31:f7:70:28:99:f9:7e:2e:25:cc:f8:de:19:
                    71:e3:7e:65:86:0d:d9:fa:7b:e7:5d:2d:a8:cd:06:
                    eb:ed:77:01:eb:eb:37:c6:38:b2:8d:01:49:0f:55:
                    f0:a8:94:2c:eb:ca:b1:5d:7f:49:d5:e5:20:44:0b:
                    8e:59:af:8c:0f:d6:14:7f:5d:ab:b0:f4:95:8f:84:
                    bb:83:8f
                Exponent: 65537 (0x10001)
        X509v3 extensions:
            X509v3 Basic Constraints: 
                CA:FALSE
            Netscape Comment: 
                Easy-RSA Generated Certificate
            X509v3 Subject Key Identifier: 
                EA:3F:93:1F:72:CF:A5:03:BA:AE:C7:FF:57:E3:04:FB:76:DA:AF:76
            X509v3 Authority Key Identifier: 
                keyid:12:CD:60:04:D2:A0:80:9E:70:ED:C6:99:B8:7B:2C:C6:52:FD:19:A1
                DirName:/C=US/ST=OH/L=Columbus/O=VikingVPN/OU=MyOrganizationalUnit/CN=VikingVPN CA/name=EasyRSA/emailAddress=me@myhost.mydomain
                serial:CF:35:85:EE:80:BF:2A:3E

            X509v3 Extended Key Usage: 
                TLS Web Client Authentication
            X509v3 Key Usage: 
                Digital Signature
    Signature Algorithm: md5WithRSAEncryption
         3c:33:d5:85:78:d7:12:97:23:bf:bf:86:31:5e:1b:0b:09:f8:
         34:d2:8f:07:cf:61:65:74:c4:93:0a:c4:bf:01:d4:31:40:d2:
         ee:0f:39:32:cd:91:a1:50:c2:ce:17:d5:d5:d8:04:1c:a6:e0:
         6d:44:b1:c7:d6:a5:9f:77:59:7e:98:b8:b1:97:e5:b4:14:3e:
         d3:b2:ce:8d:03:05:4f:08:f8:2e:a0:a1:11:29:ab:82:18:41:
         e7:66:45:b0:3f:8a:5e:9d:8a:a8:1f:8f:9c:f4:fc:4c:ea:a2:
         69:a7:2b:7e:94:88:33:79:a5:c9:3b:c7:93:d0:cc:65:38:1c:
         1b:a8:be:6b:45:5f:bf:bb:8f:c3:47:61:ce:8c:4a:45:3e:d5:
         53:cb:c8:75:cb:ff:b2:a2:8b:3d:de:21:22:d6:78:8f:c4:e9:
         09:9a:18:45:09:73:61:53:ed:b1:5f:89:60:1f:76:9f:5f:a4:
         a9:e7:52:72:29:e6:01:bc:7f:b0:7e:06:e8:df:9d:c0:36:08:
         cd:ad:d5:37:4f:b0:75:8f:bb:4e:7a:a1:05:7c:a9:02:fc:0d:
         89:4c:8f:95:2d:05:16:d2:12:f3:92:4c:24:48:ce:73:df:b1:
         c9:8c:c4:fc:01:bf:56:33:aa:25:a7:ef:40:21:0f:d5:f3:ac:
         d7:7f:25:b8:ac:e0:8e:eb:40:0d:27:67:26:bd:ae:c7:35:f2:
         b3:d6:cd:9e:14:31:c5:0d:3d:0d:77:1b:bd:6b:1d:e5:18:d3:
         00:74:45:e1:29:2f:9f:01:da:07:30:fc:ef:bb:06:30:a2:58:
         1e:9e:00:2b:86:a8:96:35:d1:64:b0:19:ef:36:10:83:99:03:
         cb:cc:be:d6:44:07:d9:fc:e0:4a:97:51:6d:26:53:c1:73:67:
         f5:5e:29:60:98:65:30:98:b2:e4:2d:8e:c6:fb:ef:87:24:ba:
         16:f3:6e:9b:c3:2b:4b:9d:70:b7:a6:04:5f:67:99:88:b7:10:
         04:f3:27:24:6d:b9:ce:0e:f6:b8:8f:4f:f7:f0:fe:39:6b:5b:
         2f:72:c4:19:78:37:b4:5e:19:bd:a6:e5:81:5e:d0:6d:61:e7:
         cb:ee:72:dc:50:fb:62:27:09:18:c7:80:ac:9e:28:ff:a0:ec:
         e8:4e:0c:48:20:c7:b1:60:8b:c5:ce:ef:6b:bc:70:d7:7a:bc:
         ac:1f:01:91:bc:d9:89:1c:e4:62:73:ca:f3:6d:d9:9f:f9:c3:
         70:e3:23:70:ea:47:4e:bd:3f:aa:5a:da:48:04:eb:24:c9:07:
         cb:6d:40:6a:84:07:d7:d0:52:47:e4:6d:9f:50:af:2a:85:ca:
         3b:45:c3:da:10:e4:37:83
-----BEGIN CERTIFICATE-----
MIIGrTCCBJWgAwIBAgICFRQwDQYJKoZIhvcNAQEEBQAwgawxCzAJBgNVBAYTAlVT
MQswCQYDVQQIEwJPSDERMA8GA1UEBxMIQ29sdW1idXMxEjAQBgNVBAoTCVZpa2lu
Z1ZQTjEdMBsGA1UECxMUTXlPcmdhbml6YXRpb25hbFVuaXQxFTATBgNVBAMTDFZp
a2luZ1ZQTiBDQTEQMA4GA1UEKRMHRWFzeVJTQTEhMB8GCSqGSIb3DQEJARYSbWVA
bXlob3N0Lm15ZG9tYWluMB4XDTE1MDUyNjIyNTQxM1oXDTI1MDUyMzIyNTQxM1ow
HzEdMBsGA1UEAxMUQ2xpZW50MTY1M0NlcnRiZTI2MDEwggIiMA0GCSqGSIb3DQEB
AQUAA4ICDwAwggIKAoICAQC51XxnkftiVIwYa7EzbGLm22w6pESrMN7OYUK9RyBw
kR7kUJXgkHVM1OQuVxN9PTqS/QpiTz1MZHPjbXBKKdA2jDmz3Tel4d5tSLoa7Qz6
ia+hqYYbRnLoAkgXXdM0WivefQNlHqa4SS2FTaCtK18r5TS7iwMOiEHztMNfnjoZ
7hvbEqTRCufpv799bZZoxdjLrpImtFY9KI9fCsREDQ+DP5J6VmFItAUPSoPOg4z4
RQVMHJo2govL5niiJ+6Kq3dX9tsqohCG2aOs3qLpa1rRQ99EKjvsZqSqMEI2daQW
VY1AqCZJqHQNpth2QGBB201dt0MJBEaW0HpHpy5RtKHJ5Dn6P991YnPfz/w7VicJ
8jq8uY9ptkhULQ+9lgHDtSnOAH5/hnDdTITg4+JdXRqIzEqS6uIOPB7y7iFvFJXp
tzssiIX5E8z4bQ5SRRdBftpAgYbHN//7mrdRBgeCcW5g1ubzQehFQKvDfYZvFEYJ
Ne652C2IScSftASyIgtdUtQqVeDJEXI3jPcKn2AKL0wiyTkCvkneWRxkhUJkhNPQ
JXqXADR4fRG2UjBTubVF6zcATJB3MfdwKJn5fi4lzPjeGXHjfmWGDdn6e+ddLajN
BuvtdwHr6zfGOLKNAUkPVfColCzryrFdf0nV5SBEC45Zr4wP1hR/Xauw9JWPhLuD
jwIDAQABo4IBYzCCAV8wCQYDVR0TBAIwADAtBglghkgBhvhCAQ0EIBYeRWFzeS1S
U0EgR2VuZXJhdGVkIENlcnRpZmljYXRlMB0GA1UdDgQWBBTqP5Mfcs+lA7qux/9X
4wT7dtqvdjCB4QYDVR0jBIHZMIHWgBQSzWAE0qCAnnDtxpm4eyzGUv0ZoaGBsqSB
rzCBrDELMAkGA1UEBhMCVVMxCzAJBgNVBAgTAk9IMREwDwYDVQQHEwhDb2x1bWJ1
czESMBAGA1UEChMJVmlraW5nVlBOMR0wGwYDVQQLExRNeU9yZ2FuaXphdGlvbmFs
VW5pdDEVMBMGA1UEAxMMVmlraW5nVlBOIENBMRAwDgYDVQQpEwdFYXN5UlNBMSEw
HwYJKoZIhvcNAQkBFhJtZUBteWhvc3QubXlkb21haW6CCQDPNYXugL8qPjATBgNV
HSUEDDAKBggrBgEFBQcDAjALBgNVHQ8EBAMCB4AwDQYJKoZIhvcNAQEEBQADggIB
ADwz1YV41xKXI7+/hjFeGwsJ+DTSjwfPYWV0xJMKxL8B1DFA0u4POTLNkaFQws4X
1dXYBBym4G1EscfWpZ93WX6YuLGX5bQUPtOyzo0DBU8I+C6goREpq4IYQedmRbA/
il6diqgfj5z0/EzqommnK36UiDN5pck7x5PQzGU4HBuovmtFX7+7j8NHYc6MSkU+
1VPLyHXL/7Kiiz3eISLWeI/E6QmaGEUJc2FT7bFfiWAfdp9fpKnnUnIp5gG8f7B+
BujfncA2CM2t1TdPsHWPu056oQV8qQL8DYlMj5UtBRbSEvOSTCRIznPfscmMxPwB
v1YzqiWn70AhD9XzrNd/Jbis4I7rQA0nZya9rsc18rPWzZ4UMcUNPQ13G71rHeUY
0wB0ReEpL58B2gcw/O+7BjCiWB6eACuGqJY10WSwGe82EIOZA8vMvtZEB9n84EqX
UW0mU8FzZ/VeKWCYZTCYsuQtjsb774ckuhbzbpvDK0udcLemBF9nmYi3EATzJyRt
uc4O9riPT/fw/jlrWy9yxBl4N7ReGb2m5YFe0G1h58vuctxQ+2InCRjHgKyeKP+g
7OhODEggx7Fgi8XO72u8cNd6vKwfAZG82Ykc5GJzyvNt2Z/5w3DjI3DqR069P6pa
2kgE6yTJB8ttQGqEB9fQUkfkbZ9QryqFyjtFw9oQ5DeD
-----END CERTIFICATE-----
