Certificate:
    Data:
        Version: 3 (0x2)
        Serial Number: 2527 (0x9df)
    Signature Algorithm: md5WithRSAEncryption
        Issuer: C=US, ST=OH, L=Columbus, O=VikingVPN, OU=MyOrganizationalUnit, CN=VikingVPN CA/name=EasyRSA/emailAddress=me@myhost.mydomain
        Validity
            Not Before: Aug 10 17:44:58 2014 GMT
            Not After : Aug  7 17:44:58 2024 GMT
        Subject: CN=Client877Cert8b815a
        Subject Public Key Info:
            Public Key Algorithm: rsaEncryption
                Public-Key: (4096 bit)
                Modulus:
                    00:ac:a9:56:0f:a6:51:35:1a:72:53:83:c3:d5:25:
                    c0:38:4b:81:7f:c9:8a:7a:70:70:15:e2:00:e5:ee:
                    e1:d1:ea:71:b5:26:84:de:6a:dc:3f:21:19:e9:c5:
                    3c:2a:61:be:68:fd:f4:22:86:af:c2:6b:bd:e4:70:
                    b2:33:86:87:c4:af:64:91:ce:eb:d1:f2:15:b3:d6:
                    d7:e2:61:26:da:01:5e:ef:71:02:48:71:d4:54:ca:
                    e1:67:4d:f6:26:c5:0e:05:4a:51:95:9b:a0:95:a2:
                    38:df:7c:38:f4:25:f2:dc:5f:26:a8:b8:11:0e:33:
                    d2:1d:17:dd:90:4c:d2:18:fe:48:88:97:7f:11:19:
                    33:14:40:d1:ba:6b:61:6e:c3:4b:d9:7a:77:9e:a6:
                    76:74:4a:c9:76:d0:a8:e0:c1:52:3f:52:b7:e7:8f:
                    e9:71:93:e9:1a:7b:8f:49:2e:fe:0e:2c:c2:a5:7a:
                    e4:ce:4e:71:1d:fa:c7:cf:48:07:14:44:03:b8:2a:
                    55:78:9d:a4:f9:f4:5d:ec:35:f6:c1:9e:cf:77:8c:
                    83:30:91:08:cf:18:6a:cf:11:74:3e:6f:44:87:fa:
                    0d:06:3e:06:04:2a:e2:41:56:db:36:45:37:91:cc:
                    9e:f3:73:b0:8c:e6:b9:86:33:6d:c0:11:d9:fb:be:
                    52:99:c2:78:38:ad:7d:15:d0:1c:68:f4:68:5a:79:
                    2e:45:71:f5:9e:16:f4:54:3e:94:c0:f1:1a:ef:23:
                    6d:9d:dc:bc:f3:c9:f8:7f:b9:66:23:6a:20:a0:0d:
                    07:3b:21:05:f3:72:62:45:44:2e:ec:c1:55:30:d0:
                    7f:8c:e8:78:57:fc:f1:5b:64:6d:5f:0e:22:c9:01:
                    50:15:29:9f:96:a6:81:59:05:32:0d:d4:8a:cd:c9:
                    f9:5f:7f:69:d1:d2:8b:af:b7:1a:55:ed:8d:fd:26:
                    b8:8e:4d:c3:75:3f:88:15:c2:56:ee:f8:35:c1:69:
                    78:0c:2a:e5:ac:0b:06:45:d3:51:17:9f:4b:e6:85:
                    95:b5:5f:24:7b:b7:48:58:f3:84:98:08:01:76:eb:
                    07:b2:4e:03:fa:28:f2:38:2c:4e:b9:90:f2:54:25:
                    a6:75:53:d2:ed:bb:8a:ac:f8:cb:a0:37:70:9a:44:
                    9a:fb:e5:f5:1a:ff:da:15:50:ef:f6:25:cf:ea:29:
                    d1:ea:6f:dc:b1:71:6a:44:ef:a8:1b:2c:0b:eb:47:
                    c4:91:7e:65:f9:10:a9:bf:58:ca:5a:ad:dc:73:60:
                    0f:14:c2:4b:fb:9b:c1:b7:80:38:eb:18:d4:28:92:
                    d0:dc:ee:74:f3:bd:10:52:c0:89:a6:d8:d9:dc:a2:
                    ce:9d:e9
                Exponent: 65537 (0x10001)
        X509v3 extensions:
            X509v3 Basic Constraints: 
                CA:FALSE
            Netscape Comment: 
                Easy-RSA Generated Certificate
            X509v3 Subject Key Identifier: 
                88:47:0E:CD:9B:04:80:2B:E6:3E:D2:97:20:E2:B7:F8:37:E1:D3:FB
            X509v3 Authority Key Identifier: 
                keyid:12:CD:60:04:D2:A0:80:9E:70:ED:C6:99:B8:7B:2C:C6:52:FD:19:A1
                DirName:/C=US/ST=OH/L=Columbus/O=VikingVPN/OU=MyOrganizationalUnit/CN=VikingVPN CA/name=EasyRSA/emailAddress=me@myhost.mydomain
                serial:CF:35:85:EE:80:BF:2A:3E

            X509v3 Extended Key Usage: 
                TLS Web Client Authentication
            X509v3 Key Usage: 
                Digital Signature
    Signature Algorithm: md5WithRSAEncryption
         ad:01:0c:9b:56:f8:e3:64:ae:a9:59:8a:0b:4c:1d:ff:a6:bd:
         33:ed:43:81:99:58:25:32:62:f4:ce:2d:6a:73:de:46:7f:4a:
         66:5e:b3:3c:ba:0a:58:63:46:3e:4d:e9:ee:ef:ce:d5:a3:2e:
         19:d3:47:36:5b:9e:60:0a:32:d9:05:f4:f2:dd:b4:80:a6:ae:
         fc:01:47:77:29:42:10:06:f8:de:dd:08:c4:31:f4:4c:e0:16:
         ce:65:a5:0c:2f:98:87:3f:68:9e:f4:9b:d5:2a:4e:03:16:d2:
         49:3d:de:09:85:2f:05:4d:42:e0:ab:9f:92:26:02:b2:31:74:
         3c:ba:c9:2e:20:40:ec:2a:fb:8f:31:51:52:36:42:74:cb:93:
         b9:95:3b:f8:5b:29:ca:1a:e6:48:73:07:62:21:60:0d:34:02:
         df:f1:b2:71:c6:b8:0d:07:67:3e:44:1f:76:59:bb:f3:b1:3a:
         db:38:d2:e8:e5:f4:83:08:5f:a6:70:15:c7:d4:2b:02:0f:9c:
         97:d9:d4:ff:aa:21:36:4d:8f:42:2e:ef:47:77:65:2f:12:04:
         26:6d:ca:7d:03:6b:1c:47:3c:da:ac:37:08:c6:d5:42:da:04:
         01:37:83:5a:d9:eb:1e:a5:e1:b4:d1:40:73:09:2e:16:6f:c5:
         70:23:19:f3:46:61:a9:fb:70:f0:e3:d2:46:c0:f1:fa:24:b1:
         70:77:76:94:8a:17:ac:71:87:96:e5:f1:3a:60:33:72:33:af:
         df:e2:56:08:92:a0:4b:6d:65:7b:20:65:85:2b:0a:99:22:76:
         bf:70:f0:38:02:0f:4c:15:ee:58:eb:34:5e:39:22:71:35:82:
         ca:b4:3c:7c:48:cc:f0:5b:3e:1a:41:81:33:ae:5c:c3:63:42:
         23:0b:49:dc:b1:31:de:ec:15:80:22:02:dc:ab:8c:e6:6c:31:
         37:18:a7:91:78:b0:62:40:21:76:04:49:64:c3:21:7b:0c:a7:
         53:b0:1c:92:23:f4:2f:bf:12:4d:1c:8f:40:fe:c9:dd:cc:ce:
         fc:b6:b0:ff:7a:b6:ca:9b:6f:a5:92:48:ed:ed:0e:7c:d3:a5:
         79:6f:c1:22:52:54:7f:c9:a9:33:6a:39:6d:fd:10:81:b2:dc:
         f8:88:f2:a0:7f:47:8c:fb:8a:47:57:ce:4c:46:fa:e6:cc:9e:
         01:96:f5:f9:04:f2:6c:13:a7:25:74:f8:82:a4:14:28:2f:4d:
         50:4e:0e:48:44:3c:3b:42:c1:06:ff:43:0c:11:5d:e8:2c:62:
         69:1a:cf:da:c1:3e:6c:24:1a:6d:df:b4:f1:22:8b:0c:36:11:
         a8:23:8a:2b:ad:c6:44:06
-----BEGIN CERTIFICATE-----
MIIGrDCCBJSgAwIBAgICCd8wDQYJKoZIhvcNAQEEBQAwgawxCzAJBgNVBAYTAlVT
MQswCQYDVQQIEwJPSDERMA8GA1UEBxMIQ29sdW1idXMxEjAQBgNVBAoTCVZpa2lu
Z1ZQTjEdMBsGA1UECxMUTXlPcmdhbml6YXRpb25hbFVuaXQxFTATBgNVBAMTDFZp
a2luZ1ZQTiBDQTEQMA4GA1UEKRMHRWFzeVJTQTEhMB8GCSqGSIb3DQEJARYSbWVA
bXlob3N0Lm15ZG9tYWluMB4XDTE0MDgxMDE3NDQ1OFoXDTI0MDgwNzE3NDQ1OFow
HjEcMBoGA1UEAxMTQ2xpZW50ODc3Q2VydDhiODE1YTCCAiIwDQYJKoZIhvcNAQEB
BQADggIPADCCAgoCggIBAKypVg+mUTUaclODw9UlwDhLgX/JinpwcBXiAOXu4dHq
cbUmhN5q3D8hGenFPCphvmj99CKGr8JrveRwsjOGh8SvZJHO69HyFbPW1+JhJtoB
Xu9xAkhx1FTK4WdN9ibFDgVKUZWboJWiON98OPQl8txfJqi4EQ4z0h0X3ZBM0hj+
SIiXfxEZMxRA0bprYW7DS9l6d56mdnRKyXbQqODBUj9St+eP6XGT6Rp7j0ku/g4s
wqV65M5OcR36x89IBxREA7gqVXidpPn0Xew19sGez3eMgzCRCM8Yas8RdD5vRIf6
DQY+BgQq4kFW2zZFN5HMnvNzsIzmuYYzbcAR2fu+UpnCeDitfRXQHGj0aFp5LkVx
9Z4W9FQ+lMDxGu8jbZ3cvPPJ+H+5ZiNqIKANBzshBfNyYkVELuzBVTDQf4zoeFf8
8VtkbV8OIskBUBUpn5amgVkFMg3Uis3J+V9/adHSi6+3GlXtjf0muI5Nw3U/iBXC
Vu74NcFpeAwq5awLBkXTURefS+aFlbVfJHu3SFjzhJgIAXbrB7JOA/oo8jgsTrmQ
8lQlpnVT0u27iqz4y6A3cJpEmvvl9Rr/2hVQ7/Ylz+op0epv3LFxakTvqBssC+tH
xJF+ZfkQqb9Yylqt3HNgDxTCS/ubwbeAOOsY1CiS0NzudPO9EFLAiabY2dyizp3p
AgMBAAGjggFjMIIBXzAJBgNVHRMEAjAAMC0GCWCGSAGG+EIBDQQgFh5FYXN5LVJT
QSBHZW5lcmF0ZWQgQ2VydGlmaWNhdGUwHQYDVR0OBBYEFIhHDs2bBIAr5j7SlyDi
t/g34dP7MIHhBgNVHSMEgdkwgdaAFBLNYATSoICecO3Gmbh7LMZS/RmhoYGypIGv
MIGsMQswCQYDVQQGEwJVUzELMAkGA1UECBMCT0gxETAPBgNVBAcTCENvbHVtYnVz
MRIwEAYDVQQKEwlWaWtpbmdWUE4xHTAbBgNVBAsTFE15T3JnYW5pemF0aW9uYWxV
bml0MRUwEwYDVQQDEwxWaWtpbmdWUE4gQ0ExEDAOBgNVBCkTB0Vhc3lSU0ExITAf
BgkqhkiG9w0BCQEWEm1lQG15aG9zdC5teWRvbWFpboIJAM81he6Avyo+MBMGA1Ud
JQQMMAoGCCsGAQUFBwMCMAsGA1UdDwQEAwIHgDANBgkqhkiG9w0BAQQFAAOCAgEA
rQEMm1b442SuqVmKC0wd/6a9M+1DgZlYJTJi9M4tanPeRn9KZl6zPLoKWGNGPk3p
7u/O1aMuGdNHNlueYAoy2QX08t20gKau/AFHdylCEAb43t0IxDH0TOAWzmWlDC+Y
hz9onvSb1SpOAxbSST3eCYUvBU1C4KufkiYCsjF0PLrJLiBA7Cr7jzFRUjZCdMuT
uZU7+FspyhrmSHMHYiFgDTQC3/Gycca4DQdnPkQfdlm787E62zjS6OX0gwhfpnAV
x9QrAg+cl9nU/6ohNk2PQi7vR3dlLxIEJm3KfQNrHEc82qw3CMbVQtoEATeDWtnr
HqXhtNFAcwkuFm/FcCMZ80Zhqftw8OPSRsDx+iSxcHd2lIoXrHGHluXxOmAzcjOv
3+JWCJKgS21leyBlhSsKmSJ2v3DwOAIPTBXuWOs0XjkicTWCyrQ8fEjM8Fs+GkGB
M65cw2NCIwtJ3LEx3uwVgCIC3KuM5mwxNxinkXiwYkAhdgRJZMMhewynU7AckiP0
L78STRyPQP7J3czO/Law/3q2yptvpZJI7e0OfNOleW/BIlJUf8mpM2o5bf0QgbLc
+IjyoH9HjPuKR1fOTEb65syeAZb1+QTybBOnJXT4gqQUKC9NUE4OSEQ8O0LBBv9D
DBFd6CxiaRrP2sE+bCQabd+08SKLDDYRqCOKK63GRAY=
-----END CERTIFICATE-----
