Certificate:
    Data:
        Version: 3 (0x2)
        Serial Number: 5920 (0x1720)
    Signature Algorithm: md5WithRSAEncryption
        Issuer: C=US, ST=OH, L=Columbus, O=VikingVPN, OU=MyOrganizationalUnit, CN=VikingVPN CA/name=EasyRSA/emailAddress=me@myhost.mydomain
        Validity
            Not Before: Jul 26 12:58:00 2015 GMT
            Not After : Jul 23 12:58:00 2025 GMT
        Subject: CN=Client1389Certadd86b
        Subject Public Key Info:
            Public Key Algorithm: rsaEncryption
                Public-Key: (4096 bit)
                Modulus:
                    00:ba:07:3d:a0:8c:50:95:38:54:0e:ed:6e:be:a4:
                    ee:41:0b:96:d0:08:cd:e6:70:3b:8e:53:5c:df:ca:
                    8f:38:03:ea:27:06:e1:aa:84:e3:a1:19:04:65:19:
                    3d:27:76:45:46:9a:c6:15:0e:90:5c:d1:0e:a8:d2:
                    99:4a:9d:13:70:cf:af:1b:e3:0c:e2:74:29:84:a6:
                    95:51:c5:c0:6a:3c:ea:a3:4d:c5:ee:52:b3:2c:2b:
                    55:b7:ab:d8:1d:e1:72:d7:f2:cd:8d:8a:2c:ee:a7:
                    aa:c8:b0:f2:51:4f:2f:22:14:03:d6:c1:83:4c:81:
                    c6:51:b1:ae:48:59:d8:bd:1d:cd:41:a3:4e:64:ff:
                    be:24:87:bc:fc:ff:fc:95:b9:46:dc:45:ec:5e:24:
                    91:ed:52:62:a8:4c:36:b7:f8:42:a6:07:4c:aa:95:
                    e2:cf:67:b2:8f:9a:e5:ef:a3:e9:0f:b6:a1:90:58:
                    64:e7:f1:14:02:54:e0:d4:eb:ae:a1:c4:51:e7:8a:
                    56:f0:01:d0:de:01:f1:bf:8c:a5:ea:f2:50:52:9f:
                    1d:ec:cd:c4:ef:41:b6:99:03:d3:97:59:28:14:e7:
                    62:ec:1b:ce:ba:3c:0c:c9:83:fb:eb:35:3d:0b:05:
                    30:20:05:5a:b9:27:02:0b:77:34:c6:99:37:af:b3:
                    5e:70:a6:6e:c8:5e:62:83:66:65:69:97:fc:e6:3f:
                    a2:ac:6e:a1:a6:a4:0b:ed:d3:04:b9:38:17:12:6e:
                    0d:1e:f9:96:66:f5:1c:36:51:84:b3:8a:01:3f:4a:
                    5c:f2:b4:3a:82:22:31:4b:19:fa:2e:8c:6e:da:09:
                    e2:bc:f3:4a:c5:58:31:17:84:2f:41:06:b7:1f:72:
                    e5:88:48:86:c1:80:dc:2b:0e:4a:b0:b4:bd:c1:a2:
                    b6:53:b3:50:f9:41:27:db:87:63:db:96:17:53:d0:
                    9b:4f:fb:62:2a:3b:32:95:08:71:3c:57:ab:d0:c3:
                    67:c7:da:2d:2b:c7:5c:a3:20:c6:8e:4c:7c:c7:4c:
                    3f:b8:cc:f9:b3:2d:d4:ab:16:3a:25:be:ba:24:8e:
                    a3:d3:fe:6e:e2:0a:78:66:ae:44:55:aa:c6:5e:f0:
                    1e:c5:fd:d6:0d:b0:12:71:01:0a:ff:1d:a4:5c:58:
                    b0:16:0f:36:1d:e3:14:00:8a:2a:a2:b8:f8:98:58:
                    65:60:fc:f0:0e:8d:dc:51:a7:49:8c:b7:10:8b:fb:
                    3a:b0:ab:30:b2:2d:1c:1e:8e:bd:85:d3:45:fa:64:
                    78:f2:4a:ff:42:a7:70:2e:6a:84:dc:fe:37:ae:0d:
                    9d:59:60:84:41:f5:a8:f3:03:4c:de:45:6f:44:10:
                    5b:3e:99
                Exponent: 65537 (0x10001)
        X509v3 extensions:
            X509v3 Basic Constraints: 
                CA:FALSE
            Netscape Comment: 
                Easy-RSA Generated Certificate
            X509v3 Subject Key Identifier: 
                6D:2C:CB:3A:59:DC:7D:D8:CB:15:43:14:ED:D6:42:EB:0E:78:B7:B3
            X509v3 Authority Key Identifier: 
                keyid:12:CD:60:04:D2:A0:80:9E:70:ED:C6:99:B8:7B:2C:C6:52:FD:19:A1
                DirName:/C=US/ST=OH/L=Columbus/O=VikingVPN/OU=MyOrganizationalUnit/CN=VikingVPN CA/name=EasyRSA/emailAddress=me@myhost.mydomain
                serial:CF:35:85:EE:80:BF:2A:3E

            X509v3 Extended Key Usage: 
                TLS Web Client Authentication
            X509v3 Key Usage: 
                Digital Signature
    Signature Algorithm: md5WithRSAEncryption
         99:c3:c2:5d:c9:6c:79:8c:37:9a:c9:78:c3:b0:e5:06:89:5f:
         02:27:fe:25:b5:7d:27:53:4e:9a:30:fe:49:f6:07:89:85:69:
         25:55:ca:07:39:8b:aa:69:4c:89:04:27:da:b5:12:9c:85:83:
         5b:70:26:24:52:af:77:64:df:cf:35:eb:80:f8:2c:b0:e7:b7:
         fb:f5:c3:ec:f2:81:03:06:a7:e2:62:6d:73:d4:70:7b:75:68:
         e9:26:27:3f:42:9e:e3:2d:56:e0:a3:86:a8:06:36:20:17:28:
         f9:0e:44:e5:ec:ff:30:fd:e9:84:c1:19:5b:42:b3:6d:57:df:
         4a:f4:45:99:b1:fc:a4:af:38:4f:26:c6:f0:27:1c:30:ac:d0:
         8d:ed:f4:fd:58:21:54:79:e0:d4:19:f6:bd:7e:e5:30:e2:6c:
         01:f9:63:b9:ab:9a:b5:00:5e:ad:57:ac:b4:5b:b5:1c:12:15:
         ee:e6:aa:ac:f0:15:f7:e9:a9:1b:33:a0:51:a5:d2:05:10:e6:
         02:50:be:6b:aa:3e:d5:6e:de:65:74:0b:cc:fd:20:5c:e7:62:
         75:a6:ba:38:2b:3c:9e:8f:37:6f:5b:cf:ed:cc:28:b2:6b:e7:
         17:ce:eb:c2:c1:76:da:fa:c4:51:41:1b:8e:a5:83:7f:5b:3e:
         20:eb:88:93:75:5b:f5:79:15:f9:9f:aa:0f:24:02:08:6f:69:
         26:55:bf:19:a1:76:99:4c:b7:a9:d0:f0:54:0a:fd:8f:22:24:
         e1:de:54:68:cb:47:46:2a:2a:de:e5:20:40:02:fc:5e:9a:bc:
         3f:d5:a9:da:41:37:f0:55:30:0d:37:2b:cc:6f:dd:8a:91:42:
         4d:f1:33:18:e4:44:f0:c1:1f:9e:e9:bc:af:75:a7:5e:29:5e:
         29:70:e7:0e:a0:43:fb:9a:bb:89:56:80:dd:7a:2f:91:b8:71:
         0a:4c:84:6d:c2:36:98:52:83:24:c1:40:db:4b:c8:57:34:6f:
         8f:c1:57:a8:b6:12:b5:ed:6f:9e:5a:70:92:3d:d0:d2:da:d4:
         01:43:4c:9e:a7:8b:8b:8f:fe:d3:1a:72:a2:11:11:59:46:e5:
         de:14:e3:a8:4b:54:2e:1f:76:46:45:8a:be:a8:d2:a8:0f:f7:
         4e:a5:1a:de:f9:6f:4d:22:f0:d0:06:4d:07:d7:14:03:26:01:
         36:c7:f5:09:df:a4:6e:a5:cb:37:da:5e:6d:0f:a9:f6:2c:f0:
         a0:1e:7e:4c:17:fa:43:4c:fa:fc:48:45:62:a8:61:97:39:e3:
         ae:bf:e8:dd:64:04:1e:b3:bf:9c:ec:ce:ae:10:7b:47:31:83:
         01:c0:06:05:54:00:3d:e6
-----BEGIN CERTIFICATE-----
MIIGrTCCBJWgAwIBAgICFyAwDQYJKoZIhvcNAQEEBQAwgawxCzAJBgNVBAYTAlVT
MQswCQYDVQQIEwJPSDERMA8GA1UEBxMIQ29sdW1idXMxEjAQBgNVBAoTCVZpa2lu
Z1ZQTjEdMBsGA1UECxMUTXlPcmdhbml6YXRpb25hbFVuaXQxFTATBgNVBAMTDFZp
a2luZ1ZQTiBDQTEQMA4GA1UEKRMHRWFzeVJTQTEhMB8GCSqGSIb3DQEJARYSbWVA
bXlob3N0Lm15ZG9tYWluMB4XDTE1MDcyNjEyNTgwMFoXDTI1MDcyMzEyNTgwMFow
HzEdMBsGA1UEAxMUQ2xpZW50MTM4OUNlcnRhZGQ4NmIwggIiMA0GCSqGSIb3DQEB
AQUAA4ICDwAwggIKAoICAQC6Bz2gjFCVOFQO7W6+pO5BC5bQCM3mcDuOU1zfyo84
A+onBuGqhOOhGQRlGT0ndkVGmsYVDpBc0Q6o0plKnRNwz68b4wzidCmEppVRxcBq
POqjTcXuUrMsK1W3q9gd4XLX8s2Niizup6rIsPJRTy8iFAPWwYNMgcZRsa5IWdi9
Hc1Bo05k/74kh7z8//yVuUbcRexeJJHtUmKoTDa3+EKmB0yqleLPZ7KPmuXvo+kP
tqGQWGTn8RQCVODU666hxFHnilbwAdDeAfG/jKXq8lBSnx3szcTvQbaZA9OXWSgU
52LsG866PAzJg/vrNT0LBTAgBVq5JwILdzTGmTevs15wpm7IXmKDZmVpl/zmP6Ks
bqGmpAvt0wS5OBcSbg0e+ZZm9Rw2UYSzigE/SlzytDqCIjFLGfoujG7aCeK880rF
WDEXhC9BBrcfcuWISIbBgNwrDkqwtL3BorZTs1D5QSfbh2PblhdT0JtP+2IqOzKV
CHE8V6vQw2fH2i0rx1yjIMaOTHzHTD+4zPmzLdSrFjolvrokjqPT/m7iCnhmrkRV
qsZe8B7F/dYNsBJxAQr/HaRcWLAWDzYd4xQAiiqiuPiYWGVg/PAOjdxRp0mMtxCL
+zqwqzCyLRwejr2F00X6ZHjySv9Cp3AuaoTc/jeuDZ1ZYIRB9ajzA0zeRW9EEFs+
mQIDAQABo4IBYzCCAV8wCQYDVR0TBAIwADAtBglghkgBhvhCAQ0EIBYeRWFzeS1S
U0EgR2VuZXJhdGVkIENlcnRpZmljYXRlMB0GA1UdDgQWBBRtLMs6Wdx92MsVQxTt
1kLrDni3szCB4QYDVR0jBIHZMIHWgBQSzWAE0qCAnnDtxpm4eyzGUv0ZoaGBsqSB
rzCBrDELMAkGA1UEBhMCVVMxCzAJBgNVBAgTAk9IMREwDwYDVQQHEwhDb2x1bWJ1
czESMBAGA1UEChMJVmlraW5nVlBOMR0wGwYDVQQLExRNeU9yZ2FuaXphdGlvbmFs
VW5pdDEVMBMGA1UEAxMMVmlraW5nVlBOIENBMRAwDgYDVQQpEwdFYXN5UlNBMSEw
HwYJKoZIhvcNAQkBFhJtZUBteWhvc3QubXlkb21haW6CCQDPNYXugL8qPjATBgNV
HSUEDDAKBggrBgEFBQcDAjALBgNVHQ8EBAMCB4AwDQYJKoZIhvcNAQEEBQADggIB
AJnDwl3JbHmMN5rJeMOw5QaJXwIn/iW1fSdTTpow/kn2B4mFaSVVygc5i6ppTIkE
J9q1EpyFg1twJiRSr3dk388164D4LLDnt/v1w+zygQMGp+JibXPUcHt1aOkmJz9C
nuMtVuCjhqgGNiAXKPkOROXs/zD96YTBGVtCs21X30r0RZmx/KSvOE8mxvAnHDCs
0I3t9P1YIVR54NQZ9r1+5TDibAH5Y7mrmrUAXq1XrLRbtRwSFe7mqqzwFffpqRsz
oFGl0gUQ5gJQvmuqPtVu3mV0C8z9IFznYnWmujgrPJ6PN29bz+3MKLJr5xfO68LB
dtr6xFFBG46lg39bPiDriJN1W/V5Ffmfqg8kAghvaSZVvxmhdplMt6nQ8FQK/Y8i
JOHeVGjLR0YqKt7lIEAC/F6avD/VqdpBN/BVMA03K8xv3YqRQk3xMxjkRPDBH57p
vK91p14pXilw5w6gQ/uau4lWgN16L5G4cQpMhG3CNphSgyTBQNtLyFc0b4/BV6i2
ErXtb55acJI90NLa1AFDTJ6ni4uP/tMacqIREVlG5d4U46hLVC4fdkZFir6o0qgP
906lGt75b00i8NAGTQfXFAMmATbH9QnfpG6lyzfaXm0PqfYs8KAefkwX+kNM+vxI
RWKoYZc5466/6N1kBB6zv5zszq4Qe0cxgwHABgVUAD3m
-----END CERTIFICATE-----
