Certificate:
    Data:
        Version: 3 (0x2)
        Serial Number: 242 (0xf2)
    Signature Algorithm: md5WithRSAEncryption
        Issuer: C=US, ST=OH, L=Columbus, O=VikingVPN, OU=MyOrganizationalUnit, CN=VikingVPN CA/name=EasyRSA/emailAddress=me@myhost.mydomain
        Validity
            Not Before: Sep 28 09:50:19 2013 GMT
            Not After : Sep 26 09:50:19 2023 GMT
        Subject: CN=Client49Cert17ad57
        Subject Public Key Info:
            Public Key Algorithm: rsaEncryption
                Public-Key: (4096 bit)
                Modulus:
                    00:ac:e2:a9:37:f9:0c:c9:ee:2a:31:ed:66:2c:f8:
                    ba:5b:b3:f8:fd:c6:be:2a:d3:4b:cb:96:30:bf:a0:
                    94:ef:48:cf:22:63:53:68:8e:a0:9b:4b:9c:4f:89:
                    fc:9b:66:e9:95:ee:52:09:ba:64:be:a7:3d:ff:9d:
                    9a:94:07:73:9a:fa:f7:8a:cc:e3:32:79:0e:56:bb:
                    4f:cc:37:bd:99:28:1f:b7:7f:9d:bb:cd:85:b4:37:
                    26:39:24:c3:a0:5c:c2:ec:15:e3:71:df:0b:41:81:
                    fe:44:49:3b:85:76:bb:6c:b4:42:fb:49:d9:5f:2a:
                    be:10:65:da:0d:35:22:e9:0a:48:f6:7c:12:77:a8:
                    c1:22:47:59:3e:44:cc:ce:60:b3:83:e9:61:13:db:
                    94:7e:22:d7:65:67:b9:62:2c:bc:13:dc:37:8b:ec:
                    13:0d:23:8b:5d:2f:c0:af:96:27:bf:76:58:1a:3d:
                    14:6b:3c:52:f6:f6:13:39:7f:c2:b4:6f:de:b2:82:
                    de:b5:99:83:35:0d:e3:c2:09:11:eb:f0:1e:63:c1:
                    b8:bd:61:a6:6a:7a:63:f8:8c:60:c1:7c:44:34:f8:
                    4e:34:56:69:3a:9a:b4:ef:14:2c:ff:87:fa:8b:8a:
                    e9:40:26:24:e2:eb:fc:26:e7:8f:37:93:74:84:22:
                    1f:b1:cb:bb:e5:02:4b:a3:0b:2c:aa:35:78:6a:4f:
                    ae:80:54:9b:24:40:df:9e:77:84:38:f9:45:9b:98:
                    5d:35:30:89:07:94:01:3f:df:c7:ae:e7:93:51:a2:
                    bb:6a:d0:33:93:a5:8f:29:d3:0b:14:8a:b6:2f:f9:
                    e8:f6:a6:85:fb:9f:34:de:6b:87:0d:81:d0:ea:cb:
                    90:ab:b4:60:42:8f:5b:ce:cd:03:4e:2d:b2:5b:cb:
                    95:e4:57:18:7c:df:51:03:85:67:86:d7:f1:fa:6b:
                    3d:44:f8:8b:6a:38:7a:ca:26:cd:5e:a4:50:cc:dd:
                    51:53:b3:65:ba:aa:49:79:2e:86:97:1d:82:88:43:
                    9e:91:a9:b0:c5:36:14:8c:be:99:59:56:0f:0c:14:
                    27:a4:98:a6:da:c0:04:da:f8:c6:ee:08:60:30:24:
                    bd:df:aa:da:d3:f0:9e:16:fd:9b:e9:23:df:e3:3f:
                    53:80:1c:42:6b:1c:7a:11:c6:a0:a8:d5:e6:99:8d:
                    2e:42:03:e1:4b:a1:0a:11:f8:a4:e5:ee:de:21:b0:
                    c9:3e:c2:ed:d2:bc:8a:cc:94:57:28:d3:d0:4b:6e:
                    54:9b:44:b4:b8:56:71:6c:28:bf:07:0b:e1:00:8b:
                    52:6c:37:5a:50:9b:5b:b6:73:2b:ba:53:27:83:b8:
                    ee:ec:6f
                Exponent: 65537 (0x10001)
        X509v3 extensions:
            X509v3 Basic Constraints: 
                CA:FALSE
            Netscape Comment: 
                Easy-RSA Generated Certificate
            X509v3 Subject Key Identifier: 
                E4:59:E2:AB:5C:8C:C9:F0:08:DB:32:AB:9D:A3:6A:CE:CA:2F:14:04
            X509v3 Authority Key Identifier: 
                keyid:12:CD:60:04:D2:A0:80:9E:70:ED:C6:99:B8:7B:2C:C6:52:FD:19:A1
                DirName:/C=US/ST=OH/L=Columbus/O=VikingVPN/OU=MyOrganizationalUnit/CN=VikingVPN CA/name=EasyRSA/emailAddress=me@myhost.mydomain
                serial:CF:35:85:EE:80:BF:2A:3E

            X509v3 Extended Key Usage: 
                TLS Web Client Authentication
            X509v3 Key Usage: 
                Digital Signature
    Signature Algorithm: md5WithRSAEncryption
         98:54:7c:f1:e7:7a:b5:39:6c:9a:66:d7:82:eb:50:ad:a5:ef:
         7c:2b:ad:9e:69:b9:70:96:7c:5f:0a:5f:99:16:a6:f7:1a:e9:
         7a:a1:bb:70:36:57:21:60:08:49:c2:da:9d:50:54:62:de:01:
         fc:c4:a9:de:fc:ee:6d:c5:dc:42:f2:fd:b4:ac:d5:e3:3f:60:
         30:9c:61:12:73:4d:8a:60:d6:95:a9:c1:64:39:0d:1c:ab:47:
         fb:61:33:12:39:93:96:2f:2a:39:0c:41:ae:3a:d2:54:2e:a2:
         d2:9e:f8:4e:2d:ac:f3:a1:c6:34:88:9c:5c:32:17:ad:cd:a4:
         45:39:b4:aa:fe:e6:cc:35:20:ae:82:f8:e0:e3:98:26:18:ef:
         d9:3a:cc:fd:2f:ca:d1:44:67:8d:ab:1f:23:85:cb:d1:49:bb:
         56:c0:e9:d6:35:51:60:60:25:3e:d4:45:6f:da:54:72:90:5c:
         5e:a8:0a:ea:a9:9e:5e:75:91:61:7f:75:58:de:c8:cb:d9:56:
         e1:ce:30:f0:94:87:ef:d0:69:62:49:7f:01:e4:b5:5b:12:69:
         2a:9d:85:50:ed:e4:27:80:11:a2:4b:f7:8f:c5:e9:5f:fb:48:
         5e:e7:fd:7c:34:dc:d9:9d:e0:86:5c:81:d6:12:a6:4d:64:af:
         dc:71:94:c8:7a:7d:55:06:06:f7:0d:99:36:cf:ae:76:dc:c4:
         e0:fe:10:95:6a:2b:30:52:dc:d5:5a:6b:4e:57:b5:af:6f:59:
         39:14:78:2a:9b:71:6f:71:48:5b:14:31:51:95:32:12:4e:a1:
         fe:8a:b3:31:a0:49:20:2e:18:e4:31:27:dd:92:8f:d7:0d:73:
         fd:57:42:d9:e2:12:96:29:cb:15:fe:2a:9e:45:d8:c0:76:3b:
         da:92:03:c7:97:5e:bd:18:9a:19:c8:b4:dc:fb:82:2b:93:d5:
         db:bc:b0:c7:18:50:a5:e3:0d:6a:da:22:bc:62:c2:68:9c:05:
         2e:c2:17:09:c4:30:a3:1b:04:d7:a2:61:d4:4d:33:f0:08:9f:
         49:e6:77:8d:ab:4d:53:11:15:f6:c0:1e:93:ec:87:dd:46:c1:
         fb:b6:ea:a3:df:cd:ca:62:85:1a:78:15:12:8c:f4:0f:e4:15:
         c1:43:aa:d1:e5:54:77:a7:a5:b2:ec:d7:2b:60:c6:44:4a:af:
         6f:33:63:b3:3d:dc:91:d0:8c:ff:c5:f1:a8:8c:b2:f8:0d:8b:
         0f:13:10:ac:50:87:9d:9a:44:ff:b0:30:df:09:70:c8:04:8c:
         91:fc:0c:17:9e:e1:88:76:00:2e:00:0f:b5:87:bb:ee:94:e5:
         03:b9:d9:75:04:81:8b:bc
-----BEGIN CERTIFICATE-----
MIIGqzCCBJOgAwIBAgICAPIwDQYJKoZIhvcNAQEEBQAwgawxCzAJBgNVBAYTAlVT
MQswCQYDVQQIEwJPSDERMA8GA1UEBxMIQ29sdW1idXMxEjAQBgNVBAoTCVZpa2lu
Z1ZQTjEdMBsGA1UECxMUTXlPcmdhbml6YXRpb25hbFVuaXQxFTATBgNVBAMTDFZp
a2luZ1ZQTiBDQTEQMA4GA1UEKRMHRWFzeVJTQTEhMB8GCSqGSIb3DQEJARYSbWVA
bXlob3N0Lm15ZG9tYWluMB4XDTEzMDkyODA5NTAxOVoXDTIzMDkyNjA5NTAxOVow
HTEbMBkGA1UEAxMSQ2xpZW50NDlDZXJ0MTdhZDU3MIICIjANBgkqhkiG9w0BAQEF
AAOCAg8AMIICCgKCAgEArOKpN/kMye4qMe1mLPi6W7P4/ca+KtNLy5Ywv6CU70jP
ImNTaI6gm0ucT4n8m2bple5SCbpkvqc9/52alAdzmvr3iszjMnkOVrtPzDe9mSgf
t3+du82FtDcmOSTDoFzC7BXjcd8LQYH+REk7hXa7bLRC+0nZXyq+EGXaDTUi6QpI
9nwSd6jBIkdZPkTMzmCzg+lhE9uUfiLXZWe5Yiy8E9w3i+wTDSOLXS/Ar5Ynv3ZY
Gj0UazxS9vYTOX/CtG/esoLetZmDNQ3jwgkR6/AeY8G4vWGmanpj+IxgwXxENPhO
NFZpOpq07xQs/4f6i4rpQCYk4uv8JuePN5N0hCIfscu75QJLowssqjV4ak+ugFSb
JEDfnneEOPlFm5hdNTCJB5QBP9/HrueTUaK7atAzk6WPKdMLFIq2L/no9qaF+580
3muHDYHQ6suQq7RgQo9bzs0DTi2yW8uV5FcYfN9RA4Vnhtfx+ms9RPiLajh6yibN
XqRQzN1RU7NluqpJeS6Glx2CiEOekamwxTYUjL6ZWVYPDBQnpJim2sAE2vjG7ghg
MCS936ra0/CeFv2b6SPf4z9TgBxCaxx6EcagqNXmmY0uQgPhS6EKEfik5e7eIbDJ
PsLt0ryKzJRXKNPQS25Um0S0uFZxbCi/BwvhAItSbDdaUJtbtnMrulMng7ju7G8C
AwEAAaOCAWMwggFfMAkGA1UdEwQCMAAwLQYJYIZIAYb4QgENBCAWHkVhc3ktUlNB
IEdlbmVyYXRlZCBDZXJ0aWZpY2F0ZTAdBgNVHQ4EFgQU5Fniq1yMyfAI2zKrnaNq
zsovFAQwgeEGA1UdIwSB2TCB1oAUEs1gBNKggJ5w7caZuHssxlL9GaGhgbKkga8w
gawxCzAJBgNVBAYTAlVTMQswCQYDVQQIEwJPSDERMA8GA1UEBxMIQ29sdW1idXMx
EjAQBgNVBAoTCVZpa2luZ1ZQTjEdMBsGA1UECxMUTXlPcmdhbml6YXRpb25hbFVu
aXQxFTATBgNVBAMTDFZpa2luZ1ZQTiBDQTEQMA4GA1UEKRMHRWFzeVJTQTEhMB8G
CSqGSIb3DQEJARYSbWVAbXlob3N0Lm15ZG9tYWluggkAzzWF7oC/Kj4wEwYDVR0l
BAwwCgYIKwYBBQUHAwIwCwYDVR0PBAQDAgeAMA0GCSqGSIb3DQEBBAUAA4ICAQCY
VHzx53q1OWyaZteC61Ctpe98K62eablwlnxfCl+ZFqb3Gul6obtwNlchYAhJwtqd
UFRi3gH8xKne/O5txdxC8v20rNXjP2AwnGESc02KYNaVqcFkOQ0cq0f7YTMSOZOW
Lyo5DEGuOtJULqLSnvhOLazzocY0iJxcMhetzaRFObSq/ubMNSCugvjg45gmGO/Z
Osz9L8rRRGeNqx8jhcvRSbtWwOnWNVFgYCU+1EVv2lRykFxeqArqqZ5edZFhf3VY
3sjL2VbhzjDwlIfv0GliSX8B5LVbEmkqnYVQ7eQngBGiS/ePxelf+0he5/18NNzZ
neCGXIHWEqZNZK/ccZTIen1VBgb3DZk2z6523MTg/hCVaiswUtzVWmtOV7Wvb1k5
FHgqm3FvcUhbFDFRlTISTqH+irMxoEkgLhjkMSfdko/XDXP9V0LZ4hKWKcsV/iqe
RdjAdjvakgPHl169GJoZyLTc+4Irk9XbvLDHGFCl4w1q2iK8YsJonAUuwhcJxDCj
GwTXomHUTTPwCJ9J5neNq01TERX2wB6T7IfdRsH7tuqj383KYoUaeBUSjPQP5BXB
Q6rR5VR3p6Wy7NcrYMZESq9vM2OzPdyR0Iz/xfGojLL4DYsPExCsUIedmkT/sDDf
CXDIBIyR/AwXnuGIdgAuAA+1h7vulOUDudl1BIGLvA==
-----END CERTIFICATE-----
