Certificate:
    Data:
        Version: 3 (0x2)
        Serial Number: 2471 (0x9a7)
    Signature Algorithm: md5WithRSAEncryption
        Issuer: C=US, ST=OH, L=Columbus, O=VikingVPN, OU=MyOrganizationalUnit, CN=VikingVPN CA/name=EasyRSA/emailAddress=me@myhost.mydomain
        Validity
            Not Before: Aug  6 02:35:55 2014 GMT
            Not After : Aug  3 02:35:55 2024 GMT
        Subject: CN=Client790Certdf3839
        Subject Public Key Info:
            Public Key Algorithm: rsaEncryption
                Public-Key: (4096 bit)
                Modulus:
                    00:cd:24:86:09:1c:6e:89:34:33:da:b1:c4:af:79:
                    a7:fb:15:78:7e:db:49:9e:2e:87:63:fc:c6:c4:4a:
                    54:08:ec:27:98:6e:bc:4b:52:51:48:6d:95:34:20:
                    b1:9a:d8:07:b6:33:61:38:56:7a:3c:87:09:f6:50:
                    33:bd:da:ce:9b:3c:39:97:16:22:a3:0b:87:68:09:
                    58:51:f2:e6:22:6b:88:cf:cf:86:a2:2c:33:dd:22:
                    df:da:cc:92:26:7c:b5:b6:10:a9:fa:64:e0:cc:db:
                    fa:c5:19:84:2e:f2:8e:73:94:3e:02:f5:3c:42:21:
                    58:bf:4e:0a:20:4d:b8:52:f1:67:e0:ad:67:20:a1:
                    38:b6:f5:01:52:23:f6:0c:07:7c:ce:26:58:ca:13:
                    09:40:1b:f5:f8:e8:3b:13:4c:9c:3a:78:0f:79:98:
                    03:65:36:2c:91:9a:93:50:4b:3a:f8:e1:48:eb:f5:
                    00:5b:cc:8b:4e:0b:5f:29:f6:2a:5e:00:60:4e:d4:
                    1d:5f:84:60:03:85:7c:ea:35:c2:99:33:53:51:d7:
                    38:65:a7:b5:86:89:cb:e7:ba:e2:03:cd:f6:22:0c:
                    17:7b:b0:4e:75:fa:18:8f:5e:ea:83:bb:c3:ff:f1:
                    9b:36:a9:ef:82:7b:db:04:a3:7d:6e:44:2a:8b:9a:
                    19:ef:ec:a9:bc:42:ab:68:bd:18:77:0b:48:81:13:
                    28:e4:0d:25:76:72:82:89:46:fa:75:81:14:72:ad:
                    40:7c:5e:09:06:f5:38:f9:c9:ad:8f:70:a7:8b:dc:
                    62:5d:cb:2b:06:26:a3:2e:0d:3d:82:a7:bb:56:80:
                    4e:8d:9e:97:03:c6:a3:2e:cd:64:fa:fe:5c:54:81:
                    78:38:6c:b8:24:af:45:9a:c2:a8:18:5b:d1:7b:e8:
                    4c:6d:38:ff:f1:90:2e:c4:a0:46:8b:84:2d:3d:ed:
                    c9:4d:d6:f0:45:3e:97:b1:6f:cf:d8:94:4e:14:49:
                    39:6f:59:7e:0f:da:15:96:cc:61:ab:c0:88:ad:93:
                    26:ee:83:57:f2:a8:66:ac:05:5b:ce:fe:de:a3:5f:
                    7f:36:90:88:d6:c4:08:ca:22:08:07:dd:bc:e6:97:
                    2f:39:ed:48:5c:e1:24:3e:68:da:5e:b4:4d:c5:9c:
                    3d:d8:66:92:ed:c7:2c:c5:66:f1:14:8d:a4:84:e1:
                    b5:d9:e1:09:53:65:64:04:9d:71:38:0d:e4:4a:22:
                    4a:ab:fe:c0:f6:da:34:a5:21:33:97:19:01:88:08:
                    99:74:d3:7f:bd:f4:60:2b:8a:f4:ce:d1:42:dc:be:
                    e2:fb:61:71:3e:71:f6:51:95:bf:be:74:58:aa:c9:
                    5b:f2:83
                Exponent: 65537 (0x10001)
        X509v3 extensions:
            X509v3 Basic Constraints: 
                CA:FALSE
            Netscape Comment: 
                Easy-RSA Generated Certificate
            X509v3 Subject Key Identifier: 
                87:B8:05:6A:54:7F:E3:4F:31:59:88:AB:F5:A5:BF:3A:50:DD:E4:B7
            X509v3 Authority Key Identifier: 
                keyid:12:CD:60:04:D2:A0:80:9E:70:ED:C6:99:B8:7B:2C:C6:52:FD:19:A1
                DirName:/C=US/ST=OH/L=Columbus/O=VikingVPN/OU=MyOrganizationalUnit/CN=VikingVPN CA/name=EasyRSA/emailAddress=me@myhost.mydomain
                serial:CF:35:85:EE:80:BF:2A:3E

            X509v3 Extended Key Usage: 
                TLS Web Client Authentication
            X509v3 Key Usage: 
                Digital Signature
    Signature Algorithm: md5WithRSAEncryption
         37:eb:00:46:d8:03:73:aa:61:bd:d9:70:77:08:a8:d4:5c:73:
         e3:22:9e:2e:63:55:d0:84:80:c7:a8:4a:41:b9:03:83:fa:2f:
         54:f9:6b:50:ed:1f:cd:a7:42:48:27:61:4c:57:27:6a:ed:d7:
         cc:27:8f:d2:d9:f9:b8:41:86:09:4e:04:8a:5d:a0:b9:b9:74:
         25:97:b8:91:a9:a8:e4:2d:2a:13:ba:5d:4e:62:b6:66:f9:73:
         ce:3f:bd:00:55:41:fc:a7:87:15:3b:cf:2b:c6:43:b3:cc:b0:
         66:09:d6:f4:16:1b:ff:a6:03:be:3b:96:f6:78:28:fe:d9:be:
         65:d4:ea:72:c8:5a:7e:e9:35:1b:63:5d:83:e8:8d:c5:47:75:
         ba:14:58:3b:e5:7f:64:d3:7a:f9:e1:3d:2f:ff:43:04:64:91:
         80:2f:da:03:3a:2a:52:a5:64:5f:c2:f4:89:38:a1:3d:a6:5c:
         d5:7b:01:88:04:21:e5:b5:09:86:09:83:7f:e9:43:76:bd:bc:
         a1:5d:3b:11:78:dd:37:53:03:60:3d:bf:e6:79:09:80:fb:96:
         9f:78:40:94:4b:59:4f:3d:65:02:fd:28:bf:6d:64:c1:a8:45:
         be:55:15:0f:93:d4:ee:09:a1:7b:6c:ba:bc:b6:6d:19:70:bb:
         d9:b9:37:84:97:42:16:ed:8e:93:6a:d1:c1:5b:26:fd:ee:c3:
         ed:55:d8:cd:68:e9:c8:b2:b3:f9:1f:2a:9f:16:4d:b1:98:6e:
         ae:e3:4e:aa:8b:36:f8:b3:f6:60:78:77:4e:e3:72:68:c2:11:
         f0:48:27:fc:36:67:cb:81:cd:2b:28:0c:2a:81:18:79:6a:bb:
         1d:5f:85:1a:06:db:f1:13:07:9d:af:d8:a8:01:75:10:02:2d:
         e7:db:14:dd:e6:d0:5b:de:35:28:51:91:00:1b:fc:28:48:ad:
         31:2c:f9:77:14:f1:56:ce:9d:fd:dd:6b:94:c2:43:9c:9c:99:
         9a:2d:cf:6d:5c:ce:02:23:1e:fc:5d:17:f5:4b:32:ef:ad:38:
         65:59:25:8d:8a:b4:f8:cb:5a:4a:03:2c:fb:b8:d1:a3:44:14:
         0a:40:37:5c:42:19:01:01:69:3c:ac:38:94:78:43:0f:e4:b1:
         4e:42:fd:5d:ad:7f:cd:b6:24:50:bc:d4:0d:4d:74:2f:a2:41:
         9d:e3:46:8d:c3:bf:3c:28:74:80:b7:27:a0:da:f2:c4:35:69:
         0d:c1:e5:f1:28:b0:d9:1c:3c:ce:8e:d9:ea:95:e9:df:7c:c1:
         b7:7f:41:2d:06:d6:ad:c8:f9:83:27:1f:62:77:7c:a8:19:4a:
         ed:15:b5:97:6d:f2:ad:06
-----BEGIN CERTIFICATE-----
MIIGrDCCBJSgAwIBAgICCacwDQYJKoZIhvcNAQEEBQAwgawxCzAJBgNVBAYTAlVT
MQswCQYDVQQIEwJPSDERMA8GA1UEBxMIQ29sdW1idXMxEjAQBgNVBAoTCVZpa2lu
Z1ZQTjEdMBsGA1UECxMUTXlPcmdhbml6YXRpb25hbFVuaXQxFTATBgNVBAMTDFZp
a2luZ1ZQTiBDQTEQMA4GA1UEKRMHRWFzeVJTQTEhMB8GCSqGSIb3DQEJARYSbWVA
bXlob3N0Lm15ZG9tYWluMB4XDTE0MDgwNjAyMzU1NVoXDTI0MDgwMzAyMzU1NVow
HjEcMBoGA1UEAxMTQ2xpZW50NzkwQ2VydGRmMzgzOTCCAiIwDQYJKoZIhvcNAQEB
BQADggIPADCCAgoCggIBAM0khgkcbok0M9qxxK95p/sVeH7bSZ4uh2P8xsRKVAjs
J5huvEtSUUhtlTQgsZrYB7YzYThWejyHCfZQM73azps8OZcWIqMLh2gJWFHy5iJr
iM/PhqIsM90i39rMkiZ8tbYQqfpk4Mzb+sUZhC7yjnOUPgL1PEIhWL9OCiBNuFLx
Z+CtZyChOLb1AVIj9gwHfM4mWMoTCUAb9fjoOxNMnDp4D3mYA2U2LJGak1BLOvjh
SOv1AFvMi04LXyn2Kl4AYE7UHV+EYAOFfOo1wpkzU1HXOGWntYaJy+e64gPN9iIM
F3uwTnX6GI9e6oO7w//xmzap74J72wSjfW5EKouaGe/sqbxCq2i9GHcLSIETKOQN
JXZygolG+nWBFHKtQHxeCQb1OPnJrY9wp4vcYl3LKwYmoy4NPYKnu1aATo2elwPG
oy7NZPr+XFSBeDhsuCSvRZrCqBhb0XvoTG04//GQLsSgRouELT3tyU3W8EU+l7Fv
z9iUThRJOW9Zfg/aFZbMYavAiK2TJu6DV/KoZqwFW87+3qNffzaQiNbECMoiCAfd
vOaXLzntSFzhJD5o2l60TcWcPdhmku3HLMVm8RSNpIThtdnhCVNlZASdcTgN5Eoi
Sqv+wPbaNKUhM5cZAYgImXTTf730YCuK9M7RQty+4vthcT5x9lGVv750WKrJW/KD
AgMBAAGjggFjMIIBXzAJBgNVHRMEAjAAMC0GCWCGSAGG+EIBDQQgFh5FYXN5LVJT
QSBHZW5lcmF0ZWQgQ2VydGlmaWNhdGUwHQYDVR0OBBYEFIe4BWpUf+NPMVmIq/Wl
vzpQ3eS3MIHhBgNVHSMEgdkwgdaAFBLNYATSoICecO3Gmbh7LMZS/RmhoYGypIGv
MIGsMQswCQYDVQQGEwJVUzELMAkGA1UECBMCT0gxETAPBgNVBAcTCENvbHVtYnVz
MRIwEAYDVQQKEwlWaWtpbmdWUE4xHTAbBgNVBAsTFE15T3JnYW5pemF0aW9uYWxV
bml0MRUwEwYDVQQDEwxWaWtpbmdWUE4gQ0ExEDAOBgNVBCkTB0Vhc3lSU0ExITAf
BgkqhkiG9w0BCQEWEm1lQG15aG9zdC5teWRvbWFpboIJAM81he6Avyo+MBMGA1Ud
JQQMMAoGCCsGAQUFBwMCMAsGA1UdDwQEAwIHgDANBgkqhkiG9w0BAQQFAAOCAgEA
N+sARtgDc6phvdlwdwio1Fxz4yKeLmNV0ISAx6hKQbkDg/ovVPlrUO0fzadCSCdh
TFcnau3XzCeP0tn5uEGGCU4Eil2gubl0JZe4kamo5C0qE7pdTmK2Zvlzzj+9AFVB
/KeHFTvPK8ZDs8ywZgnW9BYb/6YDvjuW9ngo/tm+ZdTqcshafuk1G2Ndg+iNxUd1
uhRYO+V/ZNN6+eE9L/9DBGSRgC/aAzoqUqVkX8L0iTihPaZc1XsBiAQh5bUJhgmD
f+lDdr28oV07EXjdN1MDYD2/5nkJgPuWn3hAlEtZTz1lAv0ov21kwahFvlUVD5PU
7gmhe2y6vLZtGXC72bk3hJdCFu2Ok2rRwVsm/e7D7VXYzWjpyLKz+R8qnxZNsZhu
ruNOqos2+LP2YHh3TuNyaMIR8Egn/DZny4HNKygMKoEYeWq7HV+FGgbb8RMHna/Y
qAF1EAIt59sU3ebQW941KFGRABv8KEitMSz5dxTxVs6d/d1rlMJDnJyZmi3PbVzO
AiMe/F0X9Usy7604ZVkljYq0+MtaSgMs+7jRo0QUCkA3XEIZAQFpPKw4lHhDD+Sx
TkL9Xa1/zbYkULzUDU10L6JBneNGjcO/PCh0gLcnoNryxDVpDcHl8Siw2Rw8zo7Z
6pXp33zBt39BLQbWrcj5gycfYnd8qBlK7RW1l23yrQY=
-----END CERTIFICATE-----
