Certificate:
    Data:
        Version: 3 (0x2)
        Serial Number: 8997 (0x2325)
    Signature Algorithm: sha256WithRSAEncryption
        Issuer: C=US, ST=OH, L=Columbus, O=VikingVPN, OU=MyOrganizationalUnit, CN=VikingVPN CA/name=EasyRSA/emailAddress=me@myhost.mydomain
        Validity
            Not Before: Sep  6 04:09:30 2016 GMT
            Not After : Sep  4 04:09:30 2026 GMT
        Subject: CN=Client2483Cert214ebf
        Subject Public Key Info:
            Public Key Algorithm: rsaEncryption
                Public-Key: (4096 bit)
                Modulus:
                    00:ab:67:4e:3f:49:68:4f:a6:2c:12:dd:37:46:35:
                    58:d8:cd:46:48:c4:61:22:3c:99:b0:41:8d:3f:2c:
                    f0:c2:9a:1d:68:69:78:b6:1e:ae:31:a2:bf:61:f8:
                    cb:70:a0:eb:d9:b6:1a:71:5b:97:5e:25:ff:b5:bd:
                    8d:20:7f:e3:2a:63:03:58:aa:47:03:27:74:2e:d2:
                    f4:de:7d:93:1a:af:4f:b4:74:5a:b3:72:b6:e2:65:
                    ef:31:38:9f:6a:d8:51:4c:30:87:51:f7:cb:ee:a9:
                    de:07:34:7f:8b:ac:9f:2b:fc:df:53:6b:d9:fc:23:
                    e5:98:01:fb:1b:b0:9c:03:14:18:d0:6a:c5:0a:56:
                    70:4c:3e:3d:82:83:a2:5c:a5:e9:b8:89:bf:05:75:
                    79:77:f4:38:40:e7:25:db:87:c4:ec:39:b2:71:d1:
                    c2:1d:aa:bb:83:66:45:ac:f5:97:df:e9:7f:8b:f9:
                    43:15:c0:59:31:4d:e1:6b:38:1b:ba:05:b4:ec:29:
                    c5:fa:50:61:c6:6d:96:a6:6b:2a:f3:2e:5d:f2:08:
                    0b:17:a7:ac:7b:f2:d1:da:fd:89:26:45:42:84:32:
                    cc:24:74:36:c5:70:bf:0a:e9:9e:52:b9:f8:71:91:
                    ad:fa:cb:ba:ca:00:f2:9e:88:6c:06:d2:5b:ed:53:
                    70:12:72:34:ac:cb:cf:e4:31:60:24:e2:9b:aa:a4:
                    23:29:54:71:cb:13:b3:7b:e2:09:0a:15:c1:13:c3:
                    80:0e:6a:ad:87:dd:7b:c2:80:f0:42:df:13:68:91:
                    86:65:0c:e8:2f:6d:a9:02:05:d5:a2:f1:5c:42:42:
                    27:a1:24:7d:f4:53:98:8c:f5:4a:81:31:39:f6:fa:
                    0e:01:0f:19:72:52:70:21:18:13:dc:36:2b:9f:71:
                    66:dc:4e:26:bb:f3:c2:b7:16:16:14:20:2f:6f:e8:
                    77:af:4a:96:af:60:e2:63:12:85:98:10:32:43:8b:
                    75:09:e7:62:fb:e5:bf:cf:d0:ca:6c:e0:0d:ee:49:
                    b3:84:12:2a:5d:94:68:a3:17:c6:f5:24:d8:73:d6:
                    0b:94:fc:04:27:f5:6b:03:f6:8e:92:02:23:13:8d:
                    30:8d:d5:b6:8b:5d:ee:41:d0:95:44:19:30:26:74:
                    3a:38:eb:e3:ff:13:f0:e4:ad:6a:69:e4:70:0e:fc:
                    e0:72:81:f3:27:c0:1b:ff:27:06:dc:a3:87:fd:35:
                    de:93:b8:8e:f9:cc:d1:02:a9:86:8b:1d:2e:1c:9e:
                    d2:41:35:0a:99:85:d1:01:d6:39:18:ac:6b:b6:be:
                    ac:57:b6:f1:3a:b4:6a:85:6c:9a:7f:30:1e:7d:c7:
                    27:19:2d
                Exponent: 65537 (0x10001)
        X509v3 extensions:
            X509v3 Basic Constraints: 
                CA:FALSE
            Netscape Comment: 
                Easy-RSA Generated Certificate
            X509v3 Subject Key Identifier: 
                2C:BA:08:22:26:27:EE:26:10:82:F0:18:0E:F3:1E:9A:55:F4:01:98
            X509v3 Authority Key Identifier: 
                keyid:12:CD:60:04:D2:A0:80:9E:70:ED:C6:99:B8:7B:2C:C6:52:FD:19:A1
                DirName:/C=US/ST=OH/L=Columbus/O=VikingVPN/OU=MyOrganizationalUnit/CN=VikingVPN CA/name=EasyRSA/emailAddress=me@myhost.mydomain
                serial:CF:35:85:EE:80:BF:2A:3E

            X509v3 Extended Key Usage: 
                TLS Web Client Authentication
            X509v3 Key Usage: 
                Digital Signature
    Signature Algorithm: sha256WithRSAEncryption
         ac:65:1d:03:1e:65:c0:d8:c0:c4:ec:e2:e1:ff:db:f7:cb:95:
         f9:60:57:36:a4:24:6a:5e:9d:af:47:a7:e0:46:f5:e0:1e:46:
         c8:11:28:23:40:ea:3c:31:5e:2b:0b:99:7c:ea:f7:78:2a:8c:
         d0:c6:c7:95:b9:b7:f2:0a:92:18:4e:67:47:3a:75:30:c3:db:
         85:3c:d4:ec:d2:74:89:98:78:06:64:00:a9:a0:2e:56:d4:53:
         d0:9d:ea:a6:8a:e9:72:ab:ac:2f:5b:cc:cc:36:e6:3a:02:4d:
         48:8b:78:06:1d:c9:5e:b0:16:36:73:fc:68:d3:11:f9:48:30:
         7d:42:e2:30:8d:ee:e3:43:a0:9a:51:a8:d8:70:e9:d1:b2:44:
         71:2d:7c:b3:4a:91:81:99:ea:a3:70:10:a9:28:e6:a4:11:a3:
         8d:fd:02:8f:69:cf:52:f1:7f:a3:95:c6:b5:38:6a:91:3b:3a:
         22:25:a3:45:bf:3d:42:b6:23:2e:d0:3f:61:02:2c:31:ca:c5:
         c9:b5:76:bd:47:fc:40:45:62:09:98:ee:9d:43:f2:be:fc:43:
         c5:06:1c:b3:71:c8:22:49:95:c2:5e:54:8c:67:d1:72:8f:96:
         fd:fa:a6:2b:58:34:17:e7:08:26:32:ac:10:93:b1:67:74:9f:
         db:70:da:4f:c0:e6:ba:34:73:ae:8c:00:92:20:ac:9f:b4:c5:
         ce:5a:17:ea:b9:ab:5c:9e:46:f1:86:1e:6b:77:4f:b9:b7:3e:
         33:79:50:5d:e5:0f:65:c5:05:86:1b:04:ad:fb:42:cd:c3:87:
         cc:31:79:45:5e:4c:1f:e8:6d:1f:32:fa:b8:47:11:aa:d5:d4:
         e4:25:5c:5c:97:0f:87:63:33:69:c0:14:ee:ea:7c:ce:13:c1:
         4d:06:e1:9c:70:43:a4:0a:aa:3b:cc:b2:22:3a:37:56:05:07:
         a2:07:5a:98:ad:11:06:b2:20:77:18:cf:ac:a5:f2:3c:b0:de:
         58:78:5b:1a:9a:09:ff:ee:1b:5b:37:5f:1d:14:29:3b:3a:44:
         18:08:99:1e:7d:8e:cd:05:d2:e9:56:0c:61:1d:80:c6:69:4b:
         3d:39:df:85:6a:1c:5f:13:f2:7c:d5:72:85:a8:ce:3a:79:61:
         51:ef:6e:9d:c3:30:f5:84:c7:13:70:ed:7a:88:d1:56:f0:00:
         3a:7f:4a:44:83:f9:ec:f5:5d:30:82:1e:62:10:d8:3e:e7:34:
         17:b3:ce:6c:08:7a:cc:3a:fe:04:0a:7e:cb:02:5e:d1:0c:2a:
         37:11:74:8a:03:f0:cd:e7:90:ab:b0:ef:22:f9:2f:fc:bd:d2:
         b0:39:ba:86:f5:d3:68:a2
-----BEGIN CERTIFICATE-----
MIIGrTCCBJWgAwIBAgICIyUwDQYJKoZIhvcNAQELBQAwgawxCzAJBgNVBAYTAlVT
MQswCQYDVQQIEwJPSDERMA8GA1UEBxMIQ29sdW1idXMxEjAQBgNVBAoTCVZpa2lu
Z1ZQTjEdMBsGA1UECxMUTXlPcmdhbml6YXRpb25hbFVuaXQxFTATBgNVBAMTDFZp
a2luZ1ZQTiBDQTEQMA4GA1UEKRMHRWFzeVJTQTEhMB8GCSqGSIb3DQEJARYSbWVA
bXlob3N0Lm15ZG9tYWluMB4XDTE2MDkwNjA0MDkzMFoXDTI2MDkwNDA0MDkzMFow
HzEdMBsGA1UEAxMUQ2xpZW50MjQ4M0NlcnQyMTRlYmYwggIiMA0GCSqGSIb3DQEB
AQUAA4ICDwAwggIKAoICAQCrZ04/SWhPpiwS3TdGNVjYzUZIxGEiPJmwQY0/LPDC
mh1oaXi2Hq4xor9h+MtwoOvZthpxW5deJf+1vY0gf+MqYwNYqkcDJ3Qu0vTefZMa
r0+0dFqzcrbiZe8xOJ9q2FFMMIdR98vuqd4HNH+LrJ8r/N9Ta9n8I+WYAfsbsJwD
FBjQasUKVnBMPj2Cg6Jcpem4ib8FdXl39DhA5yXbh8TsObJx0cIdqruDZkWs9Zff
6X+L+UMVwFkxTeFrOBu6BbTsKcX6UGHGbZamayrzLl3yCAsXp6x78tHa/YkmRUKE
MswkdDbFcL8K6Z5Sufhxka36y7rKAPKeiGwG0lvtU3AScjSsy8/kMWAk4puqpCMp
VHHLE7N74gkKFcETw4AOaq2H3XvCgPBC3xNokYZlDOgvbakCBdWi8VxCQiehJH30
U5iM9UqBMTn2+g4BDxlyUnAhGBPcNiufcWbcTia788K3FhYUIC9v6HevSpavYOJj
EoWYEDJDi3UJ52L75b/P0Mps4A3uSbOEEipdlGijF8b1JNhz1guU/AQn9WsD9o6S
AiMTjTCN1baLXe5B0JVEGTAmdDo46+P/E/DkrWpp5HAO/OBygfMnwBv/Jwbco4f9
Nd6TuI75zNECqYaLHS4cntJBNQqZhdEB1jkYrGu2vqxXtvE6tGqFbJp/MB59xycZ
LQIDAQABo4IBYzCCAV8wCQYDVR0TBAIwADAtBglghkgBhvhCAQ0EIBYeRWFzeS1S
U0EgR2VuZXJhdGVkIENlcnRpZmljYXRlMB0GA1UdDgQWBBQsuggiJifuJhCC8BgO
8x6aVfQBmDCB4QYDVR0jBIHZMIHWgBQSzWAE0qCAnnDtxpm4eyzGUv0ZoaGBsqSB
rzCBrDELMAkGA1UEBhMCVVMxCzAJBgNVBAgTAk9IMREwDwYDVQQHEwhDb2x1bWJ1
czESMBAGA1UEChMJVmlraW5nVlBOMR0wGwYDVQQLExRNeU9yZ2FuaXphdGlvbmFs
VW5pdDEVMBMGA1UEAxMMVmlraW5nVlBOIENBMRAwDgYDVQQpEwdFYXN5UlNBMSEw
HwYJKoZIhvcNAQkBFhJtZUBteWhvc3QubXlkb21haW6CCQDPNYXugL8qPjATBgNV
HSUEDDAKBggrBgEFBQcDAjALBgNVHQ8EBAMCB4AwDQYJKoZIhvcNAQELBQADggIB
AKxlHQMeZcDYwMTs4uH/2/fLlflgVzakJGpena9Hp+BG9eAeRsgRKCNA6jwxXisL
mXzq93gqjNDGx5W5t/IKkhhOZ0c6dTDD24U81OzSdImYeAZkAKmgLlbUU9Cd6qaK
6XKrrC9bzMw25joCTUiLeAYdyV6wFjZz/GjTEflIMH1C4jCN7uNDoJpRqNhw6dGy
RHEtfLNKkYGZ6qNwEKko5qQRo439Ao9pz1Lxf6OVxrU4apE7OiIlo0W/PUK2Iy7Q
P2ECLDHKxcm1dr1H/EBFYgmY7p1D8r78Q8UGHLNxyCJJlcJeVIxn0XKPlv36pitY
NBfnCCYyrBCTsWd0n9tw2k/A5ro0c66MAJIgrJ+0xc5aF+q5q1yeRvGGHmt3T7m3
PjN5UF3lD2XFBYYbBK37Qs3Dh8wxeUVeTB/obR8y+rhHEarV1OQlXFyXD4djM2nA
FO7qfM4TwU0G4ZxwQ6QKqjvMsiI6N1YFB6IHWpitEQayIHcYz6yl8jyw3lh4Wxqa
Cf/uG1s3Xx0UKTs6RBgImR59js0F0ulWDGEdgMZpSz0534VqHF8T8nzVcoWozjp5
YVHvbp3DMPWExxNw7XqI0VbwADp/SkSD+ez1XTCCHmIQ2D7nNBezzmwIesw6/gQK
fssCXtEMKjcRdIoD8M3nkKuw7yL5L/y90rA5uob102ii
-----END CERTIFICATE-----
