Certificate:
    Data:
        Version: 3 (0x2)
        Serial Number: 1632 (0x660)
    Signature Algorithm: md5WithRSAEncryption
        Issuer: C=US, ST=OH, L=Columbus, O=VikingVPN, OU=MyOrganizationalUnit, CN=VikingVPN CA/name=EasyRSA/emailAddress=me@myhost.mydomain
        Validity
            Not Before: Apr 16 00:59:57 2014 GMT
            Not After : Apr 13 00:59:57 2024 GMT
        Subject: CN=Client587Certc85920
        Subject Public Key Info:
            Public Key Algorithm: rsaEncryption
                Public-Key: (4096 bit)
                Modulus:
                    00:bb:55:e9:4d:97:8b:a8:2f:8d:9e:8e:c8:be:a6:
                    ed:e8:d2:a1:34:43:c9:a2:aa:5d:76:97:f3:5b:1a:
                    06:45:c6:fe:d5:6c:c0:ab:40:ed:bb:f4:02:a9:66:
                    81:49:b9:d0:2b:ab:07:9d:76:f9:db:61:74:0c:84:
                    9c:d9:df:4f:95:9f:6d:01:48:cb:d3:30:7c:54:3b:
                    ce:05:92:c8:bb:7a:de:d7:4e:8a:6a:f3:24:9c:ec:
                    f0:85:12:3a:f2:62:10:66:39:1c:95:1f:c6:07:ca:
                    85:5c:f1:03:e9:c9:d3:d4:a1:52:b2:ea:e7:0d:1f:
                    01:2a:39:67:b7:ec:07:a0:ac:55:08:c9:20:7f:fd:
                    d1:68:3f:25:ed:82:e8:96:29:86:e2:45:70:92:3d:
                    c1:0d:dd:69:fa:93:97:ab:d6:74:26:ee:3b:19:9d:
                    99:60:14:9a:85:8f:a2:ee:f4:24:46:8c:d9:de:f9:
                    e0:5f:44:c0:b7:da:09:b5:4e:c6:2f:64:d3:80:16:
                    2f:09:14:3d:dc:42:41:e4:16:7b:e4:2d:3e:12:e9:
                    e8:1b:8a:0f:83:43:65:42:f0:e8:6c:14:48:ec:56:
                    3f:09:e2:62:20:4a:74:44:b4:5e:cc:b3:6c:e0:37:
                    ab:61:3a:f3:4d:86:1f:30:98:99:84:06:ec:60:63:
                    10:26:c1:f4:18:ea:14:ab:36:ea:b3:a6:ae:5c:53:
                    d4:25:da:ab:62:8d:ee:8f:95:a4:a2:33:0f:cb:94:
                    1a:ac:ee:b8:a1:88:dc:76:fb:91:85:f7:02:85:66:
                    96:b5:01:64:f3:44:46:4f:4a:b6:fe:e3:54:42:d2:
                    e4:a3:14:6c:33:bc:fe:47:2b:31:c6:ae:3b:94:01:
                    0b:95:d5:f1:7c:c1:b7:29:bc:72:c4:97:97:b7:10:
                    21:0b:b1:76:19:47:05:da:dc:3d:fd:47:76:82:fb:
                    2a:46:6f:08:3a:fd:a6:9f:a2:30:a3:5f:f5:50:12:
                    77:e8:4f:bc:b8:cb:b9:dd:23:e1:dc:59:f7:f0:4d:
                    4c:ab:b4:26:c4:74:41:f8:8b:24:0b:bf:5a:68:29:
                    1c:6b:65:34:b2:21:23:87:f1:b4:ff:08:7f:aa:0e:
                    47:cc:14:02:ed:32:b4:94:c2:b5:70:c3:ec:1b:04:
                    a1:7b:28:29:9f:b7:42:bb:aa:f9:54:0e:2e:cf:07:
                    73:b0:f1:13:dc:14:b2:10:5d:b4:b3:b0:d7:69:ea:
                    7a:ca:73:a5:2b:93:82:41:52:ec:07:a1:39:b8:fb:
                    79:b7:be:a1:53:ed:92:95:70:9c:55:4f:f2:8f:f5:
                    75:f1:31:d1:46:fd:de:0b:db:a6:6d:ad:26:c4:b2:
                    f2:17:73
                Exponent: 65537 (0x10001)
        X509v3 extensions:
            X509v3 Basic Constraints: 
                CA:FALSE
            Netscape Comment: 
                Easy-RSA Generated Certificate
            X509v3 Subject Key Identifier: 
                F3:FF:24:51:D5:81:40:8E:80:19:E2:0E:C3:A3:91:C8:7A:B8:12:A3
            X509v3 Authority Key Identifier: 
                keyid:12:CD:60:04:D2:A0:80:9E:70:ED:C6:99:B8:7B:2C:C6:52:FD:19:A1
                DirName:/C=US/ST=OH/L=Columbus/O=VikingVPN/OU=MyOrganizationalUnit/CN=VikingVPN CA/name=EasyRSA/emailAddress=me@myhost.mydomain
                serial:CF:35:85:EE:80:BF:2A:3E

            X509v3 Extended Key Usage: 
                TLS Web Client Authentication
            X509v3 Key Usage: 
                Digital Signature
    Signature Algorithm: md5WithRSAEncryption
         60:9d:26:88:90:65:6a:1d:09:a0:a0:ec:d7:ee:56:71:73:c9:
         75:42:4e:b8:34:e6:b1:b9:3c:a1:ca:63:e9:c8:72:a7:a1:83:
         11:78:1c:2a:0b:c7:6e:c0:ee:39:f9:dd:64:8b:b3:3b:2f:25:
         49:36:1c:d3:08:ba:04:ef:22:3f:38:c9:6c:e3:4e:5b:cb:d9:
         80:20:53:1a:2a:e2:1d:44:e4:89:71:c4:9e:12:ed:49:e8:e1:
         e2:c6:da:08:94:78:25:2f:9a:fc:63:cf:c9:90:75:2f:ee:c0:
         34:05:61:4a:10:ab:78:4a:8d:5f:95:bc:64:ae:a6:a3:3b:66:
         7f:4b:3f:30:0d:5c:10:7e:a7:83:20:6a:29:0f:28:2d:8a:9f:
         11:aa:1e:9d:df:d8:20:ed:1b:14:65:b0:9d:09:d5:be:86:91:
         0a:3f:c1:d6:33:13:ac:96:5b:67:0d:15:c0:08:c5:a9:a4:20:
         18:87:bf:29:a1:52:cc:4b:ef:e9:bc:2e:6b:cb:11:26:43:0d:
         a5:40:b0:40:14:0c:02:4d:cc:5d:4d:b5:16:6f:ce:a7:c5:c0:
         96:15:d8:21:bd:74:2b:f7:64:0d:7b:ae:55:68:a9:9e:78:78:
         c8:03:4d:c0:ad:0b:e6:60:71:f1:54:18:dc:54:20:d8:00:40:
         43:16:ff:bd:ab:56:9e:a4:53:19:c0:f6:6a:a5:6d:bd:c2:ec:
         ea:b4:05:1f:29:53:d5:1b:32:94:70:ff:ca:4d:06:df:a1:08:
         3a:ae:fc:6c:b2:4e:a3:70:c8:a2:0c:36:ff:71:43:53:29:fa:
         5b:04:14:fb:87:ef:26:16:84:b8:b2:37:29:a7:aa:9e:bc:8e:
         29:3d:34:a8:5b:fb:0d:1a:c0:f8:04:28:2b:c3:bf:46:2f:2f:
         67:5c:34:4a:21:ad:3e:85:6b:be:b1:89:f4:dd:18:c5:cc:37:
         45:0d:b7:2d:c4:07:bb:cf:fe:4e:47:81:f0:d1:fb:bc:19:47:
         30:bc:74:92:b4:76:f1:a8:f2:5b:fc:f0:6d:7c:19:11:d1:75:
         e5:92:b6:3d:0c:99:2f:af:89:7f:32:23:57:e1:39:28:33:39:
         65:93:49:71:81:ca:6e:df:19:dd:cb:ce:94:5e:e7:46:d4:31:
         8f:ab:c4:6c:51:d6:e8:34:3f:02:f5:bd:60:78:09:0f:f3:a0:
         8f:ab:6b:9f:d2:c1:93:d7:b6:a3:8f:cd:9f:1f:e0:c0:f2:72:
         de:50:1c:0e:f6:33:7e:e1:36:f1:52:a0:d9:15:e1:13:42:ee:
         42:8d:8a:92:a8:89:37:c6:0a:b0:ec:b4:94:96:f5:27:81:ae:
         07:80:06:86:ab:ed:df:4b
-----BEGIN CERTIFICATE-----
MIIGrDCCBJSgAwIBAgICBmAwDQYJKoZIhvcNAQEEBQAwgawxCzAJBgNVBAYTAlVT
MQswCQYDVQQIEwJPSDERMA8GA1UEBxMIQ29sdW1idXMxEjAQBgNVBAoTCVZpa2lu
Z1ZQTjEdMBsGA1UECxMUTXlPcmdhbml6YXRpb25hbFVuaXQxFTATBgNVBAMTDFZp
a2luZ1ZQTiBDQTEQMA4GA1UEKRMHRWFzeVJTQTEhMB8GCSqGSIb3DQEJARYSbWVA
bXlob3N0Lm15ZG9tYWluMB4XDTE0MDQxNjAwNTk1N1oXDTI0MDQxMzAwNTk1N1ow
HjEcMBoGA1UEAxMTQ2xpZW50NTg3Q2VydGM4NTkyMDCCAiIwDQYJKoZIhvcNAQEB
BQADggIPADCCAgoCggIBALtV6U2Xi6gvjZ6OyL6m7ejSoTRDyaKqXXaX81saBkXG
/tVswKtA7bv0AqlmgUm50CurB512+dthdAyEnNnfT5WfbQFIy9MwfFQ7zgWSyLt6
3tdOimrzJJzs8IUSOvJiEGY5HJUfxgfKhVzxA+nJ09ShUrLq5w0fASo5Z7fsB6Cs
VQjJIH/90Wg/Je2C6JYphuJFcJI9wQ3dafqTl6vWdCbuOxmdmWAUmoWPou70JEaM
2d754F9EwLfaCbVOxi9k04AWLwkUPdxCQeQWe+QtPhLp6BuKD4NDZULw6GwUSOxW
PwniYiBKdES0XsyzbOA3q2E6802GHzCYmYQG7GBjECbB9BjqFKs26rOmrlxT1CXa
q2KN7o+VpKIzD8uUGqzuuKGI3Hb7kYX3AoVmlrUBZPNERk9Ktv7jVELS5KMUbDO8
/kcrMcauO5QBC5XV8XzBtym8csSXl7cQIQuxdhlHBdrcPf1HdoL7KkZvCDr9pp+i
MKNf9VASd+hPvLjLud0j4dxZ9/BNTKu0JsR0QfiLJAu/WmgpHGtlNLIhI4fxtP8I
f6oOR8wUAu0ytJTCtXDD7BsEoXsoKZ+3Qruq+VQOLs8Hc7DxE9wUshBdtLOw12nq
espzpSuTgkFS7AehObj7ebe+oVPtkpVwnFVP8o/1dfEx0Ub93gvbpm2tJsSy8hdz
AgMBAAGjggFjMIIBXzAJBgNVHRMEAjAAMC0GCWCGSAGG+EIBDQQgFh5FYXN5LVJT
QSBHZW5lcmF0ZWQgQ2VydGlmaWNhdGUwHQYDVR0OBBYEFPP/JFHVgUCOgBniDsOj
kch6uBKjMIHhBgNVHSMEgdkwgdaAFBLNYATSoICecO3Gmbh7LMZS/RmhoYGypIGv
MIGsMQswCQYDVQQGEwJVUzELMAkGA1UECBMCT0gxETAPBgNVBAcTCENvbHVtYnVz
MRIwEAYDVQQKEwlWaWtpbmdWUE4xHTAbBgNVBAsTFE15T3JnYW5pemF0aW9uYWxV
bml0MRUwEwYDVQQDEwxWaWtpbmdWUE4gQ0ExEDAOBgNVBCkTB0Vhc3lSU0ExITAf
BgkqhkiG9w0BCQEWEm1lQG15aG9zdC5teWRvbWFpboIJAM81he6Avyo+MBMGA1Ud
JQQMMAoGCCsGAQUFBwMCMAsGA1UdDwQEAwIHgDANBgkqhkiG9w0BAQQFAAOCAgEA
YJ0miJBlah0JoKDs1+5WcXPJdUJOuDTmsbk8ocpj6chyp6GDEXgcKgvHbsDuOfnd
ZIuzOy8lSTYc0wi6BO8iPzjJbONOW8vZgCBTGiriHUTkiXHEnhLtSejh4sbaCJR4
JS+a/GPPyZB1L+7ANAVhShCreEqNX5W8ZK6moztmf0s/MA1cEH6ngyBqKQ8oLYqf
Eaoend/YIO0bFGWwnQnVvoaRCj/B1jMTrJZbZw0VwAjFqaQgGIe/KaFSzEvv6bwu
a8sRJkMNpUCwQBQMAk3MXU21Fm/Op8XAlhXYIb10K/dkDXuuVWipnnh4yANNwK0L
5mBx8VQY3FQg2ABAQxb/vatWnqRTGcD2aqVtvcLs6rQFHylT1RsylHD/yk0G36EI
Oq78bLJOo3DIogw2/3FDUyn6WwQU+4fvJhaEuLI3KaeqnryOKT00qFv7DRrA+AQo
K8O/Ri8vZ1w0SiGtPoVrvrGJ9N0Yxcw3RQ23LcQHu8/+TkeB8NH7vBlHMLx0krR2
8ajyW/zwbXwZEdF15ZK2PQyZL6+JfzIjV+E5KDM5ZZNJcYHKbt8Z3cvOlF7nRtQx
j6vEbFHW6DQ/AvW9YHgJD/Ogj6trn9LBk9e2o4/Nnx/gwPJy3lAcDvYzfuE28VKg
2RXhE0LuQo2KkqiJN8YKsOy0lJb1J4GuB4AGhqvt30s=
-----END CERTIFICATE-----
