Certificate:
    Data:
        Version: 3 (0x2)
        Serial Number: 9030 (0x2346)
    Signature Algorithm: sha256WithRSAEncryption
        Issuer: C=US, ST=OH, L=Columbus, O=VikingVPN, OU=MyOrganizationalUnit, CN=VikingVPN CA/name=EasyRSA/emailAddress=me@myhost.mydomain
        Validity
            Not Before: Sep 15 23:10:54 2016 GMT
            Not After : Sep 13 23:10:54 2026 GMT
        Subject: CN=Client2416Cert5ef886
        Subject Public Key Info:
            Public Key Algorithm: rsaEncryption
                Public-Key: (4096 bit)
                Modulus:
                    00:cc:34:d4:48:9b:f3:ec:41:ec:5a:6a:bb:75:83:
                    0b:57:77:d4:c8:cc:e0:fe:0c:7c:2f:4e:cb:6b:5a:
                    0f:b1:d4:6e:7d:34:7b:0a:41:62:56:3b:be:ca:84:
                    8a:a5:0a:90:f3:1d:bb:e7:eb:6b:8d:dd:3b:52:51:
                    2b:86:50:b3:6b:4f:ff:e7:84:45:f7:40:10:8c:30:
                    c2:ae:1c:11:1d:a5:97:f0:33:3f:90:c3:5b:a1:a6:
                    1f:5f:7e:20:3b:c5:fb:05:92:77:af:40:86:c4:5c:
                    01:b4:52:1f:be:30:f5:2c:ab:52:fe:3c:7b:b9:e9:
                    3e:86:28:6d:af:98:3d:7d:e3:08:a8:b8:e2:cf:32:
                    12:ea:f1:94:b2:70:83:ca:57:52:00:b0:82:db:38:
                    70:68:79:70:64:c2:62:d2:a6:97:de:c3:7d:ff:8a:
                    35:e0:5c:be:87:f0:0e:f3:65:49:92:6b:91:e5:e6:
                    13:58:53:ec:59:63:93:50:7e:38:3c:da:84:bb:84:
                    04:52:58:e6:11:c1:8c:fa:d6:00:0a:89:a8:4d:4c:
                    d5:f0:07:72:b7:8e:98:64:bc:11:7b:b9:81:a4:9c:
                    8b:e9:b7:43:6a:29:73:05:f6:a3:39:4c:52:23:70:
                    f6:c1:ea:b2:68:2f:56:be:35:e9:39:2a:01:bc:43:
                    d8:54:24:76:47:31:16:1b:f9:55:b7:c1:66:89:5f:
                    c4:77:3f:40:7c:0e:35:bd:48:8e:31:c6:f8:4a:d7:
                    ca:04:ae:06:85:39:03:f5:79:c8:77:b7:7a:d0:74:
                    c2:72:a0:a6:3e:1f:cb:e7:5c:be:36:8d:2f:64:04:
                    d3:8d:bb:b5:4c:eb:ad:87:e0:ab:4d:39:9f:c5:44:
                    0c:8a:31:b8:79:e7:06:29:a9:c8:e5:75:95:91:e8:
                    57:f7:e7:62:ec:cc:5e:a6:1c:a4:36:ab:81:72:5c:
                    41:3d:8e:2d:28:86:58:76:9e:d3:66:f2:ee:98:09:
                    a5:99:98:0d:6a:10:67:1c:00:da:41:18:79:b4:7f:
                    1d:d3:28:22:d6:9a:ab:9b:6b:f2:fe:ff:eb:4d:c2:
                    37:75:2c:b6:cf:85:bd:1c:c7:97:f2:c5:60:9c:83:
                    a2:6e:c0:67:b6:a2:93:4e:31:39:d5:2f:26:50:3e:
                    02:21:b1:2e:8c:44:a8:4c:a4:1f:59:5f:14:1c:91:
                    1d:f2:d4:70:7d:75:48:64:a1:9c:9b:08:fa:c1:36:
                    b8:1c:35:36:04:8a:8c:17:30:51:c3:ee:65:7f:dd:
                    64:87:e7:f7:97:a3:cd:f6:f9:6b:28:18:73:b3:7d:
                    00:fb:25:d8:8e:ff:ae:1f:e9:e1:9b:c8:83:4f:98:
                    90:5c:af
                Exponent: 65537 (0x10001)
        X509v3 extensions:
            X509v3 Basic Constraints: 
                CA:FALSE
            Netscape Comment: 
                Easy-RSA Generated Certificate
            X509v3 Subject Key Identifier: 
                EC:BD:22:7D:64:C5:E6:D7:E7:13:69:D8:51:89:B0:F2:16:26:40:88
            X509v3 Authority Key Identifier: 
                keyid:12:CD:60:04:D2:A0:80:9E:70:ED:C6:99:B8:7B:2C:C6:52:FD:19:A1
                DirName:/C=US/ST=OH/L=Columbus/O=VikingVPN/OU=MyOrganizationalUnit/CN=VikingVPN CA/name=EasyRSA/emailAddress=me@myhost.mydomain
                serial:CF:35:85:EE:80:BF:2A:3E

            X509v3 Extended Key Usage: 
                TLS Web Client Authentication
            X509v3 Key Usage: 
                Digital Signature
    Signature Algorithm: sha256WithRSAEncryption
         10:3d:47:73:d5:d1:b2:be:f7:83:2c:5e:48:de:3d:ab:58:dd:
         1c:a0:83:e5:21:fb:88:04:81:f3:2e:b0:b6:d0:a1:30:43:d3:
         66:49:3a:fc:62:24:eb:44:08:eb:56:ad:63:cd:de:5d:63:52:
         83:24:04:7b:5c:0a:72:bc:43:c4:d0:60:29:80:5e:9d:25:07:
         53:12:a3:07:57:39:81:f7:eb:f3:08:dc:10:43:bd:d0:7e:e3:
         a6:ef:b3:c4:86:15:b5:64:45:32:74:85:a2:50:c7:66:66:e7:
         b2:80:7d:83:c1:34:b3:95:59:06:46:4c:82:a8:2f:65:eb:57:
         31:60:59:58:3a:2e:fc:22:72:9d:b7:56:86:2d:b1:19:77:8c:
         3d:b7:db:93:42:2b:90:8f:f3:b6:31:f8:b0:5e:62:43:6e:ad:
         5c:7f:20:27:fd:f3:95:5b:b4:23:f4:7f:ee:b7:eb:21:e5:65:
         a0:59:ff:82:9b:d5:b4:03:42:62:8e:97:8e:4e:6b:64:4d:ce:
         9b:54:3b:4a:e5:ac:af:27:72:98:85:a3:c3:c4:1c:6a:f0:3f:
         54:9d:20:44:b9:44:de:79:6c:41:93:4c:0c:5e:ec:fb:f9:1b:
         57:95:44:cd:c4:01:26:95:bb:f0:e4:d0:a0:75:08:fd:37:f7:
         f6:da:b6:8b:f5:b4:fd:0f:6f:4b:4c:be:25:27:59:6a:a6:92:
         4b:78:8f:4a:8f:e9:01:2b:8f:6d:07:0c:b5:62:9d:01:0d:ee:
         97:2f:2d:b5:ea:1c:20:00:bd:cf:1f:68:55:7b:8e:46:4a:86:
         b0:0c:6a:70:ee:a9:92:c3:3b:4a:37:55:bf:ce:f8:dc:5a:6f:
         f1:6e:3f:e8:7a:ba:6c:1b:e3:e5:2b:64:94:0f:45:cd:08:da:
         b5:e9:d5:a5:16:33:62:58:f3:2c:b7:8b:3a:03:74:b7:ea:69:
         d9:4c:ce:98:58:8c:97:fe:07:40:34:fd:4c:4a:d4:b3:0a:ae:
         9e:58:e0:8d:a1:b5:8d:b1:8b:a5:2b:68:76:80:cb:03:8e:ac:
         6d:28:fa:08:2c:78:b8:e7:f1:42:f3:10:10:71:59:f3:8c:2c:
         bb:f0:3f:00:0c:de:97:79:6a:be:79:9d:61:c7:c7:4b:54:db:
         3a:a1:69:17:83:08:b3:08:87:97:d6:2e:f0:2d:6b:3d:a4:f2:
         67:17:c8:ba:86:23:9b:a3:4b:c8:64:b6:cc:76:11:1c:d4:6e:
         fa:da:4e:9b:f9:f0:db:5e:56:5e:3f:a8:e6:68:f4:cb:51:d4:
         a8:d4:79:3a:73:5b:be:e4:2b:5d:3f:c9:5a:96:21:dd:17:c5:
         ef:ee:13:67:7b:a7:44:84
-----BEGIN CERTIFICATE-----
MIIGrTCCBJWgAwIBAgICI0YwDQYJKoZIhvcNAQELBQAwgawxCzAJBgNVBAYTAlVT
MQswCQYDVQQIEwJPSDERMA8GA1UEBxMIQ29sdW1idXMxEjAQBgNVBAoTCVZpa2lu
Z1ZQTjEdMBsGA1UECxMUTXlPcmdhbml6YXRpb25hbFVuaXQxFTATBgNVBAMTDFZp
a2luZ1ZQTiBDQTEQMA4GA1UEKRMHRWFzeVJTQTEhMB8GCSqGSIb3DQEJARYSbWVA
bXlob3N0Lm15ZG9tYWluMB4XDTE2MDkxNTIzMTA1NFoXDTI2MDkxMzIzMTA1NFow
HzEdMBsGA1UEAxMUQ2xpZW50MjQxNkNlcnQ1ZWY4ODYwggIiMA0GCSqGSIb3DQEB
AQUAA4ICDwAwggIKAoICAQDMNNRIm/PsQexaart1gwtXd9TIzOD+DHwvTstrWg+x
1G59NHsKQWJWO77KhIqlCpDzHbvn62uN3TtSUSuGULNrT//nhEX3QBCMMMKuHBEd
pZfwMz+Qw1uhph9ffiA7xfsFknevQIbEXAG0Uh++MPUsq1L+PHu56T6GKG2vmD19
4wiouOLPMhLq8ZSycIPKV1IAsILbOHBoeXBkwmLSppfew33/ijXgXL6H8A7zZUmS
a5Hl5hNYU+xZY5NQfjg82oS7hARSWOYRwYz61gAKiahNTNXwB3K3jphkvBF7uYGk
nIvpt0NqKXMF9qM5TFIjcPbB6rJoL1a+Nek5KgG8Q9hUJHZHMRYb+VW3wWaJX8R3
P0B8DjW9SI4xxvhK18oErgaFOQP1ech3t3rQdMJyoKY+H8vnXL42jS9kBNONu7VM
662H4KtNOZ/FRAyKMbh55wYpqcjldZWR6Ff352LszF6mHKQ2q4FyXEE9ji0ohlh2
ntNm8u6YCaWZmA1qEGccANpBGHm0fx3TKCLWmquba/L+/+tNwjd1LLbPhb0cx5fy
xWCcg6JuwGe2opNOMTnVLyZQPgIhsS6MRKhMpB9ZXxQckR3y1HB9dUhkoZybCPrB
NrgcNTYEiowXMFHD7mV/3WSH5/eXo832+WsoGHOzfQD7JdiO/64f6eGbyINPmJBc
rwIDAQABo4IBYzCCAV8wCQYDVR0TBAIwADAtBglghkgBhvhCAQ0EIBYeRWFzeS1S
U0EgR2VuZXJhdGVkIENlcnRpZmljYXRlMB0GA1UdDgQWBBTsvSJ9ZMXm1+cTadhR
ibDyFiZAiDCB4QYDVR0jBIHZMIHWgBQSzWAE0qCAnnDtxpm4eyzGUv0ZoaGBsqSB
rzCBrDELMAkGA1UEBhMCVVMxCzAJBgNVBAgTAk9IMREwDwYDVQQHEwhDb2x1bWJ1
czESMBAGA1UEChMJVmlraW5nVlBOMR0wGwYDVQQLExRNeU9yZ2FuaXphdGlvbmFs
VW5pdDEVMBMGA1UEAxMMVmlraW5nVlBOIENBMRAwDgYDVQQpEwdFYXN5UlNBMSEw
HwYJKoZIhvcNAQkBFhJtZUBteWhvc3QubXlkb21haW6CCQDPNYXugL8qPjATBgNV
HSUEDDAKBggrBgEFBQcDAjALBgNVHQ8EBAMCB4AwDQYJKoZIhvcNAQELBQADggIB
ABA9R3PV0bK+94MsXkjePatY3Rygg+Uh+4gEgfMusLbQoTBD02ZJOvxiJOtECOtW
rWPN3l1jUoMkBHtcCnK8Q8TQYCmAXp0lB1MSowdXOYH36/MI3BBDvdB+46bvs8SG
FbVkRTJ0haJQx2Zm57KAfYPBNLOVWQZGTIKoL2XrVzFgWVg6Lvwicp23VoYtsRl3
jD2325NCK5CP87Yx+LBeYkNurVx/ICf985VbtCP0f+636yHlZaBZ/4Kb1bQDQmKO
l45Oa2RNzptUO0rlrK8ncpiFo8PEHGrwP1SdIES5RN55bEGTTAxe7Pv5G1eVRM3E
ASaVu/Dk0KB1CP039/batov1tP0Pb0tMviUnWWqmkkt4j0qP6QErj20HDLVinQEN
7pcvLbXqHCAAvc8faFV7jkZKhrAManDuqZLDO0o3Vb/O+Nxab/FuP+h6umwb4+Ur
ZJQPRc0I2rXp1aUWM2JY8yy3izoDdLfqadlMzphYjJf+B0A0/UxK1LMKrp5Y4I2h
tY2xi6UraHaAywOOrG0o+ggseLjn8ULzEBBxWfOMLLvwPwAM3pd5ar55nWHHx0tU
2zqhaReDCLMIh5fWLvAtaz2k8mcXyLqGI5ujS8hktsx2ERzUbvraTpv58NteVl4/
qOZo9MtR1KjUeTpzW77kK10/yVqWId0Xxe/uE2d7p0SE
-----END CERTIFICATE-----
