Certificate:
    Data:
        Version: 3 (0x2)
        Serial Number: 1518 (0x5ee)
    Signature Algorithm: md5WithRSAEncryption
        Issuer: C=US, ST=OH, L=Columbus, O=VikingVPN, OU=MyOrganizationalUnit, CN=VikingVPN CA/name=EasyRSA/emailAddress=me@myhost.mydomain
        Validity
            Not Before: Apr  7 21:56:24 2014 GMT
            Not After : Apr  4 21:56:24 2024 GMT
        Subject: CN=Client562Certa9d0b5
        Subject Public Key Info:
            Public Key Algorithm: rsaEncryption
                Public-Key: (4096 bit)
                Modulus:
                    00:d5:05:3c:a1:8a:60:c6:5a:e9:ed:85:7c:11:53:
                    79:69:e5:e4:29:85:68:24:ee:97:45:16:92:8b:22:
                    ee:bd:e5:9e:4c:07:db:73:02:32:a6:6a:31:df:4d:
                    ee:ae:83:a1:67:13:e9:94:fc:31:1a:49:fd:1c:db:
                    b7:a0:b2:dc:b6:ce:30:13:7f:f5:d9:ca:86:92:cd:
                    35:02:e0:2f:4f:4d:8c:d2:b2:f2:57:13:66:d6:ce:
                    77:d7:e9:d6:aa:4d:28:2c:ba:a8:90:ec:c1:50:63:
                    3b:ad:30:f0:31:9e:96:d9:90:6b:74:3c:7b:7d:f0:
                    a7:c9:53:df:6f:a2:01:b9:f7:ed:40:87:29:ec:e8:
                    3c:1e:ae:ef:79:b8:b4:8d:fe:d6:d0:30:8d:04:bd:
                    ec:c1:b7:1e:46:b9:72:1f:05:32:b7:03:f9:2a:55:
                    ec:e9:54:7e:73:0f:9a:af:7e:8e:4d:2a:ef:6a:1d:
                    ba:fd:81:9f:56:75:c1:f1:86:1e:ac:36:fc:22:25:
                    d8:a7:f0:db:7b:f3:5d:01:2e:86:6d:a1:5d:77:c1:
                    5c:29:ae:7a:db:4b:80:3d:91:15:14:e2:29:09:4f:
                    89:5c:6e:7e:3d:14:b1:14:a0:66:7a:35:6a:e7:45:
                    b8:52:4d:ff:be:f7:a9:79:d4:60:92:67:bb:b8:88:
                    3f:2f:4b:2a:eb:f2:73:bb:c6:5b:eb:14:1e:dd:e2:
                    41:e2:1e:25:79:99:ee:36:dc:de:ee:6b:ce:9e:4d:
                    79:d5:86:69:e9:48:22:92:42:14:53:90:70:0f:44:
                    76:98:9e:98:07:15:db:a6:cb:f1:b1:77:3f:b5:76:
                    53:8a:ac:af:50:90:97:73:cd:63:a7:79:d0:a4:95:
                    81:0e:47:ab:68:7d:3c:73:da:8c:f8:cf:d2:a8:cd:
                    a3:0f:d4:10:5d:9e:86:41:3d:08:81:ed:c7:14:c2:
                    6e:87:78:3c:92:1a:e5:76:37:a5:81:d5:23:32:9f:
                    7e:78:6a:2f:2e:a5:1b:4d:0e:1a:94:28:12:e7:16:
                    e6:8f:ea:53:5d:f1:61:dc:8b:07:69:5c:ed:31:78:
                    78:ca:0c:7e:f9:28:b0:fd:94:49:67:9e:bf:90:75:
                    4f:3d:95:e1:6d:62:38:7e:e2:c0:ad:30:be:00:93:
                    ce:ba:4b:35:f5:4a:6d:bb:ea:be:70:29:20:d6:e8:
                    9e:38:5d:d0:e2:b2:50:a1:2d:a7:fb:2c:43:82:ec:
                    d4:e3:a7:bb:c5:93:fb:ec:6a:ad:9a:8a:99:6a:05:
                    02:31:1a:de:f7:d8:8d:b9:46:85:6b:5d:3d:93:05:
                    eb:cb:4e:ad:80:13:67:b5:97:81:5f:d5:1f:77:b8:
                    60:5a:d5
                Exponent: 65537 (0x10001)
        X509v3 extensions:
            X509v3 Basic Constraints: 
                CA:FALSE
            Netscape Comment: 
                Easy-RSA Generated Certificate
            X509v3 Subject Key Identifier: 
                AE:4C:0F:D3:B0:56:55:D3:89:A5:D6:C8:3B:B3:68:F0:0D:B8:AC:B3
            X509v3 Authority Key Identifier: 
                keyid:12:CD:60:04:D2:A0:80:9E:70:ED:C6:99:B8:7B:2C:C6:52:FD:19:A1
                DirName:/C=US/ST=OH/L=Columbus/O=VikingVPN/OU=MyOrganizationalUnit/CN=VikingVPN CA/name=EasyRSA/emailAddress=me@myhost.mydomain
                serial:CF:35:85:EE:80:BF:2A:3E

            X509v3 Extended Key Usage: 
                TLS Web Client Authentication
            X509v3 Key Usage: 
                Digital Signature
    Signature Algorithm: md5WithRSAEncryption
         5b:cb:77:60:b0:05:0c:db:c8:e5:51:f0:a6:36:60:83:03:62:
         2e:44:99:36:23:b9:9f:b0:16:fa:6a:a2:db:f0:c6:b1:63:b4:
         5f:1f:92:05:57:3d:f3:a3:12:9b:ea:81:21:42:50:99:ee:1a:
         5c:1f:fb:8d:5f:16:a0:e6:d1:d6:a1:88:03:ba:ee:26:24:4b:
         44:98:68:4c:28:99:e1:5d:2e:c0:db:87:db:ab:bf:5d:75:21:
         6c:20:64:3b:a6:88:66:3f:68:05:dc:fd:64:98:f4:40:0b:0e:
         43:f1:4e:fa:9d:73:3b:89:eb:ca:46:13:0e:7f:95:92:03:14:
         2e:fd:65:04:72:5e:3e:71:f8:00:78:cc:59:c5:e6:91:c7:1f:
         f1:71:ae:94:22:04:00:e9:a7:c2:15:12:ad:59:dc:c4:0c:55:
         16:5b:4e:fe:30:41:17:61:7b:f6:05:db:9c:9b:fb:be:18:c7:
         42:64:26:ab:c1:c9:02:a9:71:bb:11:c4:25:e5:b3:a8:42:73:
         af:49:b2:fc:09:35:55:1b:50:1b:2b:44:33:02:75:9d:62:0d:
         fc:b9:53:44:9d:f0:34:72:16:6f:ee:85:c9:c8:8d:67:53:77:
         ae:6f:e9:73:42:12:1d:00:12:85:e0:11:3e:a0:99:a4:a1:eb:
         17:79:f6:10:8f:35:a1:af:bb:bd:eb:92:ac:d2:34:e5:32:46:
         26:b9:cd:c4:58:9c:44:5d:68:20:da:a1:59:da:42:78:8d:a8:
         a3:56:d3:fb:77:b1:71:b2:51:9c:e4:7e:19:9a:5d:15:d2:98:
         88:c9:d2:62:81:58:4f:04:4f:0e:53:69:c4:e0:bf:96:43:5b:
         43:50:cc:e7:96:0c:e9:6f:5a:1c:d2:4f:ef:7c:30:d4:d7:a0:
         8d:d9:47:25:5f:26:cf:54:7b:d7:d8:ba:85:82:a7:2a:b5:9f:
         12:58:98:b7:63:6d:75:5d:63:2d:7f:ba:c3:58:4f:27:94:f5:
         8f:a9:52:fa:66:a5:dd:b6:4b:8c:aa:ab:70:e3:97:b7:47:78:
         47:78:2e:37:40:21:c1:92:1f:d1:75:50:ed:9c:6e:96:ae:d3:
         85:e5:9c:76:7b:9f:d2:d7:8b:4b:a8:04:2b:88:8a:54:25:74:
         d2:2a:a6:aa:58:a3:8c:b7:67:98:57:6c:02:71:ec:fb:cb:de:
         a9:ba:50:ad:97:ed:8a:e1:3d:8f:c7:a6:43:f4:bb:87:28:5d:
         3d:3d:f2:97:ea:b1:4d:cb:db:a6:cc:b5:7d:da:61:6f:04:4d:
         9a:f9:cf:28:80:86:28:c6:5c:47:82:9e:62:f1:7e:93:e9:b5:
         cb:c7:44:41:60:c7:a9:18
-----BEGIN CERTIFICATE-----
MIIGrDCCBJSgAwIBAgICBe4wDQYJKoZIhvcNAQEEBQAwgawxCzAJBgNVBAYTAlVT
MQswCQYDVQQIEwJPSDERMA8GA1UEBxMIQ29sdW1idXMxEjAQBgNVBAoTCVZpa2lu
Z1ZQTjEdMBsGA1UECxMUTXlPcmdhbml6YXRpb25hbFVuaXQxFTATBgNVBAMTDFZp
a2luZ1ZQTiBDQTEQMA4GA1UEKRMHRWFzeVJTQTEhMB8GCSqGSIb3DQEJARYSbWVA
bXlob3N0Lm15ZG9tYWluMB4XDTE0MDQwNzIxNTYyNFoXDTI0MDQwNDIxNTYyNFow
HjEcMBoGA1UEAxMTQ2xpZW50NTYyQ2VydGE5ZDBiNTCCAiIwDQYJKoZIhvcNAQEB
BQADggIPADCCAgoCggIBANUFPKGKYMZa6e2FfBFTeWnl5CmFaCTul0UWkosi7r3l
nkwH23MCMqZqMd9N7q6DoWcT6ZT8MRpJ/Rzbt6Cy3LbOMBN/9dnKhpLNNQLgL09N
jNKy8lcTZtbOd9fp1qpNKCy6qJDswVBjO60w8DGeltmQa3Q8e33wp8lT32+iAbn3
7UCHKezoPB6u73m4tI3+1tAwjQS97MG3Hka5ch8FMrcD+SpV7OlUfnMPmq9+jk0q
72oduv2Bn1Z1wfGGHqw2/CIl2Kfw23vzXQEuhm2hXXfBXCmuettLgD2RFRTiKQlP
iVxufj0UsRSgZno1audFuFJN/773qXnUYJJnu7iIPy9LKuvyc7vGW+sUHt3iQeIe
JXmZ7jbc3u5rzp5NedWGaelIIpJCFFOQcA9EdpiemAcV26bL8bF3P7V2U4qsr1CQ
l3PNY6d50KSVgQ5Hq2h9PHPajPjP0qjNow/UEF2ehkE9CIHtxxTCbod4PJIa5XY3
pYHVIzKffnhqLy6lG00OGpQoEucW5o/qU13xYdyLB2lc7TF4eMoMfvkosP2USWee
v5B1Tz2V4W1iOH7iwK0wvgCTzrpLNfVKbbvqvnApINbonjhd0OKyUKEtp/ssQ4Ls
1OOnu8WT++xqrZqKmWoFAjEa3vfYjblGhWtdPZMF68tOrYATZ7WXgV/VH3e4YFrV
AgMBAAGjggFjMIIBXzAJBgNVHRMEAjAAMC0GCWCGSAGG+EIBDQQgFh5FYXN5LVJT
QSBHZW5lcmF0ZWQgQ2VydGlmaWNhdGUwHQYDVR0OBBYEFK5MD9OwVlXTiaXWyDuz
aPANuKyzMIHhBgNVHSMEgdkwgdaAFBLNYATSoICecO3Gmbh7LMZS/RmhoYGypIGv
MIGsMQswCQYDVQQGEwJVUzELMAkGA1UECBMCT0gxETAPBgNVBAcTCENvbHVtYnVz
MRIwEAYDVQQKEwlWaWtpbmdWUE4xHTAbBgNVBAsTFE15T3JnYW5pemF0aW9uYWxV
bml0MRUwEwYDVQQDEwxWaWtpbmdWUE4gQ0ExEDAOBgNVBCkTB0Vhc3lSU0ExITAf
BgkqhkiG9w0BCQEWEm1lQG15aG9zdC5teWRvbWFpboIJAM81he6Avyo+MBMGA1Ud
JQQMMAoGCCsGAQUFBwMCMAsGA1UdDwQEAwIHgDANBgkqhkiG9w0BAQQFAAOCAgEA
W8t3YLAFDNvI5VHwpjZggwNiLkSZNiO5n7AW+mqi2/DGsWO0Xx+SBVc986MSm+qB
IUJQme4aXB/7jV8WoObR1qGIA7ruJiRLRJhoTCiZ4V0uwNuH26u/XXUhbCBkO6aI
Zj9oBdz9ZJj0QAsOQ/FO+p1zO4nrykYTDn+VkgMULv1lBHJePnH4AHjMWcXmkccf
8XGulCIEAOmnwhUSrVncxAxVFltO/jBBF2F79gXbnJv7vhjHQmQmq8HJAqlxuxHE
JeWzqEJzr0my/Ak1VRtQGytEMwJ1nWIN/LlTRJ3wNHIWb+6FyciNZ1N3rm/pc0IS
HQASheARPqCZpKHrF3n2EI81oa+7veuSrNI05TJGJrnNxFicRF1oINqhWdpCeI2o
o1bT+3excbJRnOR+GZpdFdKYiMnSYoFYTwRPDlNpxOC/lkNbQ1DM55YM6W9aHNJP
73ww1NegjdlHJV8mz1R719i6hYKnKrWfEliYt2NtdV1jLX+6w1hPJ5T1j6lS+mal
3bZLjKqrcOOXt0d4R3guN0AhwZIf0XVQ7Zxulq7TheWcdnuf0teLS6gEK4iKVCV0
0iqmqlijjLdnmFdsAnHs+8veqbpQrZftiuE9j8emQ/S7hyhdPT3yl+qxTcvbpsy1
fdphbwRNmvnPKICGKMZcR4KeYvF+k+m1y8dEQWDHqRg=
-----END CERTIFICATE-----
