Certificate:
    Data:
        Version: 3 (0x2)
        Serial Number: 12810 (0x320a)
    Signature Algorithm: sha256WithRSAEncryption
        Issuer: C=US, ST=OH, L=Columbus, O=VikingVPN, OU=MyOrganizationalUnit, CN=VikingVPN CA/name=EasyRSA/emailAddress=me@myhost.mydomain
        Validity
            Not Before: Mar 28 16:48:43 2018 GMT
            Not After : Mar 25 16:48:43 2028 GMT
        Subject: CN=Client1380Cert676a6c
        Subject Public Key Info:
            Public Key Algorithm: rsaEncryption
                Public-Key: (4096 bit)
                Modulus:
                    00:b8:cc:4b:ff:77:87:8a:f4:3c:40:7b:09:74:6c:
                    ba:5f:76:41:ab:a8:6f:4a:29:cd:0f:dc:d7:47:9d:
                    d1:7c:c2:df:71:f8:97:ba:5d:e5:eb:76:18:bc:95:
                    c7:9f:8a:24:bd:45:8e:4f:68:50:76:3b:c3:74:7a:
                    48:b4:35:80:00:ab:00:82:56:8b:29:0d:d5:87:8e:
                    9c:56:ec:5d:29:8d:61:60:89:9a:e3:97:22:a1:91:
                    e2:48:25:bd:78:8d:46:2b:aa:ed:4a:37:50:ae:7c:
                    62:70:2a:9b:bf:18:83:b9:9d:3a:c7:7d:ec:31:74:
                    fa:13:06:3a:8b:d3:4b:c9:59:e6:04:19:07:85:f2:
                    e5:c8:79:11:e1:f1:77:86:cc:ae:11:6d:d9:dc:93:
                    b9:8b:8b:69:2e:c1:29:43:a5:2b:d6:15:62:cb:52:
                    ca:7a:f8:0e:35:9b:bd:44:76:d4:e4:61:52:85:5f:
                    3d:24:bf:3e:2b:da:9c:da:d8:46:08:f1:25:72:5d:
                    0b:c8:d1:78:94:29:78:77:a4:b8:f7:85:8f:d4:fc:
                    e5:14:4d:52:02:a4:29:3e:d3:05:3a:5a:d0:3e:3d:
                    d6:26:07:60:5b:fb:84:3e:c5:f8:17:81:82:83:b1:
                    28:3a:ac:a9:7b:17:e1:2e:4f:36:62:4e:c0:2a:91:
                    08:f7:01:d6:56:7f:39:35:56:e4:87:cb:f6:be:b2:
                    47:6b:da:cb:b5:b7:b6:b7:0f:2b:e1:d6:6f:15:a5:
                    c3:97:84:24:dc:60:c2:b4:bd:c2:89:89:2d:e1:1d:
                    06:8e:a2:3e:39:ea:52:2b:89:3b:86:39:4f:99:9f:
                    8b:6e:50:49:a7:7d:0b:02:66:74:d9:a4:23:7a:bc:
                    0e:58:fd:10:14:79:c4:6d:b3:46:1a:ac:06:d3:1e:
                    12:df:b6:9f:a0:06:06:70:33:c0:64:2e:9d:40:ea:
                    66:73:d0:1a:ac:20:76:90:73:cb:0a:aa:c6:6e:5e:
                    d7:03:61:09:fb:8d:b1:94:b5:19:6a:76:8c:1e:22:
                    be:56:d1:7b:59:22:f8:be:66:23:fd:76:9c:be:c3:
                    64:82:a1:e4:69:be:39:27:a0:3d:34:9b:72:3c:d8:
                    e2:2a:09:66:53:b8:31:64:51:3b:0d:d6:85:63:24:
                    bb:68:a5:df:3f:8e:c6:35:8d:b0:e2:9a:2c:fd:bb:
                    e3:99:fd:15:24:1a:4b:76:a1:f9:bb:44:7c:26:15:
                    8c:e8:05:82:83:25:74:85:d0:29:b4:9c:c6:3b:b9:
                    54:67:76:d2:f6:95:df:80:f7:d3:41:29:4d:0a:34:
                    d9:a3:69:01:b1:cb:98:ec:3d:1e:56:6e:10:3f:31:
                    a6:1e:bf
                Exponent: 65537 (0x10001)
        X509v3 extensions:
            X509v3 Basic Constraints: 
                CA:FALSE
            Netscape Comment: 
                Easy-RSA Generated Certificate
            X509v3 Subject Key Identifier: 
                7D:82:88:C1:D2:97:58:37:6F:09:B0:34:A2:FB:DE:99:6C:74:57:F2
            X509v3 Authority Key Identifier: 
                keyid:12:CD:60:04:D2:A0:80:9E:70:ED:C6:99:B8:7B:2C:C6:52:FD:19:A1
                DirName:/C=US/ST=OH/L=Columbus/O=VikingVPN/OU=MyOrganizationalUnit/CN=VikingVPN CA/name=EasyRSA/emailAddress=me@myhost.mydomain
                serial:CF:35:85:EE:80:BF:2A:3E

            X509v3 Extended Key Usage: 
                TLS Web Client Authentication
            X509v3 Key Usage: 
                Digital Signature
    Signature Algorithm: sha256WithRSAEncryption
         96:b7:10:93:89:6b:c3:ef:e0:b7:60:54:3d:ea:d5:28:f2:af:
         99:c6:42:75:1a:6c:c2:65:d3:8f:8f:59:49:39:51:f9:36:8b:
         55:45:25:fa:2b:ed:af:7a:c1:68:d0:16:72:ea:2d:ed:c6:82:
         dd:ea:a9:95:98:69:80:36:19:06:01:cc:4d:8e:3e:2b:47:c6:
         3e:11:b2:c6:b6:9d:2a:34:a7:11:75:cd:d2:14:72:6e:63:36:
         40:2c:f4:f2:bd:da:4a:64:81:35:7d:aa:47:3b:8b:c4:0b:c1:
         7b:e8:1e:3f:6f:73:11:3b:6e:94:f6:98:3e:44:f8:b4:9f:88:
         b2:5f:0a:d0:d2:e8:b6:21:bd:95:b2:3e:44:08:98:41:fa:2d:
         25:0b:66:8a:a8:c2:f3:c9:c1:d7:82:71:f2:a9:a0:ab:4f:49:
         41:cd:1d:e1:2f:4d:53:f4:f7:d5:0d:c1:34:49:64:7b:c7:72:
         f3:9a:62:6e:9e:1d:18:2e:d1:60:78:6b:df:07:ba:2c:ec:51:
         bb:a1:d2:6a:27:bb:30:99:cf:e1:2a:a5:07:ee:28:93:75:9c:
         a2:93:39:6b:54:e2:db:e9:e8:3f:9e:fb:10:1a:00:6c:31:c1:
         ed:c7:89:4b:e7:d1:65:92:91:61:60:59:5b:16:e9:42:ef:56:
         e5:f3:83:82:aa:c9:58:8a:32:f1:2d:5d:59:b9:24:14:dd:e8:
         80:d1:3a:98:cb:17:b0:7f:22:0d:13:87:00:80:38:80:f5:cb:
         6c:83:09:b1:b3:2b:44:83:2b:35:32:c4:47:76:35:a6:d9:35:
         a8:62:59:66:be:ac:56:76:7e:4c:e3:2b:00:67:11:07:6a:6d:
         a5:9d:21:0e:d9:a4:1f:16:5d:f2:0e:e8:d4:97:b8:b1:20:c5:
         c6:c0:25:7f:95:b9:57:9d:7f:83:13:3f:63:4a:c3:65:a7:18:
         61:ca:43:79:1d:3d:27:ee:d6:8a:13:64:77:8a:f4:17:a7:8e:
         cd:9a:b6:72:64:59:bb:6f:9c:4e:86:c9:db:a9:90:61:66:c2:
         e7:13:41:f4:70:1e:57:0e:ed:3d:22:6f:f5:5c:f1:72:d9:14:
         4b:ad:95:6e:f3:19:1e:17:37:7b:fb:3b:95:9a:e9:58:f1:1c:
         fd:cb:11:7b:a7:d9:54:84:a4:fa:81:ef:f6:fc:b8:5f:8d:55:
         96:5f:95:58:3d:74:2c:78:3a:e3:a8:c9:d5:e2:46:e9:85:6d:
         14:9a:f6:67:7c:ae:24:b3:22:34:68:bb:f4:d6:99:78:cb:a7:
         e6:41:57:b4:6b:72:3c:e3:55:a1:79:e5:67:55:4e:fb:28:3e:
         28:3f:61:7b:27:de:a3:1a
-----BEGIN CERTIFICATE-----
MIIGrTCCBJWgAwIBAgICMgowDQYJKoZIhvcNAQELBQAwgawxCzAJBgNVBAYTAlVT
MQswCQYDVQQIEwJPSDERMA8GA1UEBxMIQ29sdW1idXMxEjAQBgNVBAoTCVZpa2lu
Z1ZQTjEdMBsGA1UECxMUTXlPcmdhbml6YXRpb25hbFVuaXQxFTATBgNVBAMTDFZp
a2luZ1ZQTiBDQTEQMA4GA1UEKRMHRWFzeVJTQTEhMB8GCSqGSIb3DQEJARYSbWVA
bXlob3N0Lm15ZG9tYWluMB4XDTE4MDMyODE2NDg0M1oXDTI4MDMyNTE2NDg0M1ow
HzEdMBsGA1UEAxMUQ2xpZW50MTM4MENlcnQ2NzZhNmMwggIiMA0GCSqGSIb3DQEB
AQUAA4ICDwAwggIKAoICAQC4zEv/d4eK9DxAewl0bLpfdkGrqG9KKc0P3NdHndF8
wt9x+Je6XeXrdhi8lcefiiS9RY5PaFB2O8N0eki0NYAAqwCCVospDdWHjpxW7F0p
jWFgiZrjlyKhkeJIJb14jUYrqu1KN1CufGJwKpu/GIO5nTrHfewxdPoTBjqL00vJ
WeYEGQeF8uXIeRHh8XeGzK4Rbdnck7mLi2kuwSlDpSvWFWLLUsp6+A41m71EdtTk
YVKFXz0kvz4r2pza2EYI8SVyXQvI0XiUKXh3pLj3hY/U/OUUTVICpCk+0wU6WtA+
PdYmB2Bb+4Q+xfgXgYKDsSg6rKl7F+EuTzZiTsAqkQj3AdZWfzk1VuSHy/a+skdr
2su1t7a3Dyvh1m8VpcOXhCTcYMK0vcKJiS3hHQaOoj456lIriTuGOU+Zn4tuUEmn
fQsCZnTZpCN6vA5Y/RAUecRts0YarAbTHhLftp+gBgZwM8BkLp1A6mZz0BqsIHaQ
c8sKqsZuXtcDYQn7jbGUtRlqdoweIr5W0XtZIvi+ZiP9dpy+w2SCoeRpvjknoD00
m3I82OIqCWZTuDFkUTsN1oVjJLtopd8/jsY1jbDimiz9u+OZ/RUkGkt2ofm7RHwm
FYzoBYKDJXSF0Cm0nMY7uVRndtL2ld+A99NBKU0KNNmjaQGxy5jsPR5WbhA/MaYe
vwIDAQABo4IBYzCCAV8wCQYDVR0TBAIwADAtBglghkgBhvhCAQ0EIBYeRWFzeS1S
U0EgR2VuZXJhdGVkIENlcnRpZmljYXRlMB0GA1UdDgQWBBR9gojB0pdYN28JsDSi
+96ZbHRX8jCB4QYDVR0jBIHZMIHWgBQSzWAE0qCAnnDtxpm4eyzGUv0ZoaGBsqSB
rzCBrDELMAkGA1UEBhMCVVMxCzAJBgNVBAgTAk9IMREwDwYDVQQHEwhDb2x1bWJ1
czESMBAGA1UEChMJVmlraW5nVlBOMR0wGwYDVQQLExRNeU9yZ2FuaXphdGlvbmFs
VW5pdDEVMBMGA1UEAxMMVmlraW5nVlBOIENBMRAwDgYDVQQpEwdFYXN5UlNBMSEw
HwYJKoZIhvcNAQkBFhJtZUBteWhvc3QubXlkb21haW6CCQDPNYXugL8qPjATBgNV
HSUEDDAKBggrBgEFBQcDAjALBgNVHQ8EBAMCB4AwDQYJKoZIhvcNAQELBQADggIB
AJa3EJOJa8Pv4LdgVD3q1Sjyr5nGQnUabMJl04+PWUk5Ufk2i1VFJfor7a96wWjQ
FnLqLe3Ggt3qqZWYaYA2GQYBzE2OPitHxj4Rssa2nSo0pxF1zdIUcm5jNkAs9PK9
2kpkgTV9qkc7i8QLwXvoHj9vcxE7bpT2mD5E+LSfiLJfCtDS6LYhvZWyPkQImEH6
LSULZoqowvPJwdeCcfKpoKtPSUHNHeEvTVP099UNwTRJZHvHcvOaYm6eHRgu0WB4
a98HuizsUbuh0monuzCZz+EqpQfuKJN1nKKTOWtU4tvp6D+e+xAaAGwxwe3HiUvn
0WWSkWFgWVsW6ULvVuXzg4KqyViKMvEtXVm5JBTd6IDROpjLF7B/Ig0ThwCAOID1
y2yDCbGzK0SDKzUyxEd2NabZNahiWWa+rFZ2fkzjKwBnEQdqbaWdIQ7ZpB8WXfIO
6NSXuLEgxcbAJX+VuVedf4MTP2NKw2WnGGHKQ3kdPSfu1ooTZHeK9Benjs2atnJk
WbtvnE6GydupkGFmwucTQfRwHlcO7T0ib/Vc8XLZFEutlW7zGR4XN3v7O5Wa6Vjx
HP3LEXun2VSEpPqB7/b8uF+NVZZflVg9dCx4OuOoydXiRumFbRSa9md8riSzIjRo
u/TWmXjLp+ZBV7RrcjzjVaF55WdVTvsoPig/YXsn3qMa
-----END CERTIFICATE-----
