Certificate:
    Data:
        Version: 3 (0x2)
        Serial Number: 1693 (0x69d)
    Signature Algorithm: md5WithRSAEncryption
        Issuer: C=US, ST=OH, L=Columbus, O=VikingVPN, OU=MyOrganizationalUnit, CN=VikingVPN CA/name=EasyRSA/emailAddress=me@myhost.mydomain
        Validity
            Not Before: Apr 22 20:41:27 2014 GMT
            Not After : Apr 19 20:41:27 2024 GMT
        Subject: CN=Client503Certd19f28
        Subject Public Key Info:
            Public Key Algorithm: rsaEncryption
                Public-Key: (4096 bit)
                Modulus:
                    00:99:73:4c:d5:98:25:69:f9:5b:20:a9:95:88:e7:
                    f1:76:cf:5f:53:3a:25:56:bf:2a:59:d1:e7:5c:0a:
                    03:bb:6c:e8:9c:5d:66:68:4e:ec:04:87:91:7a:31:
                    b7:8e:ec:60:d3:b2:2d:f5:ec:83:63:f9:81:b3:86:
                    fb:cf:a5:01:21:69:4d:93:08:47:c4:ff:0c:89:78:
                    d6:5f:5b:44:15:57:3d:92:a2:51:e3:ad:00:de:a9:
                    6b:54:43:21:20:8b:ab:8a:50:ae:76:92:f5:91:c8:
                    5d:ed:5d:09:62:69:67:e8:ff:38:ad:7a:c7:20:1b:
                    f0:87:3f:e6:d0:50:8d:47:1c:a3:85:eb:33:ea:70:
                    d6:16:7b:c9:28:6f:9b:4c:7b:16:6a:b3:e8:bc:bf:
                    11:5e:28:8e:3b:6a:d3:0b:47:42:9b:9b:05:15:ff:
                    d4:0c:22:a6:2c:34:a8:c6:ea:18:c7:23:05:6c:33:
                    c8:7c:89:c9:54:1f:03:9c:99:96:5f:57:de:48:ce:
                    de:d2:57:8c:20:76:78:dc:2e:69:58:e2:c2:c9:22:
                    3c:17:7a:05:ba:f3:e9:db:85:08:6c:f6:ce:d9:8c:
                    d5:c7:37:d7:8a:05:7b:3d:ae:53:1c:99:40:36:f6:
                    6c:45:8b:d2:8d:eb:9d:cd:9f:7a:ef:a7:d3:8d:c4:
                    9c:19:03:8c:d6:06:7e:8a:52:12:e3:bb:73:e7:dd:
                    12:9d:12:4c:e8:ad:d0:fe:7a:e0:89:5d:52:40:f1:
                    55:63:ee:89:cf:2f:90:70:ca:1a:8a:0f:28:a4:6f:
                    26:69:7d:bc:f3:a0:07:99:af:82:16:8b:b2:70:43:
                    fd:41:95:b3:fd:f4:aa:65:1e:57:1f:2d:dd:70:59:
                    d5:09:48:19:42:b1:6b:87:d9:51:59:92:7b:77:20:
                    8a:f0:b1:0c:19:82:62:7a:f1:3a:95:1b:7b:36:d0:
                    2b:58:e0:1e:11:91:d2:1d:51:08:03:da:c5:ed:20:
                    06:fb:9b:51:26:8d:fe:fe:5b:c6:6e:03:bb:ef:5a:
                    e2:3e:af:d4:ed:2d:f6:0c:08:21:39:b2:0c:e1:d4:
                    7a:fa:6b:6b:cf:91:7c:65:ff:32:23:da:52:38:74:
                    41:74:40:70:0f:b8:3e:8b:bd:19:ed:19:42:49:d7:
                    ce:88:40:d5:0e:1d:3a:f9:52:ed:f6:b5:72:6a:ad:
                    f3:97:7a:60:45:91:0f:57:0c:9f:62:e6:32:92:0c:
                    8c:8f:01:29:19:ab:9b:82:09:da:39:2d:61:74:08:
                    b4:cb:23:53:ba:44:b8:65:f2:8a:24:5c:2d:14:c7:
                    a1:0f:5c:54:e0:d8:80:e9:d9:19:24:2b:e2:c5:ae:
                    d6:09:49
                Exponent: 65537 (0x10001)
        X509v3 extensions:
            X509v3 Basic Constraints: 
                CA:FALSE
            Netscape Comment: 
                Easy-RSA Generated Certificate
            X509v3 Subject Key Identifier: 
                C5:89:E8:47:90:52:4D:70:3A:06:74:B4:73:46:8D:1F:DF:87:F9:28
            X509v3 Authority Key Identifier: 
                keyid:12:CD:60:04:D2:A0:80:9E:70:ED:C6:99:B8:7B:2C:C6:52:FD:19:A1
                DirName:/C=US/ST=OH/L=Columbus/O=VikingVPN/OU=MyOrganizationalUnit/CN=VikingVPN CA/name=EasyRSA/emailAddress=me@myhost.mydomain
                serial:CF:35:85:EE:80:BF:2A:3E

            X509v3 Extended Key Usage: 
                TLS Web Client Authentication
            X509v3 Key Usage: 
                Digital Signature
    Signature Algorithm: md5WithRSAEncryption
         b2:4d:09:10:6c:4d:6d:bd:fd:38:1f:d1:bb:b7:9b:83:d7:fa:
         31:25:2f:85:d8:8a:b6:5f:4e:8f:da:ec:9f:89:33:0e:f2:8d:
         75:36:d0:e1:bb:9f:4d:bd:9d:94:a7:81:fe:0e:59:a5:d1:d0:
         49:9a:15:b0:e7:77:80:43:a9:3e:26:cd:ec:e7:ca:c6:14:6c:
         24:26:f1:fb:c4:36:bd:71:75:32:54:29:ea:e4:7e:56:72:84:
         79:9f:6e:e1:0f:eb:b8:90:d7:e1:9a:c6:d2:06:b7:3c:da:ec:
         f4:52:cc:06:a4:92:13:ad:71:ea:3d:a7:52:8b:1e:41:46:aa:
         67:00:37:6a:bb:94:11:22:53:4d:32:ba:81:9c:3a:83:57:7d:
         f0:b9:25:20:4f:7c:32:94:1a:b8:36:b7:fc:8e:0e:2a:38:1e:
         2e:5b:13:58:fe:97:bf:06:2f:05:40:68:fc:f6:24:a1:5a:f7:
         9b:94:02:58:9f:77:a3:54:b8:c2:3a:80:9c:1d:eb:63:5c:73:
         a6:5d:47:9c:a4:0f:6f:88:61:15:66:1f:6b:de:82:c3:0a:6b:
         1a:ff:fd:5e:cb:65:a1:f1:d6:90:b0:35:20:b3:cd:97:8a:fe:
         f5:1b:d1:cd:5a:55:cc:fa:53:4d:45:e7:09:6f:eb:1f:6c:7d:
         30:28:32:6c:5d:b0:a0:8b:9e:b4:f6:cb:3d:85:2f:2a:e6:4e:
         b9:3b:03:3e:3c:30:f8:96:12:c6:cf:26:fa:8e:c3:a8:cb:87:
         c3:ab:24:41:16:e0:99:f1:ed:a9:8c:6a:38:6a:23:bc:11:37:
         c6:fd:2c:36:1b:5b:e8:ac:e2:c0:b8:d9:5d:d4:7a:7a:27:79:
         fc:cb:da:09:7d:91:8d:3f:7c:e8:b0:bc:1d:e4:56:b1:b4:72:
         c3:c7:06:1a:46:15:7b:c5:51:d9:5f:c5:5a:9b:33:bc:05:29:
         d7:65:8d:a3:9e:f0:6c:28:f3:e5:8d:bb:98:f9:d6:11:ee:9b:
         db:76:f0:eb:6d:01:0f:8b:b5:f9:63:78:20:70:d1:40:d0:e9:
         bc:0b:a9:da:7d:ba:c2:b8:d3:a6:d5:08:64:c6:f0:6f:80:93:
         18:a0:5b:22:e7:cf:ba:fb:53:95:3b:57:71:40:f1:ec:41:34:
         9f:2d:72:85:d3:68:91:3d:f0:b2:5d:16:d7:3a:7f:7f:94:47:
         ea:76:4e:a6:73:03:80:db:5a:ce:e6:7e:17:6a:08:ea:dd:d0:
         64:44:0e:7c:c2:1f:ac:36:4f:46:c7:bd:5e:7e:26:e1:52:d9:
         be:40:9a:24:19:68:92:23:37:b2:ea:53:09:08:5a:1d:1e:6b:
         89:4b:e4:94:5f:91:f1:9b
-----BEGIN CERTIFICATE-----
MIIGrDCCBJSgAwIBAgICBp0wDQYJKoZIhvcNAQEEBQAwgawxCzAJBgNVBAYTAlVT
MQswCQYDVQQIEwJPSDERMA8GA1UEBxMIQ29sdW1idXMxEjAQBgNVBAoTCVZpa2lu
Z1ZQTjEdMBsGA1UECxMUTXlPcmdhbml6YXRpb25hbFVuaXQxFTATBgNVBAMTDFZp
a2luZ1ZQTiBDQTEQMA4GA1UEKRMHRWFzeVJTQTEhMB8GCSqGSIb3DQEJARYSbWVA
bXlob3N0Lm15ZG9tYWluMB4XDTE0MDQyMjIwNDEyN1oXDTI0MDQxOTIwNDEyN1ow
HjEcMBoGA1UEAxMTQ2xpZW50NTAzQ2VydGQxOWYyODCCAiIwDQYJKoZIhvcNAQEB
BQADggIPADCCAgoCggIBAJlzTNWYJWn5WyCplYjn8XbPX1M6JVa/KlnR51wKA7ts
6JxdZmhO7ASHkXoxt47sYNOyLfXsg2P5gbOG+8+lASFpTZMIR8T/DIl41l9bRBVX
PZKiUeOtAN6pa1RDISCLq4pQrnaS9ZHIXe1dCWJpZ+j/OK16xyAb8Ic/5tBQjUcc
o4XrM+pw1hZ7yShvm0x7Fmqz6Ly/EV4ojjtq0wtHQpubBRX/1Awipiw0qMbqGMcj
BWwzyHyJyVQfA5yZll9X3kjO3tJXjCB2eNwuaVjiwskiPBd6Bbrz6duFCGz2ztmM
1cc314oFez2uUxyZQDb2bEWL0o3rnc2feu+n043EnBkDjNYGfopSEuO7c+fdEp0S
TOit0P564IldUkDxVWPuic8vkHDKGooPKKRvJml9vPOgB5mvghaLsnBD/UGVs/30
qmUeVx8t3XBZ1QlIGUKxa4fZUVmSe3cgivCxDBmCYnrxOpUbezbQK1jgHhGR0h1R
CAPaxe0gBvubUSaN/v5bxm4Du+9a4j6v1O0t9gwIITmyDOHUevpra8+RfGX/MiPa
Ujh0QXRAcA+4Pou9Ge0ZQknXzohA1Q4dOvlS7fa1cmqt85d6YEWRD1cMn2LmMpIM
jI8BKRmrm4IJ2jktYXQItMsjU7pEuGXyiiRcLRTHoQ9cVODYgOnZGSQr4sWu1glJ
AgMBAAGjggFjMIIBXzAJBgNVHRMEAjAAMC0GCWCGSAGG+EIBDQQgFh5FYXN5LVJT
QSBHZW5lcmF0ZWQgQ2VydGlmaWNhdGUwHQYDVR0OBBYEFMWJ6EeQUk1wOgZ0tHNG
jR/fh/koMIHhBgNVHSMEgdkwgdaAFBLNYATSoICecO3Gmbh7LMZS/RmhoYGypIGv
MIGsMQswCQYDVQQGEwJVUzELMAkGA1UECBMCT0gxETAPBgNVBAcTCENvbHVtYnVz
MRIwEAYDVQQKEwlWaWtpbmdWUE4xHTAbBgNVBAsTFE15T3JnYW5pemF0aW9uYWxV
bml0MRUwEwYDVQQDEwxWaWtpbmdWUE4gQ0ExEDAOBgNVBCkTB0Vhc3lSU0ExITAf
BgkqhkiG9w0BCQEWEm1lQG15aG9zdC5teWRvbWFpboIJAM81he6Avyo+MBMGA1Ud
JQQMMAoGCCsGAQUFBwMCMAsGA1UdDwQEAwIHgDANBgkqhkiG9w0BAQQFAAOCAgEA
sk0JEGxNbb39OB/Ru7ebg9f6MSUvhdiKtl9Oj9rsn4kzDvKNdTbQ4bufTb2dlKeB
/g5ZpdHQSZoVsOd3gEOpPibN7OfKxhRsJCbx+8Q2vXF1MlQp6uR+VnKEeZ9u4Q/r
uJDX4ZrG0ga3PNrs9FLMBqSSE61x6j2nUoseQUaqZwA3aruUESJTTTK6gZw6g1d9
8LklIE98MpQauDa3/I4OKjgeLlsTWP6XvwYvBUBo/PYkoVr3m5QCWJ93o1S4wjqA
nB3rY1xzpl1HnKQPb4hhFWYfa96CwwprGv/9XstlofHWkLA1ILPNl4r+9RvRzVpV
zPpTTUXnCW/rH2x9MCgybF2woIuetPbLPYUvKuZOuTsDPjww+JYSxs8m+o7DqMuH
w6skQRbgmfHtqYxqOGojvBE3xv0sNhtb6KziwLjZXdR6eid5/MvaCX2RjT986LC8
HeRWsbRyw8cGGkYVe8VR2V/FWpszvAUp12WNo57wbCjz5Y27mPnWEe6b23bw620B
D4u1+WN4IHDRQNDpvAup2n26wrjTptUIZMbwb4CTGKBbIufPuvtTlTtXcUDx7EE0
ny1yhdNokT3wsl0W1zp/f5RH6nZOpnMDgNtazuZ+F2oI6t3QZEQOfMIfrDZPRse9
Xn4m4VLZvkCaJBlokiM3supTCQhaHR5riUvklF+R8Zs=
-----END CERTIFICATE-----
