Certificate:
    Data:
        Version: 3 (0x2)
        Serial Number: 4894 (0x131e)
    Signature Algorithm: md5WithRSAEncryption
        Issuer: C=US, ST=OH, L=Columbus, O=VikingVPN, OU=MyOrganizationalUnit, CN=VikingVPN CA/name=EasyRSA/emailAddress=me@myhost.mydomain
        Validity
            Not Before: Apr  6 04:28:28 2015 GMT
            Not After : Apr  3 04:28:28 2025 GMT
        Subject: CN=Client1597Cert21a97c
        Subject Public Key Info:
            Public Key Algorithm: rsaEncryption
                Public-Key: (4096 bit)
                Modulus:
                    00:a8:5f:79:0e:1e:5d:83:71:32:41:bf:e6:aa:22:
                    e1:a4:10:9d:5a:f7:a2:5d:a0:20:8a:2f:b9:83:be:
                    9e:90:1c:88:35:ff:90:a6:04:14:31:e5:2e:45:f7:
                    c0:5d:3c:49:f7:83:93:4d:f2:d6:eb:be:f4:6b:5b:
                    d1:c5:74:19:b8:5c:eb:80:04:d3:98:87:5d:8f:15:
                    85:8d:82:95:f8:6c:f5:a7:46:4b:7a:d1:13:7a:6a:
                    a3:68:4c:0e:cc:c1:ae:4a:98:1b:a9:29:4d:50:5c:
                    97:52:ee:4b:1a:e6:99:a2:4b:3f:4e:75:bb:bc:3f:
                    28:2d:ce:cd:10:ef:df:e5:58:8e:65:73:e6:bd:f0:
                    c4:7a:fe:9d:e9:d2:5d:5a:4b:fe:ea:93:f9:a1:1a:
                    24:b1:6e:4c:8e:4c:37:5f:38:e0:02:5e:61:b0:96:
                    03:2f:5e:f8:ee:c7:7b:e8:06:7b:f4:1c:e2:85:0b:
                    b8:e0:82:95:5e:86:45:ec:10:2a:ec:9f:2d:3a:71:
                    12:2a:16:fc:65:bf:99:e3:87:7f:9c:ce:96:38:a1:
                    44:1c:02:da:a4:23:89:06:ea:a2:f0:29:24:89:b3:
                    ad:82:4d:c9:97:42:5a:be:0e:3d:49:d7:72:96:4c:
                    c4:65:76:8f:31:c1:7c:f1:82:41:52:49:0f:a7:18:
                    2f:27:25:72:87:2c:df:99:50:91:77:d1:3d:1f:a9:
                    02:92:7f:7a:69:25:f7:69:de:f5:64:62:56:47:e8:
                    09:1b:90:1d:3b:0e:06:1a:d1:78:ad:bb:f0:54:d8:
                    62:a0:6f:2e:9f:c2:36:03:2d:a8:7e:24:24:f2:da:
                    0d:86:0c:e2:f0:d9:57:d5:96:19:5b:5c:16:01:32:
                    c7:cd:ef:f7:46:93:5e:ea:82:e6:7b:a4:a1:6a:3e:
                    fa:9d:ba:36:3c:ff:a7:3e:1a:99:2f:82:4a:c4:cc:
                    ca:2a:4b:1c:c4:8a:32:d0:d5:bd:60:93:93:7f:4b:
                    87:fd:18:17:a6:84:93:2a:a6:55:b1:1a:c4:40:0f:
                    71:22:b7:c8:70:1b:4e:d5:3a:74:35:10:26:2c:fc:
                    31:e6:3f:fb:05:26:8a:98:15:78:66:50:28:52:0d:
                    b5:ce:d8:9b:c7:45:e9:d1:06:ce:6b:90:63:47:52:
                    a2:e5:6d:b3:b3:5c:44:89:03:42:73:27:e2:c6:41:
                    e6:4a:b2:98:14:9f:4d:7d:19:c8:7c:eb:52:80:cb:
                    29:d9:c1:0c:c1:6d:2c:7f:98:e4:2a:0d:48:01:d5:
                    5b:fd:7b:56:67:dc:28:c1:a0:32:3b:b2:55:b9:26:
                    99:87:95:45:e2:ce:ed:b7:99:30:af:79:53:da:d9:
                    df:23:57
                Exponent: 65537 (0x10001)
        X509v3 extensions:
            X509v3 Basic Constraints: 
                CA:FALSE
            Netscape Comment: 
                Easy-RSA Generated Certificate
            X509v3 Subject Key Identifier: 
                6E:D6:54:84:89:59:70:03:0E:0F:6E:48:4D:6B:6A:C5:56:8E:9E:FC
            X509v3 Authority Key Identifier: 
                keyid:12:CD:60:04:D2:A0:80:9E:70:ED:C6:99:B8:7B:2C:C6:52:FD:19:A1
                DirName:/C=US/ST=OH/L=Columbus/O=VikingVPN/OU=MyOrganizationalUnit/CN=VikingVPN CA/name=EasyRSA/emailAddress=me@myhost.mydomain
                serial:CF:35:85:EE:80:BF:2A:3E

            X509v3 Extended Key Usage: 
                TLS Web Client Authentication
            X509v3 Key Usage: 
                Digital Signature
    Signature Algorithm: md5WithRSAEncryption
         0f:a2:fe:cd:6a:92:eb:d6:ba:04:63:f0:40:b0:34:72:f7:e7:
         3a:a4:9b:a2:09:4b:9b:de:0d:e6:66:71:7c:66:21:de:48:10:
         9d:c8:7f:68:b2:46:54:30:63:01:52:b3:8e:5a:7c:5b:9b:b7:
         15:88:97:c7:4c:e4:fe:06:cc:86:a7:7d:df:dd:cf:1a:c6:ca:
         c1:cf:46:2a:af:03:f5:54:bd:d6:1e:2c:4c:b2:da:60:bb:11:
         13:9b:b0:bd:91:a2:55:01:fb:cd:2f:d2:bf:7c:b5:1f:23:57:
         73:d3:fd:1d:eb:cb:6d:ea:af:42:f7:31:18:03:ee:65:1d:51:
         83:2b:e3:c5:15:b1:c0:81:b0:06:b8:b2:d4:4b:e6:24:77:51:
         5f:e5:58:84:e3:d9:59:ff:c5:83:cf:3b:52:ca:5b:11:75:8b:
         d9:30:cb:dd:53:0e:7f:72:41:60:34:c0:bd:3d:b0:62:7c:0b:
         cd:ef:df:84:b6:13:a6:25:78:bd:e1:7d:31:b0:45:4b:c3:ae:
         6f:25:48:d6:1b:27:39:b7:f0:6d:a0:cc:56:e1:7d:89:0c:c8:
         ff:26:e9:8f:4e:bc:3b:db:3b:de:80:fa:2b:6d:85:91:d4:e4:
         b9:c2:e5:57:63:7f:02:f4:61:0e:bb:90:db:e9:1b:43:21:6a:
         e9:1a:78:bd:74:03:06:c4:57:6e:6d:da:6c:1c:e4:4b:8f:19:
         2d:b4:76:bb:ae:99:fe:65:40:97:a1:5b:99:69:b9:e8:bd:f7:
         14:b0:a3:d2:13:94:6d:20:f8:eb:9b:ae:84:41:84:dd:c8:e1:
         fc:47:f0:97:34:10:b5:8d:9b:98:93:6f:2e:f8:bf:9b:6e:c7:
         7c:02:c9:de:19:b7:34:5a:7c:4b:a3:4b:ba:94:72:94:35:03:
         5d:86:7b:b3:99:a3:f5:2f:19:67:1c:9d:16:f9:76:50:7d:91:
         69:82:3b:11:aa:0e:39:21:d8:16:c3:5e:8e:3a:dd:38:17:f6:
         6d:52:f8:64:04:3e:17:76:73:ae:c9:8d:a3:78:94:f3:6a:be:
         8b:df:02:62:6b:73:cc:7c:f2:e1:50:aa:af:9a:27:12:71:ba:
         43:99:32:8e:fa:ed:ab:0f:26:9c:96:1a:c7:3b:fe:86:9b:f5:
         0e:3b:ae:88:73:dc:80:de:63:c5:2e:01:e9:d1:c9:e0:91:b7:
         ba:28:d2:70:f7:e8:36:95:b5:b9:0f:09:d3:db:fa:2a:93:f3:
         8a:68:24:de:44:6a:71:5a:58:a1:1d:41:c4:8e:8b:34:ba:04:
         ef:c9:d2:eb:ad:1c:40:8f:57:66:3a:07:3d:2b:44:fe:2e:80:
         9a:45:3c:8a:79:e5:17:2a
-----BEGIN CERTIFICATE-----
MIIGrTCCBJWgAwIBAgICEx4wDQYJKoZIhvcNAQEEBQAwgawxCzAJBgNVBAYTAlVT
MQswCQYDVQQIEwJPSDERMA8GA1UEBxMIQ29sdW1idXMxEjAQBgNVBAoTCVZpa2lu
Z1ZQTjEdMBsGA1UECxMUTXlPcmdhbml6YXRpb25hbFVuaXQxFTATBgNVBAMTDFZp
a2luZ1ZQTiBDQTEQMA4GA1UEKRMHRWFzeVJTQTEhMB8GCSqGSIb3DQEJARYSbWVA
bXlob3N0Lm15ZG9tYWluMB4XDTE1MDQwNjA0MjgyOFoXDTI1MDQwMzA0MjgyOFow
HzEdMBsGA1UEAxMUQ2xpZW50MTU5N0NlcnQyMWE5N2MwggIiMA0GCSqGSIb3DQEB
AQUAA4ICDwAwggIKAoICAQCoX3kOHl2DcTJBv+aqIuGkEJ1a96JdoCCKL7mDvp6Q
HIg1/5CmBBQx5S5F98BdPEn3g5NN8tbrvvRrW9HFdBm4XOuABNOYh12PFYWNgpX4
bPWnRkt60RN6aqNoTA7Mwa5KmBupKU1QXJdS7ksa5pmiSz9Odbu8Pygtzs0Q79/l
WI5lc+a98MR6/p3p0l1aS/7qk/mhGiSxbkyOTDdfOOACXmGwlgMvXvjux3voBnv0
HOKFC7jggpVehkXsECrsny06cRIqFvxlv5njh3+czpY4oUQcAtqkI4kG6qLwKSSJ
s62CTcmXQlq+Dj1J13KWTMRldo8xwXzxgkFSSQ+nGC8nJXKHLN+ZUJF30T0fqQKS
f3ppJfdp3vVkYlZH6AkbkB07DgYa0Xitu/BU2GKgby6fwjYDLah+JCTy2g2GDOLw
2VfVlhlbXBYBMsfN7/dGk17qguZ7pKFqPvqdujY8/6c+GpkvgkrEzMoqSxzEijLQ
1b1gk5N/S4f9GBemhJMqplWxGsRAD3Eit8hwG07VOnQ1ECYs/DHmP/sFJoqYFXhm
UChSDbXO2JvHRenRBs5rkGNHUqLlbbOzXESJA0JzJ+LGQeZKspgUn019Gch861KA
yynZwQzBbSx/mOQqDUgB1Vv9e1Zn3CjBoDI7slW5JpmHlUXizu23mTCveVPa2d8j
VwIDAQABo4IBYzCCAV8wCQYDVR0TBAIwADAtBglghkgBhvhCAQ0EIBYeRWFzeS1S
U0EgR2VuZXJhdGVkIENlcnRpZmljYXRlMB0GA1UdDgQWBBRu1lSEiVlwAw4PbkhN
a2rFVo6e/DCB4QYDVR0jBIHZMIHWgBQSzWAE0qCAnnDtxpm4eyzGUv0ZoaGBsqSB
rzCBrDELMAkGA1UEBhMCVVMxCzAJBgNVBAgTAk9IMREwDwYDVQQHEwhDb2x1bWJ1
czESMBAGA1UEChMJVmlraW5nVlBOMR0wGwYDVQQLExRNeU9yZ2FuaXphdGlvbmFs
VW5pdDEVMBMGA1UEAxMMVmlraW5nVlBOIENBMRAwDgYDVQQpEwdFYXN5UlNBMSEw
HwYJKoZIhvcNAQkBFhJtZUBteWhvc3QubXlkb21haW6CCQDPNYXugL8qPjATBgNV
HSUEDDAKBggrBgEFBQcDAjALBgNVHQ8EBAMCB4AwDQYJKoZIhvcNAQEEBQADggIB
AA+i/s1qkuvWugRj8ECwNHL35zqkm6IJS5veDeZmcXxmId5IEJ3If2iyRlQwYwFS
s45afFubtxWIl8dM5P4GzIanfd/dzxrGysHPRiqvA/VUvdYeLEyy2mC7ERObsL2R
olUB+80v0r98tR8jV3PT/R3ry23qr0L3MRgD7mUdUYMr48UVscCBsAa4stRL5iR3
UV/lWITj2Vn/xYPPO1LKWxF1i9kwy91TDn9yQWA0wL09sGJ8C83v34S2E6YleL3h
fTGwRUvDrm8lSNYbJzm38G2gzFbhfYkMyP8m6Y9OvDvbO96A+itthZHU5LnC5Vdj
fwL0YQ67kNvpG0MhaukaeL10AwbEV25t2mwc5EuPGS20druumf5lQJehW5lpuei9
9xSwo9ITlG0g+OubroRBhN3I4fxH8Jc0ELWNm5iTby74v5tux3wCyd4ZtzRafEuj
S7qUcpQ1A12Ge7OZo/UvGWccnRb5dlB9kWmCOxGqDjkh2BbDXo463TgX9m1S+GQE
Phd2c67JjaN4lPNqvovfAmJrc8x88uFQqq+aJxJxukOZMo767asPJpyWGsc7/oab
9Q47rohz3IDeY8UuAenRyeCRt7oo0nD36DaVtbkPCdPb+iqT84poJN5EanFaWKEd
QcSOizS6BO/J0uutHECPV2Y6Bz0rRP4ugJpFPIp55Rcq
-----END CERTIFICATE-----
