Certificate:
    Data:
        Version: 3 (0x2)
        Serial Number: 7549 (0x1d7d)
    Signature Algorithm: md5WithRSAEncryption
        Issuer: C=US, ST=OH, L=Columbus, O=VikingVPN, OU=MyOrganizationalUnit, CN=VikingVPN CA/name=EasyRSA/emailAddress=me@myhost.mydomain
        Validity
            Not Before: Mar 18 04:00:52 2016 GMT
            Not After : Mar 16 04:00:52 2026 GMT
        Subject: CN=Client2049Cert4b5968
        Subject Public Key Info:
            Public Key Algorithm: rsaEncryption
                Public-Key: (4096 bit)
                Modulus:
                    00:db:f4:dd:42:8b:62:f2:68:65:eb:44:7a:d6:90:
                    b7:ac:ac:e7:22:b2:03:42:86:ac:5b:fa:18:73:33:
                    f8:ae:d2:ec:c1:f8:40:d8:fd:80:4c:66:1b:8e:ec:
                    b2:48:ab:37:7c:a8:99:f2:91:cc:02:f7:ad:bf:56:
                    d6:e9:d1:d1:2e:86:5b:e8:94:42:19:8c:78:5e:d4:
                    f0:65:db:77:74:4d:4c:bf:9a:78:d2:4e:07:71:92:
                    99:c5:16:78:bc:0d:18:5c:2b:55:7e:f9:cf:a0:d3:
                    00:f3:e2:43:c7:da:2f:3e:32:8d:70:9e:eb:e2:d8:
                    89:ae:8a:77:23:90:99:54:16:0e:2d:9d:c2:2c:d6:
                    99:9e:d3:26:14:60:c5:73:d3:de:ae:a6:18:17:48:
                    06:51:f5:04:34:f6:ec:1d:cf:3e:76:1e:13:50:31:
                    d8:73:bb:44:b7:4d:64:23:4a:22:36:32:96:64:fd:
                    08:90:a3:7b:4e:8e:71:cc:b7:0f:8a:f6:94:9d:e4:
                    cf:e8:78:2b:4d:01:8c:9e:30:12:9b:78:4f:20:a3:
                    d6:e5:f5:d1:21:01:ec:b2:39:aa:7f:2e:ca:65:63:
                    0f:5c:68:e9:ee:8e:7c:5b:ec:37:bc:4b:b6:3c:cd:
                    f1:fd:c5:0a:cd:b4:12:48:e0:61:1f:21:69:99:c4:
                    0e:e5:b4:de:46:4f:aa:33:31:f2:90:6c:6f:2a:a0:
                    fb:93:6e:a0:13:e7:1f:74:a1:83:ba:c0:ed:f7:2e:
                    5f:0d:7a:f1:09:29:bb:e1:61:88:20:4c:fc:1d:a4:
                    a8:d9:f4:b8:7a:96:15:c3:c7:42:c3:ea:b4:70:0a:
                    5d:be:9c:b1:33:1a:1a:08:55:9c:da:c4:2a:88:49:
                    c3:0a:c7:e4:7d:ca:02:35:e5:84:3c:03:fe:48:ba:
                    88:e7:2b:34:6a:e5:bc:8b:30:ff:9f:e3:d7:c1:d9:
                    4e:be:c2:34:6c:1b:56:4b:cf:0d:38:76:24:5c:77:
                    be:1d:35:f6:70:e0:99:0f:1c:40:e3:3d:21:5f:13:
                    f8:27:54:c3:2c:c0:5d:35:4f:cc:6a:85:1c:0b:d3:
                    73:98:e4:77:cc:9e:35:97:c1:8d:52:05:30:a5:d2:
                    b8:85:ca:29:7c:31:cf:a1:e6:fa:0d:49:db:2f:a4:
                    c2:20:2b:f5:16:b8:e2:9e:96:ac:8b:e5:40:5b:70:
                    5e:02:fc:d6:92:90:fc:8f:fc:c7:a1:d1:2a:02:2a:
                    e8:d9:0d:60:29:3c:58:10:31:61:45:f3:da:46:a6:
                    c1:95:6c:de:2a:31:8f:aa:36:46:ad:ae:d2:44:34:
                    5d:5b:31:20:20:4f:ca:1c:e8:ab:bc:60:07:9f:52:
                    3b:fe:43
                Exponent: 65537 (0x10001)
        X509v3 extensions:
            X509v3 Basic Constraints: 
                CA:FALSE
            Netscape Comment: 
                Easy-RSA Generated Certificate
            X509v3 Subject Key Identifier: 
                F0:E0:A4:C9:1F:A4:5D:1E:EF:75:FD:46:FA:F5:F2:42:4A:42:E1:0C
            X509v3 Authority Key Identifier: 
                keyid:12:CD:60:04:D2:A0:80:9E:70:ED:C6:99:B8:7B:2C:C6:52:FD:19:A1
                DirName:/C=US/ST=OH/L=Columbus/O=VikingVPN/OU=MyOrganizationalUnit/CN=VikingVPN CA/name=EasyRSA/emailAddress=me@myhost.mydomain
                serial:CF:35:85:EE:80:BF:2A:3E

            X509v3 Extended Key Usage: 
                TLS Web Client Authentication
            X509v3 Key Usage: 
                Digital Signature
    Signature Algorithm: md5WithRSAEncryption
         60:25:c3:dd:3f:b3:a4:a1:9a:99:02:88:4e:f4:fc:b2:fe:4e:
         93:fc:fe:d3:8e:24:13:f6:b3:f9:9c:3d:5c:a8:7d:10:4d:aa:
         e5:4d:83:f1:22:3c:74:7a:85:a4:70:c2:b7:2e:ab:22:eb:a5:
         09:1c:ef:eb:1a:52:82:03:ec:8b:36:22:c4:6e:c0:32:e7:f9:
         6f:68:29:9d:45:2f:91:17:e6:b2:af:87:84:53:c4:1f:d5:68:
         3e:6a:ac:37:f0:84:96:d3:5b:33:4e:0d:fc:e2:4e:5c:d0:a2:
         79:e2:e5:b1:cf:16:7e:96:99:8c:66:85:b1:c3:8e:64:84:bf:
         7d:b5:80:5d:9b:1d:08:70:16:4f:6d:13:f1:70:b5:b6:0d:37:
         12:60:cb:af:48:a6:6c:3a:d9:92:55:db:49:69:08:30:ad:ed:
         48:97:2b:58:6d:d4:ff:59:67:64:06:5d:31:17:f6:1b:a5:58:
         58:4f:0d:76:96:dd:a8:f6:82:0a:07:c4:16:ba:be:ba:36:4b:
         a4:9a:84:c3:67:c6:3c:6f:26:f6:1a:3e:5c:0d:89:78:ee:63:
         bb:cd:14:20:58:f2:f3:3b:fa:b1:93:f0:d1:c7:50:ae:d8:d6:
         0a:59:9c:82:d4:26:70:b3:6d:a2:b7:b3:37:3a:ec:38:94:cf:
         8d:d9:4a:a4:eb:ec:1b:0e:01:bd:21:69:62:0a:e1:b4:52:93:
         1e:de:1b:d2:c7:1a:44:24:ac:de:e3:34:56:a6:62:c8:ce:8b:
         7b:56:76:32:b0:89:a9:f9:25:02:0b:80:b9:49:6c:77:c2:00:
         51:4f:35:b4:43:5a:16:21:c2:0d:2b:33:c8:4e:de:87:91:27:
         ac:bb:30:80:d8:b9:09:80:c8:e0:b9:02:83:90:73:75:8f:db:
         97:37:77:ab:a3:e4:ff:08:92:5e:9f:09:2f:54:e0:35:35:b4:
         0a:2d:92:14:99:69:79:9e:2a:c7:9c:db:af:45:74:0c:8b:bc:
         f3:90:60:f2:4f:6b:1a:65:54:d5:9c:29:03:f6:da:60:5c:13:
         59:09:4a:b5:ee:e3:66:8c:9e:d8:e6:74:69:0f:a5:9c:3b:c7:
         88:01:fb:02:71:e8:2f:0b:34:04:2e:97:d5:63:c5:db:c6:4d:
         73:57:17:e2:34:00:f9:2a:6e:69:ca:fa:ad:3d:3f:f4:60:42:
         15:bc:f2:1b:1b:89:c2:f5:33:4b:d3:2d:91:62:82:60:82:f2:
         84:12:2c:b1:3f:d2:66:37:c1:75:fa:7d:13:60:e0:5e:54:4c:
         9a:e6:45:d7:22:b7:4e:a9:48:2b:e5:4f:e7:36:2a:aa:48:84:
         a9:14:b4:b8:e9:ba:fe:53
-----BEGIN CERTIFICATE-----
MIIGrTCCBJWgAwIBAgICHX0wDQYJKoZIhvcNAQEEBQAwgawxCzAJBgNVBAYTAlVT
MQswCQYDVQQIEwJPSDERMA8GA1UEBxMIQ29sdW1idXMxEjAQBgNVBAoTCVZpa2lu
Z1ZQTjEdMBsGA1UECxMUTXlPcmdhbml6YXRpb25hbFVuaXQxFTATBgNVBAMTDFZp
a2luZ1ZQTiBDQTEQMA4GA1UEKRMHRWFzeVJTQTEhMB8GCSqGSIb3DQEJARYSbWVA
bXlob3N0Lm15ZG9tYWluMB4XDTE2MDMxODA0MDA1MloXDTI2MDMxNjA0MDA1Mlow
HzEdMBsGA1UEAxMUQ2xpZW50MjA0OUNlcnQ0YjU5NjgwggIiMA0GCSqGSIb3DQEB
AQUAA4ICDwAwggIKAoICAQDb9N1Ci2LyaGXrRHrWkLesrOcisgNChqxb+hhzM/iu
0uzB+EDY/YBMZhuO7LJIqzd8qJnykcwC962/Vtbp0dEuhlvolEIZjHhe1PBl23d0
TUy/mnjSTgdxkpnFFni8DRhcK1V++c+g0wDz4kPH2i8+Mo1wnuvi2ImuincjkJlU
Fg4tncIs1pme0yYUYMVz096uphgXSAZR9QQ09uwdzz52HhNQMdhzu0S3TWQjSiI2
MpZk/QiQo3tOjnHMtw+K9pSd5M/oeCtNAYyeMBKbeE8go9bl9dEhAeyyOap/Lspl
Yw9caOnujnxb7De8S7Y8zfH9xQrNtBJI4GEfIWmZxA7ltN5GT6ozMfKQbG8qoPuT
bqAT5x90oYO6wO33Ll8NevEJKbvhYYggTPwdpKjZ9Lh6lhXDx0LD6rRwCl2+nLEz
GhoIVZzaxCqIScMKx+R9ygI15YQ8A/5IuojnKzRq5byLMP+f49fB2U6+wjRsG1ZL
zw04diRcd74dNfZw4JkPHEDjPSFfE/gnVMMswF01T8xqhRwL03OY5HfMnjWXwY1S
BTCl0riFyil8Mc+h5voNSdsvpMIgK/UWuOKelqyL5UBbcF4C/NaSkPyP/Meh0SoC
KujZDWApPFgQMWFF89pGpsGVbN4qMY+qNkatrtJENF1bMSAgT8oc6Ku8YAefUjv+
QwIDAQABo4IBYzCCAV8wCQYDVR0TBAIwADAtBglghkgBhvhCAQ0EIBYeRWFzeS1S
U0EgR2VuZXJhdGVkIENlcnRpZmljYXRlMB0GA1UdDgQWBBTw4KTJH6RdHu91/Ub6
9fJCSkLhDDCB4QYDVR0jBIHZMIHWgBQSzWAE0qCAnnDtxpm4eyzGUv0ZoaGBsqSB
rzCBrDELMAkGA1UEBhMCVVMxCzAJBgNVBAgTAk9IMREwDwYDVQQHEwhDb2x1bWJ1
czESMBAGA1UEChMJVmlraW5nVlBOMR0wGwYDVQQLExRNeU9yZ2FuaXphdGlvbmFs
VW5pdDEVMBMGA1UEAxMMVmlraW5nVlBOIENBMRAwDgYDVQQpEwdFYXN5UlNBMSEw
HwYJKoZIhvcNAQkBFhJtZUBteWhvc3QubXlkb21haW6CCQDPNYXugL8qPjATBgNV
HSUEDDAKBggrBgEFBQcDAjALBgNVHQ8EBAMCB4AwDQYJKoZIhvcNAQEEBQADggIB
AGAlw90/s6ShmpkCiE70/LL+TpP8/tOOJBP2s/mcPVyofRBNquVNg/EiPHR6haRw
wrcuqyLrpQkc7+saUoID7Is2IsRuwDLn+W9oKZ1FL5EX5rKvh4RTxB/VaD5qrDfw
hJbTWzNODfziTlzQonni5bHPFn6WmYxmhbHDjmSEv321gF2bHQhwFk9tE/FwtbYN
NxJgy69Ipmw62ZJV20lpCDCt7UiXK1ht1P9ZZ2QGXTEX9hulWFhPDXaW3aj2ggoH
xBa6vro2S6SahMNnxjxvJvYaPlwNiXjuY7vNFCBY8vM7+rGT8NHHUK7Y1gpZnILU
JnCzbaK3szc67DiUz43ZSqTr7BsOAb0haWIK4bRSkx7eG9LHGkQkrN7jNFamYsjO
i3tWdjKwian5JQILgLlJbHfCAFFPNbRDWhYhwg0rM8hO3oeRJ6y7MIDYuQmAyOC5
AoOQc3WP25c3d6uj5P8Ikl6fCS9U4DU1tAotkhSZaXmeKsec269FdAyLvPOQYPJP
axplVNWcKQP22mBcE1kJSrXu42aMntjmdGkPpZw7x4gB+wJx6C8LNAQul9VjxdvG
TXNXF+I0APkqbmnK+q09P/RgQhW88hsbicL1M0vTLZFigmCC8oQSLLE/0mY3wXX6
fRNg4F5UTJrmRdcit06pSCvlT+c2KqpIhKkUtLjpuv5T
-----END CERTIFICATE-----
