Certificate:
    Data:
        Version: 3 (0x2)
        Serial Number: 3360 (0xd20)
    Signature Algorithm: md5WithRSAEncryption
        Issuer: C=US, ST=OH, L=Columbus, O=VikingVPN, OU=MyOrganizationalUnit, CN=VikingVPN CA/name=EasyRSA/emailAddress=me@myhost.mydomain
        Validity
            Not Before: Nov 11 17:14:19 2014 GMT
            Not After : Nov  8 17:14:19 2024 GMT
        Subject: CN=Client851Certc175c0
        Subject Public Key Info:
            Public Key Algorithm: rsaEncryption
                Public-Key: (4096 bit)
                Modulus:
                    00:a9:98:91:e1:f0:98:75:b7:3c:c0:28:9a:2a:85:
                    59:95:aa:6c:65:a6:f8:57:97:64:87:c0:51:b9:f5:
                    27:4c:92:ad:f1:69:30:fe:c5:06:c6:fc:1a:7e:96:
                    09:2e:f0:36:2d:6a:60:c3:f8:db:52:55:ee:8e:2d:
                    d8:da:32:a2:43:0f:f6:48:4d:2f:77:d7:c9:34:6d:
                    41:8a:ca:66:4a:e2:2a:54:28:91:8c:2e:f0:d5:5e:
                    1c:b7:9e:f1:3d:77:da:cb:13:aa:7c:dc:9a:d7:99:
                    7c:ff:b9:43:91:24:ca:1f:fe:e5:96:a4:71:02:fd:
                    fd:aa:b6:85:7b:c0:56:f6:5f:59:25:c6:70:01:25:
                    42:66:35:d6:c5:6b:0d:23:f7:69:36:42:6a:c6:a3:
                    d1:69:76:6d:48:0b:49:be:46:f4:ce:a9:4e:48:0c:
                    c0:55:37:43:03:5b:58:71:8d:e7:22:8e:a6:22:36:
                    5a:71:bf:ea:60:2f:47:33:67:cb:56:84:04:aa:34:
                    6d:20:1f:e2:89:fe:9a:e8:3d:bb:d2:3b:20:d0:a5:
                    05:29:e5:95:fc:54:ae:24:97:35:fe:ef:b4:64:8d:
                    47:23:0e:a1:ab:91:ea:68:30:b4:8e:46:4c:16:f3:
                    55:97:49:32:41:bd:84:41:25:cf:ab:ff:9c:19:19:
                    1f:ff:83:5c:e5:b1:02:6a:8a:3f:54:c6:97:15:28:
                    d3:5d:b9:e7:4b:58:e3:6c:54:78:f2:51:8e:fa:d6:
                    b2:08:f2:88:68:1d:59:4e:38:b1:d9:85:d2:f2:78:
                    e2:00:d1:2f:40:9c:c6:39:36:68:ad:ff:a1:b5:db:
                    05:5c:04:0d:c1:a5:64:d1:75:17:96:c7:3e:cc:ac:
                    61:04:11:27:05:6e:1e:2e:23:df:02:76:e9:e7:02:
                    4d:ce:16:7c:c9:9a:0f:11:a0:ba:82:c6:3a:b3:9a:
                    92:c9:be:85:44:9d:aa:ce:ca:ff:58:97:7d:a4:c6:
                    07:20:e0:d8:2a:89:10:04:b6:40:c4:a7:58:ee:96:
                    82:fe:09:ec:bd:58:e9:2e:c4:14:8a:64:5a:61:9a:
                    95:ff:1f:a0:f7:8d:32:d5:7e:0f:1f:e5:3a:a6:89:
                    7f:01:c9:17:20:72:3f:6a:c3:41:3f:0f:0a:26:cb:
                    59:9f:1f:ae:ff:9e:4f:95:7a:52:32:5c:db:ce:bf:
                    9a:93:f8:a8:34:b1:dc:16:6e:cc:2a:3f:fd:30:de:
                    22:ef:d2:5f:da:1e:aa:a5:67:25:15:47:b4:ae:b6:
                    04:96:6d:a4:8c:34:ed:aa:9c:4b:57:8a:40:21:6a:
                    c4:c7:e3:98:d8:7b:40:1f:3e:ad:6f:ad:e4:be:fa:
                    4a:69:7d
                Exponent: 65537 (0x10001)
        X509v3 extensions:
            X509v3 Basic Constraints: 
                CA:FALSE
            Netscape Comment: 
                Easy-RSA Generated Certificate
            X509v3 Subject Key Identifier: 
                F7:D5:7E:14:99:27:36:42:19:BA:53:CA:90:61:69:B3:EB:94:A7:5F
            X509v3 Authority Key Identifier: 
                keyid:12:CD:60:04:D2:A0:80:9E:70:ED:C6:99:B8:7B:2C:C6:52:FD:19:A1
                DirName:/C=US/ST=OH/L=Columbus/O=VikingVPN/OU=MyOrganizationalUnit/CN=VikingVPN CA/name=EasyRSA/emailAddress=me@myhost.mydomain
                serial:CF:35:85:EE:80:BF:2A:3E

            X509v3 Extended Key Usage: 
                TLS Web Client Authentication
            X509v3 Key Usage: 
                Digital Signature
    Signature Algorithm: md5WithRSAEncryption
         15:35:6a:4c:45:8a:65:63:2f:46:3d:63:dd:8f:60:85:a4:dd:
         35:b2:a9:96:bf:8f:29:d9:32:14:e9:13:d3:38:e0:0f:2a:b9:
         37:38:1f:05:68:47:b8:5e:ea:7d:2f:7e:7e:dc:a9:53:63:9d:
         d2:f1:b5:11:16:60:46:ab:49:22:c1:9e:63:ac:1f:09:e1:d6:
         08:71:82:ba:6a:a4:8a:05:14:5a:85:10:80:d2:85:0d:e6:ea:
         ee:05:01:89:23:36:bd:af:cd:b9:71:86:8f:83:93:14:62:c3:
         ef:1f:ec:07:5a:a6:18:ce:27:78:bb:01:d9:b9:cf:64:cf:1b:
         ba:fb:74:67:54:10:18:5d:d7:7e:90:ee:65:8f:70:2a:b5:c8:
         6b:7d:7b:54:ba:de:7f:cb:a5:1f:2c:7a:c2:c9:7a:cf:5a:e5:
         2e:5d:b1:4c:55:f6:10:65:22:6e:2c:13:1f:a3:30:02:39:79:
         f7:e0:e4:81:f1:1f:ea:68:3b:ca:45:c2:7d:c1:0f:20:30:89:
         6e:40:9b:c0:90:b8:cd:98:82:c0:2e:f7:3c:54:4c:fe:16:95:
         6d:5e:fc:c9:67:fc:b3:91:98:cb:f9:de:0d:d0:37:da:48:8e:
         ee:27:29:e9:e7:ec:a9:c9:4b:18:a0:d4:9f:0f:5d:09:27:64:
         89:29:03:e6:eb:a7:9c:af:3a:93:19:b1:9a:a1:08:a7:74:95:
         62:af:0d:e7:af:f8:16:72:0a:44:54:67:26:1e:02:07:d8:c2:
         a9:cf:00:fb:bd:86:81:c6:62:66:12:7d:a8:2e:73:66:24:93:
         cc:ba:84:f5:0d:58:9c:53:a9:67:88:59:fb:b2:b0:0f:26:05:
         f1:cd:ec:c9:76:b7:e6:94:fe:ae:b1:5b:58:75:75:09:f3:e1:
         c8:90:fc:b5:43:12:9d:6a:ed:85:4a:02:08:a9:5e:e7:a3:86:
         1a:37:97:f7:64:1d:7c:07:36:be:b0:d9:1e:54:21:35:39:0f:
         71:23:76:0d:9e:68:39:29:11:25:f5:79:d8:99:64:1a:49:9b:
         4c:bf:09:52:d6:a1:03:4b:45:6a:25:7b:12:20:8d:fb:8d:9b:
         54:67:17:9a:32:b9:ba:0f:53:83:79:eb:b3:24:d1:45:1b:a6:
         65:df:a7:24:e5:fa:76:f1:95:a4:12:91:d6:52:72:bc:9a:52:
         b6:64:40:77:58:11:e6:6c:37:f7:6d:21:45:1b:af:72:8f:70:
         70:e7:e5:c3:d0:8d:83:02:15:cc:67:c5:ca:3d:db:ef:31:0f:
         05:01:6b:83:e8:5c:53:61:16:ec:b5:cb:9a:e1:30:4e:b4:0f:
         ec:47:42:78:1e:ff:11:2d
-----BEGIN CERTIFICATE-----
MIIGrDCCBJSgAwIBAgICDSAwDQYJKoZIhvcNAQEEBQAwgawxCzAJBgNVBAYTAlVT
MQswCQYDVQQIEwJPSDERMA8GA1UEBxMIQ29sdW1idXMxEjAQBgNVBAoTCVZpa2lu
Z1ZQTjEdMBsGA1UECxMUTXlPcmdhbml6YXRpb25hbFVuaXQxFTATBgNVBAMTDFZp
a2luZ1ZQTiBDQTEQMA4GA1UEKRMHRWFzeVJTQTEhMB8GCSqGSIb3DQEJARYSbWVA
bXlob3N0Lm15ZG9tYWluMB4XDTE0MTExMTE3MTQxOVoXDTI0MTEwODE3MTQxOVow
HjEcMBoGA1UEAxMTQ2xpZW50ODUxQ2VydGMxNzVjMDCCAiIwDQYJKoZIhvcNAQEB
BQADggIPADCCAgoCggIBAKmYkeHwmHW3PMAomiqFWZWqbGWm+FeXZIfAUbn1J0yS
rfFpMP7FBsb8Gn6WCS7wNi1qYMP421JV7o4t2NoyokMP9khNL3fXyTRtQYrKZkri
KlQokYwu8NVeHLee8T132ssTqnzcmteZfP+5Q5Ekyh/+5ZakcQL9/aq2hXvAVvZf
WSXGcAElQmY11sVrDSP3aTZCasaj0Wl2bUgLSb5G9M6pTkgMwFU3QwNbWHGN5yKO
piI2WnG/6mAvRzNny1aEBKo0bSAf4on+mug9u9I7INClBSnllfxUriSXNf7vtGSN
RyMOoauR6mgwtI5GTBbzVZdJMkG9hEElz6v/nBkZH/+DXOWxAmqKP1TGlxUo0125
50tY42xUePJRjvrWsgjyiGgdWU44sdmF0vJ44gDRL0Ccxjk2aK3/obXbBVwEDcGl
ZNF1F5bHPsysYQQRJwVuHi4j3wJ26ecCTc4WfMmaDxGguoLGOrOaksm+hUSdqs7K
/1iXfaTGByDg2CqJEAS2QMSnWO6Wgv4J7L1Y6S7EFIpkWmGalf8foPeNMtV+Dx/l
OqaJfwHJFyByP2rDQT8PCibLWZ8frv+eT5V6UjJc286/mpP4qDSx3BZuzCo//TDe
Iu/SX9oeqqVnJRVHtK62BJZtpIw07aqcS1eKQCFqxMfjmNh7QB8+rW+t5L76Sml9
AgMBAAGjggFjMIIBXzAJBgNVHRMEAjAAMC0GCWCGSAGG+EIBDQQgFh5FYXN5LVJT
QSBHZW5lcmF0ZWQgQ2VydGlmaWNhdGUwHQYDVR0OBBYEFPfVfhSZJzZCGbpTypBh
abPrlKdfMIHhBgNVHSMEgdkwgdaAFBLNYATSoICecO3Gmbh7LMZS/RmhoYGypIGv
MIGsMQswCQYDVQQGEwJVUzELMAkGA1UECBMCT0gxETAPBgNVBAcTCENvbHVtYnVz
MRIwEAYDVQQKEwlWaWtpbmdWUE4xHTAbBgNVBAsTFE15T3JnYW5pemF0aW9uYWxV
bml0MRUwEwYDVQQDEwxWaWtpbmdWUE4gQ0ExEDAOBgNVBCkTB0Vhc3lSU0ExITAf
BgkqhkiG9w0BCQEWEm1lQG15aG9zdC5teWRvbWFpboIJAM81he6Avyo+MBMGA1Ud
JQQMMAoGCCsGAQUFBwMCMAsGA1UdDwQEAwIHgDANBgkqhkiG9w0BAQQFAAOCAgEA
FTVqTEWKZWMvRj1j3Y9ghaTdNbKplr+PKdkyFOkT0zjgDyq5NzgfBWhHuF7qfS9+
ftypU2Od0vG1ERZgRqtJIsGeY6wfCeHWCHGCumqkigUUWoUQgNKFDebq7gUBiSM2
va/NuXGGj4OTFGLD7x/sB1qmGM4neLsB2bnPZM8buvt0Z1QQGF3XfpDuZY9wKrXI
a317VLref8ulHyx6wsl6z1rlLl2xTFX2EGUibiwTH6MwAjl59+DkgfEf6mg7ykXC
fcEPIDCJbkCbwJC4zZiCwC73PFRM/haVbV78yWf8s5GYy/neDdA32kiO7icp6efs
qclLGKDUnw9dCSdkiSkD5uunnK86kxmxmqEIp3SVYq8N56/4FnIKRFRnJh4CB9jC
qc8A+72GgcZiZhJ9qC5zZiSTzLqE9Q1YnFOpZ4hZ+7KwDyYF8c3syXa35pT+rrFb
WHV1CfPhyJD8tUMSnWrthUoCCKle56OGGjeX92QdfAc2vrDZHlQhNTkPcSN2DZ5o
OSkRJfV52JlkGkmbTL8JUtahA0tFaiV7EiCN+42bVGcXmjK5ug9Tg3nrsyTRRRum
Zd+nJOX6dvGVpBKR1lJyvJpStmRAd1gR5mw3920hRRuvco9wcOflw9CNgwIVzGfF
yj3b7zEPBQFrg+hcU2EW7LXLmuEwTrQP7EdCeB7/ES0=
-----END CERTIFICATE-----
