Certificate:
    Data:
        Version: 3 (0x2)
        Serial Number: 5630 (0x15fe)
    Signature Algorithm: md5WithRSAEncryption
        Issuer: C=US, ST=OH, L=Columbus, O=VikingVPN, OU=MyOrganizationalUnit, CN=VikingVPN CA/name=EasyRSA/emailAddress=me@myhost.mydomain
        Validity
            Not Before: Jun 25 20:08:24 2015 GMT
            Not After : Jun 22 20:08:24 2025 GMT
        Subject: CN=Client1789Cert0fd259
        Subject Public Key Info:
            Public Key Algorithm: rsaEncryption
                Public-Key: (4096 bit)
                Modulus:
                    00:d4:02:e0:5f:e8:55:d5:e6:93:76:e1:1a:43:74:
                    30:81:0d:bf:ea:f2:19:48:33:62:f4:bf:fa:8a:df:
                    37:36:81:6a:9d:54:a3:d8:7f:a9:90:13:42:aa:53:
                    ce:55:c0:89:19:bf:3e:aa:3b:1c:54:e5:68:4b:b1:
                    df:2d:a1:39:43:84:5a:98:d9:b3:bb:52:94:a0:c8:
                    f2:61:0c:89:31:b5:f9:51:e8:fb:cc:ed:68:94:a2:
                    f8:f9:06:b1:4c:2a:9f:29:7a:03:b3:b0:16:e1:6d:
                    41:65:2f:e9:b3:80:42:c2:42:3c:02:76:ef:d9:80:
                    61:ad:06:95:95:b4:cd:05:53:6d:5d:b4:0f:47:d0:
                    c5:db:3a:bb:73:05:30:c3:2e:0e:dc:ce:38:19:e3:
                    a5:5d:cf:28:44:e7:31:b1:84:91:b0:27:1a:0c:06:
                    fd:b6:24:a1:fc:2e:6b:16:e8:20:d1:b1:13:73:8e:
                    94:9a:f9:73:9f:24:b2:a9:35:89:c5:c7:4c:01:5f:
                    cf:f4:8a:d7:90:93:1d:74:fc:62:f0:de:0c:e6:01:
                    e0:e0:02:2a:8b:35:34:ee:c4:66:6e:7a:b5:68:54:
                    b1:a6:c6:13:ac:67:94:31:a5:73:da:ae:5f:27:d4:
                    6b:00:b2:02:f4:aa:c7:06:79:6d:21:84:cf:81:68:
                    05:93:75:ff:52:5a:d9:a1:fe:bd:77:73:a4:cd:a3:
                    02:38:db:53:87:b2:2a:1a:f5:e9:2a:92:be:76:91:
                    f4:f6:f1:99:20:84:7e:b6:6b:03:ce:73:17:98:ce:
                    52:02:40:97:c6:d0:7b:41:b2:0f:6d:e4:bb:7f:2c:
                    61:8d:32:01:6d:bb:9b:d7:d1:f8:65:b6:68:c0:9c:
                    33:86:be:cd:0c:59:9e:24:f1:55:43:8c:3a:57:85:
                    05:a3:66:dd:9e:88:5c:15:f8:c9:ac:65:90:40:b8:
                    ba:5d:c9:9f:7f:b0:1a:ee:c7:a5:68:da:e2:cc:f0:
                    ed:db:97:e6:7f:94:96:b9:ce:58:8f:9a:18:44:0f:
                    55:b3:a5:d1:6b:a4:42:6c:c0:04:72:9b:be:5f:65:
                    32:7e:42:15:22:14:f1:9e:f2:38:2b:e0:45:13:21:
                    b5:93:f7:f1:cf:a1:47:58:36:7f:c3:8c:50:8c:0d:
                    04:4c:f2:fe:9b:9e:6a:34:ff:62:cd:b6:f4:aa:98:
                    85:2d:c2:35:62:e4:59:5c:e1:cd:df:f2:44:35:21:
                    df:5a:31:f7:da:9e:08:78:92:be:31:e1:6f:6e:a9:
                    2a:20:32:66:29:db:47:1d:aa:4b:dd:4e:08:ad:07:
                    0f:18:f2:08:00:fc:1b:05:11:d8:f9:52:ec:67:f1:
                    d5:70:ed
                Exponent: 65537 (0x10001)
        X509v3 extensions:
            X509v3 Basic Constraints: 
                CA:FALSE
            Netscape Comment: 
                Easy-RSA Generated Certificate
            X509v3 Subject Key Identifier: 
                7F:31:2E:B8:B3:22:BC:62:75:C5:7D:30:E5:D0:B1:40:A3:98:E2:4D
            X509v3 Authority Key Identifier: 
                keyid:12:CD:60:04:D2:A0:80:9E:70:ED:C6:99:B8:7B:2C:C6:52:FD:19:A1
                DirName:/C=US/ST=OH/L=Columbus/O=VikingVPN/OU=MyOrganizationalUnit/CN=VikingVPN CA/name=EasyRSA/emailAddress=me@myhost.mydomain
                serial:CF:35:85:EE:80:BF:2A:3E

            X509v3 Extended Key Usage: 
                TLS Web Client Authentication
            X509v3 Key Usage: 
                Digital Signature
    Signature Algorithm: md5WithRSAEncryption
         c4:f8:2a:88:77:0e:21:6d:50:6e:4b:14:35:f3:7d:76:63:9d:
         bc:d1:40:4c:8a:3e:fa:2e:72:e9:bf:36:5e:9c:e4:8e:05:f7:
         32:0e:51:e3:fd:b9:84:85:08:82:58:c5:2e:0a:88:6c:1b:73:
         d7:ce:6c:98:cd:09:1c:e7:04:fe:6f:17:55:c9:b5:fa:e4:ee:
         a5:36:e8:24:2a:53:1f:72:a3:74:08:b8:55:84:33:7c:9d:16:
         89:35:68:25:62:3a:72:84:63:3b:cb:12:e6:46:7c:23:b8:a4:
         a6:0e:bc:9b:b0:a1:5a:13:4b:30:26:7b:d7:40:98:1f:04:6d:
         2d:fc:f9:c3:b9:db:59:6b:6b:1b:65:ab:24:b6:28:a0:cb:4c:
         4d:ef:eb:09:4d:ab:71:e9:d2:b7:77:b6:a8:45:2f:ff:ec:f6:
         b0:c5:67:66:16:94:8a:8e:b3:41:7a:b2:17:4e:48:db:a8:68:
         93:d5:c3:05:31:8e:b6:8e:79:4d:d0:55:af:ac:53:7e:af:19:
         f3:ee:5a:3d:5a:3d:b3:b1:6f:d6:bb:d4:24:51:ac:3f:7c:4f:
         de:ff:b2:08:b2:39:03:f7:21:e6:b0:91:81:cd:66:8e:b4:c1:
         24:2d:52:37:49:36:91:d0:6a:d0:02:41:6c:30:76:85:f7:7b:
         16:e4:45:05:a6:77:4c:dd:46:94:9d:df:0d:7a:00:5b:1d:b4:
         82:50:3b:8a:54:3a:c7:7b:84:1d:44:56:38:e5:3e:17:fb:9c:
         a8:b9:40:b8:9c:02:73:d9:28:9e:2d:cc:fe:ea:74:5f:0b:df:
         c9:76:1d:5b:69:49:55:28:57:7f:d5:06:8a:0b:cf:a3:f3:b3:
         97:77:13:9d:0b:2f:21:74:15:ac:9e:44:42:56:06:40:be:fc:
         53:99:46:d1:9b:a9:86:3c:6d:c3:a0:87:23:42:92:8d:99:56:
         9b:78:9d:2e:b1:dc:ac:6a:9a:d7:20:7f:fe:f5:80:73:d0:4c:
         77:ab:2a:59:19:6c:bf:b3:74:a0:d2:d5:75:16:e1:74:31:48:
         84:29:87:f5:3e:cd:1b:79:1e:c1:b3:eb:db:0a:bb:4f:e2:ec:
         86:9a:2b:f1:dd:9a:73:8e:7e:9d:81:c7:0d:0d:7f:74:82:a7:
         bc:91:b1:a9:94:16:31:63:a1:56:d5:be:be:ca:75:aa:48:26:
         d8:ab:df:6f:1b:0f:92:3b:5c:b9:d2:0b:f4:0e:ca:18:36:bf:
         bb:5d:1b:6f:39:1d:6d:f0:39:04:44:08:f3:22:eb:b1:4d:98:
         2c:f7:d3:df:b0:f0:dd:80:d6:88:18:a5:27:e4:b3:63:1c:61:
         b7:15:b0:1c:b7:20:4f:d3
-----BEGIN CERTIFICATE-----
MIIGrTCCBJWgAwIBAgICFf4wDQYJKoZIhvcNAQEEBQAwgawxCzAJBgNVBAYTAlVT
MQswCQYDVQQIEwJPSDERMA8GA1UEBxMIQ29sdW1idXMxEjAQBgNVBAoTCVZpa2lu
Z1ZQTjEdMBsGA1UECxMUTXlPcmdhbml6YXRpb25hbFVuaXQxFTATBgNVBAMTDFZp
a2luZ1ZQTiBDQTEQMA4GA1UEKRMHRWFzeVJTQTEhMB8GCSqGSIb3DQEJARYSbWVA
bXlob3N0Lm15ZG9tYWluMB4XDTE1MDYyNTIwMDgyNFoXDTI1MDYyMjIwMDgyNFow
HzEdMBsGA1UEAxMUQ2xpZW50MTc4OUNlcnQwZmQyNTkwggIiMA0GCSqGSIb3DQEB
AQUAA4ICDwAwggIKAoICAQDUAuBf6FXV5pN24RpDdDCBDb/q8hlIM2L0v/qK3zc2
gWqdVKPYf6mQE0KqU85VwIkZvz6qOxxU5WhLsd8toTlDhFqY2bO7UpSgyPJhDIkx
tflR6PvM7WiUovj5BrFMKp8pegOzsBbhbUFlL+mzgELCQjwCdu/ZgGGtBpWVtM0F
U21dtA9H0MXbOrtzBTDDLg7czjgZ46VdzyhE5zGxhJGwJxoMBv22JKH8LmsW6CDR
sRNzjpSa+XOfJLKpNYnFx0wBX8/0iteQkx10/GLw3gzmAeDgAiqLNTTuxGZuerVo
VLGmxhOsZ5QxpXParl8n1GsAsgL0qscGeW0hhM+BaAWTdf9SWtmh/r13c6TNowI4
21OHsioa9ekqkr52kfT28ZkghH62awPOcxeYzlICQJfG0HtBsg9t5Lt/LGGNMgFt
u5vX0fhltmjAnDOGvs0MWZ4k8VVDjDpXhQWjZt2eiFwV+MmsZZBAuLpdyZ9/sBru
x6Vo2uLM8O3bl+Z/lJa5zliPmhhED1WzpdFrpEJswARym75fZTJ+QhUiFPGe8jgr
4EUTIbWT9/HPoUdYNn/DjFCMDQRM8v6bnmo0/2LNtvSqmIUtwjVi5Flc4c3f8kQ1
Id9aMffangh4kr4x4W9uqSogMmYp20cdqkvdTgitBw8Y8ggA/BsFEdj5Uuxn8dVw
7QIDAQABo4IBYzCCAV8wCQYDVR0TBAIwADAtBglghkgBhvhCAQ0EIBYeRWFzeS1S
U0EgR2VuZXJhdGVkIENlcnRpZmljYXRlMB0GA1UdDgQWBBR/MS64syK8YnXFfTDl
0LFAo5jiTTCB4QYDVR0jBIHZMIHWgBQSzWAE0qCAnnDtxpm4eyzGUv0ZoaGBsqSB
rzCBrDELMAkGA1UEBhMCVVMxCzAJBgNVBAgTAk9IMREwDwYDVQQHEwhDb2x1bWJ1
czESMBAGA1UEChMJVmlraW5nVlBOMR0wGwYDVQQLExRNeU9yZ2FuaXphdGlvbmFs
VW5pdDEVMBMGA1UEAxMMVmlraW5nVlBOIENBMRAwDgYDVQQpEwdFYXN5UlNBMSEw
HwYJKoZIhvcNAQkBFhJtZUBteWhvc3QubXlkb21haW6CCQDPNYXugL8qPjATBgNV
HSUEDDAKBggrBgEFBQcDAjALBgNVHQ8EBAMCB4AwDQYJKoZIhvcNAQEEBQADggIB
AMT4Koh3DiFtUG5LFDXzfXZjnbzRQEyKPvoucum/Nl6c5I4F9zIOUeP9uYSFCIJY
xS4KiGwbc9fObJjNCRznBP5vF1XJtfrk7qU26CQqUx9yo3QIuFWEM3ydFok1aCVi
OnKEYzvLEuZGfCO4pKYOvJuwoVoTSzAme9dAmB8EbS38+cO521lraxtlqyS2KKDL
TE3v6wlNq3Hp0rd3tqhFL//s9rDFZ2YWlIqOs0F6shdOSNuoaJPVwwUxjraOeU3Q
Va+sU36vGfPuWj1aPbOxb9a71CRRrD98T97/sgiyOQP3IeawkYHNZo60wSQtUjdJ
NpHQatACQWwwdoX3exbkRQWmd0zdRpSd3w16AFsdtIJQO4pUOsd7hB1EVjjlPhf7
nKi5QLicAnPZKJ4tzP7qdF8L38l2HVtpSVUoV3/VBooLz6Pzs5d3E50LLyF0Faye
REJWBkC+/FOZRtGbqYY8bcOghyNCko2ZVpt4nS6x3Kxqmtcgf/71gHPQTHerKlkZ
bL+zdKDS1XUW4XQxSIQph/U+zRt5HsGz69sKu0/i7IaaK/HdmnOOfp2Bxw0Nf3SC
p7yRsamUFjFjoVbVvr7KdapIJtir328bD5I7XLnSC/QOyhg2v7tdG285HW3wOQRE
CPMi67FNmCz309+w8N2A1ogYpSfks2McYbcVsBy3IE/T
-----END CERTIFICATE-----
