Certificate:
    Data:
        Version: 3 (0x2)
        Serial Number: 3463 (0xd87)
    Signature Algorithm: md5WithRSAEncryption
        Issuer: C=US, ST=OH, L=Columbus, O=VikingVPN, OU=MyOrganizationalUnit, CN=VikingVPN CA/name=EasyRSA/emailAddress=me@myhost.mydomain
        Validity
            Not Before: Nov 22 02:26:27 2014 GMT
            Not After : Nov 19 02:26:27 2024 GMT
        Subject: CN=Client1115Certd1867d
        Subject Public Key Info:
            Public Key Algorithm: rsaEncryption
                Public-Key: (4096 bit)
                Modulus:
                    00:cc:36:4c:20:33:32:d4:75:68:ba:f7:e0:a0:34:
                    25:cd:0f:ba:e4:f8:cc:05:bc:ce:b1:15:12:23:f5:
                    73:fb:27:0a:dd:f4:57:4d:0d:7c:94:c9:fe:81:ee:
                    06:fd:1a:6f:61:b1:f3:03:f5:22:ff:71:bc:6c:c5:
                    13:a7:8e:a6:af:bd:b1:44:17:42:8a:85:50:a2:fa:
                    31:3f:6a:57:f9:41:65:d0:c8:a6:78:db:d7:47:9b:
                    3c:37:fc:21:43:b7:d0:b7:e0:12:85:02:b2:0d:44:
                    d3:e6:f8:37:c3:4c:32:ce:15:fa:20:2d:43:8b:1f:
                    1a:c4:ab:ab:a0:e0:0b:1b:12:7a:24:13:98:59:2d:
                    df:26:dd:6f:08:cb:6e:65:b5:18:01:48:87:78:04:
                    cc:2e:7f:67:72:23:58:6c:4b:04:cd:4c:b3:3d:a3:
                    79:df:87:b0:53:1e:38:1f:19:d0:53:5b:57:9f:dd:
                    ac:41:4a:75:87:f8:dc:b8:d6:a1:87:69:ec:54:26:
                    10:dc:05:15:e9:3f:74:32:44:37:9f:df:29:1f:08:
                    b5:48:58:32:89:ca:98:e5:6f:0f:08:ef:6f:7d:dc:
                    51:dc:6d:92:ad:5c:47:35:9d:5f:86:ee:5f:90:af:
                    d3:14:2d:e6:41:1f:b4:10:30:dc:8a:e0:35:81:04:
                    0c:28:cf:f9:68:ed:bc:2a:09:ca:89:ff:94:f7:90:
                    3d:08:34:3c:31:a0:5a:8c:ae:60:71:6d:23:a8:50:
                    2a:d9:28:5b:cf:99:fb:b1:f7:f7:f5:33:36:33:c0:
                    2e:cd:96:c7:30:80:bc:c1:4e:de:0f:30:9b:29:f2:
                    13:ac:3d:9b:0e:b7:88:e7:66:c2:63:98:b3:31:16:
                    ea:af:0c:2d:9a:d9:6c:24:da:da:8d:2a:ad:57:87:
                    3a:1d:dc:69:b8:ba:a8:bc:d3:88:e6:16:9b:10:ea:
                    67:c3:98:40:e8:3e:60:af:57:9f:4c:b4:ec:fb:c8:
                    97:b6:90:e0:84:25:d7:69:63:bf:46:b2:35:3e:c4:
                    2e:a5:46:4b:c1:a3:9b:bf:15:17:17:ae:24:55:c8:
                    03:4a:db:b7:f5:45:ba:28:93:65:1b:f8:21:66:00:
                    58:ab:b6:4c:94:c4:67:fe:f3:32:d2:47:e5:a3:c6:
                    a9:1c:2d:a5:ac:a6:69:58:36:54:8d:33:bd:f2:1a:
                    13:f6:19:7d:61:7f:44:fd:42:28:cc:87:3a:52:53:
                    30:ec:74:42:3f:30:96:75:11:b3:79:8c:dc:6e:ae:
                    27:68:7a:da:b4:4a:2e:fb:32:f3:28:40:ee:d6:53:
                    b9:7d:a4:d1:8d:9b:7b:9e:3c:75:5b:eb:ce:cd:d4:
                    32:31:c5
                Exponent: 65537 (0x10001)
        X509v3 extensions:
            X509v3 Basic Constraints: 
                CA:FALSE
            Netscape Comment: 
                Easy-RSA Generated Certificate
            X509v3 Subject Key Identifier: 
                63:78:45:AE:78:15:85:D1:E9:23:13:01:62:53:C1:42:AA:D5:29:83
            X509v3 Authority Key Identifier: 
                keyid:12:CD:60:04:D2:A0:80:9E:70:ED:C6:99:B8:7B:2C:C6:52:FD:19:A1
                DirName:/C=US/ST=OH/L=Columbus/O=VikingVPN/OU=MyOrganizationalUnit/CN=VikingVPN CA/name=EasyRSA/emailAddress=me@myhost.mydomain
                serial:CF:35:85:EE:80:BF:2A:3E

            X509v3 Extended Key Usage: 
                TLS Web Client Authentication
            X509v3 Key Usage: 
                Digital Signature
    Signature Algorithm: md5WithRSAEncryption
         24:34:02:22:c7:cc:f6:70:a8:00:8c:5b:e9:cb:51:18:32:9b:
         a4:e5:c8:ad:3f:21:9a:ee:7f:4b:1e:14:4f:3e:6d:b9:40:7e:
         5c:74:7e:ce:2e:52:31:d0:7b:6b:75:9d:16:cb:4c:6e:31:76:
         ac:05:6f:e3:82:62:7a:c2:10:97:8b:29:dc:57:ce:47:93:f3:
         2b:1a:bb:35:9d:0c:82:b4:80:59:95:ea:6f:f9:ec:6f:f5:29:
         ff:e8:83:aa:bc:51:6d:00:8b:df:ec:c7:b6:35:6e:65:dc:33:
         e7:a5:62:19:db:c0:5e:ce:52:39:f9:f0:17:03:b3:bd:e3:85:
         11:2d:db:af:8e:7b:ab:bc:4a:51:21:e0:70:c7:1f:84:10:b5:
         e1:c8:94:37:d8:f1:f9:ae:2a:14:78:2f:84:fc:90:a8:96:08:
         d5:02:d5:b8:fe:7c:89:68:8a:59:d7:1a:27:fe:9f:10:9b:4a:
         13:8c:5c:71:8d:06:9d:22:4d:fe:70:73:68:17:50:b7:91:2b:
         26:01:02:3a:fa:d6:bb:98:aa:76:68:3d:a7:68:d9:6c:d4:05:
         fa:01:3e:e9:0f:0a:82:b4:7b:3b:c6:d1:40:c7:32:69:82:0d:
         5f:48:b7:48:7d:3f:a6:57:4f:c7:b5:56:34:cb:42:18:4a:73:
         b5:00:bb:bc:30:21:11:72:7d:63:ad:9a:bd:fe:f9:40:9b:33:
         7d:4b:d4:39:73:ad:d8:c1:4c:ab:cc:14:b1:14:13:d6:9b:03:
         49:90:5f:4c:52:9d:71:07:47:9c:cc:24:b5:d9:d9:99:99:f2:
         ba:20:07:5a:af:43:f2:2f:41:b1:68:9b:bd:49:db:75:ea:72:
         48:21:a7:6f:92:4f:4a:51:5d:cc:6f:3c:80:fa:36:b4:e1:60:
         91:b8:09:91:42:28:ca:4a:de:79:2b:6f:d9:27:a2:6f:c6:7c:
         a8:c4:c7:07:21:7d:f1:67:64:35:c9:24:fb:81:f0:b6:e4:4a:
         18:ee:16:7f:49:27:42:bc:33:db:79:c3:17:fd:a5:3f:47:a7:
         17:b2:e9:9c:7e:49:d4:58:98:d3:d6:47:03:59:f2:67:c4:d0:
         10:c1:43:26:8f:e5:e5:40:87:f8:28:12:ea:8c:42:cf:b2:d2:
         99:23:c2:76:38:7d:30:41:91:24:f3:85:02:40:84:58:f0:f8:
         08:08:4d:10:15:e7:d0:37:81:c8:f1:1b:a3:1a:3b:f2:cf:83:
         ad:a1:81:09:17:52:dc:04:a9:df:98:b8:a0:73:55:f3:79:65:
         53:d1:82:7b:8c:b5:83:4d:e6:d5:1a:44:50:79:0e:b0:12:75:
         57:8f:68:ea:ea:ff:9d:01
-----BEGIN CERTIFICATE-----
MIIGrTCCBJWgAwIBAgICDYcwDQYJKoZIhvcNAQEEBQAwgawxCzAJBgNVBAYTAlVT
MQswCQYDVQQIEwJPSDERMA8GA1UEBxMIQ29sdW1idXMxEjAQBgNVBAoTCVZpa2lu
Z1ZQTjEdMBsGA1UECxMUTXlPcmdhbml6YXRpb25hbFVuaXQxFTATBgNVBAMTDFZp
a2luZ1ZQTiBDQTEQMA4GA1UEKRMHRWFzeVJTQTEhMB8GCSqGSIb3DQEJARYSbWVA
bXlob3N0Lm15ZG9tYWluMB4XDTE0MTEyMjAyMjYyN1oXDTI0MTExOTAyMjYyN1ow
HzEdMBsGA1UEAxMUQ2xpZW50MTExNUNlcnRkMTg2N2QwggIiMA0GCSqGSIb3DQEB
AQUAA4ICDwAwggIKAoICAQDMNkwgMzLUdWi69+CgNCXND7rk+MwFvM6xFRIj9XP7
Jwrd9FdNDXyUyf6B7gb9Gm9hsfMD9SL/cbxsxROnjqavvbFEF0KKhVCi+jE/alf5
QWXQyKZ429dHmzw3/CFDt9C34BKFArINRNPm+DfDTDLOFfogLUOLHxrEq6ug4Asb
EnokE5hZLd8m3W8Iy25ltRgBSId4BMwuf2dyI1hsSwTNTLM9o3nfh7BTHjgfGdBT
W1ef3axBSnWH+Ny41qGHaexUJhDcBRXpP3QyRDef3ykfCLVIWDKJypjlbw8I7299
3FHcbZKtXEc1nV+G7l+Qr9MULeZBH7QQMNyK4DWBBAwoz/lo7bwqCcqJ/5T3kD0I
NDwxoFqMrmBxbSOoUCrZKFvPmfux9/f1MzYzwC7NlscwgLzBTt4PMJsp8hOsPZsO
t4jnZsJjmLMxFuqvDC2a2Wwk2tqNKq1Xhzod3Gm4uqi804jmFpsQ6mfDmEDoPmCv
V59MtOz7yJe2kOCEJddpY79GsjU+xC6lRkvBo5u/FRcXriRVyANK27f1Rbook2Ub
+CFmAFirtkyUxGf+8zLSR+WjxqkcLaWspmlYNlSNM73yGhP2GX1hf0T9QijMhzpS
UzDsdEI/MJZ1EbN5jNxuridoetq0Si77MvMoQO7WU7l9pNGNm3uePHVb687N1DIx
xQIDAQABo4IBYzCCAV8wCQYDVR0TBAIwADAtBglghkgBhvhCAQ0EIBYeRWFzeS1S
U0EgR2VuZXJhdGVkIENlcnRpZmljYXRlMB0GA1UdDgQWBBRjeEWueBWF0ekjEwFi
U8FCqtUpgzCB4QYDVR0jBIHZMIHWgBQSzWAE0qCAnnDtxpm4eyzGUv0ZoaGBsqSB
rzCBrDELMAkGA1UEBhMCVVMxCzAJBgNVBAgTAk9IMREwDwYDVQQHEwhDb2x1bWJ1
czESMBAGA1UEChMJVmlraW5nVlBOMR0wGwYDVQQLExRNeU9yZ2FuaXphdGlvbmFs
VW5pdDEVMBMGA1UEAxMMVmlraW5nVlBOIENBMRAwDgYDVQQpEwdFYXN5UlNBMSEw
HwYJKoZIhvcNAQkBFhJtZUBteWhvc3QubXlkb21haW6CCQDPNYXugL8qPjATBgNV
HSUEDDAKBggrBgEFBQcDAjALBgNVHQ8EBAMCB4AwDQYJKoZIhvcNAQEEBQADggIB
ACQ0AiLHzPZwqACMW+nLURgym6TlyK0/IZruf0seFE8+bblAflx0fs4uUjHQe2t1
nRbLTG4xdqwFb+OCYnrCEJeLKdxXzkeT8ysauzWdDIK0gFmV6m/57G/1Kf/og6q8
UW0Ai9/sx7Y1bmXcM+elYhnbwF7OUjn58BcDs73jhREt26+Oe6u8SlEh4HDHH4QQ
teHIlDfY8fmuKhR4L4T8kKiWCNUC1bj+fIloilnXGif+nxCbShOMXHGNBp0iTf5w
c2gXULeRKyYBAjr61ruYqnZoPado2WzUBfoBPukPCoK0ezvG0UDHMmmCDV9It0h9
P6ZXT8e1VjTLQhhKc7UAu7wwIRFyfWOtmr3++UCbM31L1DlzrdjBTKvMFLEUE9ab
A0mQX0xSnXEHR5zMJLXZ2ZmZ8rogB1qvQ/IvQbFom71J23Xqckghp2+ST0pRXcxv
PID6NrThYJG4CZFCKMpK3nkrb9knom/GfKjExwchffFnZDXJJPuB8LbkShjuFn9J
J0K8M9t5wxf9pT9Hpxey6Zx+SdRYmNPWRwNZ8mfE0BDBQyaP5eVAh/goEuqMQs+y
0pkjwnY4fTBBkSTzhQJAhFjw+AgITRAV59A3gcjxG6MaO/LPg62hgQkXUtwEqd+Y
uKBzVfN5ZVPRgnuMtYNN5tUaRFB5DrASdVePaOrq/50B
-----END CERTIFICATE-----
