Certificate:
    Data:
        Version: 3 (0x2)
        Serial Number: 3523 (0xdc3)
    Signature Algorithm: md5WithRSAEncryption
        Issuer: C=US, ST=OH, L=Columbus, O=VikingVPN, OU=MyOrganizationalUnit, CN=VikingVPN CA/name=EasyRSA/emailAddress=me@myhost.mydomain
        Validity
            Not Before: Nov 27 21:06:12 2014 GMT
            Not After : Nov 24 21:06:12 2024 GMT
        Subject: CN=Client1203Cert7f9909
        Subject Public Key Info:
            Public Key Algorithm: rsaEncryption
                Public-Key: (4096 bit)
                Modulus:
                    00:d3:f8:89:ab:2d:76:28:a9:5d:d5:0d:41:53:21:
                    87:76:a1:b0:e3:3f:6d:ee:45:a3:52:69:49:df:19:
                    26:10:f3:40:0f:da:b4:44:d8:bc:f9:69:ba:7d:e2:
                    01:64:d6:0d:4e:6a:f6:c9:ed:51:59:a8:ac:f9:12:
                    f6:18:37:40:98:79:ef:f4:6e:42:47:a3:db:de:30:
                    c1:0a:4c:60:8c:6b:41:b4:e7:a7:3a:24:2b:92:a6:
                    b0:56:f2:1c:ee:4b:48:12:fd:54:aa:ee:38:a9:1f:
                    13:ed:f6:88:f1:e3:80:08:58:86:4e:d4:b4:10:e3:
                    c9:25:a7:b6:f2:a0:48:48:38:48:df:04:d2:ee:d6:
                    67:bd:31:37:62:2c:a2:24:d2:5a:8f:bc:93:83:b6:
                    1a:db:3f:5f:5f:40:44:ce:b7:5c:09:fb:2b:3e:87:
                    f1:35:91:ad:74:9f:51:6a:99:71:c9:20:9e:7b:a4:
                    9e:a8:1e:2d:b2:5c:91:20:4f:dd:57:12:b6:5a:0a:
                    d4:27:1d:13:98:1e:81:0e:69:4c:44:e2:f6:38:eb:
                    7d:92:bc:18:77:7c:91:c9:92:47:fd:ef:ce:24:28:
                    17:d7:e8:00:7a:93:c9:9e:b0:6e:46:de:73:3e:d3:
                    e7:fc:82:42:4b:b7:8f:7a:a9:db:c6:f9:8a:4d:80:
                    47:83:71:f1:9e:53:16:db:75:35:7d:49:80:32:1f:
                    92:8d:1c:df:1a:21:a5:a5:51:9e:5d:24:fa:9e:41:
                    de:e9:37:33:ed:d4:c7:07:48:58:25:e6:80:35:48:
                    1f:6c:5d:a1:3c:ee:95:ad:b0:0d:0e:bc:16:86:0d:
                    df:6b:56:1b:e9:fc:8e:73:1b:e3:91:79:8b:be:fa:
                    c7:33:7e:76:9c:5b:92:18:02:3d:74:50:fc:3b:98:
                    ba:13:12:aa:74:42:81:af:d4:8b:a8:b1:ce:53:b1:
                    45:1a:67:a7:0c:9b:18:cd:ef:7e:ca:cb:20:0e:27:
                    bc:11:fb:98:74:bd:ba:34:39:74:4f:8b:5e:b8:14:
                    7d:2f:11:bd:78:b5:89:6c:bf:b4:71:e8:23:89:b9:
                    57:5e:70:d6:6f:49:d5:88:bf:96:9f:74:76:53:14:
                    e9:4c:be:1b:87:91:ba:94:8d:b8:12:59:3c:06:14:
                    f0:9a:96:09:cf:e3:4d:12:76:54:bf:8a:7c:6a:87:
                    17:f6:f1:a3:96:2a:de:92:13:c0:e7:a2:7f:e1:ee:
                    43:c5:64:b9:ff:ce:0b:c7:8f:6c:6f:63:1c:66:94:
                    1e:a7:bd:a8:c6:5c:d0:d3:05:60:79:6d:be:e2:dd:
                    4d:f7:b6:25:f1:ca:79:37:d3:1a:2f:fd:ae:65:03:
                    8f:8e:bb
                Exponent: 65537 (0x10001)
        X509v3 extensions:
            X509v3 Basic Constraints: 
                CA:FALSE
            Netscape Comment: 
                Easy-RSA Generated Certificate
            X509v3 Subject Key Identifier: 
                76:43:AC:97:8D:39:21:40:78:15:1C:1B:6C:08:E0:67:4C:C0:6B:BE
            X509v3 Authority Key Identifier: 
                keyid:12:CD:60:04:D2:A0:80:9E:70:ED:C6:99:B8:7B:2C:C6:52:FD:19:A1
                DirName:/C=US/ST=OH/L=Columbus/O=VikingVPN/OU=MyOrganizationalUnit/CN=VikingVPN CA/name=EasyRSA/emailAddress=me@myhost.mydomain
                serial:CF:35:85:EE:80:BF:2A:3E

            X509v3 Extended Key Usage: 
                TLS Web Client Authentication
            X509v3 Key Usage: 
                Digital Signature
    Signature Algorithm: md5WithRSAEncryption
         da:5e:19:52:e2:9e:61:20:ee:03:4f:f2:79:d1:da:02:0d:91:
         b7:cf:72:0a:94:0f:2a:06:45:c3:cd:16:69:1d:6f:df:20:cb:
         5a:e8:a8:83:e9:1f:8d:7e:38:a1:9b:a6:18:9e:ae:77:d7:25:
         8d:73:ac:2b:39:0c:40:f1:91:63:45:dc:52:5a:75:a1:83:5b:
         0c:c4:4f:0a:32:ad:8a:57:87:62:f0:4a:fb:15:30:62:95:f4:
         d4:4f:a8:ab:8b:05:b6:e0:9b:fa:9f:9a:28:04:6b:bd:ba:37:
         c8:2d:8f:e9:8c:54:25:5f:94:62:ab:98:19:b8:83:34:2d:fc:
         8e:96:0f:cd:b4:79:32:aa:2a:bf:b8:46:51:b0:e7:81:6a:08:
         d3:f8:4a:da:fd:f7:b9:a6:28:50:3c:1d:a6:25:65:58:cb:74:
         22:12:42:3f:e1:2e:15:fe:63:6d:f9:29:73:15:35:c1:b1:68:
         8f:33:67:be:8e:57:23:29:e2:c4:57:81:37:e9:5d:dc:75:9d:
         30:f9:95:26:50:ec:d4:77:04:f8:d7:7f:99:b3:7d:16:6e:12:
         5a:93:e7:6b:c4:0f:d3:ff:88:14:d6:55:2d:1a:db:42:19:ec:
         84:6e:24:5c:83:1b:52:a1:3b:4f:1c:21:5e:ca:50:50:e6:32:
         9b:5a:e5:b6:a0:89:61:00:fe:85:06:61:eb:7f:fd:81:fe:fc:
         f4:77:51:46:0e:66:71:82:d0:88:9b:fd:47:1c:e9:21:06:d2:
         5d:95:fb:d2:0b:fd:6b:33:08:89:70:2f:14:73:bf:92:2f:66:
         f6:1a:a9:e1:db:1b:4c:55:56:fc:49:d5:5c:d9:bd:b7:29:18:
         4e:0f:c0:45:7a:06:10:c6:ad:2d:bf:bf:82:95:5e:fa:45:12:
         5d:fe:f0:95:b8:62:ad:f1:8e:c6:9a:9b:f5:5f:f9:62:30:6c:
         0a:01:a7:19:df:d3:7c:1d:9e:2b:47:a8:c4:7a:ad:d0:5e:4b:
         c8:2d:c8:d6:30:4a:2e:d5:53:15:7b:9c:13:0f:46:16:5a:56:
         e2:07:3f:73:57:6a:ca:75:68:2a:51:ad:3a:ba:88:38:e3:87:
         f7:07:0e:b1:0f:21:36:78:30:18:0a:85:72:0b:da:a5:c2:65:
         67:a9:b3:75:02:9a:54:22:53:d6:31:3e:18:e4:e5:a0:2c:0f:
         27:83:8b:eb:18:cb:e8:03:9f:db:58:22:a8:24:f5:c1:3c:22:
         39:a7:df:3f:fc:84:e9:86:fd:c2:44:d9:4d:13:45:2f:b0:a8:
         d9:1c:ff:5b:86:ef:bc:a2:01:96:dc:f9:90:e3:53:8b:74:5c:
         ea:f5:19:df:14:43:c6:e1
-----BEGIN CERTIFICATE-----
MIIGrTCCBJWgAwIBAgICDcMwDQYJKoZIhvcNAQEEBQAwgawxCzAJBgNVBAYTAlVT
MQswCQYDVQQIEwJPSDERMA8GA1UEBxMIQ29sdW1idXMxEjAQBgNVBAoTCVZpa2lu
Z1ZQTjEdMBsGA1UECxMUTXlPcmdhbml6YXRpb25hbFVuaXQxFTATBgNVBAMTDFZp
a2luZ1ZQTiBDQTEQMA4GA1UEKRMHRWFzeVJTQTEhMB8GCSqGSIb3DQEJARYSbWVA
bXlob3N0Lm15ZG9tYWluMB4XDTE0MTEyNzIxMDYxMloXDTI0MTEyNDIxMDYxMlow
HzEdMBsGA1UEAxMUQ2xpZW50MTIwM0NlcnQ3Zjk5MDkwggIiMA0GCSqGSIb3DQEB
AQUAA4ICDwAwggIKAoICAQDT+ImrLXYoqV3VDUFTIYd2obDjP23uRaNSaUnfGSYQ
80AP2rRE2Lz5abp94gFk1g1OavbJ7VFZqKz5EvYYN0CYee/0bkJHo9veMMEKTGCM
a0G056c6JCuSprBW8hzuS0gS/VSq7jipHxPt9ojx44AIWIZO1LQQ48klp7byoEhI
OEjfBNLu1me9MTdiLKIk0lqPvJODthrbP19fQETOt1wJ+ys+h/E1ka10n1FqmXHJ
IJ57pJ6oHi2yXJEgT91XErZaCtQnHROYHoEOaUxE4vY4632SvBh3fJHJkkf9784k
KBfX6AB6k8mesG5G3nM+0+f8gkJLt496qdvG+YpNgEeDcfGeUxbbdTV9SYAyH5KN
HN8aIaWlUZ5dJPqeQd7pNzPt1McHSFgl5oA1SB9sXaE87pWtsA0OvBaGDd9rVhvp
/I5zG+OReYu++sczfnacW5IYAj10UPw7mLoTEqp0QoGv1Iuosc5TsUUaZ6cMmxjN
737KyyAOJ7wR+5h0vbo0OXRPi164FH0vEb14tYlsv7Rx6COJuVdecNZvSdWIv5af
dHZTFOlMvhuHkbqUjbgSWTwGFPCalgnP400SdlS/inxqhxf28aOWKt6SE8Dnon/h
7kPFZLn/zgvHj2xvYxxmlB6nvajGXNDTBWB5bb7i3U33tiXxynk30xov/a5lA4+O
uwIDAQABo4IBYzCCAV8wCQYDVR0TBAIwADAtBglghkgBhvhCAQ0EIBYeRWFzeS1S
U0EgR2VuZXJhdGVkIENlcnRpZmljYXRlMB0GA1UdDgQWBBR2Q6yXjTkhQHgVHBts
COBnTMBrvjCB4QYDVR0jBIHZMIHWgBQSzWAE0qCAnnDtxpm4eyzGUv0ZoaGBsqSB
rzCBrDELMAkGA1UEBhMCVVMxCzAJBgNVBAgTAk9IMREwDwYDVQQHEwhDb2x1bWJ1
czESMBAGA1UEChMJVmlraW5nVlBOMR0wGwYDVQQLExRNeU9yZ2FuaXphdGlvbmFs
VW5pdDEVMBMGA1UEAxMMVmlraW5nVlBOIENBMRAwDgYDVQQpEwdFYXN5UlNBMSEw
HwYJKoZIhvcNAQkBFhJtZUBteWhvc3QubXlkb21haW6CCQDPNYXugL8qPjATBgNV
HSUEDDAKBggrBgEFBQcDAjALBgNVHQ8EBAMCB4AwDQYJKoZIhvcNAQEEBQADggIB
ANpeGVLinmEg7gNP8nnR2gINkbfPcgqUDyoGRcPNFmkdb98gy1roqIPpH41+OKGb
phiernfXJY1zrCs5DEDxkWNF3FJadaGDWwzETwoyrYpXh2LwSvsVMGKV9NRPqKuL
Bbbgm/qfmigEa726N8gtj+mMVCVflGKrmBm4gzQt/I6WD820eTKqKr+4RlGw54Fq
CNP4Str997mmKFA8HaYlZVjLdCISQj/hLhX+Y235KXMVNcGxaI8zZ76OVyMp4sRX
gTfpXdx1nTD5lSZQ7NR3BPjXf5mzfRZuElqT52vED9P/iBTWVS0a20IZ7IRuJFyD
G1KhO08cIV7KUFDmMpta5bagiWEA/oUGYet//YH+/PR3UUYOZnGC0Iib/Ucc6SEG
0l2V+9IL/WszCIlwLxRzv5IvZvYaqeHbG0xVVvxJ1VzZvbcpGE4PwEV6BhDGrS2/
v4KVXvpFEl3+8JW4Yq3xjsaam/Vf+WIwbAoBpxnf03wdnitHqMR6rdBeS8gtyNYw
Si7VUxV7nBMPRhZaVuIHP3NXasp1aCpRrTq6iDjjh/cHDrEPITZ4MBgKhXIL2qXC
ZWeps3UCmlQiU9YxPhjk5aAsDyeDi+sYy+gDn9tYIqgk9cE8Ijmn3z/8hOmG/cJE
2U0TRS+wqNkc/1uG77yiAZbc+ZDjU4t0XOr1Gd8UQ8bh
-----END CERTIFICATE-----
