Certificate:
    Data:
        Version: 3 (0x2)
        Serial Number: 3476 (0xd94)
    Signature Algorithm: md5WithRSAEncryption
        Issuer: C=US, ST=OH, L=Columbus, O=VikingVPN, OU=MyOrganizationalUnit, CN=VikingVPN CA/name=EasyRSA/emailAddress=me@myhost.mydomain
        Validity
            Not Before: Nov 23 22:33:32 2014 GMT
            Not After : Nov 20 22:33:32 2024 GMT
        Subject: CN=Client51Cert2c6e31
        Subject Public Key Info:
            Public Key Algorithm: rsaEncryption
                Public-Key: (4096 bit)
                Modulus:
                    00:a6:d7:ae:51:38:f9:9d:22:b1:b8:fb:f1:49:8e:
                    67:85:91:90:be:93:a6:19:fa:57:6d:6b:af:e4:1e:
                    bc:8f:c7:7d:c2:b7:a4:fd:3b:23:d5:e8:b8:86:bd:
                    0d:18:99:be:51:1c:8b:5b:bb:c1:c2:c4:df:55:fe:
                    e5:c1:c2:00:f1:a8:a0:32:80:9a:8b:62:1f:8f:4a:
                    07:cc:b8:86:c7:f8:b3:60:37:fb:2e:56:d0:1e:01:
                    17:95:49:7a:60:26:6d:ac:b5:ae:a4:bd:16:70:56:
                    a5:bd:e4:23:8b:90:c2:22:69:53:19:b2:62:26:cb:
                    a5:c1:ac:16:4f:f4:61:51:c9:16:0d:f5:c5:d1:eb:
                    b1:18:4f:49:39:40:45:d7:ab:f5:42:06:70:8c:73:
                    09:af:b5:bf:8c:06:ee:5b:72:1b:e5:f7:8d:84:82:
                    8f:3e:ac:a2:5e:72:63:97:36:1c:5e:26:d8:55:a6:
                    44:03:7d:46:02:d4:ca:d4:f8:93:b7:a4:02:2e:27:
                    83:03:85:d0:92:9c:33:d9:6e:89:d3:28:8b:44:14:
                    82:cd:b9:9d:58:95:a6:32:37:f1:d4:0e:11:ce:74:
                    52:89:c2:cf:56:f1:51:ca:ff:a4:15:3d:18:3c:a9:
                    9b:42:9b:b1:aa:f2:1d:9b:6a:c8:f9:36:80:76:67:
                    b4:9b:fd:9f:5c:ac:69:c5:b4:4a:bb:24:f9:ac:2a:
                    e1:56:cc:09:fa:a1:8d:56:3b:25:32:1b:d9:57:0f:
                    31:b1:bd:b3:36:32:46:ca:9d:50:fe:08:41:28:fd:
                    73:4d:a0:6c:47:3c:d7:bc:0c:fb:24:2f:ae:80:f7:
                    e1:2c:e3:b4:5b:c1:1d:d4:15:4a:70:f7:3e:4a:e4:
                    9a:38:99:24:92:34:74:8c:8c:9b:13:09:96:6e:8e:
                    6b:36:8b:cc:7b:97:35:89:36:7c:e7:25:0d:30:27:
                    39:39:d7:4c:b9:d7:3a:21:57:36:79:27:d2:fc:0e:
                    14:08:1c:71:28:fe:d6:8f:f7:06:5f:34:27:fb:10:
                    9e:03:8c:06:a1:71:5a:a5:72:3c:66:ba:20:57:65:
                    27:2e:87:be:35:97:93:f1:28:54:5e:cf:c9:2a:90:
                    8b:6a:95:57:61:55:31:49:50:42:62:f8:5e:89:60:
                    12:9f:ab:15:c7:8c:f7:2d:b8:05:f0:9b:d9:18:75:
                    ac:4d:4f:7b:ec:17:84:d6:49:2b:c9:74:67:f9:a8:
                    bc:5c:7f:89:d5:f7:8c:9f:4e:93:97:66:45:b0:ce:
                    51:1d:22:e7:f0:98:af:89:3f:88:e3:4f:8b:fb:52:
                    9f:3b:b8:6a:4d:3e:da:bf:e9:ca:2f:0c:66:49:24:
                    73:85:f9
                Exponent: 65537 (0x10001)
        X509v3 extensions:
            X509v3 Basic Constraints: 
                CA:FALSE
            Netscape Comment: 
                Easy-RSA Generated Certificate
            X509v3 Subject Key Identifier: 
                99:85:6C:C0:E4:BE:40:57:6F:63:4D:4C:4A:D7:FE:00:C0:2F:93:D6
            X509v3 Authority Key Identifier: 
                keyid:12:CD:60:04:D2:A0:80:9E:70:ED:C6:99:B8:7B:2C:C6:52:FD:19:A1
                DirName:/C=US/ST=OH/L=Columbus/O=VikingVPN/OU=MyOrganizationalUnit/CN=VikingVPN CA/name=EasyRSA/emailAddress=me@myhost.mydomain
                serial:CF:35:85:EE:80:BF:2A:3E

            X509v3 Extended Key Usage: 
                TLS Web Client Authentication
            X509v3 Key Usage: 
                Digital Signature
    Signature Algorithm: md5WithRSAEncryption
         16:de:a6:32:bf:58:d7:dd:59:b8:ad:6e:6b:c3:e0:f7:95:59:
         65:3a:44:17:91:59:c5:14:6d:41:75:df:07:58:35:a2:0a:3f:
         70:3f:6d:84:85:ea:56:38:0c:15:a3:f0:a4:dd:68:b3:9b:3b:
         c7:62:57:e9:dc:e6:07:19:52:6f:c5:0e:a6:e1:94:30:4c:17:
         43:85:f4:b5:17:df:2f:41:4d:8d:96:0e:56:82:63:d4:0f:34:
         e2:bf:98:ec:66:dc:90:81:5e:22:a4:25:a1:bd:a6:a7:df:48:
         46:d8:67:ac:c7:8d:46:19:f9:ea:7a:43:0c:85:4c:ce:a9:c1:
         5b:0f:68:5b:a8:bf:bc:30:68:12:83:bb:b3:73:dc:6d:38:0d:
         f9:09:5e:b5:76:d7:10:63:49:e4:20:44:5c:3a:53:e7:b9:62:
         37:64:8a:99:c9:1a:1a:6b:22:30:96:5f:10:77:37:64:51:c6:
         d7:a6:41:5f:c9:9e:da:29:42:94:f8:83:68:62:66:4f:03:9f:
         49:a4:59:08:f4:a0:1a:d6:1d:12:1c:d0:d9:b4:34:b5:5b:55:
         38:52:c2:3c:1b:21:20:e7:ad:30:28:56:3e:67:07:a7:a6:1b:
         f8:3f:30:9a:5b:37:7b:5a:b8:69:2b:8a:93:2a:57:22:c9:f0:
         ad:06:29:c4:20:46:cb:64:60:53:b2:f5:f6:86:7f:90:5b:4d:
         4f:56:13:14:7a:d4:44:02:51:0b:e0:e7:25:5c:0c:c1:18:2e:
         25:24:93:e5:0c:45:4a:db:c6:b4:24:d5:5f:f4:74:23:6a:fb:
         c6:ba:fa:5b:99:85:76:58:b3:f4:e2:d5:df:df:28:f1:9b:ab:
         11:ea:7e:b7:b3:0e:60:a4:54:bb:b6:00:f0:a0:f4:5c:9e:be:
         1c:14:7b:21:5f:8e:7e:b8:b3:7b:3d:1e:03:df:91:9a:33:ab:
         88:0a:19:fa:9a:1b:7c:60:46:9a:25:44:61:02:ee:00:36:a8:
         cb:54:4a:d6:05:56:f7:ba:8e:a2:95:16:ba:0f:6d:cc:fb:b3:
         4e:24:6b:b5:57:d3:57:68:88:4e:1c:8d:4f:d1:3f:ec:15:19:
         04:1a:62:e1:b2:c8:81:4f:41:50:fd:91:4c:16:f9:cd:de:fc:
         9c:e9:e5:55:d7:d6:1a:1c:3e:fd:4a:ec:dc:ec:ac:53:c9:dc:
         be:37:98:dc:4c:e6:86:0b:b1:0d:63:73:3f:64:bc:7d:a6:5e:
         8d:af:25:57:e1:0a:ee:4c:10:5c:a5:ac:19:94:61:62:09:bd:
         e3:17:dd:cf:d8:2b:ae:de:49:f1:d4:2a:b0:8e:1e:1d:e5:aa:
         5d:65:e1:20:89:6b:af:fa
-----BEGIN CERTIFICATE-----
MIIGqzCCBJOgAwIBAgICDZQwDQYJKoZIhvcNAQEEBQAwgawxCzAJBgNVBAYTAlVT
MQswCQYDVQQIEwJPSDERMA8GA1UEBxMIQ29sdW1idXMxEjAQBgNVBAoTCVZpa2lu
Z1ZQTjEdMBsGA1UECxMUTXlPcmdhbml6YXRpb25hbFVuaXQxFTATBgNVBAMTDFZp
a2luZ1ZQTiBDQTEQMA4GA1UEKRMHRWFzeVJTQTEhMB8GCSqGSIb3DQEJARYSbWVA
bXlob3N0Lm15ZG9tYWluMB4XDTE0MTEyMzIyMzMzMloXDTI0MTEyMDIyMzMzMlow
HTEbMBkGA1UEAxMSQ2xpZW50NTFDZXJ0MmM2ZTMxMIICIjANBgkqhkiG9w0BAQEF
AAOCAg8AMIICCgKCAgEApteuUTj5nSKxuPvxSY5nhZGQvpOmGfpXbWuv5B68j8d9
wrek/Tsj1ei4hr0NGJm+URyLW7vBwsTfVf7lwcIA8aigMoCai2Ifj0oHzLiGx/iz
YDf7LlbQHgEXlUl6YCZtrLWupL0WcFalveQji5DCImlTGbJiJsulwawWT/RhUckW
DfXF0euxGE9JOUBF16v1QgZwjHMJr7W/jAbuW3Ib5feNhIKPPqyiXnJjlzYcXibY
VaZEA31GAtTK1PiTt6QCLieDA4XQkpwz2W6J0yiLRBSCzbmdWJWmMjfx1A4RznRS
icLPVvFRyv+kFT0YPKmbQpuxqvIdm2rI+TaAdme0m/2fXKxpxbRKuyT5rCrhVswJ
+qGNVjslMhvZVw8xsb2zNjJGyp1Q/ghBKP1zTaBsRzzXvAz7JC+ugPfhLOO0W8Ed
1BVKcPc+SuSaOJkkkjR0jIybEwmWbo5rNovMe5c1iTZ85yUNMCc5OddMudc6IVc2
eSfS/A4UCBxxKP7Wj/cGXzQn+xCeA4wGoXFapXI8ZrogV2UnLoe+NZeT8ShUXs/J
KpCLapVXYVUxSVBCYvheiWASn6sVx4z3LbgF8JvZGHWsTU977BeE1kkryXRn+ai8
XH+J1feMn06Tl2ZFsM5RHSLn8JiviT+I40+L+1KfO7hqTT7av+nKLwxmSSRzhfkC
AwEAAaOCAWMwggFfMAkGA1UdEwQCMAAwLQYJYIZIAYb4QgENBCAWHkVhc3ktUlNB
IEdlbmVyYXRlZCBDZXJ0aWZpY2F0ZTAdBgNVHQ4EFgQUmYVswOS+QFdvY01MStf+
AMAvk9YwgeEGA1UdIwSB2TCB1oAUEs1gBNKggJ5w7caZuHssxlL9GaGhgbKkga8w
gawxCzAJBgNVBAYTAlVTMQswCQYDVQQIEwJPSDERMA8GA1UEBxMIQ29sdW1idXMx
EjAQBgNVBAoTCVZpa2luZ1ZQTjEdMBsGA1UECxMUTXlPcmdhbml6YXRpb25hbFVu
aXQxFTATBgNVBAMTDFZpa2luZ1ZQTiBDQTEQMA4GA1UEKRMHRWFzeVJTQTEhMB8G
CSqGSIb3DQEJARYSbWVAbXlob3N0Lm15ZG9tYWluggkAzzWF7oC/Kj4wEwYDVR0l
BAwwCgYIKwYBBQUHAwIwCwYDVR0PBAQDAgeAMA0GCSqGSIb3DQEBBAUAA4ICAQAW
3qYyv1jX3Vm4rW5rw+D3lVllOkQXkVnFFG1Bdd8HWDWiCj9wP22EhepWOAwVo/Ck
3WizmzvHYlfp3OYHGVJvxQ6m4ZQwTBdDhfS1F98vQU2Nlg5WgmPUDzTiv5jsZtyQ
gV4ipCWhvaan30hG2Gesx41GGfnqekMMhUzOqcFbD2hbqL+8MGgSg7uzc9xtOA35
CV61dtcQY0nkIERcOlPnuWI3ZIqZyRoaayIwll8QdzdkUcbXpkFfyZ7aKUKU+INo
YmZPA59JpFkI9KAa1h0SHNDZtDS1W1U4UsI8GyEg560wKFY+Zwenphv4PzCaWzd7
WrhpK4qTKlciyfCtBinEIEbLZGBTsvX2hn+QW01PVhMUetREAlEL4OclXAzBGC4l
JJPlDEVK28a0JNVf9HQjavvGuvpbmYV2WLP04tXf3yjxm6sR6n63sw5gpFS7tgDw
oPRcnr4cFHshX45+uLN7PR4D35GaM6uIChn6mht8YEaaJURhAu4ANqjLVErWBVb3
uo6ilRa6D23M+7NOJGu1V9NXaIhOHI1P0T/sFRkEGmLhssiBT0FQ/ZFMFvnN3vyc
6eVV19YaHD79Suzc7KxTydy+N5jcTOaGC7ENY3M/ZLx9pl6NryVX4QruTBBcpawZ
lGFiCb3jF93P2Cuu3knx1Cqwjh4d5apdZeEgiWuv+g==
-----END CERTIFICATE-----
