Certificate:
    Data:
        Version: 3 (0x2)
        Serial Number: 7465 (0x1d29)
    Signature Algorithm: md5WithRSAEncryption
        Issuer: C=US, ST=OH, L=Columbus, O=VikingVPN, OU=MyOrganizationalUnit, CN=VikingVPN CA/name=EasyRSA/emailAddress=me@myhost.mydomain
        Validity
            Not Before: Mar  9 20:02:30 2016 GMT
            Not After : Mar  7 20:02:30 2026 GMT
        Subject: CN=Client2220Cert93377b
        Subject Public Key Info:
            Public Key Algorithm: rsaEncryption
                Public-Key: (4096 bit)
                Modulus:
                    00:ac:f6:c0:0b:d1:9d:3e:90:da:92:4e:1f:e2:4e:
                    21:af:c7:aa:b7:fb:80:17:55:d9:f3:a9:4f:73:8e:
                    9a:44:36:c8:9d:af:1c:9b:a1:bd:0c:9b:cb:28:97:
                    84:30:a6:65:e7:02:1a:16:fb:1c:61:27:0a:e0:98:
                    97:e3:b2:7f:49:fd:d2:a4:78:22:7e:b9:c4:60:83:
                    88:fc:93:31:53:c1:c9:18:98:3b:61:14:16:e8:30:
                    72:e0:9d:b1:5b:3d:4b:a2:f6:ba:ee:be:d1:96:a9:
                    06:4a:3d:43:00:d3:e5:d1:d6:c6:d6:46:93:1e:a2:
                    6e:71:f5:14:66:d6:f4:bc:40:77:cf:ab:e0:03:88:
                    22:02:75:77:f5:bc:2e:7d:6d:6f:e6:6f:58:80:63:
                    28:c2:dd:a9:47:49:cc:a3:79:14:03:4f:eb:97:4d:
                    36:d6:cc:4c:33:0c:0f:4a:9c:3c:88:fc:e0:12:cc:
                    25:bf:04:74:22:b7:0b:31:f1:15:d2:14:32:cc:2b:
                    06:19:9b:60:4e:ca:04:09:db:52:73:7e:c3:eb:68:
                    09:07:0f:c4:74:15:c2:dc:a4:12:49:9a:7e:e6:36:
                    0d:36:89:46:27:73:dd:2b:25:d7:21:73:3c:45:16:
                    4d:3a:24:b7:be:fd:24:26:58:5d:c9:62:6c:4f:71:
                    50:f1:45:c5:cb:15:04:8a:db:31:78:cf:27:f0:ca:
                    20:c9:69:4e:68:70:f9:16:bf:23:29:fd:68:5e:e3:
                    79:97:8b:92:cb:f4:bb:73:70:08:9a:e9:bf:c2:ef:
                    0d:10:c1:73:86:8f:e4:96:2f:23:0e:8c:ae:d7:42:
                    16:ee:45:c3:29:b7:00:3d:35:d8:b8:16:40:44:da:
                    ba:f9:ba:ad:f0:9f:1d:37:20:ac:cf:b4:d8:51:4b:
                    84:5c:4d:4e:4c:a0:b4:6d:fc:1f:ff:21:a4:14:6a:
                    b9:03:ce:04:10:68:67:1f:2e:02:24:a4:ce:bf:0e:
                    d1:f4:88:cb:06:e0:31:4e:b4:be:f7:5d:a8:7a:8c:
                    67:7e:a5:5e:74:86:0c:86:e3:cb:17:78:60:2e:ad:
                    4e:aa:86:24:7a:97:28:19:f5:b9:b9:3c:33:71:95:
                    58:4f:89:59:d1:40:c4:42:2d:35:c4:25:cc:67:f0:
                    12:a9:a9:d6:a2:0c:85:d1:bb:6a:bf:e7:20:97:48:
                    b4:3d:a7:52:c6:85:41:d5:42:95:37:bf:42:4e:d0:
                    8b:de:27:c8:3a:bc:e9:18:a2:fe:5f:73:bb:bf:4d:
                    49:41:6f:b1:f3:70:0c:21:88:32:19:63:c8:82:8d:
                    3d:12:59:bc:d9:af:df:07:95:a6:cd:ce:49:da:1b:
                    f2:86:75
                Exponent: 65537 (0x10001)
        X509v3 extensions:
            X509v3 Basic Constraints: 
                CA:FALSE
            Netscape Comment: 
                Easy-RSA Generated Certificate
            X509v3 Subject Key Identifier: 
                FD:29:5C:32:BC:22:61:41:21:AF:21:89:B7:7F:2E:EA:4C:DE:C9:BA
            X509v3 Authority Key Identifier: 
                keyid:12:CD:60:04:D2:A0:80:9E:70:ED:C6:99:B8:7B:2C:C6:52:FD:19:A1
                DirName:/C=US/ST=OH/L=Columbus/O=VikingVPN/OU=MyOrganizationalUnit/CN=VikingVPN CA/name=EasyRSA/emailAddress=me@myhost.mydomain
                serial:CF:35:85:EE:80:BF:2A:3E

            X509v3 Extended Key Usage: 
                TLS Web Client Authentication
            X509v3 Key Usage: 
                Digital Signature
    Signature Algorithm: md5WithRSAEncryption
         72:89:40:76:63:da:61:1c:6c:50:77:34:3b:53:bc:45:93:cc:
         23:9d:21:fc:6b:fb:b8:7c:55:91:44:13:aa:f3:1e:1c:67:55:
         9c:25:db:fd:67:01:bf:61:c7:79:3f:1f:97:7a:79:b9:01:35:
         1e:7d:49:3f:8b:7d:07:c6:38:f2:5b:89:84:c6:f8:98:c9:be:
         c5:54:17:e3:a7:a1:15:d2:63:ba:d5:f9:9a:95:d2:60:07:91:
         99:86:f6:62:bf:f9:fb:b5:c7:27:08:d0:10:5a:c3:95:7e:f8:
         ba:9b:a6:78:68:05:d0:36:83:22:68:58:b6:f2:85:77:9e:10:
         d9:27:25:9f:8a:8c:bd:1c:d6:90:ca:2a:1c:05:90:c3:07:df:
         15:e4:96:e0:df:bf:4e:f8:b1:97:d2:68:79:25:0b:27:74:b4:
         6a:cc:1b:08:c4:13:82:32:a8:cf:cb:82:2f:17:bb:e9:02:37:
         d3:1d:f3:dc:e3:4b:a1:2e:2f:dd:9c:27:22:ec:d5:84:6a:dc:
         5a:84:41:86:17:42:3a:9d:f1:13:d7:4a:d0:d7:85:66:99:91:
         42:f5:1a:7e:38:b2:26:eb:4e:d0:a4:0b:37:58:02:5d:ac:04:
         a9:63:29:5b:df:d6:18:5b:e4:30:23:74:f9:39:58:c9:51:39:
         0c:35:4b:73:b9:ad:5b:90:ee:33:69:89:20:c0:4d:0f:21:a3:
         56:76:90:b9:95:07:2b:c2:68:b2:8c:4d:5d:9c:25:e4:9f:2b:
         33:ba:b1:b8:3f:3a:a6:1d:d0:de:f0:d2:88:c9:0c:62:df:4f:
         05:2c:f2:a3:83:33:38:ca:fa:e5:d2:eb:2d:e1:f6:24:2c:59:
         9a:35:92:37:da:6f:b3:6a:85:1d:da:a2:21:bc:b5:df:d7:7d:
         b8:d0:97:82:04:9d:de:b0:14:3a:be:e2:a2:c6:03:5d:48:55:
         d6:2d:b3:98:f3:54:01:43:35:54:e6:12:5f:d8:38:25:eb:78:
         cc:95:66:00:f4:f3:f4:ff:5a:a1:6a:3c:a9:67:72:c6:9b:40:
         00:b7:21:fd:62:13:59:f5:b4:1f:75:7f:0f:54:20:45:fe:d7:
         6d:87:08:e9:20:cf:13:12:3c:02:ef:96:33:83:f8:d2:5f:72:
         5d:ef:19:3a:63:7f:69:7f:89:cc:af:40:da:d9:2c:b4:37:68:
         4e:89:ed:c6:c8:c1:df:af:af:9a:1d:a7:10:1b:6f:5f:5e:15:
         e4:29:77:46:c2:0e:70:6d:82:ec:90:b1:25:24:14:be:c4:fe:
         70:8a:9c:71:32:2e:5c:11:62:2b:12:bc:e1:f7:dc:f9:56:de:
         32:6a:2b:40:12:8c:22:c0
-----BEGIN CERTIFICATE-----
MIIGrTCCBJWgAwIBAgICHSkwDQYJKoZIhvcNAQEEBQAwgawxCzAJBgNVBAYTAlVT
MQswCQYDVQQIEwJPSDERMA8GA1UEBxMIQ29sdW1idXMxEjAQBgNVBAoTCVZpa2lu
Z1ZQTjEdMBsGA1UECxMUTXlPcmdhbml6YXRpb25hbFVuaXQxFTATBgNVBAMTDFZp
a2luZ1ZQTiBDQTEQMA4GA1UEKRMHRWFzeVJTQTEhMB8GCSqGSIb3DQEJARYSbWVA
bXlob3N0Lm15ZG9tYWluMB4XDTE2MDMwOTIwMDIzMFoXDTI2MDMwNzIwMDIzMFow
HzEdMBsGA1UEAxMUQ2xpZW50MjIyMENlcnQ5MzM3N2IwggIiMA0GCSqGSIb3DQEB
AQUAA4ICDwAwggIKAoICAQCs9sAL0Z0+kNqSTh/iTiGvx6q3+4AXVdnzqU9zjppE
Nsidrxybob0Mm8sol4QwpmXnAhoW+xxhJwrgmJfjsn9J/dKkeCJ+ucRgg4j8kzFT
wckYmDthFBboMHLgnbFbPUui9rruvtGWqQZKPUMA0+XR1sbWRpMeom5x9RRm1vS8
QHfPq+ADiCICdXf1vC59bW/mb1iAYyjC3alHScyjeRQDT+uXTTbWzEwzDA9KnDyI
/OASzCW/BHQitwsx8RXSFDLMKwYZm2BOygQJ21JzfsPraAkHD8R0FcLcpBJJmn7m
Ng02iUYnc90rJdchczxFFk06JLe+/SQmWF3JYmxPcVDxRcXLFQSK2zF4zyfwyiDJ
aU5ocPkWvyMp/Whe43mXi5LL9LtzcAia6b/C7w0QwXOGj+SWLyMOjK7XQhbuRcMp
twA9Ndi4FkBE2rr5uq3wnx03IKzPtNhRS4RcTU5MoLRt/B//IaQUarkDzgQQaGcf
LgIkpM6/DtH0iMsG4DFOtL73Xah6jGd+pV50hgyG48sXeGAurU6qhiR6lygZ9bm5
PDNxlVhPiVnRQMRCLTXEJcxn8BKpqdaiDIXRu2q/5yCXSLQ9p1LGhUHVQpU3v0JO
0IveJ8g6vOkYov5fc7u/TUlBb7HzcAwhiDIZY8iCjT0SWbzZr98HlabNzknaG/KG
dQIDAQABo4IBYzCCAV8wCQYDVR0TBAIwADAtBglghkgBhvhCAQ0EIBYeRWFzeS1S
U0EgR2VuZXJhdGVkIENlcnRpZmljYXRlMB0GA1UdDgQWBBT9KVwyvCJhQSGvIYm3
fy7qTN7JujCB4QYDVR0jBIHZMIHWgBQSzWAE0qCAnnDtxpm4eyzGUv0ZoaGBsqSB
rzCBrDELMAkGA1UEBhMCVVMxCzAJBgNVBAgTAk9IMREwDwYDVQQHEwhDb2x1bWJ1
czESMBAGA1UEChMJVmlraW5nVlBOMR0wGwYDVQQLExRNeU9yZ2FuaXphdGlvbmFs
VW5pdDEVMBMGA1UEAxMMVmlraW5nVlBOIENBMRAwDgYDVQQpEwdFYXN5UlNBMSEw
HwYJKoZIhvcNAQkBFhJtZUBteWhvc3QubXlkb21haW6CCQDPNYXugL8qPjATBgNV
HSUEDDAKBggrBgEFBQcDAjALBgNVHQ8EBAMCB4AwDQYJKoZIhvcNAQEEBQADggIB
AHKJQHZj2mEcbFB3NDtTvEWTzCOdIfxr+7h8VZFEE6rzHhxnVZwl2/1nAb9hx3k/
H5d6ebkBNR59ST+LfQfGOPJbiYTG+JjJvsVUF+OnoRXSY7rV+ZqV0mAHkZmG9mK/
+fu1xycI0BBaw5V++LqbpnhoBdA2gyJoWLbyhXeeENknJZ+KjL0c1pDKKhwFkMMH
3xXkluDfv074sZfSaHklCyd0tGrMGwjEE4IyqM/Lgi8Xu+kCN9Md89zjS6EuL92c
JyLs1YRq3FqEQYYXQjqd8RPXStDXhWaZkUL1Gn44sibrTtCkCzdYAl2sBKljKVvf
1hhb5DAjdPk5WMlROQw1S3O5rVuQ7jNpiSDATQ8ho1Z2kLmVByvCaLKMTV2cJeSf
KzO6sbg/OqYd0N7w0ojJDGLfTwUs8qODMzjK+uXS6y3h9iQsWZo1kjfab7NqhR3a
oiG8td/XfbjQl4IEnd6wFDq+4qLGA11IVdYts5jzVAFDNVTmEl/YOCXreMyVZgD0
8/T/WqFqPKlncsabQAC3If1iE1n1tB91fw9UIEX+122HCOkgzxMSPALvljOD+NJf
cl3vGTpjf2l/icyvQNrZLLQ3aE6J7cbIwd+vr5odpxAbb19eFeQpd0bCDnBtguyQ
sSUkFL7E/nCKnHEyLlwRYisSvOH33PlW3jJqK0ASjCLA
-----END CERTIFICATE-----
