Certificate:
    Data:
        Version: 3 (0x2)
        Serial Number: 12390 (0x3066)
    Signature Algorithm: sha256WithRSAEncryption
        Issuer: C=US, ST=OH, L=Columbus, O=VikingVPN, OU=MyOrganizationalUnit, CN=VikingVPN CA/name=EasyRSA/emailAddress=me@myhost.mydomain
        Validity
            Not Before: Jan 11 12:10:42 2018 GMT
            Not After : Jan  9 12:10:42 2028 GMT
        Subject: CN=Client2663Cert54e393
        Subject Public Key Info:
            Public Key Algorithm: rsaEncryption
                Public-Key: (4096 bit)
                Modulus:
                    00:e8:64:5b:99:93:e0:c5:a3:72:1e:ea:01:65:45:
                    8b:99:df:06:fd:de:ad:e4:0a:a8:be:29:0d:87:14:
                    f9:24:41:ee:ab:94:19:6e:d4:1d:e2:d1:5a:79:9e:
                    8c:f9:66:0a:3e:93:6a:91:ef:dd:bc:e5:4a:fc:18:
                    ab:b7:86:76:90:7f:e1:44:84:0e:1a:76:5f:de:45:
                    54:08:6a:cb:35:40:70:5b:9d:44:7b:e6:28:a7:d4:
                    ab:3e:8f:b5:74:05:79:2b:9f:55:84:67:cd:52:97:
                    94:8f:fa:50:6f:0b:fc:e7:b0:b6:a7:0f:12:2d:7f:
                    fc:67:4b:e9:a8:95:b9:f6:64:28:37:17:5a:cd:35:
                    f2:ee:7f:7f:97:b7:c9:3d:7f:e7:ce:2b:de:ff:e1:
                    0d:ad:d9:57:32:1a:f8:42:b9:1d:0c:c7:30:2f:14:
                    94:9f:ad:07:1f:5e:a0:ec:a8:db:74:45:bb:0e:b9:
                    fb:c1:28:59:65:d9:c2:89:ef:4a:87:5f:48:49:21:
                    6f:5c:8a:3b:7e:7a:3c:b3:0c:a5:52:ce:41:62:d4:
                    3b:71:29:1c:df:74:fa:41:09:0a:e1:42:fc:ad:80:
                    a7:01:ce:96:e8:fd:6a:53:c7:ad:47:5b:ac:4f:39:
                    9e:5c:cf:85:7d:18:b8:14:ce:78:ad:6a:cf:ac:fa:
                    a3:ca:d7:48:7f:75:4c:f9:e0:38:db:b6:56:ab:75:
                    02:c7:46:39:d5:09:42:a3:5f:fa:11:f7:8d:db:ef:
                    6e:f3:0e:d1:52:db:f5:2f:54:71:44:c3:05:eb:94:
                    30:5e:85:9f:a8:41:70:08:fa:2d:7f:ab:75:e8:a0:
                    02:0b:e4:b2:36:da:a3:08:b7:9d:ff:fb:03:53:35:
                    31:93:91:7c:f6:5b:5f:d8:c4:7c:9c:9b:c1:6e:13:
                    27:6f:71:dc:95:c4:77:9f:a3:d0:b4:0c:d2:77:00:
                    15:03:ca:6e:bd:1f:09:6a:f5:1e:71:2b:e9:76:fb:
                    3d:84:be:65:a8:43:dc:9f:f4:a3:77:1e:34:60:26:
                    ac:f7:f1:7a:e7:5b:8a:52:f5:0e:64:af:47:e9:3e:
                    c8:c3:cd:df:c4:dc:50:81:cd:2f:a6:22:39:8f:ca:
                    96:4f:50:9a:ac:70:2d:ba:25:8e:97:56:f2:82:f4:
                    de:f0:ce:d2:a2:f5:87:65:1d:ed:ef:10:8b:a5:86:
                    ad:12:31:21:9d:94:1c:12:56:5f:34:9d:46:c2:d5:
                    bd:3e:45:6f:9f:85:fd:bc:c4:21:cf:74:e8:32:e9:
                    dc:4f:26:22:8e:73:55:37:48:3b:a0:76:25:93:b0:
                    83:07:7b:56:f3:65:ff:f2:cd:fc:75:12:db:56:6c:
                    58:e8:8b
                Exponent: 65537 (0x10001)
        X509v3 extensions:
            X509v3 Basic Constraints: 
                CA:FALSE
            Netscape Comment: 
                Easy-RSA Generated Certificate
            X509v3 Subject Key Identifier: 
                CC:EE:85:6D:F4:95:48:B2:A5:E0:27:91:43:7F:A8:82:A0:EF:7F:47
            X509v3 Authority Key Identifier: 
                keyid:12:CD:60:04:D2:A0:80:9E:70:ED:C6:99:B8:7B:2C:C6:52:FD:19:A1
                DirName:/C=US/ST=OH/L=Columbus/O=VikingVPN/OU=MyOrganizationalUnit/CN=VikingVPN CA/name=EasyRSA/emailAddress=me@myhost.mydomain
                serial:CF:35:85:EE:80:BF:2A:3E

            X509v3 Extended Key Usage: 
                TLS Web Client Authentication
            X509v3 Key Usage: 
                Digital Signature
    Signature Algorithm: sha256WithRSAEncryption
         d1:e9:f5:27:dd:18:3e:a9:08:da:93:02:1a:dc:fa:f7:d9:13:
         fc:64:f3:64:01:13:b9:e5:0c:10:66:bf:7e:2a:86:7c:d5:33:
         6d:9f:1b:b9:3a:21:4a:a5:4d:17:4c:16:c8:fd:10:3d:35:52:
         11:37:2d:07:20:e1:ca:05:d9:12:21:51:4e:ac:c2:7b:43:69:
         70:87:3e:38:32:27:9b:e0:48:8b:76:02:82:ab:05:a1:e4:b6:
         72:d9:24:07:12:06:08:41:e9:61:97:5a:50:86:ad:af:73:47:
         51:da:e0:3a:3a:4a:05:1a:65:d2:2d:a3:f4:54:d9:d8:58:69:
         a2:80:1d:5c:e3:3c:97:8c:5c:df:35:50:41:cc:aa:9e:1d:70:
         21:9d:95:c2:82:a8:a7:7d:48:86:82:6e:c5:04:7b:52:d9:e7:
         36:67:7e:e0:5c:14:28:1d:58:99:70:7c:e1:1c:45:96:ed:c3:
         0c:ef:34:97:a8:59:7f:b3:96:72:ca:d0:b3:67:a5:ba:b1:0f:
         2d:35:60:09:bc:51:53:d9:0c:a8:a2:a4:e4:cc:14:ba:42:5e:
         2d:52:d3:b0:73:6e:b5:a7:b4:2e:10:f4:62:57:80:09:36:04:
         ad:da:52:98:c9:3b:5b:15:18:d1:f9:71:26:fb:02:91:31:ce:
         cb:37:22:09:fb:5d:87:9e:a7:b7:b1:fc:3a:f0:e4:a9:c7:7b:
         d6:f8:77:73:32:8a:50:92:66:75:51:d6:38:93:03:b4:03:4c:
         03:cf:9e:2e:98:e7:8a:63:b2:2c:9c:df:bc:19:00:de:4b:b3:
         6c:7a:86:a8:3e:ff:30:5f:46:a5:32:5c:1c:db:3e:47:32:a1:
         44:08:b3:c8:0b:1e:68:9b:ea:3c:4b:e7:d7:67:c5:7a:3b:6c:
         21:76:4c:62:91:a2:e4:0e:4e:cb:a2:06:ad:7c:69:35:4c:9c:
         96:7d:5b:32:24:27:84:40:9d:de:cc:88:c7:96:f6:2d:b7:aa:
         e9:3b:b6:c3:54:61:21:85:89:15:85:42:53:2f:00:e3:f6:ee:
         4d:cd:0a:05:5b:70:53:5f:79:af:e0:72:3b:c1:af:c7:6b:c5:
         62:53:7f:ec:ff:dd:3b:9d:1a:bc:cc:63:ef:69:b7:7d:bb:27:
         c2:6c:88:8f:a3:f3:aa:92:1a:a3:d3:d0:02:d3:da:60:9d:59:
         45:f2:a8:d2:fb:b9:7f:7c:24:1c:72:3a:42:29:00:92:5a:c8:
         34:68:58:ef:01:53:cc:5b:04:73:12:fc:55:2c:9e:f1:99:61:
         46:21:ea:67:83:87:ef:92:70:dc:f2:7d:82:0e:a0:c9:57:5c:
         fe:4c:1f:0c:76:3b:4e:8a
-----BEGIN CERTIFICATE-----
MIIGrTCCBJWgAwIBAgICMGYwDQYJKoZIhvcNAQELBQAwgawxCzAJBgNVBAYTAlVT
MQswCQYDVQQIEwJPSDERMA8GA1UEBxMIQ29sdW1idXMxEjAQBgNVBAoTCVZpa2lu
Z1ZQTjEdMBsGA1UECxMUTXlPcmdhbml6YXRpb25hbFVuaXQxFTATBgNVBAMTDFZp
a2luZ1ZQTiBDQTEQMA4GA1UEKRMHRWFzeVJTQTEhMB8GCSqGSIb3DQEJARYSbWVA
bXlob3N0Lm15ZG9tYWluMB4XDTE4MDExMTEyMTA0MloXDTI4MDEwOTEyMTA0Mlow
HzEdMBsGA1UEAxMUQ2xpZW50MjY2M0NlcnQ1NGUzOTMwggIiMA0GCSqGSIb3DQEB
AQUAA4ICDwAwggIKAoICAQDoZFuZk+DFo3Ie6gFlRYuZ3wb93q3kCqi+KQ2HFPkk
Qe6rlBlu1B3i0Vp5noz5Zgo+k2qR79285Ur8GKu3hnaQf+FEhA4adl/eRVQIass1
QHBbnUR75iin1Ks+j7V0BXkrn1WEZ81Sl5SP+lBvC/znsLanDxItf/xnS+molbn2
ZCg3F1rNNfLuf3+Xt8k9f+fOK97/4Q2t2VcyGvhCuR0MxzAvFJSfrQcfXqDsqNt0
RbsOufvBKFll2cKJ70qHX0hJIW9cijt+ejyzDKVSzkFi1DtxKRzfdPpBCQrhQvyt
gKcBzpbo/WpTx61HW6xPOZ5cz4V9GLgUznitas+s+qPK10h/dUz54DjbtlardQLH
RjnVCUKjX/oR943b727zDtFS2/UvVHFEwwXrlDBehZ+oQXAI+i1/q3XooAIL5LI2
2qMIt53/+wNTNTGTkXz2W1/YxHycm8FuEydvcdyVxHefo9C0DNJ3ABUDym69Hwlq
9R5xK+l2+z2EvmWoQ9yf9KN3HjRgJqz38XrnW4pS9Q5kr0fpPsjDzd/E3FCBzS+m
IjmPypZPUJqscC26JY6XVvKC9N7wztKi9YdlHe3vEIulhq0SMSGdlBwSVl80nUbC
1b0+RW+fhf28xCHPdOgy6dxPJiKOc1U3SDugdiWTsIMHe1bzZf/yzfx1EttWbFjo
iwIDAQABo4IBYzCCAV8wCQYDVR0TBAIwADAtBglghkgBhvhCAQ0EIBYeRWFzeS1S
U0EgR2VuZXJhdGVkIENlcnRpZmljYXRlMB0GA1UdDgQWBBTM7oVt9JVIsqXgJ5FD
f6iCoO9/RzCB4QYDVR0jBIHZMIHWgBQSzWAE0qCAnnDtxpm4eyzGUv0ZoaGBsqSB
rzCBrDELMAkGA1UEBhMCVVMxCzAJBgNVBAgTAk9IMREwDwYDVQQHEwhDb2x1bWJ1
czESMBAGA1UEChMJVmlraW5nVlBOMR0wGwYDVQQLExRNeU9yZ2FuaXphdGlvbmFs
VW5pdDEVMBMGA1UEAxMMVmlraW5nVlBOIENBMRAwDgYDVQQpEwdFYXN5UlNBMSEw
HwYJKoZIhvcNAQkBFhJtZUBteWhvc3QubXlkb21haW6CCQDPNYXugL8qPjATBgNV
HSUEDDAKBggrBgEFBQcDAjALBgNVHQ8EBAMCB4AwDQYJKoZIhvcNAQELBQADggIB
ANHp9SfdGD6pCNqTAhrc+vfZE/xk82QBE7nlDBBmv34qhnzVM22fG7k6IUqlTRdM
Fsj9ED01UhE3LQcg4coF2RIhUU6swntDaXCHPjgyJ5vgSIt2AoKrBaHktnLZJAcS
BghB6WGXWlCGra9zR1Ha4Do6SgUaZdIto/RU2dhYaaKAHVzjPJeMXN81UEHMqp4d
cCGdlcKCqKd9SIaCbsUEe1LZ5zZnfuBcFCgdWJlwfOEcRZbtwwzvNJeoWX+zlnLK
0LNnpbqxDy01YAm8UVPZDKiipOTMFLpCXi1S07BzbrWntC4Q9GJXgAk2BK3aUpjJ
O1sVGNH5cSb7ApExzss3Ign7XYeep7ex/Drw5KnHe9b4d3MyilCSZnVR1jiTA7QD
TAPPni6Y54pjsiyc37wZAN5Ls2x6hqg+/zBfRqUyXBzbPkcyoUQIs8gLHmib6jxL
59dnxXo7bCF2TGKRouQOTsuiBq18aTVMnJZ9WzIkJ4RAnd7MiMeW9i23quk7tsNU
YSGFiRWFQlMvAOP27k3NCgVbcFNfea/gcjvBr8drxWJTf+z/3TudGrzMY+9pt327
J8JsiI+j86qSGqPT0ALT2mCdWUXyqNL7uX98JBxyOkIpAJJayDRoWO8BU8xbBHMS
/FUsnvGZYUYh6meDh++ScNzyfYIOoMlXXP5MHwx2O06K
-----END CERTIFICATE-----
