Certificate:
    Data:
        Version: 3 (0x2)
        Serial Number: 3982 (0xf8e)
    Signature Algorithm: md5WithRSAEncryption
        Issuer: C=US, ST=OH, L=Columbus, O=VikingVPN, OU=MyOrganizationalUnit, CN=VikingVPN CA/name=EasyRSA/emailAddress=me@myhost.mydomain
        Validity
            Not Before: Jan  3 00:20:10 2015 GMT
            Not After : Dec 31 00:20:10 2024 GMT
        Subject: CN=Client858Cert3e746f
        Subject Public Key Info:
            Public Key Algorithm: rsaEncryption
                Public-Key: (4096 bit)
                Modulus:
                    00:a4:71:5d:d9:cd:b2:72:0c:d7:b7:c3:b9:39:4c:
                    7f:0e:44:a7:c1:54:b4:85:85:d0:46:b2:c5:97:82:
                    1e:a6:1e:e1:0b:42:35:2d:42:82:10:67:6c:ce:aa:
                    5c:0a:13:c9:4f:0d:8a:bf:c0:54:be:8e:2b:bf:aa:
                    50:8b:41:ba:21:0d:7d:5b:c6:b6:b0:f8:fe:0f:91:
                    b9:9c:56:98:b3:76:d9:d3:9f:26:e5:aa:eb:07:ac:
                    80:d2:44:2c:43:0a:51:c1:a6:f7:d4:72:5c:a1:95:
                    bd:1e:ee:1b:39:dc:4b:9f:e8:e5:b1:b5:a9:22:3b:
                    4f:87:09:9b:5c:30:b1:32:76:f0:0f:3b:43:88:12:
                    7a:7d:2f:8b:ce:5d:df:62:45:df:e6:60:b2:6b:29:
                    3b:d0:ee:36:c4:22:52:c1:fa:4d:23:63:ad:36:f7:
                    65:01:30:59:01:be:ed:94:aa:b1:5b:1e:97:ba:a6:
                    12:f5:4f:81:ff:be:13:33:2d:6e:b0:a8:8c:f9:cb:
                    68:ed:e0:17:90:61:3a:1f:66:d3:8e:7e:49:5a:10:
                    87:8f:ce:9d:3d:65:df:aa:9b:c9:9d:7d:31:fc:a0:
                    45:ac:eb:a1:7d:e7:15:b1:02:e2:d8:c1:a1:8e:4d:
                    37:f1:0c:e8:91:de:6e:14:1e:f5:b0:c9:28:47:12:
                    06:3f:78:f2:69:a2:18:fa:4a:60:48:38:60:d8:ea:
                    96:1e:51:12:b7:89:9b:00:30:3d:90:38:60:2d:92:
                    fd:bd:e6:fa:f0:7b:fe:b3:3f:90:97:ce:e5:f0:c2:
                    6a:cd:12:9b:7d:60:26:19:6f:60:be:a0:44:e6:e6:
                    fb:ef:98:8d:26:37:38:8c:ed:a0:be:5b:92:25:53:
                    53:38:fa:c4:a7:19:1e:4e:65:01:2d:bf:93:2c:17:
                    4b:d0:95:63:43:38:d5:dc:13:34:a4:ea:02:70:f0:
                    65:73:5f:8b:d2:80:f4:b0:f2:18:0b:7b:22:4f:cf:
                    c9:e3:77:9d:09:f7:6b:97:35:2d:c3:2e:ec:95:04:
                    b5:09:6d:c9:2b:95:de:88:a5:f0:e5:82:0e:36:d2:
                    92:47:35:ac:97:53:de:c9:df:c3:4d:e5:3c:df:af:
                    b7:35:6e:82:03:52:64:02:38:7e:fc:99:98:26:c6:
                    99:66:a9:d6:25:0c:b1:43:69:bc:e4:70:9a:c3:64:
                    3f:31:4b:dc:da:0a:49:39:b3:36:b6:ce:3f:06:3c:
                    58:38:0b:0e:98:f9:d9:03:bf:4f:ff:95:04:bd:b3:
                    0a:3b:2a:ac:25:e2:12:1f:5c:27:b9:78:d4:c9:bf:
                    00:d3:c3:a4:c5:f1:bf:9e:d3:1c:30:17:54:4c:e7:
                    26:8b:d1
                Exponent: 65537 (0x10001)
        X509v3 extensions:
            X509v3 Basic Constraints: 
                CA:FALSE
            Netscape Comment: 
                Easy-RSA Generated Certificate
            X509v3 Subject Key Identifier: 
                68:BF:B3:B3:B4:66:E6:83:AB:5C:80:CA:C0:89:50:4D:24:7F:26:DA
            X509v3 Authority Key Identifier: 
                keyid:12:CD:60:04:D2:A0:80:9E:70:ED:C6:99:B8:7B:2C:C6:52:FD:19:A1
                DirName:/C=US/ST=OH/L=Columbus/O=VikingVPN/OU=MyOrganizationalUnit/CN=VikingVPN CA/name=EasyRSA/emailAddress=me@myhost.mydomain
                serial:CF:35:85:EE:80:BF:2A:3E

            X509v3 Extended Key Usage: 
                TLS Web Client Authentication
            X509v3 Key Usage: 
                Digital Signature
    Signature Algorithm: md5WithRSAEncryption
         9a:54:95:21:65:c5:79:49:24:f3:81:67:1d:b0:f7:45:c7:2a:
         f2:b8:6e:7e:21:3d:60:a5:51:c3:bc:f4:99:48:32:a9:d0:c5:
         c2:96:8b:46:2b:05:a8:8a:af:18:b3:d1:9c:e1:3c:b6:69:63:
         af:e8:ac:48:28:9f:4c:3e:e3:10:68:c0:dc:67:bd:35:dc:ea:
         84:99:81:1d:15:68:d7:30:65:f9:18:44:d6:d6:9c:50:91:7a:
         de:a3:f8:2e:73:45:c8:6e:db:52:d0:95:2b:2c:5e:5b:de:ce:
         14:11:9a:de:01:40:66:97:4a:2c:ad:c6:ba:37:42:02:65:0f:
         22:e5:63:3b:31:a3:a2:02:08:76:6a:f8:07:01:c2:53:6a:f6:
         1a:44:0c:51:b7:0f:d8:a0:ab:13:12:bf:23:50:16:d4:f1:7d:
         5e:4e:3d:b8:d3:1e:14:fe:dd:d9:c3:c5:f4:41:10:04:bf:e2:
         5b:1b:2c:3d:b2:c7:bf:54:a0:00:a4:0e:5d:42:47:bf:b4:b5:
         d7:38:4f:24:cf:c6:4b:11:eb:9c:bf:6d:5e:c6:f2:97:cd:68:
         d0:43:b1:0c:f3:51:49:b7:0f:68:a5:c4:0c:1d:a4:cd:15:13:
         d3:85:05:9f:9a:5a:fb:c0:a7:8c:65:66:cf:b7:ff:95:fb:0e:
         c7:f2:0b:ed:4d:bb:6c:f9:ca:c2:47:68:d1:69:89:31:4d:88:
         e8:0a:a0:a6:f4:68:7a:54:11:b4:b3:e9:6b:2f:7b:ec:ad:26:
         e4:94:fe:e8:79:34:dc:1e:cd:92:2a:3f:03:7e:5c:bb:ed:6b:
         88:91:dd:ea:62:72:3f:0a:d9:a6:3f:33:11:8d:66:6e:e2:7d:
         72:9c:5c:f8:9a:07:9d:10:82:d1:e1:c4:55:24:f7:e2:d0:14:
         e4:9f:98:37:03:e2:97:6b:87:bb:e2:63:ae:a6:38:d7:27:9c:
         26:11:09:3b:c3:42:e3:6a:a9:62:bc:1c:3f:aa:4d:96:7a:6c:
         70:81:f1:94:e4:df:8e:af:76:86:fc:bb:2b:eb:3a:06:dc:68:
         53:5f:89:a1:a0:f9:14:9d:46:80:ed:05:d3:5e:7e:9f:fc:13:
         36:77:ed:e9:94:00:47:14:48:b8:f5:7d:fc:d3:44:5e:bf:fa:
         fe:48:fb:69:86:ab:d3:5c:eb:5e:f5:5d:ee:a4:14:72:c4:f9:
         60:bb:32:e2:b5:ff:14:8e:72:d2:f6:45:0b:f5:6a:bd:e1:da:
         b7:0b:c8:76:07:f7:5a:c3:67:85:35:16:cc:98:69:8b:b8:80:
         ff:72:23:cc:89:57:5e:3d:95:e8:99:0a:6b:bf:a1:8d:82:6f:
         d9:e7:e3:dd:1f:68:6e:a3
-----BEGIN CERTIFICATE-----
MIIGrDCCBJSgAwIBAgICD44wDQYJKoZIhvcNAQEEBQAwgawxCzAJBgNVBAYTAlVT
MQswCQYDVQQIEwJPSDERMA8GA1UEBxMIQ29sdW1idXMxEjAQBgNVBAoTCVZpa2lu
Z1ZQTjEdMBsGA1UECxMUTXlPcmdhbml6YXRpb25hbFVuaXQxFTATBgNVBAMTDFZp
a2luZ1ZQTiBDQTEQMA4GA1UEKRMHRWFzeVJTQTEhMB8GCSqGSIb3DQEJARYSbWVA
bXlob3N0Lm15ZG9tYWluMB4XDTE1MDEwMzAwMjAxMFoXDTI0MTIzMTAwMjAxMFow
HjEcMBoGA1UEAxMTQ2xpZW50ODU4Q2VydDNlNzQ2ZjCCAiIwDQYJKoZIhvcNAQEB
BQADggIPADCCAgoCggIBAKRxXdnNsnIM17fDuTlMfw5Ep8FUtIWF0EayxZeCHqYe
4QtCNS1CghBnbM6qXAoTyU8Nir/AVL6OK7+qUItBuiENfVvGtrD4/g+RuZxWmLN2
2dOfJuWq6wesgNJELEMKUcGm99RyXKGVvR7uGzncS5/o5bG1qSI7T4cJm1wwsTJ2
8A87Q4gSen0vi85d32JF3+ZgsmspO9DuNsQiUsH6TSNjrTb3ZQEwWQG+7ZSqsVse
l7qmEvVPgf++EzMtbrCojPnLaO3gF5BhOh9m045+SVoQh4/OnT1l36qbyZ19Mfyg
RazroX3nFbEC4tjBoY5NN/EM6JHebhQe9bDJKEcSBj948mmiGPpKYEg4YNjqlh5R
EreJmwAwPZA4YC2S/b3m+vB7/rM/kJfO5fDCas0Sm31gJhlvYL6gRObm+++YjSY3
OIztoL5bkiVTUzj6xKcZHk5lAS2/kywXS9CVY0M41dwTNKTqAnDwZXNfi9KA9LDy
GAt7Ik/PyeN3nQn3a5c1LcMu7JUEtQltySuV3oil8OWCDjbSkkc1rJdT3snfw03l
PN+vtzVuggNSZAI4fvyZmCbGmWap1iUMsUNpvORwmsNkPzFL3NoKSTmzNrbOPwY8
WDgLDpj52QO/T/+VBL2zCjsqrCXiEh9cJ7l41Mm/ANPDpMXxv57THDAXVEznJovR
AgMBAAGjggFjMIIBXzAJBgNVHRMEAjAAMC0GCWCGSAGG+EIBDQQgFh5FYXN5LVJT
QSBHZW5lcmF0ZWQgQ2VydGlmaWNhdGUwHQYDVR0OBBYEFGi/s7O0ZuaDq1yAysCJ
UE0kfybaMIHhBgNVHSMEgdkwgdaAFBLNYATSoICecO3Gmbh7LMZS/RmhoYGypIGv
MIGsMQswCQYDVQQGEwJVUzELMAkGA1UECBMCT0gxETAPBgNVBAcTCENvbHVtYnVz
MRIwEAYDVQQKEwlWaWtpbmdWUE4xHTAbBgNVBAsTFE15T3JnYW5pemF0aW9uYWxV
bml0MRUwEwYDVQQDEwxWaWtpbmdWUE4gQ0ExEDAOBgNVBCkTB0Vhc3lSU0ExITAf
BgkqhkiG9w0BCQEWEm1lQG15aG9zdC5teWRvbWFpboIJAM81he6Avyo+MBMGA1Ud
JQQMMAoGCCsGAQUFBwMCMAsGA1UdDwQEAwIHgDANBgkqhkiG9w0BAQQFAAOCAgEA
mlSVIWXFeUkk84FnHbD3Rccq8rhufiE9YKVRw7z0mUgyqdDFwpaLRisFqIqvGLPR
nOE8tmljr+isSCifTD7jEGjA3Ge9NdzqhJmBHRVo1zBl+RhE1tacUJF63qP4LnNF
yG7bUtCVKyxeW97OFBGa3gFAZpdKLK3GujdCAmUPIuVjOzGjogIIdmr4BwHCU2r2
GkQMUbcP2KCrExK/I1AW1PF9Xk49uNMeFP7d2cPF9EEQBL/iWxssPbLHv1SgAKQO
XUJHv7S11zhPJM/GSxHrnL9tXsbyl81o0EOxDPNRSbcPaKXEDB2kzRUT04UFn5pa
+8CnjGVmz7f/lfsOx/IL7U27bPnKwkdo0WmJMU2I6AqgpvRoelQRtLPpay977K0m
5JT+6Hk03B7Nkio/A35cu+1riJHd6mJyPwrZpj8zEY1mbuJ9cpxc+JoHnRCC0eHE
VST34tAU5J+YNwPil2uHu+JjrqY41yecJhEJO8NC42qpYrwcP6pNlnpscIHxlOTf
jq92hvy7K+s6BtxoU1+JoaD5FJ1GgO0F015+n/wTNnft6ZQARxRIuPV9/NNEXr/6
/kj7aYar01zrXvVd7qQUcsT5YLsy4rX/FI5y0vZFC/VqveHatwvIdgf3WsNnhTUW
zJhpi7iA/3IjzIlXXj2V6JkKa7+hjYJv2efj3R9obqM=
-----END CERTIFICATE-----
