Certificate:
    Data:
        Version: 3 (0x2)
        Serial Number: 9927 (0x26c7)
    Signature Algorithm: sha256WithRSAEncryption
        Issuer: C=US, ST=OH, L=Columbus, O=VikingVPN, OU=MyOrganizationalUnit, CN=VikingVPN CA/name=EasyRSA/emailAddress=me@myhost.mydomain
        Validity
            Not Before: Jan 17 05:11:46 2017 GMT
            Not After : Jan 15 05:11:46 2027 GMT
        Subject: CN=Client2067Certeb7f81
        Subject Public Key Info:
            Public Key Algorithm: rsaEncryption
                Public-Key: (4096 bit)
                Modulus:
                    00:c2:1f:d9:30:d5:eb:13:e2:60:c2:fb:1b:c5:85:
                    c1:b5:c2:91:17:d9:55:69:78:e5:af:30:5b:dd:ee:
                    4f:d0:e3:f6:25:35:00:de:78:3b:b0:86:39:20:97:
                    2a:0a:1c:1d:c7:85:fb:f1:82:df:a7:05:00:e8:8f:
                    8f:3b:6a:8e:d0:f3:79:56:d9:15:61:58:44:bd:1d:
                    f0:27:40:e3:ce:1e:82:90:28:15:8f:9f:5c:07:43:
                    ae:af:72:f8:f7:4c:55:ee:bc:0e:50:65:e5:42:40:
                    65:2f:92:d5:4f:9a:ac:8c:08:05:a8:d4:92:f0:c6:
                    51:51:bd:e7:86:e6:76:0b:b4:cf:ba:12:dc:a9:d9:
                    59:d4:9f:99:da:eb:b7:8d:22:4b:8e:45:6a:87:60:
                    23:21:cb:c3:64:5e:d9:ae:66:5a:af:6f:72:55:6a:
                    e7:02:51:d2:bf:29:a0:0b:86:de:7a:19:e7:f6:8a:
                    a4:15:4c:11:51:c8:46:c0:f1:c1:80:90:71:de:fe:
                    5a:72:08:f6:3e:d4:05:e3:36:61:ed:06:bc:f5:31:
                    9f:95:d7:95:0d:22:25:33:5b:10:96:e3:fb:d4:9e:
                    47:91:d3:60:85:a6:a4:bd:a7:0d:47:ea:b1:fb:48:
                    11:5d:3c:e5:76:b2:5b:8a:15:94:59:c7:03:63:49:
                    5e:f3:56:80:c6:c1:c7:59:ef:c2:a3:7e:18:a0:96:
                    22:c3:71:e7:86:91:93:15:ff:07:34:53:e6:df:e7:
                    59:04:3e:a6:3f:24:34:d9:11:91:e6:ee:5b:f5:e9:
                    df:6a:54:84:80:63:31:ae:91:85:89:bd:a6:8f:d9:
                    27:ee:82:c1:56:56:6e:80:6e:8c:ac:74:7d:40:93:
                    55:4d:7c:e8:3d:36:69:33:8c:55:b6:a5:16:16:1d:
                    39:be:4c:89:01:50:cf:93:0a:e9:c5:c1:41:fd:f0:
                    7f:5f:76:92:58:1a:a6:13:c1:b3:da:69:25:69:08:
                    16:11:a6:8a:09:5d:ad:34:e0:dd:aa:76:a0:96:da:
                    44:7b:8e:e4:de:7e:83:07:fe:da:6e:d4:46:c8:b9:
                    4a:c2:ec:6a:67:e1:0a:90:18:86:7e:8a:09:ac:3a:
                    35:0c:72:b6:bb:27:1e:4d:ea:3c:10:86:53:09:63:
                    2c:fb:b3:e2:ab:7a:82:37:c8:e4:e1:91:78:25:b0:
                    07:67:87:97:13:e1:b8:11:59:81:78:b9:12:72:ec:
                    57:91:ce:eb:65:01:fb:bb:33:e1:aa:8d:a2:06:e6:
                    96:b6:51:d6:9a:44:10:90:55:e1:6e:a8:33:21:fa:
                    54:ad:8f:4a:4f:b1:92:7d:74:74:28:a2:eb:b0:e6:
                    b8:97:39
                Exponent: 65537 (0x10001)
        X509v3 extensions:
            X509v3 Basic Constraints: 
                CA:FALSE
            Netscape Comment: 
                Easy-RSA Generated Certificate
            X509v3 Subject Key Identifier: 
                43:FD:CF:29:F3:0A:FE:EA:3E:5E:3E:28:36:42:2C:3D:2D:B9:80:A4
            X509v3 Authority Key Identifier: 
                keyid:12:CD:60:04:D2:A0:80:9E:70:ED:C6:99:B8:7B:2C:C6:52:FD:19:A1
                DirName:/C=US/ST=OH/L=Columbus/O=VikingVPN/OU=MyOrganizationalUnit/CN=VikingVPN CA/name=EasyRSA/emailAddress=me@myhost.mydomain
                serial:CF:35:85:EE:80:BF:2A:3E

            X509v3 Extended Key Usage: 
                TLS Web Client Authentication
            X509v3 Key Usage: 
                Digital Signature
    Signature Algorithm: sha256WithRSAEncryption
         28:aa:e0:a2:f5:b3:5e:65:6d:a1:a0:85:cb:ba:dd:c7:a0:5b:
         4a:d8:0f:9a:bd:d5:18:97:29:fb:8d:83:8d:76:e8:b3:25:a1:
         81:12:f8:94:26:72:9d:5d:85:55:d5:aa:1c:0c:5e:d2:ae:53:
         ea:b4:33:7c:13:1d:5d:5c:4c:30:1c:56:92:85:d4:b1:01:a6:
         b7:ec:01:3b:41:39:c1:c3:ee:aa:29:63:1a:fa:2d:fd:f3:69:
         90:7d:06:8b:a6:24:4b:9d:1d:19:03:9c:72:a4:54:67:4f:70:
         c7:84:7d:48:f2:0e:5a:a1:56:fc:cb:0c:4e:68:92:55:a6:17:
         4a:f9:b2:ea:c7:75:3b:7f:20:48:a4:d0:ba:a4:bc:25:66:35:
         02:a8:17:f4:ea:8f:10:dd:69:58:45:8c:06:20:99:8d:48:ad:
         fa:0d:78:35:4a:b2:00:6b:fa:b7:67:9c:1b:e2:e8:ec:ce:81:
         9b:45:bf:2a:7a:5c:9c:4e:1f:15:5b:f9:12:11:be:2d:e6:b7:
         e8:3a:64:07:39:b6:74:4f:92:e5:6d:d1:97:a4:61:b9:df:a0:
         6f:ea:70:4a:80:04:08:c1:5d:f9:fe:2b:f1:63:7b:d8:b3:ec:
         16:d0:b8:06:78:90:73:e3:db:f9:f4:dc:e1:8d:ab:74:10:3f:
         2f:44:45:e7:e3:d8:36:75:0c:3f:d9:37:f8:0a:b9:4e:0a:ca:
         98:57:92:90:c5:63:b4:4d:31:81:56:e5:58:6a:1a:02:57:c1:
         84:29:1c:81:d2:7b:d1:f9:72:64:ff:ac:60:32:61:15:50:33:
         07:1b:f7:04:f9:07:71:1a:57:0e:f1:ef:f6:bd:33:e5:90:e8:
         c9:d8:4c:d7:ee:05:8f:e2:90:0f:3e:d1:3a:f8:cf:37:85:a0:
         0d:23:89:c6:c1:e9:5c:ee:8b:49:a1:65:74:2f:eb:ac:2a:d7:
         af:88:5d:55:4d:89:12:55:df:e2:00:74:95:7f:d8:88:3b:5f:
         ba:10:d4:bb:90:e3:4f:2a:28:4f:83:f6:50:07:94:58:cc:54:
         c6:6b:c5:2d:86:e0:7c:5d:5d:6e:6f:3c:c6:ec:b9:fd:7a:4c:
         73:a0:e6:71:a1:91:b7:d9:f6:38:7a:28:e0:97:c0:d2:08:5e:
         d3:fa:ac:6b:6a:61:f7:f9:4b:26:ef:7c:86:53:ba:97:31:68:
         6d:9b:f4:6c:fe:da:d2:2b:e7:50:4c:83:88:a3:e9:bc:97:89:
         17:06:db:f8:1b:ee:6d:7e:e0:51:73:e8:5f:8e:f2:7c:bc:93:
         be:3a:bc:cf:94:69:89:ee:4e:c7:4c:fe:1f:87:f3:38:a2:03:
         4d:50:e0:15:38:77:56:d5
-----BEGIN CERTIFICATE-----
MIIGrTCCBJWgAwIBAgICJscwDQYJKoZIhvcNAQELBQAwgawxCzAJBgNVBAYTAlVT
MQswCQYDVQQIEwJPSDERMA8GA1UEBxMIQ29sdW1idXMxEjAQBgNVBAoTCVZpa2lu
Z1ZQTjEdMBsGA1UECxMUTXlPcmdhbml6YXRpb25hbFVuaXQxFTATBgNVBAMTDFZp
a2luZ1ZQTiBDQTEQMA4GA1UEKRMHRWFzeVJTQTEhMB8GCSqGSIb3DQEJARYSbWVA
bXlob3N0Lm15ZG9tYWluMB4XDTE3MDExNzA1MTE0NloXDTI3MDExNTA1MTE0Nlow
HzEdMBsGA1UEAxMUQ2xpZW50MjA2N0NlcnRlYjdmODEwggIiMA0GCSqGSIb3DQEB
AQUAA4ICDwAwggIKAoICAQDCH9kw1esT4mDC+xvFhcG1wpEX2VVpeOWvMFvd7k/Q
4/YlNQDeeDuwhjkglyoKHB3Hhfvxgt+nBQDoj487ao7Q83lW2RVhWES9HfAnQOPO
HoKQKBWPn1wHQ66vcvj3TFXuvA5QZeVCQGUvktVPmqyMCAWo1JLwxlFRveeG5nYL
tM+6Etyp2VnUn5na67eNIkuORWqHYCMhy8NkXtmuZlqvb3JVaucCUdK/KaALht56
Gef2iqQVTBFRyEbA8cGAkHHe/lpyCPY+1AXjNmHtBrz1MZ+V15UNIiUzWxCW4/vU
nkeR02CFpqS9pw1H6rH7SBFdPOV2sluKFZRZxwNjSV7zVoDGwcdZ78KjfhigliLD
ceeGkZMV/wc0U+bf51kEPqY/JDTZEZHm7lv16d9qVISAYzGukYWJvaaP2SfugsFW
Vm6AboysdH1Ak1VNfOg9NmkzjFW2pRYWHTm+TIkBUM+TCunFwUH98H9fdpJYGqYT
wbPaaSVpCBYRpooJXa004N2qdqCW2kR7juTefoMH/tpu1EbIuUrC7Gpn4QqQGIZ+
igmsOjUMcra7Jx5N6jwQhlMJYyz7s+KreoI3yOThkXglsAdnh5cT4bgRWYF4uRJy
7FeRzutlAfu7M+GqjaIG5pa2UdaaRBCQVeFuqDMh+lStj0pPsZJ9dHQoouuw5riX
OQIDAQABo4IBYzCCAV8wCQYDVR0TBAIwADAtBglghkgBhvhCAQ0EIBYeRWFzeS1S
U0EgR2VuZXJhdGVkIENlcnRpZmljYXRlMB0GA1UdDgQWBBRD/c8p8wr+6j5ePig2
Qiw9LbmApDCB4QYDVR0jBIHZMIHWgBQSzWAE0qCAnnDtxpm4eyzGUv0ZoaGBsqSB
rzCBrDELMAkGA1UEBhMCVVMxCzAJBgNVBAgTAk9IMREwDwYDVQQHEwhDb2x1bWJ1
czESMBAGA1UEChMJVmlraW5nVlBOMR0wGwYDVQQLExRNeU9yZ2FuaXphdGlvbmFs
VW5pdDEVMBMGA1UEAxMMVmlraW5nVlBOIENBMRAwDgYDVQQpEwdFYXN5UlNBMSEw
HwYJKoZIhvcNAQkBFhJtZUBteWhvc3QubXlkb21haW6CCQDPNYXugL8qPjATBgNV
HSUEDDAKBggrBgEFBQcDAjALBgNVHQ8EBAMCB4AwDQYJKoZIhvcNAQELBQADggIB
ACiq4KL1s15lbaGghcu63cegW0rYD5q91RiXKfuNg4126LMloYES+JQmcp1dhVXV
qhwMXtKuU+q0M3wTHV1cTDAcVpKF1LEBprfsATtBOcHD7qopYxr6Lf3zaZB9Boum
JEudHRkDnHKkVGdPcMeEfUjyDlqhVvzLDE5oklWmF0r5surHdTt/IEik0LqkvCVm
NQKoF/TqjxDdaVhFjAYgmY1IrfoNeDVKsgBr+rdnnBvi6OzOgZtFvyp6XJxOHxVb
+RIRvi3mt+g6ZAc5tnRPkuVt0ZekYbnfoG/qcEqABAjBXfn+K/Fje9iz7BbQuAZ4
kHPj2/n03OGNq3QQPy9ERefj2DZ1DD/ZN/gKuU4KyphXkpDFY7RNMYFW5VhqGgJX
wYQpHIHSe9H5cmT/rGAyYRVQMwcb9wT5B3EaVw7x7/a9M+WQ6MnYTNfuBY/ikA8+
0Tr4zzeFoA0jicbB6Vzui0mhZXQv66wq16+IXVVNiRJV3+IAdJV/2Ig7X7oQ1LuQ
408qKE+D9lAHlFjMVMZrxS2G4HxdXW5vPMbsuf16THOg5nGhkbfZ9jh6KOCXwNII
XtP6rGtqYff5SybvfIZTupcxaG2b9Gz+2tIr51BMg4ij6byXiRcG2/gb7m1+4FFz
6F+O8ny8k746vM+UaYnuTsdM/h+H8ziiA01Q4BU4d1bV
-----END CERTIFICATE-----
