Certificate:
    Data:
        Version: 3 (0x2)
        Serial Number: 7373 (0x1ccd)
    Signature Algorithm: md5WithRSAEncryption
        Issuer: C=US, ST=OH, L=Columbus, O=VikingVPN, OU=MyOrganizationalUnit, CN=VikingVPN CA/name=EasyRSA/emailAddress=me@myhost.mydomain
        Validity
            Not Before: Mar  1 23:16:28 2016 GMT
            Not After : Feb 27 23:16:28 2026 GMT
        Subject: CN=Client2200Cert8b0801
        Subject Public Key Info:
            Public Key Algorithm: rsaEncryption
                Public-Key: (4096 bit)
                Modulus:
                    00:c7:36:b5:fc:5e:5a:b6:84:77:c1:4c:05:14:f3:
                    27:6e:d7:0f:a8:bc:2a:22:ff:80:1a:ac:7b:33:62:
                    47:7e:44:4a:5e:87:6c:1a:e9:41:2b:73:ac:59:79:
                    03:97:57:32:8f:f4:38:d2:c1:22:96:aa:f7:ce:02:
                    b4:1b:ad:3b:dd:11:1b:f7:8b:0d:1c:58:ad:03:23:
                    cd:11:59:a5:be:d1:af:bb:a5:77:a0:e3:e7:2a:2d:
                    5d:23:a7:f2:0c:a5:bb:2a:0c:f4:e2:36:0a:0e:d8:
                    1a:e8:8b:b7:2a:1b:30:80:f9:eb:9b:ef:91:91:84:
                    8f:0e:bb:90:5b:b3:0d:d2:a9:e7:64:3a:1d:e1:16:
                    61:1f:0f:fc:38:46:13:41:f4:69:b3:fd:07:4e:ac:
                    d9:98:7f:fe:37:fa:8e:c8:c1:5d:bd:79:39:0e:97:
                    3d:b1:15:96:94:79:27:c0:12:37:fc:f9:e7:af:94:
                    9f:da:5e:07:83:b6:b9:d6:fb:e7:3f:12:9e:59:e8:
                    2c:49:13:c5:6d:a4:d6:f1:68:46:30:d7:7b:5f:0b:
                    b8:cb:1c:83:58:58:c1:b3:01:1e:8a:91:ce:00:e0:
                    06:a4:76:53:f8:6f:0a:af:55:61:0f:37:48:d5:ae:
                    fc:b6:2c:9e:8d:58:3e:b2:a4:e3:81:e1:2d:78:f8:
                    69:a6:69:40:72:e1:33:43:8d:3d:af:49:09:ba:f0:
                    dc:bf:a2:4f:52:d6:5c:cc:9d:5c:16:e1:2e:fa:4b:
                    aa:a9:4a:b1:61:cf:a9:f5:86:b7:17:72:00:bd:2c:
                    33:fe:37:34:71:3c:a3:cd:ee:30:56:c7:0d:9f:79:
                    6d:3a:b9:f7:32:aa:19:f0:c9:db:f1:95:49:9c:dd:
                    fe:e9:f5:01:14:e2:21:40:b6:cd:da:3a:2c:d4:df:
                    dd:98:87:70:6a:e5:51:0f:39:2b:f4:c6:4b:d9:b2:
                    dd:5b:f2:c3:47:cc:d0:46:18:93:ec:c3:bd:f1:ee:
                    32:56:58:d3:c1:30:a2:81:5e:7b:fd:94:5d:0e:b1:
                    66:18:79:31:70:f7:86:37:2d:ba:cf:35:1b:89:d9:
                    4c:e1:84:72:95:01:96:f5:ff:30:56:ff:d5:17:50:
                    4c:ba:af:64:8d:2a:ff:9d:62:9b:a6:1c:cc:36:b9:
                    f0:7d:6b:1d:6b:4d:7f:99:88:7f:69:ce:3a:fc:db:
                    8e:6b:ad:d2:87:e5:ff:26:05:ce:49:6a:ff:de:95:
                    83:1f:94:88:6b:08:fa:31:39:e5:19:80:02:3e:e2:
                    e2:57:91:d5:a5:1a:c3:99:93:a4:13:28:2d:b8:a2:
                    35:45:39:a3:b5:ad:51:cf:be:26:05:3f:34:7f:50:
                    e8:f4:77
                Exponent: 65537 (0x10001)
        X509v3 extensions:
            X509v3 Basic Constraints: 
                CA:FALSE
            Netscape Comment: 
                Easy-RSA Generated Certificate
            X509v3 Subject Key Identifier: 
                CC:31:0D:19:79:8E:C1:5F:F8:E2:B1:B4:FA:86:2F:89:51:FD:28:6C
            X509v3 Authority Key Identifier: 
                keyid:12:CD:60:04:D2:A0:80:9E:70:ED:C6:99:B8:7B:2C:C6:52:FD:19:A1
                DirName:/C=US/ST=OH/L=Columbus/O=VikingVPN/OU=MyOrganizationalUnit/CN=VikingVPN CA/name=EasyRSA/emailAddress=me@myhost.mydomain
                serial:CF:35:85:EE:80:BF:2A:3E

            X509v3 Extended Key Usage: 
                TLS Web Client Authentication
            X509v3 Key Usage: 
                Digital Signature
    Signature Algorithm: md5WithRSAEncryption
         dd:c3:1e:d9:3d:fb:51:8c:32:6f:cd:9a:b9:35:9c:aa:9a:29:
         b3:0f:79:e0:49:b3:fb:27:cf:9c:fa:a0:9b:2b:c0:bc:46:7a:
         9a:3f:6b:ea:1e:1a:7b:f2:27:29:12:45:45:71:40:86:95:a2:
         77:0a:c9:37:d6:5c:2e:a4:90:94:af:d5:08:75:a2:56:55:58:
         75:3f:92:9b:35:9a:4a:0f:8a:98:a4:36:2e:2b:5a:2c:b3:c1:
         8c:c1:e7:69:2a:f5:4f:57:4c:78:12:42:84:ee:ae:85:87:51:
         73:f3:b0:5e:33:10:69:72:70:08:78:bc:54:bb:71:a9:68:7e:
         0a:03:43:be:20:aa:e4:fa:53:bd:79:4f:89:4f:b5:1b:5a:63:
         3b:2d:1f:41:52:0f:8c:a6:ab:ef:54:8f:b7:5d:21:58:ce:36:
         81:a3:8e:53:aa:22:fd:5f:3c:6b:e9:b4:ba:0e:17:f6:76:60:
         1a:08:6b:bc:c3:77:01:5a:a9:b5:b4:d3:33:3f:e4:b8:d2:39:
         65:d5:38:e8:e2:ce:c7:88:5a:7d:9e:3e:14:a5:11:4c:f0:46:
         f7:42:c1:5c:e1:a5:2e:5a:ff:4d:05:74:04:7f:ef:59:85:48:
         d4:ff:df:b7:95:3c:49:28:75:fd:9e:cf:b9:59:31:34:cd:11:
         e8:89:dd:00:3f:c8:25:89:83:14:98:97:dd:59:5f:6b:c9:55:
         a7:2d:a0:d9:d4:49:53:eb:b6:e6:d0:44:33:ef:23:f4:17:0e:
         30:cf:8d:73:95:96:80:cc:e1:a1:77:f4:8b:c8:83:18:70:52:
         0b:d5:c9:77:3e:f8:f6:93:b2:d0:45:aa:21:ea:cf:56:db:51:
         ee:26:49:85:a7:af:c9:d9:58:0d:32:64:12:f8:bc:18:b3:71:
         89:5f:d7:92:bf:d7:dd:a5:23:61:d4:4e:0c:b4:9f:40:c6:20:
         ee:71:78:55:5d:6d:62:6b:c5:a5:0a:9a:f1:55:11:f0:55:49:
         4e:7e:8d:57:43:53:73:6a:ca:25:cd:c8:91:37:76:5c:a0:83:
         6a:62:13:f1:a2:b3:33:be:15:28:fd:f7:47:03:fb:54:db:09:
         64:3e:2e:bd:29:1d:3e:eb:35:af:3e:49:8d:61:9b:88:21:7a:
         37:7a:bb:39:99:7d:8b:a9:1d:3a:44:94:c5:44:6d:d7:9e:92:
         1f:9c:26:99:c3:aa:4f:19:e3:0d:c3:2d:89:6d:db:63:de:08:
         fb:5a:93:06:e1:fe:42:b6:e5:d3:e1:9a:8a:7b:19:b1:93:d7:
         da:dc:7e:a7:2e:d6:77:67:75:64:27:3d:01:36:28:59:6e:b2:
         ef:f4:58:9b:10:ce:7b:dd
-----BEGIN CERTIFICATE-----
MIIGrTCCBJWgAwIBAgICHM0wDQYJKoZIhvcNAQEEBQAwgawxCzAJBgNVBAYTAlVT
MQswCQYDVQQIEwJPSDERMA8GA1UEBxMIQ29sdW1idXMxEjAQBgNVBAoTCVZpa2lu
Z1ZQTjEdMBsGA1UECxMUTXlPcmdhbml6YXRpb25hbFVuaXQxFTATBgNVBAMTDFZp
a2luZ1ZQTiBDQTEQMA4GA1UEKRMHRWFzeVJTQTEhMB8GCSqGSIb3DQEJARYSbWVA
bXlob3N0Lm15ZG9tYWluMB4XDTE2MDMwMTIzMTYyOFoXDTI2MDIyNzIzMTYyOFow
HzEdMBsGA1UEAxMUQ2xpZW50MjIwMENlcnQ4YjA4MDEwggIiMA0GCSqGSIb3DQEB
AQUAA4ICDwAwggIKAoICAQDHNrX8Xlq2hHfBTAUU8ydu1w+ovCoi/4AarHszYkd+
REpeh2wa6UErc6xZeQOXVzKP9DjSwSKWqvfOArQbrTvdERv3iw0cWK0DI80RWaW+
0a+7pXeg4+cqLV0jp/IMpbsqDPTiNgoO2Broi7cqGzCA+eub75GRhI8Ou5Bbsw3S
qedkOh3hFmEfD/w4RhNB9Gmz/QdOrNmYf/43+o7IwV29eTkOlz2xFZaUeSfAEjf8
+eevlJ/aXgeDtrnW++c/Ep5Z6CxJE8VtpNbxaEYw13tfC7jLHINYWMGzAR6Kkc4A
4AakdlP4bwqvVWEPN0jVrvy2LJ6NWD6ypOOB4S14+GmmaUBy4TNDjT2vSQm68Ny/
ok9S1lzMnVwW4S76S6qpSrFhz6n1hrcXcgC9LDP+NzRxPKPN7jBWxw2feW06ufcy
qhnwydvxlUmc3f7p9QEU4iFAts3aOizU392Yh3Bq5VEPOSv0xkvZst1b8sNHzNBG
GJPsw73x7jJWWNPBMKKBXnv9lF0OsWYYeTFw94Y3LbrPNRuJ2UzhhHKVAZb1/zBW
/9UXUEy6r2SNKv+dYpumHMw2ufB9ax1rTX+ZiH9pzjr8245rrdKH5f8mBc5Jav/e
lYMflIhrCPoxOeUZgAI+4uJXkdWlGsOZk6QTKC24ojVFOaO1rVHPviYFPzR/UOj0
dwIDAQABo4IBYzCCAV8wCQYDVR0TBAIwADAtBglghkgBhvhCAQ0EIBYeRWFzeS1S
U0EgR2VuZXJhdGVkIENlcnRpZmljYXRlMB0GA1UdDgQWBBTMMQ0ZeY7BX/jisbT6
hi+JUf0obDCB4QYDVR0jBIHZMIHWgBQSzWAE0qCAnnDtxpm4eyzGUv0ZoaGBsqSB
rzCBrDELMAkGA1UEBhMCVVMxCzAJBgNVBAgTAk9IMREwDwYDVQQHEwhDb2x1bWJ1
czESMBAGA1UEChMJVmlraW5nVlBOMR0wGwYDVQQLExRNeU9yZ2FuaXphdGlvbmFs
VW5pdDEVMBMGA1UEAxMMVmlraW5nVlBOIENBMRAwDgYDVQQpEwdFYXN5UlNBMSEw
HwYJKoZIhvcNAQkBFhJtZUBteWhvc3QubXlkb21haW6CCQDPNYXugL8qPjATBgNV
HSUEDDAKBggrBgEFBQcDAjALBgNVHQ8EBAMCB4AwDQYJKoZIhvcNAQEEBQADggIB
AN3DHtk9+1GMMm/Nmrk1nKqaKbMPeeBJs/snz5z6oJsrwLxGepo/a+oeGnvyJykS
RUVxQIaVoncKyTfWXC6kkJSv1Qh1olZVWHU/kps1mkoPipikNi4rWiyzwYzB52kq
9U9XTHgSQoTuroWHUXPzsF4zEGlycAh4vFS7calofgoDQ74gquT6U715T4lPtRta
YzstH0FSD4ymq+9Uj7ddIVjONoGjjlOqIv1fPGvptLoOF/Z2YBoIa7zDdwFaqbW0
0zM/5LjSOWXVOOjizseIWn2ePhSlEUzwRvdCwVzhpS5a/00FdAR/71mFSNT/37eV
PEkodf2ez7lZMTTNEeiJ3QA/yCWJgxSYl91ZX2vJVactoNnUSVPrtubQRDPvI/QX
DjDPjXOVloDM4aF39IvIgxhwUgvVyXc++PaTstBFqiHqz1bbUe4mSYWnr8nZWA0y
ZBL4vBizcYlf15K/192lI2HUTgy0n0DGIO5xeFVdbWJrxaUKmvFVEfBVSU5+jVdD
U3NqyiXNyJE3dlygg2piE/GiszO+FSj990cD+1TbCWQ+Lr0pHT7rNa8+SY1hm4gh
ejd6uzmZfYupHTpElMVEbdeekh+cJpnDqk8Z4w3DLYlt22PeCPtakwbh/kK25dPh
mop7GbGT19rcfqcu1ndndWQnPQE2KFlusu/0WJsQznvd
-----END CERTIFICATE-----
