Certificate:
    Data:
        Version: 3 (0x2)
        Serial Number: 6116 (0x17e4)
    Signature Algorithm: md5WithRSAEncryption
        Issuer: C=US, ST=OH, L=Columbus, O=VikingVPN, OU=MyOrganizationalUnit, CN=VikingVPN CA/name=EasyRSA/emailAddress=me@myhost.mydomain
        Validity
            Not Before: Aug 22 15:00:59 2015 GMT
            Not After : Aug 19 15:00:59 2025 GMT
        Subject: CN=Client1139Certc58f0c
        Subject Public Key Info:
            Public Key Algorithm: rsaEncryption
                Public-Key: (4096 bit)
                Modulus:
                    00:cb:d2:e5:95:5b:90:7b:4b:42:e8:36:39:43:88:
                    46:36:04:78:0d:1c:ed:50:63:c2:84:b4:28:66:45:
                    02:5e:10:11:e3:7a:d7:6e:0f:c2:4d:38:48:19:8a:
                    59:3d:73:a5:79:d5:8c:c4:17:f3:f1:85:3d:59:07:
                    43:3f:2f:1e:ec:38:cd:59:6c:4b:fd:01:ed:fb:3a:
                    c4:a8:b6:cf:3c:97:42:a9:cd:2f:e0:4f:f3:38:04:
                    10:4a:1f:4d:a8:a6:e9:81:d4:3a:b7:7a:c9:01:22:
                    16:34:5d:06:a8:bd:9c:f7:d6:83:ab:5a:15:5e:05:
                    46:cc:d5:18:35:a8:b5:e3:0f:8b:5a:37:9a:89:59:
                    d0:5c:ed:f4:e2:8f:b7:09:1f:17:33:87:37:81:40:
                    66:8c:96:cf:31:5b:d1:e2:5f:d9:10:35:da:6e:a8:
                    cf:fe:24:3d:31:17:d6:cc:50:38:8e:8c:e5:c3:a3:
                    d8:94:79:f8:f9:f4:71:37:78:0b:c3:39:2f:d4:2e:
                    78:b3:8b:4f:0e:c9:ff:20:e7:70:4b:63:b1:48:eb:
                    99:1c:2d:5b:fb:e3:bb:86:39:78:d7:9f:d2:bd:33:
                    af:48:1a:6a:3a:2d:61:63:b4:02:9e:04:39:44:7a:
                    58:91:3a:38:e7:b7:36:5b:ed:93:3b:a2:55:19:2c:
                    80:72:3f:4d:af:ff:07:7f:89:96:6f:48:2f:32:a9:
                    9a:0b:2a:ce:4e:87:a5:04:66:7c:d2:1f:4c:40:6e:
                    db:5c:33:15:70:8c:67:bb:da:fe:86:13:d2:8c:f1:
                    55:a4:65:08:48:03:05:f5:f5:5c:eb:cf:88:1b:1f:
                    19:d3:a8:b8:d8:81:b6:1a:e2:a5:8b:5f:83:07:03:
                    84:9f:d5:28:26:5c:35:bc:04:3d:46:d6:e4:33:d4:
                    11:3e:6a:51:87:ae:e2:1c:9b:33:78:7b:ee:5c:a9:
                    ae:b1:2d:52:46:12:db:8d:74:f7:ab:a2:e1:01:82:
                    e1:5a:a5:79:6b:29:37:80:f5:a8:ac:67:3a:c2:a2:
                    94:bd:3d:99:80:b4:69:69:67:6e:de:df:24:fb:16:
                    8a:14:d5:50:d0:d9:86:0e:1f:2f:18:b0:ae:5a:01:
                    b7:20:f6:ee:bd:71:f5:fc:d2:13:81:0b:1b:34:5c:
                    fe:2e:e7:0d:81:dd:05:37:9f:22:de:79:de:55:9d:
                    e7:9c:f7:06:a7:f9:37:2e:30:7c:11:28:88:67:3f:
                    1c:a2:55:09:f0:45:a0:d9:34:94:fe:1c:76:eb:8a:
                    29:39:63:8d:0b:7f:24:aa:97:d3:79:0a:d7:7b:4f:
                    a7:48:83:7d:ee:42:9d:76:d3:12:8e:9a:fd:60:e2:
                    d3:21:91
                Exponent: 65537 (0x10001)
        X509v3 extensions:
            X509v3 Basic Constraints: 
                CA:FALSE
            Netscape Comment: 
                Easy-RSA Generated Certificate
            X509v3 Subject Key Identifier: 
                BE:76:A6:51:C3:1B:55:1A:DE:61:6F:B9:3B:3B:04:68:3A:E4:D4:BA
            X509v3 Authority Key Identifier: 
                keyid:12:CD:60:04:D2:A0:80:9E:70:ED:C6:99:B8:7B:2C:C6:52:FD:19:A1
                DirName:/C=US/ST=OH/L=Columbus/O=VikingVPN/OU=MyOrganizationalUnit/CN=VikingVPN CA/name=EasyRSA/emailAddress=me@myhost.mydomain
                serial:CF:35:85:EE:80:BF:2A:3E

            X509v3 Extended Key Usage: 
                TLS Web Client Authentication
            X509v3 Key Usage: 
                Digital Signature
    Signature Algorithm: md5WithRSAEncryption
         c4:6d:28:14:ce:a2:c2:50:26:50:4d:ee:44:77:48:5f:98:c6:
         f2:cd:99:1b:e7:fd:1b:e1:5c:d4:14:b4:98:d9:e0:ba:af:5f:
         8a:72:79:36:26:e5:0c:ea:f5:5f:69:29:61:d7:be:b4:40:27:
         1c:2d:d1:7b:19:a1:6a:93:77:84:da:c7:e4:45:2f:eb:0d:68:
         e6:86:4b:dd:d9:3b:0c:ec:09:4e:b0:8d:c5:2e:a9:c9:ba:91:
         7f:d6:5e:0a:00:b9:92:c7:06:fe:3b:58:ac:d7:f6:74:84:49:
         4a:b2:28:26:ff:a3:a4:19:c9:33:2d:dc:44:47:7c:14:35:3f:
         42:e7:71:87:b9:78:95:f0:3c:39:c8:07:17:a5:b3:01:d0:41:
         c3:0c:b2:0c:6f:29:c5:25:13:2f:f8:c4:bf:18:da:62:f7:30:
         12:97:0c:b0:f3:cb:72:28:87:d0:f0:79:7f:2f:5e:9c:c5:cb:
         04:41:e0:c1:f2:e3:b4:e0:14:48:bb:60:7b:bf:2e:1e:56:6a:
         de:62:25:e8:f9:26:4c:0e:00:ca:4d:9a:14:f8:31:10:5b:86:
         0d:93:41:11:01:79:2f:08:55:7a:7d:88:cb:6a:63:ee:a9:e8:
         fb:8d:d5:af:5b:25:1a:77:d2:1c:c5:95:fd:f9:b1:67:ab:a3:
         4c:90:15:c4:0e:11:2b:dd:c7:fd:08:62:24:56:48:51:9e:20:
         85:25:ca:67:33:fe:4d:2b:84:0e:42:ba:d7:d7:7b:0a:f1:54:
         d3:d3:76:69:a3:27:0f:45:8c:41:a3:75:c6:8f:9c:a6:21:b4:
         24:de:9f:46:3c:be:c2:ff:c8:b1:64:10:43:59:ba:b2:68:2e:
         2c:a4:a4:8f:9a:8c:55:d9:ff:fe:ea:ed:92:d2:d5:f4:16:63:
         91:b6:f6:92:95:ce:1c:88:2c:f2:dc:a9:43:1b:06:0b:49:ad:
         43:96:a9:bc:97:eb:81:e1:f9:5b:77:fb:82:ca:02:2e:16:31:
         29:83:79:e1:61:57:10:6d:ed:ca:1c:ee:dc:8b:1d:b7:c7:50:
         c7:ca:1a:c9:f6:d5:09:f5:7e:d9:89:d6:1e:87:63:9f:33:9e:
         2b:e5:c3:06:c3:d3:a4:8e:81:df:be:c0:e0:6d:e8:cd:02:d1:
         f7:e1:27:24:b4:64:f6:41:a0:ba:16:da:80:b0:12:52:ec:96:
         c4:a9:b4:da:56:92:6d:88:74:88:76:45:e4:cf:95:1d:d5:2e:
         c1:c3:e2:ca:76:25:a4:3f:80:df:f8:7e:eb:d1:40:2f:fe:30:
         35:d1:6e:2d:55:19:8e:fe:af:20:8c:21:ab:b6:d0:cd:5d:ed:
         7c:16:9b:7a:50:5a:94:ad
-----BEGIN CERTIFICATE-----
MIIGrTCCBJWgAwIBAgICF+QwDQYJKoZIhvcNAQEEBQAwgawxCzAJBgNVBAYTAlVT
MQswCQYDVQQIEwJPSDERMA8GA1UEBxMIQ29sdW1idXMxEjAQBgNVBAoTCVZpa2lu
Z1ZQTjEdMBsGA1UECxMUTXlPcmdhbml6YXRpb25hbFVuaXQxFTATBgNVBAMTDFZp
a2luZ1ZQTiBDQTEQMA4GA1UEKRMHRWFzeVJTQTEhMB8GCSqGSIb3DQEJARYSbWVA
bXlob3N0Lm15ZG9tYWluMB4XDTE1MDgyMjE1MDA1OVoXDTI1MDgxOTE1MDA1OVow
HzEdMBsGA1UEAxMUQ2xpZW50MTEzOUNlcnRjNThmMGMwggIiMA0GCSqGSIb3DQEB
AQUAA4ICDwAwggIKAoICAQDL0uWVW5B7S0LoNjlDiEY2BHgNHO1QY8KEtChmRQJe
EBHjetduD8JNOEgZilk9c6V51YzEF/PxhT1ZB0M/Lx7sOM1ZbEv9Ae37OsSots88
l0KpzS/gT/M4BBBKH02opumB1Dq3eskBIhY0XQaovZz31oOrWhVeBUbM1Rg1qLXj
D4taN5qJWdBc7fTij7cJHxczhzeBQGaMls8xW9HiX9kQNdpuqM/+JD0xF9bMUDiO
jOXDo9iUefj59HE3eAvDOS/ULnizi08Oyf8g53BLY7FI65kcLVv747uGOXjXn9K9
M69IGmo6LWFjtAKeBDlEeliROjjntzZb7ZM7olUZLIByP02v/wd/iZZvSC8yqZoL
Ks5Oh6UEZnzSH0xAbttcMxVwjGe72v6GE9KM8VWkZQhIAwX19Vzrz4gbHxnTqLjY
gbYa4qWLX4MHA4Sf1SgmXDW8BD1G1uQz1BE+alGHruIcmzN4e+5cqa6xLVJGEtuN
dPerouEBguFapXlrKTeA9aisZzrCopS9PZmAtGlpZ27e3yT7FooU1VDQ2YYOHy8Y
sK5aAbcg9u69cfX80hOBCxs0XP4u5w2B3QU3nyLeed5Vneec9wan+TcuMHwRKIhn
PxyiVQnwRaDZNJT+HHbriik5Y40LfySql9N5Ctd7T6dIg33uQp120xKOmv1g4tMh
kQIDAQABo4IBYzCCAV8wCQYDVR0TBAIwADAtBglghkgBhvhCAQ0EIBYeRWFzeS1S
U0EgR2VuZXJhdGVkIENlcnRpZmljYXRlMB0GA1UdDgQWBBS+dqZRwxtVGt5hb7k7
OwRoOuTUujCB4QYDVR0jBIHZMIHWgBQSzWAE0qCAnnDtxpm4eyzGUv0ZoaGBsqSB
rzCBrDELMAkGA1UEBhMCVVMxCzAJBgNVBAgTAk9IMREwDwYDVQQHEwhDb2x1bWJ1
czESMBAGA1UEChMJVmlraW5nVlBOMR0wGwYDVQQLExRNeU9yZ2FuaXphdGlvbmFs
VW5pdDEVMBMGA1UEAxMMVmlraW5nVlBOIENBMRAwDgYDVQQpEwdFYXN5UlNBMSEw
HwYJKoZIhvcNAQkBFhJtZUBteWhvc3QubXlkb21haW6CCQDPNYXugL8qPjATBgNV
HSUEDDAKBggrBgEFBQcDAjALBgNVHQ8EBAMCB4AwDQYJKoZIhvcNAQEEBQADggIB
AMRtKBTOosJQJlBN7kR3SF+YxvLNmRvn/RvhXNQUtJjZ4LqvX4pyeTYm5Qzq9V9p
KWHXvrRAJxwt0XsZoWqTd4Tax+RFL+sNaOaGS93ZOwzsCU6wjcUuqcm6kX/WXgoA
uZLHBv47WKzX9nSESUqyKCb/o6QZyTMt3ERHfBQ1P0LncYe5eJXwPDnIBxelswHQ
QcMMsgxvKcUlEy/4xL8Y2mL3MBKXDLDzy3Ioh9DweX8vXpzFywRB4MHy47TgFEi7
YHu/Lh5Wat5iJej5JkwOAMpNmhT4MRBbhg2TQREBeS8IVXp9iMtqY+6p6PuN1a9b
JRp30hzFlf35sWero0yQFcQOESvdx/0IYiRWSFGeIIUlymcz/k0rhA5CutfXewrx
VNPTdmmjJw9FjEGjdcaPnKYhtCTen0Y8vsL/yLFkEENZurJoLiykpI+ajFXZ//7q
7ZLS1fQWY5G29pKVzhyILPLcqUMbBgtJrUOWqbyX64Hh+Vt3+4LKAi4WMSmDeeFh
VxBt7coc7tyLHbfHUMfKGsn21Qn1ftmJ1h6HY58znivlwwbD06SOgd++wOBt6M0C
0ffhJyS0ZPZBoLoW2oCwElLslsSptNpWkm2IdIh2ReTPlR3VLsHD4sp2JaQ/gN/4
fuvRQC/+MDXRbi1VGY7+ryCMIau20M1d7XwWm3pQWpSt
-----END CERTIFICATE-----
