Certificate:
    Data:
        Version: 3 (0x2)
        Serial Number: 8151 (0x1fd7)
    Signature Algorithm: md5WithRSAEncryption
        Issuer: C=US, ST=OH, L=Columbus, O=VikingVPN, OU=MyOrganizationalUnit, CN=VikingVPN CA/name=EasyRSA/emailAddress=me@myhost.mydomain
        Validity
            Not Before: Jun  4 03:01:17 2016 GMT
            Not After : Jun  2 03:01:17 2026 GMT
        Subject: CN=Client503Cert87a6e8
        Subject Public Key Info:
            Public Key Algorithm: rsaEncryption
                Public-Key: (4096 bit)
                Modulus:
                    00:b5:95:5e:de:6a:1b:0e:3e:d7:cc:0c:fc:dd:70:
                    78:08:6c:38:35:15:74:7f:1b:47:bf:a0:28:7f:50:
                    23:c9:d8:3b:ba:7a:a1:df:e1:84:6f:95:4a:74:b9:
                    57:22:a4:27:c8:c3:e4:fe:c4:30:6e:e2:54:0d:29:
                    4e:e7:7f:93:90:fd:cd:8d:87:7a:9e:d7:fe:4a:4f:
                    3f:ff:ac:4e:30:d8:19:d3:b3:5b:a9:7e:7d:4a:4e:
                    e9:33:d6:b5:ad:eb:b8:81:80:a1:4e:9a:f4:69:68:
                    d0:5d:18:a1:e7:36:e0:21:ec:13:7b:02:82:92:6d:
                    b8:44:ee:01:b6:9f:da:f6:20:54:2c:98:f4:5b:c3:
                    f4:4a:d3:1b:f2:34:69:08:49:61:ad:0a:d9:4d:5b:
                    e6:55:5d:28:0c:d2:b2:3a:a0:bb:2e:41:73:06:c8:
                    2e:11:a3:10:7b:8d:ce:8c:62:00:58:e3:a6:cc:a8:
                    60:1a:56:6c:69:ac:67:8e:8a:2b:4c:7f:2a:97:3f:
                    db:cf:7a:ae:27:77:c1:25:e5:08:aa:5b:b8:cc:c3:
                    93:b3:d1:ab:db:dd:65:9e:d9:bb:77:e2:a5:ed:50:
                    b6:10:8b:02:f1:50:8e:c3:49:c4:56:1a:da:34:7c:
                    bc:f4:9b:09:55:af:f1:09:5f:81:fa:a8:62:b0:63:
                    bc:db:50:56:74:a3:2c:ec:a5:0d:1f:5a:4c:74:29:
                    e8:c8:f8:ea:91:fc:e2:f2:e6:d9:22:84:a7:37:a4:
                    b0:41:ce:e2:93:b6:e6:47:64:15:7b:d6:82:e1:15:
                    3b:6c:7e:ee:b1:33:13:b3:77:d2:15:2c:96:5b:4c:
                    37:44:72:ee:bd:87:5a:cc:cb:6a:d8:5b:3e:46:dd:
                    a9:fe:0a:61:2d:8a:c0:bc:de:0b:95:c3:2f:25:c6:
                    86:b2:a4:d2:70:c7:cb:11:12:cd:f7:83:fe:71:0a:
                    f4:09:30:fc:be:ec:fb:24:36:60:99:35:29:eb:a4:
                    8e:85:18:c7:ee:68:4e:92:40:05:6d:88:ce:9b:d0:
                    da:ac:0c:cd:a8:e1:23:99:e3:f7:19:a7:d1:66:f7:
                    1d:12:23:2c:cf:11:c4:7f:26:ad:81:46:64:d2:c9:
                    83:ae:2d:66:cd:e3:de:2e:8a:03:48:49:e6:98:e1:
                    0c:63:8d:38:1e:b8:15:32:3b:cc:18:e9:4c:21:80:
                    14:44:48:74:12:ec:d7:6f:f0:25:5a:29:3b:c7:ee:
                    d4:7f:3c:e4:0e:7a:b1:8b:48:c9:d9:b3:3b:c7:6b:
                    a9:48:d0:d8:7a:65:13:4f:f5:37:3d:10:6f:7f:04:
                    b9:ad:b9:8a:b2:a2:a1:06:3d:7c:5d:dd:57:58:77:
                    6d:c1:19
                Exponent: 65537 (0x10001)
        X509v3 extensions:
            X509v3 Basic Constraints: 
                CA:FALSE
            Netscape Comment: 
                Easy-RSA Generated Certificate
            X509v3 Subject Key Identifier: 
                39:CE:8E:F4:6E:52:0C:E6:3E:CF:FB:49:F3:EB:55:29:9E:09:08:FF
            X509v3 Authority Key Identifier: 
                keyid:12:CD:60:04:D2:A0:80:9E:70:ED:C6:99:B8:7B:2C:C6:52:FD:19:A1
                DirName:/C=US/ST=OH/L=Columbus/O=VikingVPN/OU=MyOrganizationalUnit/CN=VikingVPN CA/name=EasyRSA/emailAddress=me@myhost.mydomain
                serial:CF:35:85:EE:80:BF:2A:3E

            X509v3 Extended Key Usage: 
                TLS Web Client Authentication
            X509v3 Key Usage: 
                Digital Signature
    Signature Algorithm: md5WithRSAEncryption
         39:f7:cb:0f:65:5f:d8:67:ad:a2:a6:61:9f:03:bf:5e:be:8f:
         87:90:0f:c9:3d:19:e9:31:9a:f8:d4:90:af:47:6e:9f:93:01:
         6e:3c:86:ec:2a:3c:c0:b0:ff:97:06:12:2a:0d:a1:b4:da:4d:
         83:27:97:a9:83:39:bb:d0:6a:64:98:72:72:f1:c7:bb:fc:f7:
         ce:a6:af:62:30:b4:c9:e6:e2:b2:37:46:7d:50:74:6e:b6:67:
         a2:c6:0c:90:9e:76:b4:87:3b:a1:85:50:f5:d5:bc:11:51:b2:
         11:c2:8b:d4:3f:ff:f7:75:a6:5c:e6:65:d4:fc:d3:4d:15:4a:
         d6:1a:52:83:97:c4:3f:91:7f:45:26:f8:d7:90:ef:aa:bb:3f:
         cd:e8:77:02:14:b0:ec:e2:58:39:9c:10:9d:55:d9:47:9c:40:
         e7:4f:4c:dc:20:29:17:bc:41:d3:e3:21:b8:bd:35:e4:06:08:
         bd:71:64:2a:ce:19:ef:2f:2f:ed:3a:9e:de:88:7d:e8:41:a7:
         0c:9d:61:07:e6:f6:4b:fd:00:55:5e:6f:4b:d8:67:c1:11:e5:
         3d:f8:67:19:8c:49:e3:0d:ca:b7:1a:97:74:77:72:c8:26:a4:
         ab:d1:d8:19:2c:4e:e7:78:43:8c:75:de:bb:57:49:18:dc:bd:
         6e:61:c9:e4:52:92:cf:e5:36:86:9c:58:5a:58:31:fe:f0:3d:
         84:6a:23:cf:69:cc:22:c4:f3:e3:9b:d6:19:19:9d:e8:2a:29:
         d4:36:d2:85:13:98:4b:e3:38:36:28:ba:f9:01:38:40:b9:f5:
         e1:12:8a:36:44:2c:01:2b:a6:25:3a:69:1b:0e:59:39:78:ec:
         d3:45:0a:44:76:21:14:40:77:54:4b:26:7c:ca:97:af:83:41:
         cf:b9:af:8e:af:44:17:a2:a7:76:90:08:74:52:7e:07:32:59:
         24:bb:bd:f8:da:d9:51:67:53:de:2f:d0:28:1e:e5:40:c7:57:
         1c:7a:69:e8:18:ea:5f:6a:02:5b:c4:cb:f6:21:1f:ec:4c:eb:
         d4:eb:7e:05:3f:4c:47:8d:b5:8b:f2:5d:ce:bb:cf:27:40:69:
         d1:3e:c1:00:bc:ba:f4:8b:1f:02:63:e4:c2:c5:4c:82:20:6d:
         9a:28:3c:75:3c:43:fd:b0:94:05:c5:7a:23:82:58:46:94:d5:
         b7:4b:de:d3:53:ee:7f:2a:b9:6a:b2:33:62:aa:77:53:95:63:
         92:7f:75:16:ba:53:b0:94:7a:f6:9b:e7:fe:11:45:60:6e:95:
         97:b2:d6:5f:8e:b7:b8:e5:d3:a3:b0:45:dd:45:e9:61:94:8e:
         b9:87:32:62:61:4f:04:75
-----BEGIN CERTIFICATE-----
MIIGrDCCBJSgAwIBAgICH9cwDQYJKoZIhvcNAQEEBQAwgawxCzAJBgNVBAYTAlVT
MQswCQYDVQQIEwJPSDERMA8GA1UEBxMIQ29sdW1idXMxEjAQBgNVBAoTCVZpa2lu
Z1ZQTjEdMBsGA1UECxMUTXlPcmdhbml6YXRpb25hbFVuaXQxFTATBgNVBAMTDFZp
a2luZ1ZQTiBDQTEQMA4GA1UEKRMHRWFzeVJTQTEhMB8GCSqGSIb3DQEJARYSbWVA
bXlob3N0Lm15ZG9tYWluMB4XDTE2MDYwNDAzMDExN1oXDTI2MDYwMjAzMDExN1ow
HjEcMBoGA1UEAxMTQ2xpZW50NTAzQ2VydDg3YTZlODCCAiIwDQYJKoZIhvcNAQEB
BQADggIPADCCAgoCggIBALWVXt5qGw4+18wM/N1weAhsODUVdH8bR7+gKH9QI8nY
O7p6od/hhG+VSnS5VyKkJ8jD5P7EMG7iVA0pTud/k5D9zY2Hep7X/kpPP/+sTjDY
GdOzW6l+fUpO6TPWta3ruIGAoU6a9Glo0F0Yoec24CHsE3sCgpJtuETuAbaf2vYg
VCyY9FvD9ErTG/I0aQhJYa0K2U1b5lVdKAzSsjqguy5BcwbILhGjEHuNzoxiAFjj
psyoYBpWbGmsZ46KK0x/Kpc/2896rid3wSXlCKpbuMzDk7PRq9vdZZ7Zu3fipe1Q
thCLAvFQjsNJxFYa2jR8vPSbCVWv8QlfgfqoYrBjvNtQVnSjLOylDR9aTHQp6Mj4
6pH84vLm2SKEpzeksEHO4pO25kdkFXvWguEVO2x+7rEzE7N30hUslltMN0Ry7r2H
WszLathbPkbdqf4KYS2KwLzeC5XDLyXGhrKk0nDHyxESzfeD/nEK9Akw/L7s+yQ2
YJk1KeukjoUYx+5oTpJABW2IzpvQ2qwMzajhI5nj9xmn0Wb3HRIjLM8RxH8mrYFG
ZNLJg64tZs3j3i6KA0hJ5pjhDGONOB64FTI7zBjpTCGAFERIdBLs12/wJVopO8fu
1H885A56sYtIydmzO8drqUjQ2HplE0/1Nz0Qb38Eua25irKioQY9fF3dV1h3bcEZ
AgMBAAGjggFjMIIBXzAJBgNVHRMEAjAAMC0GCWCGSAGG+EIBDQQgFh5FYXN5LVJT
QSBHZW5lcmF0ZWQgQ2VydGlmaWNhdGUwHQYDVR0OBBYEFDnOjvRuUgzmPs/7SfPr
VSmeCQj/MIHhBgNVHSMEgdkwgdaAFBLNYATSoICecO3Gmbh7LMZS/RmhoYGypIGv
MIGsMQswCQYDVQQGEwJVUzELMAkGA1UECBMCT0gxETAPBgNVBAcTCENvbHVtYnVz
MRIwEAYDVQQKEwlWaWtpbmdWUE4xHTAbBgNVBAsTFE15T3JnYW5pemF0aW9uYWxV
bml0MRUwEwYDVQQDEwxWaWtpbmdWUE4gQ0ExEDAOBgNVBCkTB0Vhc3lSU0ExITAf
BgkqhkiG9w0BCQEWEm1lQG15aG9zdC5teWRvbWFpboIJAM81he6Avyo+MBMGA1Ud
JQQMMAoGCCsGAQUFBwMCMAsGA1UdDwQEAwIHgDANBgkqhkiG9w0BAQQFAAOCAgEA
OffLD2Vf2GetoqZhnwO/Xr6Ph5APyT0Z6TGa+NSQr0dun5MBbjyG7Co8wLD/lwYS
Kg2htNpNgyeXqYM5u9BqZJhycvHHu/z3zqavYjC0yebisjdGfVB0brZnosYMkJ52
tIc7oYVQ9dW8EVGyEcKL1D//93WmXOZl1PzTTRVK1hpSg5fEP5F/RSb415Dvqrs/
zeh3AhSw7OJYOZwQnVXZR5xA509M3CApF7xB0+MhuL015AYIvXFkKs4Z7y8v7Tqe
3oh96EGnDJ1hB+b2S/0AVV5vS9hnwRHlPfhnGYxJ4w3KtxqXdHdyyCakq9HYGSxO
53hDjHXeu1dJGNy9bmHJ5FKSz+U2hpxYWlgx/vA9hGojz2nMIsTz45vWGRmd6Cop
1DbShROYS+M4Nii6+QE4QLn14RKKNkQsASumJTppGw5ZOXjs00UKRHYhFEB3VEsm
fMqXr4NBz7mvjq9EF6KndpAIdFJ+BzJZJLu9+NrZUWdT3i/QKB7lQMdXHHpp6Bjq
X2oCW8TL9iEf7Ezr1Ot+BT9MR421i/JdzrvPJ0Bp0T7BALy69IsfAmPkwsVMgiBt
mig8dTxD/bCUBcV6I4JYRpTVt0ve01Pufyq5arIzYqp3U5Vjkn91FrpTsJR69pvn
/hFFYG6Vl7LWX463uOXTo7BF3UXpYZSOuYcyYmFPBHU=
-----END CERTIFICATE-----
