Certificate:
    Data:
        Version: 3 (0x2)
        Serial Number: 7459 (0x1d23)
    Signature Algorithm: md5WithRSAEncryption
        Issuer: C=US, ST=OH, L=Columbus, O=VikingVPN, OU=MyOrganizationalUnit, CN=VikingVPN CA/name=EasyRSA/emailAddress=me@myhost.mydomain
        Validity
            Not Before: Mar  8 23:02:52 2016 GMT
            Not After : Mar  6 23:02:52 2026 GMT
        Subject: CN=Client2219Cert0bad8a
        Subject Public Key Info:
            Public Key Algorithm: rsaEncryption
                Public-Key: (4096 bit)
                Modulus:
                    00:ba:87:fa:ee:da:2c:a3:03:e6:4a:59:95:eb:d0:
                    0a:8e:e0:4e:a7:72:cb:cd:bf:d3:26:b3:92:a6:59:
                    9f:7a:46:e2:6f:58:97:8a:09:44:60:2f:8c:6c:9c:
                    ba:35:22:fc:db:8c:41:e4:14:e5:1a:3e:11:64:41:
                    77:2f:0f:6f:b5:98:71:ce:b7:c6:4a:18:05:d8:11:
                    d2:86:ad:3d:ff:e4:00:09:d8:c0:a0:dd:1a:26:03:
                    ea:b8:ad:a1:0c:63:2e:e4:a6:7b:af:54:d2:17:e4:
                    4d:b0:5b:b0:de:fb:96:01:c2:ef:5e:57:3b:64:89:
                    61:f8:40:79:f1:07:35:e5:38:c7:38:3d:40:da:30:
                    ce:d5:93:0d:64:63:45:3b:0d:37:fe:c7:0d:84:2a:
                    d8:d5:c3:33:54:f3:b7:44:aa:b4:65:21:56:98:9d:
                    4f:a8:c0:82:86:60:7d:ef:76:f4:da:d2:01:95:3c:
                    cd:91:54:a8:01:9e:6a:d9:c1:7d:71:66:40:d6:3f:
                    d3:75:df:04:f9:eb:6a:ce:ee:e6:4f:a4:ca:57:83:
                    8d:74:4f:a4:a5:c0:ca:aa:50:44:26:54:b6:99:8e:
                    ec:9b:39:a4:a2:fb:3f:ba:b9:10:63:ba:75:dd:b0:
                    dc:2a:ec:cb:74:96:06:ce:f4:f1:0b:ff:57:33:f8:
                    0f:0e:d0:4a:50:bd:f1:70:8a:9e:44:90:90:a4:65:
                    56:e5:ea:f2:45:c9:d5:06:b6:26:df:14:55:f7:03:
                    46:d9:c9:10:1e:40:66:70:3f:e3:dc:cb:91:b1:cd:
                    11:23:2b:9b:8b:8e:14:94:d8:df:31:18:33:ed:29:
                    80:6a:42:60:7c:7c:dc:8a:27:f6:ab:53:20:75:37:
                    88:11:86:30:be:53:7a:be:70:da:a8:dc:24:36:95:
                    fd:e7:4e:ef:16:a1:d5:7f:d4:32:21:c9:f4:46:5b:
                    7c:26:7f:cc:49:38:88:d0:83:f5:98:ed:dd:d2:7b:
                    87:27:c0:e2:a1:dc:ea:f0:02:c1:71:e9:e3:52:39:
                    62:fd:f0:96:ce:b6:e3:c8:3c:1d:7d:74:ee:55:48:
                    53:20:6c:b2:55:63:71:a1:1c:47:9c:ae:28:5b:97:
                    55:b1:1f:72:12:8e:c9:e8:8f:ca:a1:4d:31:d1:e3:
                    a4:45:5c:fc:a3:f5:7c:4d:6b:6f:a9:57:41:cc:2a:
                    77:4b:43:53:a6:03:da:6c:f1:4f:81:3b:6d:5e:a7:
                    89:e1:bf:ab:0c:8d:7b:06:19:6c:c3:13:0f:2a:8a:
                    14:a0:df:b0:cd:a1:30:bb:b0:16:4e:95:f9:78:0c:
                    49:52:27:12:8a:08:9a:f8:30:78:17:32:8d:e0:50:
                    4e:4e:cb
                Exponent: 65537 (0x10001)
        X509v3 extensions:
            X509v3 Basic Constraints: 
                CA:FALSE
            Netscape Comment: 
                Easy-RSA Generated Certificate
            X509v3 Subject Key Identifier: 
                11:D0:53:FE:AF:79:C6:8D:6E:33:77:02:1F:E4:76:3D:D6:D1:3E:9E
            X509v3 Authority Key Identifier: 
                keyid:12:CD:60:04:D2:A0:80:9E:70:ED:C6:99:B8:7B:2C:C6:52:FD:19:A1
                DirName:/C=US/ST=OH/L=Columbus/O=VikingVPN/OU=MyOrganizationalUnit/CN=VikingVPN CA/name=EasyRSA/emailAddress=me@myhost.mydomain
                serial:CF:35:85:EE:80:BF:2A:3E

            X509v3 Extended Key Usage: 
                TLS Web Client Authentication
            X509v3 Key Usage: 
                Digital Signature
    Signature Algorithm: md5WithRSAEncryption
         39:0c:f1:ba:a6:48:bd:61:e6:26:ee:dc:c0:d1:2c:ab:ca:36:
         c4:94:bc:2c:2b:2d:71:e0:fd:d2:5c:08:44:05:00:70:cf:89:
         a5:0b:03:44:83:c5:96:51:18:71:b2:c0:79:24:cd:4f:92:33:
         eb:fc:8e:9f:e7:19:24:84:cd:7d:bc:76:db:15:69:04:c7:37:
         cc:e6:92:22:7b:12:8c:e5:73:e9:48:a6:81:5c:e8:55:f7:57:
         f0:64:6c:0e:24:f1:6f:59:b2:94:ce:8d:7f:0c:d1:bf:71:d4:
         95:f6:09:c0:74:b2:ad:40:09:4b:ae:b3:53:2c:14:55:c4:cb:
         53:0f:22:8a:d2:8b:0b:b8:1b:cc:41:8c:7a:5f:63:14:b1:43:
         4b:ba:b1:2e:df:0b:bc:1a:0e:ff:e7:5d:d9:c4:ef:ce:40:2a:
         86:81:ee:a6:7a:ce:31:61:77:ed:b2:40:f6:81:7b:f8:6f:f9:
         9d:0d:31:f4:03:30:60:4e:e3:5a:a1:8c:2e:87:8c:07:2a:2d:
         34:ef:f7:c9:6c:41:b8:0f:6b:7e:a4:a1:b3:32:a6:e9:d1:e8:
         4c:55:2c:d8:31:84:98:f1:71:b2:4b:e2:ea:43:bb:f0:ac:ac:
         7a:cf:d6:ed:66:8f:54:64:3a:0a:c9:b0:bd:48:1a:48:ca:b7:
         4c:ca:c4:55:89:6d:84:29:7c:49:f1:d5:bf:ac:6a:c2:bf:28:
         3e:44:f7:07:9f:d4:64:75:88:73:f7:8a:20:73:f9:9d:72:3b:
         4c:c0:33:b2:5e:45:96:2e:2c:3f:80:a3:4b:81:a2:e3:28:e2:
         9f:91:62:79:75:1f:d5:b1:f2:e3:6d:2d:b9:40:18:29:92:cb:
         a7:80:c7:0b:b6:d5:bb:ec:2e:35:94:7e:42:5f:aa:3a:76:3e:
         ae:07:f9:09:6f:cd:e5:6c:52:87:a2:19:96:c9:00:7b:eb:2a:
         c1:42:7d:5f:cd:18:47:b7:e0:dc:42:63:4f:91:81:19:b8:c7:
         0b:53:ae:32:10:ab:68:31:de:b4:fc:ab:44:c3:e9:fe:e8:ac:
         37:c8:15:54:0c:02:46:b0:e9:e2:71:69:86:00:00:2e:f7:de:
         c8:17:7a:47:20:6d:70:02:c2:e3:ae:ca:d0:06:40:87:14:2c:
         d3:b8:ad:42:6f:74:d2:d1:5b:73:47:1a:a8:40:62:78:23:af:
         b1:84:54:67:69:6c:ee:b6:cc:13:99:f2:b7:bd:99:0a:28:28:
         7c:c4:43:a6:ac:d5:04:f3:ec:67:ee:d7:d1:a3:89:be:e6:99:
         ce:49:50:78:51:6d:fb:6a:4e:67:90:0f:f9:b0:a4:54:1b:18:
         00:6b:37:14:71:18:c9:77
-----BEGIN CERTIFICATE-----
MIIGrTCCBJWgAwIBAgICHSMwDQYJKoZIhvcNAQEEBQAwgawxCzAJBgNVBAYTAlVT
MQswCQYDVQQIEwJPSDERMA8GA1UEBxMIQ29sdW1idXMxEjAQBgNVBAoTCVZpa2lu
Z1ZQTjEdMBsGA1UECxMUTXlPcmdhbml6YXRpb25hbFVuaXQxFTATBgNVBAMTDFZp
a2luZ1ZQTiBDQTEQMA4GA1UEKRMHRWFzeVJTQTEhMB8GCSqGSIb3DQEJARYSbWVA
bXlob3N0Lm15ZG9tYWluMB4XDTE2MDMwODIzMDI1MloXDTI2MDMwNjIzMDI1Mlow
HzEdMBsGA1UEAxMUQ2xpZW50MjIxOUNlcnQwYmFkOGEwggIiMA0GCSqGSIb3DQEB
AQUAA4ICDwAwggIKAoICAQC6h/ru2iyjA+ZKWZXr0AqO4E6ncsvNv9Mms5KmWZ96
RuJvWJeKCURgL4xsnLo1IvzbjEHkFOUaPhFkQXcvD2+1mHHOt8ZKGAXYEdKGrT3/
5AAJ2MCg3RomA+q4raEMYy7kpnuvVNIX5E2wW7De+5YBwu9eVztkiWH4QHnxBzXl
OMc4PUDaMM7Vkw1kY0U7DTf+xw2EKtjVwzNU87dEqrRlIVaYnU+owIKGYH3vdvTa
0gGVPM2RVKgBnmrZwX1xZkDWP9N13wT562rO7uZPpMpXg410T6SlwMqqUEQmVLaZ
juybOaSi+z+6uRBjunXdsNwq7Mt0lgbO9PEL/1cz+A8O0EpQvfFwip5EkJCkZVbl
6vJFydUGtibfFFX3A0bZyRAeQGZwP+Pcy5GxzREjK5uLjhSU2N8xGDPtKYBqQmB8
fNyKJ/arUyB1N4gRhjC+U3q+cNqo3CQ2lf3nTu8WodV/1DIhyfRGW3wmf8xJOIjQ
g/WY7d3Se4cnwOKh3OrwAsFx6eNSOWL98JbOtuPIPB19dO5VSFMgbLJVY3GhHEec
rihbl1WxH3ISjsnoj8qhTTHR46RFXPyj9XxNa2+pV0HMKndLQ1OmA9ps8U+BO21e
p4nhv6sMjXsGGWzDEw8qihSg37DNoTC7sBZOlfl4DElSJxKKCJr4MHgXMo3gUE5O
ywIDAQABo4IBYzCCAV8wCQYDVR0TBAIwADAtBglghkgBhvhCAQ0EIBYeRWFzeS1S
U0EgR2VuZXJhdGVkIENlcnRpZmljYXRlMB0GA1UdDgQWBBQR0FP+r3nGjW4zdwIf
5HY91tE+njCB4QYDVR0jBIHZMIHWgBQSzWAE0qCAnnDtxpm4eyzGUv0ZoaGBsqSB
rzCBrDELMAkGA1UEBhMCVVMxCzAJBgNVBAgTAk9IMREwDwYDVQQHEwhDb2x1bWJ1
czESMBAGA1UEChMJVmlraW5nVlBOMR0wGwYDVQQLExRNeU9yZ2FuaXphdGlvbmFs
VW5pdDEVMBMGA1UEAxMMVmlraW5nVlBOIENBMRAwDgYDVQQpEwdFYXN5UlNBMSEw
HwYJKoZIhvcNAQkBFhJtZUBteWhvc3QubXlkb21haW6CCQDPNYXugL8qPjATBgNV
HSUEDDAKBggrBgEFBQcDAjALBgNVHQ8EBAMCB4AwDQYJKoZIhvcNAQEEBQADggIB
ADkM8bqmSL1h5ibu3MDRLKvKNsSUvCwrLXHg/dJcCEQFAHDPiaULA0SDxZZRGHGy
wHkkzU+SM+v8jp/nGSSEzX28dtsVaQTHN8zmkiJ7Eozlc+lIpoFc6FX3V/BkbA4k
8W9ZspTOjX8M0b9x1JX2CcB0sq1ACUuus1MsFFXEy1MPIorSiwu4G8xBjHpfYxSx
Q0u6sS7fC7waDv/nXdnE785AKoaB7qZ6zjFhd+2yQPaBe/hv+Z0NMfQDMGBO41qh
jC6HjAcqLTTv98lsQbgPa36kobMypunR6ExVLNgxhJjxcbJL4upDu/CsrHrP1u1m
j1RkOgrJsL1IGkjKt0zKxFWJbYQpfEnx1b+sasK/KD5E9wef1GR1iHP3iiBz+Z1y
O0zAM7JeRZYuLD+Ao0uBouMo4p+RYnl1H9Wx8uNtLblAGCmSy6eAxwu21bvsLjWU
fkJfqjp2Pq4H+QlvzeVsUoeiGZbJAHvrKsFCfV/NGEe34NxCY0+RgRm4xwtTrjIQ
q2gx3rT8q0TD6f7orDfIFVQMAkaw6eJxaYYAAC733sgXekcgbXACwuOuytAGQIcU
LNO4rUJvdNLRW3NHGqhAYngjr7GEVGdpbO62zBOZ8re9mQooKHzEQ6as1QTz7Gfu
19Gjib7mmc5JUHhRbftqTmeQD/mwpFQbGABrNxRxGMl3
-----END CERTIFICATE-----
