Certificate:
    Data:
        Version: 3 (0x2)
        Serial Number: 8291 (0x2063)
    Signature Algorithm: md5WithRSAEncryption
        Issuer: C=US, ST=OH, L=Columbus, O=VikingVPN, OU=MyOrganizationalUnit, CN=VikingVPN CA/name=EasyRSA/emailAddress=me@myhost.mydomain
        Validity
            Not Before: Jun 16 04:21:04 2016 GMT
            Not After : Jun 14 04:21:04 2026 GMT
        Subject: CN=Client1723Certe8e30b
        Subject Public Key Info:
            Public Key Algorithm: rsaEncryption
                Public-Key: (4096 bit)
                Modulus:
                    00:cf:9c:db:e5:f7:74:bb:67:fd:fe:72:57:7b:b1:
                    53:76:08:c1:ce:69:93:05:6e:62:0f:84:23:4a:6b:
                    6e:43:79:69:ca:15:cb:ea:88:b0:24:a3:bf:ea:12:
                    8f:f3:07:a5:27:9a:16:67:4c:75:5d:6a:4e:49:0b:
                    95:d8:68:0f:71:78:8b:62:02:ba:4e:36:d8:f5:29:
                    e5:dc:f6:d2:d6:dc:b4:14:b3:69:3c:83:1e:22:87:
                    ba:ee:ac:34:cf:00:06:67:3c:e6:30:9c:3f:59:21:
                    cd:03:97:6f:22:63:30:dd:64:e4:28:a2:b1:2f:c0:
                    8c:46:e7:2f:a5:69:4b:b7:dd:27:cc:47:02:b4:9b:
                    35:79:3c:20:57:d6:0f:d5:01:9b:2f:13:6c:5c:8b:
                    95:43:b8:6d:00:9b:e6:38:5a:fa:bb:6c:6c:19:62:
                    a4:49:25:99:0d:02:c5:20:48:5a:ff:67:67:e0:09:
                    51:ed:80:ce:f9:f1:52:f7:74:c4:ca:a4:93:6d:5d:
                    94:64:43:e7:a8:30:41:ca:57:7a:5f:6e:e3:8d:09:
                    ba:da:97:16:80:c0:6b:39:3d:e2:c6:28:65:d8:57:
                    9d:7c:73:45:ae:4b:7a:0b:6c:b2:9f:b7:57:3d:03:
                    cf:cb:c7:9a:e3:0c:25:81:78:9e:38:46:3c:fc:0d:
                    b6:d0:e2:1c:59:36:26:8a:27:70:89:33:cf:06:38:
                    51:b6:9a:ad:f1:71:fb:23:ad:ed:27:c9:55:d7:6e:
                    fa:a1:9e:13:45:77:a3:96:0b:00:1d:7a:57:da:aa:
                    ab:18:b4:6d:42:b8:1d:81:a4:91:2a:23:b1:c6:7e:
                    ce:d4:67:63:70:a9:1a:57:6e:82:14:c2:45:0d:0c:
                    11:12:8a:7e:ad:75:58:16:e6:5c:96:54:a0:56:9c:
                    9c:98:22:f6:8c:37:d1:55:a9:d3:aa:d5:1e:e7:d8:
                    12:9f:1e:e7:01:56:15:d7:d4:0f:94:6d:15:ee:6f:
                    83:da:49:1e:9f:3f:fd:a7:0b:29:9c:69:40:71:ee:
                    fc:30:c9:3b:33:5c:29:67:8d:7f:83:43:90:83:24:
                    cc:b2:9b:ee:72:69:10:f6:e7:0d:07:7f:fc:fa:e5:
                    6d:4f:18:87:5f:96:17:1b:c9:f9:38:e0:74:30:4d:
                    be:8d:d3:1f:b1:15:5f:dd:c9:06:0a:4b:c4:7e:e6:
                    23:5c:57:30:65:d9:ae:e2:c1:bc:1a:bb:df:9b:03:
                    04:2e:e7:85:e3:1e:dc:64:73:65:0b:56:33:0e:b3:
                    a7:c1:5c:ab:8b:95:ee:90:c1:2b:9e:2a:20:21:c0:
                    5a:19:86:3b:04:31:1f:1f:fe:32:31:ee:21:f2:10:
                    5f:fd:4d
                Exponent: 65537 (0x10001)
        X509v3 extensions:
            X509v3 Basic Constraints: 
                CA:FALSE
            Netscape Comment: 
                Easy-RSA Generated Certificate
            X509v3 Subject Key Identifier: 
                42:76:89:F7:48:41:E0:FE:75:F5:54:46:09:72:FC:49:DD:E4:55:8E
            X509v3 Authority Key Identifier: 
                keyid:12:CD:60:04:D2:A0:80:9E:70:ED:C6:99:B8:7B:2C:C6:52:FD:19:A1
                DirName:/C=US/ST=OH/L=Columbus/O=VikingVPN/OU=MyOrganizationalUnit/CN=VikingVPN CA/name=EasyRSA/emailAddress=me@myhost.mydomain
                serial:CF:35:85:EE:80:BF:2A:3E

            X509v3 Extended Key Usage: 
                TLS Web Client Authentication
            X509v3 Key Usage: 
                Digital Signature
    Signature Algorithm: md5WithRSAEncryption
         3f:d8:e7:cc:a2:a3:c1:21:e5:24:15:90:ff:2a:b4:87:54:89:
         c4:43:35:9d:f6:30:09:b8:2e:c1:8e:2f:37:21:16:d7:e5:fd:
         26:84:33:a4:16:4e:cb:47:6b:9f:c3:f4:4f:da:1f:dc:d4:ed:
         b8:00:19:04:95:99:ff:0a:3f:1a:f3:0f:8f:a7:6a:fa:04:1e:
         3e:a8:df:0b:0b:b5:4b:38:2e:a2:8b:e8:f0:bc:ef:61:44:06:
         64:9b:11:88:37:19:39:26:7d:5a:b0:a0:e7:16:b0:4d:9a:dd:
         c3:ad:4b:3c:4c:50:bb:df:48:0d:03:52:63:26:28:ed:96:33:
         bc:9b:4d:a0:e0:a9:4c:77:26:9c:57:44:ee:ab:4e:c1:f8:3a:
         41:e1:f4:1e:76:ed:08:82:de:cb:5e:01:3d:05:31:5c:6e:19:
         e5:e7:4b:a6:41:e8:62:a0:3b:be:62:47:f4:9f:96:d3:d1:39:
         4d:60:55:aa:ff:0a:34:f1:10:83:b7:2c:d1:62:fc:e4:91:29:
         0c:58:d1:8d:98:72:04:8d:ee:31:9d:c2:d5:54:37:dc:5f:3e:
         b6:b1:9b:69:4a:98:53:d6:a9:38:95:99:13:ec:a0:f1:06:8c:
         52:d0:58:c5:86:df:d8:9b:24:6f:76:6b:ff:f7:2a:6e:bb:eb:
         3f:48:99:e3:9a:b3:53:a2:a7:2e:fd:31:ad:e9:52:fa:1d:ac:
         88:d7:89:aa:b4:1a:55:e8:58:c5:7e:3b:d3:94:8d:9a:dc:40:
         3a:6e:26:d0:17:c1:62:a6:f1:fb:ab:56:7d:8f:a5:3e:ad:fc:
         f6:04:ca:1a:e1:b2:59:5b:8c:c7:b3:d0:59:e2:51:9c:e6:4f:
         1e:cf:3f:ed:3b:74:7f:77:fb:dd:37:a6:d2:e9:ee:03:71:be:
         34:f9:96:32:45:f2:b1:61:7f:9a:b1:79:29:e9:ce:6d:d0:38:
         57:2c:9b:cd:f6:36:3b:ed:c2:e8:ac:53:e5:30:c9:2a:7a:12:
         59:34:ed:c6:f0:1e:7e:e3:e1:a2:95:a9:7b:5e:c2:17:a4:9a:
         83:de:b2:e1:2e:5b:5b:1d:03:e3:fd:7a:05:a8:5e:43:a5:78:
         13:94:69:94:6b:5b:32:a7:f6:fd:dc:a5:7c:49:9f:f5:50:25:
         63:52:b7:20:20:f3:93:87:40:72:84:a9:1f:57:d2:3a:f9:84:
         48:24:f6:50:0e:c3:2c:6b:f9:a5:00:ac:7b:ad:17:ca:88:65:
         cf:a5:94:f0:ef:23:58:30:42:6b:09:c0:28:d3:31:c2:01:7c:
         94:e7:e7:69:ad:2f:b7:22:fa:1e:02:35:df:60:1b:0d:ad:45:
         a7:95:8a:b3:64:65:7d:c8
-----BEGIN CERTIFICATE-----
MIIGrTCCBJWgAwIBAgICIGMwDQYJKoZIhvcNAQEEBQAwgawxCzAJBgNVBAYTAlVT
MQswCQYDVQQIEwJPSDERMA8GA1UEBxMIQ29sdW1idXMxEjAQBgNVBAoTCVZpa2lu
Z1ZQTjEdMBsGA1UECxMUTXlPcmdhbml6YXRpb25hbFVuaXQxFTATBgNVBAMTDFZp
a2luZ1ZQTiBDQTEQMA4GA1UEKRMHRWFzeVJTQTEhMB8GCSqGSIb3DQEJARYSbWVA
bXlob3N0Lm15ZG9tYWluMB4XDTE2MDYxNjA0MjEwNFoXDTI2MDYxNDA0MjEwNFow
HzEdMBsGA1UEAxMUQ2xpZW50MTcyM0NlcnRlOGUzMGIwggIiMA0GCSqGSIb3DQEB
AQUAA4ICDwAwggIKAoICAQDPnNvl93S7Z/3+cld7sVN2CMHOaZMFbmIPhCNKa25D
eWnKFcvqiLAko7/qEo/zB6UnmhZnTHVdak5JC5XYaA9xeItiArpONtj1KeXc9tLW
3LQUs2k8gx4ih7rurDTPAAZnPOYwnD9ZIc0Dl28iYzDdZOQoorEvwIxG5y+laUu3
3SfMRwK0mzV5PCBX1g/VAZsvE2xci5VDuG0Am+Y4Wvq7bGwZYqRJJZkNAsUgSFr/
Z2fgCVHtgM758VL3dMTKpJNtXZRkQ+eoMEHKV3pfbuONCbralxaAwGs5PeLGKGXY
V518c0WuS3oLbLKft1c9A8/Lx5rjDCWBeJ44Rjz8DbbQ4hxZNiaKJ3CJM88GOFG2
mq3xcfsjre0nyVXXbvqhnhNFd6OWCwAdelfaqqsYtG1CuB2BpJEqI7HGfs7UZ2Nw
qRpXboIUwkUNDBESin6tdVgW5lyWVKBWnJyYIvaMN9FVqdOq1R7n2BKfHucBVhXX
1A+UbRXub4PaSR6fP/2nCymcaUBx7vwwyTszXClnjX+DQ5CDJMyym+5yaRD25w0H
f/z65W1PGIdflhcbyfk44HQwTb6N0x+xFV/dyQYKS8R+5iNcVzBl2a7iwbwau9+b
AwQu54XjHtxkc2ULVjMOs6fBXKuLle6QwSueKiAhwFoZhjsEMR8f/jIx7iHyEF/9
TQIDAQABo4IBYzCCAV8wCQYDVR0TBAIwADAtBglghkgBhvhCAQ0EIBYeRWFzeS1S
U0EgR2VuZXJhdGVkIENlcnRpZmljYXRlMB0GA1UdDgQWBBRCdon3SEHg/nX1VEYJ
cvxJ3eRVjjCB4QYDVR0jBIHZMIHWgBQSzWAE0qCAnnDtxpm4eyzGUv0ZoaGBsqSB
rzCBrDELMAkGA1UEBhMCVVMxCzAJBgNVBAgTAk9IMREwDwYDVQQHEwhDb2x1bWJ1
czESMBAGA1UEChMJVmlraW5nVlBOMR0wGwYDVQQLExRNeU9yZ2FuaXphdGlvbmFs
VW5pdDEVMBMGA1UEAxMMVmlraW5nVlBOIENBMRAwDgYDVQQpEwdFYXN5UlNBMSEw
HwYJKoZIhvcNAQkBFhJtZUBteWhvc3QubXlkb21haW6CCQDPNYXugL8qPjATBgNV
HSUEDDAKBggrBgEFBQcDAjALBgNVHQ8EBAMCB4AwDQYJKoZIhvcNAQEEBQADggIB
AD/Y58yio8Eh5SQVkP8qtIdUicRDNZ32MAm4LsGOLzchFtfl/SaEM6QWTstHa5/D
9E/aH9zU7bgAGQSVmf8KPxrzD4+navoEHj6o3wsLtUs4LqKL6PC872FEBmSbEYg3
GTkmfVqwoOcWsE2a3cOtSzxMULvfSA0DUmMmKO2WM7ybTaDgqUx3JpxXRO6rTsH4
OkHh9B527QiC3steAT0FMVxuGeXnS6ZB6GKgO75iR/SfltPROU1gVar/CjTxEIO3
LNFi/OSRKQxY0Y2YcgSN7jGdwtVUN9xfPraxm2lKmFPWqTiVmRPsoPEGjFLQWMWG
39ibJG92a//3Km676z9ImeOas1Oipy79Ma3pUvodrIjXiaq0GlXoWMV+O9OUjZrc
QDpuJtAXwWKm8furVn2PpT6t/PYEyhrhsllbjMez0FniUZzmTx7PP+07dH93+903
ptLp7gNxvjT5ljJF8rFhf5qxeSnpzm3QOFcsm832NjvtwuisU+UwySp6Elk07cbw
Hn7j4aKVqXtewhekmoPesuEuW1sdA+P9egWoXkOleBOUaZRrWzKn9v3cpXxJn/VQ
JWNStyAg85OHQHKEqR9X0jr5hEgk9lAOwyxr+aUArHutF8qIZc+llPDvI1gwQmsJ
wCjTMcIBfJTn52mtL7ci+h4CNd9gGw2tRaeVirNkZX3I
-----END CERTIFICATE-----
