Certificate:
    Data:
        Version: 3 (0x2)
        Serial Number: 12960 (0x32a0)
    Signature Algorithm: sha256WithRSAEncryption
        Issuer: C=US, ST=OH, L=Columbus, O=VikingVPN, OU=MyOrganizationalUnit, CN=VikingVPN CA/name=EasyRSA/emailAddress=me@myhost.mydomain
        Validity
            Not Before: Apr 11 05:20:44 2018 GMT
            Not After : Apr  8 05:20:44 2028 GMT
        Subject: CN=Client3276Certc6295a
        Subject Public Key Info:
            Public Key Algorithm: rsaEncryption
                Public-Key: (4096 bit)
                Modulus:
                    00:d9:dd:1c:9f:8d:45:8c:cc:24:43:cd:98:81:d2:
                    79:f5:a8:f6:d7:14:68:20:99:9a:61:af:e4:63:7a:
                    df:7f:9b:91:5d:bf:47:01:82:65:34:d0:46:b4:01:
                    51:ac:92:fa:e9:86:38:4f:47:94:f7:10:ec:6a:d1:
                    d9:c2:d3:b4:a3:9a:aa:f6:90:f3:c8:34:22:73:c3:
                    b7:e8:e5:1a:51:a1:c2:f4:0f:6d:0a:a3:31:b5:b4:
                    e4:fd:17:60:2c:20:fb:70:c7:20:a9:65:9e:af:aa:
                    31:14:a0:30:44:11:80:23:dd:b2:56:22:5d:40:b0:
                    7b:db:df:cc:62:d3:6c:8b:03:e9:5d:da:f0:d8:2b:
                    39:52:8f:59:e2:2d:4f:78:97:59:a8:4e:f7:74:ae:
                    3c:ae:2a:84:ee:6f:41:c4:72:f1:24:d9:31:76:e1:
                    e2:72:8f:79:04:2e:02:1e:68:b3:a1:f2:1d:0a:2c:
                    b8:5a:27:0c:e8:b3:10:d5:aa:e4:bf:c5:73:87:95:
                    8d:60:77:fd:bd:81:7d:fb:d2:bf:ec:73:11:6b:dc:
                    3c:e3:46:26:0c:6a:e7:8e:74:ba:80:38:c7:e9:4a:
                    db:2f:ed:6b:78:6a:98:07:98:f2:e8:f9:ab:d4:65:
                    9d:1d:88:f8:b4:d2:dc:e5:90:b3:f2:71:ba:7f:45:
                    49:9a:bc:f8:a9:74:ce:78:24:d6:b3:d5:40:ba:8e:
                    b5:7f:bb:bd:55:e8:ce:a3:0a:5e:c2:65:62:d8:0f:
                    eb:49:5e:89:39:e0:d3:1f:2a:21:e8:3b:af:03:a2:
                    cb:1f:fe:32:0e:15:1a:17:f6:e3:de:8d:57:5e:68:
                    ef:13:6a:16:c5:ed:76:c8:1f:80:4d:87:de:56:17:
                    c6:8c:9f:4a:33:03:27:0e:58:65:47:57:39:f6:8e:
                    2f:35:d0:bd:43:55:3b:9b:12:d1:48:b1:c9:e8:c6:
                    c1:3d:26:a8:a7:ae:25:9d:a3:48:70:e5:91:57:ec:
                    20:d0:1d:bd:4e:cf:3d:99:41:e2:bf:b6:b4:62:80:
                    c5:0e:da:0c:e5:d8:30:23:31:f9:3f:42:b4:e1:71:
                    7a:64:aa:9e:78:d8:2b:2c:0c:c9:a4:4e:23:ab:d5:
                    77:42:72:61:e0:d0:e7:80:85:b2:26:c6:95:53:d9:
                    36:4f:5a:9b:cb:cf:f2:2b:a1:18:88:1d:ba:c6:c8:
                    07:aa:8e:d0:c3:ae:66:da:af:5d:ed:d7:34:5a:7e:
                    78:4f:63:4a:a3:7c:1e:e9:c9:47:a2:13:59:69:19:
                    1d:d2:fe:01:11:88:4a:c1:47:19:52:17:13:8d:cb:
                    25:d2:54:91:5f:95:14:ff:fa:71:ab:49:4a:fc:46:
                    2b:b5:6b
                Exponent: 65537 (0x10001)
        X509v3 extensions:
            X509v3 Basic Constraints: 
                CA:FALSE
            Netscape Comment: 
                Easy-RSA Generated Certificate
            X509v3 Subject Key Identifier: 
                BC:E0:23:CD:B1:FB:C0:81:CB:D3:35:34:77:9C:D5:AD:3B:73:A2:70
            X509v3 Authority Key Identifier: 
                keyid:12:CD:60:04:D2:A0:80:9E:70:ED:C6:99:B8:7B:2C:C6:52:FD:19:A1
                DirName:/C=US/ST=OH/L=Columbus/O=VikingVPN/OU=MyOrganizationalUnit/CN=VikingVPN CA/name=EasyRSA/emailAddress=me@myhost.mydomain
                serial:CF:35:85:EE:80:BF:2A:3E

            X509v3 Extended Key Usage: 
                TLS Web Client Authentication
            X509v3 Key Usage: 
                Digital Signature
    Signature Algorithm: sha256WithRSAEncryption
         b1:ac:3b:e3:5d:ce:c4:05:ee:2b:2f:4e:6d:22:63:50:4f:30:
         36:ba:48:9b:1a:9c:a2:d2:80:10:58:8c:0e:e6:8c:a2:cd:a7:
         87:92:7f:90:b4:07:8e:1a:31:14:ff:b7:66:39:b7:2b:8e:a6:
         2b:3d:b2:8c:0f:71:8d:bd:03:fb:fd:b4:b4:a8:48:cf:e0:1e:
         35:bb:19:57:de:a7:80:0c:57:f4:c5:25:8b:85:e9:15:24:e4:
         40:1c:af:29:c0:cd:85:13:55:1e:70:70:bb:bb:50:5a:e7:88:
         84:f2:3f:04:36:76:1f:40:11:fd:40:51:95:cc:42:eb:65:a2:
         ba:ed:ec:e2:ed:23:cd:f2:78:03:72:a3:97:da:8f:3e:41:4d:
         e6:d0:b0:2c:4e:ab:14:77:f9:98:d8:b6:f4:d7:35:37:19:dd:
         d6:76:3b:b8:c4:79:97:59:06:38:f9:69:dc:57:02:a1:c3:5d:
         2d:be:c8:4c:6b:25:60:58:ab:07:02:aa:89:44:c0:ca:6e:ca:
         64:23:61:64:bb:c2:ec:7d:d2:dc:c3:c7:53:29:50:0b:fa:7d:
         f8:88:02:87:e0:41:f5:34:80:95:fe:29:b3:8b:dc:94:96:71:
         88:c8:ee:dc:88:9b:33:d0:fb:55:c1:0d:dc:f5:70:29:51:e0:
         db:de:83:43:26:c6:31:6d:8e:9b:84:35:91:e6:ba:ba:66:da:
         19:0b:8a:e0:1b:ee:8a:a8:74:a1:46:3d:1e:5e:21:78:ab:3e:
         2a:2f:1d:aa:0d:90:de:b6:8a:70:52:ec:67:f2:72:7f:b3:35:
         ef:ff:a5:a3:5f:35:93:37:70:82:45:33:42:51:11:59:c6:f5:
         c5:0f:14:2a:53:c2:eb:f3:77:d3:27:9c:38:9c:85:e5:b6:44:
         f3:1f:29:3a:cd:4f:bc:fd:60:c1:58:c4:4f:ba:24:70:da:3f:
         cd:22:b0:b4:ea:b4:20:8c:5a:07:10:5a:3a:2a:24:c9:1f:c0:
         70:33:1c:e2:51:06:8e:eb:68:29:eb:4a:49:a9:3c:2e:7e:eb:
         0c:02:ff:01:75:b8:26:47:3a:0d:e4:ec:a0:b9:6c:a4:a5:9e:
         09:7d:24:4b:ec:3e:38:b6:cc:7f:38:06:02:87:d0:bb:5e:bf:
         08:9a:7d:66:fb:e9:ae:07:94:fe:b8:af:83:d8:b2:75:65:46:
         83:b2:95:13:b2:af:28:d1:76:60:48:94:01:3b:50:52:16:07:
         9e:69:ff:1f:41:cb:a9:1d:fa:54:ba:a1:1e:fc:b5:b2:ba:35:
         77:9a:c5:96:4a:9b:89:7d:c6:80:bf:23:08:b1:45:25:7e:64:
         fe:c5:86:85:41:9e:04:9c
-----BEGIN CERTIFICATE-----
MIIGrTCCBJWgAwIBAgICMqAwDQYJKoZIhvcNAQELBQAwgawxCzAJBgNVBAYTAlVT
MQswCQYDVQQIEwJPSDERMA8GA1UEBxMIQ29sdW1idXMxEjAQBgNVBAoTCVZpa2lu
Z1ZQTjEdMBsGA1UECxMUTXlPcmdhbml6YXRpb25hbFVuaXQxFTATBgNVBAMTDFZp
a2luZ1ZQTiBDQTEQMA4GA1UEKRMHRWFzeVJTQTEhMB8GCSqGSIb3DQEJARYSbWVA
bXlob3N0Lm15ZG9tYWluMB4XDTE4MDQxMTA1MjA0NFoXDTI4MDQwODA1MjA0NFow
HzEdMBsGA1UEAxMUQ2xpZW50MzI3NkNlcnRjNjI5NWEwggIiMA0GCSqGSIb3DQEB
AQUAA4ICDwAwggIKAoICAQDZ3RyfjUWMzCRDzZiB0nn1qPbXFGggmZphr+Rjet9/
m5Fdv0cBgmU00Ea0AVGskvrphjhPR5T3EOxq0dnC07Sjmqr2kPPINCJzw7fo5RpR
ocL0D20KozG1tOT9F2AsIPtwxyCpZZ6vqjEUoDBEEYAj3bJWIl1AsHvb38xi02yL
A+ld2vDYKzlSj1niLU94l1moTvd0rjyuKoTub0HEcvEk2TF24eJyj3kELgIeaLOh
8h0KLLhaJwzosxDVquS/xXOHlY1gd/29gX370r/scxFr3DzjRiYMaueOdLqAOMfp
Stsv7Wt4apgHmPLo+avUZZ0diPi00tzlkLPycbp/RUmavPipdM54JNaz1UC6jrV/
u71V6M6jCl7CZWLYD+tJXok54NMfKiHoO68Dossf/jIOFRoX9uPejVdeaO8TahbF
7XbIH4BNh95WF8aMn0ozAycOWGVHVzn2ji810L1DVTubEtFIscnoxsE9JqinriWd
o0hw5ZFX7CDQHb1Ozz2ZQeK/trRigMUO2gzl2DAjMfk/QrThcXpkqp542CssDMmk
TiOr1XdCcmHg0OeAhbImxpVT2TZPWpvLz/IroRiIHbrGyAeqjtDDrmbar13t1zRa
fnhPY0qjfB7pyUeiE1lpGR3S/gERiErBRxlSFxONyyXSVJFflRT/+nGrSUr8Riu1
awIDAQABo4IBYzCCAV8wCQYDVR0TBAIwADAtBglghkgBhvhCAQ0EIBYeRWFzeS1S
U0EgR2VuZXJhdGVkIENlcnRpZmljYXRlMB0GA1UdDgQWBBS84CPNsfvAgcvTNTR3
nNWtO3OicDCB4QYDVR0jBIHZMIHWgBQSzWAE0qCAnnDtxpm4eyzGUv0ZoaGBsqSB
rzCBrDELMAkGA1UEBhMCVVMxCzAJBgNVBAgTAk9IMREwDwYDVQQHEwhDb2x1bWJ1
czESMBAGA1UEChMJVmlraW5nVlBOMR0wGwYDVQQLExRNeU9yZ2FuaXphdGlvbmFs
VW5pdDEVMBMGA1UEAxMMVmlraW5nVlBOIENBMRAwDgYDVQQpEwdFYXN5UlNBMSEw
HwYJKoZIhvcNAQkBFhJtZUBteWhvc3QubXlkb21haW6CCQDPNYXugL8qPjATBgNV
HSUEDDAKBggrBgEFBQcDAjALBgNVHQ8EBAMCB4AwDQYJKoZIhvcNAQELBQADggIB
ALGsO+NdzsQF7isvTm0iY1BPMDa6SJsanKLSgBBYjA7mjKLNp4eSf5C0B44aMRT/
t2Y5tyuOpis9sowPcY29A/v9tLSoSM/gHjW7GVfep4AMV/TFJYuF6RUk5EAcrynA
zYUTVR5wcLu7UFrniITyPwQ2dh9AEf1AUZXMQutlorrt7OLtI83yeANyo5fajz5B
TebQsCxOqxR3+ZjYtvTXNTcZ3dZ2O7jEeZdZBjj5adxXAqHDXS2+yExrJWBYqwcC
qolEwMpuymQjYWS7wux90tzDx1MpUAv6ffiIAofgQfU0gJX+KbOL3JSWcYjI7tyI
mzPQ+1XBDdz1cClR4Nveg0MmxjFtjpuENZHmurpm2hkLiuAb7oqodKFGPR5eIXir
PiovHaoNkN62inBS7Gfycn+zNe//paNfNZM3cIJFM0JREVnG9cUPFCpTwuvzd9Mn
nDicheW2RPMfKTrNT7z9YMFYxE+6JHDaP80isLTqtCCMWgcQWjoqJMkfwHAzHOJR
Bo7raCnrSkmpPC5+6wwC/wF1uCZHOg3k7KC5bKSlngl9JEvsPji2zH84BgKH0Lte
vwiafWb76a4HlP64r4PYsnVlRoOylROyryjRdmBIlAE7UFIWB55p/x9By6kd+lS6
oR78tbK6NXeaxZZKm4l9xoC/IwixRSV+ZP7FhoVBngSc
-----END CERTIFICATE-----
