Certificate:
    Data:
        Version: 3 (0x2)
        Serial Number: 7564 (0x1d8c)
    Signature Algorithm: md5WithRSAEncryption
        Issuer: C=US, ST=OH, L=Columbus, O=VikingVPN, OU=MyOrganizationalUnit, CN=VikingVPN CA/name=EasyRSA/emailAddress=me@myhost.mydomain
        Validity
            Not Before: Mar 19 01:26:10 2016 GMT
            Not After : Mar 17 01:26:10 2026 GMT
        Subject: CN=Client824Certd9859c
        Subject Public Key Info:
            Public Key Algorithm: rsaEncryption
                Public-Key: (4096 bit)
                Modulus:
                    00:e8:01:ef:9a:71:26:b9:71:c7:79:09:df:9a:89:
                    cb:09:e5:16:1c:51:6a:5c:1d:ac:77:5a:17:aa:f1:
                    c1:01:9c:99:d6:bf:a4:c2:73:12:c4:df:f6:55:0b:
                    12:31:08:01:fc:f6:11:25:6c:cb:3d:fa:95:c3:b3:
                    6a:f9:2b:8a:22:af:4e:77:9f:d3:cb:5c:ee:fe:97:
                    07:4e:b7:f1:11:f4:57:bb:d6:60:e0:77:f1:ef:f3:
                    af:8c:a2:4d:6a:a6:52:e9:8f:6f:16:80:72:c5:d6:
                    7f:a0:f7:19:98:cb:17:9c:ad:3d:cc:24:bb:96:28:
                    70:c2:ff:46:53:ea:3d:3c:21:6c:f7:90:4e:3b:21:
                    d7:05:82:74:3f:13:cc:24:a9:8b:47:54:91:e3:45:
                    f1:bc:6c:eb:4d:30:0a:07:64:24:ac:84:3e:97:48:
                    3d:e6:e2:9b:8f:6a:93:5d:81:e9:69:7f:31:b6:1a:
                    4f:a6:36:fe:17:71:2b:45:66:37:8f:4e:dc:9a:e4:
                    8b:71:87:b0:06:00:65:30:64:9b:46:9c:ed:ec:8a:
                    b3:d5:e2:b7:e1:85:b3:0c:f3:86:98:be:f9:d2:de:
                    af:1f:62:51:2b:77:91:d5:8b:2e:05:6c:e8:0a:0b:
                    6b:d1:52:88:5e:54:0e:ed:10:58:72:54:60:d9:5f:
                    b0:74:9d:e9:b2:01:45:b4:e2:12:9b:03:2d:4c:eb:
                    90:3c:f4:05:0f:eb:6c:99:83:33:f2:70:4d:96:19:
                    98:ed:5c:fa:cb:81:ae:dc:04:2b:d5:6b:ce:c2:54:
                    c0:42:2c:53:3a:6e:84:9d:2c:67:bd:85:3a:36:95:
                    59:cc:76:51:f5:70:22:59:4f:0d:76:79:84:73:4f:
                    d6:91:bb:0d:23:79:06:c3:4f:f6:fc:2e:eb:2c:87:
                    f4:50:ea:c9:50:e1:69:55:47:7f:4e:09:cd:68:38:
                    f4:32:e2:08:42:d2:1c:a8:a9:ff:a3:95:0f:3f:16:
                    c0:23:1d:9a:92:20:66:7d:83:35:f1:bf:fe:55:f0:
                    0a:82:6d:34:57:dd:89:d9:85:5c:b5:d9:bb:18:7b:
                    f2:79:9f:23:30:c5:d7:1d:4c:07:39:c1:75:ea:7f:
                    a5:ac:9a:3d:1c:0c:e5:43:5b:96:81:61:41:59:5d:
                    c2:4d:32:4c:1f:e9:ce:81:db:1a:07:4f:0c:b0:22:
                    d2:69:90:15:16:0b:a1:5b:e2:60:fc:6a:34:5f:6e:
                    8c:ea:2e:77:16:a1:08:21:eb:85:75:49:32:61:96:
                    e8:55:cb:65:81:ae:0b:39:b4:9e:f6:fc:86:3e:4c:
                    35:3a:45:d8:99:78:9a:5a:08:a0:b7:d8:a0:bb:7e:
                    0d:91:b1
                Exponent: 65537 (0x10001)
        X509v3 extensions:
            X509v3 Basic Constraints: 
                CA:FALSE
            Netscape Comment: 
                Easy-RSA Generated Certificate
            X509v3 Subject Key Identifier: 
                DC:5D:2C:E8:2F:FC:5A:CE:89:90:0F:9E:49:C8:F0:F5:62:23:34:C4
            X509v3 Authority Key Identifier: 
                keyid:12:CD:60:04:D2:A0:80:9E:70:ED:C6:99:B8:7B:2C:C6:52:FD:19:A1
                DirName:/C=US/ST=OH/L=Columbus/O=VikingVPN/OU=MyOrganizationalUnit/CN=VikingVPN CA/name=EasyRSA/emailAddress=me@myhost.mydomain
                serial:CF:35:85:EE:80:BF:2A:3E

            X509v3 Extended Key Usage: 
                TLS Web Client Authentication
            X509v3 Key Usage: 
                Digital Signature
    Signature Algorithm: md5WithRSAEncryption
         b7:28:4b:83:e9:85:6b:f8:1c:82:3a:df:33:24:72:df:81:98:
         f8:9e:42:75:6c:49:d8:b4:03:8d:a2:7a:4f:98:2b:6b:fa:66:
         de:4c:11:8f:e0:3b:ba:ae:3c:cf:45:16:70:85:81:d4:90:d2:
         f6:a2:d9:5c:56:26:f4:5f:09:a4:38:89:86:d1:12:9f:aa:4f:
         92:9d:45:c8:e3:9a:d3:cd:d2:29:ad:62:cc:06:66:c5:d0:78:
         d1:86:d7:f2:61:0f:80:e6:d1:f1:5c:31:18:a8:7f:51:62:e7:
         e1:aa:75:70:9c:c6:c1:13:f1:22:6b:2c:dd:8e:1b:02:bb:9e:
         c5:20:d5:82:8b:b5:9f:36:48:7a:45:f8:12:24:02:a8:e0:f9:
         e7:b1:49:36:86:e2:97:1b:07:3e:2c:e6:eb:db:62:a7:46:b3:
         b2:60:ed:f0:57:2d:59:db:9b:40:27:33:ce:04:62:73:46:33:
         32:34:f8:52:f5:83:83:1e:cb:80:fc:fc:3f:8b:cc:83:14:b5:
         58:09:59:28:3a:1e:25:0c:98:75:e0:04:4f:f9:97:c8:ae:6c:
         b3:3c:c7:f8:3c:e5:ee:42:ac:bf:60:73:22:b9:55:f0:1f:31:
         f7:fc:e5:70:65:93:eb:21:6d:27:d3:9e:f5:a0:8c:8f:ff:36:
         fb:4e:17:4a:3a:e3:1a:b9:f3:22:db:c9:d4:93:f8:74:52:64:
         e2:70:b8:5b:ac:4f:ae:9e:ca:e5:e7:53:b1:0d:76:5e:cc:46:
         14:b6:94:3b:09:a8:49:73:16:83:08:56:d1:52:3b:64:e9:00:
         16:8e:de:7e:92:63:55:76:9a:61:38:33:20:86:cc:87:f7:bf:
         2f:08:37:38:34:27:a3:bc:76:2e:fb:ac:6b:b9:7d:28:c3:cc:
         7b:53:86:da:bb:e8:63:58:32:05:0d:c1:8f:fb:8c:df:ee:cd:
         4d:fc:d5:89:eb:ed:27:61:bf:47:08:80:43:94:29:33:b0:2d:
         41:cf:54:07:33:5f:9c:eb:c8:c7:f2:ef:c0:ae:72:2b:4d:ac:
         94:dc:a7:ad:ab:9a:84:a5:a9:91:6c:09:97:bc:8b:ae:df:fa:
         8e:7a:19:2c:60:5f:a3:ac:e3:f9:6a:22:24:54:83:cd:35:f6:
         9e:8d:a5:f0:92:29:13:33:c2:6b:22:7a:91:9b:91:65:79:3c:
         dd:e7:74:0f:ec:91:ec:15:98:e6:55:a7:cc:ab:87:17:30:f0:
         e7:89:0f:d5:ac:25:f9:d8:a7:8d:85:65:56:74:74:31:b9:38:
         fe:c8:22:7e:08:2c:da:76:ba:2a:d8:ae:a6:cd:5a:ff:07:82:
         c7:76:7c:48:49:91:30:96
-----BEGIN CERTIFICATE-----
MIIGrDCCBJSgAwIBAgICHYwwDQYJKoZIhvcNAQEEBQAwgawxCzAJBgNVBAYTAlVT
MQswCQYDVQQIEwJPSDERMA8GA1UEBxMIQ29sdW1idXMxEjAQBgNVBAoTCVZpa2lu
Z1ZQTjEdMBsGA1UECxMUTXlPcmdhbml6YXRpb25hbFVuaXQxFTATBgNVBAMTDFZp
a2luZ1ZQTiBDQTEQMA4GA1UEKRMHRWFzeVJTQTEhMB8GCSqGSIb3DQEJARYSbWVA
bXlob3N0Lm15ZG9tYWluMB4XDTE2MDMxOTAxMjYxMFoXDTI2MDMxNzAxMjYxMFow
HjEcMBoGA1UEAxMTQ2xpZW50ODI0Q2VydGQ5ODU5YzCCAiIwDQYJKoZIhvcNAQEB
BQADggIPADCCAgoCggIBAOgB75pxJrlxx3kJ35qJywnlFhxRalwdrHdaF6rxwQGc
mda/pMJzEsTf9lULEjEIAfz2ESVsyz36lcOzavkriiKvTnef08tc7v6XB0638RH0
V7vWYOB38e/zr4yiTWqmUumPbxaAcsXWf6D3GZjLF5ytPcwku5YocML/RlPqPTwh
bPeQTjsh1wWCdD8TzCSpi0dUkeNF8bxs600wCgdkJKyEPpdIPebim49qk12B6Wl/
MbYaT6Y2/hdxK0VmN49O3Jrki3GHsAYAZTBkm0ac7eyKs9Xit+GFswzzhpi++dLe
rx9iUSt3kdWLLgVs6AoLa9FSiF5UDu0QWHJUYNlfsHSd6bIBRbTiEpsDLUzrkDz0
BQ/rbJmDM/JwTZYZmO1c+suBrtwEK9VrzsJUwEIsUzpuhJ0sZ72FOjaVWcx2UfVw
IllPDXZ5hHNP1pG7DSN5BsNP9vwu6yyH9FDqyVDhaVVHf04JzWg49DLiCELSHKip
/6OVDz8WwCMdmpIgZn2DNfG//lXwCoJtNFfdidmFXLXZuxh78nmfIzDF1x1MBznB
dep/payaPRwM5UNbloFhQVldwk0yTB/pzoHbGgdPDLAi0mmQFRYLoVviYPxqNF9u
jOoudxahCCHrhXVJMmGW6FXLZYGuCzm0nvb8hj5MNTpF2Jl4mloIoLfYoLt+DZGx
AgMBAAGjggFjMIIBXzAJBgNVHRMEAjAAMC0GCWCGSAGG+EIBDQQgFh5FYXN5LVJT
QSBHZW5lcmF0ZWQgQ2VydGlmaWNhdGUwHQYDVR0OBBYEFNxdLOgv/FrOiZAPnknI
8PViIzTEMIHhBgNVHSMEgdkwgdaAFBLNYATSoICecO3Gmbh7LMZS/RmhoYGypIGv
MIGsMQswCQYDVQQGEwJVUzELMAkGA1UECBMCT0gxETAPBgNVBAcTCENvbHVtYnVz
MRIwEAYDVQQKEwlWaWtpbmdWUE4xHTAbBgNVBAsTFE15T3JnYW5pemF0aW9uYWxV
bml0MRUwEwYDVQQDEwxWaWtpbmdWUE4gQ0ExEDAOBgNVBCkTB0Vhc3lSU0ExITAf
BgkqhkiG9w0BCQEWEm1lQG15aG9zdC5teWRvbWFpboIJAM81he6Avyo+MBMGA1Ud
JQQMMAoGCCsGAQUFBwMCMAsGA1UdDwQEAwIHgDANBgkqhkiG9w0BAQQFAAOCAgEA
tyhLg+mFa/gcgjrfMyRy34GY+J5CdWxJ2LQDjaJ6T5gra/pm3kwRj+A7uq48z0UW
cIWB1JDS9qLZXFYm9F8JpDiJhtESn6pPkp1FyOOa083SKa1izAZmxdB40YbX8mEP
gObR8VwxGKh/UWLn4ap1cJzGwRPxImss3Y4bAruexSDVgou1nzZIekX4EiQCqOD5
57FJNobilxsHPizm69tip0azsmDt8FctWdubQCczzgRic0YzMjT4UvWDgx7LgPz8
P4vMgxS1WAlZKDoeJQyYdeAET/mXyK5sszzH+Dzl7kKsv2BzIrlV8B8x9/zlcGWT
6yFtJ9Oe9aCMj/82+04XSjrjGrnzItvJ1JP4dFJk4nC4W6xPrp7K5edTsQ12XsxG
FLaUOwmoSXMWgwhW0VI7ZOkAFo7efpJjVXaaYTgzIIbMh/e/Lwg3ODQno7x2Lvus
a7l9KMPMe1OG2rvoY1gyBQ3Bj/uM3+7NTfzVievtJ2G/RwiAQ5QpM7AtQc9UBzNf
nOvIx/LvwK5yK02slNynrauahKWpkWwJl7yLrt/6jnoZLGBfo6zj+WoiJFSDzTX2
no2l8JIpEzPCayJ6kZuRZXk83ed0D+yR7BWY5lWnzKuHFzDw54kP1awl+dinjYVl
VnR0Mbk4/sgifggs2na6Ktiups1a/weCx3Z8SEmRMJY=
-----END CERTIFICATE-----
