Certificate:
    Data:
        Version: 3 (0x2)
        Serial Number: 4627 (0x1213)
    Signature Algorithm: md5WithRSAEncryption
        Issuer: C=US, ST=OH, L=Columbus, O=VikingVPN, OU=MyOrganizationalUnit, CN=VikingVPN CA/name=EasyRSA/emailAddress=me@myhost.mydomain
        Validity
            Not Before: Mar  1 20:52:33 2015 GMT
            Not After : Feb 26 20:52:33 2025 GMT
        Subject: CN=Client813Certdbc55f
        Subject Public Key Info:
            Public Key Algorithm: rsaEncryption
                Public-Key: (4096 bit)
                Modulus:
                    00:ac:9a:ba:0c:7a:af:78:97:a6:bf:91:17:36:c8:
                    1e:31:68:1e:cd:c8:41:0b:7b:d8:e3:73:89:1b:26:
                    c0:52:cc:5f:99:6d:02:39:e8:0d:40:1d:57:e1:ea:
                    77:f7:85:aa:dd:82:0a:52:9b:87:86:09:65:e4:12:
                    8c:6e:b1:ce:bd:81:51:ca:fa:19:e2:55:0a:bf:2e:
                    35:bc:70:17:c1:97:20:ca:e7:dc:b4:e2:a9:24:64:
                    3d:e1:0b:57:94:2a:41:b0:ca:95:cf:01:a2:e5:92:
                    c2:5f:fe:34:91:09:68:29:df:e6:1c:51:cc:4b:3b:
                    fb:7d:d0:80:fd:47:7e:af:b1:7f:a9:6f:fd:10:7a:
                    fd:2a:e8:a5:fa:c5:be:5a:0d:5e:2b:a7:32:8d:78:
                    bb:56:ba:cf:4d:f8:06:fc:48:f2:ea:fd:63:e5:db:
                    e9:be:ff:72:77:50:f5:ae:21:65:b9:1e:1b:f5:3c:
                    79:3b:b5:3d:c4:d3:94:8e:e2:ee:e5:fc:db:83:ce:
                    d6:a8:c5:6d:f3:2f:f9:d0:16:a4:ac:1b:8f:5f:bc:
                    98:d3:ff:cb:c5:ef:2d:8d:38:1d:73:cd:4b:d5:86:
                    63:fb:20:8b:4a:66:97:0f:16:5e:10:58:cc:f7:f8:
                    6b:34:d0:ce:46:33:b3:9e:20:84:31:fb:9b:61:b6:
                    2f:d1:9d:58:b6:af:14:e6:1c:f7:23:68:6d:66:eb:
                    5d:c0:ac:f7:1f:79:74:45:f6:34:52:25:d3:fa:04:
                    f5:f2:d5:52:17:ff:45:78:16:48:d7:d7:7f:92:92:
                    b9:a8:52:12:df:24:0f:27:b7:42:96:ca:65:e5:c4:
                    88:ca:48:e4:06:17:f5:83:38:38:5a:db:7e:4a:10:
                    90:d1:0f:51:ec:7a:08:8c:ec:04:16:4f:0e:4e:b4:
                    a0:e6:26:d1:e7:b8:81:4b:fe:60:84:6d:50:aa:66:
                    68:d2:d5:39:29:11:51:be:71:e3:8c:d9:f4:04:09:
                    24:7e:6c:a4:a1:07:92:2c:01:5d:86:52:92:7f:e4:
                    1a:d1:d3:6e:c1:fd:a4:0c:89:c5:c5:df:b2:d8:73:
                    75:23:d4:60:11:9a:cf:63:79:f3:18:fa:35:eb:2b:
                    2f:00:70:27:77:7a:f5:3e:1c:37:af:5f:8b:57:36:
                    ee:92:25:d6:34:73:ad:5c:5f:3c:96:67:f2:74:d5:
                    37:7c:8d:c5:ce:8c:e3:25:72:85:36:75:c8:f8:ab:
                    c8:7f:4b:fe:c4:e4:e4:a0:53:b2:9c:e9:8a:ed:a7:
                    7c:a4:e4:a1:c1:22:ca:ed:6e:a1:db:fa:f6:7f:ea:
                    c7:c1:d2:45:8c:16:40:ec:bc:ad:c9:fc:98:b7:9c:
                    8f:a4:05
                Exponent: 65537 (0x10001)
        X509v3 extensions:
            X509v3 Basic Constraints: 
                CA:FALSE
            Netscape Comment: 
                Easy-RSA Generated Certificate
            X509v3 Subject Key Identifier: 
                35:44:38:85:E9:39:6F:84:8A:9A:4D:95:50:56:86:6C:0D:F5:6A:57
            X509v3 Authority Key Identifier: 
                keyid:12:CD:60:04:D2:A0:80:9E:70:ED:C6:99:B8:7B:2C:C6:52:FD:19:A1
                DirName:/C=US/ST=OH/L=Columbus/O=VikingVPN/OU=MyOrganizationalUnit/CN=VikingVPN CA/name=EasyRSA/emailAddress=me@myhost.mydomain
                serial:CF:35:85:EE:80:BF:2A:3E

            X509v3 Extended Key Usage: 
                TLS Web Client Authentication
            X509v3 Key Usage: 
                Digital Signature
    Signature Algorithm: md5WithRSAEncryption
         10:f2:06:6d:5d:eb:75:ad:50:20:04:66:d9:4d:8b:f9:9c:8c:
         69:bf:57:0b:11:94:ee:37:90:62:5f:63:b5:0a:d5:b1:0d:b4:
         1c:2e:30:5f:32:0b:6f:9e:47:e3:b9:ff:cf:76:74:e5:01:58:
         fe:e6:b3:d9:9f:42:9f:e9:ab:2d:42:93:8a:14:4b:c5:58:bc:
         2a:04:ba:c3:a3:06:f1:ca:a5:7e:62:6f:01:53:5e:04:e2:e9:
         c8:0f:d0:fe:c5:37:70:12:aa:31:c3:b3:87:eb:4a:93:3f:02:
         94:a7:fb:17:cc:53:26:8a:b1:ee:2f:07:d7:e3:eb:86:33:15:
         eb:17:75:82:7b:f4:b0:72:52:da:ba:42:4b:1c:91:03:43:79:
         7f:d7:1d:a2:cc:b9:8a:1f:f2:5b:07:db:8a:5e:b3:a7:73:56:
         81:01:af:94:0f:25:9c:ab:88:93:de:1b:6f:32:ef:23:f1:7d:
         92:0d:e9:dd:db:ac:89:e5:80:87:cd:64:bd:7f:90:71:1c:49:
         ac:48:3d:1b:fd:ca:56:0a:cc:ca:7c:75:7d:b9:cc:6e:e2:38:
         1c:7f:00:5e:1e:fe:04:a8:bb:31:35:51:73:9a:05:ce:e0:de:
         9b:8e:08:7f:80:95:d6:cc:a7:b8:2f:09:87:f6:77:00:92:01:
         ee:6a:7a:4c:88:4b:16:81:1c:af:e4:a9:90:2f:26:52:31:3a:
         7d:d1:35:58:62:8c:2a:60:b4:88:57:2d:a2:b9:ac:cf:a0:18:
         50:53:cc:be:6f:72:df:42:49:74:3e:84:b5:a3:19:35:eb:c5:
         a7:d8:65:fa:ec:4f:59:6a:be:99:15:43:24:a5:b3:a0:4c:39:
         a5:3d:94:84:e0:bf:b3:f5:5a:2b:25:da:ce:3c:70:42:3f:e1:
         7e:8a:89:82:d2:d4:de:63:c6:e8:03:f3:1f:1d:d9:7d:0f:df:
         64:c0:9d:a9:ec:5b:e5:20:96:da:03:ac:ef:79:74:d2:94:80:
         34:10:68:74:eb:c2:49:ef:22:b5:ee:a1:a1:8d:ad:95:50:72:
         09:39:61:3b:68:3d:e9:ff:11:e2:ec:50:b9:7a:25:13:fc:d3:
         29:38:28:1c:88:b1:fe:19:ef:8e:58:48:63:2c:de:ff:2c:b0:
         18:b6:c4:61:f7:87:ee:df:fa:4c:9b:1f:57:d5:9d:41:1c:12:
         24:5d:b2:5d:57:68:15:1e:41:98:c5:62:30:d4:f5:fd:6c:5d:
         6a:d9:3f:79:2e:fc:db:52:97:8a:a6:ff:9b:b0:4b:87:b9:21:
         71:c2:10:33:5a:9c:8e:7c:a8:52:ed:18:3d:8f:27:6b:5b:58:
         61:f5:5f:2c:11:6a:ec:f1
-----BEGIN CERTIFICATE-----
MIIGrDCCBJSgAwIBAgICEhMwDQYJKoZIhvcNAQEEBQAwgawxCzAJBgNVBAYTAlVT
MQswCQYDVQQIEwJPSDERMA8GA1UEBxMIQ29sdW1idXMxEjAQBgNVBAoTCVZpa2lu
Z1ZQTjEdMBsGA1UECxMUTXlPcmdhbml6YXRpb25hbFVuaXQxFTATBgNVBAMTDFZp
a2luZ1ZQTiBDQTEQMA4GA1UEKRMHRWFzeVJTQTEhMB8GCSqGSIb3DQEJARYSbWVA
bXlob3N0Lm15ZG9tYWluMB4XDTE1MDMwMTIwNTIzM1oXDTI1MDIyNjIwNTIzM1ow
HjEcMBoGA1UEAxMTQ2xpZW50ODEzQ2VydGRiYzU1ZjCCAiIwDQYJKoZIhvcNAQEB
BQADggIPADCCAgoCggIBAKyaugx6r3iXpr+RFzbIHjFoHs3IQQt72ONziRsmwFLM
X5ltAjnoDUAdV+Hqd/eFqt2CClKbh4YJZeQSjG6xzr2BUcr6GeJVCr8uNbxwF8GX
IMrn3LTiqSRkPeELV5QqQbDKlc8BouWSwl/+NJEJaCnf5hxRzEs7+33QgP1Hfq+x
f6lv/RB6/SropfrFvloNXiunMo14u1a6z034BvxI8ur9Y+Xb6b7/cndQ9a4hZbke
G/U8eTu1PcTTlI7i7uX824PO1qjFbfMv+dAWpKwbj1+8mNP/y8XvLY04HXPNS9WG
Y/sgi0pmlw8WXhBYzPf4azTQzkYzs54ghDH7m2G2L9GdWLavFOYc9yNobWbrXcCs
9x95dEX2NFIl0/oE9fLVUhf/RXgWSNfXf5KSuahSEt8kDye3QpbKZeXEiMpI5AYX
9YM4OFrbfkoQkNEPUex6CIzsBBZPDk60oOYm0ee4gUv+YIRtUKpmaNLVOSkRUb5x
44zZ9AQJJH5spKEHkiwBXYZSkn/kGtHTbsH9pAyJxcXfsthzdSPUYBGaz2N58xj6
NesrLwBwJ3d69T4cN69fi1c27pIl1jRzrVxfPJZn8nTVN3yNxc6M4yVyhTZ1yPir
yH9L/sTk5KBTspzpiu2nfKTkocEiyu1uodv69n/qx8HSRYwWQOy8rcn8mLecj6QF
AgMBAAGjggFjMIIBXzAJBgNVHRMEAjAAMC0GCWCGSAGG+EIBDQQgFh5FYXN5LVJT
QSBHZW5lcmF0ZWQgQ2VydGlmaWNhdGUwHQYDVR0OBBYEFDVEOIXpOW+EippNlVBW
hmwN9WpXMIHhBgNVHSMEgdkwgdaAFBLNYATSoICecO3Gmbh7LMZS/RmhoYGypIGv
MIGsMQswCQYDVQQGEwJVUzELMAkGA1UECBMCT0gxETAPBgNVBAcTCENvbHVtYnVz
MRIwEAYDVQQKEwlWaWtpbmdWUE4xHTAbBgNVBAsTFE15T3JnYW5pemF0aW9uYWxV
bml0MRUwEwYDVQQDEwxWaWtpbmdWUE4gQ0ExEDAOBgNVBCkTB0Vhc3lSU0ExITAf
BgkqhkiG9w0BCQEWEm1lQG15aG9zdC5teWRvbWFpboIJAM81he6Avyo+MBMGA1Ud
JQQMMAoGCCsGAQUFBwMCMAsGA1UdDwQEAwIHgDANBgkqhkiG9w0BAQQFAAOCAgEA
EPIGbV3rda1QIARm2U2L+ZyMab9XCxGU7jeQYl9jtQrVsQ20HC4wXzILb55H47n/
z3Z05QFY/uaz2Z9Cn+mrLUKTihRLxVi8KgS6w6MG8cqlfmJvAVNeBOLpyA/Q/sU3
cBKqMcOzh+tKkz8ClKf7F8xTJoqx7i8H1+PrhjMV6xd1gnv0sHJS2rpCSxyRA0N5
f9cdosy5ih/yWwfbil6zp3NWgQGvlA8lnKuIk94bbzLvI/F9kg3p3dusieWAh81k
vX+QcRxJrEg9G/3KVgrMynx1fbnMbuI4HH8AXh7+BKi7MTVRc5oFzuDem44If4CV
1synuC8Jh/Z3AJIB7mp6TIhLFoEcr+SpkC8mUjE6fdE1WGKMKmC0iFctormsz6AY
UFPMvm9y30JJdD6EtaMZNevFp9hl+uxPWWq+mRVDJKWzoEw5pT2UhOC/s/VaKyXa
zjxwQj/hfoqJgtLU3mPG6APzHx3ZfQ/fZMCdqexb5SCW2gOs73l00pSANBBodOvC
Se8ite6hoY2tlVByCTlhO2g96f8R4uxQuXolE/zTKTgoHIix/hnvjlhIYyze/yyw
GLbEYfeH7t/6TJsfV9WdQRwSJF2yXVdoFR5BmMViMNT1/Wxdatk/eS7821KXiqb/
m7BLh7khccIQM1qcjnyoUu0YPY8na1tYYfVfLBFq7PE=
-----END CERTIFICATE-----
