Certificate:
    Data:
        Version: 3 (0x2)
        Serial Number: 9762 (0x2622)
    Signature Algorithm: sha256WithRSAEncryption
        Issuer: C=US, ST=OH, L=Columbus, O=VikingVPN, OU=MyOrganizationalUnit, CN=VikingVPN CA/name=EasyRSA/emailAddress=me@myhost.mydomain
        Validity
            Not Before: Dec 26 05:24:50 2016 GMT
            Not After : Dec 24 05:24:50 2026 GMT
        Subject: CN=Client1399Certd48ef3
        Subject Public Key Info:
            Public Key Algorithm: rsaEncryption
                Public-Key: (4096 bit)
                Modulus:
                    00:de:8e:e9:22:64:4a:b2:a9:d4:78:6e:9e:76:f9:
                    12:ab:5a:b5:87:52:c6:77:6c:d9:a1:ab:25:da:59:
                    37:6b:94:c7:5d:bd:61:78:be:d5:b5:ce:7f:04:ab:
                    38:92:a0:07:28:c9:27:6f:d9:51:6c:d9:79:6c:98:
                    9d:6e:fd:ef:65:dd:e1:bb:e2:5d:f4:92:7b:2d:a1:
                    d7:3e:fc:25:49:a3:c3:30:da:13:07:6c:92:1a:5a:
                    1d:84:e0:e5:82:5a:59:35:13:13:7d:88:a7:90:dd:
                    9b:7a:bd:a7:2f:c7:40:ec:49:8c:fc:c7:2d:74:93:
                    33:0c:84:f7:d0:e9:91:09:c2:c6:b4:5c:a0:41:25:
                    96:dd:a9:0f:6f:f5:91:46:2d:60:2c:cc:f6:6f:e6:
                    b0:71:8f:5d:d2:ab:70:f0:5b:42:aa:1c:13:30:48:
                    7e:56:75:d9:e8:85:65:9c:e2:e6:64:27:b5:91:64:
                    8f:98:87:f2:8e:63:56:38:bf:45:49:a2:bf:f4:8a:
                    42:1d:f3:75:26:ce:90:52:06:f8:14:b5:53:8a:7d:
                    94:ad:b8:35:c7:0b:57:4e:55:e1:11:2e:99:71:44:
                    68:d0:13:46:36:bb:c5:00:ec:01:5b:d9:4c:34:1b:
                    6c:56:03:96:7f:7e:fe:5a:15:d7:c3:79:f3:31:ec:
                    ad:f4:25:d9:f2:3e:23:a2:83:d6:02:15:df:a0:97:
                    fb:72:b5:b6:ea:50:83:28:18:dc:e3:f6:70:76:a7:
                    70:46:02:c0:2f:d8:92:45:f8:fb:b9:ba:f4:15:d0:
                    5a:e7:f3:3e:5d:ba:20:e3:81:14:0d:88:d8:ac:ab:
                    b6:28:7a:c4:6b:44:ca:bc:f9:f3:fd:04:65:d6:77:
                    81:94:23:b4:03:67:98:35:df:80:cc:a9:39:20:95:
                    8e:d6:ac:d1:3d:fb:e9:64:aa:a9:8c:51:a8:bd:6e:
                    19:5b:f7:19:f7:98:ba:6a:ef:ac:17:48:e0:35:09:
                    3b:e1:4d:b1:30:56:45:67:52:ed:06:16:6a:2b:43:
                    c3:36:66:ea:db:27:1a:11:65:22:95:fa:71:eb:aa:
                    65:b3:15:99:44:c3:2c:65:f6:2f:d1:18:ec:39:de:
                    95:d2:31:0f:b7:d5:1e:9b:bf:f9:16:10:e3:9c:f8:
                    e9:a5:77:e7:4b:50:7a:82:88:d3:b4:57:43:8b:e0:
                    18:67:39:a7:8c:b3:a0:0f:16:52:c1:37:9f:87:64:
                    d4:19:a6:6a:d4:12:fa:0e:a9:ad:ad:d3:54:33:b7:
                    67:d4:6e:49:e8:c1:0a:40:22:b2:03:70:35:2e:31:
                    ff:3b:91:97:f1:6a:79:6b:80:72:b3:1f:03:16:6d:
                    57:3d:ad
                Exponent: 65537 (0x10001)
        X509v3 extensions:
            X509v3 Basic Constraints: 
                CA:FALSE
            Netscape Comment: 
                Easy-RSA Generated Certificate
            X509v3 Subject Key Identifier: 
                60:B6:AA:79:D4:7A:55:5B:F3:9C:89:C0:71:53:48:5C:FA:83:29:6C
            X509v3 Authority Key Identifier: 
                keyid:12:CD:60:04:D2:A0:80:9E:70:ED:C6:99:B8:7B:2C:C6:52:FD:19:A1
                DirName:/C=US/ST=OH/L=Columbus/O=VikingVPN/OU=MyOrganizationalUnit/CN=VikingVPN CA/name=EasyRSA/emailAddress=me@myhost.mydomain
                serial:CF:35:85:EE:80:BF:2A:3E

            X509v3 Extended Key Usage: 
                TLS Web Client Authentication
            X509v3 Key Usage: 
                Digital Signature
    Signature Algorithm: sha256WithRSAEncryption
         e9:f8:b8:20:e1:e9:80:b3:c1:2a:2e:a8:a0:a0:45:c5:42:dd:
         30:0b:2f:85:07:8f:12:59:0f:9a:89:47:b6:ce:20:ac:4f:d1:
         6e:ee:e2:ae:78:84:1a:cc:94:e1:a2:51:67:27:d0:80:38:9d:
         27:33:05:2d:36:38:34:68:85:ba:af:bf:85:7d:6f:1f:18:83:
         c9:13:9c:48:49:93:cd:5a:89:46:b9:e4:9b:24:82:88:e4:bf:
         16:37:d7:a4:8d:c7:42:6a:55:b7:86:7a:2e:aa:5d:4d:7f:9a:
         1c:52:c4:f1:97:ad:54:e5:ff:6c:65:c9:35:d3:19:9d:4e:c1:
         14:b8:38:ed:88:93:38:08:2b:9b:64:17:97:92:d9:e2:a4:e3:
         6e:d4:8c:44:e4:cc:fd:40:fd:63:de:03:b6:88:f6:a1:f5:29:
         9d:16:d2:9a:9a:c9:91:51:37:0b:91:1d:02:78:18:36:82:4d:
         1a:05:9f:b0:f1:96:3d:9a:60:fa:f7:97:36:4c:4a:be:fd:62:
         9d:40:c9:58:34:59:b8:b0:d9:32:ac:65:a1:e7:94:2f:2f:25:
         9e:59:69:f6:34:88:b0:d1:de:8e:64:54:70:a9:a8:b4:d0:f0:
         45:f8:3f:99:90:12:4f:0e:37:db:31:62:3f:60:70:b8:0d:6c:
         2c:6c:89:64:b6:c5:80:8f:06:74:6b:64:3a:d2:5f:b5:1f:8f:
         66:b3:16:ab:1f:18:8d:32:e8:77:8a:4d:05:9b:9e:9b:02:d2:
         80:fa:30:fe:f1:05:78:5c:3a:77:4c:12:ed:51:89:9c:87:2d:
         64:2a:0b:ba:33:40:17:61:6d:bd:8a:1f:61:5b:b6:c4:63:8a:
         6c:23:f1:ec:16:3b:05:88:bd:a5:11:d5:8d:1e:13:1b:55:f8:
         f5:d8:c6:59:19:28:f9:b2:dd:66:95:25:5f:73:f9:85:ce:17:
         88:1e:d1:39:76:f1:41:00:cb:f6:3a:d1:c1:fe:37:a7:69:39:
         30:53:47:4d:2d:b7:56:5f:04:24:6c:30:86:7b:3a:c4:d1:d7:
         36:38:f2:5e:d4:3d:86:5d:53:3b:90:f9:f9:d6:8e:d6:ff:16:
         c8:15:8e:44:51:ee:97:89:03:77:ed:b6:a0:b7:48:47:c0:1e:
         e9:d8:28:9e:1f:41:ac:f5:9d:a4:38:76:bb:95:d3:de:14:22:
         3d:da:bb:44:23:bd:bf:b8:62:03:99:ac:62:40:58:11:23:7f:
         ca:38:51:34:44:9d:13:88:47:e7:01:8b:bd:4f:36:d5:3b:73:
         04:bf:23:4f:43:7d:3b:2e:e1:42:03:d0:08:d3:12:23:a9:17:
         79:d5:ba:0d:7c:44:87:ee
-----BEGIN CERTIFICATE-----
MIIGrTCCBJWgAwIBAgICJiIwDQYJKoZIhvcNAQELBQAwgawxCzAJBgNVBAYTAlVT
MQswCQYDVQQIEwJPSDERMA8GA1UEBxMIQ29sdW1idXMxEjAQBgNVBAoTCVZpa2lu
Z1ZQTjEdMBsGA1UECxMUTXlPcmdhbml6YXRpb25hbFVuaXQxFTATBgNVBAMTDFZp
a2luZ1ZQTiBDQTEQMA4GA1UEKRMHRWFzeVJTQTEhMB8GCSqGSIb3DQEJARYSbWVA
bXlob3N0Lm15ZG9tYWluMB4XDTE2MTIyNjA1MjQ1MFoXDTI2MTIyNDA1MjQ1MFow
HzEdMBsGA1UEAxMUQ2xpZW50MTM5OUNlcnRkNDhlZjMwggIiMA0GCSqGSIb3DQEB
AQUAA4ICDwAwggIKAoICAQDejukiZEqyqdR4bp52+RKrWrWHUsZ3bNmhqyXaWTdr
lMddvWF4vtW1zn8EqziSoAcoySdv2VFs2XlsmJ1u/e9l3eG74l30knstodc+/CVJ
o8Mw2hMHbJIaWh2E4OWCWlk1ExN9iKeQ3Zt6vacvx0DsSYz8xy10kzMMhPfQ6ZEJ
wsa0XKBBJZbdqQ9v9ZFGLWAszPZv5rBxj13Sq3DwW0KqHBMwSH5WddnohWWc4uZk
J7WRZI+Yh/KOY1Y4v0VJor/0ikId83UmzpBSBvgUtVOKfZStuDXHC1dOVeERLplx
RGjQE0Y2u8UA7AFb2Uw0G2xWA5Z/fv5aFdfDefMx7K30JdnyPiOig9YCFd+gl/ty
tbbqUIMoGNzj9nB2p3BGAsAv2JJF+Pu5uvQV0Frn8z5duiDjgRQNiNisq7YoesRr
RMq8+fP9BGXWd4GUI7QDZ5g134DMqTkglY7WrNE9++lkqqmMUai9bhlb9xn3mLpq
76wXSOA1CTvhTbEwVkVnUu0GFmorQ8M2ZurbJxoRZSKV+nHrqmWzFZlEwyxl9i/R
GOw53pXSMQ+31R6bv/kWEOOc+Omld+dLUHqCiNO0V0OL4BhnOaeMs6APFlLBN5+H
ZNQZpmrUEvoOqa2t01Qzt2fUbknowQpAIrIDcDUuMf87kZfxanlrgHKzHwMWbVc9
rQIDAQABo4IBYzCCAV8wCQYDVR0TBAIwADAtBglghkgBhvhCAQ0EIBYeRWFzeS1S
U0EgR2VuZXJhdGVkIENlcnRpZmljYXRlMB0GA1UdDgQWBBRgtqp51HpVW/OcicBx
U0hc+oMpbDCB4QYDVR0jBIHZMIHWgBQSzWAE0qCAnnDtxpm4eyzGUv0ZoaGBsqSB
rzCBrDELMAkGA1UEBhMCVVMxCzAJBgNVBAgTAk9IMREwDwYDVQQHEwhDb2x1bWJ1
czESMBAGA1UEChMJVmlraW5nVlBOMR0wGwYDVQQLExRNeU9yZ2FuaXphdGlvbmFs
VW5pdDEVMBMGA1UEAxMMVmlraW5nVlBOIENBMRAwDgYDVQQpEwdFYXN5UlNBMSEw
HwYJKoZIhvcNAQkBFhJtZUBteWhvc3QubXlkb21haW6CCQDPNYXugL8qPjATBgNV
HSUEDDAKBggrBgEFBQcDAjALBgNVHQ8EBAMCB4AwDQYJKoZIhvcNAQELBQADggIB
AOn4uCDh6YCzwSouqKCgRcVC3TALL4UHjxJZD5qJR7bOIKxP0W7u4q54hBrMlOGi
UWcn0IA4nSczBS02ODRohbqvv4V9bx8Yg8kTnEhJk81aiUa55JskgojkvxY316SN
x0JqVbeGei6qXU1/mhxSxPGXrVTl/2xlyTXTGZ1OwRS4OO2IkzgIK5tkF5eS2eKk
427UjETkzP1A/WPeA7aI9qH1KZ0W0pqayZFRNwuRHQJ4GDaCTRoFn7Dxlj2aYPr3
lzZMSr79Yp1AyVg0Wbiw2TKsZaHnlC8vJZ5ZafY0iLDR3o5kVHCpqLTQ8EX4P5mQ
Ek8ON9sxYj9gcLgNbCxsiWS2xYCPBnRrZDrSX7Ufj2azFqsfGI0y6HeKTQWbnpsC
0oD6MP7xBXhcOndMEu1RiZyHLWQqC7ozQBdhbb2KH2FbtsRjimwj8ewWOwWIvaUR
1Y0eExtV+PXYxlkZKPmy3WaVJV9z+YXOF4ge0Tl28UEAy/Y60cH+N6dpOTBTR00t
t1ZfBCRsMIZ7OsTR1zY48l7UPYZdUzuQ+fnWjtb/FsgVjkRR7peJA3fttqC3SEfA
HunYKJ4fQaz1naQ4druV094UIj3au0Qjvb+4YgOZrGJAWBEjf8o4UTREnROIR+cB
i71PNtU7cwS/I09DfTsu4UID0AjTEiOpF3nVug18RIfu
-----END CERTIFICATE-----
