Certificate:
    Data:
        Version: 3 (0x2)
        Serial Number: 1651 (0x673)
    Signature Algorithm: md5WithRSAEncryption
        Issuer: C=US, ST=OH, L=Columbus, O=VikingVPN, OU=MyOrganizationalUnit, CN=VikingVPN CA/name=EasyRSA/emailAddress=me@myhost.mydomain
        Validity
            Not Before: Apr 16 12:03:57 2014 GMT
            Not After : Apr 13 12:03:57 2024 GMT
        Subject: CN=Client584Cert39d99b
        Subject Public Key Info:
            Public Key Algorithm: rsaEncryption
                Public-Key: (4096 bit)
                Modulus:
                    00:c7:61:51:b2:8f:7c:f7:32:f2:54:0c:b6:a4:a5:
                    ec:34:ba:a5:72:c1:48:93:5a:68:23:80:cf:78:ec:
                    e7:84:10:6f:6d:1d:cf:84:2c:0c:3b:18:35:d5:50:
                    d0:8e:7e:49:a9:b7:fe:ba:bc:1a:8d:18:99:ca:5e:
                    9a:bf:85:df:68:8e:a6:ae:f3:a9:40:a2:82:d5:6c:
                    85:46:cf:95:b0:05:05:f0:11:94:6a:c1:10:29:ed:
                    12:16:ed:d2:d5:7f:56:70:85:41:f5:05:dc:bf:1b:
                    39:91:df:bb:fa:25:20:94:5d:57:58:79:7d:34:fa:
                    df:e4:aa:b0:87:e1:e8:d5:c4:1d:8d:e4:dc:5e:e3:
                    e2:a1:9f:1a:61:e9:8f:9a:8f:9b:7f:56:96:97:8d:
                    e0:87:97:a6:42:39:23:33:29:a1:18:0a:06:51:f7:
                    b0:ff:ce:0e:0c:de:c8:ba:0e:b7:25:ec:35:a2:e0:
                    a9:3b:0c:c8:b7:80:f8:49:d1:78:24:16:35:ff:e3:
                    4b:69:cc:ba:8a:9b:31:2e:c1:42:dd:ab:f6:e2:f4:
                    76:55:1e:29:32:07:24:2d:ed:87:fb:d8:2e:4e:c3:
                    80:b8:45:6f:65:bf:37:e5:53:75:50:9d:52:cb:32:
                    c2:a8:86:5e:d2:c8:8d:6e:f4:f6:df:7f:e3:47:6b:
                    7c:93:52:b1:8c:05:31:b8:b7:7f:cb:da:d4:a4:0d:
                    4e:62:71:39:26:46:07:03:d4:1e:bb:68:ff:90:48:
                    af:85:b8:da:8e:20:5a:4b:dd:fb:ea:ad:62:e3:11:
                    88:12:30:0c:c9:c7:4d:a8:83:ed:dd:9f:e2:ad:e2:
                    7e:bd:79:1c:7e:93:c4:0f:c2:00:40:a3:c1:f2:48:
                    d8:c6:db:77:50:fc:83:5d:81:45:07:48:60:bc:99:
                    80:e5:04:b7:66:8e:11:42:53:2e:8e:b0:db:a4:ac:
                    74:5d:72:17:2a:ba:97:cc:c2:67:b5:3b:3e:a1:4b:
                    87:e6:31:09:e9:af:96:d9:c4:a8:3e:9a:50:f1:22:
                    3e:50:9a:13:5f:58:89:90:0c:da:11:11:62:9f:fe:
                    f0:ab:97:98:87:ee:c7:0c:f2:98:84:29:4a:ef:99:
                    51:7b:4c:e9:55:48:5f:9f:58:6c:37:7d:43:73:6c:
                    51:85:24:c1:40:b7:1a:88:a8:c2:ef:34:76:85:60:
                    d5:73:e0:cb:93:11:9f:fc:73:5c:e7:b3:82:d2:2a:
                    49:4f:9b:22:87:98:2b:20:e4:31:37:f6:7a:65:00:
                    50:1f:e5:b5:39:5c:d6:b8:5f:69:80:68:19:b4:3e:
                    16:7e:de:7a:c9:d0:2f:aa:73:4e:ce:1c:93:cd:e2:
                    82:5a:d9
                Exponent: 65537 (0x10001)
        X509v3 extensions:
            X509v3 Basic Constraints: 
                CA:FALSE
            Netscape Comment: 
                Easy-RSA Generated Certificate
            X509v3 Subject Key Identifier: 
                91:3D:1D:45:82:3A:E4:53:78:05:80:E3:2D:F2:37:2C:C6:65:1C:5D
            X509v3 Authority Key Identifier: 
                keyid:12:CD:60:04:D2:A0:80:9E:70:ED:C6:99:B8:7B:2C:C6:52:FD:19:A1
                DirName:/C=US/ST=OH/L=Columbus/O=VikingVPN/OU=MyOrganizationalUnit/CN=VikingVPN CA/name=EasyRSA/emailAddress=me@myhost.mydomain
                serial:CF:35:85:EE:80:BF:2A:3E

            X509v3 Extended Key Usage: 
                TLS Web Client Authentication
            X509v3 Key Usage: 
                Digital Signature
    Signature Algorithm: md5WithRSAEncryption
         16:94:bd:7f:7a:b6:94:d2:b8:2d:39:f5:02:e1:5c:5c:1f:70:
         73:1e:49:c0:da:80:b3:53:da:24:ef:c4:34:cc:4c:ff:f7:6f:
         cf:80:f1:4d:cd:fe:a1:38:db:53:6b:77:48:95:0e:34:ed:d8:
         f6:9c:27:c7:32:1a:ed:34:42:81:e2:71:00:0a:81:5e:c5:24:
         a0:97:91:7e:12:26:51:8e:ad:9f:62:bf:10:ae:b9:f1:02:7f:
         05:0e:e5:5f:c0:9a:00:1d:2d:44:80:1d:8a:da:a9:d2:4f:6d:
         57:8d:17:e6:fd:00:45:e3:81:dd:10:fd:7e:d0:eb:08:2d:40:
         1e:67:99:c0:68:6f:0c:d3:41:2b:73:48:e5:f0:de:ab:3d:36:
         96:71:05:a5:68:6d:bc:a7:20:eb:b8:11:9a:fe:59:a4:e9:93:
         d3:a6:5e:6f:49:70:59:9b:07:fa:71:13:12:d7:da:3c:6a:18:
         df:39:ed:5f:34:be:d3:20:67:d7:da:21:73:ac:ac:ef:0a:b7:
         b8:2f:38:b8:68:27:0c:d2:b0:db:13:7d:bd:92:31:3c:8d:ce:
         84:e0:19:40:8a:7d:9c:54:7a:89:8c:86:c0:2f:35:70:32:7d:
         01:35:72:bf:bc:1e:19:14:61:69:c8:1a:3b:07:20:3c:94:fb:
         e7:15:e0:fe:e6:62:9d:a5:0e:ec:47:5c:bc:6e:d3:44:c3:e6:
         9d:25:86:2b:38:e3:5f:6a:77:a0:f9:ee:3d:52:0e:33:0e:44:
         7b:f0:8d:1f:06:35:a7:21:94:d6:bd:e1:d0:4e:02:cc:90:9d:
         c2:84:50:68:ad:50:0f:b5:9a:cd:1b:de:49:0b:9b:07:d6:ca:
         b2:06:8c:ff:1c:4e:1e:bf:12:6b:8a:a3:bb:93:f1:24:4e:88:
         c2:4e:37:21:10:ca:a7:b7:13:aa:ec:68:18:a9:96:ed:a9:28:
         be:7f:63:f9:ae:cb:12:95:af:0a:92:e8:15:f5:37:50:a8:66:
         55:6b:0f:77:dd:6c:be:21:4b:be:62:34:43:cc:e0:f8:52:06:
         82:4b:08:ab:7f:f2:ca:e5:cc:fe:60:91:66:60:67:9e:3c:a3:
         09:5e:b9:05:32:9d:90:1d:94:67:56:3a:ab:c4:e1:57:04:96:
         c5:d8:6d:4d:b8:1c:ce:34:63:ed:b6:6f:03:05:14:3b:be:1a:
         37:2c:de:4e:be:d7:c6:8d:b3:f2:e1:61:72:7f:df:1e:6d:83:
         67:92:09:a7:de:36:59:f5:49:43:bc:23:7d:ce:d7:78:46:db:
         1b:d7:d6:8d:be:4d:49:3e:8e:33:d0:4f:89:c8:ca:b7:36:55:
         6d:3f:4c:ee:9e:fc:24:70
-----BEGIN CERTIFICATE-----
MIIGrDCCBJSgAwIBAgICBnMwDQYJKoZIhvcNAQEEBQAwgawxCzAJBgNVBAYTAlVT
MQswCQYDVQQIEwJPSDERMA8GA1UEBxMIQ29sdW1idXMxEjAQBgNVBAoTCVZpa2lu
Z1ZQTjEdMBsGA1UECxMUTXlPcmdhbml6YXRpb25hbFVuaXQxFTATBgNVBAMTDFZp
a2luZ1ZQTiBDQTEQMA4GA1UEKRMHRWFzeVJTQTEhMB8GCSqGSIb3DQEJARYSbWVA
bXlob3N0Lm15ZG9tYWluMB4XDTE0MDQxNjEyMDM1N1oXDTI0MDQxMzEyMDM1N1ow
HjEcMBoGA1UEAxMTQ2xpZW50NTg0Q2VydDM5ZDk5YjCCAiIwDQYJKoZIhvcNAQEB
BQADggIPADCCAgoCggIBAMdhUbKPfPcy8lQMtqSl7DS6pXLBSJNaaCOAz3js54QQ
b20dz4QsDDsYNdVQ0I5+Sam3/rq8Go0Ymcpemr+F32iOpq7zqUCigtVshUbPlbAF
BfARlGrBECntEhbt0tV/VnCFQfUF3L8bOZHfu/olIJRdV1h5fTT63+SqsIfh6NXE
HY3k3F7j4qGfGmHpj5qPm39WlpeN4IeXpkI5IzMpoRgKBlH3sP/ODgzeyLoOtyXs
NaLgqTsMyLeA+EnReCQWNf/jS2nMuoqbMS7BQt2r9uL0dlUeKTIHJC3th/vYLk7D
gLhFb2W/N+VTdVCdUssywqiGXtLIjW709t9/40drfJNSsYwFMbi3f8va1KQNTmJx
OSZGBwPUHrto/5BIr4W42o4gWkvd++qtYuMRiBIwDMnHTaiD7d2f4q3ifr15HH6T
xA/CAECjwfJI2Mbbd1D8g12BRQdIYLyZgOUEt2aOEUJTLo6w26SsdF1yFyq6l8zC
Z7U7PqFLh+YxCemvltnEqD6aUPEiPlCaE19YiZAM2hERYp/+8KuXmIfuxwzymIQp
Su+ZUXtM6VVIX59YbDd9Q3NsUYUkwUC3Goiowu80doVg1XPgy5MRn/xzXOezgtIq
SU+bIoeYKyDkMTf2emUAUB/ltTlc1rhfaYBoGbQ+Fn7eesnQL6pzTs4ck83iglrZ
AgMBAAGjggFjMIIBXzAJBgNVHRMEAjAAMC0GCWCGSAGG+EIBDQQgFh5FYXN5LVJT
QSBHZW5lcmF0ZWQgQ2VydGlmaWNhdGUwHQYDVR0OBBYEFJE9HUWCOuRTeAWA4y3y
NyzGZRxdMIHhBgNVHSMEgdkwgdaAFBLNYATSoICecO3Gmbh7LMZS/RmhoYGypIGv
MIGsMQswCQYDVQQGEwJVUzELMAkGA1UECBMCT0gxETAPBgNVBAcTCENvbHVtYnVz
MRIwEAYDVQQKEwlWaWtpbmdWUE4xHTAbBgNVBAsTFE15T3JnYW5pemF0aW9uYWxV
bml0MRUwEwYDVQQDEwxWaWtpbmdWUE4gQ0ExEDAOBgNVBCkTB0Vhc3lSU0ExITAf
BgkqhkiG9w0BCQEWEm1lQG15aG9zdC5teWRvbWFpboIJAM81he6Avyo+MBMGA1Ud
JQQMMAoGCCsGAQUFBwMCMAsGA1UdDwQEAwIHgDANBgkqhkiG9w0BAQQFAAOCAgEA
FpS9f3q2lNK4LTn1AuFcXB9wcx5JwNqAs1PaJO/ENMxM//dvz4DxTc3+oTjbU2t3
SJUONO3Y9pwnxzIa7TRCgeJxAAqBXsUkoJeRfhImUY6tn2K/EK658QJ/BQ7lX8Ca
AB0tRIAditqp0k9tV40X5v0AReOB3RD9ftDrCC1AHmeZwGhvDNNBK3NI5fDeqz02
lnEFpWhtvKcg67gRmv5ZpOmT06Zeb0lwWZsH+nETEtfaPGoY3zntXzS+0yBn19oh
c6ys7wq3uC84uGgnDNKw2xN9vZIxPI3OhOAZQIp9nFR6iYyGwC81cDJ9ATVyv7we
GRRhacgaOwcgPJT75xXg/uZinaUO7EdcvG7TRMPmnSWGKzjjX2p3oPnuPVIOMw5E
e/CNHwY1pyGU1r3h0E4CzJCdwoRQaK1QD7WazRveSQubB9bKsgaM/xxOHr8Sa4qj
u5PxJE6Iwk43IRDKp7cTquxoGKmW7akovn9j+a7LEpWvCpLoFfU3UKhmVWsPd91s
viFLvmI0Q8zg+FIGgksIq3/yyuXM/mCRZmBnnjyjCV65BTKdkB2UZ1Y6q8ThVwSW
xdhtTbgczjRj7bZvAwUUO74aNyzeTr7Xxo2z8uFhcn/fHm2DZ5IJp942WfVJQ7wj
fc7XeEbbG9fWjb5NST6OM9BPicjKtzZVbT9M7p78JHA=
-----END CERTIFICATE-----
