Certificate:
    Data:
        Version: 3 (0x2)
        Serial Number: 8528 (0x2150)
    Signature Algorithm: sha256WithRSAEncryption
        Issuer: C=US, ST=OH, L=Columbus, O=VikingVPN, OU=MyOrganizationalUnit, CN=VikingVPN CA/name=EasyRSA/emailAddress=me@myhost.mydomain
        Validity
            Not Before: Jul 22 07:26:05 2016 GMT
            Not After : Jul 20 07:26:05 2026 GMT
        Subject: CN=Client1493Certbc901f
        Subject Public Key Info:
            Public Key Algorithm: rsaEncryption
                Public-Key: (4096 bit)
                Modulus:
                    00:ad:71:cf:bf:a8:96:7e:5f:54:69:c8:28:09:3c:
                    cb:ba:af:ae:e2:09:25:68:c0:38:c1:8b:a1:f5:ed:
                    57:01:3f:9d:a2:ff:7b:61:9f:97:9e:7d:52:df:94:
                    72:e6:04:a7:a0:95:3c:89:14:b8:76:1c:41:c5:96:
                    4b:30:05:8f:ca:60:0b:d2:70:20:5d:3a:57:32:24:
                    04:7c:87:d9:57:ed:1d:c3:93:57:c8:1d:c1:fb:97:
                    8d:7d:12:d4:9f:3b:e5:b6:86:bd:cc:0b:b6:c4:52:
                    b2:8d:61:3f:cb:e6:97:b5:ed:fa:5a:01:90:5c:5a:
                    2a:a9:c1:ca:b1:dd:69:5a:7b:f5:2f:4c:25:f9:21:
                    e5:10:7d:93:8e:93:d1:8f:4a:9f:3b:9a:f7:68:f0:
                    34:10:e5:92:4e:8d:f4:63:b7:76:c9:8e:38:8c:38:
                    a1:10:c4:59:ca:a0:09:d9:6b:1a:10:9e:b1:3b:d8:
                    da:4d:c0:bb:e1:02:cc:f3:6c:ce:aa:72:5a:b1:c3:
                    29:1f:7d:44:b0:e8:36:f6:24:6a:4e:e3:63:81:54:
                    94:e8:67:e2:d4:db:64:ee:a3:99:58:87:64:28:21:
                    81:09:15:76:67:99:a2:0b:dc:64:d1:83:42:e5:30:
                    26:9d:99:fe:c7:79:c2:74:87:88:13:4e:3c:33:e2:
                    27:ee:94:bf:e9:cb:ce:e0:1c:2e:df:4e:12:94:2f:
                    7b:48:32:2c:b6:e9:73:4e:27:71:41:90:db:44:d4:
                    8b:77:6b:cd:74:6b:65:9d:d7:61:9d:b1:96:c3:ee:
                    f3:c1:6f:e4:82:6f:1a:c2:ec:7f:bf:fa:67:18:6d:
                    d8:8b:aa:26:34:2f:d8:ad:b8:29:52:af:a3:2f:01:
                    b8:90:95:1f:6c:d6:71:db:e1:73:1e:70:86:63:7c:
                    7d:9a:be:5f:8d:68:7f:bc:b0:4c:0e:6c:61:4a:f7:
                    88:fe:d7:83:87:13:26:2d:95:8b:9f:c2:b7:fb:de:
                    4d:75:f0:83:55:68:18:a3:42:3c:43:07:5f:47:f6:
                    38:1f:61:e5:4c:5d:30:5b:fc:db:57:60:9a:76:69:
                    01:51:47:a1:d0:5d:26:ba:7b:b0:2a:d8:d4:9d:38:
                    c8:a7:6d:88:03:bb:99:8a:80:92:b1:a7:4d:e0:78:
                    91:4b:96:07:21:89:fd:fe:80:00:51:40:06:e0:7c:
                    be:4c:32:a8:f5:0a:c8:b4:f9:31:58:03:a9:83:7c:
                    01:fe:8c:fb:51:f2:e4:46:06:af:cd:95:ed:cf:b4:
                    2f:ab:ff:d4:67:24:c8:5b:f0:2b:b3:a5:d8:6f:0f:
                    42:f5:88:4b:fb:6b:0d:05:57:38:5e:6c:61:8b:bc:
                    32:cc:cb
                Exponent: 65537 (0x10001)
        X509v3 extensions:
            X509v3 Basic Constraints: 
                CA:FALSE
            Netscape Comment: 
                Easy-RSA Generated Certificate
            X509v3 Subject Key Identifier: 
                F9:3C:1E:1C:7B:64:C6:DD:B4:22:F9:51:14:81:E5:74:8C:32:A5:4A
            X509v3 Authority Key Identifier: 
                keyid:12:CD:60:04:D2:A0:80:9E:70:ED:C6:99:B8:7B:2C:C6:52:FD:19:A1
                DirName:/C=US/ST=OH/L=Columbus/O=VikingVPN/OU=MyOrganizationalUnit/CN=VikingVPN CA/name=EasyRSA/emailAddress=me@myhost.mydomain
                serial:CF:35:85:EE:80:BF:2A:3E

            X509v3 Extended Key Usage: 
                TLS Web Client Authentication
            X509v3 Key Usage: 
                Digital Signature
    Signature Algorithm: sha256WithRSAEncryption
         d1:3f:a8:30:ec:eb:29:62:b5:a1:cb:16:ce:45:6a:ff:bb:0e:
         dd:26:97:0d:21:48:2e:ba:e9:20:03:fc:bc:a4:ff:32:ee:24:
         12:27:d8:64:fd:dd:49:e6:6e:07:76:1c:52:62:56:92:89:da:
         45:e4:d8:a5:82:44:48:13:13:6b:e2:f9:42:a3:b1:5c:eb:41:
         68:28:d4:75:f8:b5:76:26:91:f3:f7:84:f8:3d:a5:f9:4b:da:
         af:50:7a:e9:17:97:67:5f:d8:b8:4a:b3:97:f0:3e:16:a3:42:
         ad:1a:f6:92:c1:e0:87:a5:9a:2e:09:e0:9b:a4:04:9c:b9:7f:
         03:de:85:c9:7c:10:72:8a:e1:3a:f6:28:43:91:16:c3:7e:b2:
         fa:fa:ef:85:4e:e2:6f:54:1c:aa:e8:b1:c3:e7:36:4c:de:bd:
         c6:08:a8:18:09:25:d5:55:4d:a4:a2:e2:8e:42:10:46:5c:8c:
         23:a5:f1:28:2b:16:d3:52:dc:78:48:6d:ae:14:44:fd:c5:65:
         48:68:78:dc:7a:7a:9a:50:b1:16:73:b4:8b:2c:c4:24:17:b5:
         76:1b:c2:f5:af:be:d0:98:8d:80:19:c6:f3:fa:77:01:5f:2f:
         71:a1:12:bc:21:48:5d:37:cd:69:37:83:dc:86:63:3e:53:ba:
         88:26:79:49:12:6f:31:52:f2:18:5c:01:d8:c6:4b:e9:3f:37:
         0b:4b:48:a7:25:0e:13:ee:1f:7d:c1:2c:7b:57:bd:66:08:05:
         04:4f:d4:53:4f:28:74:02:29:5e:f7:1f:ba:c9:6f:11:20:42:
         72:09:9c:fe:33:4c:f1:30:b2:28:f8:1a:c9:17:93:30:0f:0e:
         13:d5:2d:ea:90:4d:61:3c:ac:a7:7d:e4:29:d2:ce:4f:b2:2b:
         a0:c6:10:f2:dd:f6:82:70:ed:9f:2d:e9:b1:90:b5:67:61:02:
         ea:b6:aa:22:cc:8a:2e:df:37:4f:1a:95:2d:04:2e:93:2e:79:
         7e:a0:b7:ef:e0:6f:6b:d7:6c:b2:ce:66:43:a2:b5:8f:15:2e:
         11:55:17:88:8f:79:54:5e:6a:90:09:77:4c:69:b4:2c:e1:b8:
         23:9d:de:30:e9:db:c2:1a:84:ec:aa:4f:fe:18:0f:1b:27:b7:
         9f:ad:46:40:1b:b6:fe:e7:0c:67:10:12:40:7f:fa:2e:fa:96:
         e0:5d:a3:92:d2:43:48:53:71:e7:2f:67:4a:4d:4d:c5:2b:9d:
         59:1c:d4:e9:32:42:6c:b0:2f:90:66:33:f7:e3:96:dc:f4:ea:
         c4:63:ee:20:bc:55:2d:a4:97:29:9c:59:3b:9d:19:51:ab:36:
         0f:fe:69:8a:b5:ce:8c:4d
-----BEGIN CERTIFICATE-----
MIIGrTCCBJWgAwIBAgICIVAwDQYJKoZIhvcNAQELBQAwgawxCzAJBgNVBAYTAlVT
MQswCQYDVQQIEwJPSDERMA8GA1UEBxMIQ29sdW1idXMxEjAQBgNVBAoTCVZpa2lu
Z1ZQTjEdMBsGA1UECxMUTXlPcmdhbml6YXRpb25hbFVuaXQxFTATBgNVBAMTDFZp
a2luZ1ZQTiBDQTEQMA4GA1UEKRMHRWFzeVJTQTEhMB8GCSqGSIb3DQEJARYSbWVA
bXlob3N0Lm15ZG9tYWluMB4XDTE2MDcyMjA3MjYwNVoXDTI2MDcyMDA3MjYwNVow
HzEdMBsGA1UEAxMUQ2xpZW50MTQ5M0NlcnRiYzkwMWYwggIiMA0GCSqGSIb3DQEB
AQUAA4ICDwAwggIKAoICAQCtcc+/qJZ+X1RpyCgJPMu6r67iCSVowDjBi6H17VcB
P52i/3thn5eefVLflHLmBKeglTyJFLh2HEHFlkswBY/KYAvScCBdOlcyJAR8h9lX
7R3Dk1fIHcH7l419EtSfO+W2hr3MC7bEUrKNYT/L5pe17fpaAZBcWiqpwcqx3Wla
e/UvTCX5IeUQfZOOk9GPSp87mvdo8DQQ5ZJOjfRjt3bJjjiMOKEQxFnKoAnZaxoQ
nrE72NpNwLvhAszzbM6qclqxwykffUSw6Db2JGpO42OBVJToZ+LU22Tuo5lYh2Qo
IYEJFXZnmaIL3GTRg0LlMCadmf7HecJ0h4gTTjwz4ifulL/py87gHC7fThKUL3tI
Miy26XNOJ3FBkNtE1It3a810a2Wd12GdsZbD7vPBb+SCbxrC7H+/+mcYbdiLqiY0
L9ituClSr6MvAbiQlR9s1nHb4XMecIZjfH2avl+NaH+8sEwObGFK94j+14OHEyYt
lYufwrf73k118INVaBijQjxDB19H9jgfYeVMXTBb/NtXYJp2aQFRR6HQXSa6e7Aq
2NSdOMinbYgDu5mKgJKxp03geJFLlgchif3+gABRQAbgfL5MMqj1Csi0+TFYA6mD
fAH+jPtR8uRGBq/Nle3PtC+r/9RnJMhb8CuzpdhvD0L1iEv7aw0FVzhebGGLvDLM
ywIDAQABo4IBYzCCAV8wCQYDVR0TBAIwADAtBglghkgBhvhCAQ0EIBYeRWFzeS1S
U0EgR2VuZXJhdGVkIENlcnRpZmljYXRlMB0GA1UdDgQWBBT5PB4ce2TG3bQi+VEU
geV0jDKlSjCB4QYDVR0jBIHZMIHWgBQSzWAE0qCAnnDtxpm4eyzGUv0ZoaGBsqSB
rzCBrDELMAkGA1UEBhMCVVMxCzAJBgNVBAgTAk9IMREwDwYDVQQHEwhDb2x1bWJ1
czESMBAGA1UEChMJVmlraW5nVlBOMR0wGwYDVQQLExRNeU9yZ2FuaXphdGlvbmFs
VW5pdDEVMBMGA1UEAxMMVmlraW5nVlBOIENBMRAwDgYDVQQpEwdFYXN5UlNBMSEw
HwYJKoZIhvcNAQkBFhJtZUBteWhvc3QubXlkb21haW6CCQDPNYXugL8qPjATBgNV
HSUEDDAKBggrBgEFBQcDAjALBgNVHQ8EBAMCB4AwDQYJKoZIhvcNAQELBQADggIB
ANE/qDDs6ylitaHLFs5Fav+7Dt0mlw0hSC666SAD/Lyk/zLuJBIn2GT93Unmbgd2
HFJiVpKJ2kXk2KWCREgTE2vi+UKjsVzrQWgo1HX4tXYmkfP3hPg9pflL2q9QeukX
l2df2LhKs5fwPhajQq0a9pLB4Ielmi4J4JukBJy5fwPehcl8EHKK4Tr2KEORFsN+
svr674VO4m9UHKroscPnNkzevcYIqBgJJdVVTaSi4o5CEEZcjCOl8SgrFtNS3HhI
ba4URP3FZUhoeNx6eppQsRZztIssxCQXtXYbwvWvvtCYjYAZxvP6dwFfL3GhErwh
SF03zWk3g9yGYz5TuogmeUkSbzFS8hhcAdjGS+k/NwtLSKclDhPuH33BLHtXvWYI
BQRP1FNPKHQCKV73H7rJbxEgQnIJnP4zTPEwsij4GskXkzAPDhPVLeqQTWE8rKd9
5CnSzk+yK6DGEPLd9oJw7Z8t6bGQtWdhAuq2qiLMii7fN08alS0ELpMueX6gt+/g
b2vXbLLOZkOitY8VLhFVF4iPeVReapAJd0xptCzhuCOd3jDp28IahOyqT/4YDxsn
t5+tRkAbtv7nDGcQEkB/+i76luBdo5LSQ0hTcecvZ0pNTcUrnVkc1OkyQmywL5Bm
M/fjltz06sRj7iC8VS2klymcWTudGVGrNg/+aYq1zoxN
-----END CERTIFICATE-----
