Certificate:
    Data:
        Version: 3 (0x2)
        Serial Number: 2713 (0xa99)
    Signature Algorithm: md5WithRSAEncryption
        Issuer: C=US, ST=OH, L=Columbus, O=VikingVPN, OU=MyOrganizationalUnit, CN=VikingVPN CA/name=EasyRSA/emailAddress=me@myhost.mydomain
        Validity
            Not Before: Aug 29 18:02:16 2014 GMT
            Not After : Aug 26 18:02:16 2024 GMT
        Subject: CN=Client898Cert899fa6
        Subject Public Key Info:
            Public Key Algorithm: rsaEncryption
                Public-Key: (4096 bit)
                Modulus:
                    00:e0:87:b6:14:54:60:cd:f7:04:a1:3d:71:cc:ef:
                    1f:ee:0d:22:7b:0b:b3:4f:f3:d4:82:85:21:6f:1b:
                    88:a0:63:1b:76:15:cc:9a:04:27:c5:9b:f3:3e:e5:
                    e9:64:71:8f:6b:58:da:02:b4:f7:19:47:94:69:7e:
                    65:e0:7c:fe:4a:de:8b:fd:a8:34:3d:7a:75:89:de:
                    09:fa:59:5b:27:5f:ec:88:8c:81:d5:0e:60:7a:a5:
                    9c:52:37:77:1a:da:17:19:8a:82:c7:8d:97:a5:27:
                    6b:4e:f5:c4:7f:0f:12:61:24:3c:46:28:1d:2b:b7:
                    82:cb:3c:b0:3f:d8:fd:0b:f0:3a:7e:f5:bb:74:22:
                    ee:ce:88:09:48:6e:51:8a:32:8e:ca:44:b7:d3:fd:
                    c1:4b:5e:7d:50:c0:b7:74:f5:5a:2b:1d:e5:62:3c:
                    9c:4c:b2:10:2c:b9:aa:7f:de:e1:58:1f:d0:c5:2e:
                    8d:c5:dc:30:6b:f7:57:15:e3:da:d8:18:19:7d:92:
                    c2:45:09:72:b6:75:5a:db:d1:db:07:9a:c9:a1:93:
                    cf:c5:9f:f1:e9:5a:c5:9a:bc:2a:b0:71:4e:64:0f:
                    69:a6:f3:7e:90:41:2c:8c:03:22:95:7b:37:45:96:
                    e7:55:f2:65:4d:6b:5a:1d:e7:29:3d:33:e9:0a:72:
                    e2:20:85:8b:35:ff:06:02:cd:55:0a:00:ef:9a:c9:
                    5d:5d:dc:c1:aa:26:59:2e:44:d2:30:a5:cc:b2:51:
                    28:3b:02:f0:9f:5c:b9:2b:d6:a2:b7:99:fa:58:43:
                    50:63:f7:fc:99:f1:4e:fd:8d:5a:f3:41:b8:e1:c9:
                    d9:bc:6c:45:b5:5a:00:fc:ae:f9:5a:45:6c:32:63:
                    e7:ed:df:34:d4:fc:8c:d9:d8:58:ee:fe:d0:0b:1d:
                    23:f1:87:b3:10:02:f2:c4:ed:77:d7:61:17:b2:2b:
                    cf:f1:6d:a7:cf:b1:15:55:d7:c8:57:24:d6:4c:ad:
                    75:6c:74:86:91:14:64:71:f2:ed:6e:8b:2d:af:a4:
                    84:ac:42:a2:5b:f7:92:24:8e:73:51:20:d2:bd:39:
                    c9:bf:98:35:ca:14:9c:49:d5:6f:ef:96:c3:84:ac:
                    d7:f9:c9:d1:9f:19:64:49:5c:ba:b1:02:61:cb:2a:
                    77:2b:0f:d0:97:a1:ce:f6:96:09:bc:fb:9d:2e:4d:
                    ce:33:e5:b0:e3:87:5f:bb:24:4d:b3:47:f6:16:df:
                    45:e4:6d:96:f2:3d:b9:50:1b:b1:8f:43:79:87:32:
                    78:d5:75:3f:22:2c:ed:6f:dc:6c:fe:d2:0c:6b:3b:
                    87:e8:06:d0:a7:38:99:af:ff:c5:a5:ee:3c:25:a7:
                    d5:c9:d9
                Exponent: 65537 (0x10001)
        X509v3 extensions:
            X509v3 Basic Constraints: 
                CA:FALSE
            Netscape Comment: 
                Easy-RSA Generated Certificate
            X509v3 Subject Key Identifier: 
                03:ED:73:1A:F9:CF:A3:3D:66:F1:26:A8:7E:61:78:E6:DE:6F:17:BC
            X509v3 Authority Key Identifier: 
                keyid:12:CD:60:04:D2:A0:80:9E:70:ED:C6:99:B8:7B:2C:C6:52:FD:19:A1
                DirName:/C=US/ST=OH/L=Columbus/O=VikingVPN/OU=MyOrganizationalUnit/CN=VikingVPN CA/name=EasyRSA/emailAddress=me@myhost.mydomain
                serial:CF:35:85:EE:80:BF:2A:3E

            X509v3 Extended Key Usage: 
                TLS Web Client Authentication
            X509v3 Key Usage: 
                Digital Signature
    Signature Algorithm: md5WithRSAEncryption
         28:dc:02:7a:24:1b:5e:bd:5c:cd:42:91:a0:7b:01:94:7e:8c:
         d9:27:69:95:65:00:79:72:79:c0:69:09:2f:86:9b:e2:05:a2:
         ed:d1:e3:35:5c:e5:ea:d4:15:7c:a0:95:e6:62:11:bb:4c:d8:
         79:00:92:c1:21:6d:ba:38:ac:18:30:74:8a:6f:1b:7b:48:11:
         bc:d6:f1:da:65:41:16:b8:11:6e:33:39:cc:f8:57:fc:64:fd:
         ad:65:1e:46:29:29:ff:6e:4b:6b:3c:67:b9:57:1a:51:c7:c4:
         e9:6e:fe:49:44:dc:cb:56:dd:7d:08:fb:05:57:33:70:0c:6c:
         96:0b:fb:7c:b8:d3:8e:ac:00:0a:c9:53:0f:1f:1b:66:c1:ec:
         f3:e9:4f:a2:49:14:71:9b:74:56:88:be:d7:82:4d:c6:45:34:
         46:e7:41:30:a4:f6:02:35:eb:fb:6f:e7:7a:89:62:8d:1f:52:
         3b:43:55:c3:05:8b:38:1b:5c:fa:ab:57:ce:d9:6f:69:8e:86:
         b2:65:ba:c9:8b:56:85:b5:81:9d:91:5e:f7:9a:3a:f9:ad:2f:
         cd:33:e2:1e:c9:a9:4e:1b:4c:4d:1c:aa:bc:d7:ba:d3:7b:1b:
         c1:45:c2:02:58:5c:b0:49:a8:8a:78:17:18:2e:94:04:45:5b:
         40:2c:38:cc:c1:dd:5a:a4:a6:5e:ce:33:75:1c:9e:52:4b:9e:
         ba:76:33:f3:44:d2:4f:59:ab:46:9a:d2:e2:1c:ad:d3:46:d2:
         39:01:90:f4:8f:35:e7:7d:ec:65:88:26:17:c1:ab:21:c8:a8:
         c5:c2:13:2c:a2:7d:9e:c0:83:86:ac:34:8f:98:4d:d2:ea:e9:
         e4:45:93:8f:21:6b:78:38:8d:88:cd:6d:e5:6f:98:40:08:ff:
         3f:4a:90:3c:cb:8c:80:13:72:d1:f5:e3:e1:a2:29:b4:3a:01:
         2d:31:db:41:14:8c:3d:d6:0a:3f:2a:0f:aa:0c:b2:e2:10:e2:
         87:58:88:d9:4c:91:3c:0b:4f:cb:c3:d8:e4:c5:39:47:5c:f0:
         84:c1:dc:00:67:cb:5c:93:6a:41:a9:e6:d2:2d:76:fa:fc:8c:
         a8:e0:c3:07:91:76:ae:89:cd:40:87:d9:46:76:0c:6b:0c:03:
         54:77:bd:18:6c:9f:91:be:9a:71:c9:5e:d1:5b:d1:ba:da:59:
         b2:83:25:93:3c:52:8b:86:81:9c:6c:94:f3:35:89:c6:97:6c:
         f1:22:5f:48:36:70:45:e7:7a:18:11:4a:67:fb:a7:8e:86:f9:
         73:f5:5d:92:cf:b3:e9:13:69:07:3c:be:c8:9e:39:c1:31:a5:
         60:bb:86:00:73:5c:dd:cb
-----BEGIN CERTIFICATE-----
MIIGrDCCBJSgAwIBAgICCpkwDQYJKoZIhvcNAQEEBQAwgawxCzAJBgNVBAYTAlVT
MQswCQYDVQQIEwJPSDERMA8GA1UEBxMIQ29sdW1idXMxEjAQBgNVBAoTCVZpa2lu
Z1ZQTjEdMBsGA1UECxMUTXlPcmdhbml6YXRpb25hbFVuaXQxFTATBgNVBAMTDFZp
a2luZ1ZQTiBDQTEQMA4GA1UEKRMHRWFzeVJTQTEhMB8GCSqGSIb3DQEJARYSbWVA
bXlob3N0Lm15ZG9tYWluMB4XDTE0MDgyOTE4MDIxNloXDTI0MDgyNjE4MDIxNlow
HjEcMBoGA1UEAxMTQ2xpZW50ODk4Q2VydDg5OWZhNjCCAiIwDQYJKoZIhvcNAQEB
BQADggIPADCCAgoCggIBAOCHthRUYM33BKE9cczvH+4NInsLs0/z1IKFIW8biKBj
G3YVzJoEJ8Wb8z7l6WRxj2tY2gK09xlHlGl+ZeB8/krei/2oND16dYneCfpZWydf
7IiMgdUOYHqlnFI3dxraFxmKgseNl6Una071xH8PEmEkPEYoHSu3gss8sD/Y/Qvw
On71u3Qi7s6ICUhuUYoyjspEt9P9wUtefVDAt3T1Wisd5WI8nEyyECy5qn/e4Vgf
0MUujcXcMGv3VxXj2tgYGX2SwkUJcrZ1WtvR2weayaGTz8Wf8elaxZq8KrBxTmQP
aabzfpBBLIwDIpV7N0WW51XyZU1rWh3nKT0z6Qpy4iCFizX/BgLNVQoA75rJXV3c
waomWS5E0jClzLJRKDsC8J9cuSvWoreZ+lhDUGP3/JnxTv2NWvNBuOHJ2bxsRbVa
APyu+VpFbDJj5+3fNNT8jNnYWO7+0AsdI/GHsxAC8sTtd9dhF7Irz/Ftp8+xFVXX
yFck1kytdWx0hpEUZHHy7W6LLa+khKxColv3kiSOc1Eg0r05yb+YNcoUnEnVb++W
w4Ss1/nJ0Z8ZZElcurECYcsqdysP0JehzvaWCbz7nS5NzjPlsOOHX7skTbNH9hbf
ReRtlvI9uVAbsY9DeYcyeNV1PyIs7W/cbP7SDGs7h+gG0Kc4ma//xaXuPCWn1cnZ
AgMBAAGjggFjMIIBXzAJBgNVHRMEAjAAMC0GCWCGSAGG+EIBDQQgFh5FYXN5LVJT
QSBHZW5lcmF0ZWQgQ2VydGlmaWNhdGUwHQYDVR0OBBYEFAPtcxr5z6M9ZvEmqH5h
eObebxe8MIHhBgNVHSMEgdkwgdaAFBLNYATSoICecO3Gmbh7LMZS/RmhoYGypIGv
MIGsMQswCQYDVQQGEwJVUzELMAkGA1UECBMCT0gxETAPBgNVBAcTCENvbHVtYnVz
MRIwEAYDVQQKEwlWaWtpbmdWUE4xHTAbBgNVBAsTFE15T3JnYW5pemF0aW9uYWxV
bml0MRUwEwYDVQQDEwxWaWtpbmdWUE4gQ0ExEDAOBgNVBCkTB0Vhc3lSU0ExITAf
BgkqhkiG9w0BCQEWEm1lQG15aG9zdC5teWRvbWFpboIJAM81he6Avyo+MBMGA1Ud
JQQMMAoGCCsGAQUFBwMCMAsGA1UdDwQEAwIHgDANBgkqhkiG9w0BAQQFAAOCAgEA
KNwCeiQbXr1czUKRoHsBlH6M2SdplWUAeXJ5wGkJL4ab4gWi7dHjNVzl6tQVfKCV
5mIRu0zYeQCSwSFtujisGDB0im8be0gRvNbx2mVBFrgRbjM5zPhX/GT9rWUeRikp
/25LazxnuVcaUcfE6W7+SUTcy1bdfQj7BVczcAxslgv7fLjTjqwACslTDx8bZsHs
8+lPokkUcZt0Voi+14JNxkU0RudBMKT2AjXr+2/neolijR9SO0NVwwWLOBtc+qtX
ztlvaY6GsmW6yYtWhbWBnZFe95o6+a0vzTPiHsmpThtMTRyqvNe603sbwUXCAlhc
sEmoingXGC6UBEVbQCw4zMHdWqSmXs4zdRyeUkueunYz80TST1mrRprS4hyt00bS
OQGQ9I81533sZYgmF8GrIcioxcITLKJ9nsCDhqw0j5hN0urp5EWTjyFreDiNiM1t
5W+YQAj/P0qQPMuMgBNy0fXj4aIptDoBLTHbQRSMPdYKPyoPqgyy4hDih1iI2UyR
PAtPy8PY5MU5R1zwhMHcAGfLXJNqQanm0i12+vyMqODDB5F2ronNQIfZRnYMawwD
VHe9GGyfkb6accle0VvRutpZsoMlkzxSi4aBnGyU8zWJxpds8SJfSDZwRed6GBFK
Z/unjob5c/Vdks+z6RNpBzy+yJ45wTGlYLuGAHNc3cs=
-----END CERTIFICATE-----
