Certificate:
    Data:
        Version: 3 (0x2)
        Serial Number: 7705 (0x1e19)
    Signature Algorithm: md5WithRSAEncryption
        Issuer: C=US, ST=OH, L=Columbus, O=VikingVPN, OU=MyOrganizationalUnit, CN=VikingVPN CA/name=EasyRSA/emailAddress=me@myhost.mydomain
        Validity
            Not Before: Apr  9 15:31:12 2016 GMT
            Not After : Apr  7 15:31:12 2026 GMT
        Subject: CN=Client321Cert8eefe3
        Subject Public Key Info:
            Public Key Algorithm: rsaEncryption
                Public-Key: (4096 bit)
                Modulus:
                    00:e4:fa:0c:59:81:75:2b:59:a9:32:06:6e:03:ec:
                    d9:28:07:a5:d6:c7:fa:02:a3:03:80:5f:85:4c:ab:
                    3a:50:62:35:0e:54:7e:b2:ff:7e:d2:e6:64:3f:07:
                    bf:bc:22:88:fe:31:e6:27:20:a6:23:8b:ab:b6:f9:
                    82:01:7b:ed:be:1d:25:b5:ab:72:ee:3f:79:f3:71:
                    c4:dd:ad:27:c6:90:f0:da:a8:23:8c:3e:e4:a0:ee:
                    f4:9c:54:19:d3:42:a6:1b:9d:9b:2c:e5:41:fe:9b:
                    cc:ee:4c:4a:9b:b7:36:00:45:66:1d:cb:b4:a4:b2:
                    96:6e:57:e0:42:f0:66:78:c3:b0:96:5f:72:2c:1d:
                    25:a6:fb:07:cf:cd:e4:38:a5:27:cc:d7:fb:ab:10:
                    50:bd:3b:95:ff:8f:df:b5:6d:24:2d:2d:43:6f:0a:
                    b1:1d:07:d0:21:33:00:6d:1f:04:6d:5c:f1:a7:8a:
                    e0:92:c4:ce:19:af:c7:9d:f4:08:6a:b0:92:62:0c:
                    39:f5:2c:60:5b:c3:8c:49:20:fc:62:bb:1a:65:18:
                    fb:2d:15:88:ab:7b:c2:02:e8:31:7c:13:60:0a:3b:
                    a6:3f:56:f9:7c:78:6f:1e:80:84:26:73:96:7e:93:
                    13:40:63:75:95:9f:2f:f4:3b:d5:56:14:58:59:4e:
                    fc:ba:4a:9a:d7:5f:68:8f:32:aa:e0:17:c5:f4:8b:
                    7a:10:8b:c6:97:78:39:01:6c:f0:ca:a0:e6:93:e1:
                    19:c5:7e:a5:b6:66:6b:df:3c:ae:91:11:06:14:a1:
                    a0:35:49:a5:27:ce:7e:57:7e:d5:a9:a5:0a:d6:98:
                    51:6a:be:a1:d8:91:19:e3:49:c5:56:ed:8a:eb:d9:
                    2c:78:88:46:67:a9:77:93:79:f9:7e:cd:10:3f:2e:
                    aa:30:52:b8:2d:f3:a6:19:90:b6:cb:4a:48:4e:b3:
                    96:9e:b7:9d:b6:34:1d:ab:4d:03:51:af:3a:81:40:
                    01:50:b0:a9:7f:b9:d6:c7:3a:11:24:98:2e:64:fa:
                    ef:73:34:83:cf:88:74:12:4c:59:6c:41:18:9e:05:
                    e8:58:ff:c5:97:ec:8b:4f:d2:f8:32:34:cb:14:46:
                    46:85:b2:64:79:3a:f6:81:8f:78:7c:12:f5:86:55:
                    25:d5:75:47:72:04:b2:d0:f8:1d:2e:ac:71:bb:a3:
                    66:54:a5:2d:0e:29:0d:6b:ee:c1:63:4b:06:f5:c3:
                    ee:50:fd:aa:70:e9:03:4a:46:54:4b:34:22:78:4b:
                    bc:77:e0:b5:00:00:8f:ee:ad:80:d2:16:f2:ef:f8:
                    7d:50:59:4f:9a:8e:ad:0f:86:bd:ac:f9:53:97:a7:
                    1e:c2:f7
                Exponent: 65537 (0x10001)
        X509v3 extensions:
            X509v3 Basic Constraints: 
                CA:FALSE
            Netscape Comment: 
                Easy-RSA Generated Certificate
            X509v3 Subject Key Identifier: 
                08:62:38:6B:31:F8:67:52:DC:E1:F2:A7:97:AD:D2:79:10:C5:DB:DA
            X509v3 Authority Key Identifier: 
                keyid:12:CD:60:04:D2:A0:80:9E:70:ED:C6:99:B8:7B:2C:C6:52:FD:19:A1
                DirName:/C=US/ST=OH/L=Columbus/O=VikingVPN/OU=MyOrganizationalUnit/CN=VikingVPN CA/name=EasyRSA/emailAddress=me@myhost.mydomain
                serial:CF:35:85:EE:80:BF:2A:3E

            X509v3 Extended Key Usage: 
                TLS Web Client Authentication
            X509v3 Key Usage: 
                Digital Signature
    Signature Algorithm: md5WithRSAEncryption
         13:11:bb:2b:db:36:d1:67:93:7d:04:49:54:74:86:1f:24:a9:
         7d:bd:ee:14:65:2b:d4:a0:8d:74:fe:23:91:f5:05:8f:3d:75:
         cc:ba:d4:0c:c9:b0:32:8f:d3:fb:eb:1a:89:77:82:ac:e3:74:
         a9:12:f9:93:13:12:a1:d6:9b:c7:3f:ca:e2:99:84:15:a9:e2:
         fd:e6:ce:5c:1d:21:e3:b2:88:c4:e1:1d:47:c1:85:16:12:55:
         94:62:3b:b8:92:7c:82:ac:71:7e:27:ca:52:d5:84:77:7c:71:
         f2:bc:3c:59:8e:5a:ad:9f:87:15:3d:5f:b7:4f:66:be:4c:47:
         1a:b1:30:a4:b4:88:73:93:3a:39:51:fe:49:e5:57:bd:41:47:
         0d:eb:8b:06:9d:10:c4:2f:09:75:b5:c5:34:c3:5c:6e:60:ce:
         37:43:01:e6:93:91:87:ef:76:81:ce:8a:41:5b:ec:c1:eb:58:
         a0:96:dd:c5:a4:14:57:5a:ae:43:d0:d3:6c:9f:37:75:cd:7d:
         aa:43:99:a9:b2:cb:5b:57:1f:a0:df:f7:c6:18:76:55:97:13:
         4c:57:5e:e6:a5:91:80:90:49:39:a6:f4:40:68:73:ff:92:00:
         1b:9c:9d:d0:07:a3:05:60:52:55:b5:a7:c6:d0:b8:0e:58:f6:
         8b:52:b8:6b:9a:b6:41:eb:a8:dd:b5:3e:39:e4:06:de:03:f5:
         a2:9f:d5:07:b4:c4:35:f3:38:01:d6:1e:2f:a2:c3:47:eb:e6:
         c7:40:87:98:05:eb:f3:be:7c:63:20:02:59:7d:b2:da:bc:54:
         bd:d7:34:d3:27:49:21:f4:da:d7:85:03:64:20:79:55:2a:ff:
         6c:82:5e:0e:e6:7a:3a:d5:a2:34:12:c7:a7:e9:b0:3d:6a:e4:
         15:f4:5f:42:56:8c:1b:14:00:80:b4:5b:60:de:2e:17:ac:b3:
         36:67:a9:ed:c2:87:ac:99:43:a2:25:7d:b2:fa:f9:43:3e:e0:
         a4:58:98:9d:5b:ab:66:5a:ff:46:0e:cd:9c:38:da:73:8e:8e:
         ae:45:fd:91:8c:cb:16:0d:14:b9:01:2c:80:34:db:34:f6:ea:
         ed:03:04:46:21:6a:b5:0d:06:ea:da:cb:e8:3a:f7:38:43:63:
         f7:06:67:a3:15:17:76:b1:19:df:d5:33:4b:95:9a:31:ce:1c:
         41:35:58:91:08:1b:d0:b9:49:03:ec:e9:d9:af:e8:14:90:95:
         eb:e3:73:9f:3d:e6:39:ff:f8:75:95:39:8a:71:32:13:86:45:
         eb:40:a0:77:b6:35:3e:01:7f:f7:2f:33:75:6e:72:4e:09:35:
         d0:e8:01:d9:da:11:b6:81
-----BEGIN CERTIFICATE-----
MIIGrDCCBJSgAwIBAgICHhkwDQYJKoZIhvcNAQEEBQAwgawxCzAJBgNVBAYTAlVT
MQswCQYDVQQIEwJPSDERMA8GA1UEBxMIQ29sdW1idXMxEjAQBgNVBAoTCVZpa2lu
Z1ZQTjEdMBsGA1UECxMUTXlPcmdhbml6YXRpb25hbFVuaXQxFTATBgNVBAMTDFZp
a2luZ1ZQTiBDQTEQMA4GA1UEKRMHRWFzeVJTQTEhMB8GCSqGSIb3DQEJARYSbWVA
bXlob3N0Lm15ZG9tYWluMB4XDTE2MDQwOTE1MzExMloXDTI2MDQwNzE1MzExMlow
HjEcMBoGA1UEAxMTQ2xpZW50MzIxQ2VydDhlZWZlMzCCAiIwDQYJKoZIhvcNAQEB
BQADggIPADCCAgoCggIBAOT6DFmBdStZqTIGbgPs2SgHpdbH+gKjA4BfhUyrOlBi
NQ5UfrL/ftLmZD8Hv7wiiP4x5icgpiOLq7b5ggF77b4dJbWrcu4/efNxxN2tJ8aQ
8NqoI4w+5KDu9JxUGdNCphudmyzlQf6bzO5MSpu3NgBFZh3LtKSylm5X4ELwZnjD
sJZfciwdJab7B8/N5DilJ8zX+6sQUL07lf+P37VtJC0tQ28KsR0H0CEzAG0fBG1c
8aeK4JLEzhmvx530CGqwkmIMOfUsYFvDjEkg/GK7GmUY+y0ViKt7wgLoMXwTYAo7
pj9W+Xx4bx6AhCZzln6TE0BjdZWfL/Q71VYUWFlO/LpKmtdfaI8yquAXxfSLehCL
xpd4OQFs8Mqg5pPhGcV+pbZma988rpERBhShoDVJpSfOfld+1amlCtaYUWq+odiR
GeNJxVbtiuvZLHiIRmepd5N5+X7NED8uqjBSuC3zphmQtstKSE6zlp63nbY0HatN
A1GvOoFAAVCwqX+51sc6ESSYLmT673M0g8+IdBJMWWxBGJ4F6Fj/xZfsi0/S+DI0
yxRGRoWyZHk69oGPeHwS9YZVJdV1R3IEstD4HS6scbujZlSlLQ4pDWvuwWNLBvXD
7lD9qnDpA0pGVEs0InhLvHfgtQAAj+6tgNIW8u/4fVBZT5qOrQ+Gvaz5U5enHsL3
AgMBAAGjggFjMIIBXzAJBgNVHRMEAjAAMC0GCWCGSAGG+EIBDQQgFh5FYXN5LVJT
QSBHZW5lcmF0ZWQgQ2VydGlmaWNhdGUwHQYDVR0OBBYEFAhiOGsx+GdS3OHyp5et
0nkQxdvaMIHhBgNVHSMEgdkwgdaAFBLNYATSoICecO3Gmbh7LMZS/RmhoYGypIGv
MIGsMQswCQYDVQQGEwJVUzELMAkGA1UECBMCT0gxETAPBgNVBAcTCENvbHVtYnVz
MRIwEAYDVQQKEwlWaWtpbmdWUE4xHTAbBgNVBAsTFE15T3JnYW5pemF0aW9uYWxV
bml0MRUwEwYDVQQDEwxWaWtpbmdWUE4gQ0ExEDAOBgNVBCkTB0Vhc3lSU0ExITAf
BgkqhkiG9w0BCQEWEm1lQG15aG9zdC5teWRvbWFpboIJAM81he6Avyo+MBMGA1Ud
JQQMMAoGCCsGAQUFBwMCMAsGA1UdDwQEAwIHgDANBgkqhkiG9w0BAQQFAAOCAgEA
ExG7K9s20WeTfQRJVHSGHySpfb3uFGUr1KCNdP4jkfUFjz11zLrUDMmwMo/T++sa
iXeCrON0qRL5kxMSodabxz/K4pmEFani/ebOXB0h47KIxOEdR8GFFhJVlGI7uJJ8
gqxxfifKUtWEd3xx8rw8WY5arZ+HFT1ft09mvkxHGrEwpLSIc5M6OVH+SeVXvUFH
DeuLBp0QxC8JdbXFNMNcbmDON0MB5pORh+92gc6KQVvswetYoJbdxaQUV1quQ9DT
bJ83dc19qkOZqbLLW1cfoN/3xhh2VZcTTFde5qWRgJBJOab0QGhz/5IAG5yd0Aej
BWBSVbWnxtC4Dlj2i1K4a5q2Qeuo3bU+OeQG3gP1op/VB7TENfM4AdYeL6LDR+vm
x0CHmAXr8758YyACWX2y2rxUvdc00ydJIfTa14UDZCB5VSr/bIJeDuZ6OtWiNBLH
p+mwPWrkFfRfQlaMGxQAgLRbYN4uF6yzNmep7cKHrJlDoiV9svr5Qz7gpFiYnVur
Zlr/Rg7NnDjac46OrkX9kYzLFg0UuQEsgDTbNPbq7QMERiFqtQ0G6trL6Dr3OENj
9wZnoxUXdrEZ39UzS5WaMc4cQTVYkQgb0LlJA+zp2a/oFJCV6+Nznz3mOf/4dZU5
inEyE4ZF60Cgd7Y1PgF/9y8zdW5yTgk10OgB2doRtoE=
-----END CERTIFICATE-----
