Certificate:
    Data:
        Version: 3 (0x2)
        Serial Number: 11023 (0x2b0f)
    Signature Algorithm: sha256WithRSAEncryption
        Issuer: C=US, ST=OH, L=Columbus, O=VikingVPN, OU=MyOrganizationalUnit, CN=VikingVPN CA/name=EasyRSA/emailAddress=me@myhost.mydomain
        Validity
            Not Before: May 27 20:49:04 2017 GMT
            Not After : May 25 20:49:04 2027 GMT
        Subject: CN=Client1702Cert0fa4e6
        Subject Public Key Info:
            Public Key Algorithm: rsaEncryption
                Public-Key: (4096 bit)
                Modulus:
                    00:ad:38:8a:25:4c:8d:8a:69:b9:cd:5e:2a:64:c9:
                    23:7f:3f:b5:7f:1a:c0:50:6e:60:5e:9b:db:ff:a7:
                    2a:d9:dd:e4:65:34:98:2c:cc:13:2d:f2:1d:81:e1:
                    03:67:4d:32:9d:21:f4:ae:a5:d5:e4:45:1d:25:1b:
                    fe:22:4e:9e:10:8a:59:83:20:f8:18:0b:39:37:b0:
                    4f:2c:f1:8b:6d:9f:21:70:78:ce:b4:06:da:b0:54:
                    7c:2e:a2:82:f3:10:d5:3a:03:a6:35:3e:5d:dd:ca:
                    5e:17:bb:0c:0e:26:ed:8e:e0:5e:46:65:a0:69:d0:
                    18:fd:6e:d4:0e:0e:52:5d:d2:bf:09:a7:79:34:1f:
                    c3:04:f1:e7:8a:cb:66:02:5a:e3:b2:5c:aa:ab:4f:
                    38:a5:0b:49:96:3a:a6:5b:30:5f:78:c4:10:ba:2d:
                    4a:b6:56:3e:70:29:fd:f0:78:70:7d:81:fe:e8:21:
                    11:eb:80:52:ab:5e:0b:bb:bc:7c:09:45:73:0b:6b:
                    bc:1c:ca:15:a9:54:33:e3:9c:e8:7c:81:70:3d:39:
                    17:69:46:a8:55:49:7f:c1:17:3e:b6:a9:1a:b7:8f:
                    76:8d:21:36:d3:4b:55:1c:ff:f4:0d:bc:e6:ee:9f:
                    13:1f:14:8e:e2:60:a1:72:e3:73:79:be:0f:76:dd:
                    d1:cf:07:e9:02:c2:35:85:9b:40:1a:b2:d1:f1:85:
                    98:20:fa:a4:e7:1a:49:18:56:22:30:95:4d:b7:2a:
                    5f:d4:9f:81:86:62:bc:b2:b4:06:7d:ae:a2:f0:60:
                    1a:61:a3:97:5d:bc:1b:50:87:0c:1d:7f:26:81:cc:
                    89:b0:b1:fb:3a:dc:4a:85:79:f3:21:b5:cf:0d:d7:
                    df:d2:f6:97:c4:01:f9:26:43:eb:7e:6b:d6:91:34:
                    6c:55:6a:8c:fe:cd:14:8a:48:71:0b:6d:af:77:af:
                    01:b5:a2:f0:0d:27:b4:38:34:c5:41:f2:99:1d:e1:
                    d3:37:a7:55:14:94:69:2c:e3:b7:fa:b8:fd:72:98:
                    99:8a:d3:1b:93:07:14:87:3e:c5:d7:94:28:9c:4e:
                    41:7c:e4:09:7a:63:87:7f:73:82:7d:5f:39:33:16:
                    67:62:21:79:72:ce:3f:03:e8:a1:8f:80:d4:02:b4:
                    f2:c6:c9:ae:84:81:bb:09:8a:bf:00:e1:28:12:d3:
                    08:36:ed:72:b5:eb:06:38:92:f2:9e:a2:d8:50:2e:
                    2c:04:a5:2d:f2:da:4a:72:6d:47:6e:ea:88:a5:24:
                    ec:dc:5d:ed:7a:b2:59:90:be:99:20:a2:25:15:bc:
                    69:fe:7d:b7:39:8c:bd:06:7c:a2:7b:ba:87:54:77:
                    cf:98:b9
                Exponent: 65537 (0x10001)
        X509v3 extensions:
            X509v3 Basic Constraints: 
                CA:FALSE
            Netscape Comment: 
                Easy-RSA Generated Certificate
            X509v3 Subject Key Identifier: 
                42:F7:7E:82:36:E9:7F:A9:03:E7:CD:53:FD:0C:32:71:96:1A:03:0C
            X509v3 Authority Key Identifier: 
                keyid:12:CD:60:04:D2:A0:80:9E:70:ED:C6:99:B8:7B:2C:C6:52:FD:19:A1
                DirName:/C=US/ST=OH/L=Columbus/O=VikingVPN/OU=MyOrganizationalUnit/CN=VikingVPN CA/name=EasyRSA/emailAddress=me@myhost.mydomain
                serial:CF:35:85:EE:80:BF:2A:3E

            X509v3 Extended Key Usage: 
                TLS Web Client Authentication
            X509v3 Key Usage: 
                Digital Signature
    Signature Algorithm: sha256WithRSAEncryption
         df:28:90:59:37:35:31:37:23:ce:81:37:64:03:59:9f:c0:19:
         32:b3:65:50:2e:66:6a:02:48:46:7d:96:15:09:d8:ba:78:21:
         b6:f5:29:d9:95:f5:29:77:23:97:19:87:1b:91:59:0b:d2:4e:
         65:10:f9:20:2c:3b:6a:15:62:61:9f:df:9f:b1:9d:e1:67:0f:
         89:d2:ab:f9:1d:3b:1b:40:6e:4f:27:03:24:64:b8:1f:07:f7:
         a0:a4:69:00:3e:71:e5:5e:99:44:b7:37:32:e5:b1:a8:09:17:
         13:c8:1e:ca:54:1b:5b:b2:88:95:92:2f:ed:5e:a0:c7:08:a2:
         7f:22:86:9e:b5:9c:b9:8e:d0:50:53:9b:c9:dc:ef:50:8a:79:
         0f:23:cc:a1:b2:94:03:e1:26:81:60:01:71:9f:29:af:db:c6:
         58:23:bc:07:49:95:17:ab:7c:b5:a9:a5:fd:43:2f:a2:68:7b:
         ab:2b:f3:15:94:ed:6b:96:e1:0e:50:49:bc:28:b0:3a:31:06:
         cf:17:82:c8:18:96:04:c5:15:88:03:d1:ac:38:3d:0b:b7:be:
         3b:18:fe:1c:a3:07:a8:66:db:e9:7c:4f:e1:71:f7:81:c7:a2:
         dc:1d:f4:26:23:27:1e:9d:c7:7f:90:ca:48:4a:c0:a4:fa:ec:
         df:3e:32:0c:00:0e:c0:95:f4:7a:72:c2:e0:9b:9d:00:5d:3a:
         b9:24:5a:7f:c8:d8:bb:a1:1a:2f:d3:0d:4a:3f:10:2f:04:63:
         97:48:34:79:38:2e:1b:16:06:ae:35:bd:f0:52:78:2a:a8:45:
         71:66:b5:7e:66:37:53:02:3b:00:e9:2c:68:59:cd:07:45:f7:
         66:73:6c:48:fc:7a:50:d6:ff:38:29:a8:ae:60:0e:f0:c2:3b:
         8c:66:04:94:83:64:1b:33:e4:cf:e8:ee:8d:75:72:9e:98:30:
         33:1c:69:c1:ab:3f:3e:8d:29:2a:30:35:08:c3:ae:68:b0:17:
         d7:45:df:92:ad:60:59:dc:86:2c:b1:42:de:bf:45:2c:59:a1:
         03:a5:4e:84:19:e6:ff:a4:5c:41:58:12:1e:00:f4:7b:44:1f:
         b9:43:1c:71:50:8c:05:ed:18:56:c8:aa:87:92:da:ae:38:ac:
         c8:82:9b:9a:84:a8:db:2c:2d:0b:76:19:65:cd:e4:e2:87:d9:
         41:00:56:28:94:14:e7:77:da:5b:b1:88:af:2c:b7:f4:7d:2d:
         ae:b2:67:70:6f:7c:0f:6f:c8:4b:2d:3e:64:01:af:0b:bd:09:
         37:18:b7:08:d1:04:c3:d8:5c:27:c3:58:bb:75:7c:d6:8d:07:
         35:42:c5:f0:5e:59:b0:37
-----BEGIN CERTIFICATE-----
MIIGrTCCBJWgAwIBAgICKw8wDQYJKoZIhvcNAQELBQAwgawxCzAJBgNVBAYTAlVT
MQswCQYDVQQIEwJPSDERMA8GA1UEBxMIQ29sdW1idXMxEjAQBgNVBAoTCVZpa2lu
Z1ZQTjEdMBsGA1UECxMUTXlPcmdhbml6YXRpb25hbFVuaXQxFTATBgNVBAMTDFZp
a2luZ1ZQTiBDQTEQMA4GA1UEKRMHRWFzeVJTQTEhMB8GCSqGSIb3DQEJARYSbWVA
bXlob3N0Lm15ZG9tYWluMB4XDTE3MDUyNzIwNDkwNFoXDTI3MDUyNTIwNDkwNFow
HzEdMBsGA1UEAxMUQ2xpZW50MTcwMkNlcnQwZmE0ZTYwggIiMA0GCSqGSIb3DQEB
AQUAA4ICDwAwggIKAoICAQCtOIolTI2KabnNXipkySN/P7V/GsBQbmBem9v/pyrZ
3eRlNJgszBMt8h2B4QNnTTKdIfSupdXkRR0lG/4iTp4QilmDIPgYCzk3sE8s8Ytt
nyFweM60BtqwVHwuooLzENU6A6Y1Pl3dyl4XuwwOJu2O4F5GZaBp0Bj9btQODlJd
0r8Jp3k0H8ME8eeKy2YCWuOyXKqrTzilC0mWOqZbMF94xBC6LUq2Vj5wKf3weHB9
gf7oIRHrgFKrXgu7vHwJRXMLa7wcyhWpVDPjnOh8gXA9ORdpRqhVSX/BFz62qRq3
j3aNITbTS1Uc//QNvObunxMfFI7iYKFy43N5vg923dHPB+kCwjWFm0AastHxhZgg
+qTnGkkYViIwlU23Kl/Un4GGYryytAZ9rqLwYBpho5ddvBtQhwwdfyaBzImwsfs6
3EqFefMhtc8N19/S9pfEAfkmQ+t+a9aRNGxVaoz+zRSKSHELba93rwG1ovANJ7Q4
NMVB8pkd4dM3p1UUlGks47f6uP1ymJmK0xuTBxSHPsXXlCicTkF85Al6Y4d/c4J9
XzkzFmdiIXlyzj8D6KGPgNQCtPLGya6EgbsJir8A4SgS0wg27XK16wY4kvKeothQ
LiwEpS3y2kpybUdu6oilJOzcXe16slmQvpkgoiUVvGn+fbc5jL0GfKJ7uodUd8+Y
uQIDAQABo4IBYzCCAV8wCQYDVR0TBAIwADAtBglghkgBhvhCAQ0EIBYeRWFzeS1S
U0EgR2VuZXJhdGVkIENlcnRpZmljYXRlMB0GA1UdDgQWBBRC936CNul/qQPnzVP9
DDJxlhoDDDCB4QYDVR0jBIHZMIHWgBQSzWAE0qCAnnDtxpm4eyzGUv0ZoaGBsqSB
rzCBrDELMAkGA1UEBhMCVVMxCzAJBgNVBAgTAk9IMREwDwYDVQQHEwhDb2x1bWJ1
czESMBAGA1UEChMJVmlraW5nVlBOMR0wGwYDVQQLExRNeU9yZ2FuaXphdGlvbmFs
VW5pdDEVMBMGA1UEAxMMVmlraW5nVlBOIENBMRAwDgYDVQQpEwdFYXN5UlNBMSEw
HwYJKoZIhvcNAQkBFhJtZUBteWhvc3QubXlkb21haW6CCQDPNYXugL8qPjATBgNV
HSUEDDAKBggrBgEFBQcDAjALBgNVHQ8EBAMCB4AwDQYJKoZIhvcNAQELBQADggIB
AN8okFk3NTE3I86BN2QDWZ/AGTKzZVAuZmoCSEZ9lhUJ2Lp4Ibb1KdmV9Sl3I5cZ
hxuRWQvSTmUQ+SAsO2oVYmGf35+xneFnD4nSq/kdOxtAbk8nAyRkuB8H96CkaQA+
ceVemUS3NzLlsagJFxPIHspUG1uyiJWSL+1eoMcIon8ihp61nLmO0FBTm8nc71CK
eQ8jzKGylAPhJoFgAXGfKa/bxlgjvAdJlRerfLWppf1DL6Joe6sr8xWU7WuW4Q5Q
SbwosDoxBs8XgsgYlgTFFYgD0aw4PQu3vjsY/hyjB6hm2+l8T+Fx94HHotwd9CYj
Jx6dx3+QykhKwKT67N8+MgwADsCV9HpywuCbnQBdOrkkWn/I2LuhGi/TDUo/EC8E
Y5dINHk4LhsWBq41vfBSeCqoRXFmtX5mN1MCOwDpLGhZzQdF92ZzbEj8elDW/zgp
qK5gDvDCO4xmBJSDZBsz5M/o7o11cp6YMDMcacGrPz6NKSowNQjDrmiwF9dF35Kt
YFnchiyxQt6/RSxZoQOlToQZ5v+kXEFYEh4A9HtEH7lDHHFQjAXtGFbIqoeS2q44
rMiCm5qEqNssLQt2GWXN5OKH2UEAViiUFOd32luxiK8st/R9La6yZ3BvfA9vyEst
PmQBrwu9CTcYtwjRBMPYXCfDWLt1fNaNBzVCxfBeWbA3
-----END CERTIFICATE-----
