Certificate:
    Data:
        Version: 3 (0x2)
        Serial Number: 1442 (0x5a2)
    Signature Algorithm: md5WithRSAEncryption
        Issuer: C=US, ST=OH, L=Columbus, O=VikingVPN, OU=MyOrganizationalUnit, CN=VikingVPN CA/name=EasyRSA/emailAddress=me@myhost.mydomain
        Validity
            Not Before: Apr  2 10:51:34 2014 GMT
            Not After : Mar 30 10:51:34 2024 GMT
        Subject: CN=Client537Cert279068
        Subject Public Key Info:
            Public Key Algorithm: rsaEncryption
                Public-Key: (4096 bit)
                Modulus:
                    00:c3:60:b9:f5:ab:d1:df:c5:db:02:ff:97:b6:34:
                    6d:a9:b7:3f:e1:c5:76:22:39:32:3d:06:ce:7e:90:
                    ad:64:26:dd:8f:c6:3b:11:eb:1d:8e:9b:75:9a:0a:
                    e9:92:e0:58:9c:e7:27:64:4b:95:a1:ed:56:6d:a4:
                    6c:cb:02:5e:5e:00:81:a4:5a:48:01:ef:0b:f6:65:
                    0b:ec:38:7a:af:11:bb:04:78:0d:5f:a4:14:d4:e2:
                    ce:ce:03:f6:3a:4e:7c:4c:64:f3:a7:fb:33:d1:2d:
                    08:7f:66:d0:ad:5a:a8:46:8e:d6:53:e7:cb:32:f2:
                    2f:cd:fe:f2:61:cf:f2:a1:e4:6c:12:38:9d:cb:39:
                    15:e6:7e:d6:a5:8a:4f:51:0e:9a:52:71:63:66:fa:
                    af:b4:5f:75:35:b0:ac:9c:59:d4:d8:7b:85:3f:6e:
                    99:53:5c:f3:bd:5a:9b:2c:44:d0:7f:b3:70:f3:88:
                    18:e2:ac:49:23:10:ed:91:1e:96:88:a2:db:23:03:
                    c2:12:52:1d:94:fe:2a:fe:d2:5e:a5:91:f5:85:77:
                    1d:65:a9:22:c9:5f:85:ed:d4:b5:ce:e7:7b:f6:8f:
                    9f:fd:ac:7f:a1:97:79:bc:50:1f:c8:ed:e3:09:73:
                    b1:b1:43:84:31:b6:be:41:ba:fc:12:be:b8:28:e1:
                    ee:a6:bd:e2:de:5f:4e:d2:ba:35:34:77:9b:6c:e3:
                    a7:51:51:fd:62:05:86:c1:96:67:5a:41:3f:45:33:
                    2e:33:f3:ca:71:90:70:37:10:cc:5d:d6:80:9f:18:
                    f3:ce:60:46:07:b5:af:63:c7:14:a9:f3:fa:cd:ca:
                    d3:d5:d6:db:97:3e:a2:63:62:43:dd:ad:87:34:62:
                    6b:0f:9c:61:a3:83:69:c8:e3:19:bf:d3:ce:ab:bf:
                    32:a5:dd:19:df:28:b6:43:ff:58:f7:0d:e3:0d:41:
                    7d:f6:f9:69:77:de:6d:d9:33:69:41:61:41:54:58:
                    50:6d:c1:fd:5b:12:f6:7c:36:21:0b:6e:2c:13:89:
                    3e:8d:d3:8d:5d:2e:d3:15:0e:72:4e:bd:02:2c:b6:
                    42:28:0f:6a:43:6e:b4:14:4b:89:67:d9:a5:ae:34:
                    c5:c4:e0:ce:f9:54:6e:18:5b:b4:cd:49:99:53:77:
                    23:3a:95:b3:a6:9b:5d:4c:74:3d:bd:b1:c0:b4:92:
                    69:3a:2a:77:49:8a:24:35:7d:da:0a:0c:03:03:cc:
                    7a:d8:9d:cc:e6:32:b8:c7:4a:40:cb:25:5c:52:c8:
                    13:9b:4a:79:3d:86:25:c3:e0:16:1b:f5:1a:88:ed:
                    d5:d9:cc:32:90:23:02:4b:66:4b:5e:df:5e:fc:5c:
                    e9:76:a7
                Exponent: 65537 (0x10001)
        X509v3 extensions:
            X509v3 Basic Constraints: 
                CA:FALSE
            Netscape Comment: 
                Easy-RSA Generated Certificate
            X509v3 Subject Key Identifier: 
                FF:57:12:B4:03:51:25:6B:F8:DD:DA:4C:B0:F4:6B:14:9D:90:01:36
            X509v3 Authority Key Identifier: 
                keyid:12:CD:60:04:D2:A0:80:9E:70:ED:C6:99:B8:7B:2C:C6:52:FD:19:A1
                DirName:/C=US/ST=OH/L=Columbus/O=VikingVPN/OU=MyOrganizationalUnit/CN=VikingVPN CA/name=EasyRSA/emailAddress=me@myhost.mydomain
                serial:CF:35:85:EE:80:BF:2A:3E

            X509v3 Extended Key Usage: 
                TLS Web Client Authentication
            X509v3 Key Usage: 
                Digital Signature
    Signature Algorithm: md5WithRSAEncryption
         2b:88:93:fb:79:1e:6a:e3:97:9a:bc:74:87:98:eb:13:17:32:
         a1:ed:08:6f:29:dc:39:b2:d8:69:6a:6c:d0:14:4d:cd:52:e6:
         35:e1:80:6b:51:70:88:0c:b2:6d:f6:83:f0:34:e0:7b:ca:28:
         6e:9b:96:0c:61:b7:e3:0e:35:4d:a9:46:1a:39:ab:69:c6:61:
         53:09:21:32:f8:3c:f5:47:1a:bd:48:c4:56:26:94:29:0b:4c:
         fa:6d:f9:c2:48:fc:66:20:20:26:86:29:05:93:6e:b1:c3:46:
         99:61:f1:d2:dd:ba:1b:6a:dd:f3:28:28:fa:cc:34:0b:6e:7d:
         54:0a:06:ec:7f:19:c5:b3:db:b6:18:e2:e3:6c:c6:76:db:cb:
         4d:0c:cf:c4:5c:e7:6b:62:c8:23:0e:84:a1:a3:19:6d:c9:9d:
         a4:d4:cc:71:cb:9e:0d:1c:98:70:13:cb:f5:a8:c1:f7:80:bb:
         ba:20:f4:75:0f:11:6a:98:83:87:61:5f:ee:ea:11:c3:3e:5d:
         96:e2:84:8b:23:45:85:b1:e6:e1:63:dc:f0:b4:87:70:e1:50:
         45:cd:c3:c0:83:e6:2d:d8:39:4d:4b:d0:87:c0:92:04:43:37:
         de:41:73:95:f9:c1:ff:c4:98:cf:b1:5c:55:04:9e:54:d4:8a:
         be:b4:94:f3:c0:e3:77:9c:e7:07:22:85:b0:2f:1c:ce:d6:e5:
         2a:c5:c5:a5:86:1e:f5:c8:85:2c:8e:66:38:4c:4a:8e:c5:f1:
         e9:ef:fb:24:a3:53:a4:b2:cd:fd:ca:7b:2a:49:2a:6d:1e:53:
         c6:ab:73:04:76:d4:95:63:a2:c7:e1:e8:cb:50:b9:5d:27:ac:
         7c:15:4e:59:7c:b3:f3:fa:88:12:8c:c1:8a:ef:91:8a:61:a3:
         9e:64:06:a5:b9:a6:84:10:e2:95:a4:f6:06:d5:17:82:64:d2:
         ea:27:81:12:59:11:b5:54:d3:01:25:83:02:d2:40:7f:ae:28:
         f6:5c:b0:c7:d9:f1:77:70:f1:eb:72:8c:e7:ab:b5:ef:e6:95:
         7f:07:f3:ee:d4:96:4b:19:d6:79:d6:d8:5f:7f:6d:cb:18:09:
         e9:cf:d8:f1:41:30:1d:a0:e6:38:45:fb:12:16:74:9d:1b:21:
         0f:c1:78:1d:27:91:2d:cc:86:2a:e6:14:5b:79:8e:7f:64:5f:
         7d:ef:b6:9f:6b:3d:54:91:8b:d3:40:e0:d2:70:24:d5:27:04:
         75:d9:93:2f:91:c1:6f:36:4d:29:c1:7d:22:2b:a6:87:2b:52:
         ad:0c:5a:d8:70:6d:65:0d:2d:67:d4:26:fb:85:e0:7e:cd:1f:
         41:74:12:f6:c0:a9:43:2d
-----BEGIN CERTIFICATE-----
MIIGrDCCBJSgAwIBAgICBaIwDQYJKoZIhvcNAQEEBQAwgawxCzAJBgNVBAYTAlVT
MQswCQYDVQQIEwJPSDERMA8GA1UEBxMIQ29sdW1idXMxEjAQBgNVBAoTCVZpa2lu
Z1ZQTjEdMBsGA1UECxMUTXlPcmdhbml6YXRpb25hbFVuaXQxFTATBgNVBAMTDFZp
a2luZ1ZQTiBDQTEQMA4GA1UEKRMHRWFzeVJTQTEhMB8GCSqGSIb3DQEJARYSbWVA
bXlob3N0Lm15ZG9tYWluMB4XDTE0MDQwMjEwNTEzNFoXDTI0MDMzMDEwNTEzNFow
HjEcMBoGA1UEAxMTQ2xpZW50NTM3Q2VydDI3OTA2ODCCAiIwDQYJKoZIhvcNAQEB
BQADggIPADCCAgoCggIBAMNgufWr0d/F2wL/l7Y0bam3P+HFdiI5Mj0Gzn6QrWQm
3Y/GOxHrHY6bdZoK6ZLgWJznJ2RLlaHtVm2kbMsCXl4AgaRaSAHvC/ZlC+w4eq8R
uwR4DV+kFNTizs4D9jpOfExk86f7M9EtCH9m0K1aqEaO1lPnyzLyL83+8mHP8qHk
bBI4ncs5FeZ+1qWKT1EOmlJxY2b6r7RfdTWwrJxZ1Nh7hT9umVNc871amyxE0H+z
cPOIGOKsSSMQ7ZEeloii2yMDwhJSHZT+Kv7SXqWR9YV3HWWpIslfhe3Utc7ne/aP
n/2sf6GXebxQH8jt4wlzsbFDhDG2vkG6/BK+uCjh7qa94t5fTtK6NTR3m2zjp1FR
/WIFhsGWZ1pBP0UzLjPzynGQcDcQzF3WgJ8Y885gRge1r2PHFKnz+s3K09XW25c+
omNiQ92thzRiaw+cYaODacjjGb/Tzqu/MqXdGd8otkP/WPcN4w1Bffb5aXfebdkz
aUFhQVRYUG3B/VsS9nw2IQtuLBOJPo3TjV0u0xUOck69Aiy2QigPakNutBRLiWfZ
pa40xcTgzvlUbhhbtM1JmVN3IzqVs6abXUx0Pb2xwLSSaToqd0mKJDV92goMAwPM
etidzOYyuMdKQMslXFLIE5tKeT2GJcPgFhv1Gojt1dnMMpAjAktmS17fXvxc6Xan
AgMBAAGjggFjMIIBXzAJBgNVHRMEAjAAMC0GCWCGSAGG+EIBDQQgFh5FYXN5LVJT
QSBHZW5lcmF0ZWQgQ2VydGlmaWNhdGUwHQYDVR0OBBYEFP9XErQDUSVr+N3aTLD0
axSdkAE2MIHhBgNVHSMEgdkwgdaAFBLNYATSoICecO3Gmbh7LMZS/RmhoYGypIGv
MIGsMQswCQYDVQQGEwJVUzELMAkGA1UECBMCT0gxETAPBgNVBAcTCENvbHVtYnVz
MRIwEAYDVQQKEwlWaWtpbmdWUE4xHTAbBgNVBAsTFE15T3JnYW5pemF0aW9uYWxV
bml0MRUwEwYDVQQDEwxWaWtpbmdWUE4gQ0ExEDAOBgNVBCkTB0Vhc3lSU0ExITAf
BgkqhkiG9w0BCQEWEm1lQG15aG9zdC5teWRvbWFpboIJAM81he6Avyo+MBMGA1Ud
JQQMMAoGCCsGAQUFBwMCMAsGA1UdDwQEAwIHgDANBgkqhkiG9w0BAQQFAAOCAgEA
K4iT+3keauOXmrx0h5jrExcyoe0IbyncObLYaWps0BRNzVLmNeGAa1FwiAyybfaD
8DTge8oobpuWDGG34w41TalGGjmracZhUwkhMvg89UcavUjEViaUKQtM+m35wkj8
ZiAgJoYpBZNuscNGmWHx0t26G2rd8ygo+sw0C259VAoG7H8ZxbPbthji42zGdtvL
TQzPxFzna2LIIw6EoaMZbcmdpNTMccueDRyYcBPL9ajB94C7uiD0dQ8RapiDh2Ff
7uoRwz5dluKEiyNFhbHm4WPc8LSHcOFQRc3DwIPmLdg5TUvQh8CSBEM33kFzlfnB
/8SYz7FcVQSeVNSKvrSU88Djd5znByKFsC8cztblKsXFpYYe9ciFLI5mOExKjsXx
6e/7JKNTpLLN/cp7KkkqbR5TxqtzBHbUlWOix+Hoy1C5XSesfBVOWXyz8/qIEozB
iu+RimGjnmQGpbmmhBDilaT2BtUXgmTS6ieBElkRtVTTASWDAtJAf64o9lywx9nx
d3Dx63KM56u17+aVfwfz7tSWSxnWedbYX39tyxgJ6c/Y8UEwHaDmOEX7EhZ0nRsh
D8F4HSeRLcyGKuYUW3mOf2Rffe+2n2s9VJGL00Dg0nAk1ScEddmTL5HBbzZNKcF9
IiumhytSrQxa2HBtZQ0tZ9Qm+4Xgfs0fQXQS9sCpQy0=
-----END CERTIFICATE-----
