Certificate:
    Data:
        Version: 3 (0x2)
        Serial Number: 5391 (0x150f)
    Signature Algorithm: md5WithRSAEncryption
        Issuer: C=US, ST=OH, L=Columbus, O=VikingVPN, OU=MyOrganizationalUnit, CN=VikingVPN CA/name=EasyRSA/emailAddress=me@myhost.mydomain
        Validity
            Not Before: May 26 21:28:32 2015 GMT
            Not After : May 23 21:28:32 2025 GMT
        Subject: CN=Client1653Cert649852
        Subject Public Key Info:
            Public Key Algorithm: rsaEncryption
                Public-Key: (4096 bit)
                Modulus:
                    00:93:56:5c:e1:7b:05:80:be:bf:84:fa:aa:df:7b:
                    1c:ac:65:39:3a:9d:13:64:38:a9:b4:42:cb:17:51:
                    5d:73:16:7a:d1:c3:12:2b:aa:f3:4b:f9:9f:77:3b:
                    78:9d:72:df:12:6d:f7:bf:a0:b8:12:eb:1a:1a:b0:
                    34:d5:8a:35:3b:e5:2f:f7:c6:55:d7:cb:d3:d2:b0:
                    99:8c:61:d3:ca:64:56:63:15:d4:eb:99:66:c0:5a:
                    60:66:39:14:b4:4e:25:be:50:cb:99:05:25:94:74:
                    c1:a0:b7:98:87:38:1e:b6:c7:7e:4c:da:36:08:e9:
                    e6:40:00:ad:99:fe:59:4d:b4:3c:87:87:10:44:dd:
                    3f:03:79:92:c9:e0:cc:97:98:b8:ca:ee:b3:a7:99:
                    86:f3:5d:76:ad:80:23:53:88:84:20:88:a8:91:f5:
                    de:76:4c:bf:8c:d2:91:b1:18:3f:72:4e:72:7c:45:
                    25:7a:3d:f7:88:f0:85:5e:71:4d:2e:1c:21:ba:a1:
                    7d:7b:90:9b:fc:db:16:f7:94:bd:e4:66:0c:e7:af:
                    2b:d1:3a:80:ba:67:9c:81:0a:83:88:ff:44:94:81:
                    09:17:ac:55:49:f7:1b:bc:cc:b7:a2:fc:75:c2:af:
                    52:58:fb:63:ba:e5:71:46:40:ac:02:da:e5:73:23:
                    8e:fa:ff:ca:6a:78:e9:a7:35:66:05:cf:ee:a4:96:
                    a9:2b:63:8b:50:2d:d5:08:62:7b:d5:4a:fa:08:9a:
                    35:b1:44:bc:c5:bd:cb:50:68:12:6f:af:b7:69:90:
                    a3:8e:15:0c:47:50:11:ee:78:0f:a3:c2:61:ac:2f:
                    c4:38:c6:91:40:9b:5f:ff:94:a1:f6:66:7e:aa:99:
                    df:48:8c:24:2b:d1:19:ac:37:83:b6:8d:84:29:ab:
                    01:fe:fd:dd:cb:f5:60:b7:4a:83:9f:f5:a3:97:b5:
                    25:0b:f6:df:f5:0f:ef:46:4b:24:d3:33:49:69:9d:
                    41:54:e4:69:41:ce:b0:bc:4a:52:00:59:fb:b8:e2:
                    bf:82:1c:0f:67:b0:cd:1a:47:96:81:5a:60:2a:9c:
                    ad:32:0f:46:c7:1c:07:4f:9a:a2:f9:32:e7:30:20:
                    26:37:f2:23:9c:9c:9f:b1:95:15:bf:ed:ed:e5:51:
                    0d:25:1a:9a:24:28:52:bd:2e:7c:a3:8a:f8:38:f5:
                    94:50:23:e0:c4:4d:90:9d:4f:55:9b:f7:3c:3f:bc:
                    b8:40:88:8c:6f:a3:bc:4e:0b:52:e0:91:df:d6:a3:
                    ee:75:9b:33:55:c6:74:70:52:27:69:dc:51:c4:94:
                    07:1a:cc:17:a9:cb:9f:bd:8c:d5:77:6a:f6:e2:44:
                    36:ac:77
                Exponent: 65537 (0x10001)
        X509v3 extensions:
            X509v3 Basic Constraints: 
                CA:FALSE
            Netscape Comment: 
                Easy-RSA Generated Certificate
            X509v3 Subject Key Identifier: 
                81:82:A1:DE:2C:86:39:BF:10:02:A5:8D:96:43:66:AB:1B:FF:7A:E8
            X509v3 Authority Key Identifier: 
                keyid:12:CD:60:04:D2:A0:80:9E:70:ED:C6:99:B8:7B:2C:C6:52:FD:19:A1
                DirName:/C=US/ST=OH/L=Columbus/O=VikingVPN/OU=MyOrganizationalUnit/CN=VikingVPN CA/name=EasyRSA/emailAddress=me@myhost.mydomain
                serial:CF:35:85:EE:80:BF:2A:3E

            X509v3 Extended Key Usage: 
                TLS Web Client Authentication
            X509v3 Key Usage: 
                Digital Signature
    Signature Algorithm: md5WithRSAEncryption
         e5:75:25:3a:e0:a2:74:2b:fa:57:ff:84:f5:92:f2:e8:4b:25:
         f2:d1:ad:a8:d2:6d:f0:76:c3:7d:37:74:8c:77:a5:0c:12:18:
         64:75:37:64:0d:c9:f8:14:f5:e3:8a:53:5d:9a:96:a7:6c:6c:
         2c:17:6b:14:b6:79:b6:c4:ec:ed:13:54:10:57:64:bc:17:de:
         2d:1e:7d:33:2f:b6:46:55:7a:11:9c:12:c3:f9:c4:92:85:56:
         28:00:16:6f:67:67:6b:be:77:55:dd:b5:3a:09:38:20:e3:35:
         d0:f3:29:d6:cc:09:65:d2:7a:87:3f:e2:b7:0b:53:c5:15:3e:
         03:76:a7:99:c6:d8:e1:32:3e:bb:5d:31:c4:e6:6c:99:fe:95:
         a3:91:39:24:f9:20:0b:a9:9c:7f:1c:77:0a:4b:cd:2f:80:7f:
         48:9e:27:df:ae:bf:da:85:57:ea:d1:2d:f1:a4:a1:dc:7d:28:
         83:37:dc:62:5b:29:af:d2:fe:2c:a5:a8:ce:c7:2c:4c:8a:2c:
         c5:32:5d:e9:f5:fc:16:e9:99:ad:4e:ee:fb:c2:cf:ab:90:30:
         34:a5:00:a5:5b:c7:29:f0:8b:a3:81:da:00:32:0e:a1:b7:8d:
         bf:c5:25:52:cf:0c:63:ac:5e:cf:73:de:05:c4:25:a0:ed:a0:
         3d:5f:bd:96:97:85:d9:fb:38:a0:f9:37:3a:8d:9d:97:10:4e:
         ed:0e:ff:86:67:c3:e8:f0:f9:78:f2:f6:55:85:21:d5:40:2e:
         8b:74:56:e9:42:ef:3c:30:c9:2f:38:c5:08:61:97:00:6d:f8:
         24:00:26:9e:ae:85:08:73:fd:65:7c:8b:ce:bd:6c:d5:72:9d:
         66:36:3e:09:85:5f:f5:35:dd:2c:c8:b8:44:68:a4:67:e3:c7:
         dd:a5:5b:ca:90:2a:2b:08:a5:dd:89:15:dd:17:bf:72:27:0a:
         6e:7e:55:4e:cb:09:c7:0c:f8:eb:8d:64:fc:82:8c:72:93:a9:
         4f:27:fc:6d:f1:c3:c0:7b:64:4b:1b:7a:c9:55:b7:53:ab:b8:
         91:72:f9:e7:d3:50:86:0e:2a:f8:91:06:bf:0b:a8:11:6c:fe:
         40:31:76:39:06:ae:93:6a:87:36:6e:0a:63:53:40:64:31:02:
         c6:44:2a:38:ba:69:7d:d2:b7:28:ef:b2:a4:aa:1d:e3:78:bb:
         87:e8:f3:7a:8c:03:3c:8f:f9:4a:2a:73:93:24:fa:5c:22:f1:
         cf:c4:63:76:33:a5:f1:96:b6:55:b0:49:ca:fd:82:2b:3d:c0:
         e9:c7:64:7b:c3:1c:f2:fa:e4:7e:22:63:a6:9a:c4:d6:0d:a0:
         95:55:dc:66:ed:5c:4b:07
-----BEGIN CERTIFICATE-----
MIIGrTCCBJWgAwIBAgICFQ8wDQYJKoZIhvcNAQEEBQAwgawxCzAJBgNVBAYTAlVT
MQswCQYDVQQIEwJPSDERMA8GA1UEBxMIQ29sdW1idXMxEjAQBgNVBAoTCVZpa2lu
Z1ZQTjEdMBsGA1UECxMUTXlPcmdhbml6YXRpb25hbFVuaXQxFTATBgNVBAMTDFZp
a2luZ1ZQTiBDQTEQMA4GA1UEKRMHRWFzeVJTQTEhMB8GCSqGSIb3DQEJARYSbWVA
bXlob3N0Lm15ZG9tYWluMB4XDTE1MDUyNjIxMjgzMloXDTI1MDUyMzIxMjgzMlow
HzEdMBsGA1UEAxMUQ2xpZW50MTY1M0NlcnQ2NDk4NTIwggIiMA0GCSqGSIb3DQEB
AQUAA4ICDwAwggIKAoICAQCTVlzhewWAvr+E+qrfexysZTk6nRNkOKm0QssXUV1z
FnrRwxIrqvNL+Z93O3idct8Sbfe/oLgS6xoasDTVijU75S/3xlXXy9PSsJmMYdPK
ZFZjFdTrmWbAWmBmORS0TiW+UMuZBSWUdMGgt5iHOB62x35M2jYI6eZAAK2Z/llN
tDyHhxBE3T8DeZLJ4MyXmLjK7rOnmYbzXXatgCNTiIQgiKiR9d52TL+M0pGxGD9y
TnJ8RSV6PfeI8IVecU0uHCG6oX17kJv82xb3lL3kZgznryvROoC6Z5yBCoOI/0SU
gQkXrFVJ9xu8zLei/HXCr1JY+2O65XFGQKwC2uVzI476/8pqeOmnNWYFz+6klqkr
Y4tQLdUIYnvVSvoImjWxRLzFvctQaBJvr7dpkKOOFQxHUBHueA+jwmGsL8Q4xpFA
m1//lKH2Zn6qmd9IjCQr0RmsN4O2jYQpqwH+/d3L9WC3SoOf9aOXtSUL9t/1D+9G
SyTTM0lpnUFU5GlBzrC8SlIAWfu44r+CHA9nsM0aR5aBWmAqnK0yD0bHHAdPmqL5
MucwICY38iOcnJ+xlRW/7e3lUQ0lGpokKFK9Lnyjivg49ZRQI+DETZCdT1Wb9zw/
vLhAiIxvo7xOC1Lgkd/Wo+51mzNVxnRwUidp3FHElAcazBepy5+9jNV3avbiRDas
dwIDAQABo4IBYzCCAV8wCQYDVR0TBAIwADAtBglghkgBhvhCAQ0EIBYeRWFzeS1S
U0EgR2VuZXJhdGVkIENlcnRpZmljYXRlMB0GA1UdDgQWBBSBgqHeLIY5vxACpY2W
Q2arG/966DCB4QYDVR0jBIHZMIHWgBQSzWAE0qCAnnDtxpm4eyzGUv0ZoaGBsqSB
rzCBrDELMAkGA1UEBhMCVVMxCzAJBgNVBAgTAk9IMREwDwYDVQQHEwhDb2x1bWJ1
czESMBAGA1UEChMJVmlraW5nVlBOMR0wGwYDVQQLExRNeU9yZ2FuaXphdGlvbmFs
VW5pdDEVMBMGA1UEAxMMVmlraW5nVlBOIENBMRAwDgYDVQQpEwdFYXN5UlNBMSEw
HwYJKoZIhvcNAQkBFhJtZUBteWhvc3QubXlkb21haW6CCQDPNYXugL8qPjATBgNV
HSUEDDAKBggrBgEFBQcDAjALBgNVHQ8EBAMCB4AwDQYJKoZIhvcNAQEEBQADggIB
AOV1JTrgonQr+lf/hPWS8uhLJfLRrajSbfB2w303dIx3pQwSGGR1N2QNyfgU9eOK
U12alqdsbCwXaxS2ebbE7O0TVBBXZLwX3i0efTMvtkZVehGcEsP5xJKFVigAFm9n
Z2u+d1XdtToJOCDjNdDzKdbMCWXSeoc/4rcLU8UVPgN2p5nG2OEyPrtdMcTmbJn+
laOROST5IAupnH8cdwpLzS+Af0ieJ9+uv9qFV+rRLfGkodx9KIM33GJbKa/S/iyl
qM7HLEyKLMUyXen1/Bbpma1O7vvCz6uQMDSlAKVbxynwi6OB2gAyDqG3jb/FJVLP
DGOsXs9z3gXEJaDtoD1fvZaXhdn7OKD5NzqNnZcQTu0O/4Znw+jw+Xjy9lWFIdVA
Lot0VulC7zwwyS84xQhhlwBt+CQAJp6uhQhz/WV8i869bNVynWY2PgmFX/U13SzI
uERopGfjx92lW8qQKisIpd2JFd0Xv3InCm5+VU7LCccM+OuNZPyCjHKTqU8n/G3x
w8B7ZEsbeslVt1OruJFy+efTUIYOKviRBr8LqBFs/kAxdjkGrpNqhzZuCmNTQGQx
AsZEKji6aX3StyjvsqSqHeN4u4fo83qMAzyP+Uoqc5Mk+lwi8c/EY3YzpfGWtlWw
Scr9gis9wOnHZHvDHPL65H4iY6aaxNYNoJVV3GbtXEsH
-----END CERTIFICATE-----
