Certificate:
    Data:
        Version: 3 (0x2)
        Serial Number: 9523 (0x2533)
    Signature Algorithm: sha256WithRSAEncryption
        Issuer: C=US, ST=OH, L=Columbus, O=VikingVPN, OU=MyOrganizationalUnit, CN=VikingVPN CA/name=EasyRSA/emailAddress=me@myhost.mydomain
        Validity
            Not Before: Nov 23 20:49:01 2016 GMT
            Not After : Nov 21 20:49:01 2026 GMT
        Subject: CN=Client3Cert75ed01
        Subject Public Key Info:
            Public Key Algorithm: rsaEncryption
                Public-Key: (4096 bit)
                Modulus:
                    00:9b:26:57:26:88:45:1a:56:4c:10:43:e0:de:8a:
                    d2:67:05:68:c9:35:72:49:78:33:b6:c2:4c:a3:f8:
                    f0:8f:7b:4b:1f:b9:39:3c:54:ae:72:8a:60:1f:16:
                    f1:0f:0e:d9:39:58:29:fc:4b:8a:ff:34:3b:6c:34:
                    ed:45:bc:19:3f:0b:0f:c4:5a:c6:45:0b:7d:7c:cf:
                    84:4a:2e:3c:24:62:3a:b9:4c:eb:c1:91:e8:36:2f:
                    33:c7:3f:1f:0b:3d:c8:e3:cd:58:47:76:7e:cd:a5:
                    7b:c2:cf:f5:80:bd:9a:75:ef:10:86:8e:08:71:49:
                    dd:dc:86:e5:8d:2e:f7:7c:54:59:9f:e9:cf:20:b8:
                    b9:48:15:6a:89:bf:60:8c:da:dd:69:34:45:94:c5:
                    2f:ee:96:52:9f:63:29:64:3b:da:d9:de:e0:3c:d8:
                    16:46:08:8b:bc:3d:81:ce:d8:1f:fa:fc:0a:bb:f4:
                    9d:e0:f2:0e:12:e9:56:4b:f3:2f:1d:a2:85:75:e6:
                    28:f1:d4:34:03:1f:e5:bc:ef:c9:a8:a6:0c:df:94:
                    7b:82:27:e5:1e:92:3a:ea:17:86:80:c0:d7:4c:f3:
                    44:09:02:4e:ac:8c:6b:a0:9c:aa:7c:68:54:f4:e1:
                    5a:04:af:29:6f:49:1d:8b:d9:5b:cb:21:31:71:31:
                    76:04:40:d9:f7:3e:69:d8:be:91:4a:55:36:04:97:
                    1b:e9:e1:87:22:c6:a5:10:ec:79:14:b4:15:e6:3e:
                    55:77:58:a2:eb:65:ef:4e:d1:3b:6d:67:25:ef:e9:
                    fc:bc:fa:ee:f1:4d:37:dc:37:3c:f2:ae:db:32:ec:
                    87:21:3d:65:b7:e7:0a:c7:38:86:b6:ca:44:c3:77:
                    0e:b8:93:1b:3a:d6:db:13:ad:13:df:c8:cd:fb:85:
                    cd:fc:42:2a:5d:05:2e:53:af:77:16:ea:9c:0f:84:
                    97:04:b3:fb:1b:ae:1d:0c:9f:4a:ea:a0:00:98:ad:
                    c1:fc:6b:c3:0f:65:d4:d2:bd:02:32:39:6d:94:94:
                    b2:44:f8:21:a4:4e:3d:f7:20:62:92:03:ee:cf:d5:
                    28:cd:ae:64:94:10:f7:d2:1b:55:80:9f:f0:ae:ef:
                    b7:5f:47:d8:7f:37:04:dd:5a:73:d0:a4:ce:12:7c:
                    0d:38:44:f3:2e:db:3e:75:1f:80:6a:fb:5c:ec:bf:
                    88:4c:f7:0c:b7:6c:f1:37:ca:4d:25:68:d3:31:8f:
                    ad:12:22:aa:fa:1b:b5:96:fc:df:2d:d9:e1:5f:5b:
                    2b:cb:52:62:93:68:5a:f3:32:82:5b:54:0d:5b:b6:
                    4a:d2:41:5d:72:f5:52:72:3b:7a:12:e7:cd:cb:f1:
                    d8:c0:8b
                Exponent: 65537 (0x10001)
        X509v3 extensions:
            X509v3 Basic Constraints: 
                CA:FALSE
            Netscape Comment: 
                Easy-RSA Generated Certificate
            X509v3 Subject Key Identifier: 
                E4:09:57:E3:7D:76:70:D2:9A:46:F6:5B:67:01:36:34:9D:9E:AD:29
            X509v3 Authority Key Identifier: 
                keyid:12:CD:60:04:D2:A0:80:9E:70:ED:C6:99:B8:7B:2C:C6:52:FD:19:A1
                DirName:/C=US/ST=OH/L=Columbus/O=VikingVPN/OU=MyOrganizationalUnit/CN=VikingVPN CA/name=EasyRSA/emailAddress=me@myhost.mydomain
                serial:CF:35:85:EE:80:BF:2A:3E

            X509v3 Extended Key Usage: 
                TLS Web Client Authentication
            X509v3 Key Usage: 
                Digital Signature
    Signature Algorithm: sha256WithRSAEncryption
         35:14:5b:0b:6d:54:42:8a:53:9f:0a:f2:cd:2e:8e:a8:a0:4e:
         44:09:5a:ed:64:a9:ed:d9:60:c0:82:9b:1f:93:a6:96:84:db:
         f6:87:71:7e:32:47:19:0e:6c:b5:78:58:1b:47:73:ee:db:b8:
         7c:99:51:4c:1a:b5:5b:f9:d6:73:ba:3f:7b:9c:47:c7:9a:63:
         2a:50:8d:4d:4b:3e:ef:8c:95:1e:b2:be:18:0c:2b:e6:5d:95:
         ad:47:48:46:99:23:f9:ee:77:96:e1:fa:cd:c6:51:dc:9f:42:
         11:0d:a6:13:b2:f1:61:df:e2:f2:c3:e6:2f:be:19:30:9a:17:
         63:87:2d:37:3f:3e:a0:a0:d6:8f:d4:6d:ac:78:2a:ea:25:2e:
         da:52:a2:0a:6a:33:82:a8:c0:36:aa:ea:f7:3c:b8:7e:81:fe:
         f7:b0:3d:80:fb:b6:ed:37:62:da:60:25:e6:37:fe:82:cb:d6:
         de:d4:33:7c:93:54:c5:26:43:61:30:b0:29:66:8e:7c:1b:1a:
         1e:b5:5d:54:6d:14:fd:89:41:0a:25:15:6f:78:a4:90:99:af:
         ee:55:ea:21:89:0c:ca:91:31:c2:06:b1:4f:fd:83:ca:0a:e7:
         a4:b5:51:19:22:21:3c:59:47:11:78:53:9a:0d:fd:9a:46:6d:
         e4:27:a9:ae:4d:92:47:7c:b9:61:e3:98:ef:52:49:76:6e:6a:
         1c:be:d9:09:4b:15:44:03:ce:d2:9b:6c:9d:57:ad:08:b7:76:
         e7:b1:e0:9f:03:7e:4c:d1:e2:d9:b6:7c:ef:99:cd:36:ba:a1:
         d1:04:c8:65:5d:f4:cd:f8:a6:7c:e6:3e:3a:a9:ab:10:1f:2c:
         1d:e6:0c:da:8e:84:11:54:d3:a2:3b:8e:c8:63:c2:1f:e7:66:
         de:a8:cc:88:02:bb:51:94:68:de:9c:6d:ea:84:88:af:39:c0:
         c7:e0:34:15:9c:76:ef:0e:2c:65:a8:2d:49:a7:5c:7d:b5:79:
         85:02:2d:c8:59:b4:f6:9b:ab:6e:10:3e:a2:06:d7:40:f4:44:
         ce:2a:1d:77:df:2f:66:5d:f0:7f:a2:44:3a:8f:96:d2:ae:26:
         ab:d1:5a:40:dc:f6:d7:c9:0f:0c:69:b4:29:05:f5:32:1a:75:
         16:e7:a9:d5:c8:7f:3a:2f:28:1e:a7:93:77:55:5d:bf:ec:7a:
         81:f0:fb:41:67:df:5b:64:39:ff:fe:5f:4e:4a:76:7f:66:0b:
         3e:01:34:4a:e5:fa:15:bf:5f:4a:c3:c6:fc:62:18:41:fe:da:
         45:18:6a:2d:d1:c5:9b:20:e7:89:86:e2:90:3d:3f:64:9e:61:
         05:71:d7:96:5f:b4:3d:eb
-----BEGIN CERTIFICATE-----
MIIGqjCCBJKgAwIBAgICJTMwDQYJKoZIhvcNAQELBQAwgawxCzAJBgNVBAYTAlVT
MQswCQYDVQQIEwJPSDERMA8GA1UEBxMIQ29sdW1idXMxEjAQBgNVBAoTCVZpa2lu
Z1ZQTjEdMBsGA1UECxMUTXlPcmdhbml6YXRpb25hbFVuaXQxFTATBgNVBAMTDFZp
a2luZ1ZQTiBDQTEQMA4GA1UEKRMHRWFzeVJTQTEhMB8GCSqGSIb3DQEJARYSbWVA
bXlob3N0Lm15ZG9tYWluMB4XDTE2MTEyMzIwNDkwMVoXDTI2MTEyMTIwNDkwMVow
HDEaMBgGA1UEAxMRQ2xpZW50M0NlcnQ3NWVkMDEwggIiMA0GCSqGSIb3DQEBAQUA
A4ICDwAwggIKAoICAQCbJlcmiEUaVkwQQ+DeitJnBWjJNXJJeDO2wkyj+PCPe0sf
uTk8VK5yimAfFvEPDtk5WCn8S4r/NDtsNO1FvBk/Cw/EWsZFC318z4RKLjwkYjq5
TOvBkeg2LzPHPx8LPcjjzVhHdn7NpXvCz/WAvZp17xCGjghxSd3chuWNLvd8VFmf
6c8guLlIFWqJv2CM2t1pNEWUxS/ullKfYylkO9rZ3uA82BZGCIu8PYHO2B/6/Aq7
9J3g8g4S6VZL8y8dooV15ijx1DQDH+W878mopgzflHuCJ+UekjrqF4aAwNdM80QJ
Ak6sjGugnKp8aFT04VoErylvSR2L2VvLITFxMXYEQNn3PmnYvpFKVTYElxvp4Yci
xqUQ7HkUtBXmPlV3WKLrZe9O0TttZyXv6fy8+u7xTTfcNzzyrtsy7IchPWW35wrH
OIa2ykTDdw64kxs61tsTrRPfyM37hc38QipdBS5Tr3cW6pwPhJcEs/sbrh0Mn0rq
oACYrcH8a8MPZdTSvQIyOW2UlLJE+CGkTj33IGKSA+7P1SjNrmSUEPfSG1WAn/Cu
77dfR9h/NwTdWnPQpM4SfA04RPMu2z51H4Bq+1zsv4hM9wy3bPE3yk0laNMxj60S
Iqr6G7WW/N8t2eFfWyvLUmKTaFrzMoJbVA1btkrSQV1y9VJyO3oS583L8djAiwID
AQABo4IBYzCCAV8wCQYDVR0TBAIwADAtBglghkgBhvhCAQ0EIBYeRWFzeS1SU0Eg
R2VuZXJhdGVkIENlcnRpZmljYXRlMB0GA1UdDgQWBBTkCVfjfXZw0ppG9ltnATY0
nZ6tKTCB4QYDVR0jBIHZMIHWgBQSzWAE0qCAnnDtxpm4eyzGUv0ZoaGBsqSBrzCB
rDELMAkGA1UEBhMCVVMxCzAJBgNVBAgTAk9IMREwDwYDVQQHEwhDb2x1bWJ1czES
MBAGA1UEChMJVmlraW5nVlBOMR0wGwYDVQQLExRNeU9yZ2FuaXphdGlvbmFsVW5p
dDEVMBMGA1UEAxMMVmlraW5nVlBOIENBMRAwDgYDVQQpEwdFYXN5UlNBMSEwHwYJ
KoZIhvcNAQkBFhJtZUBteWhvc3QubXlkb21haW6CCQDPNYXugL8qPjATBgNVHSUE
DDAKBggrBgEFBQcDAjALBgNVHQ8EBAMCB4AwDQYJKoZIhvcNAQELBQADggIBADUU
WwttVEKKU58K8s0ujqigTkQJWu1kqe3ZYMCCmx+TppaE2/aHcX4yRxkObLV4WBtH
c+7buHyZUUwatVv51nO6P3ucR8eaYypQjU1LPu+MlR6yvhgMK+Zdla1HSEaZI/nu
d5bh+s3GUdyfQhENphOy8WHf4vLD5i++GTCaF2OHLTc/PqCg1o/Ubax4KuolLtpS
ogpqM4KowDaq6vc8uH6B/vewPYD7tu03YtpgJeY3/oLL1t7UM3yTVMUmQ2EwsClm
jnwbGh61XVRtFP2JQQolFW94pJCZr+5V6iGJDMqRMcIGsU/9g8oK56S1URkiITxZ
RxF4U5oN/ZpGbeQnqa5Nkkd8uWHjmO9SSXZuahy+2QlLFUQDztKbbJ1XrQi3duex
4J8DfkzR4tm2fO+ZzTa6odEEyGVd9M34pnzmPjqpqxAfLB3mDNqOhBFU06I7jshj
wh/nZt6ozIgCu1GUaN6cbeqEiK85wMfgNBWcdu8OLGWoLUmnXH21eYUCLchZtPab
q24QPqIG10D0RM4qHXffL2Zd8H+iRDqPltKuJqvRWkDc9tfJDwxptCkF9TIadRbn
qdXIfzovKB6nk3dVXb/seoHw+0Fn31tkOf/+X05Kdn9mCz4BNErl+hW/X0rDxvxi
GEH+2kUYai3RxZsg54mG4pA9P2SeYQVx15ZftD3r
-----END CERTIFICATE-----
