Certificate:
    Data:
        Version: 3 (0x2)
        Serial Number: 12694 (0x3196)
    Signature Algorithm: sha256WithRSAEncryption
        Issuer: C=US, ST=OH, L=Columbus, O=VikingVPN, OU=MyOrganizationalUnit, CN=VikingVPN CA/name=EasyRSA/emailAddress=me@myhost.mydomain
        Validity
            Not Before: Mar  4 14:47:45 2018 GMT
            Not After : Mar  1 14:47:45 2028 GMT
        Subject: CN=Client3244Cert430d4a
        Subject Public Key Info:
            Public Key Algorithm: rsaEncryption
                Public-Key: (4096 bit)
                Modulus:
                    00:ec:69:f3:29:10:36:c0:fc:02:db:28:3b:90:dc:
                    e5:ff:d4:6e:cb:5d:56:e3:6d:61:c5:99:ac:46:41:
                    07:58:1f:53:f6:d8:6f:ba:90:27:1e:33:8a:00:10:
                    91:ff:ca:a1:b6:d6:ea:16:f7:fb:0b:72:7f:7b:66:
                    1d:9f:6e:87:90:c8:fa:b9:6c:6c:f3:8b:dc:86:ae:
                    f6:6d:9e:42:7f:d6:ce:4b:ea:3a:7e:b2:1c:14:6e:
                    e7:95:3e:ef:4d:9a:48:d8:c0:e0:ab:af:63:8c:a1:
                    ee:63:1f:bf:16:29:54:fe:59:56:ab:00:82:32:3b:
                    a4:9b:8b:af:0d:36:99:54:5c:c2:a8:6a:b4:d4:86:
                    99:17:ef:99:f3:37:33:b4:08:51:c9:df:75:0f:d6:
                    b0:b5:58:1b:f7:b2:6d:68:47:95:32:36:cc:6b:8c:
                    9c:66:8d:c8:2c:3c:2f:3f:37:e9:5b:2e:32:91:40:
                    11:97:67:89:be:bf:1b:62:91:11:d1:75:aa:e1:69:
                    dd:e4:e2:cc:b4:f9:f9:11:bf:a6:5c:8e:80:8d:71:
                    9e:be:d9:9d:32:6f:ac:90:e6:d7:11:b4:da:d2:ce:
                    b6:a3:5b:d0:9e:9f:b7:ef:ff:83:db:d5:a0:b9:56:
                    86:d4:17:e8:43:b8:7e:16:44:2f:02:e9:61:ef:53:
                    2a:c1:b3:16:67:e5:1c:0f:7e:a6:36:5f:bb:4c:79:
                    21:1f:23:36:0b:ad:08:9f:27:62:eb:a4:de:ac:af:
                    b4:51:d0:83:04:a7:af:31:9a:a0:20:4e:67:30:db:
                    75:e8:d2:ad:d2:6a:cb:49:93:e7:97:28:bc:99:f7:
                    34:5b:7c:5e:14:24:53:81:cb:2a:28:a1:da:b6:5f:
                    6b:98:e8:7a:f7:12:3f:1e:18:19:d4:19:5f:ee:17:
                    72:a1:2c:e9:78:a6:05:fb:d1:2e:4a:01:ed:74:6d:
                    76:da:0b:ed:6a:66:ac:d9:85:a0:ee:d1:dd:5d:48:
                    48:5f:82:b5:e4:ce:ad:4c:dc:39:7f:b0:d4:c1:1c:
                    9a:a9:b1:49:12:5b:f6:f3:0a:99:4e:06:32:18:64:
                    41:89:a4:88:b4:01:1b:8c:31:45:e8:fc:c0:57:ac:
                    dd:30:76:20:f7:04:18:58:c4:75:a7:02:c2:96:de:
                    6d:d6:8f:8f:51:58:f0:bb:0d:0a:07:23:22:18:c8:
                    3f:1f:b1:b5:9f:9c:26:2f:c7:d7:18:c7:6a:e9:27:
                    1f:54:30:58:4f:1e:95:a5:86:4a:8f:f2:a5:b6:be:
                    18:c4:e9:b3:94:68:31:aa:07:70:17:d9:ef:0d:43:
                    d4:b4:5e:34:91:92:d0:0d:bd:ba:e8:7c:1a:e0:76:
                    ae:7e:91
                Exponent: 65537 (0x10001)
        X509v3 extensions:
            X509v3 Basic Constraints: 
                CA:FALSE
            Netscape Comment: 
                Easy-RSA Generated Certificate
            X509v3 Subject Key Identifier: 
                F5:AE:99:19:C6:4D:9C:70:49:33:E7:27:46:F9:C7:97:09:D4:CE:88
            X509v3 Authority Key Identifier: 
                keyid:12:CD:60:04:D2:A0:80:9E:70:ED:C6:99:B8:7B:2C:C6:52:FD:19:A1
                DirName:/C=US/ST=OH/L=Columbus/O=VikingVPN/OU=MyOrganizationalUnit/CN=VikingVPN CA/name=EasyRSA/emailAddress=me@myhost.mydomain
                serial:CF:35:85:EE:80:BF:2A:3E

            X509v3 Extended Key Usage: 
                TLS Web Client Authentication
            X509v3 Key Usage: 
                Digital Signature
    Signature Algorithm: sha256WithRSAEncryption
         6a:38:bc:6e:b8:e6:e5:fb:37:78:39:7e:cf:1c:23:4a:19:a7:
         9b:b0:81:05:40:6b:0f:e3:cd:81:5e:79:12:cf:56:91:ca:14:
         e7:7f:0d:fd:b6:0f:3d:69:15:c8:32:29:1b:ac:40:bc:a8:2a:
         4c:c4:d0:75:9f:c1:9b:1b:64:7d:5f:f8:df:0a:a9:05:19:84:
         92:2b:b9:9b:84:b2:b1:a4:20:69:06:fb:63:04:41:a3:95:14:
         94:7c:d5:6a:46:7e:0a:85:02:77:f8:41:3f:0b:8f:ba:96:a7:
         34:5a:1d:cb:16:e9:20:d0:ea:a2:b0:eb:1d:13:ee:b5:18:e2:
         0b:31:43:cb:47:1b:f9:81:c7:eb:59:6e:7f:fc:94:d4:9b:89:
         08:ec:3a:a9:1c:7a:8e:c4:67:7e:e0:90:9e:48:8f:e8:1e:02:
         e1:42:d8:22:86:dc:13:ea:d1:6d:cd:0c:a4:74:6b:72:b8:6f:
         f0:21:05:5f:e4:d2:39:1f:d0:1d:d3:68:d4:64:a3:d8:96:0c:
         ca:47:e9:62:98:ef:a1:90:3d:0e:0b:4f:d4:f8:a5:55:60:32:
         e3:5b:01:8b:7e:7e:7a:d5:f7:c8:aa:f7:23:5e:38:66:6d:aa:
         5c:4b:3c:7f:34:cd:d8:59:78:24:46:0a:bb:66:9f:b7:e7:62:
         94:b4:8d:5d:87:ef:58:f9:9b:55:2c:b3:0e:c7:dc:37:15:80:
         00:82:6a:e6:b8:a8:4b:af:e7:41:f4:94:3e:1c:a2:08:ad:4f:
         ff:37:4c:eb:ef:ef:e1:8b:9d:0e:89:73:a3:e6:0b:8d:42:a3:
         cd:5d:b5:ec:82:b4:ef:70:68:0e:e8:aa:41:00:4b:06:b7:71:
         86:53:cb:d7:25:b9:3b:d8:9a:c8:45:32:cd:64:a7:10:3e:b3:
         b4:48:16:69:c2:65:47:7f:c6:84:13:63:48:06:6b:2e:0f:67:
         72:55:be:43:82:f3:51:07:21:70:8d:c5:df:8b:a0:ec:02:0b:
         96:dc:4d:77:da:5e:8d:ca:cf:4c:5d:93:b4:95:80:b6:26:ee:
         b6:5d:0e:cf:a5:5f:59:bd:ca:bd:b4:00:46:a7:97:50:de:df:
         ab:d2:71:24:92:1c:06:5b:de:2d:88:b8:ae:bc:99:99:59:39:
         e1:1e:ea:bb:85:a7:33:08:95:f9:dd:50:85:f5:8b:44:a9:4f:
         d6:90:87:1b:c2:9d:09:40:7e:e6:99:fb:bd:b5:9b:cf:0b:7e:
         9e:29:63:f0:56:77:65:a7:5a:52:f9:ec:6d:6a:a4:4b:d6:dd:
         87:ce:2c:0b:e3:4a:94:e2:b8:16:1f:29:57:f6:4c:ed:c4:5b:
         88:3f:a5:e3:68:05:51:2c
-----BEGIN CERTIFICATE-----
MIIGrTCCBJWgAwIBAgICMZYwDQYJKoZIhvcNAQELBQAwgawxCzAJBgNVBAYTAlVT
MQswCQYDVQQIEwJPSDERMA8GA1UEBxMIQ29sdW1idXMxEjAQBgNVBAoTCVZpa2lu
Z1ZQTjEdMBsGA1UECxMUTXlPcmdhbml6YXRpb25hbFVuaXQxFTATBgNVBAMTDFZp
a2luZ1ZQTiBDQTEQMA4GA1UEKRMHRWFzeVJTQTEhMB8GCSqGSIb3DQEJARYSbWVA
bXlob3N0Lm15ZG9tYWluMB4XDTE4MDMwNDE0NDc0NVoXDTI4MDMwMTE0NDc0NVow
HzEdMBsGA1UEAxMUQ2xpZW50MzI0NENlcnQ0MzBkNGEwggIiMA0GCSqGSIb3DQEB
AQUAA4ICDwAwggIKAoICAQDsafMpEDbA/ALbKDuQ3OX/1G7LXVbjbWHFmaxGQQdY
H1P22G+6kCceM4oAEJH/yqG21uoW9/sLcn97Zh2fboeQyPq5bGzzi9yGrvZtnkJ/
1s5L6jp+shwUbueVPu9NmkjYwOCrr2OMoe5jH78WKVT+WVarAIIyO6Sbi68NNplU
XMKoarTUhpkX75nzNzO0CFHJ33UP1rC1WBv3sm1oR5UyNsxrjJxmjcgsPC8/N+lb
LjKRQBGXZ4m+vxtikRHRdarhad3k4sy0+fkRv6ZcjoCNcZ6+2Z0yb6yQ5tcRtNrS
zrajW9Cen7fv/4Pb1aC5VobUF+hDuH4WRC8C6WHvUyrBsxZn5RwPfqY2X7tMeSEf
IzYLrQifJ2LrpN6sr7RR0IMEp68xmqAgTmcw23Xo0q3SastJk+eXKLyZ9zRbfF4U
JFOByyooodq2X2uY6Hr3Ej8eGBnUGV/uF3KhLOl4pgX70S5KAe10bXbaC+1qZqzZ
haDu0d1dSEhfgrXkzq1M3Dl/sNTBHJqpsUkSW/bzCplOBjIYZEGJpIi0ARuMMUXo
/MBXrN0wdiD3BBhYxHWnAsKW3m3Wj49RWPC7DQoHIyIYyD8fsbWfnCYvx9cYx2rp
Jx9UMFhPHpWlhkqP8qW2vhjE6bOUaDGqB3AX2e8NQ9S0XjSRktANvbrofBrgdq5+
kQIDAQABo4IBYzCCAV8wCQYDVR0TBAIwADAtBglghkgBhvhCAQ0EIBYeRWFzeS1S
U0EgR2VuZXJhdGVkIENlcnRpZmljYXRlMB0GA1UdDgQWBBT1rpkZxk2ccEkz5ydG
+ceXCdTOiDCB4QYDVR0jBIHZMIHWgBQSzWAE0qCAnnDtxpm4eyzGUv0ZoaGBsqSB
rzCBrDELMAkGA1UEBhMCVVMxCzAJBgNVBAgTAk9IMREwDwYDVQQHEwhDb2x1bWJ1
czESMBAGA1UEChMJVmlraW5nVlBOMR0wGwYDVQQLExRNeU9yZ2FuaXphdGlvbmFs
VW5pdDEVMBMGA1UEAxMMVmlraW5nVlBOIENBMRAwDgYDVQQpEwdFYXN5UlNBMSEw
HwYJKoZIhvcNAQkBFhJtZUBteWhvc3QubXlkb21haW6CCQDPNYXugL8qPjATBgNV
HSUEDDAKBggrBgEFBQcDAjALBgNVHQ8EBAMCB4AwDQYJKoZIhvcNAQELBQADggIB
AGo4vG645uX7N3g5fs8cI0oZp5uwgQVAaw/jzYFeeRLPVpHKFOd/Df22Dz1pFcgy
KRusQLyoKkzE0HWfwZsbZH1f+N8KqQUZhJIruZuEsrGkIGkG+2MEQaOVFJR81WpG
fgqFAnf4QT8Lj7qWpzRaHcsW6SDQ6qKw6x0T7rUY4gsxQ8tHG/mBx+tZbn/8lNSb
iQjsOqkceo7EZ37gkJ5Ij+geAuFC2CKG3BPq0W3NDKR0a3K4b/AhBV/k0jkf0B3T
aNRko9iWDMpH6WKY76GQPQ4LT9T4pVVgMuNbAYt+fnrV98iq9yNeOGZtqlxLPH80
zdhZeCRGCrtmn7fnYpS0jV2H71j5m1Ussw7H3DcVgACCaua4qEuv50H0lD4cogit
T/83TOvv7+GLnQ6Jc6PmC41Co81dteyCtO9waA7oqkEASwa3cYZTy9cluTvYmshF
Ms1kpxA+s7RIFmnCZUd/xoQTY0gGay4PZ3JVvkOC81EHIXCNxd+LoOwCC5bcTXfa
Xo3Kz0xdk7SVgLYm7rZdDs+lX1m9yr20AEanl1De36vScSSSHAZb3i2IuK68mZlZ
OeEe6ruFpzMIlfndUIX1i0SpT9aQhxvCnQlAfuaZ+721m88Lfp4pY/BWd2WnWlL5
7G1qpEvW3YfOLAvjSpTiuBYfKVf2TO3EW4g/peNoBVEs
-----END CERTIFICATE-----
