Certificate:
    Data:
        Version: 3 (0x2)
        Serial Number: 8053 (0x1f75)
    Signature Algorithm: md5WithRSAEncryption
        Issuer: C=US, ST=OH, L=Columbus, O=VikingVPN, OU=MyOrganizationalUnit, CN=VikingVPN CA/name=EasyRSA/emailAddress=me@myhost.mydomain
        Validity
            Not Before: May 27 01:29:13 2016 GMT
            Not After : May 25 01:29:13 2026 GMT
        Subject: CN=Client2312Certc2b390
        Subject Public Key Info:
            Public Key Algorithm: rsaEncryption
                Public-Key: (4096 bit)
                Modulus:
                    00:e1:51:57:35:29:db:c6:3a:3f:e5:a8:78:49:56:
                    b0:b1:57:9c:c2:4f:5f:1e:6b:f0:6b:49:9e:bf:f4:
                    7f:4d:34:e1:f2:28:b9:28:ae:39:48:3e:f6:89:07:
                    37:42:ba:5f:e3:40:e5:31:b7:f7:65:4f:76:f9:a1:
                    f3:9c:b5:d6:d7:a6:40:36:c6:5f:40:18:cc:8e:da:
                    df:40:a7:66:f9:a1:5c:5c:1a:8c:e5:02:09:f8:21:
                    78:98:0d:5a:42:30:56:fe:53:ef:54:2c:f6:33:00:
                    80:26:02:88:2d:9e:ab:88:03:d4:1f:1f:33:b1:81:
                    9a:9b:62:42:8b:5a:29:2e:5c:47:b5:0a:62:b8:5d:
                    cc:ad:9a:c3:ae:7e:7f:c6:65:60:8d:68:9b:6e:41:
                    5a:18:a0:60:b9:39:2e:b5:fb:53:28:60:c2:26:74:
                    aa:7b:78:76:51:57:ac:27:94:e5:13:1f:be:a0:e0:
                    34:1c:55:d1:85:e6:c0:95:1d:30:9e:4f:51:39:e9:
                    1f:36:43:8f:81:31:16:70:9a:ef:9d:1b:ac:76:7b:
                    0c:ca:f5:89:05:0d:79:b7:30:d2:78:d5:6b:e4:99:
                    ad:4f:aa:67:29:c5:ce:4a:3d:21:bf:4f:b3:e6:fe:
                    9e:f9:91:90:d5:8a:1a:11:5e:06:78:45:1d:24:db:
                    9f:7f:47:0f:0a:e2:b7:73:35:c3:dd:f0:bd:e0:0b:
                    72:2f:ac:89:4c:9c:cf:06:39:2f:3a:13:15:97:70:
                    4b:62:77:0a:de:3d:8c:61:18:39:0b:a9:14:5f:e8:
                    05:26:9e:bf:64:af:5b:54:85:d5:be:6b:7e:ab:80:
                    a3:2e:06:49:6a:0a:51:f7:de:8d:df:46:a6:29:80:
                    6d:c9:fd:e8:7e:04:96:fe:6e:7e:b3:a8:a7:5b:07:
                    ba:f3:6f:c2:43:66:94:89:09:ea:61:32:73:ae:b1:
                    b0:85:9f:9e:ad:ad:76:cf:32:a5:b1:24:95:6d:e1:
                    6b:6d:3b:7a:57:d6:8f:17:04:d7:86:6c:c3:b5:38:
                    f2:90:6c:fa:c0:09:92:68:77:1a:01:21:a7:37:83:
                    ee:41:0a:f0:cd:c4:45:94:45:12:4b:3d:2d:35:68:
                    4c:57:33:a8:24:7f:3b:19:65:a2:55:78:4a:70:36:
                    7b:4f:bc:72:f8:e3:87:44:e6:a8:7f:69:d9:92:ba:
                    9a:25:8e:e3:03:a9:e7:51:6f:67:e5:9e:e2:d4:15:
                    c0:07:0d:1f:35:45:49:f3:84:e8:96:89:5f:45:b4:
                    35:f6:93:33:54:5d:0c:2b:30:59:ec:84:f5:53:e2:
                    ba:5c:7c:25:a3:c4:23:81:99:ed:02:4f:22:1b:c3:
                    20:85:87
                Exponent: 65537 (0x10001)
        X509v3 extensions:
            X509v3 Basic Constraints: 
                CA:FALSE
            Netscape Comment: 
                Easy-RSA Generated Certificate
            X509v3 Subject Key Identifier: 
                8C:7E:DC:77:FB:CB:BF:60:85:27:AD:DD:62:A5:DC:56:7F:40:FC:CA
            X509v3 Authority Key Identifier: 
                keyid:12:CD:60:04:D2:A0:80:9E:70:ED:C6:99:B8:7B:2C:C6:52:FD:19:A1
                DirName:/C=US/ST=OH/L=Columbus/O=VikingVPN/OU=MyOrganizationalUnit/CN=VikingVPN CA/name=EasyRSA/emailAddress=me@myhost.mydomain
                serial:CF:35:85:EE:80:BF:2A:3E

            X509v3 Extended Key Usage: 
                TLS Web Client Authentication
            X509v3 Key Usage: 
                Digital Signature
    Signature Algorithm: md5WithRSAEncryption
         7c:13:c6:9b:ff:62:14:7d:e2:07:8d:fb:19:d2:cd:d5:3d:38:
         f6:d3:cb:b2:50:30:db:93:4a:e4:3c:29:51:77:c4:cf:17:70:
         8b:48:a3:5b:69:37:38:05:6f:6f:36:d3:e3:eb:c8:c9:66:80:
         d2:05:92:40:1c:cb:fe:f8:f3:35:dc:39:9b:9c:52:8f:9c:9b:
         e0:6b:de:da:d9:1e:fd:4f:0a:e1:84:5c:00:f5:2e:0f:a2:ba:
         ed:9c:cb:3a:81:ef:31:39:3a:95:96:19:71:43:1b:73:dd:b0:
         9c:9e:42:35:65:b7:f2:0e:f1:c0:6c:40:33:92:23:24:0f:51:
         20:63:ae:ee:e3:05:57:80:41:80:18:6f:bb:e7:ce:4c:48:66:
         8d:89:e0:fe:5e:87:b7:ae:2d:20:5e:39:73:72:d5:00:0b:ae:
         23:d5:de:8d:d8:3e:51:1c:58:dd:47:d1:0a:d2:0d:5c:ad:a9:
         59:f2:6a:91:94:dc:24:43:75:39:98:20:f6:a3:23:0c:c5:d6:
         ad:05:8b:e6:84:2b:77:35:15:fc:7b:a5:cd:64:e0:3f:f0:59:
         ee:df:33:a9:4e:76:44:0d:66:75:03:68:a6:8b:2a:99:ec:fb:
         08:e1:b8:95:e2:5b:8d:28:79:bd:11:47:27:0e:12:a3:26:64:
         b2:ed:56:33:cf:00:c9:64:1a:26:cb:5d:5a:7b:61:0a:bb:ad:
         d7:ce:27:85:96:6d:b6:8e:92:01:be:c3:30:c9:3c:f7:dc:64:
         75:51:cc:d1:44:33:6b:62:fe:56:7c:54:a9:3f:2f:50:59:9a:
         84:60:6e:c6:f5:24:45:97:42:78:5e:65:d7:30:19:6e:09:02:
         e0:7a:78:51:23:02:d1:a2:67:7b:62:e7:91:93:4c:b5:e8:e8:
         38:ff:2f:e1:90:10:76:9b:5b:6e:8b:59:12:7b:95:cf:99:5d:
         ca:7a:59:7a:99:c9:1f:aa:41:d2:4b:0d:22:1f:51:53:7c:29:
         08:1e:19:9a:0e:d7:4b:9a:dd:50:df:40:3c:c8:e6:8c:d6:1c:
         4e:75:c9:0f:11:9d:5b:a8:2b:54:d7:d0:f9:2b:4e:3e:87:4a:
         cb:ed:71:99:36:39:00:fc:77:7f:ec:7a:36:48:c9:bc:15:17:
         69:74:b8:2c:19:b9:2f:4c:c9:41:84:73:ec:c3:75:09:b6:7a:
         83:d9:37:ca:5d:d1:c2:68:a9:07:09:35:49:07:3f:15:eb:a3:
         12:bd:da:7e:ad:2e:cb:a8:ee:f5:a4:23:be:c0:09:0d:97:5d:
         ef:46:a5:27:b0:36:37:50:6b:79:f3:eb:d3:78:8c:a1:04:d2:
         69:a1:48:bd:3f:59:13:ca
-----BEGIN CERTIFICATE-----
MIIGrTCCBJWgAwIBAgICH3UwDQYJKoZIhvcNAQEEBQAwgawxCzAJBgNVBAYTAlVT
MQswCQYDVQQIEwJPSDERMA8GA1UEBxMIQ29sdW1idXMxEjAQBgNVBAoTCVZpa2lu
Z1ZQTjEdMBsGA1UECxMUTXlPcmdhbml6YXRpb25hbFVuaXQxFTATBgNVBAMTDFZp
a2luZ1ZQTiBDQTEQMA4GA1UEKRMHRWFzeVJTQTEhMB8GCSqGSIb3DQEJARYSbWVA
bXlob3N0Lm15ZG9tYWluMB4XDTE2MDUyNzAxMjkxM1oXDTI2MDUyNTAxMjkxM1ow
HzEdMBsGA1UEAxMUQ2xpZW50MjMxMkNlcnRjMmIzOTAwggIiMA0GCSqGSIb3DQEB
AQUAA4ICDwAwggIKAoICAQDhUVc1KdvGOj/lqHhJVrCxV5zCT18ea/BrSZ6/9H9N
NOHyKLkorjlIPvaJBzdCul/jQOUxt/dlT3b5ofOctdbXpkA2xl9AGMyO2t9Ap2b5
oVxcGozlAgn4IXiYDVpCMFb+U+9ULPYzAIAmAogtnquIA9QfHzOxgZqbYkKLWiku
XEe1CmK4XcytmsOufn/GZWCNaJtuQVoYoGC5OS61+1MoYMImdKp7eHZRV6wnlOUT
H76g4DQcVdGF5sCVHTCeT1E56R82Q4+BMRZwmu+dG6x2ewzK9YkFDXm3MNJ41Wvk
ma1Pqmcpxc5KPSG/T7Pm/p75kZDVihoRXgZ4RR0k259/Rw8K4rdzNcPd8L3gC3Iv
rIlMnM8GOS86ExWXcEtidwrePYxhGDkLqRRf6AUmnr9kr1tUhdW+a36rgKMuBklq
ClH33o3fRqYpgG3J/eh+BJb+bn6zqKdbB7rzb8JDZpSJCephMnOusbCFn56trXbP
MqWxJJVt4WttO3pX1o8XBNeGbMO1OPKQbPrACZJodxoBIac3g+5BCvDNxEWURRJL
PS01aExXM6gkfzsZZaJVeEpwNntPvHL444dE5qh/admSupoljuMDqedRb2flnuLU
FcAHDR81RUnzhOiWiV9FtDX2kzNUXQwrMFnshPVT4rpcfCWjxCOBme0CTyIbwyCF
hwIDAQABo4IBYzCCAV8wCQYDVR0TBAIwADAtBglghkgBhvhCAQ0EIBYeRWFzeS1S
U0EgR2VuZXJhdGVkIENlcnRpZmljYXRlMB0GA1UdDgQWBBSMftx3+8u/YIUnrd1i
pdxWf0D8yjCB4QYDVR0jBIHZMIHWgBQSzWAE0qCAnnDtxpm4eyzGUv0ZoaGBsqSB
rzCBrDELMAkGA1UEBhMCVVMxCzAJBgNVBAgTAk9IMREwDwYDVQQHEwhDb2x1bWJ1
czESMBAGA1UEChMJVmlraW5nVlBOMR0wGwYDVQQLExRNeU9yZ2FuaXphdGlvbmFs
VW5pdDEVMBMGA1UEAxMMVmlraW5nVlBOIENBMRAwDgYDVQQpEwdFYXN5UlNBMSEw
HwYJKoZIhvcNAQkBFhJtZUBteWhvc3QubXlkb21haW6CCQDPNYXugL8qPjATBgNV
HSUEDDAKBggrBgEFBQcDAjALBgNVHQ8EBAMCB4AwDQYJKoZIhvcNAQEEBQADggIB
AHwTxpv/YhR94geN+xnSzdU9OPbTy7JQMNuTSuQ8KVF3xM8XcItIo1tpNzgFb282
0+PryMlmgNIFkkAcy/748zXcOZucUo+cm+Br3trZHv1PCuGEXAD1Lg+iuu2cyzqB
7zE5OpWWGXFDG3PdsJyeQjVlt/IO8cBsQDOSIyQPUSBjru7jBVeAQYAYb7vnzkxI
Zo2J4P5eh7euLSBeOXNy1QALriPV3o3YPlEcWN1H0QrSDVytqVnyapGU3CRDdTmY
IPajIwzF1q0Fi+aEK3c1Ffx7pc1k4D/wWe7fM6lOdkQNZnUDaKaLKpns+wjhuJXi
W40oeb0RRycOEqMmZLLtVjPPAMlkGibLXVp7YQq7rdfOJ4WWbbaOkgG+wzDJPPfc
ZHVRzNFEM2ti/lZ8VKk/L1BZmoRgbsb1JEWXQnheZdcwGW4JAuB6eFEjAtGiZ3ti
55GTTLXo6Dj/L+GQEHabW26LWRJ7lc+ZXcp6WXqZyR+qQdJLDSIfUVN8KQgeGZoO
10ua3VDfQDzI5ozWHE51yQ8RnVuoK1TX0PkrTj6HSsvtcZk2OQD8d3/sejZIybwV
F2l0uCwZuS9MyUGEc+zDdQm2eoPZN8pd0cJoqQcJNUkHPxXroxK92n6tLsuo7vWk
I77ACQ2XXe9GpSewNjdQa3nz69N4jKEE0mmhSL0/WRPK
-----END CERTIFICATE-----
