Certificate:
    Data:
        Version: 3 (0x2)
        Serial Number: 927 (0x39f)
    Signature Algorithm: md5WithRSAEncryption
        Issuer: C=US, ST=OH, L=Columbus, O=VikingVPN, OU=MyOrganizationalUnit, CN=VikingVPN CA/name=EasyRSA/emailAddress=me@myhost.mydomain
        Validity
            Not Before: Feb  2 18:06:53 2014 GMT
            Not After : Jan 31 18:06:53 2024 GMT
        Subject: CN=Client349Cert9c470a
        Subject Public Key Info:
            Public Key Algorithm: rsaEncryption
                Public-Key: (4096 bit)
                Modulus:
                    00:ab:4a:0a:dd:6f:db:ca:b6:d2:8d:5f:fe:55:c9:
                    85:e4:0d:15:19:a1:81:a1:34:9b:da:e9:8a:3d:2f:
                    3e:9c:09:6f:8e:b9:99:fe:19:40:10:01:4b:9b:3a:
                    d7:08:7b:81:df:7f:59:53:84:dc:be:f9:3a:b3:96:
                    c5:92:ad:0f:10:57:5a:8e:01:29:c8:b4:39:e4:f1:
                    98:e8:64:66:44:7a:55:da:fb:62:17:ef:00:bc:29:
                    ce:d7:04:c7:05:66:eb:80:27:24:0f:11:14:6b:a2:
                    04:f8:75:83:3c:2a:3f:c6:8e:4d:9a:6d:87:f1:07:
                    6e:92:e9:7f:8f:07:a9:a3:f6:b6:88:34:f6:62:c2:
                    c6:d0:21:80:e4:00:91:2d:7d:1f:c1:08:98:20:90:
                    39:b0:8c:37:10:92:ec:cc:28:c0:35:fb:c0:33:34:
                    c9:80:85:d7:c7:79:6a:37:89:00:2c:9e:ef:7f:77:
                    c1:e2:05:4d:c2:a6:c6:7e:52:a8:0c:81:6e:6e:9d:
                    23:55:c0:5e:b2:6a:fe:a7:51:24:cb:a6:f9:b9:a6:
                    28:9d:d9:a5:6a:c0:fe:cd:b1:9b:42:b1:7e:9b:e9:
                    c0:55:5f:fd:21:69:1b:6e:41:87:4c:99:6c:fb:08:
                    ed:43:f6:2e:b9:05:94:4b:47:a0:2e:d5:d3:52:60:
                    14:97:38:d3:28:5b:28:ed:37:c7:2c:73:e1:fe:0d:
                    ea:ee:d8:00:e8:f6:01:6a:c9:d5:b7:27:2c:b7:62:
                    24:01:b7:c8:3d:18:8a:1c:67:19:aa:04:5a:88:51:
                    35:c0:4e:91:5e:d6:84:8d:79:b8:d6:84:5c:48:b3:
                    8c:17:fc:2b:e0:46:e5:04:d7:04:ff:b2:c9:11:a6:
                    d8:c6:9c:28:51:aa:ff:ae:f2:2b:58:3f:26:a7:dd:
                    f5:ce:20:a3:8c:35:51:96:31:dc:a9:57:20:08:22:
                    99:61:e6:a1:32:b1:7c:d0:81:11:b1:a9:3f:bd:d3:
                    09:6f:fa:b8:e5:83:4c:fd:3a:4e:d6:7a:a8:55:ea:
                    4c:b2:85:0d:c8:37:18:13:7e:14:2f:dd:44:55:b8:
                    c8:bd:e8:eb:fc:99:69:e0:df:b3:3d:59:dd:ae:65:
                    81:95:77:1d:e4:b4:41:9a:a0:0d:1e:42:fe:77:d5:
                    e8:72:d2:77:8a:9a:0f:2c:f1:81:1b:c7:a3:7d:34:
                    5e:36:7b:06:f3:db:dd:37:62:61:46:05:7c:f1:6d:
                    94:b0:72:2c:1c:81:93:b9:79:70:4e:7f:30:18:74:
                    bf:c9:db:91:de:85:9d:3e:b9:74:15:8a:99:3b:c3:
                    a7:23:78:89:fa:e0:77:0e:85:81:e9:ba:e4:cb:24:
                    e1:f4:d1
                Exponent: 65537 (0x10001)
        X509v3 extensions:
            X509v3 Basic Constraints: 
                CA:FALSE
            Netscape Comment: 
                Easy-RSA Generated Certificate
            X509v3 Subject Key Identifier: 
                C9:1C:7E:3D:1D:54:5A:B9:85:0D:4D:BA:97:EF:C2:5A:4E:C9:9C:78
            X509v3 Authority Key Identifier: 
                keyid:12:CD:60:04:D2:A0:80:9E:70:ED:C6:99:B8:7B:2C:C6:52:FD:19:A1
                DirName:/C=US/ST=OH/L=Columbus/O=VikingVPN/OU=MyOrganizationalUnit/CN=VikingVPN CA/name=EasyRSA/emailAddress=me@myhost.mydomain
                serial:CF:35:85:EE:80:BF:2A:3E

            X509v3 Extended Key Usage: 
                TLS Web Client Authentication
            X509v3 Key Usage: 
                Digital Signature
    Signature Algorithm: md5WithRSAEncryption
         34:6d:2b:11:fc:6f:1c:a9:75:ba:a8:f3:a8:b8:37:34:e2:62:
         01:81:22:a9:11:11:dc:dd:5b:1e:c7:d5:08:d9:8f:ea:3e:0a:
         cd:a0:7f:e3:e2:ad:46:5a:31:ad:18:2a:1d:e6:68:12:9d:d5:
         ef:61:db:aa:a2:47:03:4b:00:a5:4d:5f:3f:fd:7c:a4:46:5c:
         00:e0:aa:f4:af:33:df:bf:81:d8:8e:d5:c4:ec:91:a0:4e:5a:
         dd:00:5c:a7:41:a1:5b:34:c7:1e:73:9d:e7:9b:9e:e4:80:54:
         6b:5f:e6:c2:6e:74:30:1e:a2:5a:49:74:ff:44:49:2f:d1:36:
         b5:70:6d:45:02:f5:78:e1:f9:f8:b8:41:15:59:75:b9:89:c7:
         79:51:c3:db:06:9a:23:49:0e:60:54:cf:fd:c6:0d:48:71:5f:
         7a:c2:91:54:77:31:ee:e3:bd:32:ca:f7:32:e8:7f:91:ba:bb:
         1f:e4:9d:dc:f6:59:04:00:af:5e:8d:8f:27:fb:3a:5a:00:4c:
         0c:2d:56:fc:4d:30:05:9a:a7:55:e0:f0:a3:9b:93:03:7f:33:
         24:24:ad:c0:43:31:7d:d7:a3:55:fa:5b:e8:dd:7f:54:5c:a3:
         ad:3f:24:f6:f7:57:82:9d:5f:2e:31:a4:6c:a3:97:22:f2:67:
         03:3f:33:ac:ac:f8:b4:0b:78:67:69:21:f5:64:d5:f1:de:f1:
         df:11:93:f6:5c:2c:71:dc:05:85:ee:5b:d5:ad:3e:f2:17:f2:
         ed:bd:f7:36:df:6d:e5:29:f9:53:55:04:90:2b:8e:16:5a:c1:
         51:9b:06:1e:85:2f:70:3e:fc:8b:af:5c:b6:dc:6f:8e:fb:92:
         d4:3d:f9:c1:f5:9a:6a:ae:f2:82:ff:70:2e:9c:52:cd:52:48:
         77:f4:a3:b9:d9:d9:1b:61:cb:5d:c1:7f:54:f2:c0:a5:55:bf:
         53:2b:ad:37:68:a4:b5:a7:41:6e:0b:11:09:08:19:12:57:46:
         e4:ba:93:37:63:b3:98:ca:e2:c1:f0:5b:ff:b7:79:1a:3b:6b:
         3d:4d:c0:cd:d0:b1:24:c8:82:c6:4c:ad:5f:7d:b3:1b:ed:3a:
         23:cc:e2:14:12:51:75:73:77:8c:37:1e:43:a5:4d:c3:49:eb:
         ad:0a:80:63:3c:4a:a0:59:b4:ce:d3:62:ea:7f:3d:32:43:58:
         74:90:a9:00:99:2c:a9:c7:20:d1:0c:96:e7:de:bf:17:8d:66:
         71:a5:f3:c4:a1:68:43:59:83:ab:8e:10:2b:ff:85:79:f5:85:
         ba:cc:e1:6d:ca:fa:af:54:3d:68:af:0f:aa:ea:df:66:43:25:
         f8:7c:ff:cc:56:7a:d0:ca
-----BEGIN CERTIFICATE-----
MIIGrDCCBJSgAwIBAgICA58wDQYJKoZIhvcNAQEEBQAwgawxCzAJBgNVBAYTAlVT
MQswCQYDVQQIEwJPSDERMA8GA1UEBxMIQ29sdW1idXMxEjAQBgNVBAoTCVZpa2lu
Z1ZQTjEdMBsGA1UECxMUTXlPcmdhbml6YXRpb25hbFVuaXQxFTATBgNVBAMTDFZp
a2luZ1ZQTiBDQTEQMA4GA1UEKRMHRWFzeVJTQTEhMB8GCSqGSIb3DQEJARYSbWVA
bXlob3N0Lm15ZG9tYWluMB4XDTE0MDIwMjE4MDY1M1oXDTI0MDEzMTE4MDY1M1ow
HjEcMBoGA1UEAxMTQ2xpZW50MzQ5Q2VydDljNDcwYTCCAiIwDQYJKoZIhvcNAQEB
BQADggIPADCCAgoCggIBAKtKCt1v28q20o1f/lXJheQNFRmhgaE0m9rpij0vPpwJ
b465mf4ZQBABS5s61wh7gd9/WVOE3L75OrOWxZKtDxBXWo4BKci0OeTxmOhkZkR6
Vdr7YhfvALwpztcExwVm64AnJA8RFGuiBPh1gzwqP8aOTZpth/EHbpLpf48HqaP2
tog09mLCxtAhgOQAkS19H8EImCCQObCMNxCS7MwowDX7wDM0yYCF18d5ajeJACye
7393weIFTcKmxn5SqAyBbm6dI1XAXrJq/qdRJMum+bmmKJ3ZpWrA/s2xm0Kxfpvp
wFVf/SFpG25Bh0yZbPsI7UP2LrkFlEtHoC7V01JgFJc40yhbKO03xyxz4f4N6u7Y
AOj2AWrJ1bcnLLdiJAG3yD0YihxnGaoEWohRNcBOkV7WhI15uNaEXEizjBf8K+BG
5QTXBP+yyRGm2MacKFGq/67yK1g/Jqfd9c4go4w1UZYx3KlXIAgimWHmoTKxfNCB
EbGpP73TCW/6uOWDTP06TtZ6qFXqTLKFDcg3GBN+FC/dRFW4yL3o6/yZaeDfsz1Z
3a5lgZV3HeS0QZqgDR5C/nfV6HLSd4qaDyzxgRvHo300XjZ7BvPb3TdiYUYFfPFt
lLByLByBk7l5cE5/MBh0v8nbkd6FnT65dBWKmTvDpyN4ifrgdw6Fgem65Msk4fTR
AgMBAAGjggFjMIIBXzAJBgNVHRMEAjAAMC0GCWCGSAGG+EIBDQQgFh5FYXN5LVJT
QSBHZW5lcmF0ZWQgQ2VydGlmaWNhdGUwHQYDVR0OBBYEFMkcfj0dVFq5hQ1Nupfv
wlpOyZx4MIHhBgNVHSMEgdkwgdaAFBLNYATSoICecO3Gmbh7LMZS/RmhoYGypIGv
MIGsMQswCQYDVQQGEwJVUzELMAkGA1UECBMCT0gxETAPBgNVBAcTCENvbHVtYnVz
MRIwEAYDVQQKEwlWaWtpbmdWUE4xHTAbBgNVBAsTFE15T3JnYW5pemF0aW9uYWxV
bml0MRUwEwYDVQQDEwxWaWtpbmdWUE4gQ0ExEDAOBgNVBCkTB0Vhc3lSU0ExITAf
BgkqhkiG9w0BCQEWEm1lQG15aG9zdC5teWRvbWFpboIJAM81he6Avyo+MBMGA1Ud
JQQMMAoGCCsGAQUFBwMCMAsGA1UdDwQEAwIHgDANBgkqhkiG9w0BAQQFAAOCAgEA
NG0rEfxvHKl1uqjzqLg3NOJiAYEiqRER3N1bHsfVCNmP6j4KzaB/4+KtRloxrRgq
HeZoEp3V72HbqqJHA0sApU1fP/18pEZcAOCq9K8z37+B2I7VxOyRoE5a3QBcp0Gh
WzTHHnOd55ue5IBUa1/mwm50MB6iWkl0/0RJL9E2tXBtRQL1eOH5+LhBFVl1uYnH
eVHD2waaI0kOYFTP/cYNSHFfesKRVHcx7uO9Msr3Muh/kbq7H+Sd3PZZBACvXo2P
J/s6WgBMDC1W/E0wBZqnVeDwo5uTA38zJCStwEMxfdejVfpb6N1/VFyjrT8k9vdX
gp1fLjGkbKOXIvJnAz8zrKz4tAt4Z2kh9WTV8d7x3xGT9lwscdwFhe5b1a0+8hfy
7b33Nt9t5Sn5U1UEkCuOFlrBUZsGHoUvcD78i69cttxvjvuS1D35wfWaaq7ygv9w
LpxSzVJId/SjudnZG2HLXcF/VPLApVW/UyutN2iktadBbgsRCQgZEldG5LqTN2Oz
mMriwfBb/7d5GjtrPU3AzdCxJMiCxkytX32zG+06I8ziFBJRdXN3jDceQ6VNw0nr
rQqAYzxKoFm0ztNi6n89MkNYdJCpAJksqccg0QyW596/F41mcaXzxKFoQ1mDq44Q
K/+FefWFuszhbcr6r1Q9aK8PqurfZkMl+Hz/zFZ60Mo=
-----END CERTIFICATE-----
