Certificate:
    Data:
        Version: 3 (0x2)
        Serial Number: 6879 (0x1adf)
    Signature Algorithm: md5WithRSAEncryption
        Issuer: C=US, ST=OH, L=Columbus, O=VikingVPN, OU=MyOrganizationalUnit, CN=VikingVPN CA/name=EasyRSA/emailAddress=me@myhost.mydomain
        Validity
            Not Before: Dec 11 07:27:18 2015 GMT
            Not After : Dec  8 07:27:18 2025 GMT
        Subject: CN=Client2098Cert839213
        Subject Public Key Info:
            Public Key Algorithm: rsaEncryption
                Public-Key: (4096 bit)
                Modulus:
                    00:94:62:97:08:fc:16:65:7d:22:4d:a0:f2:73:ed:
                    78:83:50:90:1e:ae:22:5b:7c:6a:20:a3:00:71:b7:
                    f7:8b:cd:79:72:87:db:93:a0:0c:d5:e2:b6:06:9d:
                    37:8e:b2:b0:df:33:f6:21:df:f9:1a:3d:f1:99:43:
                    e6:77:fd:96:3b:a4:9a:da:a9:ca:11:43:ca:20:1d:
                    3c:9b:86:b2:02:7e:c2:b6:78:b9:03:46:5f:80:8b:
                    5d:d7:dc:2a:a9:4c:02:7e:1a:0f:02:41:f7:24:b7:
                    fe:72:80:99:5c:95:9d:25:2c:c4:9c:a5:96:7f:9c:
                    83:5e:12:0c:0a:92:37:2b:d8:94:fb:ee:79:47:e7:
                    22:71:2b:bb:ff:2c:01:b2:30:51:7d:87:83:4e:f2:
                    6e:24:84:58:e2:a6:5f:fd:34:50:f6:56:5f:d1:d4:
                    d9:ba:e5:b8:31:a0:60:d5:48:b7:20:e3:5f:68:c4:
                    8d:2a:39:3c:86:7e:6d:56:36:0b:c2:4d:8d:2b:6c:
                    f2:2e:81:c6:f7:53:62:f8:5f:b5:5d:d4:d8:3e:f5:
                    a7:86:e2:a6:6d:2e:e9:fc:26:ac:f8:92:7b:86:47:
                    8c:f4:82:31:a0:d8:e2:e6:55:05:a6:a5:f8:c7:8a:
                    d9:67:c7:66:fe:db:67:3d:50:c7:8c:94:bd:39:57:
                    18:a1:67:75:30:5d:b0:06:ea:d8:a3:ad:ab:2f:65:
                    f8:b2:38:1b:cf:68:7f:59:43:ad:1d:e4:8d:2c:97:
                    07:49:41:af:5c:d3:13:55:11:5b:9e:3e:f9:8d:2e:
                    33:76:46:fd:79:94:75:71:b9:a6:17:e6:80:be:18:
                    3b:ab:e6:f8:75:94:be:10:8a:91:11:d2:a4:68:0a:
                    35:f3:5a:1b:ec:c0:38:46:4a:f9:18:ef:91:92:a7:
                    58:df:57:fb:0c:7a:86:63:7b:a8:d0:ed:32:55:4a:
                    68:ff:85:ee:b2:71:72:dd:dc:8e:a0:64:b9:aa:ff:
                    2c:12:31:f4:47:3d:ee:ad:84:f5:53:ca:6d:fe:43:
                    65:33:2b:58:d7:8e:92:22:82:2a:2e:91:24:a2:92:
                    26:94:13:0a:ea:bc:2e:9f:9e:0e:c1:58:b8:f4:23:
                    c6:aa:ae:3b:81:d2:5c:29:7e:78:f2:c0:e8:11:a3:
                    3f:68:5b:64:08:92:99:14:46:5b:c0:2d:7a:c0:95:
                    c8:9a:09:aa:67:bd:a5:28:9b:65:a6:c0:3c:ac:6a:
                    9e:5d:e8:ef:aa:aa:98:eb:49:67:ce:dc:b1:8f:48:
                    74:ff:cb:c8:07:12:10:56:cf:29:6a:3b:1f:af:8d:
                    9b:95:0b:eb:b1:a9:e3:63:7f:5a:1c:5c:4b:27:36:
                    a5:8d:55
                Exponent: 65537 (0x10001)
        X509v3 extensions:
            X509v3 Basic Constraints: 
                CA:FALSE
            Netscape Comment: 
                Easy-RSA Generated Certificate
            X509v3 Subject Key Identifier: 
                A0:F9:E8:3A:35:E4:2D:65:E4:8E:E0:E1:A2:F5:55:0E:86:7A:C8:ED
            X509v3 Authority Key Identifier: 
                keyid:12:CD:60:04:D2:A0:80:9E:70:ED:C6:99:B8:7B:2C:C6:52:FD:19:A1
                DirName:/C=US/ST=OH/L=Columbus/O=VikingVPN/OU=MyOrganizationalUnit/CN=VikingVPN CA/name=EasyRSA/emailAddress=me@myhost.mydomain
                serial:CF:35:85:EE:80:BF:2A:3E

            X509v3 Extended Key Usage: 
                TLS Web Client Authentication
            X509v3 Key Usage: 
                Digital Signature
    Signature Algorithm: md5WithRSAEncryption
         a7:d4:ea:1c:9c:5f:7e:48:ed:15:ce:43:8f:a3:1e:1b:ba:f8:
         b5:47:73:e0:78:64:03:0c:72:a3:5b:ed:3b:ec:8b:55:4d:1b:
         87:8a:d9:47:bf:b2:0b:85:af:fa:f9:9c:02:63:91:68:94:65:
         ce:e1:bb:ca:5e:e5:29:55:2e:88:aa:24:fb:d8:b0:62:b5:f6:
         83:88:93:5a:cf:40:95:6b:de:73:95:3f:f8:9f:99:ec:c7:74:
         4c:34:10:c0:b2:c5:2f:c5:79:87:f4:17:86:84:cf:ce:e1:7d:
         22:39:87:6f:15:29:46:b2:f1:f9:7c:ab:de:8c:0a:05:9d:22:
         ee:de:2f:ed:fb:0f:6c:1f:3f:47:cf:46:ee:4e:23:1e:9f:9f:
         9b:11:9d:7f:b3:f3:f9:01:fd:d4:3c:27:ef:a1:9a:15:bf:db:
         bc:ca:8b:a0:34:50:a3:58:90:10:2f:0d:af:89:69:d7:6e:17:
         6b:74:90:5a:73:e1:d3:d9:2e:fd:88:8e:0b:12:40:04:3c:af:
         4f:d6:f7:76:12:af:17:c7:34:8a:c8:14:b5:85:18:62:ae:0b:
         c2:7e:3f:31:8e:59:6d:36:ef:c9:ed:ca:73:54:33:c6:95:56:
         a8:b7:82:12:4e:4a:21:03:e6:77:f4:dd:39:98:f6:f4:d4:88:
         09:20:72:72:c7:14:43:79:61:57:de:b4:7c:ce:a5:91:ee:95:
         b7:30:fd:2e:65:cc:d2:43:19:43:32:39:26:59:b0:27:82:c6:
         1b:9a:aa:3f:d0:6d:22:0f:6f:8a:1e:86:df:45:8e:95:8b:9f:
         2a:53:6d:a7:81:89:97:2e:5f:69:85:21:4e:a4:e4:c3:b1:07:
         53:b8:10:e0:08:2b:fa:d5:9f:8a:4a:e1:fa:25:07:86:ca:b5:
         e9:b9:25:6b:72:2a:fb:09:ec:13:e0:ea:a8:56:1b:01:f9:11:
         b5:b3:d5:22:21:7c:53:7c:99:af:cb:89:8a:ff:34:c2:eb:80:
         af:07:cc:70:0e:f3:ac:c7:31:c9:ca:3a:0b:7d:08:b6:02:06:
         c5:67:9e:db:d1:4a:85:5e:f7:cd:63:7d:3d:5b:8c:91:8d:94:
         29:ef:1e:57:8c:0f:00:cd:56:5a:71:53:22:33:f1:48:b0:28:
         f8:c9:bd:b6:4b:92:eb:51:42:e4:4f:df:93:4a:cd:81:78:27:
         93:49:24:48:de:11:c9:06:7b:6c:45:ed:82:09:21:fe:e2:b3:
         80:cc:c2:0d:a3:d3:0c:4b:55:c7:ad:34:64:89:7d:dc:84:10:
         0c:fb:52:89:fc:f9:c4:83:b2:f4:41:4f:ff:b3:e7:32:d6:45:
         c3:15:89:5d:ed:43:af:b5
-----BEGIN CERTIFICATE-----
MIIGrTCCBJWgAwIBAgICGt8wDQYJKoZIhvcNAQEEBQAwgawxCzAJBgNVBAYTAlVT
MQswCQYDVQQIEwJPSDERMA8GA1UEBxMIQ29sdW1idXMxEjAQBgNVBAoTCVZpa2lu
Z1ZQTjEdMBsGA1UECxMUTXlPcmdhbml6YXRpb25hbFVuaXQxFTATBgNVBAMTDFZp
a2luZ1ZQTiBDQTEQMA4GA1UEKRMHRWFzeVJTQTEhMB8GCSqGSIb3DQEJARYSbWVA
bXlob3N0Lm15ZG9tYWluMB4XDTE1MTIxMTA3MjcxOFoXDTI1MTIwODA3MjcxOFow
HzEdMBsGA1UEAxMUQ2xpZW50MjA5OENlcnQ4MzkyMTMwggIiMA0GCSqGSIb3DQEB
AQUAA4ICDwAwggIKAoICAQCUYpcI/BZlfSJNoPJz7XiDUJAeriJbfGogowBxt/eL
zXlyh9uToAzV4rYGnTeOsrDfM/Yh3/kaPfGZQ+Z3/ZY7pJraqcoRQ8ogHTybhrIC
fsK2eLkDRl+Ai13X3CqpTAJ+Gg8CQfckt/5ygJlclZ0lLMScpZZ/nINeEgwKkjcr
2JT77nlH5yJxK7v/LAGyMFF9h4NO8m4khFjipl/9NFD2Vl/R1Nm65bgxoGDVSLcg
419oxI0qOTyGfm1WNgvCTY0rbPIugcb3U2L4X7Vd1Ng+9aeG4qZtLun8Jqz4knuG
R4z0gjGg2OLmVQWmpfjHitlnx2b+22c9UMeMlL05VxihZ3UwXbAG6tijrasvZfiy
OBvPaH9ZQ60d5I0slwdJQa9c0xNVEVuePvmNLjN2Rv15lHVxuaYX5oC+GDur5vh1
lL4QipER0qRoCjXzWhvswDhGSvkY75GSp1jfV/sMeoZje6jQ7TJVSmj/he6ycXLd
3I6gZLmq/ywSMfRHPe6thPVTym3+Q2UzK1jXjpIigioukSSikiaUEwrqvC6fng7B
WLj0I8aqrjuB0lwpfnjywOgRoz9oW2QIkpkURlvALXrAlciaCapnvaUom2WmwDys
ap5d6O+qqpjrSWfO3LGPSHT/y8gHEhBWzylqOx+vjZuVC+uxqeNjf1ocXEsnNqWN
VQIDAQABo4IBYzCCAV8wCQYDVR0TBAIwADAtBglghkgBhvhCAQ0EIBYeRWFzeS1S
U0EgR2VuZXJhdGVkIENlcnRpZmljYXRlMB0GA1UdDgQWBBSg+eg6NeQtZeSO4OGi
9VUOhnrI7TCB4QYDVR0jBIHZMIHWgBQSzWAE0qCAnnDtxpm4eyzGUv0ZoaGBsqSB
rzCBrDELMAkGA1UEBhMCVVMxCzAJBgNVBAgTAk9IMREwDwYDVQQHEwhDb2x1bWJ1
czESMBAGA1UEChMJVmlraW5nVlBOMR0wGwYDVQQLExRNeU9yZ2FuaXphdGlvbmFs
VW5pdDEVMBMGA1UEAxMMVmlraW5nVlBOIENBMRAwDgYDVQQpEwdFYXN5UlNBMSEw
HwYJKoZIhvcNAQkBFhJtZUBteWhvc3QubXlkb21haW6CCQDPNYXugL8qPjATBgNV
HSUEDDAKBggrBgEFBQcDAjALBgNVHQ8EBAMCB4AwDQYJKoZIhvcNAQEEBQADggIB
AKfU6hycX35I7RXOQ4+jHhu6+LVHc+B4ZAMMcqNb7Tvsi1VNG4eK2Ue/sguFr/r5
nAJjkWiUZc7hu8pe5SlVLoiqJPvYsGK19oOIk1rPQJVr3nOVP/ifmezHdEw0EMCy
xS/FeYf0F4aEz87hfSI5h28VKUay8fl8q96MCgWdIu7eL+37D2wfP0fPRu5OIx6f
n5sRnX+z8/kB/dQ8J++hmhW/27zKi6A0UKNYkBAvDa+JadduF2t0kFpz4dPZLv2I
jgsSQAQ8r0/W93YSrxfHNIrIFLWFGGKuC8J+PzGOWW0278ntynNUM8aVVqi3ghJO
SiED5nf03TmY9vTUiAkgcnLHFEN5YVfetHzOpZHulbcw/S5lzNJDGUMyOSZZsCeC
xhuaqj/QbSIPb4oeht9FjpWLnypTbaeBiZcuX2mFIU6k5MOxB1O4EOAIK/rVn4pK
4folB4bKtem5JWtyKvsJ7BPg6qhWGwH5EbWz1SIhfFN8ma/LiYr/NMLrgK8HzHAO
86zHMcnKOgt9CLYCBsVnntvRSoVe981jfT1bjJGNlCnvHleMDwDNVlpxUyIz8Uiw
KPjJvbZLkutRQuRP35NKzYF4J5NJJEjeEckGe2xF7YIJIf7is4DMwg2j0wxLVcet
NGSJfdyEEAz7Uon8+cSDsvRBT/+z5zLWRcMViV3tQ6+1
-----END CERTIFICATE-----
