Certificate:
    Data:
        Version: 3 (0x2)
        Serial Number: 491 (0x1eb)
    Signature Algorithm: md5WithRSAEncryption
        Issuer: C=US, ST=OH, L=Columbus, O=VikingVPN, OU=MyOrganizationalUnit, CN=VikingVPN CA/name=EasyRSA/emailAddress=me@myhost.mydomain
        Validity
            Not Before: Nov 30 05:14:02 2013 GMT
            Not After : Nov 28 05:14:02 2023 GMT
        Subject: CN=Client208Certfa62cc
        Subject Public Key Info:
            Public Key Algorithm: rsaEncryption
                Public-Key: (4096 bit)
                Modulus:
                    00:ba:cb:61:f3:a0:93:45:a1:8c:3f:73:e4:52:66:
                    a1:de:6f:7d:b5:ad:21:a0:a2:5d:e8:1d:35:ef:39:
                    5c:aa:f4:b3:3a:f4:a7:26:d7:ef:eb:39:e2:a3:d4:
                    0f:40:89:08:e8:01:3b:d1:a0:00:2e:b8:fd:79:d4:
                    de:96:c2:87:44:c4:23:52:f6:fe:0f:c9:45:25:eb:
                    d2:fd:1d:55:d4:34:71:69:2a:a7:39:55:50:b4:f5:
                    9f:73:3b:8a:e6:15:b7:20:ae:56:4f:80:3c:39:f2:
                    52:18:7c:e4:e3:da:c2:bc:1c:98:ee:ac:3e:df:78:
                    f1:9b:16:03:b4:79:08:85:1e:3b:0a:0c:07:e5:97:
                    04:62:86:a6:7c:30:f9:f8:9f:8b:19:41:02:cd:08:
                    b3:94:d0:4c:a7:1f:59:ff:ae:2f:24:d1:a8:09:64:
                    12:50:2c:d4:fe:e5:68:b0:17:ef:93:75:e9:e1:9c:
                    3c:4c:bf:3d:42:78:50:f8:a6:93:1b:d7:62:a1:1f:
                    f1:72:9c:84:04:2e:8e:70:90:23:27:cf:e8:b0:0f:
                    42:9d:a3:e8:91:3b:db:ac:6f:4f:6d:20:25:9a:0d:
                    6f:ef:92:9a:36:90:b6:42:0a:4e:a5:c8:68:19:df:
                    70:4f:76:e2:72:dd:c8:a5:50:29:00:93:ed:e7:ad:
                    4d:b1:e3:82:42:f3:ef:ec:e8:b4:d8:67:32:1d:8f:
                    7e:be:a9:de:61:04:e1:ce:42:44:0e:22:24:69:ac:
                    01:1a:6e:c2:f3:57:1a:30:be:d8:a4:a7:bb:a4:00:
                    63:a3:ed:3a:94:3f:77:86:d9:a5:8d:ea:b8:59:94:
                    60:08:e9:1b:e1:a0:68:ac:7b:85:75:7d:0b:fc:f3:
                    0e:e4:b2:d5:3f:12:eb:8a:e5:52:43:38:86:f8:e5:
                    56:c0:55:7b:45:1c:ac:38:ad:e2:90:c8:d3:90:ba:
                    de:65:b5:f2:d0:50:5b:e6:78:39:65:c5:92:59:1b:
                    65:6b:01:de:f7:4d:eb:bd:44:9f:7d:23:2d:d7:a7:
                    f1:0f:05:1a:92:c6:7b:00:29:f7:c6:f9:08:9d:d0:
                    30:40:a2:de:b8:25:d8:f7:55:8f:f0:31:91:7c:1e:
                    d4:2e:a1:12:2a:1d:f6:f4:25:1c:19:81:e8:8f:ef:
                    45:a2:75:1d:7c:1e:e4:53:cb:d8:b6:09:cb:f9:bd:
                    d5:18:9f:4a:20:46:b5:3a:25:44:81:fc:b3:12:88:
                    47:46:ef:dd:93:a9:f4:0e:95:34:59:87:b6:83:10:
                    89:ec:e8:8c:6f:f9:cd:25:bd:93:6e:7c:c3:68:a8:
                    97:b3:bf:d8:a4:c7:5e:ea:ce:3e:bc:05:5f:c0:8f:
                    06:55:9d
                Exponent: 65537 (0x10001)
        X509v3 extensions:
            X509v3 Basic Constraints: 
                CA:FALSE
            Netscape Comment: 
                Easy-RSA Generated Certificate
            X509v3 Subject Key Identifier: 
                BB:EA:D8:54:DA:B2:2B:26:B1:CA:3F:48:13:0F:D1:66:90:25:FB:9F
            X509v3 Authority Key Identifier: 
                keyid:12:CD:60:04:D2:A0:80:9E:70:ED:C6:99:B8:7B:2C:C6:52:FD:19:A1
                DirName:/C=US/ST=OH/L=Columbus/O=VikingVPN/OU=MyOrganizationalUnit/CN=VikingVPN CA/name=EasyRSA/emailAddress=me@myhost.mydomain
                serial:CF:35:85:EE:80:BF:2A:3E

            X509v3 Extended Key Usage: 
                TLS Web Client Authentication
            X509v3 Key Usage: 
                Digital Signature
    Signature Algorithm: md5WithRSAEncryption
         61:47:3a:32:b5:7b:18:5e:5c:82:22:0e:cd:a6:43:ec:a9:2f:
         89:03:38:f0:c0:0b:c2:19:4d:bc:ea:26:1c:ff:b6:12:b3:52:
         e8:4a:6d:b3:a3:b0:82:4c:14:10:97:d9:46:0a:6a:f3:69:96:
         23:95:04:99:cf:6a:da:fb:05:d0:2c:a0:0b:c3:df:44:0f:9a:
         96:f1:90:1c:b2:a3:dc:fd:14:34:8f:db:74:6e:b9:4a:bf:f2:
         ac:16:00:78:db:88:86:7d:a5:53:44:fb:ea:8b:55:e7:72:ae:
         cb:c7:34:2f:9a:a0:2e:08:64:04:09:c7:e6:fb:86:a8:77:c1:
         6d:13:3f:b5:9a:f1:9f:67:87:f2:eb:cb:7b:da:32:ec:15:76:
         91:43:4a:59:b9:63:ba:0d:87:d4:b3:f0:c0:21:3e:18:93:cc:
         03:a9:e4:bb:5c:8c:2c:2c:61:50:5b:f0:96:6a:0f:f4:a9:2e:
         d4:0c:72:39:35:02:27:14:e2:36:27:3e:f0:02:19:3f:f9:80:
         63:cf:cd:a9:5b:b1:2f:e9:63:9b:56:04:0a:ea:19:69:3c:bb:
         9b:79:21:08:3e:36:ab:ef:5c:bf:30:6c:11:db:27:23:a1:7e:
         54:1c:97:a9:9d:cc:9d:14:73:d7:57:ba:9d:ab:44:69:82:83:
         4a:bb:78:c9:05:6c:47:12:98:c3:e4:88:68:4c:9d:ea:7c:64:
         81:29:56:f4:95:d4:7f:a6:ed:88:81:ce:eb:3d:1a:fe:f5:60:
         01:84:a8:08:37:01:44:f1:6e:9a:d4:94:ca:35:f6:06:5a:fc:
         3b:20:10:56:82:6e:ab:d9:c5:81:ea:3a:92:7a:5a:40:2a:28:
         da:e1:de:cb:b8:d0:fc:b0:da:da:45:de:95:e4:3b:77:5f:15:
         7d:7b:32:0c:d1:56:e2:9d:61:fe:c2:c7:ba:17:35:24:f9:d4:
         62:84:7d:6b:fb:42:08:45:07:b3:76:3f:c2:e9:08:95:cc:ed:
         39:04:00:14:41:43:a8:b3:22:74:f2:01:23:63:dd:47:9c:fc:
         da:a6:69:2b:ee:54:d9:51:73:96:da:86:0b:7b:b8:17:43:04:
         77:99:a7:c2:8a:ec:e5:65:99:88:c6:06:ec:6f:46:a8:79:31:
         e3:5e:d2:70:3e:e9:f0:77:75:49:ea:c8:be:da:53:9d:c0:f6:
         73:e7:82:ad:44:35:20:5d:eb:a1:b4:94:7c:24:c8:e9:18:58:
         3a:28:ac:d3:a5:a5:6f:46:36:e4:3f:4a:64:f7:5b:97:0f:fc:
         b1:68:30:51:4d:fe:69:2d:cf:d1:a8:fe:09:22:9e:26:ab:3a:
         44:ba:e2:69:f6:15:2d:95
-----BEGIN CERTIFICATE-----
MIIGrDCCBJSgAwIBAgICAeswDQYJKoZIhvcNAQEEBQAwgawxCzAJBgNVBAYTAlVT
MQswCQYDVQQIEwJPSDERMA8GA1UEBxMIQ29sdW1idXMxEjAQBgNVBAoTCVZpa2lu
Z1ZQTjEdMBsGA1UECxMUTXlPcmdhbml6YXRpb25hbFVuaXQxFTATBgNVBAMTDFZp
a2luZ1ZQTiBDQTEQMA4GA1UEKRMHRWFzeVJTQTEhMB8GCSqGSIb3DQEJARYSbWVA
bXlob3N0Lm15ZG9tYWluMB4XDTEzMTEzMDA1MTQwMloXDTIzMTEyODA1MTQwMlow
HjEcMBoGA1UEAxMTQ2xpZW50MjA4Q2VydGZhNjJjYzCCAiIwDQYJKoZIhvcNAQEB
BQADggIPADCCAgoCggIBALrLYfOgk0WhjD9z5FJmod5vfbWtIaCiXegdNe85XKr0
szr0pybX7+s54qPUD0CJCOgBO9GgAC64/XnU3pbCh0TEI1L2/g/JRSXr0v0dVdQ0
cWkqpzlVULT1n3M7iuYVtyCuVk+APDnyUhh85OPawrwcmO6sPt948ZsWA7R5CIUe
OwoMB+WXBGKGpnww+fifixlBAs0Is5TQTKcfWf+uLyTRqAlkElAs1P7laLAX75N1
6eGcPEy/PUJ4UPimkxvXYqEf8XKchAQujnCQIyfP6LAPQp2j6JE726xvT20gJZoN
b++SmjaQtkIKTqXIaBnfcE924nLdyKVQKQCT7eetTbHjgkLz7+zotNhnMh2Pfr6p
3mEE4c5CRA4iJGmsARpuwvNXGjC+2KSnu6QAY6PtOpQ/d4bZpY3quFmUYAjpG+Gg
aKx7hXV9C/zzDuSy1T8S64rlUkM4hvjlVsBVe0UcrDit4pDI05C63mW18tBQW+Z4
OWXFklkbZWsB3vdN671En30jLden8Q8FGpLGewAp98b5CJ3QMECi3rgl2PdVj/Ax
kXwe1C6hEiod9vQlHBmB6I/vRaJ1HXwe5FPL2LYJy/m91RifSiBGtTolRIH8sxKI
R0bv3ZOp9A6VNFmHtoMQiezojG/5zSW9k258w2iol7O/2KTHXurOPrwFX8CPBlWd
AgMBAAGjggFjMIIBXzAJBgNVHRMEAjAAMC0GCWCGSAGG+EIBDQQgFh5FYXN5LVJT
QSBHZW5lcmF0ZWQgQ2VydGlmaWNhdGUwHQYDVR0OBBYEFLvq2FTasismsco/SBMP
0WaQJfufMIHhBgNVHSMEgdkwgdaAFBLNYATSoICecO3Gmbh7LMZS/RmhoYGypIGv
MIGsMQswCQYDVQQGEwJVUzELMAkGA1UECBMCT0gxETAPBgNVBAcTCENvbHVtYnVz
MRIwEAYDVQQKEwlWaWtpbmdWUE4xHTAbBgNVBAsTFE15T3JnYW5pemF0aW9uYWxV
bml0MRUwEwYDVQQDEwxWaWtpbmdWUE4gQ0ExEDAOBgNVBCkTB0Vhc3lSU0ExITAf
BgkqhkiG9w0BCQEWEm1lQG15aG9zdC5teWRvbWFpboIJAM81he6Avyo+MBMGA1Ud
JQQMMAoGCCsGAQUFBwMCMAsGA1UdDwQEAwIHgDANBgkqhkiG9w0BAQQFAAOCAgEA
YUc6MrV7GF5cgiIOzaZD7KkviQM48MALwhlNvOomHP+2ErNS6Epts6OwgkwUEJfZ
Rgpq82mWI5UEmc9q2vsF0CygC8PfRA+alvGQHLKj3P0UNI/bdG65Sr/yrBYAeNuI
hn2lU0T76otV53Kuy8c0L5qgLghkBAnH5vuGqHfBbRM/tZrxn2eH8uvLe9oy7BV2
kUNKWbljug2H1LPwwCE+GJPMA6nku1yMLCxhUFvwlmoP9Kku1AxyOTUCJxTiNic+
8AIZP/mAY8/NqVuxL+ljm1YECuoZaTy7m3khCD42q+9cvzBsEdsnI6F+VByXqZ3M
nRRz11e6natEaYKDSrt4yQVsRxKYw+SIaEyd6nxkgSlW9JXUf6btiIHO6z0a/vVg
AYSoCDcBRPFumtSUyjX2Blr8OyAQVoJuq9nFgeo6knpaQCoo2uHey7jQ/LDa2kXe
leQ7d18VfXsyDNFW4p1h/sLHuhc1JPnUYoR9a/tCCEUHs3Y/wukIlcztOQQAFEFD
qLMidPIBI2PdR5z82qZpK+5U2VFzltqGC3u4F0MEd5mnwors5WWZiMYG7G9GqHkx
417ScD7p8Hd1SerIvtpTncD2c+eCrUQ1IF3robSUfCTI6RhYOiis06Wlb0Y25D9K
ZPdblw/8sWgwUU3+aS3P0aj+CSKeJqs6RLriafYVLZU=
-----END CERTIFICATE-----
