Certificate:
    Data:
        Version: 3 (0x2)
        Serial Number: 5209 (0x1459)
    Signature Algorithm: md5WithRSAEncryption
        Issuer: C=US, ST=OH, L=Columbus, O=VikingVPN, OU=MyOrganizationalUnit, CN=VikingVPN CA/name=EasyRSA/emailAddress=me@myhost.mydomain
        Validity
            Not Before: May 10 13:12:37 2015 GMT
            Not After : May  7 13:12:37 2025 GMT
        Subject: CN=Client1668Certe803ba
        Subject Public Key Info:
            Public Key Algorithm: rsaEncryption
                Public-Key: (4096 bit)
                Modulus:
                    00:d8:8b:2e:9d:32:84:cf:00:e7:d1:0e:bc:17:de:
                    eb:b1:5e:98:49:8b:f2:e2:1d:4f:f6:90:87:77:20:
                    d0:a2:7c:75:29:2e:87:0f:53:79:50:8f:fe:cd:8e:
                    53:7c:d5:6e:f7:f7:c8:04:b6:6e:5b:37:84:76:77:
                    44:1b:02:c7:18:a9:d1:24:16:94:2e:6e:82:0e:7a:
                    13:e4:9a:20:e1:c3:f7:4b:eb:e3:6c:26:9a:da:0c:
                    dc:68:23:ff:bc:fa:23:55:42:d6:f4:11:34:ae:46:
                    10:c6:4b:e6:dd:3d:4a:c3:23:ed:17:a6:b6:2b:da:
                    64:3b:6e:8e:08:3d:a0:7e:0e:e2:20:bf:ba:36:f8:
                    d7:9c:58:32:0c:75:7e:2d:d4:de:dd:a0:3c:f8:d7:
                    45:ae:9f:3b:e3:79:91:89:28:cb:47:6f:1a:39:be:
                    21:59:5a:20:74:fe:a3:88:03:f7:3f:75:0c:90:13:
                    86:68:a0:b9:21:40:2c:f7:aa:90:c7:e0:50:6e:65:
                    2d:21:02:c5:ec:79:36:63:16:fe:96:5e:de:e1:2e:
                    62:10:4c:e2:9c:87:73:ae:c2:73:37:ba:86:40:62:
                    fe:17:b5:af:b1:fe:11:82:21:18:ad:28:12:c2:39:
                    2f:c3:1d:a1:f6:1a:a3:37:87:e2:f3:5d:65:c3:75:
                    cd:40:97:bb:09:47:4a:7d:01:a8:74:c4:ae:71:87:
                    fe:26:81:f6:cd:7d:72:50:1f:cc:4a:71:d0:75:a2:
                    33:07:f6:36:43:d7:88:f4:0e:b8:13:f2:ba:c8:cf:
                    c9:2a:e1:69:f6:b8:e9:f2:93:56:1c:87:6e:a1:b1:
                    e3:7f:2e:4b:c0:ef:39:90:28:d1:05:89:df:5d:6a:
                    2f:84:16:50:d9:68:c3:79:ed:ae:19:9c:bc:b8:e9:
                    ae:de:1d:f0:f6:4c:2a:7f:14:8f:c7:dc:ff:fe:c8:
                    8f:3c:6e:36:d1:3d:49:1b:93:25:54:20:dc:36:51:
                    74:11:25:80:f9:cb:b7:9f:23:a8:02:d7:6b:04:3b:
                    99:9c:5c:43:09:92:04:62:85:ea:5f:5a:01:8e:af:
                    cf:66:75:45:df:e0:8f:53:f9:3d:fe:d0:7e:94:ff:
                    78:26:d4:0d:21:62:23:6d:4f:aa:20:f9:bc:5f:86:
                    23:56:3d:29:12:57:3d:4e:2d:e3:eb:f6:7c:23:30:
                    84:d4:b9:01:d1:73:2b:c8:52:22:00:6b:07:85:b3:
                    5b:35:5f:91:f5:45:2f:db:79:23:98:9c:87:9b:5b:
                    97:88:b3:ed:1b:ce:01:7a:e8:4c:3d:78:c9:6a:62:
                    b0:d1:dc:3d:40:1c:b6:ee:9e:2b:a7:ed:b2:60:28:
                    a5:38:0f
                Exponent: 65537 (0x10001)
        X509v3 extensions:
            X509v3 Basic Constraints: 
                CA:FALSE
            Netscape Comment: 
                Easy-RSA Generated Certificate
            X509v3 Subject Key Identifier: 
                4D:99:AC:86:E9:9F:02:A7:F2:17:DF:37:2C:8C:B0:C7:13:F1:FE:85
            X509v3 Authority Key Identifier: 
                keyid:12:CD:60:04:D2:A0:80:9E:70:ED:C6:99:B8:7B:2C:C6:52:FD:19:A1
                DirName:/C=US/ST=OH/L=Columbus/O=VikingVPN/OU=MyOrganizationalUnit/CN=VikingVPN CA/name=EasyRSA/emailAddress=me@myhost.mydomain
                serial:CF:35:85:EE:80:BF:2A:3E

            X509v3 Extended Key Usage: 
                TLS Web Client Authentication
            X509v3 Key Usage: 
                Digital Signature
    Signature Algorithm: md5WithRSAEncryption
         65:4d:07:6e:3a:38:89:39:2c:37:18:9b:29:13:85:08:aa:d8:
         7f:22:d1:f1:0b:e8:49:ce:4b:0d:bd:2e:f0:ec:35:9a:52:86:
         10:25:96:0d:7a:b4:98:bf:9f:64:92:23:ea:eb:a0:53:53:5a:
         bd:64:da:74:13:23:bf:fd:50:e0:f6:a3:07:3e:84:aa:dd:8d:
         d8:9c:9c:41:80:49:54:91:35:f1:97:14:de:9e:b6:36:71:ba:
         60:b6:49:bb:6c:12:1c:16:18:15:7f:1b:e4:86:ed:3d:cd:24:
         0d:3b:12:50:68:30:60:cd:c4:1a:84:5e:8b:5b:b5:51:09:59:
         d5:56:00:cd:61:05:21:65:dc:5c:3d:78:de:b5:52:ca:be:87:
         6f:20:7e:02:05:56:91:de:b6:80:73:78:58:15:f5:79:ed:6c:
         ab:21:9e:4f:5b:17:ff:9a:61:1b:e0:5f:9d:ec:a0:f6:6a:43:
         65:6f:46:13:aa:a1:f3:1b:da:be:a2:86:af:0f:3c:f3:24:2b:
         ba:19:c9:f2:b7:85:1a:e6:e9:c7:3c:bb:e1:85:7a:b5:5a:0f:
         55:0a:18:43:ad:74:b7:cd:56:80:5c:ae:8c:16:a5:b6:b5:92:
         aa:0c:f5:d5:92:4a:2a:be:de:87:62:5d:30:4c:63:4e:1d:aa:
         d6:41:8a:06:00:80:9e:a7:c3:00:28:0e:5e:ab:5f:13:d8:89:
         22:39:5b:e7:de:1a:e1:f3:e6:9b:f8:d1:85:49:a8:5b:7c:10:
         96:69:56:84:bf:d8:b5:84:c5:b0:2e:6d:eb:8c:45:ed:72:fc:
         01:a6:f9:99:6e:e7:61:9e:4d:fc:a4:3a:d5:5f:4d:55:a0:bd:
         29:76:96:be:9c:33:76:64:df:7f:9f:1c:58:6f:ec:7a:3c:56:
         7e:45:2b:5b:c7:3e:3b:17:9f:69:29:7c:40:42:01:e1:37:63:
         ef:dd:0b:cf:0d:74:55:b7:cf:35:7e:a5:5b:4e:1d:94:26:74:
         b4:15:ae:ad:3c:e4:5a:b8:4f:4b:bd:e3:f2:e7:ff:2f:e9:a2:
         56:68:5b:5d:55:70:e0:09:c7:ed:09:7d:53:ad:cf:6b:c0:41:
         07:c9:01:0f:a4:30:d6:ee:50:5e:02:56:11:2e:ca:74:36:16:
         89:5f:a8:5d:48:e0:2a:ce:61:31:d1:90:dc:bc:b8:2c:b7:bc:
         bf:16:ff:97:11:a4:7b:e6:39:97:87:a3:71:79:9f:94:c3:26:
         b4:8e:27:3b:8b:48:dc:f7:05:48:ba:ab:b7:fe:68:64:86:f7:
         e9:d0:d1:80:c6:9f:a1:55:6e:9d:46:d3:d4:57:80:48:81:5e:
         fa:79:0a:99:c5:09:b8:4e
-----BEGIN CERTIFICATE-----
MIIGrTCCBJWgAwIBAgICFFkwDQYJKoZIhvcNAQEEBQAwgawxCzAJBgNVBAYTAlVT
MQswCQYDVQQIEwJPSDERMA8GA1UEBxMIQ29sdW1idXMxEjAQBgNVBAoTCVZpa2lu
Z1ZQTjEdMBsGA1UECxMUTXlPcmdhbml6YXRpb25hbFVuaXQxFTATBgNVBAMTDFZp
a2luZ1ZQTiBDQTEQMA4GA1UEKRMHRWFzeVJTQTEhMB8GCSqGSIb3DQEJARYSbWVA
bXlob3N0Lm15ZG9tYWluMB4XDTE1MDUxMDEzMTIzN1oXDTI1MDUwNzEzMTIzN1ow
HzEdMBsGA1UEAxMUQ2xpZW50MTY2OENlcnRlODAzYmEwggIiMA0GCSqGSIb3DQEB
AQUAA4ICDwAwggIKAoICAQDYiy6dMoTPAOfRDrwX3uuxXphJi/LiHU/2kId3INCi
fHUpLocPU3lQj/7NjlN81W7398gEtm5bN4R2d0QbAscYqdEkFpQuboIOehPkmiDh
w/dL6+NsJpraDNxoI/+8+iNVQtb0ETSuRhDGS+bdPUrDI+0XprYr2mQ7bo4IPaB+
DuIgv7o2+NecWDIMdX4t1N7doDz410WunzvjeZGJKMtHbxo5viFZWiB0/qOIA/c/
dQyQE4ZooLkhQCz3qpDH4FBuZS0hAsXseTZjFv6WXt7hLmIQTOKch3OuwnM3uoZA
Yv4Xta+x/hGCIRitKBLCOS/DHaH2GqM3h+LzXWXDdc1Al7sJR0p9Aah0xK5xh/4m
gfbNfXJQH8xKcdB1ojMH9jZD14j0DrgT8rrIz8kq4Wn2uOnyk1Ych26hseN/LkvA
7zmQKNEFid9dai+EFlDZaMN57a4ZnLy46a7eHfD2TCp/FI/H3P/+yI88bjbRPUkb
kyVUINw2UXQRJYD5y7efI6gC12sEO5mcXEMJkgRihepfWgGOr89mdUXf4I9T+T3+
0H6U/3gm1A0hYiNtT6og+bxfhiNWPSkSVz1OLePr9nwjMITUuQHRcyvIUiIAaweF
s1s1X5H1RS/beSOYnIebW5eIs+0bzgF66Ew9eMlqYrDR3D1AHLbuniun7bJgKKU4
DwIDAQABo4IBYzCCAV8wCQYDVR0TBAIwADAtBglghkgBhvhCAQ0EIBYeRWFzeS1S
U0EgR2VuZXJhdGVkIENlcnRpZmljYXRlMB0GA1UdDgQWBBRNmayG6Z8Cp/IX3zcs
jLDHE/H+hTCB4QYDVR0jBIHZMIHWgBQSzWAE0qCAnnDtxpm4eyzGUv0ZoaGBsqSB
rzCBrDELMAkGA1UEBhMCVVMxCzAJBgNVBAgTAk9IMREwDwYDVQQHEwhDb2x1bWJ1
czESMBAGA1UEChMJVmlraW5nVlBOMR0wGwYDVQQLExRNeU9yZ2FuaXphdGlvbmFs
VW5pdDEVMBMGA1UEAxMMVmlraW5nVlBOIENBMRAwDgYDVQQpEwdFYXN5UlNBMSEw
HwYJKoZIhvcNAQkBFhJtZUBteWhvc3QubXlkb21haW6CCQDPNYXugL8qPjATBgNV
HSUEDDAKBggrBgEFBQcDAjALBgNVHQ8EBAMCB4AwDQYJKoZIhvcNAQEEBQADggIB
AGVNB246OIk5LDcYmykThQiq2H8i0fEL6EnOSw29LvDsNZpShhAllg16tJi/n2SS
I+rroFNTWr1k2nQTI7/9UOD2owc+hKrdjdicnEGASVSRNfGXFN6etjZxumC2Sbts
EhwWGBV/G+SG7T3NJA07ElBoMGDNxBqEXotbtVEJWdVWAM1hBSFl3Fw9eN61Usq+
h28gfgIFVpHetoBzeFgV9XntbKshnk9bF/+aYRvgX53soPZqQ2VvRhOqofMb2r6i
hq8PPPMkK7oZyfK3hRrm6cc8u+GFerVaD1UKGEOtdLfNVoBcrowWpba1kqoM9dWS
Siq+3odiXTBMY04dqtZBigYAgJ6nwwAoDl6rXxPYiSI5W+feGuHz5pv40YVJqFt8
EJZpVoS/2LWExbAubeuMRe1y/AGm+Zlu52GeTfykOtVfTVWgvSl2lr6cM3Zk33+f
HFhv7Ho8Vn5FK1vHPjsXn2kpfEBCAeE3Y+/dC88NdFW3zzV+pVtOHZQmdLQVrq08
5Fq4T0u94/Ln/y/polZoW11VcOAJx+0JfVOtz2vAQQfJAQ+kMNbuUF4CVhEuynQ2
FolfqF1I4CrOYTHRkNy8uCy3vL8W/5cRpHvmOZeHo3F5n5TDJrSOJzuLSNz3BUi6
q7f+aGSG9+nQ0YDGn6FVbp1G09RXgEiBXvp5CpnFCbhO
-----END CERTIFICATE-----
