Certificate:
    Data:
        Version: 3 (0x2)
        Serial Number: 2966 (0xb96)
    Signature Algorithm: md5WithRSAEncryption
        Issuer: C=US, ST=OH, L=Columbus, O=VikingVPN, OU=MyOrganizationalUnit, CN=VikingVPN CA/name=EasyRSA/emailAddress=me@myhost.mydomain
        Validity
            Not Before: Sep 26 15:40:37 2014 GMT
            Not After : Sep 23 15:40:37 2024 GMT
        Subject: CN=Client1018Cert054d5b
        Subject Public Key Info:
            Public Key Algorithm: rsaEncryption
                Public-Key: (4096 bit)
                Modulus:
                    00:c2:9e:ab:e8:8c:ab:e8:b1:1d:7f:14:f4:72:1b:
                    64:55:12:a5:db:10:3b:81:6c:91:d0:c1:4f:7e:6f:
                    d8:2a:ef:61:9b:69:cb:16:d6:88:7e:4a:3c:77:8d:
                    3d:e8:36:2c:df:86:96:36:a9:c0:b4:a7:9e:30:f9:
                    0e:b5:53:0c:3e:db:09:76:f2:a2:4a:28:5a:64:b0:
                    c8:87:05:e7:eb:91:60:d7:1a:51:15:9c:8f:37:fc:
                    71:b2:d4:a9:f4:48:ca:db:d0:e0:ab:11:99:0c:84:
                    21:25:52:d8:72:ff:ca:40:fb:d9:fd:bc:16:4f:31:
                    a0:d4:3b:1a:38:55:f4:2a:5d:e4:24:52:70:7c:16:
                    06:41:e8:bc:d1:8b:2c:8f:03:1e:bd:4d:92:a4:ee:
                    15:17:b6:d3:05:11:11:85:3d:61:02:10:5c:c5:cf:
                    33:34:a0:0e:67:6a:a4:58:f2:df:c3:87:81:9d:ad:
                    7b:06:cd:29:29:0a:08:3b:55:cc:10:7e:a1:88:2e:
                    cc:9e:3f:21:d7:00:02:f2:9c:9b:ff:3e:0e:e4:56:
                    3f:c0:5a:4d:92:92:29:81:a1:81:b1:12:39:0e:11:
                    02:78:d1:25:b8:f3:14:6a:cf:d3:c3:4a:39:c9:47:
                    ce:95:ab:8a:0e:75:9e:e8:ac:30:57:5e:56:c8:78:
                    88:e6:82:76:2d:ab:f2:29:13:aa:29:1d:32:d8:d8:
                    03:38:60:63:1f:ef:c3:fc:c1:b3:a5:f2:69:16:e7:
                    74:87:15:47:d5:70:9d:d3:3e:86:fc:6d:d8:a3:bc:
                    21:9c:65:df:34:6a:cd:6a:d3:21:f5:1c:3b:65:00:
                    e4:33:56:00:15:3a:32:09:58:32:ea:78:c3:af:df:
                    20:a4:1b:19:fd:93:18:ed:9b:dc:8d:a9:e0:f8:37:
                    e4:3c:a2:fb:71:50:9f:55:41:cf:1f:aa:57:f7:e3:
                    3f:10:f7:3a:3d:97:3d:57:5a:71:44:b3:61:8c:b5:
                    68:28:85:1e:81:68:5e:78:5b:86:2c:c0:65:c7:87:
                    0f:e7:f8:df:b4:6c:0f:5c:1e:d4:8f:21:5f:36:3d:
                    60:fb:1f:b8:f4:a0:38:ae:5e:fb:fe:0e:91:07:6b:
                    d4:fe:f1:31:bf:83:75:f2:b8:15:e5:4b:f7:e9:86:
                    3a:55:2b:6d:2b:89:79:75:96:b4:7e:03:b8:24:82:
                    62:38:cb:ac:e2:6b:dc:77:c9:b8:4d:47:73:f6:53:
                    22:fd:ac:5e:2d:81:7b:d3:06:81:99:39:f4:58:b3:
                    56:21:7a:de:a7:c3:ea:f0:2f:3c:7f:5c:e6:7d:66:
                    86:5d:ca:3a:74:45:25:7d:51:0f:a8:b5:e5:27:e6:
                    96:f5:8d
                Exponent: 65537 (0x10001)
        X509v3 extensions:
            X509v3 Basic Constraints: 
                CA:FALSE
            Netscape Comment: 
                Easy-RSA Generated Certificate
            X509v3 Subject Key Identifier: 
                A8:03:FA:FE:BC:35:EE:45:3E:CD:BB:45:E5:08:53:8B:39:B2:CE:C3
            X509v3 Authority Key Identifier: 
                keyid:12:CD:60:04:D2:A0:80:9E:70:ED:C6:99:B8:7B:2C:C6:52:FD:19:A1
                DirName:/C=US/ST=OH/L=Columbus/O=VikingVPN/OU=MyOrganizationalUnit/CN=VikingVPN CA/name=EasyRSA/emailAddress=me@myhost.mydomain
                serial:CF:35:85:EE:80:BF:2A:3E

            X509v3 Extended Key Usage: 
                TLS Web Client Authentication
            X509v3 Key Usage: 
                Digital Signature
    Signature Algorithm: md5WithRSAEncryption
         66:e3:4c:c8:01:f9:8a:63:6a:18:ad:51:5d:0e:e8:ac:73:83:
         f0:50:4c:e2:7e:b3:c3:3d:6d:9d:e5:28:56:08:76:12:fc:8d:
         9e:bb:56:94:21:f8:8f:21:ab:bf:0c:91:8c:d0:2b:53:54:93:
         02:75:ab:f3:9e:73:71:1f:82:e4:f7:5f:fd:f9:eb:1b:18:cd:
         2b:3a:2f:69:17:0e:6d:98:db:72:62:50:ac:bb:b3:cb:1f:7f:
         80:4f:43:de:64:a9:b6:88:dd:71:81:1f:4c:fd:2a:ab:b4:41:
         8a:02:9f:d4:62:5a:ac:50:a6:5d:fe:0a:8d:7d:0b:67:a0:40:
         1d:b2:64:5a:10:8b:d1:f7:df:e2:4c:ed:fe:25:54:de:bc:01:
         4d:77:62:f8:58:61:d9:f3:51:94:a7:3b:a8:a2:a6:bf:95:3d:
         d9:66:ec:a4:61:de:0a:dc:dc:73:de:14:01:5c:27:97:84:b5:
         1f:2a:40:1f:bb:37:c3:40:9e:89:1b:6f:0e:25:5a:91:f8:a0:
         2b:8b:18:24:dc:8a:b0:c4:69:6d:9d:4f:20:f1:16:1d:b5:32:
         de:ce:aa:b0:4e:f9:be:7d:b0:ea:e7:1a:8a:fb:0b:67:2d:35:
         1c:18:f6:f1:da:34:30:1f:ce:50:e1:20:14:05:a0:bd:fe:d6:
         83:2d:11:ec:c4:8a:5c:82:56:75:8f:31:5b:d7:97:73:d7:e0:
         8b:c3:e8:4f:87:bc:49:b3:18:37:3e:82:0f:7f:ed:39:15:80:
         35:ae:fe:18:94:e0:e1:82:91:6a:44:f9:fd:7b:7a:91:dc:52:
         1f:33:30:5f:e6:52:0d:1b:40:29:c4:29:1a:dc:5b:02:56:d2:
         ce:a5:b5:01:16:ee:08:14:42:53:5f:57:3f:da:5d:12:ea:b0:
         0a:da:3f:83:b6:a6:ae:3e:52:80:a2:2d:a8:f4:24:85:14:db:
         e2:1e:2c:12:69:51:b5:d8:77:75:bc:b1:4f:96:73:eb:61:cf:
         62:d9:5b:a3:af:a8:c9:5e:64:10:06:d2:a1:07:af:09:8c:d3:
         ae:e2:54:56:2f:2e:19:df:c7:85:bd:45:a6:c6:eb:bd:a1:ec:
         b6:71:4c:70:8c:e6:6a:53:1f:59:d6:f2:28:1d:d0:19:80:cb:
         57:11:80:4d:cc:30:12:db:63:dc:97:8a:a3:3c:29:70:33:61:
         be:1e:87:13:e6:8a:9d:94:ed:83:a9:cb:00:cf:21:44:1e:cf:
         3c:8f:37:a8:09:00:a2:69:57:25:57:29:78:76:61:7e:25:48:
         de:3a:07:c8:00:4f:92:8e:09:a2:10:cb:60:e3:57:d2:d6:f5:
         52:be:07:e4:65:14:e8:c1
-----BEGIN CERTIFICATE-----
MIIGrTCCBJWgAwIBAgICC5YwDQYJKoZIhvcNAQEEBQAwgawxCzAJBgNVBAYTAlVT
MQswCQYDVQQIEwJPSDERMA8GA1UEBxMIQ29sdW1idXMxEjAQBgNVBAoTCVZpa2lu
Z1ZQTjEdMBsGA1UECxMUTXlPcmdhbml6YXRpb25hbFVuaXQxFTATBgNVBAMTDFZp
a2luZ1ZQTiBDQTEQMA4GA1UEKRMHRWFzeVJTQTEhMB8GCSqGSIb3DQEJARYSbWVA
bXlob3N0Lm15ZG9tYWluMB4XDTE0MDkyNjE1NDAzN1oXDTI0MDkyMzE1NDAzN1ow
HzEdMBsGA1UEAxMUQ2xpZW50MTAxOENlcnQwNTRkNWIwggIiMA0GCSqGSIb3DQEB
AQUAA4ICDwAwggIKAoICAQDCnqvojKvosR1/FPRyG2RVEqXbEDuBbJHQwU9+b9gq
72GbacsW1oh+Sjx3jT3oNizfhpY2qcC0p54w+Q61Uww+2wl28qJKKFpksMiHBefr
kWDXGlEVnI83/HGy1Kn0SMrb0OCrEZkMhCElUthy/8pA+9n9vBZPMaDUOxo4VfQq
XeQkUnB8FgZB6LzRiyyPAx69TZKk7hUXttMFERGFPWECEFzFzzM0oA5naqRY8t/D
h4GdrXsGzSkpCgg7VcwQfqGILsyePyHXAALynJv/Pg7kVj/AWk2SkimBoYGxEjkO
EQJ40SW48xRqz9PDSjnJR86Vq4oOdZ7orDBXXlbIeIjmgnYtq/IpE6opHTLY2AM4
YGMf78P8wbOl8mkW53SHFUfVcJ3TPob8bdijvCGcZd80as1q0yH1HDtlAOQzVgAV
OjIJWDLqeMOv3yCkGxn9kxjtm9yNqeD4N+Q8ovtxUJ9VQc8fqlf34z8Q9zo9lz1X
WnFEs2GMtWgohR6BaF54W4YswGXHhw/n+N+0bA9cHtSPIV82PWD7H7j0oDiuXvv+
DpEHa9T+8TG/g3XyuBXlS/fphjpVK20riXl1lrR+A7gkgmI4y6zia9x3ybhNR3P2
UyL9rF4tgXvTBoGZOfRYs1Yhet6nw+rwLzx/XOZ9ZoZdyjp0RSV9UQ+oteUn5pb1
jQIDAQABo4IBYzCCAV8wCQYDVR0TBAIwADAtBglghkgBhvhCAQ0EIBYeRWFzeS1S
U0EgR2VuZXJhdGVkIENlcnRpZmljYXRlMB0GA1UdDgQWBBSoA/r+vDXuRT7Nu0Xl
CFOLObLOwzCB4QYDVR0jBIHZMIHWgBQSzWAE0qCAnnDtxpm4eyzGUv0ZoaGBsqSB
rzCBrDELMAkGA1UEBhMCVVMxCzAJBgNVBAgTAk9IMREwDwYDVQQHEwhDb2x1bWJ1
czESMBAGA1UEChMJVmlraW5nVlBOMR0wGwYDVQQLExRNeU9yZ2FuaXphdGlvbmFs
VW5pdDEVMBMGA1UEAxMMVmlraW5nVlBOIENBMRAwDgYDVQQpEwdFYXN5UlNBMSEw
HwYJKoZIhvcNAQkBFhJtZUBteWhvc3QubXlkb21haW6CCQDPNYXugL8qPjATBgNV
HSUEDDAKBggrBgEFBQcDAjALBgNVHQ8EBAMCB4AwDQYJKoZIhvcNAQEEBQADggIB
AGbjTMgB+YpjahitUV0O6Kxzg/BQTOJ+s8M9bZ3lKFYIdhL8jZ67VpQh+I8hq78M
kYzQK1NUkwJ1q/Oec3EfguT3X/356xsYzSs6L2kXDm2Y23JiUKy7s8sff4BPQ95k
qbaI3XGBH0z9Kqu0QYoCn9RiWqxQpl3+Co19C2egQB2yZFoQi9H33+JM7f4lVN68
AU13YvhYYdnzUZSnO6iipr+VPdlm7KRh3grc3HPeFAFcJ5eEtR8qQB+7N8NAnokb
bw4lWpH4oCuLGCTcirDEaW2dTyDxFh21Mt7OqrBO+b59sOrnGor7C2ctNRwY9vHa
NDAfzlDhIBQFoL3+1oMtEezEilyCVnWPMVvXl3PX4IvD6E+HvEmzGDc+gg9/7TkV
gDWu/hiU4OGCkWpE+f17epHcUh8zMF/mUg0bQCnEKRrcWwJW0s6ltQEW7ggUQlNf
Vz/aXRLqsAraP4O2pq4+UoCiLaj0JIUU2+IeLBJpUbXYd3W8sU+Wc+thz2LZW6Ov
qMleZBAG0qEHrwmM067iVFYvLhnfx4W9RabG672h7LZxTHCM5mpTH1nW8igd0BmA
y1cRgE3MMBLbY9yXiqM8KXAzYb4ehxPmip2U7YOpywDPIUQezzyPN6gJAKJpVyVX
KXh2YX4lSN46B8gAT5KOCaIQy2DjV9LW9VK+B+RlFOjB
-----END CERTIFICATE-----
