Certificate:
    Data:
        Version: 3 (0x2)
        Serial Number: 10867 (0x2a73)
    Signature Algorithm: sha256WithRSAEncryption
        Issuer: C=US, ST=OH, L=Columbus, O=VikingVPN, OU=MyOrganizationalUnit, CN=VikingVPN CA/name=EasyRSA/emailAddress=me@myhost.mydomain
        Validity
            Not Before: May  3 22:56:41 2017 GMT
            Not After : May  1 22:56:41 2027 GMT
        Subject: CN=Client2370Cert966cd4
        Subject Public Key Info:
            Public Key Algorithm: rsaEncryption
                Public-Key: (4096 bit)
                Modulus:
                    00:c0:47:bd:2b:49:6c:69:d5:45:f9:99:7b:b9:15:
                    91:c4:5f:bb:4d:fa:58:0e:6c:9c:d3:c3:3e:16:6b:
                    df:08:91:6b:08:10:53:83:44:57:93:b3:dc:dc:a0:
                    4a:9f:7a:eb:9c:93:20:e9:57:01:a6:2f:a2:99:e0:
                    a6:c3:49:0b:33:c0:41:96:37:e1:01:8b:6f:94:9b:
                    1f:65:59:c4:1e:b8:7c:07:33:73:cc:6f:b3:4f:7d:
                    fd:c4:7e:e9:9b:d4:15:a8:e3:be:93:47:4e:5c:05:
                    02:39:10:c7:5b:51:17:e2:33:3c:24:6a:d1:04:a2:
                    8f:54:59:c9:c9:40:8f:af:38:5e:99:68:3c:86:b9:
                    fb:b5:38:f7:42:4a:a2:5f:12:39:6c:5d:67:3f:39:
                    f2:09:e2:25:23:fe:a7:74:2c:2b:e3:ac:2b:41:68:
                    12:56:6b:5a:78:e8:2a:01:94:38:89:ee:82:7f:cf:
                    ee:44:61:f6:6f:b3:08:c3:6a:85:63:03:dd:79:b4:
                    1b:35:3d:01:f1:8d:85:c8:4a:0b:e6:d4:ea:06:2f:
                    7f:f4:82:f5:1e:e5:24:bf:da:7b:f5:39:65:e2:65:
                    a3:f5:16:8a:f4:50:dd:3e:df:df:a8:05:ca:a6:21:
                    ea:d5:cd:87:af:4d:2f:bd:7e:0a:6f:30:24:33:9c:
                    30:27:ef:74:2d:a7:5d:07:84:ab:5d:fb:bc:04:2e:
                    48:32:a9:68:7d:4d:64:fd:09:ca:7f:04:64:5c:27:
                    27:bc:c8:66:8c:80:16:16:61:80:7c:dc:e3:c5:cb:
                    a3:a5:8f:2d:75:3c:bc:fb:c8:6a:11:a0:a9:4f:5f:
                    b1:b3:c6:8e:26:3b:c9:fc:09:15:66:1f:b0:7f:0e:
                    d1:83:37:6e:10:d8:b9:7a:3e:dd:42:df:07:f6:5c:
                    cc:d3:fb:5b:e1:53:b3:ba:9e:6d:db:98:dc:f9:f0:
                    46:0a:56:b6:29:e6:ac:96:86:2b:10:3c:ad:f5:3b:
                    e0:66:7a:de:69:4b:28:05:6d:64:fe:8c:ba:71:8d:
                    36:0d:4b:78:60:5b:ce:48:81:40:07:d6:f3:8b:95:
                    fb:e4:b6:77:27:c1:0c:2d:ac:41:d0:c2:ed:d6:ff:
                    1e:f3:2a:1f:3d:41:3c:db:2b:f8:59:fd:da:a6:0c:
                    2c:61:d4:3b:88:6c:00:aa:2d:bf:8f:6c:7e:75:30:
                    fc:0e:07:a7:b7:e2:80:08:ae:ec:9a:01:c7:c0:b3:
                    05:3f:2d:96:9f:c4:95:2e:25:3f:84:5e:d3:7b:78:
                    56:50:41:7c:b7:90:44:e8:dc:b4:33:93:af:ca:65:
                    f3:4c:6e:0d:37:67:81:ba:2f:5e:68:99:e8:1c:55:
                    b5:9e:cf
                Exponent: 65537 (0x10001)
        X509v3 extensions:
            X509v3 Basic Constraints: 
                CA:FALSE
            Netscape Comment: 
                Easy-RSA Generated Certificate
            X509v3 Subject Key Identifier: 
                7D:BB:5C:6B:98:5E:F4:DD:D5:F5:9C:F2:D9:19:9C:80:C1:2A:FE:E6
            X509v3 Authority Key Identifier: 
                keyid:12:CD:60:04:D2:A0:80:9E:70:ED:C6:99:B8:7B:2C:C6:52:FD:19:A1
                DirName:/C=US/ST=OH/L=Columbus/O=VikingVPN/OU=MyOrganizationalUnit/CN=VikingVPN CA/name=EasyRSA/emailAddress=me@myhost.mydomain
                serial:CF:35:85:EE:80:BF:2A:3E

            X509v3 Extended Key Usage: 
                TLS Web Client Authentication
            X509v3 Key Usage: 
                Digital Signature
    Signature Algorithm: sha256WithRSAEncryption
         00:77:6d:dc:2d:71:92:6a:2d:f8:d8:4e:49:a3:1b:09:d8:87:
         7c:df:7f:5b:a6:93:f9:50:81:e9:64:ba:10:5d:fc:db:5c:15:
         01:2f:54:0a:19:dc:37:23:74:90:13:58:16:e1:32:9a:a2:e1:
         55:ba:9d:96:b1:12:f1:b5:2b:50:08:ab:99:bd:3d:08:48:ed:
         c9:82:32:d8:07:27:c2:26:bf:ae:3e:1b:26:bf:49:ae:96:a1:
         a6:18:f9:31:dd:d4:47:69:6d:f4:fe:fa:31:0f:98:d0:40:cc:
         c2:f6:f2:1f:3f:bd:5d:74:e5:eb:b3:9e:00:ab:8a:15:bb:0e:
         61:07:7d:19:79:a8:0a:40:fd:73:0c:8d:63:75:b8:6b:92:71:
         bf:ed:34:1e:85:09:b3:10:c0:9b:12:8e:19:1c:ad:8e:b9:68:
         6b:68:cd:de:9f:28:90:35:9a:62:5c:83:5f:11:5b:e3:47:f4:
         89:f1:36:9b:03:24:69:87:47:88:64:a0:7d:af:1c:5d:50:66:
         bb:af:5f:89:b7:89:22:e8:bb:d6:3d:7e:5e:12:27:ac:bf:ce:
         52:fc:e0:4d:24:78:8f:33:b9:ca:71:d8:ca:83:2b:c6:9d:73:
         58:8d:44:45:10:0b:16:5a:95:98:3f:75:92:13:d9:92:1a:b7:
         83:2e:04:f4:75:98:22:95:16:d2:9c:4e:6d:40:35:0c:67:5c:
         84:25:12:0a:76:ca:ba:3b:39:5d:81:45:4a:91:10:ff:8e:d8:
         1f:3b:46:32:79:13:09:76:4f:26:13:45:aa:6d:a8:af:e6:3f:
         9e:61:5f:ce:07:d8:aa:3f:f7:c2:2d:18:f3:32:37:84:d9:e1:
         e9:93:00:6e:33:81:cd:3c:c1:62:c0:81:27:8a:b6:dc:89:77:
         f4:84:40:ce:20:6b:0a:4d:7c:39:9c:16:4f:f8:2c:40:03:f2:
         7a:70:45:7a:81:3f:f3:a7:f9:fa:7b:a6:62:54:5a:14:03:1d:
         61:45:96:a8:9b:17:e1:5e:12:8c:8c:7a:00:a9:97:54:e4:f4:
         8d:9c:c8:7f:a2:41:fe:83:61:59:cc:a2:82:54:75:b1:3b:77:
         a4:61:ba:c6:b6:ac:70:0c:fd:e0:3d:93:3d:16:d7:a3:e9:ed:
         c2:66:13:98:52:4d:68:8c:cc:b6:ba:b8:1f:e5:02:93:cb:12:
         91:23:87:8a:8f:65:49:fc:b4:c4:64:8b:76:83:d4:bd:ea:82:
         3d:bf:8c:c1:ac:31:37:28:ba:2b:c2:68:08:e4:05:65:f2:50:
         60:45:89:dd:dd:29:53:73:01:09:05:4c:f6:c2:20:b3:37:b5:
         f8:51:ed:79:ff:40:81:b6
-----BEGIN CERTIFICATE-----
MIIGrTCCBJWgAwIBAgICKnMwDQYJKoZIhvcNAQELBQAwgawxCzAJBgNVBAYTAlVT
MQswCQYDVQQIEwJPSDERMA8GA1UEBxMIQ29sdW1idXMxEjAQBgNVBAoTCVZpa2lu
Z1ZQTjEdMBsGA1UECxMUTXlPcmdhbml6YXRpb25hbFVuaXQxFTATBgNVBAMTDFZp
a2luZ1ZQTiBDQTEQMA4GA1UEKRMHRWFzeVJTQTEhMB8GCSqGSIb3DQEJARYSbWVA
bXlob3N0Lm15ZG9tYWluMB4XDTE3MDUwMzIyNTY0MVoXDTI3MDUwMTIyNTY0MVow
HzEdMBsGA1UEAxMUQ2xpZW50MjM3MENlcnQ5NjZjZDQwggIiMA0GCSqGSIb3DQEB
AQUAA4ICDwAwggIKAoICAQDAR70rSWxp1UX5mXu5FZHEX7tN+lgObJzTwz4Wa98I
kWsIEFODRFeTs9zcoEqfeuuckyDpVwGmL6KZ4KbDSQszwEGWN+EBi2+Umx9lWcQe
uHwHM3PMb7NPff3Efumb1BWo476TR05cBQI5EMdbURfiMzwkatEEoo9UWcnJQI+v
OF6ZaDyGufu1OPdCSqJfEjlsXWc/OfIJ4iUj/qd0LCvjrCtBaBJWa1p46CoBlDiJ
7oJ/z+5EYfZvswjDaoVjA915tBs1PQHxjYXISgvm1OoGL3/0gvUe5SS/2nv1OWXi
ZaP1For0UN0+39+oBcqmIerVzYevTS+9fgpvMCQznDAn73Qtp10HhKtd+7wELkgy
qWh9TWT9Ccp/BGRcJye8yGaMgBYWYYB83OPFy6Oljy11PLz7yGoRoKlPX7Gzxo4m
O8n8CRVmH7B/DtGDN24Q2Ll6Pt1C3wf2XMzT+1vhU7O6nm3bmNz58EYKVrYp5qyW
hisQPK31O+Bmet5pSygFbWT+jLpxjTYNS3hgW85IgUAH1vOLlfvktncnwQwtrEHQ
wu3W/x7zKh89QTzbK/hZ/dqmDCxh1DuIbACqLb+PbH51MPwOB6e34oAIruyaAcfA
swU/LZafxJUuJT+EXtN7eFZQQXy3kETo3LQzk6/KZfNMbg03Z4G6L15omegcVbWe
zwIDAQABo4IBYzCCAV8wCQYDVR0TBAIwADAtBglghkgBhvhCAQ0EIBYeRWFzeS1S
U0EgR2VuZXJhdGVkIENlcnRpZmljYXRlMB0GA1UdDgQWBBR9u1xrmF703dX1nPLZ
GZyAwSr+5jCB4QYDVR0jBIHZMIHWgBQSzWAE0qCAnnDtxpm4eyzGUv0ZoaGBsqSB
rzCBrDELMAkGA1UEBhMCVVMxCzAJBgNVBAgTAk9IMREwDwYDVQQHEwhDb2x1bWJ1
czESMBAGA1UEChMJVmlraW5nVlBOMR0wGwYDVQQLExRNeU9yZ2FuaXphdGlvbmFs
VW5pdDEVMBMGA1UEAxMMVmlraW5nVlBOIENBMRAwDgYDVQQpEwdFYXN5UlNBMSEw
HwYJKoZIhvcNAQkBFhJtZUBteWhvc3QubXlkb21haW6CCQDPNYXugL8qPjATBgNV
HSUEDDAKBggrBgEFBQcDAjALBgNVHQ8EBAMCB4AwDQYJKoZIhvcNAQELBQADggIB
AAB3bdwtcZJqLfjYTkmjGwnYh3zff1umk/lQgelkuhBd/NtcFQEvVAoZ3DcjdJAT
WBbhMpqi4VW6nZaxEvG1K1AIq5m9PQhI7cmCMtgHJ8Imv64+Gya/Sa6WoaYY+THd
1EdpbfT++jEPmNBAzML28h8/vV105euzngCrihW7DmEHfRl5qApA/XMMjWN1uGuS
cb/tNB6FCbMQwJsSjhkcrY65aGtozd6fKJA1mmJcg18RW+NH9InxNpsDJGmHR4hk
oH2vHF1QZruvX4m3iSLou9Y9fl4SJ6y/zlL84E0keI8zucpx2MqDK8adc1iNREUQ
CxZalZg/dZIT2ZIat4MuBPR1mCKVFtKcTm1ANQxnXIQlEgp2yro7OV2BRUqREP+O
2B87RjJ5Ewl2TyYTRaptqK/mP55hX84H2Ko/98ItGPMyN4TZ4emTAG4zgc08wWLA
gSeKttyJd/SEQM4gawpNfDmcFk/4LEAD8npwRXqBP/On+fp7pmJUWhQDHWFFlqib
F+FeEoyMegCpl1Tk9I2cyH+iQf6DYVnMooJUdbE7d6Rhusa2rHAM/eA9kz0W16Pp
7cJmE5hSTWiMzLa6uB/lApPLEpEjh4qPZUn8tMRki3aD1L3qgj2/jMGsMTcouivC
aAjkBWXyUGBFid3dKVNzAQkFTPbCILM3tfhR7Xn/QIG2
-----END CERTIFICATE-----
