Certificate:
    Data:
        Version: 3 (0x2)
        Serial Number: 6494 (0x195e)
    Signature Algorithm: md5WithRSAEncryption
        Issuer: C=US, ST=OH, L=Columbus, O=VikingVPN, OU=MyOrganizationalUnit, CN=VikingVPN CA/name=EasyRSA/emailAddress=me@myhost.mydomain
        Validity
            Not Before: Oct 19 05:32:39 2015 GMT
            Not After : Oct 16 05:32:39 2025 GMT
        Subject: CN=Client1282Cert7cd0de
        Subject Public Key Info:
            Public Key Algorithm: rsaEncryption
                Public-Key: (4096 bit)
                Modulus:
                    00:da:e4:2a:d8:8c:ab:23:ab:59:19:c4:81:78:f1:
                    46:04:8a:de:07:08:29:c9:63:a3:cd:22:e2:50:3c:
                    c3:aa:34:56:45:d5:88:51:be:46:41:d7:68:f8:77:
                    af:f4:b1:39:e0:88:c5:50:96:43:49:c4:f6:6a:a0:
                    bc:27:9a:a8:76:c1:49:83:ef:3e:30:45:53:5f:72:
                    b3:22:2d:b6:66:a9:6d:41:0c:12:27:6f:46:95:42:
                    06:53:d3:97:f3:d1:b4:3c:83:2f:26:f9:31:4c:60:
                    39:9b:27:fc:b7:44:b7:c8:1e:83:c7:8f:ca:96:98:
                    b2:dc:4b:fd:89:3a:37:f6:0f:55:65:ea:c5:0f:d7:
                    80:cf:c3:b3:d6:3c:b3:90:63:08:e8:fc:86:f4:38:
                    e3:35:07:92:8b:c6:a2:f0:71:5f:36:fa:51:25:32:
                    da:a7:9a:25:99:18:d1:be:4c:81:5d:7b:df:87:91:
                    bd:58:6c:d5:99:46:97:97:e5:05:91:19:65:8f:4d:
                    81:14:cd:f9:6c:21:d9:81:7d:1f:db:0a:93:c4:85:
                    26:86:d7:fe:92:16:97:a0:24:2a:ee:d7:8f:d2:05:
                    67:60:23:e8:1c:d6:4d:69:d3:e9:61:f2:09:65:de:
                    35:e3:04:31:3c:f0:dc:a1:08:8c:14:54:cd:a8:5c:
                    eb:86:d0:23:f4:8c:18:98:e4:aa:c5:31:a4:b8:df:
                    57:21:c1:46:eb:19:9f:af:bb:23:bc:44:32:cb:56:
                    31:d9:eb:ff:87:28:63:16:92:0f:73:48:4d:19:2f:
                    95:f3:74:ac:74:34:ea:c3:e3:d5:f5:c1:72:ff:b2:
                    24:67:b0:34:69:e7:31:33:0f:ea:6c:e8:5e:0f:5d:
                    34:84:42:94:65:f5:ee:79:71:b6:e3:9c:66:c7:5b:
                    bb:25:60:76:bb:f5:35:4f:b1:89:f2:40:e8:4b:c5:
                    7f:09:67:1d:b8:1f:7e:f5:d2:f9:62:bd:5a:04:61:
                    da:e6:e8:b3:64:14:c3:7e:7f:3e:f3:d3:a0:5e:ab:
                    57:ae:e2:1b:93:58:cc:c0:01:47:35:16:37:74:09:
                    29:fb:68:ff:9b:f4:02:31:c4:72:79:a1:d7:51:cc:
                    6a:99:76:20:9a:cd:22:31:00:b9:0d:66:f7:78:1f:
                    c2:03:b2:11:c3:0c:38:af:49:38:a2:52:7f:64:77:
                    87:ad:be:f8:56:39:c9:84:50:da:f3:da:70:6b:a8:
                    8c:f5:9b:7b:34:0a:9c:03:28:39:77:b5:3d:4a:df:
                    ca:21:29:ca:ed:fb:40:39:bb:e9:67:64:75:d3:47:
                    09:b1:00:fe:fb:71:56:a6:be:d3:cb:55:af:40:f6:
                    30:c6:9f
                Exponent: 65537 (0x10001)
        X509v3 extensions:
            X509v3 Basic Constraints: 
                CA:FALSE
            Netscape Comment: 
                Easy-RSA Generated Certificate
            X509v3 Subject Key Identifier: 
                B0:3B:C1:77:B3:AF:F4:B2:CE:3B:B5:83:EB:7D:D7:01:B5:9F:9D:35
            X509v3 Authority Key Identifier: 
                keyid:12:CD:60:04:D2:A0:80:9E:70:ED:C6:99:B8:7B:2C:C6:52:FD:19:A1
                DirName:/C=US/ST=OH/L=Columbus/O=VikingVPN/OU=MyOrganizationalUnit/CN=VikingVPN CA/name=EasyRSA/emailAddress=me@myhost.mydomain
                serial:CF:35:85:EE:80:BF:2A:3E

            X509v3 Extended Key Usage: 
                TLS Web Client Authentication
            X509v3 Key Usage: 
                Digital Signature
    Signature Algorithm: md5WithRSAEncryption
         1a:93:10:a7:20:09:04:71:b3:33:90:8c:08:fb:e6:5a:7b:44:
         32:39:27:fb:cf:2f:84:90:2d:50:7d:7e:03:f0:c0:fd:e3:65:
         32:6b:6e:3d:64:92:52:df:99:f1:1d:52:0b:d1:82:4b:c8:dd:
         2d:d8:40:16:72:a1:64:99:5c:f5:d5:26:cb:29:55:8d:cd:5d:
         ba:da:33:9b:8f:f5:9e:20:fb:77:ba:bc:40:bc:3d:6e:97:db:
         45:de:38:fa:fd:eb:8b:ac:32:4f:cd:0c:33:f1:c4:1a:ca:c4:
         30:7d:14:ff:05:5a:61:37:dd:41:6e:e1:18:d4:44:a4:e3:4e:
         4d:58:a1:d4:e5:d9:5b:9b:7d:2d:eb:ef:e5:92:5c:e8:b7:fc:
         c5:34:28:19:fd:97:e4:05:af:26:a8:ae:84:fd:81:eb:da:ac:
         25:67:ae:2a:5e:81:73:fa:3f:b4:ea:f6:49:f1:90:af:cd:49:
         3d:70:6c:bf:dc:44:db:8f:39:01:2d:59:80:cc:c0:11:94:84:
         c2:2d:66:e9:8a:f2:be:28:b0:f7:38:42:76:e0:f1:22:e1:a2:
         7c:83:d5:b1:a4:d2:5d:28:5a:56:11:36:9e:eb:71:00:7c:a0:
         67:0f:5c:63:69:22:56:e2:df:d3:c6:75:70:02:5a:eb:ef:73:
         74:d9:24:03:ed:63:f7:71:97:bc:7e:43:a3:be:68:d3:54:1e:
         93:b7:a0:06:7b:d2:fb:cc:e7:db:ec:5f:09:f4:a5:f9:fe:c2:
         06:36:cf:a4:0f:4e:1f:52:d8:37:d1:ee:26:e1:d7:3d:64:06:
         4e:e5:7a:ae:6e:27:8b:e4:38:78:f9:27:41:5c:d4:c1:6d:a6:
         19:da:a6:9c:8a:7a:a4:06:12:10:73:21:5e:04:c9:aa:41:d8:
         92:34:1e:57:a9:fd:18:0c:5a:d0:03:96:26:ed:2e:90:76:50:
         5c:06:1e:19:3b:51:47:65:0c:68:8b:ac:3d:13:a4:a9:f2:4d:
         ec:06:d7:61:fc:ff:5c:43:79:81:e3:fc:fb:83:6c:bc:68:af:
         bf:78:f8:16:ab:81:01:7f:70:aa:d5:01:70:dd:1a:79:ca:32:
         e3:a8:14:3b:bb:c9:d7:86:0d:83:01:d4:70:fa:44:f3:af:a5:
         f2:80:49:c3:b2:f1:76:8a:bf:f9:20:cf:de:7a:ad:39:8b:fe:
         4b:c9:03:6e:b8:71:61:58:c1:8c:3c:70:55:89:75:4e:6c:9d:
         d9:00:2f:38:6e:39:ae:fe:97:a8:5b:00:d8:f1:34:28:0e:ef:
         b8:2f:aa:d2:4d:aa:66:c7:67:79:d0:fb:d1:86:ef:c0:1b:88:
         12:05:eb:53:4b:7f:bd:32
-----BEGIN CERTIFICATE-----
MIIGrTCCBJWgAwIBAgICGV4wDQYJKoZIhvcNAQEEBQAwgawxCzAJBgNVBAYTAlVT
MQswCQYDVQQIEwJPSDERMA8GA1UEBxMIQ29sdW1idXMxEjAQBgNVBAoTCVZpa2lu
Z1ZQTjEdMBsGA1UECxMUTXlPcmdhbml6YXRpb25hbFVuaXQxFTATBgNVBAMTDFZp
a2luZ1ZQTiBDQTEQMA4GA1UEKRMHRWFzeVJTQTEhMB8GCSqGSIb3DQEJARYSbWVA
bXlob3N0Lm15ZG9tYWluMB4XDTE1MTAxOTA1MzIzOVoXDTI1MTAxNjA1MzIzOVow
HzEdMBsGA1UEAxMUQ2xpZW50MTI4MkNlcnQ3Y2QwZGUwggIiMA0GCSqGSIb3DQEB
AQUAA4ICDwAwggIKAoICAQDa5CrYjKsjq1kZxIF48UYEit4HCCnJY6PNIuJQPMOq
NFZF1YhRvkZB12j4d6/0sTngiMVQlkNJxPZqoLwnmqh2wUmD7z4wRVNfcrMiLbZm
qW1BDBInb0aVQgZT05fz0bQ8gy8m+TFMYDmbJ/y3RLfIHoPHj8qWmLLcS/2JOjf2
D1Vl6sUP14DPw7PWPLOQYwjo/Ib0OOM1B5KLxqLwcV82+lElMtqnmiWZGNG+TIFd
e9+Hkb1YbNWZRpeX5QWRGWWPTYEUzflsIdmBfR/bCpPEhSaG1/6SFpegJCru14/S
BWdgI+gc1k1p0+lh8gll3jXjBDE88NyhCIwUVM2oXOuG0CP0jBiY5KrFMaS431ch
wUbrGZ+vuyO8RDLLVjHZ6/+HKGMWkg9zSE0ZL5XzdKx0NOrD49X1wXL/siRnsDRp
5zEzD+ps6F4PXTSEQpRl9e55cbbjnGbHW7slYHa79TVPsYnyQOhLxX8JZx24H371
0vlivVoEYdrm6LNkFMN+fz7z06Beq1eu4huTWMzAAUc1Fjd0CSn7aP+b9AIxxHJ5
oddRzGqZdiCazSIxALkNZvd4H8IDshHDDDivSTiiUn9kd4etvvhWOcmEUNrz2nBr
qIz1m3s0CpwDKDl3tT1K38ohKcrt+0A5u+lnZHXTRwmxAP77cVamvtPLVa9A9jDG
nwIDAQABo4IBYzCCAV8wCQYDVR0TBAIwADAtBglghkgBhvhCAQ0EIBYeRWFzeS1S
U0EgR2VuZXJhdGVkIENlcnRpZmljYXRlMB0GA1UdDgQWBBSwO8F3s6/0ss47tYPr
fdcBtZ+dNTCB4QYDVR0jBIHZMIHWgBQSzWAE0qCAnnDtxpm4eyzGUv0ZoaGBsqSB
rzCBrDELMAkGA1UEBhMCVVMxCzAJBgNVBAgTAk9IMREwDwYDVQQHEwhDb2x1bWJ1
czESMBAGA1UEChMJVmlraW5nVlBOMR0wGwYDVQQLExRNeU9yZ2FuaXphdGlvbmFs
VW5pdDEVMBMGA1UEAxMMVmlraW5nVlBOIENBMRAwDgYDVQQpEwdFYXN5UlNBMSEw
HwYJKoZIhvcNAQkBFhJtZUBteWhvc3QubXlkb21haW6CCQDPNYXugL8qPjATBgNV
HSUEDDAKBggrBgEFBQcDAjALBgNVHQ8EBAMCB4AwDQYJKoZIhvcNAQEEBQADggIB
ABqTEKcgCQRxszOQjAj75lp7RDI5J/vPL4SQLVB9fgPwwP3jZTJrbj1kklLfmfEd
UgvRgkvI3S3YQBZyoWSZXPXVJsspVY3NXbraM5uP9Z4g+3e6vEC8PW6X20XeOPr9
64usMk/NDDPxxBrKxDB9FP8FWmE33UFu4RjURKTjTk1YodTl2VubfS3r7+WSXOi3
/MU0KBn9l+QFryaoroT9gevarCVnripegXP6P7Tq9knxkK/NST1wbL/cRNuPOQEt
WYDMwBGUhMItZumK8r4osPc4Qnbg8SLhonyD1bGk0l0oWlYRNp7rcQB8oGcPXGNp
Ilbi39PGdXACWuvvc3TZJAPtY/dxl7x+Q6O+aNNUHpO3oAZ70vvM59vsXwn0pfn+
wgY2z6QPTh9S2DfR7ibh1z1kBk7leq5uJ4vkOHj5J0Fc1MFtphnappyKeqQGEhBz
IV4EyapB2JI0Hlep/RgMWtADlibtLpB2UFwGHhk7UUdlDGiLrD0TpKnyTewG12H8
/1xDeYHj/PuDbLxor794+BargQF/cKrVAXDdGnnKMuOoFDu7ydeGDYMB1HD6RPOv
pfKAScOy8XaKv/kgz956rTmL/kvJA264cWFYwYw8cFWJdU5sndkALzhuOa7+l6hb
ANjxNCgO77gvqtJNqmbHZ3nQ+9GG78AbiBIF61NLf70y
-----END CERTIFICATE-----
