Certificate:
    Data:
        Version: 3 (0x2)
        Serial Number: 8321 (0x2081)
    Signature Algorithm: md5WithRSAEncryption
        Issuer: C=US, ST=OH, L=Columbus, O=VikingVPN, OU=MyOrganizationalUnit, CN=VikingVPN CA/name=EasyRSA/emailAddress=me@myhost.mydomain
        Validity
            Not Before: Jun 20 10:03:25 2016 GMT
            Not After : Jun 18 10:03:25 2026 GMT
        Subject: CN=Client1702Certef748a
        Subject Public Key Info:
            Public Key Algorithm: rsaEncryption
                Public-Key: (4096 bit)
                Modulus:
                    00:d5:a3:1c:d4:fa:1c:25:6e:55:f3:10:79:1e:7a:
                    98:ab:74:8e:46:d4:a2:70:9f:72:b7:4f:bf:0a:74:
                    3b:f5:f9:da:00:fc:e7:07:ef:47:e2:92:b9:f8:c4:
                    33:e2:69:2b:f3:e8:99:a7:8b:ce:aa:a1:6a:6e:6f:
                    54:59:e3:08:54:ab:9b:4f:6e:57:0f:b1:7a:15:ce:
                    3c:75:4a:4b:3b:08:84:4c:dd:d0:51:33:a3:c7:91:
                    e3:9b:cd:46:58:3a:a1:65:67:f5:40:c7:18:3d:da:
                    bf:f8:2f:db:c7:b9:36:36:26:04:3d:01:6a:a6:ba:
                    b4:4d:59:24:68:ea:d0:6c:34:52:66:51:c5:b5:d4:
                    b5:a1:33:d0:29:98:2b:08:6f:d9:80:94:b1:d7:25:
                    2a:95:c9:20:e0:7d:44:b6:db:4f:2a:08:3b:5a:65:
                    0f:34:ca:94:48:89:6a:55:98:27:85:a2:a6:31:ee:
                    ee:70:d6:39:7d:9b:e2:a7:c1:ca:ae:c0:34:87:98:
                    eb:e6:cf:30:c9:45:6d:2e:6b:34:ae:86:f0:85:47:
                    04:b5:10:6d:61:80:9c:bd:46:51:ac:69:06:dc:82:
                    66:10:de:10:f0:2a:ac:29:18:a9:77:0b:eb:86:59:
                    06:50:12:c1:64:fd:75:da:ae:f6:4d:37:25:2d:69:
                    08:3a:ac:19:47:fd:d0:af:5d:03:cc:0c:cc:f2:ec:
                    8f:94:f3:80:e8:53:93:0f:76:48:4b:a0:a3:6e:50:
                    56:69:e8:2b:80:27:65:1f:1a:a2:d3:e2:eb:1f:80:
                    ed:14:78:ff:23:1e:77:6f:b7:5f:9e:6b:69:fa:1e:
                    a0:dc:4c:0d:c3:d5:02:41:ee:19:ac:22:ee:69:46:
                    cc:73:34:fc:6d:c5:be:68:16:a5:66:57:24:f2:82:
                    be:4a:34:b5:8c:91:7b:f3:e4:e6:19:5c:5b:69:bb:
                    ac:6d:42:e8:ed:fe:6c:f0:3d:c0:15:f8:95:29:93:
                    85:8a:5f:05:9c:59:db:6b:6a:71:49:e0:84:c6:8b:
                    8b:b6:a8:9c:f6:7f:8c:54:7a:7b:ab:36:04:1d:74:
                    d2:5f:61:93:be:99:af:45:92:9b:8a:df:04:26:d8:
                    31:a2:f5:ed:23:c9:59:b5:e6:a1:67:d5:87:e6:49:
                    73:93:7a:fd:7c:86:b4:48:31:06:7b:61:e8:2d:4b:
                    f6:ac:f0:85:56:14:ef:9b:69:87:7b:d8:c0:a5:70:
                    a0:7a:37:65:36:4e:ad:2d:a8:1e:3c:75:e2:86:8a:
                    f3:47:88:ce:bc:45:42:10:23:d7:14:04:72:4a:7c:
                    d0:18:2c:4b:85:0c:56:0e:1c:98:e1:53:7d:12:1d:
                    e4:5f:13
                Exponent: 65537 (0x10001)
        X509v3 extensions:
            X509v3 Basic Constraints: 
                CA:FALSE
            Netscape Comment: 
                Easy-RSA Generated Certificate
            X509v3 Subject Key Identifier: 
                6C:AC:5F:52:13:33:C1:DC:0F:DD:B7:82:F4:EF:85:6F:CA:55:2D:27
            X509v3 Authority Key Identifier: 
                keyid:12:CD:60:04:D2:A0:80:9E:70:ED:C6:99:B8:7B:2C:C6:52:FD:19:A1
                DirName:/C=US/ST=OH/L=Columbus/O=VikingVPN/OU=MyOrganizationalUnit/CN=VikingVPN CA/name=EasyRSA/emailAddress=me@myhost.mydomain
                serial:CF:35:85:EE:80:BF:2A:3E

            X509v3 Extended Key Usage: 
                TLS Web Client Authentication
            X509v3 Key Usage: 
                Digital Signature
    Signature Algorithm: md5WithRSAEncryption
         ba:5c:1e:e9:62:39:24:92:9f:76:b4:ae:29:9e:92:9d:cb:f3:
         bf:98:1d:e3:e1:73:ed:c3:7a:9d:5b:31:1e:0a:5b:7b:dc:f9:
         28:03:7f:5b:f8:c9:4d:f1:55:9f:30:10:b7:f8:cd:85:a1:bb:
         9a:e0:af:47:da:ca:99:b5:83:de:8f:a3:b1:f9:be:f5:a6:10:
         f4:72:ec:87:f8:d5:20:8f:f5:f1:c9:8e:cc:60:9b:43:9f:34:
         e5:82:a4:0d:a7:db:ff:d5:7d:41:18:9c:67:fe:66:fd:ac:a0:
         1a:44:2c:6d:65:cc:5a:6c:3b:f2:3b:a0:e4:5d:16:20:b7:38:
         00:c1:cb:fa:a5:28:7f:89:21:d6:98:11:ec:0a:76:9f:49:3d:
         25:1f:a0:a1:c0:49:e2:c6:14:19:1c:08:4c:77:9a:d9:82:e8:
         ac:73:9f:13:f1:6a:8b:59:7b:5e:9c:1b:f7:3f:f0:22:51:1b:
         a6:98:10:9e:df:77:f1:b2:a9:a7:c0:5d:d7:48:76:8e:43:48:
         73:db:14:ff:c9:e8:d5:3c:99:f2:b8:e0:b0:dc:48:42:61:53:
         c0:a9:5a:03:bf:ce:dd:d7:48:94:e8:05:5d:2e:53:c4:49:2a:
         80:ef:3c:71:df:00:f3:d1:2b:e3:83:5f:60:a0:2c:28:6d:38:
         a6:a5:be:63:ff:97:fc:2e:44:6e:58:4f:6c:25:19:47:95:e3:
         47:3a:55:15:da:27:83:3c:2a:c3:d6:3e:8b:d9:d6:2c:21:13:
         f1:b5:34:a7:33:cc:03:95:2f:4d:2b:e5:d3:b3:58:74:e9:14:
         02:29:d6:4a:8f:b2:d4:d7:32:32:7b:61:f1:d7:80:f4:64:86:
         04:0d:f4:96:c9:8e:2b:29:cc:ee:68:f3:a1:a1:ef:67:b4:a9:
         58:f3:98:13:51:5b:79:05:c5:90:2a:c5:54:ab:18:48:64:fc:
         b4:2a:10:75:75:73:4d:91:5d:c9:ed:a5:fe:27:c0:92:03:88:
         4b:70:1c:c8:b9:07:d9:c4:a6:39:d3:01:07:a2:02:b8:33:46:
         28:4c:32:a4:2f:6a:97:25:28:94:c7:29:b4:3b:82:03:2d:cd:
         ed:15:e2:92:d3:18:2b:bd:fd:01:98:0f:0a:06:99:0d:1a:33:
         d8:de:6b:d0:6f:11:a5:93:41:c2:1a:92:5a:e3:77:65:9b:1d:
         fb:23:88:66:54:91:a4:ca:68:2a:47:d3:83:fa:e2:88:00:53:
         c1:2f:25:3c:6d:22:24:df:ca:26:e0:75:f3:bb:17:e8:48:85:
         52:1a:09:09:30:ba:2a:2f:83:0a:66:bb:0a:9c:0f:6c:f5:b9:
         c9:70:ec:30:74:b8:ad:7b
-----BEGIN CERTIFICATE-----
MIIGrTCCBJWgAwIBAgICIIEwDQYJKoZIhvcNAQEEBQAwgawxCzAJBgNVBAYTAlVT
MQswCQYDVQQIEwJPSDERMA8GA1UEBxMIQ29sdW1idXMxEjAQBgNVBAoTCVZpa2lu
Z1ZQTjEdMBsGA1UECxMUTXlPcmdhbml6YXRpb25hbFVuaXQxFTATBgNVBAMTDFZp
a2luZ1ZQTiBDQTEQMA4GA1UEKRMHRWFzeVJTQTEhMB8GCSqGSIb3DQEJARYSbWVA
bXlob3N0Lm15ZG9tYWluMB4XDTE2MDYyMDEwMDMyNVoXDTI2MDYxODEwMDMyNVow
HzEdMBsGA1UEAxMUQ2xpZW50MTcwMkNlcnRlZjc0OGEwggIiMA0GCSqGSIb3DQEB
AQUAA4ICDwAwggIKAoICAQDVoxzU+hwlblXzEHkeepirdI5G1KJwn3K3T78KdDv1
+doA/OcH70fikrn4xDPiaSvz6Jmni86qoWpub1RZ4whUq5tPblcPsXoVzjx1Sks7
CIRM3dBRM6PHkeObzUZYOqFlZ/VAxxg92r/4L9vHuTY2JgQ9AWqmurRNWSRo6tBs
NFJmUcW11LWhM9ApmCsIb9mAlLHXJSqVySDgfUS2208qCDtaZQ80ypRIiWpVmCeF
oqYx7u5w1jl9m+KnwcquwDSHmOvmzzDJRW0uazSuhvCFRwS1EG1hgJy9RlGsaQbc
gmYQ3hDwKqwpGKl3C+uGWQZQEsFk/XXarvZNNyUtaQg6rBlH/dCvXQPMDMzy7I+U
84DoU5MPdkhLoKNuUFZp6CuAJ2UfGqLT4usfgO0UeP8jHndvt1+ea2n6HqDcTA3D
1QJB7hmsIu5pRsxzNPxtxb5oFqVmVyTygr5KNLWMkXvz5OYZXFtpu6xtQujt/mzw
PcAV+JUpk4WKXwWcWdtranFJ4ITGi4u2qJz2f4xUenurNgQddNJfYZO+ma9FkpuK
3wQm2DGi9e0jyVm15qFn1YfmSXOTev18hrRIMQZ7YegtS/as8IVWFO+baYd72MCl
cKB6N2U2Tq0tqB48deKGivNHiM68RUIQI9cUBHJKfNAYLEuFDFYOHJjhU30SHeRf
EwIDAQABo4IBYzCCAV8wCQYDVR0TBAIwADAtBglghkgBhvhCAQ0EIBYeRWFzeS1S
U0EgR2VuZXJhdGVkIENlcnRpZmljYXRlMB0GA1UdDgQWBBRsrF9SEzPB3A/dt4L0
74VvylUtJzCB4QYDVR0jBIHZMIHWgBQSzWAE0qCAnnDtxpm4eyzGUv0ZoaGBsqSB
rzCBrDELMAkGA1UEBhMCVVMxCzAJBgNVBAgTAk9IMREwDwYDVQQHEwhDb2x1bWJ1
czESMBAGA1UEChMJVmlraW5nVlBOMR0wGwYDVQQLExRNeU9yZ2FuaXphdGlvbmFs
VW5pdDEVMBMGA1UEAxMMVmlraW5nVlBOIENBMRAwDgYDVQQpEwdFYXN5UlNBMSEw
HwYJKoZIhvcNAQkBFhJtZUBteWhvc3QubXlkb21haW6CCQDPNYXugL8qPjATBgNV
HSUEDDAKBggrBgEFBQcDAjALBgNVHQ8EBAMCB4AwDQYJKoZIhvcNAQEEBQADggIB
ALpcHuliOSSSn3a0rimekp3L87+YHePhc+3Dep1bMR4KW3vc+SgDf1v4yU3xVZ8w
ELf4zYWhu5rgr0faypm1g96Po7H5vvWmEPRy7If41SCP9fHJjsxgm0OfNOWCpA2n
2//VfUEYnGf+Zv2soBpELG1lzFpsO/I7oORdFiC3OADBy/qlKH+JIdaYEewKdp9J
PSUfoKHASeLGFBkcCEx3mtmC6KxznxPxaotZe16cG/c/8CJRG6aYEJ7fd/GyqafA
XddIdo5DSHPbFP/J6NU8mfK44LDcSEJhU8CpWgO/zt3XSJToBV0uU8RJKoDvPHHf
APPRK+ODX2CgLChtOKalvmP/l/wuRG5YT2wlGUeV40c6VRXaJ4M8KsPWPovZ1iwh
E/G1NKczzAOVL00r5dOzWHTpFAIp1kqPstTXMjJ7YfHXgPRkhgQN9JbJjispzO5o
86Gh72e0qVjzmBNRW3kFxZAqxVSrGEhk/LQqEHV1c02RXcntpf4nwJIDiEtwHMi5
B9nEpjnTAQeiArgzRihMMqQvapclKJTHKbQ7ggMtze0V4pLTGCu9/QGYDwoGmQ0a
M9jea9BvEaWTQcIaklrjd2WbHfsjiGZUkaTKaCpH04P64ogAU8EvJTxtIiTfyibg
dfO7F+hIhVIaCQkwuiovgwpmuwqcD2z1uclw7DB0uK17
-----END CERTIFICATE-----
