Certificate:
    Data:
        Version: 3 (0x2)
        Serial Number: 2970 (0xb9a)
    Signature Algorithm: md5WithRSAEncryption
        Issuer: C=US, ST=OH, L=Columbus, O=VikingVPN, OU=MyOrganizationalUnit, CN=VikingVPN CA/name=EasyRSA/emailAddress=me@myhost.mydomain
        Validity
            Not Before: Sep 26 16:00:50 2014 GMT
            Not After : Sep 23 16:00:50 2024 GMT
        Subject: CN=Client1019Certe97d93
        Subject Public Key Info:
            Public Key Algorithm: rsaEncryption
                Public-Key: (4096 bit)
                Modulus:
                    00:d7:85:1b:99:ee:73:67:57:ef:5c:7f:b0:37:40:
                    e4:fa:01:d6:d2:47:d4:ce:ef:3e:15:77:cd:5c:07:
                    f6:6f:94:23:05:77:f0:0b:0d:9f:81:1a:ca:e4:fb:
                    b3:e5:e5:86:c1:a1:4f:fc:db:82:33:b3:6a:11:b3:
                    3c:f2:72:41:cd:e6:67:9f:76:cb:68:e2:70:46:88:
                    b2:33:f1:43:31:a6:5b:5c:d1:a7:39:88:01:8a:5e:
                    04:4e:b8:db:68:46:1e:9a:3d:90:c6:c3:b2:c1:ad:
                    ed:d0:8e:8a:35:a0:73:75:aa:cc:44:3f:04:73:72:
                    6f:6e:9c:1c:74:4c:94:c0:fc:b5:ba:29:65:7c:c0:
                    77:2b:b4:f6:28:71:3a:b6:b3:0a:29:08:f6:16:13:
                    e6:70:3e:bf:0b:1e:df:c0:89:30:20:ac:58:bc:9e:
                    14:5d:d6:06:1e:2b:87:1b:f8:a7:41:bf:c8:7a:09:
                    e2:fa:e1:15:99:45:30:f0:a6:84:4b:ae:99:4a:7b:
                    79:94:32:6a:ad:92:fb:6e:e0:66:bd:0c:45:e1:bc:
                    f3:e2:e7:e2:3a:9b:29:98:ff:bf:7a:20:c1:fc:77:
                    2c:ee:ec:b8:fc:2f:09:51:4f:fb:dc:e1:74:85:97:
                    78:73:d8:69:30:b8:9e:a2:f8:ab:ca:87:db:77:a6:
                    76:7c:26:c0:e5:f4:ad:e0:21:7d:d7:f1:11:90:e3:
                    12:a5:be:27:c2:0c:01:6b:d6:15:10:aa:52:a0:9c:
                    e1:d1:41:b5:dd:56:90:41:c7:d0:e2:07:a4:ae:18:
                    9b:a3:4a:cf:98:12:51:79:de:d3:22:72:b6:2c:32:
                    2f:b9:c7:f6:82:47:a4:6f:d9:68:3d:e4:a4:08:32:
                    2f:8b:2e:c7:6b:81:4b:5a:53:0a:4a:10:b3:33:cc:
                    07:24:5f:f7:0e:2b:9d:c4:a0:b6:09:7b:af:8a:29:
                    d5:f3:86:37:f9:24:48:69:c7:41:2c:2a:15:2a:b2:
                    27:84:3b:93:21:0c:66:5e:ed:69:ed:18:dd:58:ac:
                    0c:63:58:31:54:fc:24:ec:73:57:9d:18:d9:40:ba:
                    fe:54:dd:fe:de:36:1a:ec:88:f6:c3:ec:c1:a5:ed:
                    26:cc:86:37:c1:fe:6c:8b:d4:5d:2d:0a:3a:bf:43:
                    5b:f3:99:94:85:db:b2:ff:22:f7:f9:70:04:f8:e9:
                    65:a3:78:5b:25:7f:a5:95:4a:92:a4:8a:e8:e4:1d:
                    1e:07:ff:3f:7f:b4:c4:ee:7e:33:5e:e0:a1:9e:d4:
                    71:61:84:0f:2d:b8:32:f1:c4:c5:09:85:44:80:c5:
                    f6:d7:28:24:9e:c5:a5:4f:7d:55:22:53:62:05:f3:
                    60:a9:6d
                Exponent: 65537 (0x10001)
        X509v3 extensions:
            X509v3 Basic Constraints: 
                CA:FALSE
            Netscape Comment: 
                Easy-RSA Generated Certificate
            X509v3 Subject Key Identifier: 
                41:74:3C:9F:FF:E5:29:FE:DD:8C:69:F3:D0:6A:ED:FE:F3:38:41:4B
            X509v3 Authority Key Identifier: 
                keyid:12:CD:60:04:D2:A0:80:9E:70:ED:C6:99:B8:7B:2C:C6:52:FD:19:A1
                DirName:/C=US/ST=OH/L=Columbus/O=VikingVPN/OU=MyOrganizationalUnit/CN=VikingVPN CA/name=EasyRSA/emailAddress=me@myhost.mydomain
                serial:CF:35:85:EE:80:BF:2A:3E

            X509v3 Extended Key Usage: 
                TLS Web Client Authentication
            X509v3 Key Usage: 
                Digital Signature
    Signature Algorithm: md5WithRSAEncryption
         35:f1:9a:91:89:f8:aa:94:6b:98:95:21:a0:d2:37:dc:9f:07:
         eb:44:bd:5e:1b:77:07:85:11:1e:fb:b6:09:e0:a2:61:55:6d:
         9a:2f:b0:18:7c:43:84:c1:10:2a:fc:cc:37:99:c6:5e:02:a2:
         4a:bd:38:cc:b6:8d:3e:27:38:8a:1f:f3:14:9b:b8:e6:43:ba:
         0d:d6:1f:a0:c1:79:99:f8:bf:51:d5:1e:b7:3f:cb:9e:7c:7a:
         37:6f:5a:7a:d1:d4:0d:80:76:4b:b5:9b:c6:f0:09:df:05:49:
         0b:c0:99:2f:ea:43:60:9a:c8:d3:ab:7b:57:68:04:10:d6:6f:
         6f:31:37:37:32:6d:a0:fc:d3:35:c7:90:56:02:a3:e1:f7:83:
         42:5a:7c:d4:fe:94:4f:51:98:42:7f:1b:1f:be:39:ed:e3:d0:
         83:20:42:65:95:6a:e4:a0:6d:08:9e:e7:cb:dc:dd:72:4e:f3:
         c0:1d:25:87:57:fc:87:81:88:bf:6d:9b:bd:a1:7b:68:a4:f2:
         b5:ad:46:56:ba:f9:12:6d:25:9a:02:36:8a:19:0d:dd:d7:35:
         8f:63:39:5f:21:34:e8:51:08:f4:74:03:db:d7:b8:03:94:20:
         fd:eb:f8:48:e8:11:dc:b5:30:fb:2a:0d:60:68:73:40:23:a9:
         dc:48:b5:9c:ce:26:c3:9a:1e:6f:f0:bd:76:2e:da:7d:4d:8c:
         50:6a:df:cd:22:02:ec:6d:12:69:1f:0b:a7:37:28:36:a1:e0:
         aa:cd:7c:36:df:bd:c3:9e:c4:30:4c:85:a6:a0:48:da:a9:07:
         58:f7:3c:db:38:06:6b:15:79:2f:20:fa:df:e0:f0:fc:38:40:
         ab:8c:41:dd:ab:70:a8:02:64:3d:09:57:db:93:f9:78:91:00:
         76:41:d8:4c:36:06:2f:68:2c:8a:a0:3d:8e:f7:ea:ba:bc:f1:
         cf:6e:16:90:40:3d:43:fd:05:6d:19:16:63:14:69:ed:81:cd:
         48:f3:02:81:d9:9c:89:77:a4:eb:d2:18:65:bf:d6:3e:d3:99:
         75:6d:cd:34:49:ca:36:7f:cc:98:98:80:1d:78:09:3c:ec:f7:
         d2:ab:88:be:27:20:25:aa:82:e8:49:4a:b1:da:07:0f:01:25:
         ea:7a:48:f4:da:70:13:7e:ae:6f:b5:ec:3e:06:ed:02:d5:fc:
         2c:03:81:a3:7d:cc:b3:a3:09:01:e2:1e:10:d3:ae:36:c5:f0:
         eb:9e:1d:39:ae:1c:97:1d:1f:f5:f1:eb:22:f1:36:7d:f0:bf:
         f8:37:93:ca:c3:b2:3d:01:39:32:ba:a9:6f:23:48:2a:46:f7:
         05:20:ac:04:70:9b:6e:03
-----BEGIN CERTIFICATE-----
MIIGrTCCBJWgAwIBAgICC5owDQYJKoZIhvcNAQEEBQAwgawxCzAJBgNVBAYTAlVT
MQswCQYDVQQIEwJPSDERMA8GA1UEBxMIQ29sdW1idXMxEjAQBgNVBAoTCVZpa2lu
Z1ZQTjEdMBsGA1UECxMUTXlPcmdhbml6YXRpb25hbFVuaXQxFTATBgNVBAMTDFZp
a2luZ1ZQTiBDQTEQMA4GA1UEKRMHRWFzeVJTQTEhMB8GCSqGSIb3DQEJARYSbWVA
bXlob3N0Lm15ZG9tYWluMB4XDTE0MDkyNjE2MDA1MFoXDTI0MDkyMzE2MDA1MFow
HzEdMBsGA1UEAxMUQ2xpZW50MTAxOUNlcnRlOTdkOTMwggIiMA0GCSqGSIb3DQEB
AQUAA4ICDwAwggIKAoICAQDXhRuZ7nNnV+9cf7A3QOT6AdbSR9TO7z4Vd81cB/Zv
lCMFd/ALDZ+BGsrk+7Pl5YbBoU/824Izs2oRszzyckHN5mefdsto4nBGiLIz8UMx
pltc0ac5iAGKXgROuNtoRh6aPZDGw7LBre3Qjoo1oHN1qsxEPwRzcm9unBx0TJTA
/LW6KWV8wHcrtPYocTq2swopCPYWE+ZwPr8LHt/AiTAgrFi8nhRd1gYeK4cb+KdB
v8h6CeL64RWZRTDwpoRLrplKe3mUMmqtkvtu4Ga9DEXhvPPi5+I6mymY/796IMH8
dyzu7Lj8LwlRT/vc4XSFl3hz2GkwuJ6i+KvKh9t3pnZ8JsDl9K3gIX3X8RGQ4xKl
vifCDAFr1hUQqlKgnOHRQbXdVpBBx9DiB6SuGJujSs+YElF53tMicrYsMi+5x/aC
R6Rv2Wg95KQIMi+LLsdrgUtaUwpKELMzzAckX/cOK53EoLYJe6+KKdXzhjf5JEhp
x0EsKhUqsieEO5MhDGZe7WntGN1YrAxjWDFU/CTsc1edGNlAuv5U3f7eNhrsiPbD
7MGl7SbMhjfB/myL1F0tCjq/Q1vzmZSF27L/Ivf5cAT46WWjeFslf6WVSpKkiujk
HR4H/z9/tMTufjNe4KGe1HFhhA8tuDLxxMUJhUSAxfbXKCSexaVPfVUiU2IF82Cp
bQIDAQABo4IBYzCCAV8wCQYDVR0TBAIwADAtBglghkgBhvhCAQ0EIBYeRWFzeS1S
U0EgR2VuZXJhdGVkIENlcnRpZmljYXRlMB0GA1UdDgQWBBRBdDyf/+Up/t2MafPQ
au3+8zhBSzCB4QYDVR0jBIHZMIHWgBQSzWAE0qCAnnDtxpm4eyzGUv0ZoaGBsqSB
rzCBrDELMAkGA1UEBhMCVVMxCzAJBgNVBAgTAk9IMREwDwYDVQQHEwhDb2x1bWJ1
czESMBAGA1UEChMJVmlraW5nVlBOMR0wGwYDVQQLExRNeU9yZ2FuaXphdGlvbmFs
VW5pdDEVMBMGA1UEAxMMVmlraW5nVlBOIENBMRAwDgYDVQQpEwdFYXN5UlNBMSEw
HwYJKoZIhvcNAQkBFhJtZUBteWhvc3QubXlkb21haW6CCQDPNYXugL8qPjATBgNV
HSUEDDAKBggrBgEFBQcDAjALBgNVHQ8EBAMCB4AwDQYJKoZIhvcNAQEEBQADggIB
ADXxmpGJ+KqUa5iVIaDSN9yfB+tEvV4bdweFER77tgngomFVbZovsBh8Q4TBECr8
zDeZxl4Cokq9OMy2jT4nOIof8xSbuOZDug3WH6DBeZn4v1HVHrc/y558ejdvWnrR
1A2Adku1m8bwCd8FSQvAmS/qQ2CayNOre1doBBDWb28xNzcybaD80zXHkFYCo+H3
g0JafNT+lE9RmEJ/Gx++Oe3j0IMgQmWVauSgbQie58vc3XJO88AdJYdX/IeBiL9t
m72he2ik8rWtRla6+RJtJZoCNooZDd3XNY9jOV8hNOhRCPR0A9vXuAOUIP3r+Ejo
Edy1MPsqDWBoc0AjqdxItZzOJsOaHm/wvXYu2n1NjFBq380iAuxtEmkfC6c3KDah
4KrNfDbfvcOexDBMhaagSNqpB1j3PNs4BmsVeS8g+t/g8Pw4QKuMQd2rcKgCZD0J
V9uT+XiRAHZB2Ew2Bi9oLIqgPY736rq88c9uFpBAPUP9BW0ZFmMUae2BzUjzAoHZ
nIl3pOvSGGW/1j7TmXVtzTRJyjZ/zJiYgB14CTzs99KriL4nICWqguhJSrHaBw8B
Jep6SPTacBN+rm+17D4G7QLV/CwDgaN9zLOjCQHiHhDTrjbF8OueHTmuHJcdH/Xx
6yLxNn3wv/g3k8rDsj0BOTK6qW8jSCpG9wUgrARwm24D
-----END CERTIFICATE-----
