Certificate:
    Data:
        Version: 3 (0x2)
        Serial Number: 2067 (0x813)
    Signature Algorithm: md5WithRSAEncryption
        Issuer: C=US, ST=OH, L=Columbus, O=VikingVPN, OU=MyOrganizationalUnit, CN=VikingVPN CA/name=EasyRSA/emailAddress=me@myhost.mydomain
        Validity
            Not Before: Jun 11 08:24:26 2014 GMT
            Not After : Jun  8 08:24:26 2024 GMT
        Subject: CN=Client380Cert4dda7b
        Subject Public Key Info:
            Public Key Algorithm: rsaEncryption
                Public-Key: (4096 bit)
                Modulus:
                    00:ea:e9:48:29:b9:44:4a:fe:b5:3f:ab:c7:e9:8d:
                    fa:eb:4c:ae:04:5e:57:2b:e5:b9:dc:1c:21:9e:bb:
                    7c:a3:1d:30:72:4a:09:d3:44:9e:99:ba:f6:9c:cf:
                    0c:f6:d8:c2:ad:b0:5a:8d:0a:81:39:fc:eb:65:95:
                    c1:82:f5:af:21:e4:29:98:9a:fb:c7:cb:a0:87:1c:
                    f7:7a:ea:e2:0c:77:5f:4c:43:b8:73:c8:77:21:e6:
                    a2:c2:0c:23:97:90:91:b9:e6:91:c0:99:ea:92:21:
                    f9:21:1a:d2:6e:1f:88:0d:84:03:6a:fd:04:8d:4e:
                    29:ea:97:46:31:a6:2b:82:34:e5:9e:ad:b0:e1:23:
                    b6:00:60:21:86:81:61:2f:99:80:f5:e9:97:df:b4:
                    f5:e5:b4:cb:ab:81:fe:18:ec:63:4c:e7:96:9f:04:
                    ca:a2:bb:66:f2:ad:50:8c:bb:44:70:d4:ff:86:87:
                    43:e2:ed:08:ef:4d:e6:e4:5e:8a:fc:62:c4:51:0f:
                    13:39:06:35:1e:7e:f2:45:2a:3f:92:e1:dd:2b:97:
                    c7:88:99:75:13:1e:9b:b8:58:fb:a5:a6:bc:5a:f1:
                    b3:a6:60:2d:2e:fa:9d:bf:26:6b:7f:1b:fa:3d:85:
                    39:13:e7:1f:c3:de:5f:4e:53:89:ef:98:21:93:d1:
                    97:d0:62:5e:86:c2:02:80:3f:ee:66:e3:9c:94:58:
                    01:00:af:38:d3:cd:4f:1f:51:e4:2f:a4:f9:4f:6b:
                    5f:66:bb:50:94:63:77:b4:06:44:37:18:6c:90:02:
                    c1:8d:82:92:27:71:5a:70:ea:ad:5d:99:14:6c:c3:
                    93:0e:f2:c0:ad:29:8a:e8:fd:8a:81:41:5b:54:60:
                    2d:7d:21:9e:b4:f7:7f:df:e7:94:b7:d1:56:1c:3c:
                    3b:4d:89:99:84:d4:57:f5:12:ec:12:86:99:7e:69:
                    06:2e:60:1c:7d:ed:67:0f:1a:35:d9:a1:96:7b:db:
                    3e:3f:ba:ff:74:91:08:73:67:26:ef:e4:1d:04:3a:
                    4b:3b:95:50:c5:5e:84:bb:90:e9:35:6c:6a:cd:f5:
                    cc:7c:f0:5d:53:e2:34:0b:72:72:c4:22:98:b0:fb:
                    a9:87:0d:01:24:2c:75:bb:1d:24:d7:25:59:8c:97:
                    47:5e:f2:5e:1c:67:6c:43:c2:87:fe:c9:e2:5c:b4:
                    cf:90:c5:6b:54:ac:d1:51:ad:23:5f:e5:49:19:b7:
                    84:7d:2e:62:a5:01:7a:62:7c:ee:98:1d:b9:78:56:
                    93:68:1b:28:ef:f4:e3:4a:c4:75:8e:f7:99:89:28:
                    89:c0:c0:19:50:d3:e7:3c:67:50:67:b8:d1:98:a6:
                    1c:93:73
                Exponent: 65537 (0x10001)
        X509v3 extensions:
            X509v3 Basic Constraints: 
                CA:FALSE
            Netscape Comment: 
                Easy-RSA Generated Certificate
            X509v3 Subject Key Identifier: 
                AB:43:0D:18:EE:C2:10:92:A5:55:7F:A2:BD:C9:BB:C6:55:B3:E3:49
            X509v3 Authority Key Identifier: 
                keyid:12:CD:60:04:D2:A0:80:9E:70:ED:C6:99:B8:7B:2C:C6:52:FD:19:A1
                DirName:/C=US/ST=OH/L=Columbus/O=VikingVPN/OU=MyOrganizationalUnit/CN=VikingVPN CA/name=EasyRSA/emailAddress=me@myhost.mydomain
                serial:CF:35:85:EE:80:BF:2A:3E

            X509v3 Extended Key Usage: 
                TLS Web Client Authentication
            X509v3 Key Usage: 
                Digital Signature
    Signature Algorithm: md5WithRSAEncryption
         64:53:cb:a6:11:2f:c7:ea:df:63:3d:79:c7:d0:4a:93:b3:2f:
         9d:2f:40:9f:38:26:af:1a:36:6b:e5:5b:dc:ae:2f:90:27:65:
         5d:21:5e:13:4e:00:4d:4b:ec:85:1a:41:72:89:f5:d6:32:43:
         93:68:d4:a8:b6:ea:dd:fb:49:5d:a7:41:d8:a9:17:a6:a2:b6:
         ae:57:37:98:d5:2c:04:d1:1a:ce:cb:0c:86:f2:91:9c:2e:a8:
         80:35:27:29:91:5d:3e:49:26:c9:0c:f9:1e:a4:08:bf:01:8f:
         3e:3f:83:9e:82:27:18:bf:6f:c3:0a:56:8b:99:3d:54:63:34:
         00:d1:79:e2:87:59:c0:1d:24:09:71:f4:9d:e3:3a:63:cd:93:
         02:05:57:51:9f:6f:6d:ef:17:fb:a9:af:b5:b7:2a:78:9d:9d:
         2b:08:a1:3b:2c:f7:8b:49:37:89:cc:4b:58:71:2e:73:af:61:
         4e:e1:4c:b5:1a:a9:87:3f:a7:3a:2c:d9:c4:cd:e6:31:79:78:
         63:3e:bf:3d:3b:de:8d:7a:f7:de:66:69:f3:d6:d6:1c:81:ed:
         26:6e:e5:7b:c1:58:f1:1c:43:04:14:c6:75:17:de:35:33:7f:
         21:69:d3:58:58:9f:2d:74:45:61:9a:ec:8e:83:3f:d5:34:b6:
         07:3d:68:d9:e6:87:d9:dd:46:3b:33:62:cc:b3:e7:0a:46:ba:
         6c:b3:7b:c1:42:99:c5:92:fb:c3:42:a3:5a:c8:56:9f:26:c3:
         2e:25:4a:10:3f:ab:16:3d:c0:ea:ba:22:bf:aa:7e:0f:00:ef:
         8e:58:86:72:a2:88:8d:51:c7:20:e5:55:75:01:d4:8d:0d:31:
         13:08:97:75:16:71:77:0e:8e:2a:1b:56:01:c0:79:bc:74:cc:
         93:4a:24:51:02:ea:f9:0b:5f:a3:e3:35:2a:34:23:65:1c:84:
         08:05:6e:a2:04:c1:cc:4a:bb:00:f3:8c:03:ca:f8:22:d1:0d:
         ac:34:bc:a5:0e:34:12:27:64:98:df:2f:80:6b:a3:f2:91:4a:
         1a:ad:b6:37:0c:d6:7f:69:87:eb:95:c3:b9:a2:e3:37:6b:ec:
         9b:68:0d:4a:34:1c:56:ea:9d:5b:94:d6:e5:84:ba:3d:6d:bb:
         40:2d:ad:aa:9f:1f:60:c0:ad:5b:df:2a:91:4b:0c:a8:b4:e0:
         8b:75:ea:12:95:70:1b:ec:de:e9:1b:66:5f:fc:6c:bd:99:34:
         cc:65:e5:d1:91:47:f8:ec:ad:f6:f6:e7:74:f4:bc:81:29:65:
         33:27:c0:8d:91:53:a3:7a:26:c6:97:07:29:43:f9:e0:1a:bb:
         fa:cc:d6:5c:dc:98:42:77
-----BEGIN CERTIFICATE-----
MIIGrDCCBJSgAwIBAgICCBMwDQYJKoZIhvcNAQEEBQAwgawxCzAJBgNVBAYTAlVT
MQswCQYDVQQIEwJPSDERMA8GA1UEBxMIQ29sdW1idXMxEjAQBgNVBAoTCVZpa2lu
Z1ZQTjEdMBsGA1UECxMUTXlPcmdhbml6YXRpb25hbFVuaXQxFTATBgNVBAMTDFZp
a2luZ1ZQTiBDQTEQMA4GA1UEKRMHRWFzeVJTQTEhMB8GCSqGSIb3DQEJARYSbWVA
bXlob3N0Lm15ZG9tYWluMB4XDTE0MDYxMTA4MjQyNloXDTI0MDYwODA4MjQyNlow
HjEcMBoGA1UEAxMTQ2xpZW50MzgwQ2VydDRkZGE3YjCCAiIwDQYJKoZIhvcNAQEB
BQADggIPADCCAgoCggIBAOrpSCm5REr+tT+rx+mN+utMrgReVyvludwcIZ67fKMd
MHJKCdNEnpm69pzPDPbYwq2wWo0KgTn862WVwYL1ryHkKZia+8fLoIcc93rq4gx3
X0xDuHPIdyHmosIMI5eQkbnmkcCZ6pIh+SEa0m4fiA2EA2r9BI1OKeqXRjGmK4I0
5Z6tsOEjtgBgIYaBYS+ZgPXpl9+09eW0y6uB/hjsY0znlp8EyqK7ZvKtUIy7RHDU
/4aHQ+LtCO9N5uReivxixFEPEzkGNR5+8kUqP5Lh3SuXx4iZdRMem7hY+6WmvFrx
s6ZgLS76nb8ma38b+j2FORPnH8PeX05Tie+YIZPRl9BiXobCAoA/7mbjnJRYAQCv
ONPNTx9R5C+k+U9rX2a7UJRjd7QGRDcYbJACwY2CkidxWnDqrV2ZFGzDkw7ywK0p
iuj9ioFBW1RgLX0hnrT3f9/nlLfRVhw8O02JmYTUV/US7BKGmX5pBi5gHH3tZw8a
NdmhlnvbPj+6/3SRCHNnJu/kHQQ6SzuVUMVehLuQ6TVsas31zHzwXVPiNAtycsQi
mLD7qYcNASQsdbsdJNclWYyXR17yXhxnbEPCh/7J4ly0z5DFa1Ss0VGtI1/lSRm3
hH0uYqUBemJ87pgduXhWk2gbKO/040rEdY73mYkoicDAGVDT5zxnUGe40ZimHJNz
AgMBAAGjggFjMIIBXzAJBgNVHRMEAjAAMC0GCWCGSAGG+EIBDQQgFh5FYXN5LVJT
QSBHZW5lcmF0ZWQgQ2VydGlmaWNhdGUwHQYDVR0OBBYEFKtDDRjuwhCSpVV/or3J
u8ZVs+NJMIHhBgNVHSMEgdkwgdaAFBLNYATSoICecO3Gmbh7LMZS/RmhoYGypIGv
MIGsMQswCQYDVQQGEwJVUzELMAkGA1UECBMCT0gxETAPBgNVBAcTCENvbHVtYnVz
MRIwEAYDVQQKEwlWaWtpbmdWUE4xHTAbBgNVBAsTFE15T3JnYW5pemF0aW9uYWxV
bml0MRUwEwYDVQQDEwxWaWtpbmdWUE4gQ0ExEDAOBgNVBCkTB0Vhc3lSU0ExITAf
BgkqhkiG9w0BCQEWEm1lQG15aG9zdC5teWRvbWFpboIJAM81he6Avyo+MBMGA1Ud
JQQMMAoGCCsGAQUFBwMCMAsGA1UdDwQEAwIHgDANBgkqhkiG9w0BAQQFAAOCAgEA
ZFPLphEvx+rfYz15x9BKk7MvnS9Anzgmrxo2a+Vb3K4vkCdlXSFeE04ATUvshRpB
con11jJDk2jUqLbq3ftJXadB2KkXpqK2rlc3mNUsBNEazssMhvKRnC6ogDUnKZFd
PkkmyQz5HqQIvwGPPj+DnoInGL9vwwpWi5k9VGM0ANF54odZwB0kCXH0neM6Y82T
AgVXUZ9vbe8X+6mvtbcqeJ2dKwihOyz3i0k3icxLWHEuc69hTuFMtRqphz+nOizZ
xM3mMXl4Yz6/PTvejXr33mZp89bWHIHtJm7le8FY8RxDBBTGdRfeNTN/IWnTWFif
LXRFYZrsjoM/1TS2Bz1o2eaH2d1GOzNizLPnCka6bLN7wUKZxZL7w0KjWshWnybD
LiVKED+rFj3A6roiv6p+DwDvjliGcqKIjVHHIOVVdQHUjQ0xEwiXdRZxdw6OKhtW
AcB5vHTMk0okUQLq+Qtfo+M1KjQjZRyECAVuogTBzEq7APOMA8r4ItENrDS8pQ40
EidkmN8vgGuj8pFKGq22NwzWf2mH65XDuaLjN2vsm2gNSjQcVuqdW5TW5YS6PW27
QC2tqp8fYMCtW98qkUsMqLTgi3XqEpVwG+ze6RtmX/xsvZk0zGXl0ZFH+Oyt9vbn
dPS8gSllMyfAjZFTo3omxpcHKUP54Bq7+szWXNyYQnc=
-----END CERTIFICATE-----
