Certificate:
    Data:
        Version: 3 (0x2)
        Serial Number: 10555 (0x293b)
    Signature Algorithm: sha256WithRSAEncryption
        Issuer: C=US, ST=OH, L=Columbus, O=VikingVPN, OU=MyOrganizationalUnit, CN=VikingVPN CA/name=EasyRSA/emailAddress=me@myhost.mydomain
        Validity
            Not Before: Apr  5 21:53:21 2017 GMT
            Not After : Apr  3 21:53:21 2027 GMT
        Subject: CN=Client327Cert6c19c6
        Subject Public Key Info:
            Public Key Algorithm: rsaEncryption
                Public-Key: (4096 bit)
                Modulus:
                    00:db:96:63:f6:0b:7e:6a:dc:23:8d:47:70:39:6a:
                    ee:69:34:87:7d:1f:50:c5:16:72:9a:2d:0a:fd:ff:
                    26:e7:77:f7:45:30:ca:1f:dc:32:85:22:aa:50:27:
                    f2:7d:39:fa:d9:de:14:e0:74:1d:db:ab:32:1f:89:
                    cb:9f:4d:b7:98:a8:4f:fb:37:01:63:72:73:be:f2:
                    48:51:70:e8:03:58:16:98:c8:7c:35:0b:4b:a3:95:
                    5e:90:1e:c7:b8:90:3b:28:42:cd:39:72:e4:95:9f:
                    a1:bf:6e:4a:cb:fa:04:5c:ca:8e:c6:76:b4:7a:f0:
                    a2:5a:17:28:0a:4e:22:a1:2a:1f:37:37:f4:72:06:
                    8c:3b:e1:23:e3:f9:62:b2:23:b8:3c:72:96:b3:99:
                    79:51:d2:b8:51:de:71:0e:88:02:01:bf:8a:bf:d5:
                    cf:0d:7c:86:38:ec:60:73:e2:7a:3f:b0:c4:98:05:
                    20:20:ec:81:89:59:25:df:57:a8:f6:ad:b4:de:10:
                    fc:c9:19:20:19:0e:3c:27:50:da:16:79:a9:05:8b:
                    af:30:ef:93:7e:42:db:49:d0:f5:08:a2:da:8c:d0:
                    89:14:32:d2:dc:18:43:9a:eb:6b:4f:4e:65:2e:6c:
                    c0:6e:8c:31:a2:49:59:7b:96:2a:e4:10:15:34:13:
                    3b:76:27:f4:3e:54:7e:5e:a0:23:10:48:49:68:2a:
                    04:bb:da:47:60:e0:7c:d4:fd:dd:4f:01:43:9c:e0:
                    ed:5d:32:4e:f0:f5:9b:e8:80:61:94:5e:f1:05:84:
                    da:e0:98:84:f0:08:4a:3b:f2:03:a7:78:df:3e:ee:
                    68:36:a1:7a:a2:5b:10:36:c6:41:57:15:7f:4b:6e:
                    62:66:68:9f:a2:e5:b9:d8:23:1c:d5:ab:11:c8:fe:
                    ff:3d:c5:da:81:21:a8:dc:0e:57:a2:e9:c8:b0:07:
                    29:6b:e4:0a:b8:2c:1b:c2:28:a8:07:ca:44:61:8d:
                    af:2c:a2:ea:05:31:8e:2f:d4:cb:d9:3b:ff:14:a3:
                    b6:9f:61:b3:37:c5:a2:3d:0c:19:4e:ed:7e:63:ea:
                    ca:2d:d5:07:b3:84:1a:3d:85:65:14:58:46:f9:16:
                    99:15:6f:f2:ef:ba:14:75:ce:3f:b4:51:9c:8d:03:
                    bb:91:9c:87:d5:ec:ca:01:62:51:d2:86:02:c2:3c:
                    95:02:17:e1:81:32:4c:fd:5b:9b:28:a6:66:18:88:
                    65:4a:47:e5:72:9a:ae:a5:d8:e7:8f:64:58:b0:57:
                    34:a7:68:fc:ba:03:bd:22:b5:3b:02:71:d7:c3:97:
                    46:70:09:e5:9a:62:ed:7e:27:5d:d2:f7:64:67:0e:
                    d1:b9:91
                Exponent: 65537 (0x10001)
        X509v3 extensions:
            X509v3 Basic Constraints: 
                CA:FALSE
            Netscape Comment: 
                Easy-RSA Generated Certificate
            X509v3 Subject Key Identifier: 
                86:0B:F3:D8:04:AE:F6:B2:52:D9:5C:5C:9B:5F:9E:85:6D:98:18:B4
            X509v3 Authority Key Identifier: 
                keyid:12:CD:60:04:D2:A0:80:9E:70:ED:C6:99:B8:7B:2C:C6:52:FD:19:A1
                DirName:/C=US/ST=OH/L=Columbus/O=VikingVPN/OU=MyOrganizationalUnit/CN=VikingVPN CA/name=EasyRSA/emailAddress=me@myhost.mydomain
                serial:CF:35:85:EE:80:BF:2A:3E

            X509v3 Extended Key Usage: 
                TLS Web Client Authentication
            X509v3 Key Usage: 
                Digital Signature
    Signature Algorithm: sha256WithRSAEncryption
         48:31:da:63:41:dd:69:66:17:57:99:96:43:3e:51:b9:db:fc:
         b5:ce:3f:9e:41:bd:18:cc:43:b1:f0:11:42:1f:3d:40:c6:78:
         c7:5e:ad:47:35:4b:6d:d8:f1:cf:7f:9f:f9:3c:9f:11:6e:ee:
         52:4a:2d:85:ff:ef:af:95:f1:98:4d:41:01:ec:28:da:73:f8:
         8a:06:a2:fc:06:ad:96:58:ee:b7:53:f1:9d:77:ab:57:1e:42:
         ed:30:22:c3:6a:64:aa:02:d2:96:91:4b:b2:12:6c:45:e4:7c:
         25:1f:0c:88:1c:f0:25:bf:01:c3:47:f2:2b:5c:12:45:f1:df:
         d7:73:7b:02:24:7b:c4:80:d1:44:6f:48:c4:5c:d5:d7:0c:c0:
         00:b4:73:92:e5:31:ef:8d:92:3f:36:15:ba:aa:3c:6e:19:57:
         be:a6:e5:45:bc:ec:17:4c:b3:bf:99:44:1e:5c:9f:48:7c:4d:
         e1:b8:b7:49:74:df:b1:b2:96:bb:fa:80:71:80:ed:ca:1d:41:
         fa:47:c8:91:ad:10:41:d9:f9:83:10:94:36:ae:56:6c:f3:46:
         44:90:55:01:45:22:f1:1b:30:7b:18:28:e3:13:65:8c:c6:69:
         63:a7:e1:01:be:d3:d9:14:71:dc:56:3e:ae:f3:53:7f:b3:83:
         51:0d:0f:1a:65:b0:bc:88:73:09:ef:46:4b:76:c1:1a:7b:b5:
         34:c5:28:7e:c8:ac:5e:6a:04:6a:1c:e4:8f:c7:e0:03:02:6f:
         f2:05:99:c4:7f:a5:5a:1e:0a:25:de:1d:f1:6c:13:86:ee:61:
         fb:e1:dd:7e:6a:ea:7d:5a:ff:35:90:76:4a:71:14:61:7d:2e:
         0f:ea:c1:01:cc:99:63:cb:9b:cb:56:a7:9b:4c:95:55:a5:ff:
         f4:e0:9f:93:89:33:06:eb:98:b0:88:37:95:ce:c2:14:ab:8a:
         6b:7d:a6:bc:69:c3:e2:ef:60:0b:de:93:75:05:e8:8c:5b:c8:
         09:d6:34:14:1a:e8:b4:1c:43:e0:87:43:27:85:53:18:6c:7f:
         fd:a2:3e:01:d4:bc:e2:a3:72:be:e1:c9:5f:36:e5:bd:d2:33:
         02:df:6c:61:52:73:fa:bb:f1:e7:8d:bd:39:3b:ea:8d:e5:54:
         ff:c3:19:73:d6:a1:ad:38:fc:80:14:c2:5f:b9:cb:3f:27:27:
         c6:25:dc:20:22:0f:21:7c:c5:65:00:26:f7:90:4c:51:99:3f:
         1d:4f:d9:73:70:ee:8b:b2:08:f1:06:bd:32:fe:2a:e1:6a:fd:
         a5:d4:77:f8:6b:87:e7:1c:20:0b:7e:64:d0:b9:31:66:e7:47:
         4d:93:eb:c4:a7:42:cf:67
-----BEGIN CERTIFICATE-----
MIIGrDCCBJSgAwIBAgICKTswDQYJKoZIhvcNAQELBQAwgawxCzAJBgNVBAYTAlVT
MQswCQYDVQQIEwJPSDERMA8GA1UEBxMIQ29sdW1idXMxEjAQBgNVBAoTCVZpa2lu
Z1ZQTjEdMBsGA1UECxMUTXlPcmdhbml6YXRpb25hbFVuaXQxFTATBgNVBAMTDFZp
a2luZ1ZQTiBDQTEQMA4GA1UEKRMHRWFzeVJTQTEhMB8GCSqGSIb3DQEJARYSbWVA
bXlob3N0Lm15ZG9tYWluMB4XDTE3MDQwNTIxNTMyMVoXDTI3MDQwMzIxNTMyMVow
HjEcMBoGA1UEAxMTQ2xpZW50MzI3Q2VydDZjMTljNjCCAiIwDQYJKoZIhvcNAQEB
BQADggIPADCCAgoCggIBANuWY/YLfmrcI41HcDlq7mk0h30fUMUWcpotCv3/Jud3
90Uwyh/cMoUiqlAn8n05+tneFOB0HdurMh+Jy59Nt5ioT/s3AWNyc77ySFFw6ANY
FpjIfDULS6OVXpAex7iQOyhCzTly5JWfob9uSsv6BFzKjsZ2tHrwoloXKApOIqEq
Hzc39HIGjDvhI+P5YrIjuDxylrOZeVHSuFHecQ6IAgG/ir/Vzw18hjjsYHPiej+w
xJgFICDsgYlZJd9XqPattN4Q/MkZIBkOPCdQ2hZ5qQWLrzDvk35C20nQ9Qii2ozQ
iRQy0twYQ5rra09OZS5swG6MMaJJWXuWKuQQFTQTO3Yn9D5Ufl6gIxBISWgqBLva
R2DgfNT93U8BQ5zg7V0yTvD1m+iAYZRe8QWE2uCYhPAISjvyA6d43z7uaDaheqJb
EDbGQVcVf0tuYmZon6LludgjHNWrEcj+/z3F2oEhqNwOV6LpyLAHKWvkCrgsG8Io
qAfKRGGNryyi6gUxji/Uy9k7/xSjtp9hszfFoj0MGU7tfmPqyi3VB7OEGj2FZRRY
RvkWmRVv8u+6FHXOP7RRnI0Du5Gch9XsygFiUdKGAsI8lQIX4YEyTP1bmyimZhiI
ZUpH5XKarqXY549kWLBXNKdo/LoDvSK1OwJx18OXRnAJ5Zpi7X4nXdL3ZGcO0bmR
AgMBAAGjggFjMIIBXzAJBgNVHRMEAjAAMC0GCWCGSAGG+EIBDQQgFh5FYXN5LVJT
QSBHZW5lcmF0ZWQgQ2VydGlmaWNhdGUwHQYDVR0OBBYEFIYL89gErvayUtlcXJtf
noVtmBi0MIHhBgNVHSMEgdkwgdaAFBLNYATSoICecO3Gmbh7LMZS/RmhoYGypIGv
MIGsMQswCQYDVQQGEwJVUzELMAkGA1UECBMCT0gxETAPBgNVBAcTCENvbHVtYnVz
MRIwEAYDVQQKEwlWaWtpbmdWUE4xHTAbBgNVBAsTFE15T3JnYW5pemF0aW9uYWxV
bml0MRUwEwYDVQQDEwxWaWtpbmdWUE4gQ0ExEDAOBgNVBCkTB0Vhc3lSU0ExITAf
BgkqhkiG9w0BCQEWEm1lQG15aG9zdC5teWRvbWFpboIJAM81he6Avyo+MBMGA1Ud
JQQMMAoGCCsGAQUFBwMCMAsGA1UdDwQEAwIHgDANBgkqhkiG9w0BAQsFAAOCAgEA
SDHaY0HdaWYXV5mWQz5Rudv8tc4/nkG9GMxDsfARQh89QMZ4x16tRzVLbdjxz3+f
+TyfEW7uUkothf/vr5XxmE1BAewo2nP4igai/Aatlljut1PxnXerVx5C7TAiw2pk
qgLSlpFLshJsReR8JR8MiBzwJb8Bw0fyK1wSRfHf13N7AiR7xIDRRG9IxFzV1wzA
ALRzkuUx742SPzYVuqo8bhlXvqblRbzsF0yzv5lEHlyfSHxN4bi3SXTfsbKWu/qA
cYDtyh1B+kfIka0QQdn5gxCUNq5WbPNGRJBVAUUi8Rswexgo4xNljMZpY6fhAb7T
2RRx3FY+rvNTf7ODUQ0PGmWwvIhzCe9GS3bBGnu1NMUofsisXmoEahzkj8fgAwJv
8gWZxH+lWh4KJd4d8WwThu5h++HdfmrqfVr/NZB2SnEUYX0uD+rBAcyZY8uby1an
m0yVVaX/9OCfk4kzBuuYsIg3lc7CFKuKa32mvGnD4u9gC96TdQXojFvICdY0FBro
tBxD4IdDJ4VTGGx//aI+AdS84qNyvuHJXzblvdIzAt9sYVJz+rvx5429OTvqjeVU
/8MZc9ahrTj8gBTCX7nLPycnxiXcICIPIXzFZQAm95BMUZk/HU/Zc3Dui7II8Qa9
Mv4q4Wr9pdR3+GuH5xwgC35k0LkxZudHTZPrxKdCz2c=
-----END CERTIFICATE-----
