Certificate:
    Data:
        Version: 3 (0x2)
        Serial Number: 10337 (0x2861)
    Signature Algorithm: sha256WithRSAEncryption
        Issuer: C=US, ST=OH, L=Columbus, O=VikingVPN, OU=MyOrganizationalUnit, CN=VikingVPN CA/name=EasyRSA/emailAddress=me@myhost.mydomain
        Validity
            Not Before: Mar 19 18:39:31 2017 GMT
            Not After : Mar 17 18:39:31 2027 GMT
        Subject: CN=Client2296Certdd4509
        Subject Public Key Info:
            Public Key Algorithm: rsaEncryption
                Public-Key: (4096 bit)
                Modulus:
                    00:dd:ba:6e:cf:c7:1e:5c:ac:89:34:4b:55:80:f0:
                    ee:8d:4a:18:32:fa:10:88:13:c3:01:5a:73:37:31:
                    15:ee:eb:da:04:09:b2:6d:f4:92:3e:af:5c:47:d4:
                    58:63:06:bf:db:ac:77:bd:d9:4e:d5:70:06:b5:c1:
                    65:1a:57:e9:42:58:44:9e:21:9f:e9:a3:a1:02:6c:
                    39:af:aa:07:44:33:b5:5c:17:83:7c:b4:8b:13:83:
                    91:84:f7:ab:43:60:e1:e9:91:87:0f:be:d0:45:fb:
                    1e:9a:e9:45:85:cb:56:ee:36:4e:6b:4c:23:88:95:
                    63:33:da:1b:cd:5a:ab:13:55:c7:1d:ea:d7:a6:76:
                    28:d5:62:e3:0f:ae:02:84:d7:54:79:3b:53:fc:12:
                    2c:f8:10:77:6f:c0:14:0b:0f:1a:c2:29:93:fb:af:
                    a6:24:9c:b5:e8:1f:8c:61:6d:db:57:60:a5:51:59:
                    67:5e:ba:e5:97:58:1d:16:09:c5:d3:36:b0:eb:84:
                    08:06:76:88:6c:d1:c0:16:20:81:52:c3:5b:8c:d1:
                    43:c9:eb:f6:a0:33:83:e8:dd:88:a8:34:fc:7a:54:
                    b2:e5:75:a0:3f:7e:29:c0:bc:09:28:d3:1e:14:9d:
                    d3:d1:9b:71:71:ac:17:c0:92:f3:b4:01:bc:78:77:
                    80:33:de:c0:7e:c0:18:f1:9f:96:f7:97:ac:c9:74:
                    95:64:0c:c7:54:9b:75:83:b2:72:ab:b1:b1:bd:d0:
                    17:b2:16:96:95:ce:fe:40:6f:d6:be:62:3c:07:8a:
                    e4:84:ee:18:9a:2d:24:b5:91:fb:b9:17:79:f5:01:
                    b5:e2:49:1b:e9:53:27:47:6b:36:86:81:27:1a:3a:
                    9c:77:89:51:94:9e:f5:15:10:90:5c:57:4b:0c:80:
                    b1:04:8c:b5:55:4c:d0:09:d1:2c:c1:3d:a0:a1:fb:
                    7f:bc:f4:ca:cf:ee:e5:69:98:cc:82:77:eb:e2:cd:
                    47:c5:22:7a:91:fc:52:25:7b:ea:7c:68:c0:f9:45:
                    77:a0:95:00:ed:53:67:ca:61:5d:0c:98:cd:ac:e6:
                    d2:2d:b3:24:28:a3:a5:58:1d:a4:8e:b5:89:f6:e9:
                    6f:21:2f:8b:ed:e8:34:99:7a:15:5d:0d:f4:4e:1b:
                    a9:d3:76:7c:9e:44:27:b5:56:41:b9:6b:67:39:6f:
                    e8:25:d5:41:fd:bd:7e:3c:26:80:1a:d7:6b:19:c9:
                    2c:7b:2a:9c:3c:75:c4:8c:db:02:9e:aa:4d:4c:05:
                    8c:99:ed:f9:c6:64:37:b8:02:d8:ec:3f:04:0c:e5:
                    15:5d:c8:51:e6:ca:41:9c:6a:37:6c:36:6e:5c:fc:
                    59:0f:45
                Exponent: 65537 (0x10001)
        X509v3 extensions:
            X509v3 Basic Constraints: 
                CA:FALSE
            Netscape Comment: 
                Easy-RSA Generated Certificate
            X509v3 Subject Key Identifier: 
                11:11:65:6B:F0:24:7D:9C:64:4F:CB:46:82:57:D4:AB:F2:B6:DC:9D
            X509v3 Authority Key Identifier: 
                keyid:12:CD:60:04:D2:A0:80:9E:70:ED:C6:99:B8:7B:2C:C6:52:FD:19:A1
                DirName:/C=US/ST=OH/L=Columbus/O=VikingVPN/OU=MyOrganizationalUnit/CN=VikingVPN CA/name=EasyRSA/emailAddress=me@myhost.mydomain
                serial:CF:35:85:EE:80:BF:2A:3E

            X509v3 Extended Key Usage: 
                TLS Web Client Authentication
            X509v3 Key Usage: 
                Digital Signature
    Signature Algorithm: sha256WithRSAEncryption
         89:5f:21:b1:7e:42:59:50:27:47:a5:7d:c1:39:3e:89:55:8b:
         a4:b9:be:f7:f1:40:5d:e2:f4:bf:dc:3c:b6:96:98:32:2e:ca:
         60:ef:e2:51:a6:f1:d3:45:b8:09:38:75:25:4c:59:e7:00:a6:
         0e:a7:2a:3f:58:55:6c:f6:72:f8:de:b9:63:8f:2d:16:02:bf:
         31:bf:ce:70:21:14:32:ee:09:23:47:1f:0f:86:ce:e5:8a:95:
         82:0f:7d:47:2e:32:78:40:d6:ae:69:63:d6:5a:eb:ab:a6:e7:
         c1:ad:3a:2d:6a:bf:37:df:08:a2:78:e1:f2:97:f1:09:c7:c7:
         94:eb:50:4c:4f:55:6c:01:2a:d5:93:78:3a:00:aa:97:8c:cf:
         47:6d:a6:3f:94:3b:ec:44:bf:8f:bf:ec:15:cf:ea:53:3f:36:
         93:93:bd:37:30:5b:0a:b4:c3:94:a0:47:33:d1:f8:e9:5e:48:
         6a:20:1c:f3:ec:f3:ec:ea:6f:12:c2:78:d5:a2:ba:41:72:37:
         3c:1e:f8:10:19:a9:30:8b:2e:1b:10:ff:0c:cd:c4:89:c3:75:
         9b:c8:7e:14:5a:56:42:50:d1:11:14:9a:fd:42:5d:dc:6b:de:
         3b:f5:4c:75:52:74:99:7d:ca:7d:f5:48:9b:d9:c7:f5:ee:2e:
         3e:7d:d3:54:dc:90:00:ad:1d:ee:42:88:05:fd:6b:a5:09:65:
         b0:b0:3e:3b:d3:a1:ec:41:38:08:7e:1e:10:41:c7:de:22:98:
         d6:56:ba:54:4e:22:5a:6a:ee:80:ee:0d:d0:df:a0:8f:ad:7d:
         32:d0:b6:9c:93:8a:37:fe:a6:2e:8f:f3:a0:c8:e1:5e:88:5e:
         da:32:d9:0e:f2:a7:18:79:4a:31:22:6a:7d:9a:c6:e4:0c:2c:
         d3:08:19:e5:3e:04:47:bc:06:a6:c1:65:cb:7d:18:85:25:dc:
         c8:fa:52:83:e8:22:39:59:b7:d2:1f:83:80:c3:da:32:c7:b4:
         ca:02:8d:3d:68:f2:59:2c:ef:e3:00:33:72:68:1c:48:a6:61:
         c2:7c:63:4e:a0:ac:12:57:83:7a:a8:79:d2:7c:49:d8:1b:4e:
         93:de:70:db:d5:ca:ce:16:12:39:7f:38:f1:28:67:b6:ea:cc:
         d6:a4:a8:cb:10:8f:e0:ff:a5:f3:e8:1b:31:18:8d:64:2b:97:
         db:4d:2f:07:53:a9:f9:f9:a0:f7:03:f6:71:1d:97:73:2f:5c:
         bb:c3:43:d9:0c:2f:42:c6:9b:66:2b:e7:62:a0:cb:83:38:e3:
         d0:be:22:c2:a5:c5:12:8d:26:7f:fa:14:39:90:54:a4:e1:72:
         87:9c:8f:f0:33:b7:93:9c
-----BEGIN CERTIFICATE-----
MIIGrTCCBJWgAwIBAgICKGEwDQYJKoZIhvcNAQELBQAwgawxCzAJBgNVBAYTAlVT
MQswCQYDVQQIEwJPSDERMA8GA1UEBxMIQ29sdW1idXMxEjAQBgNVBAoTCVZpa2lu
Z1ZQTjEdMBsGA1UECxMUTXlPcmdhbml6YXRpb25hbFVuaXQxFTATBgNVBAMTDFZp
a2luZ1ZQTiBDQTEQMA4GA1UEKRMHRWFzeVJTQTEhMB8GCSqGSIb3DQEJARYSbWVA
bXlob3N0Lm15ZG9tYWluMB4XDTE3MDMxOTE4MzkzMVoXDTI3MDMxNzE4MzkzMVow
HzEdMBsGA1UEAxMUQ2xpZW50MjI5NkNlcnRkZDQ1MDkwggIiMA0GCSqGSIb3DQEB
AQUAA4ICDwAwggIKAoICAQDdum7Pxx5crIk0S1WA8O6NShgy+hCIE8MBWnM3MRXu
69oECbJt9JI+r1xH1FhjBr/brHe92U7VcAa1wWUaV+lCWESeIZ/po6ECbDmvqgdE
M7VcF4N8tIsTg5GE96tDYOHpkYcPvtBF+x6a6UWFy1buNk5rTCOIlWMz2hvNWqsT
Vccd6temdijVYuMPrgKE11R5O1P8Eiz4EHdvwBQLDxrCKZP7r6YknLXoH4xhbdtX
YKVRWWdeuuWXWB0WCcXTNrDrhAgGdohs0cAWIIFSw1uM0UPJ6/agM4Po3YioNPx6
VLLldaA/finAvAko0x4UndPRm3FxrBfAkvO0Abx4d4Az3sB+wBjxn5b3l6zJdJVk
DMdUm3WDsnKrsbG90BeyFpaVzv5Ab9a+YjwHiuSE7hiaLSS1kfu5F3n1AbXiSRvp
UydHazaGgScaOpx3iVGUnvUVEJBcV0sMgLEEjLVVTNAJ0SzBPaCh+3+89MrP7uVp
mMyCd+vizUfFInqR/FIle+p8aMD5RXeglQDtU2fKYV0MmM2s5tItsyQoo6VYHaSO
tYn26W8hL4vt6DSZehVdDfROG6nTdnyeRCe1VkG5a2c5b+gl1UH9vX48JoAa12sZ
ySx7Kpw8dcSM2wKeqk1MBYyZ7fnGZDe4AtjsPwQM5RVdyFHmykGcajdsNm5c/FkP
RQIDAQABo4IBYzCCAV8wCQYDVR0TBAIwADAtBglghkgBhvhCAQ0EIBYeRWFzeS1S
U0EgR2VuZXJhdGVkIENlcnRpZmljYXRlMB0GA1UdDgQWBBQREWVr8CR9nGRPy0aC
V9Sr8rbcnTCB4QYDVR0jBIHZMIHWgBQSzWAE0qCAnnDtxpm4eyzGUv0ZoaGBsqSB
rzCBrDELMAkGA1UEBhMCVVMxCzAJBgNVBAgTAk9IMREwDwYDVQQHEwhDb2x1bWJ1
czESMBAGA1UEChMJVmlraW5nVlBOMR0wGwYDVQQLExRNeU9yZ2FuaXphdGlvbmFs
VW5pdDEVMBMGA1UEAxMMVmlraW5nVlBOIENBMRAwDgYDVQQpEwdFYXN5UlNBMSEw
HwYJKoZIhvcNAQkBFhJtZUBteWhvc3QubXlkb21haW6CCQDPNYXugL8qPjATBgNV
HSUEDDAKBggrBgEFBQcDAjALBgNVHQ8EBAMCB4AwDQYJKoZIhvcNAQELBQADggIB
AIlfIbF+QllQJ0elfcE5PolVi6S5vvfxQF3i9L/cPLaWmDIuymDv4lGm8dNFuAk4
dSVMWecApg6nKj9YVWz2cvjeuWOPLRYCvzG/znAhFDLuCSNHHw+GzuWKlYIPfUcu
MnhA1q5pY9Za66um58GtOi1qvzffCKJ44fKX8QnHx5TrUExPVWwBKtWTeDoAqpeM
z0dtpj+UO+xEv4+/7BXP6lM/NpOTvTcwWwq0w5SgRzPR+OleSGogHPPs8+zqbxLC
eNWiukFyNzwe+BAZqTCLLhsQ/wzNxInDdZvIfhRaVkJQ0REUmv1CXdxr3jv1THVS
dJl9yn31SJvZx/XuLj5901TckACtHe5CiAX9a6UJZbCwPjvToexBOAh+HhBBx94i
mNZWulROIlpq7oDuDdDfoI+tfTLQtpyTijf+pi6P86DI4V6IXtoy2Q7ypxh5SjEi
an2axuQMLNMIGeU+BEe8BqbBZct9GIUl3Mj6UoPoIjlZt9Ifg4DD2jLHtMoCjT1o
8lks7+MAM3JoHEimYcJ8Y06grBJXg3qoedJ8SdgbTpPecNvVys4WEjl/OPEoZ7bq
zNakqMsQj+D/pfPoGzEYjWQrl9tNLwdTqfn5oPcD9nEdl3MvXLvDQ9kML0LGm2Yr
52Kgy4M449C+IsKlxRKNJn/6FDmQVKThcoecj/Azt5Oc
-----END CERTIFICATE-----
