Certificate:
    Data:
        Version: 3 (0x2)
        Serial Number: 7362 (0x1cc2)
    Signature Algorithm: md5WithRSAEncryption
        Issuer: C=US, ST=OH, L=Columbus, O=VikingVPN, OU=MyOrganizationalUnit, CN=VikingVPN CA/name=EasyRSA/emailAddress=me@myhost.mydomain
        Validity
            Not Before: Mar  1 07:02:32 2016 GMT
            Not After : Feb 27 07:02:32 2026 GMT
        Subject: CN=Client2206Certe1d286
        Subject Public Key Info:
            Public Key Algorithm: rsaEncryption
                Public-Key: (4096 bit)
                Modulus:
                    00:ac:ea:26:f1:00:04:ff:9b:a0:73:8d:7f:4a:f6:
                    05:a3:f2:d0:01:60:1f:16:21:82:8d:08:a0:33:2f:
                    89:0a:b9:2e:b1:5a:e4:8d:90:3b:be:9b:2b:17:65:
                    57:88:9e:b1:22:c7:78:19:3b:3d:20:b7:60:de:83:
                    87:0a:43:e1:9b:51:0e:97:7a:d1:56:de:4b:17:68:
                    35:d0:08:a1:95:75:5a:6b:98:19:d2:b2:16:82:a4:
                    49:43:15:09:5f:76:75:8c:ca:af:f9:1b:0d:47:16:
                    56:fe:73:de:cb:24:6b:b4:d6:e4:20:e5:fe:02:43:
                    70:bb:d9:5f:b7:84:95:00:bc:12:f4:d8:05:90:61:
                    4e:e5:58:ab:64:3d:1e:22:5c:25:4e:65:ef:64:e2:
                    69:19:55:8b:4b:c0:66:6a:35:28:b8:6c:05:0c:06:
                    a9:0a:62:f4:9f:ea:a5:54:67:f6:43:2b:9b:d9:d5:
                    0a:05:51:48:53:a4:46:a6:9b:e6:04:c8:27:37:fc:
                    04:9d:1a:96:98:88:6b:f4:18:92:2b:c6:d9:ac:79:
                    97:2c:af:8a:00:50:e6:e0:10:26:b8:e7:a7:c1:ab:
                    92:b9:a5:c3:b5:9c:c0:b5:40:b2:94:e2:ed:58:ff:
                    ab:dd:4b:23:cc:ba:d9:f1:25:8c:3b:2b:6c:ba:8f:
                    83:68:00:3b:6d:0b:1f:24:cd:4e:a6:f8:18:d8:b1:
                    c8:8d:92:77:ad:f4:88:f4:a1:8f:80:3f:85:be:39:
                    d7:a5:c6:c7:37:fa:56:f8:d5:1d:d1:e3:91:28:e8:
                    72:24:80:dc:25:7d:d9:16:cd:a6:94:88:16:19:1c:
                    4e:5d:f6:f8:8d:7e:43:95:ec:70:2e:b8:84:d8:9f:
                    33:ca:65:2a:d4:10:20:cc:b2:a2:0c:ea:fc:9e:af:
                    80:5c:38:17:c7:25:4a:e4:29:72:20:69:13:84:df:
                    ff:a2:fd:78:13:23:d3:c9:6e:e9:b6:2a:a8:c9:79:
                    e4:50:49:be:2b:2e:1f:8d:34:68:5e:fd:4d:bb:91:
                    e8:31:c6:f0:5a:8d:be:a9:f3:a0:89:09:90:a7:34:
                    ed:95:91:13:4e:b6:a1:99:ee:21:c1:12:69:4a:f4:
                    9b:72:81:dc:1f:05:e7:fd:08:ef:53:1b:f4:9c:70:
                    52:90:21:64:d3:f2:80:d0:d5:ca:1d:7c:2f:6f:e0:
                    54:83:d4:fd:be:94:06:bc:5a:82:45:7d:da:4d:34:
                    6d:9f:6d:d4:20:50:7e:72:0b:d4:3d:91:f1:4e:e3:
                    12:69:63:a1:d0:bd:56:ea:63:96:74:11:42:8c:38:
                    b7:6d:c4:9b:4f:64:bf:d6:c9:44:32:94:94:ac:66:
                    9e:37:29
                Exponent: 65537 (0x10001)
        X509v3 extensions:
            X509v3 Basic Constraints: 
                CA:FALSE
            Netscape Comment: 
                Easy-RSA Generated Certificate
            X509v3 Subject Key Identifier: 
                60:CB:4C:68:C0:54:F5:5D:AE:7A:4E:15:AF:DD:A9:A0:04:3D:1D:CE
            X509v3 Authority Key Identifier: 
                keyid:12:CD:60:04:D2:A0:80:9E:70:ED:C6:99:B8:7B:2C:C6:52:FD:19:A1
                DirName:/C=US/ST=OH/L=Columbus/O=VikingVPN/OU=MyOrganizationalUnit/CN=VikingVPN CA/name=EasyRSA/emailAddress=me@myhost.mydomain
                serial:CF:35:85:EE:80:BF:2A:3E

            X509v3 Extended Key Usage: 
                TLS Web Client Authentication
            X509v3 Key Usage: 
                Digital Signature
    Signature Algorithm: md5WithRSAEncryption
         93:27:ed:07:0d:d0:61:43:28:c7:9d:1c:bd:01:cb:d4:d7:82:
         05:ef:d3:c7:42:80:f9:73:6d:40:3a:34:d7:15:05:b1:ad:83:
         3c:ad:88:1a:12:2b:14:3f:dd:6a:1a:0a:fa:88:cf:d4:b7:17:
         5e:e2:4f:6b:38:81:f7:7f:07:b3:cb:b3:01:7b:b1:85:30:f7:
         3d:c7:43:45:49:b8:61:68:5d:9c:1b:99:d0:a9:41:5b:a0:c0:
         28:8d:d1:83:21:c9:ac:19:38:77:73:79:34:3e:17:b7:45:c0:
         cb:77:0c:b3:89:65:34:9b:58:a5:2e:15:ff:8a:4c:5e:f9:67:
         b3:73:20:9e:e8:3f:81:1c:5f:e7:b6:a6:ca:9b:67:a0:2d:ba:
         46:32:c9:91:32:84:2c:d0:6e:9f:9e:73:ca:76:a9:21:f9:bf:
         7d:45:e7:03:56:d3:24:cf:ac:84:bf:4f:97:11:49:14:78:b6:
         07:d3:ab:17:63:38:79:d5:61:1d:cf:dd:74:f6:79:b9:c6:93:
         a7:9e:be:e8:16:3b:1c:72:8e:c9:06:8f:b3:de:fb:3a:73:01:
         a9:21:e7:c6:de:c2:53:80:35:d6:23:6f:ba:91:55:a1:a8:1d:
         30:ae:02:b9:73:bd:d8:c0:cc:db:30:6a:81:ef:1b:4e:6a:73:
         8b:8a:59:64:ef:64:4b:06:88:6a:3d:32:95:39:26:7f:bc:26:
         b1:71:ed:34:68:fc:08:3c:c6:6c:fd:6c:67:fa:b0:57:a9:8f:
         ab:a0:c0:78:73:9a:dd:7f:36:a5:4e:12:4b:8e:49:80:82:31:
         77:8b:55:cb:12:44:77:3b:81:84:fa:6e:94:01:b2:80:70:1f:
         d2:5a:c3:b2:97:7e:de:bf:c4:9e:41:24:aa:04:e7:b7:0c:4c:
         b2:4e:a7:07:04:5c:33:3b:35:68:e8:0a:63:6e:a8:03:22:41:
         38:84:3b:50:dd:48:80:96:75:bb:36:05:1a:6c:b7:e2:13:1e:
         9e:d2:f8:49:7c:5c:54:67:11:60:7d:3e:f1:44:d4:10:fe:eb:
         44:7f:f7:0d:17:5b:09:43:da:91:d9:aa:af:2f:af:ea:2c:14:
         c0:db:3e:a4:30:e6:66:d3:6a:c1:c9:8c:b2:9c:e3:1e:36:64:
         bb:fb:bf:59:f9:a6:3a:fe:f8:ad:36:cc:b8:62:dd:3d:74:4d:
         ed:c6:2c:52:8c:1f:a9:cb:2f:cf:a5:07:94:8c:d2:a4:ae:5e:
         0a:89:2d:4f:60:33:b4:57:f3:38:4e:04:29:96:de:a1:ba:55:
         26:61:46:ab:2b:f4:a7:de:28:40:da:4a:50:e2:e1:8e:7d:bb:
         d9:3d:ee:18:ac:bc:ae:8d
-----BEGIN CERTIFICATE-----
MIIGrTCCBJWgAwIBAgICHMIwDQYJKoZIhvcNAQEEBQAwgawxCzAJBgNVBAYTAlVT
MQswCQYDVQQIEwJPSDERMA8GA1UEBxMIQ29sdW1idXMxEjAQBgNVBAoTCVZpa2lu
Z1ZQTjEdMBsGA1UECxMUTXlPcmdhbml6YXRpb25hbFVuaXQxFTATBgNVBAMTDFZp
a2luZ1ZQTiBDQTEQMA4GA1UEKRMHRWFzeVJTQTEhMB8GCSqGSIb3DQEJARYSbWVA
bXlob3N0Lm15ZG9tYWluMB4XDTE2MDMwMTA3MDIzMloXDTI2MDIyNzA3MDIzMlow
HzEdMBsGA1UEAxMUQ2xpZW50MjIwNkNlcnRlMWQyODYwggIiMA0GCSqGSIb3DQEB
AQUAA4ICDwAwggIKAoICAQCs6ibxAAT/m6BzjX9K9gWj8tABYB8WIYKNCKAzL4kK
uS6xWuSNkDu+mysXZVeInrEix3gZOz0gt2Deg4cKQ+GbUQ6XetFW3ksXaDXQCKGV
dVprmBnSshaCpElDFQlfdnWMyq/5Gw1HFlb+c97LJGu01uQg5f4CQ3C72V+3hJUA
vBL02AWQYU7lWKtkPR4iXCVOZe9k4mkZVYtLwGZqNSi4bAUMBqkKYvSf6qVUZ/ZD
K5vZ1QoFUUhTpEamm+YEyCc3/ASdGpaYiGv0GJIrxtmseZcsr4oAUObgECa456fB
q5K5pcO1nMC1QLKU4u1Y/6vdSyPMutnxJYw7K2y6j4NoADttCx8kzU6m+BjYsciN
knet9Ij0oY+AP4W+Odelxsc3+lb41R3R45Eo6HIkgNwlfdkWzaaUiBYZHE5d9viN
fkOV7HAuuITYnzPKZSrUECDMsqIM6vyer4BcOBfHJUrkKXIgaROE3/+i/XgTI9PJ
bum2KqjJeeRQSb4rLh+NNGhe/U27kegxxvBajb6p86CJCZCnNO2VkRNOtqGZ7iHB
EmlK9JtygdwfBef9CO9TG/SccFKQIWTT8oDQ1codfC9v4FSD1P2+lAa8WoJFfdpN
NG2fbdQgUH5yC9Q9kfFO4xJpY6HQvVbqY5Z0EUKMOLdtxJtPZL/WyUQylJSsZp43
KQIDAQABo4IBYzCCAV8wCQYDVR0TBAIwADAtBglghkgBhvhCAQ0EIBYeRWFzeS1S
U0EgR2VuZXJhdGVkIENlcnRpZmljYXRlMB0GA1UdDgQWBBRgy0xowFT1Xa56ThWv
3amgBD0dzjCB4QYDVR0jBIHZMIHWgBQSzWAE0qCAnnDtxpm4eyzGUv0ZoaGBsqSB
rzCBrDELMAkGA1UEBhMCVVMxCzAJBgNVBAgTAk9IMREwDwYDVQQHEwhDb2x1bWJ1
czESMBAGA1UEChMJVmlraW5nVlBOMR0wGwYDVQQLExRNeU9yZ2FuaXphdGlvbmFs
VW5pdDEVMBMGA1UEAxMMVmlraW5nVlBOIENBMRAwDgYDVQQpEwdFYXN5UlNBMSEw
HwYJKoZIhvcNAQkBFhJtZUBteWhvc3QubXlkb21haW6CCQDPNYXugL8qPjATBgNV
HSUEDDAKBggrBgEFBQcDAjALBgNVHQ8EBAMCB4AwDQYJKoZIhvcNAQEEBQADggIB
AJMn7QcN0GFDKMedHL0By9TXggXv08dCgPlzbUA6NNcVBbGtgzytiBoSKxQ/3Woa
CvqIz9S3F17iT2s4gfd/B7PLswF7sYUw9z3HQ0VJuGFoXZwbmdCpQVugwCiN0YMh
yawZOHdzeTQ+F7dFwMt3DLOJZTSbWKUuFf+KTF75Z7NzIJ7oP4EcX+e2psqbZ6At
ukYyyZEyhCzQbp+ec8p2qSH5v31F5wNW0yTPrIS/T5cRSRR4tgfTqxdjOHnVYR3P
3XT2ebnGk6eevugWOxxyjskGj7Pe+zpzAakh58bewlOANdYjb7qRVaGoHTCuArlz
vdjAzNswaoHvG05qc4uKWWTvZEsGiGo9MpU5Jn+8JrFx7TRo/Ag8xmz9bGf6sFep
j6ugwHhzmt1/NqVOEkuOSYCCMXeLVcsSRHc7gYT6bpQBsoBwH9Jaw7KXft6/xJ5B
JKoE57cMTLJOpwcEXDM7NWjoCmNuqAMiQTiEO1DdSICWdbs2BRpst+ITHp7S+El8
XFRnEWB9PvFE1BD+60R/9w0XWwlD2pHZqq8vr+osFMDbPqQw5mbTasHJjLKc4x42
ZLv7v1n5pjr++K02zLhi3T10Te3GLFKMH6nLL8+lB5SM0qSuXgqJLU9gM7RX8zhO
BCmW3qG6VSZhRqsr9KfeKEDaSlDi4Y59u9k97hisvK6N
-----END CERTIFICATE-----
