Certificate:
    Data:
        Version: 3 (0x2)
        Serial Number: 3492 (0xda4)
    Signature Algorithm: md5WithRSAEncryption
        Issuer: C=US, ST=OH, L=Columbus, O=VikingVPN, OU=MyOrganizationalUnit, CN=VikingVPN CA/name=EasyRSA/emailAddress=me@myhost.mydomain
        Validity
            Not Before: Nov 25 00:25:32 2014 GMT
            Not After : Nov 22 00:25:32 2024 GMT
        Subject: CN=Client1199Cert792bfe
        Subject Public Key Info:
            Public Key Algorithm: rsaEncryption
                Public-Key: (4096 bit)
                Modulus:
                    00:ac:eb:cc:23:4c:63:41:88:3b:68:90:11:18:85:
                    35:ae:5f:2f:5c:13:1c:73:76:e7:81:e5:a3:b1:bd:
                    cc:8f:ec:2b:eb:25:65:21:b8:7d:2d:4f:df:f6:1f:
                    e0:bc:dd:3a:92:43:51:88:23:1a:59:6c:21:13:aa:
                    be:27:3c:86:0c:10:2f:cc:b5:db:7e:6f:29:dd:82:
                    6c:bb:18:f4:75:56:65:26:51:df:20:2f:fe:63:0e:
                    d3:de:00:ac:97:6f:20:ce:01:a8:c4:ae:0c:0c:b5:
                    61:03:a0:66:30:aa:76:66:a1:a6:73:7b:ce:7e:43:
                    ec:69:b3:e0:86:70:dc:11:44:68:94:13:75:9d:47:
                    ab:76:04:48:f2:89:b6:06:b7:ac:c1:73:ed:bc:59:
                    d3:ed:28:e8:78:0f:41:04:00:a1:52:c8:e9:16:f7:
                    e5:89:91:e8:46:95:2a:fe:0e:a8:5c:71:e6:e2:c7:
                    3f:3a:5d:e6:85:56:aa:93:5a:b4:7d:52:49:a2:6a:
                    2a:1b:94:a7:4f:62:18:5d:ab:6d:ad:3a:18:a7:ca:
                    61:09:d6:99:de:58:07:f1:7e:51:5c:7c:fe:11:58:
                    a5:0d:0f:a1:82:b4:09:97:4f:a8:fe:f4:14:25:a7:
                    85:86:6f:8a:d5:f2:c5:1d:5e:b4:ca:bd:33:65:3d:
                    fd:22:f2:18:6e:aa:2a:cb:d0:4a:e5:7a:81:65:1b:
                    44:2a:8a:40:66:c9:cf:83:77:5e:ad:39:83:de:5f:
                    92:57:20:36:b5:60:cb:58:77:f8:86:70:a8:e6:bc:
                    ec:e0:d6:8d:84:26:29:bc:7e:36:31:72:82:4c:4b:
                    a3:67:c4:d8:a5:c3:2e:fc:da:8f:98:8b:51:29:75:
                    ef:66:8f:b2:05:34:8d:76:b5:14:e6:14:a9:80:cb:
                    c8:43:99:29:82:8c:b4:64:63:15:c0:bf:f7:2b:32:
                    5b:e2:af:96:16:8a:87:55:60:8f:14:03:74:62:a8:
                    46:99:07:af:b8:b5:8d:cd:cc:dc:40:72:1d:1f:9d:
                    5b:a8:1b:93:d1:77:ee:f5:c9:1a:03:06:95:41:f9:
                    54:d7:09:39:39:12:96:6e:37:73:cb:34:79:4f:f0:
                    54:8c:b7:15:db:b2:02:2d:ee:06:88:c0:d2:d1:e4:
                    fc:6a:bb:35:ae:cb:f2:80:55:e2:9e:d3:4b:d8:3c:
                    3c:75:6e:d2:98:12:76:27:66:19:c6:72:14:3d:56:
                    10:52:10:5f:a9:51:cb:df:ff:e1:7f:e7:d1:69:c0:
                    c1:22:91:98:ee:f1:46:3d:a7:49:c6:93:c2:f4:97:
                    76:d7:be:68:59:2b:d0:74:40:dc:75:68:7c:02:49:
                    39:72:4d
                Exponent: 65537 (0x10001)
        X509v3 extensions:
            X509v3 Basic Constraints: 
                CA:FALSE
            Netscape Comment: 
                Easy-RSA Generated Certificate
            X509v3 Subject Key Identifier: 
                66:92:5C:0C:79:15:2C:C9:02:2B:08:57:CA:E1:D3:AC:55:C9:B5:E4
            X509v3 Authority Key Identifier: 
                keyid:12:CD:60:04:D2:A0:80:9E:70:ED:C6:99:B8:7B:2C:C6:52:FD:19:A1
                DirName:/C=US/ST=OH/L=Columbus/O=VikingVPN/OU=MyOrganizationalUnit/CN=VikingVPN CA/name=EasyRSA/emailAddress=me@myhost.mydomain
                serial:CF:35:85:EE:80:BF:2A:3E

            X509v3 Extended Key Usage: 
                TLS Web Client Authentication
            X509v3 Key Usage: 
                Digital Signature
    Signature Algorithm: md5WithRSAEncryption
         a8:17:14:8b:38:35:44:47:8e:c6:e4:c3:ec:99:c9:87:8f:f5:
         1f:85:d3:b3:26:ad:f6:09:c8:45:93:16:47:05:d1:90:a9:1d:
         bc:5a:a0:a4:3f:7a:cd:2c:49:e9:35:e7:77:12:9f:ba:bd:50:
         93:24:66:9b:62:85:e7:d4:7e:c7:45:39:e1:5d:e1:e0:21:11:
         70:18:34:e1:fd:0f:68:29:4d:29:15:c4:78:c0:45:6d:26:34:
         d7:6a:c6:ad:58:c8:57:f0:a5:f0:36:18:6a:b4:2a:15:09:94:
         06:d9:ff:74:4f:f5:1a:61:49:99:cb:5c:00:8e:dc:12:78:55:
         fc:4d:1b:a3:a8:4a:8e:38:b4:9a:4e:07:c7:1a:7a:78:31:ef:
         a0:17:51:13:a5:68:d5:29:49:ab:1c:05:63:30:51:ef:52:e6:
         ac:14:86:5b:68:fd:c9:e6:77:2c:94:de:75:9c:71:ab:07:0e:
         cb:b7:86:cc:72:1f:b7:b1:f0:b4:f3:26:b2:4f:47:d7:2b:2c:
         70:a3:5d:f3:6e:55:83:b8:8a:67:b5:62:a0:aa:d3:e3:d4:e2:
         6b:a5:9b:55:7a:6c:b6:b7:f8:bd:1d:33:20:db:aa:a1:5d:3e:
         f1:3e:8a:83:b0:9e:4d:45:dc:b8:8a:7f:bb:b9:f7:52:20:20:
         6f:25:32:cc:02:76:9c:42:10:bc:c3:75:53:cf:5c:11:b1:23:
         80:20:a4:5c:a7:ad:e1:0a:b6:7b:14:fc:ec:a1:bb:99:30:23:
         9d:f3:a5:0a:e2:ae:af:64:21:cb:82:02:ef:a2:80:e1:3c:36:
         37:bb:75:63:3b:aa:79:13:d1:4f:1f:cd:f7:12:4e:2b:54:07:
         23:6f:be:47:45:f7:dc:63:6c:b5:d6:02:5f:0b:e7:5e:a9:e1:
         c4:34:1b:cf:a3:f5:9c:04:74:54:17:bd:38:1d:4c:44:f6:ff:
         18:4b:64:f3:29:38:cd:b5:cd:ef:e5:f4:09:ff:10:2d:31:9b:
         a1:07:52:5e:35:c5:f1:ee:f7:13:c1:54:f9:e7:61:96:25:88:
         24:ab:86:2e:52:e2:d9:ea:ae:21:67:7e:3a:61:5a:cb:8a:6b:
         e5:b6:f4:c8:45:ed:57:3d:a6:70:eb:7c:28:2c:4d:09:f1:75:
         98:55:db:8e:39:97:35:ef:8c:9d:18:ee:0a:75:b9:01:11:36:
         29:fb:69:b5:2d:b4:7e:e5:ca:5a:af:ec:00:b7:af:6d:c1:da:
         42:9b:c5:3b:a4:2a:3b:2d:aa:b4:72:31:38:96:45:fa:61:99:
         39:3f:1a:73:5f:f2:60:f8:fa:db:89:07:42:bc:29:50:63:59:
         b0:31:f4:45:bc:83:a4:e0
-----BEGIN CERTIFICATE-----
MIIGrTCCBJWgAwIBAgICDaQwDQYJKoZIhvcNAQEEBQAwgawxCzAJBgNVBAYTAlVT
MQswCQYDVQQIEwJPSDERMA8GA1UEBxMIQ29sdW1idXMxEjAQBgNVBAoTCVZpa2lu
Z1ZQTjEdMBsGA1UECxMUTXlPcmdhbml6YXRpb25hbFVuaXQxFTATBgNVBAMTDFZp
a2luZ1ZQTiBDQTEQMA4GA1UEKRMHRWFzeVJTQTEhMB8GCSqGSIb3DQEJARYSbWVA
bXlob3N0Lm15ZG9tYWluMB4XDTE0MTEyNTAwMjUzMloXDTI0MTEyMjAwMjUzMlow
HzEdMBsGA1UEAxMUQ2xpZW50MTE5OUNlcnQ3OTJiZmUwggIiMA0GCSqGSIb3DQEB
AQUAA4ICDwAwggIKAoICAQCs68wjTGNBiDtokBEYhTWuXy9cExxzdueB5aOxvcyP
7CvrJWUhuH0tT9/2H+C83TqSQ1GIIxpZbCETqr4nPIYMEC/Mtdt+byndgmy7GPR1
VmUmUd8gL/5jDtPeAKyXbyDOAajErgwMtWEDoGYwqnZmoaZze85+Q+xps+CGcNwR
RGiUE3WdR6t2BEjyibYGt6zBc+28WdPtKOh4D0EEAKFSyOkW9+WJkehGlSr+Dqhc
cebixz86XeaFVqqTWrR9UkmiaioblKdPYhhdq22tOhinymEJ1pneWAfxflFcfP4R
WKUND6GCtAmXT6j+9BQlp4WGb4rV8sUdXrTKvTNlPf0i8hhuqirL0ErleoFlG0Qq
ikBmyc+Dd16tOYPeX5JXIDa1YMtYd/iGcKjmvOzg1o2EJim8fjYxcoJMS6NnxNil
wy782o+Yi1Epde9mj7IFNI12tRTmFKmAy8hDmSmCjLRkYxXAv/crMlvir5YWiodV
YI8UA3RiqEaZB6+4tY3NzNxAch0fnVuoG5PRd+71yRoDBpVB+VTXCTk5EpZuN3PL
NHlP8FSMtxXbsgIt7gaIwNLR5PxquzWuy/KAVeKe00vYPDx1btKYEnYnZhnGchQ9
VhBSEF+pUcvf/+F/59FpwMEikZju8UY9p0nGk8L0l3bXvmhZK9B0QNx1aHwCSTly
TQIDAQABo4IBYzCCAV8wCQYDVR0TBAIwADAtBglghkgBhvhCAQ0EIBYeRWFzeS1S
U0EgR2VuZXJhdGVkIENlcnRpZmljYXRlMB0GA1UdDgQWBBRmklwMeRUsyQIrCFfK
4dOsVcm15DCB4QYDVR0jBIHZMIHWgBQSzWAE0qCAnnDtxpm4eyzGUv0ZoaGBsqSB
rzCBrDELMAkGA1UEBhMCVVMxCzAJBgNVBAgTAk9IMREwDwYDVQQHEwhDb2x1bWJ1
czESMBAGA1UEChMJVmlraW5nVlBOMR0wGwYDVQQLExRNeU9yZ2FuaXphdGlvbmFs
VW5pdDEVMBMGA1UEAxMMVmlraW5nVlBOIENBMRAwDgYDVQQpEwdFYXN5UlNBMSEw
HwYJKoZIhvcNAQkBFhJtZUBteWhvc3QubXlkb21haW6CCQDPNYXugL8qPjATBgNV
HSUEDDAKBggrBgEFBQcDAjALBgNVHQ8EBAMCB4AwDQYJKoZIhvcNAQEEBQADggIB
AKgXFIs4NURHjsbkw+yZyYeP9R+F07MmrfYJyEWTFkcF0ZCpHbxaoKQ/es0sSek1
53cSn7q9UJMkZptihefUfsdFOeFd4eAhEXAYNOH9D2gpTSkVxHjARW0mNNdqxq1Y
yFfwpfA2GGq0KhUJlAbZ/3RP9RphSZnLXACO3BJ4VfxNG6OoSo44tJpOB8caengx
76AXUROlaNUpSascBWMwUe9S5qwUhlto/cnmdyyU3nWccasHDsu3hsxyH7ex8LTz
JrJPR9crLHCjXfNuVYO4ime1YqCq0+PU4mulm1V6bLa3+L0dMyDbqqFdPvE+ioOw
nk1F3LiKf7u591IgIG8lMswCdpxCELzDdVPPXBGxI4AgpFynreEKtnsU/Oyhu5kw
I53zpQrirq9kIcuCAu+igOE8Nje7dWM7qnkT0U8fzfcSTitUByNvvkdF99xjbLXW
Al8L516p4cQ0G8+j9ZwEdFQXvTgdTET2/xhLZPMpOM21ze/l9An/EC0xm6EHUl41
xfHu9xPBVPnnYZYliCSrhi5S4tnqriFnfjphWsuKa+W29MhF7Vc9pnDrfCgsTQnx
dZhV2445lzXvjJ0Y7gp1uQERNin7abUttH7lylqv7AC3r23B2kKbxTukKjstqrRy
MTiWRfphmTk/GnNf8mD4+tuJB0K8KVBjWbAx9EW8g6Tg
-----END CERTIFICATE-----
