Certificate:
    Data:
        Version: 3 (0x2)
        Serial Number: 2346 (0x92a)
    Signature Algorithm: md5WithRSAEncryption
        Issuer: C=US, ST=OH, L=Columbus, O=VikingVPN, OU=MyOrganizationalUnit, CN=VikingVPN CA/name=EasyRSA/emailAddress=me@myhost.mydomain
        Validity
            Not Before: Jul 22 13:44:54 2014 GMT
            Not After : Jul 19 13:44:54 2024 GMT
        Subject: CN=Client813Cert3c040a
        Subject Public Key Info:
            Public Key Algorithm: rsaEncryption
                Public-Key: (4096 bit)
                Modulus:
                    00:e6:02:ec:3c:60:e0:91:df:a4:c3:e6:bb:40:01:
                    b2:77:a4:f2:22:db:d6:b3:d8:34:2a:e7:c9:1a:23:
                    40:6a:d7:c3:1f:ac:59:92:39:3a:13:0e:f8:3c:5d:
                    8f:44:d4:ab:42:0d:98:11:73:a3:36:c3:53:f3:ff:
                    f6:07:38:8e:44:66:d3:8a:f3:87:48:84:40:be:45:
                    ee:14:e6:5a:c1:bf:0e:b6:a6:d3:5c:bc:20:ca:f1:
                    e8:a0:85:e1:22:7f:05:73:6f:3d:86:76:3d:28:a2:
                    31:15:55:5c:6d:7a:4f:31:bf:e8:3a:22:2e:ae:95:
                    e2:97:44:fb:b0:46:03:fe:e5:cd:03:51:1d:bf:30:
                    e4:4a:60:d0:97:99:b0:28:ec:8f:fa:14:49:bd:c1:
                    30:e3:9a:0c:76:69:5d:87:6c:79:66:4c:d7:e1:bc:
                    87:c0:43:c4:38:de:04:81:da:58:32:3b:cb:fd:38:
                    3c:6a:81:10:31:65:b0:52:81:c4:36:bb:40:48:45:
                    30:ee:07:6e:66:3f:d2:e1:fb:a6:50:26:54:e1:1f:
                    2d:00:8f:54:71:99:9a:2e:2d:57:c8:52:49:aa:7a:
                    04:26:ee:b2:9a:0b:cf:07:66:8f:dd:e1:5f:60:31:
                    e6:2f:8c:a0:6e:3c:2c:11:ac:59:5e:e7:cb:48:aa:
                    a9:cc:67:f9:79:bf:b4:47:89:cc:21:81:7a:1e:5f:
                    03:e6:32:aa:1d:c3:ec:d5:19:f5:37:8c:57:68:85:
                    86:7a:f0:b6:2d:63:81:42:3a:9d:3a:c4:4f:7a:23:
                    f1:b4:26:a0:e1:bd:f6:f2:53:7e:c7:4a:f8:8e:27:
                    9d:18:12:60:67:a4:00:71:d6:b4:30:78:b3:71:c6:
                    66:ce:7d:a8:2d:d6:6f:84:ea:f2:3c:6d:aa:6a:d0:
                    04:ec:e5:69:36:f6:95:22:dd:51:77:be:02:27:33:
                    fa:0b:23:1f:cc:6c:d1:29:29:09:06:17:33:9e:98:
                    6d:60:81:4c:35:12:de:70:2c:b3:6c:16:47:8d:de:
                    06:5d:a2:01:80:d9:32:28:fb:61:2f:bf:ee:11:a4:
                    06:0c:89:36:2a:83:4e:e2:b1:c4:13:27:67:5d:fb:
                    1a:b5:e6:a2:32:e6:9e:2e:a6:80:c3:39:58:53:e6:
                    9e:22:f3:58:9a:47:f3:83:fb:05:8e:83:94:a8:58:
                    ce:d9:68:9c:bf:cd:76:61:1e:2d:26:29:6a:e3:3a:
                    fd:1b:59:a9:d5:b9:89:c7:82:d8:95:a6:4a:d9:4c:
                    8f:9d:79:b0:e1:42:2c:ae:28:67:59:34:06:c0:3c:
                    24:27:6d:8f:83:98:b5:11:72:1d:c5:61:f4:e7:65:
                    1e:64:07
                Exponent: 65537 (0x10001)
        X509v3 extensions:
            X509v3 Basic Constraints: 
                CA:FALSE
            Netscape Comment: 
                Easy-RSA Generated Certificate
            X509v3 Subject Key Identifier: 
                80:8E:23:50:C6:D1:2F:1D:1E:B1:76:20:04:47:33:CD:C2:E8:70:AF
            X509v3 Authority Key Identifier: 
                keyid:12:CD:60:04:D2:A0:80:9E:70:ED:C6:99:B8:7B:2C:C6:52:FD:19:A1
                DirName:/C=US/ST=OH/L=Columbus/O=VikingVPN/OU=MyOrganizationalUnit/CN=VikingVPN CA/name=EasyRSA/emailAddress=me@myhost.mydomain
                serial:CF:35:85:EE:80:BF:2A:3E

            X509v3 Extended Key Usage: 
                TLS Web Client Authentication
            X509v3 Key Usage: 
                Digital Signature
    Signature Algorithm: md5WithRSAEncryption
         e4:e0:c8:8c:32:fa:7c:93:11:8e:f8:a8:1d:83:a5:57:12:7f:
         fc:95:70:53:9e:8d:63:dc:e6:73:65:39:cf:87:47:be:a4:cd:
         74:70:52:e4:df:a9:ad:4d:25:38:97:ce:4c:a3:0c:6b:6e:c9:
         c4:f4:29:74:e0:18:98:25:57:99:86:f6:23:6e:13:80:ff:38:
         02:0c:91:6f:5f:bb:67:55:76:77:97:25:b5:9c:9e:30:6c:e4:
         69:46:e0:b1:75:d1:17:bb:ae:c4:1d:06:14:9e:63:e2:f6:9c:
         2c:c0:b4:a8:ff:20:0b:e1:e6:a5:30:a9:69:67:9d:8c:69:3b:
         69:b0:2d:24:f2:54:e6:08:31:dc:4a:2b:93:9b:b8:de:61:e4:
         a3:03:f8:51:f1:53:d4:28:2f:e4:32:f7:4c:d1:30:4f:2e:38:
         d1:e3:74:cc:bf:16:78:1a:19:ea:5e:38:36:e4:2f:90:b8:53:
         78:3c:16:2d:94:07:df:79:0d:ba:1a:21:3b:13:c8:a6:40:e0:
         a9:34:47:c6:9e:32:ae:c0:a8:56:82:84:6c:7f:21:55:6e:94:
         f9:8a:ce:c1:a7:fc:5c:67:92:05:03:84:50:cb:b6:98:14:d3:
         0b:fd:9a:09:3b:25:b6:70:35:e5:be:d1:a0:8e:b2:4f:7e:07:
         c1:5d:17:b3:a3:09:25:c3:a1:b0:80:5b:9b:86:b6:f2:09:9e:
         0e:e1:5c:75:55:af:22:74:61:fb:a2:73:ff:81:b8:a4:65:08:
         e3:6e:f4:0f:6f:66:31:36:7b:2d:73:f2:a5:fd:f7:7e:05:3f:
         64:6c:6f:51:7c:b7:58:25:96:24:87:5b:48:fd:b8:04:4c:52:
         ee:7e:10:42:19:7a:34:a4:3d:55:98:03:8d:df:43:89:01:75:
         11:d0:c8:43:96:22:e6:37:2f:b5:8f:2f:2e:62:11:d6:38:41:
         35:d1:f1:11:55:71:61:78:fe:7a:e2:12:ef:af:4a:c3:e8:bf:
         4d:f4:c6:8c:35:58:a9:2f:e1:a3:e2:d0:08:43:be:4c:cb:95:
         0e:02:e6:da:d3:95:e0:00:56:04:35:cf:e7:ea:84:0e:49:16:
         eb:b0:3a:c7:62:36:f2:59:63:61:c4:41:ab:4a:04:8f:31:d5:
         e2:d3:a6:df:6c:2f:b2:34:27:6b:a0:b0:01:6e:a0:62:c8:10:
         de:62:d4:fe:e4:87:79:23:71:53:f4:76:c6:b6:55:13:2c:43:
         8e:17:14:ec:c3:91:7e:08:8c:8b:d8:bc:2e:4d:52:90:f6:ac:
         be:f3:3e:4b:53:2e:64:37:b3:8a:f5:8f:f4:0f:e9:13:ac:92:
         d1:4d:4f:f0:cc:f5:ac:45
-----BEGIN CERTIFICATE-----
MIIGrDCCBJSgAwIBAgICCSowDQYJKoZIhvcNAQEEBQAwgawxCzAJBgNVBAYTAlVT
MQswCQYDVQQIEwJPSDERMA8GA1UEBxMIQ29sdW1idXMxEjAQBgNVBAoTCVZpa2lu
Z1ZQTjEdMBsGA1UECxMUTXlPcmdhbml6YXRpb25hbFVuaXQxFTATBgNVBAMTDFZp
a2luZ1ZQTiBDQTEQMA4GA1UEKRMHRWFzeVJTQTEhMB8GCSqGSIb3DQEJARYSbWVA
bXlob3N0Lm15ZG9tYWluMB4XDTE0MDcyMjEzNDQ1NFoXDTI0MDcxOTEzNDQ1NFow
HjEcMBoGA1UEAxMTQ2xpZW50ODEzQ2VydDNjMDQwYTCCAiIwDQYJKoZIhvcNAQEB
BQADggIPADCCAgoCggIBAOYC7Dxg4JHfpMPmu0ABsnek8iLb1rPYNCrnyRojQGrX
wx+sWZI5OhMO+Dxdj0TUq0INmBFzozbDU/P/9gc4jkRm04rzh0iEQL5F7hTmWsG/
Dram01y8IMrx6KCF4SJ/BXNvPYZ2PSiiMRVVXG16TzG/6DoiLq6V4pdE+7BGA/7l
zQNRHb8w5Epg0JeZsCjsj/oUSb3BMOOaDHZpXYdseWZM1+G8h8BDxDjeBIHaWDI7
y/04PGqBEDFlsFKBxDa7QEhFMO4HbmY/0uH7plAmVOEfLQCPVHGZmi4tV8hSSap6
BCbuspoLzwdmj93hX2Ax5i+MoG48LBGsWV7ny0iqqcxn+Xm/tEeJzCGBeh5fA+Yy
qh3D7NUZ9TeMV2iFhnrwti1jgUI6nTrET3oj8bQmoOG99vJTfsdK+I4nnRgSYGek
AHHWtDB4s3HGZs59qC3Wb4Tq8jxtqmrQBOzlaTb2lSLdUXe+Aicz+gsjH8xs0Skp
CQYXM56YbWCBTDUS3nAss2wWR43eBl2iAYDZMij7YS+/7hGkBgyJNiqDTuKxxBMn
Z137GrXmojLmni6mgMM5WFPmniLzWJpH84P7BY6DlKhYztlonL/NdmEeLSYpauM6
/RtZqdW5iceC2JWmStlMj515sOFCLK4oZ1k0BsA8JCdtj4OYtRFyHcVh9OdlHmQH
AgMBAAGjggFjMIIBXzAJBgNVHRMEAjAAMC0GCWCGSAGG+EIBDQQgFh5FYXN5LVJT
QSBHZW5lcmF0ZWQgQ2VydGlmaWNhdGUwHQYDVR0OBBYEFICOI1DG0S8dHrF2IARH
M83C6HCvMIHhBgNVHSMEgdkwgdaAFBLNYATSoICecO3Gmbh7LMZS/RmhoYGypIGv
MIGsMQswCQYDVQQGEwJVUzELMAkGA1UECBMCT0gxETAPBgNVBAcTCENvbHVtYnVz
MRIwEAYDVQQKEwlWaWtpbmdWUE4xHTAbBgNVBAsTFE15T3JnYW5pemF0aW9uYWxV
bml0MRUwEwYDVQQDEwxWaWtpbmdWUE4gQ0ExEDAOBgNVBCkTB0Vhc3lSU0ExITAf
BgkqhkiG9w0BCQEWEm1lQG15aG9zdC5teWRvbWFpboIJAM81he6Avyo+MBMGA1Ud
JQQMMAoGCCsGAQUFBwMCMAsGA1UdDwQEAwIHgDANBgkqhkiG9w0BAQQFAAOCAgEA
5ODIjDL6fJMRjvioHYOlVxJ//JVwU56NY9zmc2U5z4dHvqTNdHBS5N+prU0lOJfO
TKMMa27JxPQpdOAYmCVXmYb2I24TgP84AgyRb1+7Z1V2d5cltZyeMGzkaUbgsXXR
F7uuxB0GFJ5j4vacLMC0qP8gC+HmpTCpaWedjGk7abAtJPJU5ggx3Eork5u43mHk
owP4UfFT1Cgv5DL3TNEwTy440eN0zL8WeBoZ6l44NuQvkLhTeDwWLZQH33kNuhoh
OxPIpkDgqTRHxp4yrsCoVoKEbH8hVW6U+YrOwaf8XGeSBQOEUMu2mBTTC/2aCTsl
tnA15b7RoI6yT34HwV0Xs6MJJcOhsIBbm4a28gmeDuFcdVWvInRh+6Jz/4G4pGUI
4270D29mMTZ7LXPypf33fgU/ZGxvUXy3WCWWJIdbSP24BExS7n4QQhl6NKQ9VZgD
jd9DiQF1EdDIQ5Yi5jcvtY8vLmIR1jhBNdHxEVVxYXj+euIS769Kw+i/TfTGjDVY
qS/ho+LQCEO+TMuVDgLm2tOV4ABWBDXP5+qEDkkW67A6x2I28lljYcRBq0oEjzHV
4tOm32wvsjQna6CwAW6gYsgQ3mLU/uSHeSNxU/R2xrZVEyxDjhcU7MORfgiMi9i8
Lk1SkPasvvM+S1MuZDezivWP9A/pE6yS0U1P8Mz1rEU=
-----END CERTIFICATE-----
