Certificate:
    Data:
        Version: 3 (0x2)
        Serial Number: 10643 (0x2993)
    Signature Algorithm: sha256WithRSAEncryption
        Issuer: C=US, ST=OH, L=Columbus, O=VikingVPN, OU=MyOrganizationalUnit, CN=VikingVPN CA/name=EasyRSA/emailAddress=me@myhost.mydomain
        Validity
            Not Before: Apr 14 01:16:28 2017 GMT
            Not After : Apr 12 01:16:28 2027 GMT
        Subject: CN=Client3Certe4abe9
        Subject Public Key Info:
            Public Key Algorithm: rsaEncryption
                Public-Key: (4096 bit)
                Modulus:
                    00:c9:84:fa:55:9c:ae:9a:84:9d:59:d7:35:90:00:
                    62:19:1f:b4:90:07:7b:e8:74:b5:6a:bd:03:f0:fa:
                    3f:e6:3c:8c:fb:ae:b9:ed:b2:c1:f8:a3:9f:00:77:
                    06:c2:c8:5d:8a:74:da:e9:6c:39:bf:f7:7d:7d:bd:
                    21:79:e7:11:01:68:1c:f8:60:99:d9:70:0d:7d:c4:
                    41:26:0d:2a:84:85:fa:8e:5b:25:7f:6f:0a:b3:98:
                    90:88:4c:ab:ad:98:a5:0c:c5:5f:cb:ce:9b:c0:c5:
                    05:36:d1:62:92:a1:65:2d:f5:67:3f:15:dc:d0:01:
                    a5:98:b1:49:ea:ce:a8:72:ea:eb:58:a4:e4:82:1d:
                    ac:0d:a2:49:76:a8:79:e8:6c:2c:92:6a:17:4d:07:
                    01:8b:ef:7a:99:06:22:b8:0b:96:be:1a:6b:8c:b2:
                    d0:09:6a:4d:06:43:18:f3:64:a7:68:a5:bf:1a:87:
                    8c:d8:46:b4:a5:d3:df:e8:29:bd:b5:d2:c7:58:87:
                    bd:99:78:6d:8b:b9:cc:12:55:14:7e:3b:6e:23:ec:
                    e3:eb:13:12:d8:c7:9c:6b:de:21:87:ce:26:1d:94:
                    3d:82:64:da:56:e1:38:84:86:54:b1:71:ae:60:1b:
                    95:7c:6b:5b:9e:12:4b:72:ed:3b:87:c4:94:49:a7:
                    fe:5e:3c:3d:d1:d9:99:df:5d:e9:91:c0:71:84:c0:
                    db:fb:64:99:10:89:0d:0f:af:5a:6e:12:3f:d9:40:
                    c4:e9:6d:e8:d8:cc:05:ba:31:e4:cb:f9:7e:56:9e:
                    b7:34:6f:d5:2c:41:77:57:03:a3:42:41:18:b7:48:
                    80:f8:13:28:24:11:fb:84:a7:e6:c5:82:18:6c:57:
                    e1:9a:1c:4b:f3:40:d3:27:ba:d1:e2:6a:83:27:d7:
                    8f:0d:e7:ad:34:14:3f:1b:81:8a:d8:83:83:5e:a1:
                    eb:cc:ca:9c:4b:89:a1:8d:38:23:d0:7a:d3:bd:7d:
                    3b:e4:db:37:19:33:d2:52:7d:f3:84:96:a7:d3:55:
                    9d:4c:32:32:ba:15:a3:c9:c2:43:d8:6e:d6:76:25:
                    da:7b:3a:a7:5d:e2:dd:a8:97:6e:d1:a2:63:44:d0:
                    7e:80:b2:55:33:34:1b:a7:f9:7b:27:56:89:b2:08:
                    cd:9b:eb:75:13:9f:94:16:d7:d8:8e:8e:c6:2e:e1:
                    af:a9:aa:c0:42:5a:c1:06:6a:96:e5:b9:37:55:19:
                    35:95:b3:b4:c9:d8:a6:5f:c4:4c:09:21:7f:ab:df:
                    04:62:7c:5a:58:b4:ab:88:e3:df:ff:ae:c2:10:56:
                    5b:19:eb:46:80:30:9a:ba:73:02:96:e8:25:30:95:
                    60:40:71
                Exponent: 65537 (0x10001)
        X509v3 extensions:
            X509v3 Basic Constraints: 
                CA:FALSE
            Netscape Comment: 
                Easy-RSA Generated Certificate
            X509v3 Subject Key Identifier: 
                4E:BC:C2:FF:13:7F:7C:62:86:47:FA:E2:F4:D6:B1:BB:94:BD:0E:A3
            X509v3 Authority Key Identifier: 
                keyid:12:CD:60:04:D2:A0:80:9E:70:ED:C6:99:B8:7B:2C:C6:52:FD:19:A1
                DirName:/C=US/ST=OH/L=Columbus/O=VikingVPN/OU=MyOrganizationalUnit/CN=VikingVPN CA/name=EasyRSA/emailAddress=me@myhost.mydomain
                serial:CF:35:85:EE:80:BF:2A:3E

            X509v3 Extended Key Usage: 
                TLS Web Client Authentication
            X509v3 Key Usage: 
                Digital Signature
    Signature Algorithm: sha256WithRSAEncryption
         63:f7:75:a9:51:eb:a7:f6:74:ac:54:b0:0e:02:2e:b0:ad:af:
         d8:f0:ed:a4:2c:0d:57:fa:21:50:30:59:c8:99:ec:6d:29:f0:
         17:53:7f:e9:a3:4f:f6:2b:5f:5b:d2:4a:16:25:b8:ca:94:32:
         f0:b5:c8:dd:a4:04:4e:3e:bb:78:6f:3f:fe:89:2e:04:76:cd:
         7d:82:29:9a:ae:a3:5e:90:90:d3:f9:8f:14:3d:4c:b1:b6:51:
         cd:c3:c2:74:3d:fc:8d:da:80:a9:b3:c7:ee:55:9d:59:f5:dd:
         df:4a:b3:62:1e:40:bd:0d:fa:d4:aa:78:f6:d4:fe:94:87:89:
         69:aa:6d:9a:00:ac:74:db:0a:d5:b3:95:5e:9a:bc:aa:40:e8:
         50:5f:29:05:3d:27:e0:7f:b8:21:78:36:da:5f:6f:4c:83:25:
         10:8e:7d:51:21:dc:71:9d:ab:6e:51:c3:5d:63:c3:5a:f8:a5:
         82:ee:3e:ef:f1:3f:13:17:c2:87:99:22:e1:8c:a5:18:0e:61:
         44:13:de:a5:70:dc:31:64:02:f5:08:c5:41:eb:f0:51:8f:9b:
         f4:12:b6:ab:ce:92:4a:8d:5a:03:99:fb:16:35:e8:9a:91:e5:
         52:70:e8:24:1b:f8:24:8a:2a:e1:71:10:9d:1a:fe:f8:48:0a:
         e6:90:7d:98:0c:b8:7f:28:47:81:cb:17:31:b6:4c:c7:28:08:
         ad:8f:dc:67:c5:d0:f9:ba:f5:f0:13:c2:60:8e:38:c7:16:0b:
         36:4c:55:3b:cf:dc:c7:0f:3f:09:53:e2:af:df:68:02:f6:ac:
         d3:2a:71:67:00:5e:05:bc:0e:d6:f0:21:ae:03:da:c3:66:b8:
         0f:2e:cd:be:d5:a3:1f:1c:9a:a3:cd:9e:9f:1d:7a:0a:4a:44:
         13:31:81:0b:e2:7c:c7:d6:35:bd:88:a8:79:99:68:bf:db:17:
         ba:c8:9e:6a:71:09:d1:a6:91:f9:ef:f7:6b:e3:87:c9:82:61:
         4f:ee:98:75:73:cc:eb:ef:37:98:09:ef:87:06:0d:92:e0:b7:
         0e:dc:d8:14:3b:16:0c:56:7d:9a:ce:37:61:5c:12:6d:10:2b:
         8d:3f:4c:d7:22:72:ab:60:fd:33:94:82:55:b3:30:45:bf:72:
         51:46:00:c4:0f:66:51:23:42:37:81:e9:ca:93:d6:e3:56:02:
         da:0f:31:85:67:dc:43:5c:3c:4f:29:fd:1d:97:88:2c:4e:a9:
         42:6d:2a:b1:6d:5c:03:9c:50:37:e5:b8:4d:71:06:b2:37:dc:
         87:1c:95:18:3c:23:38:91:43:52:39:0b:24:32:5c:7b:53:dd:
         65:fd:c6:35:6b:87:f6:06
-----BEGIN CERTIFICATE-----
MIIGqjCCBJKgAwIBAgICKZMwDQYJKoZIhvcNAQELBQAwgawxCzAJBgNVBAYTAlVT
MQswCQYDVQQIEwJPSDERMA8GA1UEBxMIQ29sdW1idXMxEjAQBgNVBAoTCVZpa2lu
Z1ZQTjEdMBsGA1UECxMUTXlPcmdhbml6YXRpb25hbFVuaXQxFTATBgNVBAMTDFZp
a2luZ1ZQTiBDQTEQMA4GA1UEKRMHRWFzeVJTQTEhMB8GCSqGSIb3DQEJARYSbWVA
bXlob3N0Lm15ZG9tYWluMB4XDTE3MDQxNDAxMTYyOFoXDTI3MDQxMjAxMTYyOFow
HDEaMBgGA1UEAxMRQ2xpZW50M0NlcnRlNGFiZTkwggIiMA0GCSqGSIb3DQEBAQUA
A4ICDwAwggIKAoICAQDJhPpVnK6ahJ1Z1zWQAGIZH7SQB3vodLVqvQPw+j/mPIz7
rrntssH4o58AdwbCyF2KdNrpbDm/9319vSF55xEBaBz4YJnZcA19xEEmDSqEhfqO
WyV/bwqzmJCITKutmKUMxV/LzpvAxQU20WKSoWUt9Wc/FdzQAaWYsUnqzqhy6utY
pOSCHawNokl2qHnobCySahdNBwGL73qZBiK4C5a+GmuMstAJak0GQxjzZKdopb8a
h4zYRrSl09/oKb210sdYh72ZeG2LucwSVRR+O24j7OPrExLYx5xr3iGHziYdlD2C
ZNpW4TiEhlSxca5gG5V8a1ueEkty7TuHxJRJp/5ePD3R2ZnfXemRwHGEwNv7ZJkQ
iQ0Pr1puEj/ZQMTpbejYzAW6MeTL+X5Wnrc0b9UsQXdXA6NCQRi3SID4EygkEfuE
p+bFghhsV+GaHEvzQNMnutHiaoMn148N5600FD8bgYrYg4NeoevMypxLiaGNOCPQ
etO9fTvk2zcZM9JSffOElqfTVZ1MMjK6FaPJwkPYbtZ2Jdp7Oqdd4t2ol27RomNE
0H6AslUzNBun+XsnVomyCM2b63UTn5QW19iOjsYu4a+pqsBCWsEGapbluTdVGTWV
s7TJ2KZfxEwJIX+r3wRifFpYtKuI49//rsIQVlsZ60aAMJq6cwKW6CUwlWBAcQID
AQABo4IBYzCCAV8wCQYDVR0TBAIwADAtBglghkgBhvhCAQ0EIBYeRWFzeS1SU0Eg
R2VuZXJhdGVkIENlcnRpZmljYXRlMB0GA1UdDgQWBBROvML/E398YoZH+uL01rG7
lL0OozCB4QYDVR0jBIHZMIHWgBQSzWAE0qCAnnDtxpm4eyzGUv0ZoaGBsqSBrzCB
rDELMAkGA1UEBhMCVVMxCzAJBgNVBAgTAk9IMREwDwYDVQQHEwhDb2x1bWJ1czES
MBAGA1UEChMJVmlraW5nVlBOMR0wGwYDVQQLExRNeU9yZ2FuaXphdGlvbmFsVW5p
dDEVMBMGA1UEAxMMVmlraW5nVlBOIENBMRAwDgYDVQQpEwdFYXN5UlNBMSEwHwYJ
KoZIhvcNAQkBFhJtZUBteWhvc3QubXlkb21haW6CCQDPNYXugL8qPjATBgNVHSUE
DDAKBggrBgEFBQcDAjALBgNVHQ8EBAMCB4AwDQYJKoZIhvcNAQELBQADggIBAGP3
dalR66f2dKxUsA4CLrCtr9jw7aQsDVf6IVAwWciZ7G0p8BdTf+mjT/YrX1vSShYl
uMqUMvC1yN2kBE4+u3hvP/6JLgR2zX2CKZquo16QkNP5jxQ9TLG2Uc3DwnQ9/I3a
gKmzx+5VnVn13d9Ks2IeQL0N+tSqePbU/pSHiWmqbZoArHTbCtWzlV6avKpA6FBf
KQU9J+B/uCF4Ntpfb0yDJRCOfVEh3HGdq25Rw11jw1r4pYLuPu/xPxMXwoeZIuGM
pRgOYUQT3qVw3DFkAvUIxUHr8FGPm/QStqvOkkqNWgOZ+xY16JqR5VJw6CQb+CSK
KuFxEJ0a/vhICuaQfZgMuH8oR4HLFzG2TMcoCK2P3GfF0Pm69fATwmCOOMcWCzZM
VTvP3McPPwlT4q/faAL2rNMqcWcAXgW8DtbwIa4D2sNmuA8uzb7Vox8cmqPNnp8d
egpKRBMxgQvifMfWNb2IqHmZaL/bF7rInmpxCdGmkfnv92vjh8mCYU/umHVzzOvv
N5gJ74cGDZLgtw7c2BQ7FgxWfZrON2FcEm0QK40/TNcicqtg/TOUglWzMEW/clFG
AMQPZlEjQjeB6cqT1uNWAtoPMYVn3ENcPE8p/R2XiCxOqUJtKrFtXAOcUDfluE1x
BrI33IcclRg8IziRQ1I5CyQyXHtT3WX9xjVrh/YG
-----END CERTIFICATE-----
