Certificate:
    Data:
        Version: 3 (0x2)
        Serial Number: 6937 (0x1b19)
    Signature Algorithm: md5WithRSAEncryption
        Issuer: C=US, ST=OH, L=Columbus, O=VikingVPN, OU=MyOrganizationalUnit, CN=VikingVPN CA/name=EasyRSA/emailAddress=me@myhost.mydomain
        Validity
            Not Before: Dec 22 05:28:29 2015 GMT
            Not After : Dec 19 05:28:29 2025 GMT
        Subject: CN=Client2091Cert3daa79
        Subject Public Key Info:
            Public Key Algorithm: rsaEncryption
                Public-Key: (4096 bit)
                Modulus:
                    00:cc:55:fd:75:5c:d2:7b:29:15:ce:da:27:2d:8f:
                    12:fb:0f:16:8d:75:2f:ad:40:3d:e2:d5:bb:fb:01:
                    3a:f1:1d:34:b4:a9:07:4c:eb:70:28:95:59:6e:ec:
                    0f:7e:10:20:86:15:25:b8:94:dc:35:92:46:d5:c1:
                    1e:93:2a:b4:5d:03:bb:4a:5d:a2:da:b6:83:7d:61:
                    18:c7:d7:4b:e9:13:8b:89:6c:af:a6:24:88:94:a5:
                    c3:fe:e7:11:50:52:43:41:ae:ca:40:e7:f5:1f:69:
                    5c:d1:84:79:1a:e5:b2:5e:1c:83:9d:bf:42:17:fd:
                    c8:79:fe:7f:8f:9d:a0:ec:fd:b0:7d:94:70:27:3b:
                    f3:39:ec:11:04:4e:42:af:13:3f:7c:68:9c:01:7d:
                    77:76:b6:77:ce:6d:d0:b5:01:3b:55:71:ee:35:62:
                    a3:56:db:31:7f:14:f9:92:84:28:9b:e2:27:20:f2:
                    5f:e7:00:53:e6:2c:92:a7:cf:f7:db:09:aa:9e:e2:
                    33:ab:1d:dd:45:95:51:f0:86:d3:61:45:8d:a2:f9:
                    f5:17:89:ba:6e:7b:a7:df:e5:66:1f:a5:d5:56:1c:
                    ec:20:1b:24:fb:86:21:7e:dc:ff:71:9d:e2:a9:93:
                    1e:fa:99:54:54:2c:df:d4:0a:0b:9a:81:5a:84:98:
                    9d:d4:0e:1f:6f:50:be:28:b8:69:90:9c:5b:f3:aa:
                    90:36:00:90:d7:81:36:16:ca:7e:1b:8f:20:95:e5:
                    78:f0:0f:e0:ab:16:b4:ab:2a:b6:48:17:23:6a:b6:
                    92:89:19:6c:4a:61:86:64:f4:20:65:4d:65:a3:ec:
                    6b:82:2f:5d:a4:1a:c0:19:27:51:1c:2d:b1:a7:39:
                    d7:cf:8e:7c:6c:aa:ce:9d:a6:ee:ac:b1:83:d7:72:
                    f6:9e:db:a7:bd:c2:bd:c6:05:d6:58:17:10:0d:87:
                    ee:dc:7d:24:87:9a:57:26:47:67:d5:af:d5:8f:64:
                    87:7c:bc:f5:a4:d9:52:31:10:ad:25:e0:8a:c1:d7:
                    fe:94:d0:55:ad:ec:8e:56:93:66:56:a8:96:e2:54:
                    27:5b:f7:8e:de:bf:37:a3:a0:27:94:50:98:1d:97:
                    6c:7d:50:ff:11:7d:5b:bf:2d:e4:21:2e:79:ef:60:
                    8d:ae:94:b3:e7:20:0a:d0:ef:53:2d:1e:44:b5:0e:
                    31:eb:98:24:b6:90:44:37:1d:29:8e:8d:fd:02:f0:
                    73:5a:31:17:fb:d0:c3:35:33:ff:e3:64:10:c5:87:
                    6b:04:6f:96:b8:2a:60:bf:f9:d3:f2:c6:60:6e:0d:
                    55:04:30:f5:8a:0a:dd:76:86:df:b9:64:8b:45:1a:
                    ad:c3:59
                Exponent: 65537 (0x10001)
        X509v3 extensions:
            X509v3 Basic Constraints: 
                CA:FALSE
            Netscape Comment: 
                Easy-RSA Generated Certificate
            X509v3 Subject Key Identifier: 
                09:DE:EB:08:FB:0E:E3:25:BD:16:66:1C:1E:AE:C7:35:59:2A:72:E0
            X509v3 Authority Key Identifier: 
                keyid:12:CD:60:04:D2:A0:80:9E:70:ED:C6:99:B8:7B:2C:C6:52:FD:19:A1
                DirName:/C=US/ST=OH/L=Columbus/O=VikingVPN/OU=MyOrganizationalUnit/CN=VikingVPN CA/name=EasyRSA/emailAddress=me@myhost.mydomain
                serial:CF:35:85:EE:80:BF:2A:3E

            X509v3 Extended Key Usage: 
                TLS Web Client Authentication
            X509v3 Key Usage: 
                Digital Signature
    Signature Algorithm: md5WithRSAEncryption
         b4:52:16:71:3e:3c:b3:95:eb:92:97:2f:fa:4a:c6:84:d7:43:
         a2:81:41:74:b8:47:be:bf:33:b9:78:62:fa:9e:c0:da:96:fc:
         ae:2f:fb:74:92:e2:d9:2d:27:e7:bc:43:4d:9e:18:87:b5:0f:
         93:07:7c:27:98:9b:ca:a8:be:3b:2c:dd:33:7e:e3:06:dc:77:
         1c:6e:58:ac:44:bb:ce:95:13:85:b7:ae:41:a3:a1:b7:d8:8a:
         cd:85:51:11:01:39:e7:13:17:55:43:79:ea:92:a3:ef:d8:57:
         93:5a:cf:1c:55:c4:a0:88:5d:45:e3:b9:33:92:6b:ca:34:59:
         e3:aa:16:f4:bb:9c:3d:ac:91:35:ae:3c:c3:62:5d:cf:93:04:
         5e:43:12:6a:e5:72:e1:3a:d6:a9:16:b1:47:c8:f8:a1:ee:a1:
         95:35:f2:d7:e3:7c:72:c4:21:d6:bb:10:71:c6:5d:b9:e5:99:
         c7:92:b4:30:f5:5f:a7:82:57:cc:86:92:54:fc:ca:0f:f4:82:
         48:d0:22:e8:64:e0:dc:55:ea:93:e9:08:d4:7f:fd:94:de:ee:
         f5:25:ea:8c:d5:69:3a:e3:45:d0:c2:18:87:56:47:62:bd:99:
         79:40:5c:4c:0b:fb:70:94:04:27:9d:1a:56:e5:4b:3d:9c:15:
         9c:80:da:d0:8f:2e:a1:91:ba:1f:0c:4f:af:d8:17:96:b8:64:
         ce:2f:af:b3:1f:43:02:7e:fa:21:a6:ce:e3:9a:85:22:66:92:
         2d:a9:75:b1:59:2d:11:89:ae:00:11:70:f9:df:1f:15:01:61:
         2d:fb:c2:70:4d:6d:0a:9b:88:4b:9e:3b:86:3f:70:22:fc:00:
         4b:84:1f:fe:17:b7:b6:a9:4b:86:a2:c8:e9:ef:b7:2a:55:ca:
         b8:0f:f8:a3:12:80:fa:45:c4:f3:5a:34:2c:18:8c:4e:e9:97:
         ba:bc:00:72:74:d1:95:0a:f6:05:f3:fd:6e:36:ed:d5:a0:61:
         ce:75:e8:e8:7f:a4:04:72:a7:12:31:ec:fb:41:c0:a6:e1:53:
         ac:f5:01:76:0e:84:7b:b7:0b:ba:a3:8e:4f:6f:68:08:3b:e7:
         96:74:99:21:45:94:15:67:42:dc:61:f1:7d:4a:8c:a0:ef:99:
         1e:ca:d2:63:8b:ea:79:61:35:c8:b2:8a:fd:7a:34:ec:d3:d4:
         c1:99:80:9e:1b:ca:2d:5a:d3:b8:16:7c:7e:9a:a1:08:d5:c9:
         33:f2:12:c7:61:bd:48:5d:3c:d2:48:fa:a1:02:86:91:fd:ab:
         69:70:e7:39:7a:0a:0a:cb:89:3e:a0:fd:aa:49:09:d5:7b:87:
         4d:2b:1c:47:e6:ac:b5:68
-----BEGIN CERTIFICATE-----
MIIGrTCCBJWgAwIBAgICGxkwDQYJKoZIhvcNAQEEBQAwgawxCzAJBgNVBAYTAlVT
MQswCQYDVQQIEwJPSDERMA8GA1UEBxMIQ29sdW1idXMxEjAQBgNVBAoTCVZpa2lu
Z1ZQTjEdMBsGA1UECxMUTXlPcmdhbml6YXRpb25hbFVuaXQxFTATBgNVBAMTDFZp
a2luZ1ZQTiBDQTEQMA4GA1UEKRMHRWFzeVJTQTEhMB8GCSqGSIb3DQEJARYSbWVA
bXlob3N0Lm15ZG9tYWluMB4XDTE1MTIyMjA1MjgyOVoXDTI1MTIxOTA1MjgyOVow
HzEdMBsGA1UEAxMUQ2xpZW50MjA5MUNlcnQzZGFhNzkwggIiMA0GCSqGSIb3DQEB
AQUAA4ICDwAwggIKAoICAQDMVf11XNJ7KRXO2ictjxL7DxaNdS+tQD3i1bv7ATrx
HTS0qQdM63AolVlu7A9+ECCGFSW4lNw1kkbVwR6TKrRdA7tKXaLatoN9YRjH10vp
E4uJbK+mJIiUpcP+5xFQUkNBrspA5/UfaVzRhHka5bJeHIOdv0IX/ch5/n+PnaDs
/bB9lHAnO/M57BEETkKvEz98aJwBfXd2tnfObdC1ATtVce41YqNW2zF/FPmShCib
4icg8l/nAFPmLJKnz/fbCaqe4jOrHd1FlVHwhtNhRY2i+fUXibpue6ff5WYfpdVW
HOwgGyT7hiF+3P9xneKpkx76mVRULN/UCguagVqEmJ3UDh9vUL4ouGmQnFvzqpA2
AJDXgTYWyn4bjyCV5XjwD+CrFrSrKrZIFyNqtpKJGWxKYYZk9CBlTWWj7GuCL12k
GsAZJ1EcLbGnOdfPjnxsqs6dpu6ssYPXcvae26e9wr3GBdZYFxANh+7cfSSHmlcm
R2fVr9WPZId8vPWk2VIxEK0l4IrB1/6U0FWt7I5Wk2ZWqJbiVCdb947evzejoCeU
UJgdl2x9UP8RfVu/LeQhLnnvYI2ulLPnIArQ71MtHkS1DjHrmCS2kEQ3HSmOjf0C
8HNaMRf70MM1M//jZBDFh2sEb5a4KmC/+dPyxmBuDVUEMPWKCt12ht+5ZItFGq3D
WQIDAQABo4IBYzCCAV8wCQYDVR0TBAIwADAtBglghkgBhvhCAQ0EIBYeRWFzeS1S
U0EgR2VuZXJhdGVkIENlcnRpZmljYXRlMB0GA1UdDgQWBBQJ3usI+w7jJb0WZhwe
rsc1WSpy4DCB4QYDVR0jBIHZMIHWgBQSzWAE0qCAnnDtxpm4eyzGUv0ZoaGBsqSB
rzCBrDELMAkGA1UEBhMCVVMxCzAJBgNVBAgTAk9IMREwDwYDVQQHEwhDb2x1bWJ1
czESMBAGA1UEChMJVmlraW5nVlBOMR0wGwYDVQQLExRNeU9yZ2FuaXphdGlvbmFs
VW5pdDEVMBMGA1UEAxMMVmlraW5nVlBOIENBMRAwDgYDVQQpEwdFYXN5UlNBMSEw
HwYJKoZIhvcNAQkBFhJtZUBteWhvc3QubXlkb21haW6CCQDPNYXugL8qPjATBgNV
HSUEDDAKBggrBgEFBQcDAjALBgNVHQ8EBAMCB4AwDQYJKoZIhvcNAQEEBQADggIB
ALRSFnE+PLOV65KXL/pKxoTXQ6KBQXS4R76/M7l4YvqewNqW/K4v+3SS4tktJ+e8
Q02eGIe1D5MHfCeYm8qovjss3TN+4wbcdxxuWKxEu86VE4W3rkGjobfYis2FUREB
OecTF1VDeeqSo+/YV5NazxxVxKCIXUXjuTOSa8o0WeOqFvS7nD2skTWuPMNiXc+T
BF5DEmrlcuE61qkWsUfI+KHuoZU18tfjfHLEIda7EHHGXbnlmceStDD1X6eCV8yG
klT8yg/0gkjQIuhk4NxV6pPpCNR//ZTe7vUl6ozVaTrjRdDCGIdWR2K9mXlAXEwL
+3CUBCedGlblSz2cFZyA2tCPLqGRuh8MT6/YF5a4ZM4vr7MfQwJ++iGmzuOahSJm
ki2pdbFZLRGJrgARcPnfHxUBYS37wnBNbQqbiEueO4Y/cCL8AEuEH/4Xt7apS4ai
yOnvtypVyrgP+KMSgPpFxPNaNCwYjE7pl7q8AHJ00ZUK9gXz/W427dWgYc516Oh/
pARypxIx7PtBwKbhU6z1AXYOhHu3C7qjjk9vaAg755Z0mSFFlBVnQtxh8X1KjKDv
mR7K0mOL6nlhNciyiv16NOzT1MGZgJ4byi1a07gWfH6aoQjVyTPyEsdhvUhdPNJI
+qEChpH9q2lw5zl6CgrLiT6g/apJCdV7h00rHEfmrLVo
-----END CERTIFICATE-----
