Certificate:
    Data:
        Version: 3 (0x2)
        Serial Number: 5480 (0x1568)
    Signature Algorithm: md5WithRSAEncryption
        Issuer: C=US, ST=OH, L=Columbus, O=VikingVPN, OU=MyOrganizationalUnit, CN=VikingVPN CA/name=EasyRSA/emailAddress=me@myhost.mydomain
        Validity
            Not Before: Jun  4 01:58:44 2015 GMT
            Not After : Jun  1 01:58:44 2025 GMT
        Subject: CN=Client1738Certb007c6
        Subject Public Key Info:
            Public Key Algorithm: rsaEncryption
                Public-Key: (4096 bit)
                Modulus:
                    00:b4:6a:51:46:8d:cc:db:a4:57:b5:2e:55:b1:0b:
                    30:6c:d1:ae:65:0d:dd:9a:01:90:dd:29:3f:5a:a1:
                    9c:2f:61:13:08:ab:3e:54:c6:1c:38:34:1b:05:5f:
                    4d:5c:30:65:fd:68:a8:df:f9:46:62:b1:2c:5c:01:
                    05:54:97:7b:81:ce:2e:78:24:6f:06:70:8a:2c:f5:
                    67:bd:f7:cf:b4:2e:80:35:6a:ea:d1:43:e9:73:da:
                    65:82:d5:50:73:c7:c2:f7:7e:fb:13:c2:89:ee:8a:
                    83:9d:01:f2:d1:83:4c:ad:fc:48:79:4d:a7:ee:db:
                    99:0b:fd:cf:0a:d5:9e:63:79:44:1e:2f:12:df:f7:
                    1d:a5:d9:c2:98:2f:a7:8c:ce:3a:8a:d9:3b:92:40:
                    0b:78:06:da:c8:31:74:35:47:f9:83:24:6e:6c:71:
                    88:34:33:97:d9:51:03:3e:48:80:f3:34:fc:c8:4b:
                    58:5e:5e:ec:72:3a:a4:f8:11:44:c6:1c:ed:bf:72:
                    0e:56:c3:3c:68:e7:2a:0f:23:d6:5b:bb:00:89:bf:
                    0d:76:e0:02:80:a7:1c:11:a7:3f:96:4d:64:f1:d7:
                    79:a5:5b:4a:e0:3a:6d:eb:27:95:2f:18:ff:7d:fa:
                    0b:8a:e5:f9:c0:6f:c4:fd:a9:08:7a:83:cd:d0:9c:
                    6e:f7:ec:a0:fc:36:62:eb:cd:91:04:f2:77:65:50:
                    93:5e:e3:44:20:4a:2a:cb:2e:75:e4:41:9d:2a:10:
                    ee:82:09:5c:79:9c:82:3b:25:94:8b:ea:cd:52:e6:
                    42:e3:81:c3:98:c4:57:8f:13:4a:aa:77:e8:96:ff:
                    70:0c:63:0e:2a:48:1d:cc:77:0e:e5:f0:f3:87:24:
                    d4:1e:b1:b8:35:cf:a9:73:1d:02:91:d2:09:60:e0:
                    a5:e9:33:dd:8c:af:a8:c9:46:09:63:7e:2f:2c:73:
                    c4:8c:be:46:3d:72:14:6e:fa:47:00:4d:21:15:1a:
                    d3:a4:87:08:ab:fa:42:ac:9d:60:e6:07:87:e9:22:
                    57:90:48:b0:07:f3:76:96:dc:b9:2b:2d:f4:85:7a:
                    76:da:70:49:fd:c3:fd:78:69:48:b7:1a:31:ee:c1:
                    94:31:ca:cf:a4:a9:8f:9f:de:ad:fe:82:ce:ad:d5:
                    07:3b:fa:c5:05:85:ed:27:b4:ad:5d:18:88:a7:3d:
                    76:61:71:34:9d:38:49:81:73:77:e3:0c:bf:84:2a:
                    49:41:f9:15:8e:59:0a:bf:ec:5d:5a:92:fe:ef:82:
                    86:36:bc:21:9a:e4:9e:0f:35:65:c2:0b:61:ab:1e:
                    e2:f1:08:6f:66:55:dc:42:41:d4:26:33:0a:6a:59:
                    47:20:59
                Exponent: 65537 (0x10001)
        X509v3 extensions:
            X509v3 Basic Constraints: 
                CA:FALSE
            Netscape Comment: 
                Easy-RSA Generated Certificate
            X509v3 Subject Key Identifier: 
                53:15:90:70:F9:02:21:C7:1D:81:6E:1D:E8:58:E9:12:35:A5:8A:39
            X509v3 Authority Key Identifier: 
                keyid:12:CD:60:04:D2:A0:80:9E:70:ED:C6:99:B8:7B:2C:C6:52:FD:19:A1
                DirName:/C=US/ST=OH/L=Columbus/O=VikingVPN/OU=MyOrganizationalUnit/CN=VikingVPN CA/name=EasyRSA/emailAddress=me@myhost.mydomain
                serial:CF:35:85:EE:80:BF:2A:3E

            X509v3 Extended Key Usage: 
                TLS Web Client Authentication
            X509v3 Key Usage: 
                Digital Signature
    Signature Algorithm: md5WithRSAEncryption
         ea:b5:08:ae:83:24:2f:a5:34:59:47:82:5f:7d:5c:8b:54:ca:
         ae:e9:dd:20:4d:5b:94:c0:fe:1d:1d:c7:49:b6:e1:fc:85:52:
         3c:3b:77:6f:a2:48:48:e0:b8:a2:01:69:35:e0:be:3a:f9:ee:
         aa:7b:8b:7a:42:2f:a3:9c:8d:65:c6:10:4e:dd:8f:0e:5e:88:
         66:19:a0:a8:56:0c:19:be:3a:b4:2d:fc:fb:94:19:e1:c4:22:
         3f:1f:d2:12:e6:e8:fa:eb:28:3e:b0:3f:a2:3b:66:70:8b:68:
         76:d3:6a:96:f2:f8:a9:54:43:a2:14:d4:cc:34:e6:ed:0a:0a:
         22:1b:c1:2c:b4:c4:1e:92:76:c8:e1:70:91:d4:ad:72:f0:22:
         c3:7a:8c:63:85:60:87:5c:72:12:2e:77:cc:ce:1f:77:dc:61:
         42:84:e7:20:eb:88:8b:af:2d:16:cd:5d:3c:ce:e8:55:23:4c:
         53:21:cd:05:7f:24:a1:97:38:df:e9:13:cf:e4:16:b9:3f:7c:
         9d:3e:2b:0e:05:41:92:d6:2c:1a:18:64:a9:11:92:f7:c1:e2:
         7d:b8:3c:41:46:e6:d7:14:c2:2e:1f:38:0d:a8:c7:d6:b4:66:
         be:18:17:20:55:cc:86:92:7f:28:24:37:6c:93:15:11:ec:87:
         e3:4e:f0:d2:72:34:ce:ce:84:f1:3c:67:e4:7e:3c:6c:0b:56:
         41:a6:a7:79:8d:1a:82:13:02:fd:f8:d4:ec:33:ab:b6:83:6b:
         13:04:97:d4:ec:c2:0a:1a:bd:2a:a7:db:68:e6:6f:ca:32:73:
         eb:d6:43:52:02:fe:f3:68:c2:bf:e0:c5:3f:39:0e:1a:5e:21:
         d5:cc:dd:2c:b3:39:4b:92:ed:b9:c0:62:0f:b1:c7:b6:fa:6e:
         48:88:e4:06:b7:d1:e2:68:24:a6:52:2b:9e:ec:ca:2b:15:65:
         44:9a:67:76:ef:1e:61:86:35:29:e4:f9:f6:18:08:ac:69:8e:
         97:f7:db:70:c8:f3:fd:cc:21:fe:20:cb:78:dc:11:5a:ed:c1:
         c9:77:72:5a:6d:83:e5:e9:1e:c2:f4:f4:5c:e4:90:d3:6f:6b:
         d8:23:53:8f:3e:56:8f:be:38:82:54:dd:a4:61:d0:dc:ca:e2:
         7f:e0:c1:6a:64:cf:df:c4:2f:5d:dc:52:3b:f3:26:c5:8e:ca:
         30:af:d3:b0:2a:7e:93:82:8c:d4:a2:ac:3b:65:00:48:50:85:
         d4:73:e9:ba:76:e7:05:cf:48:2f:5f:88:06:d6:86:4f:6f:2b:
         a8:73:43:0b:9b:06:df:1c:87:69:3b:42:bf:1b:f8:38:a0:15:
         00:88:ed:5a:70:d8:be:85
-----BEGIN CERTIFICATE-----
MIIGrTCCBJWgAwIBAgICFWgwDQYJKoZIhvcNAQEEBQAwgawxCzAJBgNVBAYTAlVT
MQswCQYDVQQIEwJPSDERMA8GA1UEBxMIQ29sdW1idXMxEjAQBgNVBAoTCVZpa2lu
Z1ZQTjEdMBsGA1UECxMUTXlPcmdhbml6YXRpb25hbFVuaXQxFTATBgNVBAMTDFZp
a2luZ1ZQTiBDQTEQMA4GA1UEKRMHRWFzeVJTQTEhMB8GCSqGSIb3DQEJARYSbWVA
bXlob3N0Lm15ZG9tYWluMB4XDTE1MDYwNDAxNTg0NFoXDTI1MDYwMTAxNTg0NFow
HzEdMBsGA1UEAxMUQ2xpZW50MTczOENlcnRiMDA3YzYwggIiMA0GCSqGSIb3DQEB
AQUAA4ICDwAwggIKAoICAQC0alFGjczbpFe1LlWxCzBs0a5lDd2aAZDdKT9aoZwv
YRMIqz5Uxhw4NBsFX01cMGX9aKjf+UZisSxcAQVUl3uBzi54JG8GcIos9We998+0
LoA1aurRQ+lz2mWC1VBzx8L3fvsTwonuioOdAfLRg0yt/Eh5Tafu25kL/c8K1Z5j
eUQeLxLf9x2l2cKYL6eMzjqK2TuSQAt4BtrIMXQ1R/mDJG5scYg0M5fZUQM+SIDz
NPzIS1heXuxyOqT4EUTGHO2/cg5Wwzxo5yoPI9ZbuwCJvw124AKApxwRpz+WTWTx
13mlW0rgOm3rJ5UvGP99+guK5fnAb8T9qQh6g83QnG737KD8NmLrzZEE8ndlUJNe
40QgSirLLnXkQZ0qEO6CCVx5nII7JZSL6s1S5kLjgcOYxFePE0qqd+iW/3AMYw4q
SB3Mdw7l8POHJNQesbg1z6lzHQKR0glg4KXpM92Mr6jJRgljfi8sc8SMvkY9chRu
+kcATSEVGtOkhwir+kKsnWDmB4fpIleQSLAH83aW3LkrLfSFenbacEn9w/14aUi3
GjHuwZQxys+kqY+f3q3+gs6t1Qc7+sUFhe0ntK1dGIinPXZhcTSdOEmBc3fjDL+E
KklB+RWOWQq/7F1akv7vgoY2vCGa5J4PNWXCC2GrHuLxCG9mVdxCQdQmMwpqWUcg
WQIDAQABo4IBYzCCAV8wCQYDVR0TBAIwADAtBglghkgBhvhCAQ0EIBYeRWFzeS1S
U0EgR2VuZXJhdGVkIENlcnRpZmljYXRlMB0GA1UdDgQWBBRTFZBw+QIhxx2Bbh3o
WOkSNaWKOTCB4QYDVR0jBIHZMIHWgBQSzWAE0qCAnnDtxpm4eyzGUv0ZoaGBsqSB
rzCBrDELMAkGA1UEBhMCVVMxCzAJBgNVBAgTAk9IMREwDwYDVQQHEwhDb2x1bWJ1
czESMBAGA1UEChMJVmlraW5nVlBOMR0wGwYDVQQLExRNeU9yZ2FuaXphdGlvbmFs
VW5pdDEVMBMGA1UEAxMMVmlraW5nVlBOIENBMRAwDgYDVQQpEwdFYXN5UlNBMSEw
HwYJKoZIhvcNAQkBFhJtZUBteWhvc3QubXlkb21haW6CCQDPNYXugL8qPjATBgNV
HSUEDDAKBggrBgEFBQcDAjALBgNVHQ8EBAMCB4AwDQYJKoZIhvcNAQEEBQADggIB
AOq1CK6DJC+lNFlHgl99XItUyq7p3SBNW5TA/h0dx0m24fyFUjw7d2+iSEjguKIB
aTXgvjr57qp7i3pCL6OcjWXGEE7djw5eiGYZoKhWDBm+OrQt/PuUGeHEIj8f0hLm
6PrrKD6wP6I7ZnCLaHbTapby+KlUQ6IU1Mw05u0KCiIbwSy0xB6SdsjhcJHUrXLw
IsN6jGOFYIdcchIud8zOH3fcYUKE5yDriIuvLRbNXTzO6FUjTFMhzQV/JKGXON/p
E8/kFrk/fJ0+Kw4FQZLWLBoYZKkRkvfB4n24PEFG5tcUwi4fOA2ox9a0Zr4YFyBV
zIaSfygkN2yTFRHsh+NO8NJyNM7OhPE8Z+R+PGwLVkGmp3mNGoITAv341Owzq7aD
axMEl9TswgoavSqn22jmb8oyc+vWQ1IC/vNowr/gxT85DhpeIdXM3SyzOUuS7bnA
Yg+xx7b6bkiI5Aa30eJoJKZSK57syisVZUSaZ3bvHmGGNSnk+fYYCKxpjpf323DI
8/3MIf4gy3jcEVrtwcl3clptg+XpHsL09FzkkNNva9gjU48+Vo++OIJU3aRh0NzK
4n/gwWpkz9/EL13cUjvzJsWOyjCv07AqfpOCjNSirDtlAEhQhdRz6bp25wXPSC9f
iAbWhk9vK6hzQwubBt8ch2k7Qr8b+DigFQCI7Vpw2L6F
-----END CERTIFICATE-----
