Certificate:
    Data:
        Version: 3 (0x2)
        Serial Number: 10689 (0x29c1)
    Signature Algorithm: sha256WithRSAEncryption
        Issuer: C=US, ST=OH, L=Columbus, O=VikingVPN, OU=MyOrganizationalUnit, CN=VikingVPN CA/name=EasyRSA/emailAddress=me@myhost.mydomain
        Validity
            Not Before: Apr 19 04:25:24 2017 GMT
            Not After : Apr 17 04:25:24 2027 GMT
        Subject: CN=Client2844Cert292262
        Subject Public Key Info:
            Public Key Algorithm: rsaEncryption
                Public-Key: (4096 bit)
                Modulus:
                    00:bd:63:46:fd:7f:97:90:ce:e4:e4:eb:1b:ad:d9:
                    6d:30:5b:40:c8:79:c1:29:f6:fb:02:b5:01:d8:db:
                    6d:a7:dd:9b:e4:2e:06:1e:d6:eb:88:49:6c:7f:71:
                    69:69:bb:43:a0:7b:9d:f4:9a:86:d6:7f:ed:27:4d:
                    0b:6e:71:35:39:92:b3:83:f0:3e:44:7e:94:36:cf:
                    87:a4:cb:e3:07:76:ed:a8:90:6b:f6:4a:f9:e3:69:
                    af:38:c3:8e:d7:8b:eb:9f:8e:0a:ac:e2:23:1a:34:
                    39:17:8f:d4:fb:4f:82:10:19:86:dd:87:c0:39:45:
                    81:a2:6e:33:06:67:09:6c:09:1a:2c:df:55:21:d0:
                    cd:83:88:84:8c:f9:f0:22:5d:91:d4:2f:11:29:37:
                    0c:a0:f9:25:33:67:91:c4:67:e6:f0:31:eb:f4:9e:
                    04:e9:67:90:cf:a9:ec:31:cf:76:cf:67:35:f5:a9:
                    17:f8:52:5a:84:d4:b8:b3:7d:5e:05:2a:0f:07:6a:
                    28:56:45:a6:2b:05:c2:d6:af:20:36:90:9d:e0:8d:
                    89:0b:b3:01:90:d4:30:38:42:9f:57:f2:06:04:83:
                    b7:98:3a:1b:eb:e5:6e:86:12:e4:05:e4:ae:75:4e:
                    33:5f:43:87:21:01:f5:ed:b5:a6:ae:78:1d:82:7d:
                    24:71:c7:1f:99:75:04:18:a0:97:75:8c:4b:04:0e:
                    2f:71:4a:27:ca:9f:15:55:bb:07:b1:fe:40:7d:c2:
                    94:da:d5:9b:00:96:ce:de:d8:35:d6:fc:55:e8:9f:
                    a9:f0:cf:66:e8:f9:5c:98:aa:66:8a:65:45:60:89:
                    b8:fd:06:6e:c3:79:fe:d9:44:bb:5a:13:c9:cb:e2:
                    0b:62:9e:07:65:c5:06:16:0c:87:2f:96:94:31:7c:
                    6b:a7:6c:f8:a6:8e:12:e2:78:5c:4b:5f:2c:ec:99:
                    3e:d6:15:41:8c:0e:8c:0b:be:1f:4a:18:fc:e9:57:
                    88:59:bd:cf:68:01:f1:b2:67:ab:93:84:10:9f:48:
                    07:37:42:a2:8d:41:8b:70:3c:11:d4:24:57:c6:fe:
                    5b:61:bc:6d:d8:02:f8:8f:c2:ac:c4:e1:04:71:c1:
                    df:d8:47:34:53:7a:55:6a:d3:ed:97:22:e7:d1:66:
                    16:4c:c0:7e:6e:da:4e:8c:66:47:1f:fb:e5:b0:53:
                    f8:7e:9f:e0:46:ec:e1:f4:cc:12:be:1b:01:c3:30:
                    15:15:3e:e7:45:82:8c:2d:5c:67:60:bf:7d:ce:97:
                    7b:86:ed:eb:66:57:fb:ef:64:f6:df:de:7c:b8:59:
                    a6:54:06:4b:13:34:6c:4e:00:74:c4:c7:1d:74:db:
                    50:b1:85
                Exponent: 65537 (0x10001)
        X509v3 extensions:
            X509v3 Basic Constraints: 
                CA:FALSE
            Netscape Comment: 
                Easy-RSA Generated Certificate
            X509v3 Subject Key Identifier: 
                08:E3:53:09:7B:22:78:A5:26:18:40:0B:24:6E:6F:69:F4:C8:AD:26
            X509v3 Authority Key Identifier: 
                keyid:12:CD:60:04:D2:A0:80:9E:70:ED:C6:99:B8:7B:2C:C6:52:FD:19:A1
                DirName:/C=US/ST=OH/L=Columbus/O=VikingVPN/OU=MyOrganizationalUnit/CN=VikingVPN CA/name=EasyRSA/emailAddress=me@myhost.mydomain
                serial:CF:35:85:EE:80:BF:2A:3E

            X509v3 Extended Key Usage: 
                TLS Web Client Authentication
            X509v3 Key Usage: 
                Digital Signature
    Signature Algorithm: sha256WithRSAEncryption
         d1:8a:4f:b1:eb:d1:0e:cc:a7:e7:a1:17:ac:f1:fc:97:05:42:
         74:46:de:48:a8:2b:1c:d4:ea:ad:12:34:eb:4d:e3:85:bf:66:
         7d:96:cd:1e:b2:93:c2:46:9d:6b:45:9a:c4:ce:8a:d4:d0:8d:
         bf:8c:ba:a5:53:cc:55:19:80:1a:5e:da:f7:15:fb:25:44:aa:
         eb:0e:5d:de:2e:83:81:40:a7:83:d2:96:7e:69:14:dc:fc:4c:
         08:7d:53:d1:99:f9:94:86:e3:16:6b:81:15:1f:67:93:ee:6d:
         80:ea:73:32:e8:3f:f2:33:7d:ba:45:30:11:0f:94:a9:4f:e9:
         45:40:29:a1:1e:5e:61:aa:71:be:34:4d:91:62:3d:ac:e6:8c:
         b2:57:c5:56:38:7f:fc:3b:53:0b:39:c9:5e:36:82:94:30:92:
         77:aa:12:4d:ea:c9:1b:cc:da:ed:42:32:56:71:11:01:21:98:
         65:5b:92:e7:7d:06:74:15:ed:ac:6f:54:32:25:db:2d:d4:76:
         c2:06:1a:25:57:66:c6:9f:e5:95:3c:bb:1e:8e:54:e4:45:d2:
         ac:31:aa:21:7c:22:ca:a6:54:18:f1:72:f1:4e:c2:95:43:cd:
         52:52:b2:f5:79:77:b1:7e:18:9b:e6:bc:11:df:db:50:d9:60:
         b5:fb:03:12:58:d4:5d:50:0a:98:09:5a:1f:5d:b2:00:d5:99:
         ba:28:cb:58:70:93:aa:df:ec:1a:f0:dc:9f:d0:47:61:7c:17:
         1c:ac:b7:36:69:6a:1a:10:53:63:dd:98:62:d4:ae:78:7f:56:
         e9:ab:92:d5:dd:d2:1c:c3:89:2c:fb:c7:74:a7:6f:96:20:85:
         f4:0a:cb:9e:86:0a:b8:0f:79:96:5a:d8:f0:5f:c2:39:df:7e:
         1b:d1:a5:f6:0b:d2:e7:e6:b9:e2:57:c0:9a:61:7b:de:87:26:
         dd:18:01:ff:8b:45:a9:84:6a:34:6f:d4:7c:d4:13:5c:a2:09:
         29:fd:f5:b3:ac:3b:f8:68:97:0e:b3:f0:85:f3:50:89:7f:46:
         55:97:cf:0b:06:10:93:73:98:83:ef:06:6e:73:b4:e6:4c:d5:
         1a:4d:51:3e:81:7f:b5:53:84:b4:50:14:96:b8:b6:e0:b7:16:
         c8:2b:3f:cb:7d:a4:5e:e1:4b:66:96:2c:11:96:38:2b:e8:05:
         43:f4:52:6c:55:d8:4b:cc:ec:6a:06:21:66:8a:fb:86:c7:d5:
         38:d3:5c:98:ca:bb:3d:c0:28:f5:f8:e2:7a:20:ca:bc:d1:ea:
         04:fa:fe:0e:bd:a2:76:d5:d2:92:6f:e6:85:6b:6c:0c:df:56:
         22:03:31:2d:ec:e7:e3:fb
-----BEGIN CERTIFICATE-----
MIIGrTCCBJWgAwIBAgICKcEwDQYJKoZIhvcNAQELBQAwgawxCzAJBgNVBAYTAlVT
MQswCQYDVQQIEwJPSDERMA8GA1UEBxMIQ29sdW1idXMxEjAQBgNVBAoTCVZpa2lu
Z1ZQTjEdMBsGA1UECxMUTXlPcmdhbml6YXRpb25hbFVuaXQxFTATBgNVBAMTDFZp
a2luZ1ZQTiBDQTEQMA4GA1UEKRMHRWFzeVJTQTEhMB8GCSqGSIb3DQEJARYSbWVA
bXlob3N0Lm15ZG9tYWluMB4XDTE3MDQxOTA0MjUyNFoXDTI3MDQxNzA0MjUyNFow
HzEdMBsGA1UEAxMUQ2xpZW50Mjg0NENlcnQyOTIyNjIwggIiMA0GCSqGSIb3DQEB
AQUAA4ICDwAwggIKAoICAQC9Y0b9f5eQzuTk6xut2W0wW0DIecEp9vsCtQHY222n
3ZvkLgYe1uuISWx/cWlpu0Oge530mobWf+0nTQtucTU5krOD8D5EfpQ2z4eky+MH
du2okGv2Svnjaa84w47Xi+ufjgqs4iMaNDkXj9T7T4IQGYbdh8A5RYGibjMGZwls
CRos31Uh0M2DiISM+fAiXZHULxEpNwyg+SUzZ5HEZ+bwMev0ngTpZ5DPqewxz3bP
ZzX1qRf4UlqE1LizfV4FKg8HaihWRaYrBcLWryA2kJ3gjYkLswGQ1DA4Qp9X8gYE
g7eYOhvr5W6GEuQF5K51TjNfQ4chAfXttaaueB2CfSRxxx+ZdQQYoJd1jEsEDi9x
SifKnxVVuwex/kB9wpTa1ZsAls7e2DXW/FXon6nwz2bo+VyYqmaKZUVgibj9Bm7D
ef7ZRLtaE8nL4gtingdlxQYWDIcvlpQxfGunbPimjhLieFxLXyzsmT7WFUGMDowL
vh9KGPzpV4hZvc9oAfGyZ6uThBCfSAc3QqKNQYtwPBHUJFfG/lthvG3YAviPwqzE
4QRxwd/YRzRTelVq0+2XIufRZhZMwH5u2k6MZkcf++WwU/h+n+BG7OH0zBK+GwHD
MBUVPudFgowtXGdgv33Ol3uG7etmV/vvZPbf3ny4WaZUBksTNGxOAHTExx1021Cx
hQIDAQABo4IBYzCCAV8wCQYDVR0TBAIwADAtBglghkgBhvhCAQ0EIBYeRWFzeS1S
U0EgR2VuZXJhdGVkIENlcnRpZmljYXRlMB0GA1UdDgQWBBQI41MJeyJ4pSYYQAsk
bm9p9MitJjCB4QYDVR0jBIHZMIHWgBQSzWAE0qCAnnDtxpm4eyzGUv0ZoaGBsqSB
rzCBrDELMAkGA1UEBhMCVVMxCzAJBgNVBAgTAk9IMREwDwYDVQQHEwhDb2x1bWJ1
czESMBAGA1UEChMJVmlraW5nVlBOMR0wGwYDVQQLExRNeU9yZ2FuaXphdGlvbmFs
VW5pdDEVMBMGA1UEAxMMVmlraW5nVlBOIENBMRAwDgYDVQQpEwdFYXN5UlNBMSEw
HwYJKoZIhvcNAQkBFhJtZUBteWhvc3QubXlkb21haW6CCQDPNYXugL8qPjATBgNV
HSUEDDAKBggrBgEFBQcDAjALBgNVHQ8EBAMCB4AwDQYJKoZIhvcNAQELBQADggIB
ANGKT7Hr0Q7Mp+ehF6zx/JcFQnRG3kioKxzU6q0SNOtN44W/Zn2WzR6yk8JGnWtF
msTOitTQjb+MuqVTzFUZgBpe2vcV+yVEqusOXd4ug4FAp4PSln5pFNz8TAh9U9GZ
+ZSG4xZrgRUfZ5PubYDqczLoP/IzfbpFMBEPlKlP6UVAKaEeXmGqcb40TZFiPazm
jLJXxVY4f/w7Uws5yV42gpQwkneqEk3qyRvM2u1CMlZxEQEhmGVbkud9BnQV7axv
VDIl2y3UdsIGGiVXZsaf5ZU8ux6OVORF0qwxqiF8IsqmVBjxcvFOwpVDzVJSsvV5
d7F+GJvmvBHf21DZYLX7AxJY1F1QCpgJWh9dsgDVmbooy1hwk6rf7Brw3J/QR2F8
FxystzZpahoQU2PdmGLUrnh/VumrktXd0hzDiSz7x3Snb5YghfQKy56GCrgPeZZa
2PBfwjnffhvRpfYL0ufmueJXwJphe96HJt0YAf+LRamEajRv1HzUE1yiCSn99bOs
O/holw6z8IXzUIl/RlWXzwsGEJNzmIPvBm5ztOZM1RpNUT6Bf7VThLRQFJa4tuC3
FsgrP8t9pF7hS2aWLBGWOCvoBUP0UmxV2EvM7GoGIWaK+4bH1TjTXJjKuz3AKPX4
4nogyrzR6gT6/g69onbV0pJv5oVrbAzfViIDMS3s5+P7
-----END CERTIFICATE-----
