Certificate:
    Data:
        Version: 3 (0x2)
        Serial Number: 7659 (0x1deb)
    Signature Algorithm: md5WithRSAEncryption
        Issuer: C=US, ST=OH, L=Columbus, O=VikingVPN, OU=MyOrganizationalUnit, CN=VikingVPN CA/name=EasyRSA/emailAddress=me@myhost.mydomain
        Validity
            Not Before: Apr  3 15:55:32 2016 GMT
            Not After : Apr  1 15:55:32 2026 GMT
        Subject: CN=Client2151Cert7c95af
        Subject Public Key Info:
            Public Key Algorithm: rsaEncryption
                Public-Key: (4096 bit)
                Modulus:
                    00:bd:3d:05:11:1b:2f:2f:e9:c9:0a:b0:97:9e:ca:
                    0b:cc:db:0d:f2:fd:b5:76:46:99:77:88:4e:ce:6f:
                    cf:a8:72:d1:0e:2d:3c:9a:5a:be:04:2f:c7:bd:c1:
                    c5:17:96:99:03:f2:f6:10:9b:81:4a:50:17:9b:a1:
                    d7:35:46:2b:7c:af:29:d2:3e:64:e0:1c:0c:d8:71:
                    fc:88:c8:ec:e0:6a:0b:dd:5a:b1:3b:3c:6a:ba:49:
                    b0:bf:2a:7e:f2:85:a1:f1:3e:61:fe:2e:76:07:8b:
                    ea:9d:4f:c1:8e:fb:c9:46:3f:65:44:80:31:22:ad:
                    be:a5:2e:51:f8:ac:7c:86:56:75:9a:b7:9d:11:cd:
                    24:bc:c1:a1:7d:51:0e:c0:90:7e:f5:3a:e9:63:4f:
                    dd:8a:44:3b:92:c2:ae:fb:64:ac:82:31:3e:e0:97:
                    91:63:44:2b:b6:c7:bb:47:f5:92:f7:2c:3d:fb:d8:
                    b8:ab:66:13:16:91:d9:b8:a1:56:97:62:48:cc:e1:
                    81:f7:1a:bc:65:01:d1:53:94:27:c6:45:d2:68:e5:
                    76:6b:52:ef:1f:9a:07:01:7d:e0:20:e5:9b:d0:c2:
                    8c:c6:64:de:a5:30:2a:94:8a:82:fd:7c:94:76:02:
                    37:57:96:d1:43:65:86:53:87:90:ed:fc:b4:15:f0:
                    46:ce:bf:8d:46:0c:a6:5a:e5:10:1b:ec:36:aa:90:
                    b6:a7:ea:83:98:0b:0e:dc:3b:b8:35:1e:7c:47:3e:
                    b0:c8:21:17:76:b5:b2:a5:22:7a:5a:82:73:0f:ca:
                    57:8d:a6:ad:2b:e7:76:cb:e1:37:1c:af:f4:f9:53:
                    6f:40:88:85:7f:52:b6:20:aa:7d:87:42:15:d5:e5:
                    42:37:6f:9c:6a:16:6b:cf:de:b7:54:ab:be:ac:a8:
                    6c:05:41:21:99:aa:8b:39:39:19:1c:e5:79:76:14:
                    99:30:50:57:75:6e:00:a6:c7:35:48:73:3d:15:f6:
                    a1:47:cf:e7:97:17:9c:9a:8a:bf:ae:16:15:79:fa:
                    18:2e:f6:85:d1:8b:92:1c:14:e9:ce:d7:c2:bc:c7:
                    78:fb:6d:2c:19:3c:9f:5e:2e:d6:6e:f7:ed:08:91:
                    57:f5:2e:1a:02:7d:20:4e:dd:c2:cc:87:b0:00:8f:
                    c4:10:28:38:19:68:1b:86:47:a5:56:e9:cd:e4:5e:
                    ef:9d:ce:cc:55:53:1a:40:70:8d:ca:75:3b:28:6e:
                    48:d7:b3:cc:4e:bf:d1:18:d4:11:73:2a:3d:1b:44:
                    6c:2b:9e:8a:9a:fa:67:a8:56:ee:ec:26:a6:12:51:
                    e1:54:55:2b:1e:0d:82:7f:f5:68:84:a0:3c:cd:f6:
                    27:ce:a3
                Exponent: 65537 (0x10001)
        X509v3 extensions:
            X509v3 Basic Constraints: 
                CA:FALSE
            Netscape Comment: 
                Easy-RSA Generated Certificate
            X509v3 Subject Key Identifier: 
                C1:A3:76:FE:69:66:5C:A7:83:E1:8F:68:F9:1C:06:51:33:37:7D:25
            X509v3 Authority Key Identifier: 
                keyid:12:CD:60:04:D2:A0:80:9E:70:ED:C6:99:B8:7B:2C:C6:52:FD:19:A1
                DirName:/C=US/ST=OH/L=Columbus/O=VikingVPN/OU=MyOrganizationalUnit/CN=VikingVPN CA/name=EasyRSA/emailAddress=me@myhost.mydomain
                serial:CF:35:85:EE:80:BF:2A:3E

            X509v3 Extended Key Usage: 
                TLS Web Client Authentication
            X509v3 Key Usage: 
                Digital Signature
    Signature Algorithm: md5WithRSAEncryption
         99:e2:bc:0a:c1:5e:c2:5c:75:26:2b:7a:9a:50:ea:2a:8d:97:
         23:c1:02:91:9e:cf:b9:a1:10:83:89:00:4f:1c:bf:dc:ff:18:
         32:32:8b:e9:8a:05:76:e2:ba:7a:d0:07:d3:6f:0a:0a:27:7f:
         1e:63:a8:f9:74:34:e6:fb:25:f1:68:e4:04:75:1c:df:14:e5:
         ec:6b:92:7a:2d:82:f5:84:f1:c4:35:bf:59:71:83:37:ad:e2:
         88:7f:67:56:a7:90:7e:e0:bd:0e:f7:1a:70:9a:35:57:f5:f9:
         53:89:b7:74:f7:a6:31:04:21:93:14:09:78:d9:0c:54:ad:8a:
         c1:44:40:d3:15:75:a5:78:30:4c:1c:5c:be:e0:aa:e4:f1:93:
         8d:d0:77:0a:01:7f:b2:13:7d:70:65:d9:91:9b:e2:62:01:f1:
         1c:34:88:e1:5c:2a:d5:93:cf:0e:7f:2e:71:d2:41:b9:3a:00:
         2b:47:52:a3:98:18:2c:96:16:91:f2:08:57:58:ac:46:f7:aa:
         ef:d4:ee:53:53:93:91:3c:5d:16:c4:7a:8d:af:dc:c3:b5:9d:
         4b:da:85:f9:80:8f:29:b0:39:23:11:20:c6:8f:d0:fa:c9:96:
         fa:d1:dc:0e:28:e1:64:cf:9b:d7:09:bf:97:8d:7b:ca:62:a0:
         d3:6b:81:6d:e1:b4:c8:4a:9e:ef:cd:02:43:2c:fb:4a:4c:1e:
         5a:f2:e2:27:dc:8a:95:c4:d3:b7:fb:4e:5b:a6:e9:dc:4e:0d:
         9b:45:27:73:ba:18:b7:2a:5f:98:81:35:37:af:8c:c7:4e:5d:
         2b:5c:6f:9f:19:21:a5:f0:de:fb:47:80:76:e7:65:09:56:73:
         63:4f:2c:24:b3:d7:fa:54:de:9b:19:35:57:0e:e2:8c:b0:e9:
         ff:6e:74:26:4e:dc:55:fe:77:66:82:2a:61:a7:e8:42:f4:f2:
         77:38:b4:18:4a:77:b0:c2:8f:fa:9a:3f:fc:96:e0:35:af:b8:
         05:9b:4e:4a:49:3e:89:f6:cc:f4:c5:93:1f:c5:66:40:00:17:
         77:79:4b:65:fb:09:0c:c4:be:49:b2:f9:60:8f:24:48:57:05:
         b3:2a:aa:66:d2:89:98:2b:75:97:6d:38:f3:fb:5c:1b:f7:91:
         c4:50:fd:e5:d4:6e:52:ab:c6:db:a1:f5:b8:37:9a:06:9a:91:
         56:9d:fd:14:13:24:66:0a:a0:91:b5:cd:95:87:f3:72:79:8f:
         86:ed:82:40:a9:47:6e:6a:c2:2d:c2:55:e0:ce:91:1f:18:88:
         8e:3c:0e:e6:df:26:5d:bc:be:2f:b1:73:af:b5:84:ee:e6:3a:
         83:7f:7d:cc:c4:54:82:29
-----BEGIN CERTIFICATE-----
MIIGrTCCBJWgAwIBAgICHeswDQYJKoZIhvcNAQEEBQAwgawxCzAJBgNVBAYTAlVT
MQswCQYDVQQIEwJPSDERMA8GA1UEBxMIQ29sdW1idXMxEjAQBgNVBAoTCVZpa2lu
Z1ZQTjEdMBsGA1UECxMUTXlPcmdhbml6YXRpb25hbFVuaXQxFTATBgNVBAMTDFZp
a2luZ1ZQTiBDQTEQMA4GA1UEKRMHRWFzeVJTQTEhMB8GCSqGSIb3DQEJARYSbWVA
bXlob3N0Lm15ZG9tYWluMB4XDTE2MDQwMzE1NTUzMloXDTI2MDQwMTE1NTUzMlow
HzEdMBsGA1UEAxMUQ2xpZW50MjE1MUNlcnQ3Yzk1YWYwggIiMA0GCSqGSIb3DQEB
AQUAA4ICDwAwggIKAoICAQC9PQURGy8v6ckKsJeeygvM2w3y/bV2Rpl3iE7Ob8+o
ctEOLTyaWr4EL8e9wcUXlpkD8vYQm4FKUBebodc1Rit8rynSPmTgHAzYcfyIyOzg
agvdWrE7PGq6SbC/Kn7yhaHxPmH+LnYHi+qdT8GO+8lGP2VEgDEirb6lLlH4rHyG
VnWat50RzSS8waF9UQ7AkH71OuljT92KRDuSwq77ZKyCMT7gl5FjRCu2x7tH9ZL3
LD372LirZhMWkdm4oVaXYkjM4YH3GrxlAdFTlCfGRdJo5XZrUu8fmgcBfeAg5ZvQ
wozGZN6lMCqUioL9fJR2AjdXltFDZYZTh5Dt/LQV8EbOv41GDKZa5RAb7DaqkLan
6oOYCw7cO7g1HnxHPrDIIRd2tbKlInpagnMPyleNpq0r53bL4Tccr/T5U29AiIV/
UrYgqn2HQhXV5UI3b5xqFmvP3rdUq76sqGwFQSGZqos5ORkc5Xl2FJkwUFd1bgCm
xzVIcz0V9qFHz+eXF5yair+uFhV5+hgu9oXRi5IcFOnO18K8x3j7bSwZPJ9eLtZu
9+0IkVf1LhoCfSBO3cLMh7AAj8QQKDgZaBuGR6VW6c3kXu+dzsxVUxpAcI3KdTso
bkjXs8xOv9EY1BFzKj0bRGwrnoqa+meoVu7sJqYSUeFUVSseDYJ/9WiEoDzN9ifO
owIDAQABo4IBYzCCAV8wCQYDVR0TBAIwADAtBglghkgBhvhCAQ0EIBYeRWFzeS1S
U0EgR2VuZXJhdGVkIENlcnRpZmljYXRlMB0GA1UdDgQWBBTBo3b+aWZcp4Phj2j5
HAZRMzd9JTCB4QYDVR0jBIHZMIHWgBQSzWAE0qCAnnDtxpm4eyzGUv0ZoaGBsqSB
rzCBrDELMAkGA1UEBhMCVVMxCzAJBgNVBAgTAk9IMREwDwYDVQQHEwhDb2x1bWJ1
czESMBAGA1UEChMJVmlraW5nVlBOMR0wGwYDVQQLExRNeU9yZ2FuaXphdGlvbmFs
VW5pdDEVMBMGA1UEAxMMVmlraW5nVlBOIENBMRAwDgYDVQQpEwdFYXN5UlNBMSEw
HwYJKoZIhvcNAQkBFhJtZUBteWhvc3QubXlkb21haW6CCQDPNYXugL8qPjATBgNV
HSUEDDAKBggrBgEFBQcDAjALBgNVHQ8EBAMCB4AwDQYJKoZIhvcNAQEEBQADggIB
AJnivArBXsJcdSYreppQ6iqNlyPBApGez7mhEIOJAE8cv9z/GDIyi+mKBXbiunrQ
B9NvCgonfx5jqPl0NOb7JfFo5AR1HN8U5exrknotgvWE8cQ1v1lxgzet4oh/Z1an
kH7gvQ73GnCaNVf1+VOJt3T3pjEEIZMUCXjZDFStisFEQNMVdaV4MEwcXL7gquTx
k43QdwoBf7ITfXBl2ZGb4mIB8Rw0iOFcKtWTzw5/LnHSQbk6ACtHUqOYGCyWFpHy
CFdYrEb3qu/U7lNTk5E8XRbEeo2v3MO1nUvahfmAjymwOSMRIMaP0PrJlvrR3A4o
4WTPm9cJv5eNe8pioNNrgW3htMhKnu/NAkMs+0pMHlry4ifcipXE07f7Tlum6dxO
DZtFJ3O6GLcqX5iBNTevjMdOXStcb58ZIaXw3vtHgHbnZQlWc2NPLCSz1/pU3psZ
NVcO4oyw6f9udCZO3FX+d2aCKmGn6EL08nc4tBhKd7DCj/qaP/yW4DWvuAWbTkpJ
Pon2zPTFkx/FZkAAF3d5S2X7CQzEvkmy+WCPJEhXBbMqqmbSiZgrdZdtOPP7XBv3
kcRQ/eXUblKrxtuh9bg3mgaakVad/RQTJGYKoJG1zZWH83J5j4btgkCpR25qwi3C
VeDOkR8YiI48DubfJl28vi+xc6+1hO7mOoN/fczEVIIp
-----END CERTIFICATE-----
