Certificate:
    Data:
        Version: 3 (0x2)
        Serial Number: 6820 (0x1aa4)
    Signature Algorithm: md5WithRSAEncryption
        Issuer: C=US, ST=OH, L=Columbus, O=VikingVPN, OU=MyOrganizationalUnit, CN=VikingVPN CA/name=EasyRSA/emailAddress=me@myhost.mydomain
        Validity
            Not Before: Nov 30 22:47:39 2015 GMT
            Not After : Nov 27 22:47:39 2025 GMT
        Subject: CN=Client2085Certcbee26
        Subject Public Key Info:
            Public Key Algorithm: rsaEncryption
                Public-Key: (4096 bit)
                Modulus:
                    00:df:9a:93:7e:ea:2b:a0:48:90:92:8a:bb:03:ac:
                    20:43:90:ab:9d:90:60:ab:dc:56:0d:12:57:fa:19:
                    10:4b:4f:1f:f5:01:b5:80:0b:97:78:39:9d:5a:10:
                    ac:d9:0a:9d:ce:bb:27:07:21:b6:37:07:83:93:27:
                    39:bc:fe:38:4f:6c:d4:f0:9f:5d:1c:88:72:8b:15:
                    76:ed:72:45:5d:5a:0d:db:4c:da:cf:8b:e1:17:ae:
                    b6:26:d6:5a:f5:cb:e6:28:d1:35:11:1c:75:35:d0:
                    f8:de:34:c1:44:e1:7f:a6:d0:65:d1:d0:62:65:85:
                    a0:6a:18:f6:1b:84:5a:f9:47:9f:4e:10:a6:9c:0b:
                    b5:3b:70:0e:11:e9:f1:f7:3f:05:6f:7a:f6:c0:9d:
                    80:7f:c3:2f:15:c9:76:04:6b:68:90:19:52:af:92:
                    dd:06:9a:03:ce:b7:39:30:42:73:ae:20:4a:e6:7f:
                    db:78:04:93:a1:32:86:40:60:fc:77:51:16:0d:03:
                    3d:f3:1e:21:33:35:79:87:3e:0b:71:0f:41:8f:6d:
                    c3:75:66:af:c6:29:f9:75:6e:13:d6:a4:50:34:63:
                    90:72:4c:e3:6f:69:27:bb:5b:51:67:48:2e:f6:de:
                    16:1b:45:12:52:47:2f:a6:e1:08:d7:f0:3f:59:ef:
                    b9:eb:9e:0e:e7:4b:f0:ac:7f:60:02:c9:b2:cc:fa:
                    d5:2e:5f:d7:cc:6c:bd:fe:96:3d:b2:63:db:54:fd:
                    fd:95:66:f2:27:14:6a:2f:1b:6f:e2:46:df:98:e4:
                    23:1d:e7:cc:ce:d3:71:af:41:f1:2e:2b:19:c1:2d:
                    9d:48:2e:32:cf:1a:54:a2:37:63:c2:e4:06:8a:db:
                    dd:0c:af:18:99:3d:75:75:a4:6e:24:b3:72:6d:85:
                    ae:7c:47:b1:ac:3d:af:a1:8f:d3:dd:38:b8:b4:f7:
                    07:15:fd:a2:04:3b:7b:c0:19:d5:9d:c0:ff:92:94:
                    ec:76:d6:b2:fc:00:3f:57:9a:b4:b3:3a:0f:b1:55:
                    7b:b7:1c:cb:32:e3:79:91:99:2a:85:1e:7c:09:d1:
                    cc:e7:99:ed:21:70:06:35:38:60:fd:f2:b1:ee:98:
                    80:6d:b2:80:04:5b:9f:7e:4f:6f:8f:33:d1:cb:6d:
                    17:a8:4f:cc:d8:39:40:5b:82:7b:bb:23:cd:15:28:
                    46:9b:71:5b:ab:97:c5:7f:34:cd:d3:95:e3:98:f6:
                    50:52:75:2b:ab:45:f4:e6:e7:2d:bc:2d:6f:47:f9:
                    27:31:f6:6c:3b:77:f7:d3:7d:7d:e7:0b:82:7e:78:
                    34:c1:82:9e:73:63:ea:e0:07:18:e6:a6:76:32:d6:
                    e4:57:d1
                Exponent: 65537 (0x10001)
        X509v3 extensions:
            X509v3 Basic Constraints: 
                CA:FALSE
            Netscape Comment: 
                Easy-RSA Generated Certificate
            X509v3 Subject Key Identifier: 
                CD:6A:C5:BC:EE:B3:67:22:05:0A:04:5D:33:55:23:8F:1E:D6:E5:75
            X509v3 Authority Key Identifier: 
                keyid:12:CD:60:04:D2:A0:80:9E:70:ED:C6:99:B8:7B:2C:C6:52:FD:19:A1
                DirName:/C=US/ST=OH/L=Columbus/O=VikingVPN/OU=MyOrganizationalUnit/CN=VikingVPN CA/name=EasyRSA/emailAddress=me@myhost.mydomain
                serial:CF:35:85:EE:80:BF:2A:3E

            X509v3 Extended Key Usage: 
                TLS Web Client Authentication
            X509v3 Key Usage: 
                Digital Signature
    Signature Algorithm: md5WithRSAEncryption
         98:e1:ad:be:53:f1:04:91:b8:8f:dc:f4:23:ec:55:47:cb:c7:
         8b:47:8a:36:9c:21:90:63:e3:bd:19:82:09:b8:11:50:14:88:
         1b:aa:6b:b1:2f:21:65:3e:e4:44:6d:70:31:ea:f1:5d:0c:60:
         65:fe:28:47:f8:02:da:14:83:5f:e1:ee:03:81:46:8d:b2:d3:
         5b:1f:86:b7:60:4b:7d:09:d1:3e:62:f1:c3:65:ab:dd:50:4c:
         26:31:12:24:1d:40:aa:5a:2f:3d:be:3f:31:07:33:21:c4:4f:
         0a:e3:ff:a9:00:f7:ee:50:81:2c:3a:61:a8:2b:b8:a3:82:fa:
         4e:e6:fe:87:d2:f1:5b:f6:02:31:d0:0f:35:af:56:cc:39:35:
         75:eb:27:2d:e8:ca:01:9a:b9:e9:4e:08:e4:b3:7c:9b:aa:ba:
         9e:e4:df:09:dc:b3:71:52:d8:ae:50:03:d1:ae:b9:01:97:79:
         eb:20:0e:c2:4c:08:f3:36:d8:3a:88:79:7f:42:e1:ed:8c:f8:
         04:95:dc:a7:aa:16:a3:75:ba:49:b1:0c:cc:60:f3:52:bb:d5:
         f0:b1:0c:6a:e7:4b:58:d6:17:99:bd:51:99:35:30:b6:5e:54:
         26:90:f1:76:cd:5e:d8:07:f9:0c:8d:5f:e9:d4:56:be:f6:06:
         eb:80:30:72:85:76:80:7c:b0:e8:3d:bb:24:23:a1:14:49:79:
         94:e3:6f:8b:1d:8c:84:6c:ff:a0:97:48:f0:25:ab:0f:20:63:
         e0:3e:13:b8:12:8c:99:3b:5b:2f:33:4b:95:18:aa:bb:02:b0:
         7a:e7:45:61:c0:41:45:de:05:5f:9d:3a:e1:80:84:58:79:ad:
         5e:6f:50:9f:c1:14:24:20:a8:22:a1:bb:bb:f4:db:4e:64:11:
         23:28:a8:e1:b9:bf:d6:14:6f:d7:df:36:bb:c2:bd:0a:dc:2b:
         3a:e6:c6:72:bc:86:0a:45:ac:c2:72:0c:dc:1f:7c:86:b7:63:
         fb:88:1e:88:29:71:96:57:85:eb:8a:41:ab:2f:3f:c3:bd:a8:
         b8:5c:ee:82:5d:8c:6b:00:a4:70:93:6c:dd:af:14:22:83:ac:
         d5:a2:84:07:0b:67:58:80:8b:9e:78:1f:59:99:7b:ae:c2:15:
         df:97:51:c6:92:a6:f9:bf:f2:1a:6c:58:a7:d0:05:df:0b:2b:
         4b:1b:bd:d5:6a:de:ce:4b:8f:d2:42:a7:46:ed:0b:d3:e3:cb:
         c0:9f:34:ce:a5:f2:7a:b1:18:34:b2:bf:ee:f5:90:db:44:7e:
         d9:af:f8:10:89:cd:55:37:fa:d7:ef:c5:46:b8:d5:b9:e7:67:
         93:8a:a9:51:25:d4:61:7a
-----BEGIN CERTIFICATE-----
MIIGrTCCBJWgAwIBAgICGqQwDQYJKoZIhvcNAQEEBQAwgawxCzAJBgNVBAYTAlVT
MQswCQYDVQQIEwJPSDERMA8GA1UEBxMIQ29sdW1idXMxEjAQBgNVBAoTCVZpa2lu
Z1ZQTjEdMBsGA1UECxMUTXlPcmdhbml6YXRpb25hbFVuaXQxFTATBgNVBAMTDFZp
a2luZ1ZQTiBDQTEQMA4GA1UEKRMHRWFzeVJTQTEhMB8GCSqGSIb3DQEJARYSbWVA
bXlob3N0Lm15ZG9tYWluMB4XDTE1MTEzMDIyNDczOVoXDTI1MTEyNzIyNDczOVow
HzEdMBsGA1UEAxMUQ2xpZW50MjA4NUNlcnRjYmVlMjYwggIiMA0GCSqGSIb3DQEB
AQUAA4ICDwAwggIKAoICAQDfmpN+6iugSJCSirsDrCBDkKudkGCr3FYNElf6GRBL
Tx/1AbWAC5d4OZ1aEKzZCp3OuycHIbY3B4OTJzm8/jhPbNTwn10ciHKLFXbtckVd
Wg3bTNrPi+EXrrYm1lr1y+Yo0TURHHU10PjeNMFE4X+m0GXR0GJlhaBqGPYbhFr5
R59OEKacC7U7cA4R6fH3PwVvevbAnYB/wy8VyXYEa2iQGVKvkt0GmgPOtzkwQnOu
IErmf9t4BJOhMoZAYPx3URYNAz3zHiEzNXmHPgtxD0GPbcN1Zq/GKfl1bhPWpFA0
Y5ByTONvaSe7W1FnSC723hYbRRJSRy+m4QjX8D9Z77nrng7nS/Csf2ACybLM+tUu
X9fMbL3+lj2yY9tU/f2VZvInFGovG2/iRt+Y5CMd58zO03GvQfEuKxnBLZ1ILjLP
GlSiN2PC5AaK290MrxiZPXV1pG4ks3Jtha58R7GsPa+hj9PdOLi09wcV/aIEO3vA
GdWdwP+SlOx21rL8AD9XmrSzOg+xVXu3HMsy43mRmSqFHnwJ0cznme0hcAY1OGD9
8rHumIBtsoAEW59+T2+PM9HLbReoT8zYOUBbgnu7I80VKEabcVurl8V/NM3TleOY
9lBSdSurRfTm5y28LW9H+Scx9mw7d/fTfX3nC4J+eDTBgp5zY+rgBxjmpnYy1uRX
0QIDAQABo4IBYzCCAV8wCQYDVR0TBAIwADAtBglghkgBhvhCAQ0EIBYeRWFzeS1S
U0EgR2VuZXJhdGVkIENlcnRpZmljYXRlMB0GA1UdDgQWBBTNasW87rNnIgUKBF0z
VSOPHtbldTCB4QYDVR0jBIHZMIHWgBQSzWAE0qCAnnDtxpm4eyzGUv0ZoaGBsqSB
rzCBrDELMAkGA1UEBhMCVVMxCzAJBgNVBAgTAk9IMREwDwYDVQQHEwhDb2x1bWJ1
czESMBAGA1UEChMJVmlraW5nVlBOMR0wGwYDVQQLExRNeU9yZ2FuaXphdGlvbmFs
VW5pdDEVMBMGA1UEAxMMVmlraW5nVlBOIENBMRAwDgYDVQQpEwdFYXN5UlNBMSEw
HwYJKoZIhvcNAQkBFhJtZUBteWhvc3QubXlkb21haW6CCQDPNYXugL8qPjATBgNV
HSUEDDAKBggrBgEFBQcDAjALBgNVHQ8EBAMCB4AwDQYJKoZIhvcNAQEEBQADggIB
AJjhrb5T8QSRuI/c9CPsVUfLx4tHijacIZBj470Zggm4EVAUiBuqa7EvIWU+5ERt
cDHq8V0MYGX+KEf4AtoUg1/h7gOBRo2y01sfhrdgS30J0T5i8cNlq91QTCYxEiQd
QKpaLz2+PzEHMyHETwrj/6kA9+5QgSw6YagruKOC+k7m/ofS8Vv2AjHQDzWvVsw5
NXXrJy3oygGauelOCOSzfJuqup7k3wncs3FS2K5QA9GuuQGXeesgDsJMCPM22DqI
eX9C4e2M+ASV3KeqFqN1ukmxDMxg81K71fCxDGrnS1jWF5m9UZk1MLZeVCaQ8XbN
XtgH+QyNX+nUVr72BuuAMHKFdoB8sOg9uyQjoRRJeZTjb4sdjIRs/6CXSPAlqw8g
Y+A+E7gSjJk7Wy8zS5UYqrsCsHrnRWHAQUXeBV+dOuGAhFh5rV5vUJ/BFCQgqCKh
u7v0205kESMoqOG5v9YUb9ffNrvCvQrcKzrmxnK8hgpFrMJyDNwffIa3Y/uIHogp
cZZXheuKQasvP8O9qLhc7oJdjGsApHCTbN2vFCKDrNWihAcLZ1iAi554H1mZe67C
Fd+XUcaSpvm/8hpsWKfQBd8LK0sbvdVq3s5Lj9JCp0btC9Pjy8CfNM6l8nqxGDSy
v+71kNtEftmv+BCJzVU3+tfvxUa41bnnZ5OKqVEl1GF6
-----END CERTIFICATE-----
