Certificate:
    Data:
        Version: 3 (0x2)
        Serial Number: 5076 (0x13d4)
    Signature Algorithm: md5WithRSAEncryption
        Issuer: C=US, ST=OH, L=Columbus, O=VikingVPN, OU=MyOrganizationalUnit, CN=VikingVPN CA/name=EasyRSA/emailAddress=me@myhost.mydomain
        Validity
            Not Before: Apr 25 04:14:32 2015 GMT
            Not After : Apr 22 04:14:32 2025 GMT
        Subject: CN=Client1640Cert313a03
        Subject Public Key Info:
            Public Key Algorithm: rsaEncryption
                Public-Key: (4096 bit)
                Modulus:
                    00:eb:0a:00:40:36:49:3f:5a:37:1b:ae:00:91:67:
                    fb:e0:12:67:a8:19:00:41:30:0e:fb:d7:cc:fa:47:
                    45:1a:54:30:68:42:79:08:0c:8b:17:09:c5:fe:38:
                    d8:6b:88:96:24:ab:44:6c:c3:ec:8e:0f:a3:00:81:
                    04:1f:60:f9:68:2a:bf:7e:bf:c3:d0:62:55:86:29:
                    00:6b:30:8f:cd:4b:cd:09:af:87:96:b6:c4:23:41:
                    78:78:8b:3e:64:f4:83:41:94:24:90:c1:30:5f:cf:
                    3d:72:e0:f2:00:73:61:a1:93:11:b4:2f:af:6b:1e:
                    dc:10:21:67:61:f5:fb:f8:9b:f6:7b:dc:39:96:f8:
                    41:ab:0f:29:0b:e4:f0:17:87:5d:a7:07:59:7c:0b:
                    44:d9:cd:c6:1e:37:ce:89:1d:25:90:0e:ea:58:a7:
                    46:ed:83:e5:b8:8e:42:38:b1:1b:a6:2c:fe:fb:b5:
                    e8:5f:c2:9f:a2:0a:9d:0d:3e:2f:7d:c2:00:df:ee:
                    97:83:e4:7f:e7:b0:d8:4e:95:7e:f9:ab:b2:63:32:
                    97:97:21:9a:de:cb:c6:a3:cb:af:69:e3:28:e6:90:
                    9b:6c:c8:0e:bd:c3:8e:3a:f8:e4:f1:64:e5:e6:91:
                    03:93:76:c4:da:fc:4b:13:a0:48:9f:a8:5c:82:95:
                    af:b6:e9:1a:99:ea:f1:50:2f:d0:f3:70:df:9c:da:
                    fc:a3:a6:d0:e5:9b:b0:6f:80:d1:e8:02:a9:96:33:
                    73:4d:20:a9:59:84:5e:25:93:2c:2b:15:94:2c:b1:
                    0c:6a:b1:ed:33:45:b6:ac:d2:3a:17:bd:1b:ca:c5:
                    18:6a:6c:13:c2:34:a1:1c:e6:0e:96:b3:06:11:f8:
                    0e:2d:01:71:88:73:94:87:0c:ee:79:4a:a6:c3:6d:
                    37:e4:54:83:5f:2d:2c:59:04:6f:a1:5f:36:0c:44:
                    99:d9:2b:ed:5b:8c:5b:16:48:ae:d3:14:f5:bb:56:
                    33:25:f0:d4:87:25:19:1a:4b:01:7b:df:9a:ca:0a:
                    b8:b4:10:d5:ee:3a:10:47:40:0c:c8:d7:6b:4b:95:
                    4f:0f:b9:4d:8b:af:74:e3:9b:f8:fc:ac:b7:21:1d:
                    57:46:1a:4a:ee:99:e6:c2:cb:9d:80:0a:b0:22:b0:
                    ba:7a:df:77:8c:71:8e:ec:d5:5d:94:82:eb:66:38:
                    e8:01:3e:e2:20:2f:ac:0d:5a:43:72:ae:02:e2:51:
                    fd:ad:79:55:8c:52:28:9a:1f:71:98:02:af:94:21:
                    74:c0:c0:a2:a5:40:4e:a2:2d:27:7d:d5:d1:b1:d6:
                    3e:1d:ad:0a:3e:7b:71:4c:63:7d:8d:57:fa:47:38:
                    f4:51:79
                Exponent: 65537 (0x10001)
        X509v3 extensions:
            X509v3 Basic Constraints: 
                CA:FALSE
            Netscape Comment: 
                Easy-RSA Generated Certificate
            X509v3 Subject Key Identifier: 
                18:E3:C5:04:CC:46:40:E1:CD:A1:E8:E8:D4:50:0D:49:CF:E4:B2:B1
            X509v3 Authority Key Identifier: 
                keyid:12:CD:60:04:D2:A0:80:9E:70:ED:C6:99:B8:7B:2C:C6:52:FD:19:A1
                DirName:/C=US/ST=OH/L=Columbus/O=VikingVPN/OU=MyOrganizationalUnit/CN=VikingVPN CA/name=EasyRSA/emailAddress=me@myhost.mydomain
                serial:CF:35:85:EE:80:BF:2A:3E

            X509v3 Extended Key Usage: 
                TLS Web Client Authentication
            X509v3 Key Usage: 
                Digital Signature
    Signature Algorithm: md5WithRSAEncryption
         0a:19:e8:b4:e7:cb:51:b8:b9:25:0b:20:f2:dc:3e:7f:93:2e:
         43:7b:69:13:2a:63:fb:bd:ef:0b:1c:21:71:23:e2:f1:1b:40:
         f1:23:89:c4:b8:07:20:2e:21:b0:52:ad:d2:95:47:4e:c9:55:
         6c:6a:7a:8c:c7:35:d7:08:6a:c9:1b:79:23:54:85:a2:fa:56:
         84:48:ce:09:07:c0:8e:c1:59:7a:1a:99:3a:40:9d:77:93:54:
         76:15:cf:95:a8:8c:15:85:ab:34:28:f9:f3:40:a4:1f:31:c0:
         fb:76:fc:df:6c:cf:27:31:32:47:2b:83:2f:47:3e:f4:49:a0:
         18:39:8e:79:93:49:e7:84:67:59:2e:a7:5e:c4:e9:f0:38:e6:
         87:94:b7:27:6f:06:c1:f9:8f:cd:b0:75:5a:91:a1:d5:57:a5:
         34:c7:5f:f4:a5:dd:90:c0:e8:6a:65:e2:e6:33:59:47:ef:e4:
         9c:47:bd:f8:62:01:11:af:3a:ec:da:ec:d3:70:e4:d3:0d:61:
         cb:59:f5:d1:82:0e:33:44:83:f9:f1:3d:ba:ae:b7:59:9a:ac:
         60:83:b8:80:71:be:97:34:4d:3b:8f:84:aa:52:13:13:52:48:
         bd:91:c9:3a:c2:95:38:94:22:73:e7:04:5b:8a:04:1c:ae:32:
         93:09:88:1c:3b:ae:2b:44:4b:9d:d1:5a:d5:54:db:8f:72:79:
         ef:61:49:da:54:55:f0:96:e9:fc:41:b8:06:03:72:96:9d:21:
         b3:70:98:09:2c:02:32:d7:c2:2a:e9:5c:f6:fe:f2:2d:c1:1f:
         08:f1:79:09:de:9e:0d:25:ec:44:b4:91:0a:0a:85:de:00:dd:
         2b:0f:fc:f5:b3:a0:bd:e8:fb:09:c5:e8:6e:52:f9:f9:ec:a2:
         3a:b2:0b:4a:2a:78:d3:e3:45:57:5a:4c:68:8c:f7:c0:79:bd:
         30:84:24:e6:98:63:92:81:9e:57:e2:ec:79:4a:55:60:84:c7:
         e1:0f:53:23:54:90:d2:83:2d:88:53:f0:c7:b1:34:d5:38:29:
         2c:2a:93:1c:2d:51:c2:68:9e:e5:ef:f9:74:ac:68:20:3c:27:
         91:98:3f:a0:61:71:03:40:cf:3c:17:68:87:66:74:01:4e:72:
         4a:29:0c:5a:52:2b:b7:1d:07:98:5a:15:18:8e:33:de:36:9f:
         f9:0d:73:94:31:20:35:a9:6f:56:3e:58:68:4a:ab:b3:0c:20:
         00:ba:3b:e1:79:0d:17:76:d0:49:01:01:45:2f:05:58:5b:43:
         9e:da:ad:68:69:3d:e3:29:6f:5d:c4:95:88:13:11:7b:0c:f2:
         48:13:f8:42:74:cc:ac:8d
-----BEGIN CERTIFICATE-----
MIIGrTCCBJWgAwIBAgICE9QwDQYJKoZIhvcNAQEEBQAwgawxCzAJBgNVBAYTAlVT
MQswCQYDVQQIEwJPSDERMA8GA1UEBxMIQ29sdW1idXMxEjAQBgNVBAoTCVZpa2lu
Z1ZQTjEdMBsGA1UECxMUTXlPcmdhbml6YXRpb25hbFVuaXQxFTATBgNVBAMTDFZp
a2luZ1ZQTiBDQTEQMA4GA1UEKRMHRWFzeVJTQTEhMB8GCSqGSIb3DQEJARYSbWVA
bXlob3N0Lm15ZG9tYWluMB4XDTE1MDQyNTA0MTQzMloXDTI1MDQyMjA0MTQzMlow
HzEdMBsGA1UEAxMUQ2xpZW50MTY0MENlcnQzMTNhMDMwggIiMA0GCSqGSIb3DQEB
AQUAA4ICDwAwggIKAoICAQDrCgBANkk/WjcbrgCRZ/vgEmeoGQBBMA7718z6R0Ua
VDBoQnkIDIsXCcX+ONhriJYkq0Rsw+yOD6MAgQQfYPloKr9+v8PQYlWGKQBrMI/N
S80Jr4eWtsQjQXh4iz5k9INBlCSQwTBfzz1y4PIAc2GhkxG0L69rHtwQIWdh9fv4
m/Z73DmW+EGrDykL5PAXh12nB1l8C0TZzcYeN86JHSWQDupYp0btg+W4jkI4sRum
LP77tehfwp+iCp0NPi99wgDf7peD5H/nsNhOlX75q7JjMpeXIZrey8ajy69p4yjm
kJtsyA69w446+OTxZOXmkQOTdsTa/EsToEifqFyCla+26RqZ6vFQL9DzcN+c2vyj
ptDlm7BvgNHoAqmWM3NNIKlZhF4lkywrFZQssQxqse0zRbas0joXvRvKxRhqbBPC
NKEc5g6WswYR+A4tAXGIc5SHDO55SqbDbTfkVINfLSxZBG+hXzYMRJnZK+1bjFsW
SK7TFPW7VjMl8NSHJRkaSwF735rKCri0ENXuOhBHQAzI12tLlU8PuU2Lr3Tjm/j8
rLchHVdGGkrumebCy52ACrAisLp633eMcY7s1V2UgutmOOgBPuIgL6wNWkNyrgLi
Uf2teVWMUiiaH3GYAq+UIXTAwKKlQE6iLSd91dGx1j4drQo+e3FMY32NV/pHOPRR
eQIDAQABo4IBYzCCAV8wCQYDVR0TBAIwADAtBglghkgBhvhCAQ0EIBYeRWFzeS1S
U0EgR2VuZXJhdGVkIENlcnRpZmljYXRlMB0GA1UdDgQWBBQY48UEzEZA4c2h6OjU
UA1Jz+SysTCB4QYDVR0jBIHZMIHWgBQSzWAE0qCAnnDtxpm4eyzGUv0ZoaGBsqSB
rzCBrDELMAkGA1UEBhMCVVMxCzAJBgNVBAgTAk9IMREwDwYDVQQHEwhDb2x1bWJ1
czESMBAGA1UEChMJVmlraW5nVlBOMR0wGwYDVQQLExRNeU9yZ2FuaXphdGlvbmFs
VW5pdDEVMBMGA1UEAxMMVmlraW5nVlBOIENBMRAwDgYDVQQpEwdFYXN5UlNBMSEw
HwYJKoZIhvcNAQkBFhJtZUBteWhvc3QubXlkb21haW6CCQDPNYXugL8qPjATBgNV
HSUEDDAKBggrBgEFBQcDAjALBgNVHQ8EBAMCB4AwDQYJKoZIhvcNAQEEBQADggIB
AAoZ6LTny1G4uSULIPLcPn+TLkN7aRMqY/u97wscIXEj4vEbQPEjicS4ByAuIbBS
rdKVR07JVWxqeozHNdcIaskbeSNUhaL6VoRIzgkHwI7BWXoamTpAnXeTVHYVz5Wo
jBWFqzQo+fNApB8xwPt2/N9szycxMkcrgy9HPvRJoBg5jnmTSeeEZ1kup17E6fA4
5oeUtydvBsH5j82wdVqRodVXpTTHX/Sl3ZDA6Gpl4uYzWUfv5JxHvfhiARGvOuza
7NNw5NMNYctZ9dGCDjNEg/nxPbqut1marGCDuIBxvpc0TTuPhKpSExNSSL2RyTrC
lTiUInPnBFuKBByuMpMJiBw7ritES53RWtVU249yee9hSdpUVfCW6fxBuAYDcpad
IbNwmAksAjLXwirpXPb+8i3BHwjxeQneng0l7ES0kQoKhd4A3SsP/PWzoL3o+wnF
6G5S+fnsojqyC0oqeNPjRVdaTGiM98B5vTCEJOaYY5KBnlfi7HlKVWCEx+EPUyNU
kNKDLYhT8MexNNU4KSwqkxwtUcJonuXv+XSsaCA8J5GYP6BhcQNAzzwXaIdmdAFO
ckopDFpSK7cdB5haFRiOM942n/kNc5QxIDWpb1Y+WGhKq7MMIAC6O+F5DRd20EkB
AUUvBVhbQ57arWhpPeMpb13ElYgTEXsM8kgT+EJ0zKyN
-----END CERTIFICATE-----
