Certificate:
    Data:
        Version: 3 (0x2)
        Serial Number: 10870 (0x2a76)
    Signature Algorithm: sha256WithRSAEncryption
        Issuer: C=US, ST=OH, L=Columbus, O=VikingVPN, OU=MyOrganizationalUnit, CN=VikingVPN CA/name=EasyRSA/emailAddress=me@myhost.mydomain
        Validity
            Not Before: May  4 03:31:24 2017 GMT
            Not After : May  2 03:31:24 2027 GMT
        Subject: CN=Client2897Cert298678
        Subject Public Key Info:
            Public Key Algorithm: rsaEncryption
                Public-Key: (4096 bit)
                Modulus:
                    00:bd:e6:b0:04:9f:a1:f5:11:fb:a4:09:01:1e:b4:
                    9f:38:a6:71:e2:b0:be:b6:d7:8c:26:26:95:6f:e5:
                    7d:09:6f:b3:3b:8f:13:f4:07:a7:1e:59:45:55:3d:
                    81:b9:13:af:97:23:09:7a:9e:fd:cf:09:86:a3:07:
                    a0:48:c1:bd:4f:17:02:4e:2a:64:36:06:e6:16:4b:
                    f4:08:fe:00:24:3d:67:07:17:0d:82:2b:f5:34:ec:
                    37:d1:d9:e4:94:a5:09:dd:d1:66:98:f9:8c:f1:62:
                    41:05:28:63:de:61:da:34:40:e7:09:dc:f1:03:b1:
                    0b:c2:11:05:60:dd:ba:66:b0:76:00:07:4b:d2:0f:
                    7b:3a:e9:f8:cb:5d:fa:1d:6a:33:2c:28:c6:48:66:
                    6d:15:5e:90:15:d5:90:42:7e:52:05:cf:60:51:f6:
                    e4:4d:a3:55:8d:ed:d1:56:77:8b:03:0b:cc:68:96:
                    94:11:01:c6:49:b7:84:b8:ce:51:a9:7c:8d:88:b4:
                    63:3d:fd:f0:dd:1a:07:cb:b2:b1:87:a2:b4:be:15:
                    79:bc:e0:0a:be:97:fd:e2:be:01:f6:d6:0d:ab:cb:
                    ec:82:05:eb:98:fb:15:37:4e:4f:1e:53:42:4e:ab:
                    7f:b7:b2:79:3a:d7:fc:5d:0e:f8:5d:ce:9e:29:9b:
                    e6:9c:7e:4d:4f:f9:d5:f8:f3:a9:7a:b7:11:e3:19:
                    93:bb:11:52:15:98:ef:d6:a4:ee:83:f7:cf:d6:7e:
                    89:68:d5:61:d6:77:e5:04:fb:4f:ca:6a:34:ad:7b:
                    85:37:bc:7e:ba:0d:19:09:37:ee:92:b2:d8:b6:79:
                    74:f5:a4:1a:54:b1:0a:99:68:5e:fa:14:05:c8:d7:
                    be:d5:77:52:22:c6:d9:24:36:50:55:f1:0e:ca:93:
                    78:e6:8d:a3:c0:8c:d5:4e:16:92:b4:b9:88:21:3a:
                    11:c9:bc:3f:e7:54:84:e0:91:c4:e8:ea:8b:8d:a2:
                    90:e2:e4:02:3a:42:46:be:47:d4:5e:74:94:a6:80:
                    70:a2:df:95:c8:2a:94:a9:50:90:97:6d:af:98:11:
                    8a:f4:3b:e3:a8:e2:c8:7a:7a:8e:88:a9:4d:a4:16:
                    a2:e1:c7:87:ee:d5:58:96:86:d2:10:e9:e2:25:6a:
                    b5:80:d2:ca:da:85:b8:54:3d:38:34:51:c4:19:29:
                    b4:bf:cf:ef:79:4b:aa:5d:be:59:1f:1b:4d:3e:8f:
                    08:42:36:6a:16:27:ab:07:98:7d:93:59:d2:dd:35:
                    5a:63:98:89:54:11:76:80:6a:35:96:ac:6d:cb:96:
                    e0:f6:4d:e0:44:84:86:de:ac:f9:38:44:88:67:3b:
                    01:5d:bd
                Exponent: 65537 (0x10001)
        X509v3 extensions:
            X509v3 Basic Constraints: 
                CA:FALSE
            Netscape Comment: 
                Easy-RSA Generated Certificate
            X509v3 Subject Key Identifier: 
                FA:63:1D:6C:F5:B7:E8:52:EA:6C:61:83:41:A5:EE:8D:A6:70:62:FB
            X509v3 Authority Key Identifier: 
                keyid:12:CD:60:04:D2:A0:80:9E:70:ED:C6:99:B8:7B:2C:C6:52:FD:19:A1
                DirName:/C=US/ST=OH/L=Columbus/O=VikingVPN/OU=MyOrganizationalUnit/CN=VikingVPN CA/name=EasyRSA/emailAddress=me@myhost.mydomain
                serial:CF:35:85:EE:80:BF:2A:3E

            X509v3 Extended Key Usage: 
                TLS Web Client Authentication
            X509v3 Key Usage: 
                Digital Signature
    Signature Algorithm: sha256WithRSAEncryption
         05:7a:f9:58:12:0f:fe:60:11:68:be:25:6f:bb:cc:b0:6f:92:
         77:05:47:6a:d4:2a:d6:bb:2e:de:91:ad:e1:af:ce:ca:ed:ba:
         0d:90:52:f2:06:de:f9:1b:98:0b:d9:75:47:4e:d3:50:1a:3b:
         d8:51:74:24:ed:f0:c7:26:b2:ca:f8:dd:8e:54:6d:1d:e4:6d:
         91:b3:20:68:51:66:e5:6c:56:14:dc:ba:aa:ef:1a:10:8b:c7:
         a3:95:49:77:c2:f0:92:bd:da:11:fc:c0:03:8c:b5:dc:f7:0c:
         9c:d6:b7:f5:58:8b:f7:74:f8:1d:54:9f:c3:f6:b6:32:af:6f:
         1b:7c:2f:4e:99:da:b6:dc:99:89:fa:ed:b6:1e:7c:da:c8:c4:
         95:2f:24:03:5b:34:7c:df:d2:96:6f:0b:66:87:2b:60:65:41:
         63:5e:65:8b:7b:d3:90:4b:4b:f7:ee:e2:65:29:81:f2:88:5b:
         15:1e:05:30:f7:dd:36:28:36:17:5e:8d:5c:47:ba:b7:a4:9b:
         8d:ce:43:e2:05:bd:62:02:19:43:f1:c1:7a:92:a7:85:59:9f:
         9d:b9:b2:6a:99:87:c4:65:c9:bd:f3:26:16:c5:8f:f3:0f:70:
         34:0c:94:5e:23:b4:5a:a2:d1:2b:3c:88:48:44:df:69:72:f9:
         e6:5a:86:17:91:d7:18:d6:27:20:04:6d:10:c8:23:96:98:25:
         6f:3e:6f:09:47:9e:43:62:a4:3a:ce:58:d6:3f:66:6b:a8:d6:
         55:54:94:8f:7f:0a:ac:f4:c7:61:4c:d7:d9:5f:d3:82:4a:54:
         a0:80:e5:41:a5:0a:4e:e4:a0:87:1c:85:1d:54:1b:6e:3a:8c:
         e2:97:9c:95:3a:ca:c3:4e:bf:6f:13:2f:0d:cc:bc:a1:46:a1:
         a7:82:a1:0b:d0:33:67:ed:3d:ad:2c:81:a6:69:eb:ff:6e:1b:
         45:c8:af:43:69:fd:a0:0c:38:bb:7f:bb:49:74:52:7a:a1:ba:
         85:84:cd:5a:0b:e0:11:22:ea:4f:53:df:8d:76:96:0c:f6:1d:
         a4:a6:46:4c:f6:9e:5c:58:c7:18:eb:76:27:30:cb:bd:18:31:
         dd:92:6e:ec:22:d2:dc:58:76:2f:d3:16:82:ba:32:23:3b:68:
         1b:06:b4:97:c5:dd:d0:f2:b7:7b:a1:4b:83:3a:82:64:af:6a:
         f1:68:47:4b:10:48:ad:34:da:54:99:6b:a9:52:fe:ac:8d:b8:
         35:46:57:12:11:12:bf:a7:81:cc:1c:37:bc:dd:dc:2f:f0:52:
         25:80:c6:c1:dc:99:89:21:76:b2:5b:0f:54:71:b2:d7:c0:78:
         70:43:ea:e7:6d:c2:69:a5
-----BEGIN CERTIFICATE-----
MIIGrTCCBJWgAwIBAgICKnYwDQYJKoZIhvcNAQELBQAwgawxCzAJBgNVBAYTAlVT
MQswCQYDVQQIEwJPSDERMA8GA1UEBxMIQ29sdW1idXMxEjAQBgNVBAoTCVZpa2lu
Z1ZQTjEdMBsGA1UECxMUTXlPcmdhbml6YXRpb25hbFVuaXQxFTATBgNVBAMTDFZp
a2luZ1ZQTiBDQTEQMA4GA1UEKRMHRWFzeVJTQTEhMB8GCSqGSIb3DQEJARYSbWVA
bXlob3N0Lm15ZG9tYWluMB4XDTE3MDUwNDAzMzEyNFoXDTI3MDUwMjAzMzEyNFow
HzEdMBsGA1UEAxMUQ2xpZW50Mjg5N0NlcnQyOTg2NzgwggIiMA0GCSqGSIb3DQEB
AQUAA4ICDwAwggIKAoICAQC95rAEn6H1EfukCQEetJ84pnHisL6214wmJpVv5X0J
b7M7jxP0B6ceWUVVPYG5E6+XIwl6nv3PCYajB6BIwb1PFwJOKmQ2BuYWS/QI/gAk
PWcHFw2CK/U07DfR2eSUpQnd0WaY+YzxYkEFKGPeYdo0QOcJ3PEDsQvCEQVg3bpm
sHYAB0vSD3s66fjLXfodajMsKMZIZm0VXpAV1ZBCflIFz2BR9uRNo1WN7dFWd4sD
C8xolpQRAcZJt4S4zlGpfI2ItGM9/fDdGgfLsrGHorS+FXm84Aq+l/3ivgH21g2r
y+yCBeuY+xU3Tk8eU0JOq3+3snk61/xdDvhdzp4pm+acfk1P+dX486l6txHjGZO7
EVIVmO/WpO6D98/Wfolo1WHWd+UE+0/KajSte4U3vH66DRkJN+6Ssti2eXT1pBpU
sQqZaF76FAXI177Vd1IixtkkNlBV8Q7Kk3jmjaPAjNVOFpK0uYghOhHJvD/nVITg
kcTo6ouNopDi5AI6Qka+R9RedJSmgHCi35XIKpSpUJCXba+YEYr0O+Oo4sh6eo6I
qU2kFqLhx4fu1ViWhtIQ6eIlarWA0srahbhUPTg0UcQZKbS/z+95S6pdvlkfG00+
jwhCNmoWJ6sHmH2TWdLdNVpjmIlUEXaAajWWrG3LluD2TeBEhIberPk4RIhnOwFd
vQIDAQABo4IBYzCCAV8wCQYDVR0TBAIwADAtBglghkgBhvhCAQ0EIBYeRWFzeS1S
U0EgR2VuZXJhdGVkIENlcnRpZmljYXRlMB0GA1UdDgQWBBT6Yx1s9bfoUupsYYNB
pe6NpnBi+zCB4QYDVR0jBIHZMIHWgBQSzWAE0qCAnnDtxpm4eyzGUv0ZoaGBsqSB
rzCBrDELMAkGA1UEBhMCVVMxCzAJBgNVBAgTAk9IMREwDwYDVQQHEwhDb2x1bWJ1
czESMBAGA1UEChMJVmlraW5nVlBOMR0wGwYDVQQLExRNeU9yZ2FuaXphdGlvbmFs
VW5pdDEVMBMGA1UEAxMMVmlraW5nVlBOIENBMRAwDgYDVQQpEwdFYXN5UlNBMSEw
HwYJKoZIhvcNAQkBFhJtZUBteWhvc3QubXlkb21haW6CCQDPNYXugL8qPjATBgNV
HSUEDDAKBggrBgEFBQcDAjALBgNVHQ8EBAMCB4AwDQYJKoZIhvcNAQELBQADggIB
AAV6+VgSD/5gEWi+JW+7zLBvkncFR2rUKta7Lt6RreGvzsrtug2QUvIG3vkbmAvZ
dUdO01AaO9hRdCTt8Mcmssr43Y5UbR3kbZGzIGhRZuVsVhTcuqrvGhCLx6OVSXfC
8JK92hH8wAOMtdz3DJzWt/VYi/d0+B1Un8P2tjKvbxt8L06Z2rbcmYn67bYefNrI
xJUvJANbNHzf0pZvC2aHK2BlQWNeZYt705BLS/fu4mUpgfKIWxUeBTD33TYoNhde
jVxHurekm43OQ+IFvWICGUPxwXqSp4VZn525smqZh8Rlyb3zJhbFj/MPcDQMlF4j
tFqi0Ss8iEhE32ly+eZahheR1xjWJyAEbRDII5aYJW8+bwlHnkNipDrOWNY/Zmuo
1lVUlI9/Cqz0x2FM19lf04JKVKCA5UGlCk7koIcchR1UG246jOKXnJU6ysNOv28T
Lw3MvKFGoaeCoQvQM2ftPa0sgaZp6/9uG0XIr0Np/aAMOLt/u0l0UnqhuoWEzVoL
4BEi6k9T3412lgz2HaSmRkz2nlxYxxjrdicwy70YMd2Sbuwi0txYdi/TFoK6MiM7
aBsGtJfF3dDyt3uhS4M6gmSvavFoR0sQSK002lSZa6lS/qyNuDVGVxIREr+ngcwc
N7zd3C/wUiWAxsHcmYkhdrJbD1RxstfAeHBD6udtwmml
-----END CERTIFICATE-----
