Certificate:
    Data:
        Version: 3 (0x2)
        Serial Number: 12090 (0x2f3a)
    Signature Algorithm: sha256WithRSAEncryption
        Issuer: C=US, ST=OH, L=Columbus, O=VikingVPN, OU=MyOrganizationalUnit, CN=VikingVPN CA/name=EasyRSA/emailAddress=me@myhost.mydomain
        Validity
            Not Before: Nov  5 21:10:54 2017 GMT
            Not After : Nov  3 21:10:54 2027 GMT
        Subject: CN=Client3144Cert11ab76
        Subject Public Key Info:
            Public Key Algorithm: rsaEncryption
                Public-Key: (4096 bit)
                Modulus:
                    00:a5:d3:b9:c4:91:3d:54:b6:96:d3:b4:73:53:78:
                    3c:e3:9b:03:24:75:de:a1:c6:3d:6d:c9:d0:dc:1b:
                    b5:90:c8:55:71:a3:7c:b9:95:7e:69:cd:5a:cc:2a:
                    69:83:81:f3:09:3f:0b:67:f2:4c:50:22:45:df:d7:
                    e3:6e:db:51:66:84:b1:5c:8b:86:a1:58:23:33:71:
                    a1:0b:e6:1f:53:03:ff:ad:04:be:ed:8b:b6:8b:e8:
                    a6:42:6e:04:d2:c6:d9:6c:c1:30:10:39:a5:1a:2c:
                    22:f6:f6:a8:9f:22:33:1a:09:22:63:11:e5:96:17:
                    64:b9:15:c7:ab:79:17:14:a2:13:e2:f4:d6:68:b4:
                    9a:be:c5:3a:f0:7c:00:d8:bd:c4:dc:84:e9:4c:16:
                    29:d5:19:26:ab:12:3c:cd:6e:c9:bd:5d:14:79:52:
                    fb:8a:91:50:09:c1:ac:b3:53:4a:8a:d0:92:51:0d:
                    8d:97:1f:d0:ba:b7:0e:63:2e:29:9a:d9:1c:0b:7b:
                    8b:90:e7:a9:c2:83:f0:0a:ec:0e:0a:ed:04:77:2c:
                    d5:2a:38:34:e0:88:32:b0:05:cb:f0:c2:b6:ae:f6:
                    18:71:1f:6c:fa:70:44:d7:39:08:e9:1a:d6:40:28:
                    36:46:4a:6d:81:90:6f:4d:56:70:28:6e:19:ad:e6:
                    89:5c:68:5a:97:34:d1:3a:03:4e:6f:53:11:68:69:
                    5e:6a:04:89:2d:65:83:e2:ef:a9:14:3b:19:68:b5:
                    a5:b7:65:55:d1:c1:e5:99:ed:49:bb:57:f1:85:f7:
                    db:75:3b:3e:ca:b7:11:14:85:62:f4:66:75:ae:12:
                    07:c7:e1:20:c1:cb:a1:50:bc:12:39:ec:93:34:c9:
                    b7:dd:78:4d:3d:05:d7:ea:bc:7f:70:fd:12:45:90:
                    78:2f:4e:12:db:44:57:01:b8:7a:ec:30:df:d3:0d:
                    62:5a:b0:ac:25:f8:78:6c:96:ed:7b:17:24:29:aa:
                    b1:0b:6d:65:99:6d:7a:35:93:c1:52:96:cb:90:df:
                    39:e6:58:f6:35:b5:a4:4e:b6:1a:25:04:40:c3:98:
                    7f:d1:75:66:6d:ae:d5:17:5a:7a:9e:ab:a6:2c:de:
                    8a:06:60:6a:25:34:a1:16:03:63:a9:77:47:7e:44:
                    73:bb:eb:3a:2e:7d:ea:ce:97:7d:0b:08:d0:3b:1c:
                    3a:c6:ce:86:4a:30:75:05:4d:a3:f5:cb:68:6e:f3:
                    33:f4:9a:ba:c9:b9:3b:74:d5:88:9e:7c:27:d9:d8:
                    63:f8:ee:1e:0a:cf:c8:b7:fb:18:bb:55:a0:ba:38:
                    40:b7:59:66:69:07:80:a1:57:b4:f7:57:74:65:6d:
                    df:19:7d
                Exponent: 65537 (0x10001)
        X509v3 extensions:
            X509v3 Basic Constraints: 
                CA:FALSE
            Netscape Comment: 
                Easy-RSA Generated Certificate
            X509v3 Subject Key Identifier: 
                78:11:5A:06:81:DD:44:08:61:5E:7A:A8:D0:27:A8:EE:EF:34:32:8F
            X509v3 Authority Key Identifier: 
                keyid:12:CD:60:04:D2:A0:80:9E:70:ED:C6:99:B8:7B:2C:C6:52:FD:19:A1
                DirName:/C=US/ST=OH/L=Columbus/O=VikingVPN/OU=MyOrganizationalUnit/CN=VikingVPN CA/name=EasyRSA/emailAddress=me@myhost.mydomain
                serial:CF:35:85:EE:80:BF:2A:3E

            X509v3 Extended Key Usage: 
                TLS Web Client Authentication
            X509v3 Key Usage: 
                Digital Signature
    Signature Algorithm: sha256WithRSAEncryption
         8c:e7:d0:27:72:36:f3:c6:16:69:0b:bc:69:4a:7c:44:02:64:
         a8:89:9b:6e:fc:58:97:d2:a1:84:1f:e7:9b:26:4b:62:0c:4f:
         9d:19:14:1f:53:88:ce:46:48:5d:b0:b7:ab:f1:e8:5a:99:3d:
         88:9a:6f:b1:53:5f:db:a0:82:0a:ef:78:10:03:21:45:52:8f:
         b0:32:3b:b9:54:06:cd:65:d6:9e:29:58:36:1c:50:f1:93:fb:
         0a:14:ee:44:74:57:e0:ae:0c:57:f1:ae:1f:94:e7:ab:e1:8c:
         05:7e:07:cf:f5:fa:39:b6:e8:df:b9:24:ea:eb:20:79:69:51:
         18:8e:11:1a:38:d6:1b:09:6c:14:8b:66:9a:02:48:6c:ce:a5:
         0f:28:3f:d3:57:4c:cc:46:da:3d:d2:dd:20:e6:d7:63:b6:0a:
         ec:56:71:cf:84:7d:8a:69:ac:44:54:82:09:d7:be:9d:ac:ac:
         eb:26:5d:e0:71:ef:8c:90:34:3d:fa:97:2c:01:88:59:c8:f8:
         e6:11:4c:ff:d6:13:2f:ae:05:25:2e:21:cb:39:84:dc:db:0d:
         f4:93:53:10:00:c0:ac:34:ca:b9:06:e9:19:0e:fc:97:bf:04:
         10:04:0a:a1:64:75:c0:d0:4b:4f:27:d4:81:a8:ae:82:d3:4a:
         f0:ef:9b:83:3b:a3:17:1b:e2:3b:4d:fc:fb:28:6a:8a:e7:dd:
         07:38:fc:bf:fa:33:e0:a4:17:c9:b3:48:ef:4a:75:f8:ff:b6:
         33:a6:16:24:61:0b:de:2b:85:1c:02:95:a3:f9:0c:6f:0d:6a:
         5c:98:74:8f:f0:ad:4d:77:0c:e9:c2:0f:86:a7:d2:1a:58:9f:
         5d:87:3b:e6:fd:f1:03:eb:8c:8f:36:d4:3b:95:93:1d:5a:a4:
         ea:9b:5d:ed:5b:b9:e6:1f:fa:39:58:be:97:92:f4:8b:e8:2a:
         cc:41:29:a9:0c:d1:5c:c7:ec:ca:19:4e:5b:f1:fc:1f:ea:c7:
         59:70:68:ef:01:8a:46:be:1f:aa:55:11:97:3c:37:e4:50:73:
         bf:0b:6b:0a:9c:cc:85:23:25:a0:d4:5e:0d:4a:06:8d:73:be:
         3b:05:da:ca:07:b4:c1:5b:b9:c2:48:d8:c0:54:94:a8:fc:37:
         ab:c9:37:d7:8a:83:6a:93:9d:2f:c4:b8:2f:a9:4a:88:de:5d:
         15:7c:da:6e:da:f7:4a:bd:8f:7c:20:08:ed:64:87:4c:35:fa:
         3e:de:40:62:fe:29:47:66:59:22:10:48:9c:94:da:8a:4c:1c:
         02:a1:dc:5f:55:99:c2:29:f6:63:1a:21:59:6a:25:47:ec:3f:
         54:15:03:43:f1:91:ca:26
-----BEGIN CERTIFICATE-----
MIIGrTCCBJWgAwIBAgICLzowDQYJKoZIhvcNAQELBQAwgawxCzAJBgNVBAYTAlVT
MQswCQYDVQQIEwJPSDERMA8GA1UEBxMIQ29sdW1idXMxEjAQBgNVBAoTCVZpa2lu
Z1ZQTjEdMBsGA1UECxMUTXlPcmdhbml6YXRpb25hbFVuaXQxFTATBgNVBAMTDFZp
a2luZ1ZQTiBDQTEQMA4GA1UEKRMHRWFzeVJTQTEhMB8GCSqGSIb3DQEJARYSbWVA
bXlob3N0Lm15ZG9tYWluMB4XDTE3MTEwNTIxMTA1NFoXDTI3MTEwMzIxMTA1NFow
HzEdMBsGA1UEAxMUQ2xpZW50MzE0NENlcnQxMWFiNzYwggIiMA0GCSqGSIb3DQEB
AQUAA4ICDwAwggIKAoICAQCl07nEkT1UtpbTtHNTeDzjmwMkdd6hxj1tydDcG7WQ
yFVxo3y5lX5pzVrMKmmDgfMJPwtn8kxQIkXf1+Nu21FmhLFci4ahWCMzcaEL5h9T
A/+tBL7ti7aL6KZCbgTSxtlswTAQOaUaLCL29qifIjMaCSJjEeWWF2S5FcereRcU
ohPi9NZotJq+xTrwfADYvcTchOlMFinVGSarEjzNbsm9XRR5UvuKkVAJwayzU0qK
0JJRDY2XH9C6tw5jLima2RwLe4uQ56nCg/AK7A4K7QR3LNUqODTgiDKwBcvwwrau
9hhxH2z6cETXOQjpGtZAKDZGSm2BkG9NVnAobhmt5olcaFqXNNE6A05vUxFoaV5q
BIktZYPi76kUOxlotaW3ZVXRweWZ7Um7V/GF99t1Oz7KtxEUhWL0ZnWuEgfH4SDB
y6FQvBI57JM0ybfdeE09BdfqvH9w/RJFkHgvThLbRFcBuHrsMN/TDWJasKwl+Hhs
lu17FyQpqrELbWWZbXo1k8FSlsuQ3znmWPY1taROtholBEDDmH/RdWZtrtUXWnqe
q6Ys3ooGYGolNKEWA2Opd0d+RHO76zouferOl30LCNA7HDrGzoZKMHUFTaP1y2hu
8zP0mrrJuTt01YiefCfZ2GP47h4Kz8i3+xi7VaC6OEC3WWZpB4ChV7T3V3Rlbd8Z
fQIDAQABo4IBYzCCAV8wCQYDVR0TBAIwADAtBglghkgBhvhCAQ0EIBYeRWFzeS1S
U0EgR2VuZXJhdGVkIENlcnRpZmljYXRlMB0GA1UdDgQWBBR4EVoGgd1ECGFeeqjQ
J6ju7zQyjzCB4QYDVR0jBIHZMIHWgBQSzWAE0qCAnnDtxpm4eyzGUv0ZoaGBsqSB
rzCBrDELMAkGA1UEBhMCVVMxCzAJBgNVBAgTAk9IMREwDwYDVQQHEwhDb2x1bWJ1
czESMBAGA1UEChMJVmlraW5nVlBOMR0wGwYDVQQLExRNeU9yZ2FuaXphdGlvbmFs
VW5pdDEVMBMGA1UEAxMMVmlraW5nVlBOIENBMRAwDgYDVQQpEwdFYXN5UlNBMSEw
HwYJKoZIhvcNAQkBFhJtZUBteWhvc3QubXlkb21haW6CCQDPNYXugL8qPjATBgNV
HSUEDDAKBggrBgEFBQcDAjALBgNVHQ8EBAMCB4AwDQYJKoZIhvcNAQELBQADggIB
AIzn0CdyNvPGFmkLvGlKfEQCZKiJm278WJfSoYQf55smS2IMT50ZFB9TiM5GSF2w
t6vx6FqZPYiab7FTX9ugggrveBADIUVSj7AyO7lUBs1l1p4pWDYcUPGT+woU7kR0
V+CuDFfxrh+U56vhjAV+B8/1+jm26N+5JOrrIHlpURiOERo41hsJbBSLZpoCSGzO
pQ8oP9NXTMxG2j3S3SDm12O2CuxWcc+EfYpprERUggnXvp2srOsmXeBx74yQND36
lywBiFnI+OYRTP/WEy+uBSUuIcs5hNzbDfSTUxAAwKw0yrkG6RkO/Je/BBAECqFk
dcDQS08n1IGoroLTSvDvm4M7oxcb4jtN/Psoaorn3Qc4/L/6M+CkF8mzSO9Kdfj/
tjOmFiRhC94rhRwClaP5DG8NalyYdI/wrU13DOnCD4an0hpYn12HO+b98QPrjI82
1DuVkx1apOqbXe1bueYf+jlYvpeS9IvoKsxBKakM0VzH7MoZTlvx/B/qx1lwaO8B
ika+H6pVEZc8N+RQc78LawqczIUjJaDUXg1KBo1zvjsF2soHtMFbucJI2MBUlKj8
N6vJN9eKg2qTnS/EuC+pSojeXRV82m7a90q9j3wgCO1kh0w1+j7eQGL+KUdmWSIQ
SJyU2opMHAKh3F9VmcIp9mMaIVlqJUfsP1QVA0Pxkcom
-----END CERTIFICATE-----
