Certificate:
    Data:
        Version: 3 (0x2)
        Serial Number: 3881 (0xf29)
    Signature Algorithm: md5WithRSAEncryption
        Issuer: C=US, ST=OH, L=Columbus, O=VikingVPN, OU=MyOrganizationalUnit, CN=VikingVPN CA/name=EasyRSA/emailAddress=me@myhost.mydomain
        Validity
            Not Before: Dec 29 21:45:22 2014 GMT
            Not After : Dec 26 21:45:22 2024 GMT
        Subject: CN=Client801Cert16205d
        Subject Public Key Info:
            Public Key Algorithm: rsaEncryption
                Public-Key: (4096 bit)
                Modulus:
                    00:9d:f4:71:e5:9d:ca:1b:86:fd:c6:5c:f2:d0:54:
                    a8:c0:34:9c:7b:40:84:0a:3c:c1:19:04:da:f4:1a:
                    34:06:09:a4:26:50:50:9d:5f:89:12:93:23:ad:ba:
                    81:f1:e8:53:54:1a:89:7b:5a:ad:18:d0:f8:71:28:
                    d3:a3:43:bf:f2:7a:97:ad:9e:b1:23:97:98:bc:22:
                    38:93:9f:53:a3:e4:f3:d5:ca:91:be:0c:21:44:47:
                    42:14:da:f2:9a:fb:cd:c5:54:69:85:09:ac:88:02:
                    6e:fd:bb:10:99:08:57:55:52:44:e8:34:51:b5:d8:
                    03:c4:c3:b8:67:40:1f:c4:c6:36:bf:9a:c3:47:e7:
                    50:8e:a6:e9:93:b1:d9:e5:de:c7:a1:fb:41:bb:87:
                    98:10:50:50:95:54:a3:8b:a1:40:9d:6b:2c:e6:90:
                    f0:89:15:c2:ef:96:eb:fa:4f:11:3d:fd:3b:fe:f6:
                    3e:bc:a6:18:59:d1:40:cf:50:8e:36:21:73:c9:5e:
                    3b:bd:f3:1c:84:7e:b7:f2:e9:ac:40:6e:6d:59:91:
                    ac:39:01:37:40:40:83:6a:4a:56:35:db:22:5f:18:
                    1b:ef:6f:4b:6e:e0:63:f8:3d:44:94:c8:e9:e2:9a:
                    f1:be:31:7a:ee:f8:82:9f:22:26:99:2c:78:69:8f:
                    41:af:69:b9:95:36:58:d8:f6:16:c2:01:e3:30:ee:
                    e1:24:6d:fe:70:42:a3:e8:31:25:e4:cf:8e:35:88:
                    1f:3a:be:50:cb:72:88:f5:f0:88:37:cc:27:69:0b:
                    30:32:f0:32:91:a0:bf:c5:6e:c0:74:af:32:a8:68:
                    86:dc:50:8e:64:b0:79:47:9f:f8:df:b3:6e:59:05:
                    80:92:f8:48:cd:66:32:69:ba:15:a2:a3:6c:94:58:
                    d0:eb:70:5d:aa:38:66:fd:1e:10:3c:25:c0:20:78:
                    2f:c3:9e:29:e4:28:b2:39:af:76:04:39:17:2d:96:
                    e6:a1:dc:74:1b:32:4d:e2:e4:ba:74:18:88:bf:15:
                    7e:87:65:91:50:d9:7b:e0:f1:10:7f:79:17:7f:94:
                    3c:94:cd:7f:84:f3:d0:35:a1:4b:11:1b:0f:96:d4:
                    96:eb:98:36:53:0b:fe:0c:54:f3:b3:22:ee:1e:7e:
                    c8:e3:b2:c3:a7:d1:01:2f:24:12:10:ea:85:df:7f:
                    ae:a6:67:de:78:11:46:75:98:f8:21:06:e3:19:40:
                    6d:20:c2:70:ef:3f:43:64:81:e6:d3:5e:ef:09:65:
                    f7:e7:72:e8:fd:66:7b:d5:db:e6:68:df:4f:30:6b:
                    cd:ba:fb:37:0d:ec:77:4f:cf:16:6f:1a:b2:5c:0b:
                    d3:2e:e9
                Exponent: 65537 (0x10001)
        X509v3 extensions:
            X509v3 Basic Constraints: 
                CA:FALSE
            Netscape Comment: 
                Easy-RSA Generated Certificate
            X509v3 Subject Key Identifier: 
                44:0D:94:D2:FC:31:43:0D:21:2F:D8:D2:F8:B5:FE:F7:AC:AB:E7:DF
            X509v3 Authority Key Identifier: 
                keyid:12:CD:60:04:D2:A0:80:9E:70:ED:C6:99:B8:7B:2C:C6:52:FD:19:A1
                DirName:/C=US/ST=OH/L=Columbus/O=VikingVPN/OU=MyOrganizationalUnit/CN=VikingVPN CA/name=EasyRSA/emailAddress=me@myhost.mydomain
                serial:CF:35:85:EE:80:BF:2A:3E

            X509v3 Extended Key Usage: 
                TLS Web Client Authentication
            X509v3 Key Usage: 
                Digital Signature
    Signature Algorithm: md5WithRSAEncryption
         55:42:5b:31:21:f2:55:de:e4:20:91:0c:24:7b:b9:3d:41:22:
         76:47:c8:4e:f7:8f:30:39:8b:b0:ec:c6:4e:0f:16:fa:54:e0:
         b0:41:86:c1:f1:86:c2:3c:5b:6b:90:64:e7:ec:5c:8e:75:2b:
         91:ab:1a:ce:eb:88:cd:87:ba:35:1a:33:80:93:4d:87:85:c5:
         aa:b5:cf:ec:b4:3d:36:2f:94:22:63:0e:5e:21:f1:ee:b4:31:
         16:47:00:be:a9:5d:5d:23:d9:d4:72:97:b4:ff:0f:80:2e:49:
         17:f9:ad:c8:5a:d2:a3:64:b0:0b:a7:92:4e:9c:77:f8:8c:ab:
         35:14:8f:22:84:cf:b5:1b:10:17:83:9c:fc:dd:ca:38:db:9e:
         a5:e4:3d:5c:24:08:73:c2:ee:f2:35:3e:3f:20:73:97:dd:18:
         29:c9:87:7d:51:6e:89:ae:ad:68:6c:0f:6b:0b:56:76:6c:54:
         50:6f:89:3f:28:53:25:3a:58:3f:0d:2d:02:03:22:46:8c:b2:
         1c:19:b9:17:14:f3:b3:bc:ce:ef:ee:89:6e:9a:c6:ac:04:c0:
         db:5b:b0:fa:6d:21:8a:25:3f:23:e9:74:7f:17:8d:31:0b:86:
         5b:37:a4:f5:90:ba:7f:d3:e7:69:f4:03:1c:2a:bf:8a:18:39:
         c6:a2:ec:65:ae:4d:fd:6a:eb:eb:d4:6a:47:78:36:a4:4c:41:
         55:2c:55:a1:ed:59:1b:22:51:27:14:d9:b7:d8:d7:95:43:84:
         9e:de:2b:4e:ec:96:36:69:74:cd:38:11:74:4f:84:44:ea:f5:
         37:47:68:7e:f2:f1:c6:92:da:08:05:a3:42:0b:ae:70:4d:67:
         33:cf:b2:6f:5b:60:c3:c9:68:e2:e9:3f:ff:3a:27:a3:c1:68:
         62:59:e8:2a:81:6b:ca:10:fd:c5:57:f0:77:1f:0f:f0:fd:0d:
         23:60:03:a0:fd:8d:8f:f6:f4:9a:34:4f:d3:07:52:a1:b9:20:
         0b:af:92:32:78:c9:a1:7f:88:33:c9:92:72:40:47:b6:41:6b:
         77:f9:36:51:1b:4a:3b:16:e2:cf:a3:df:17:21:d5:5c:c0:74:
         58:4f:da:c7:5f:c5:c0:af:a3:ca:88:85:6c:7e:af:23:fe:e5:
         15:53:2d:69:1c:66:f7:c6:78:58:26:ba:3a:4d:b8:51:01:e3:
         b6:2d:a8:9e:fc:16:21:31:e8:40:0f:ca:09:78:08:61:7e:7d:
         e7:dd:31:68:49:59:d3:95:55:7b:c4:62:41:c1:c1:2b:51:7e:
         15:01:0c:1a:6e:09:1b:8c:90:ef:cb:8a:17:8a:a4:4b:4c:9f:
         4f:24:5e:13:6f:76:e5:18
-----BEGIN CERTIFICATE-----
MIIGrDCCBJSgAwIBAgICDykwDQYJKoZIhvcNAQEEBQAwgawxCzAJBgNVBAYTAlVT
MQswCQYDVQQIEwJPSDERMA8GA1UEBxMIQ29sdW1idXMxEjAQBgNVBAoTCVZpa2lu
Z1ZQTjEdMBsGA1UECxMUTXlPcmdhbml6YXRpb25hbFVuaXQxFTATBgNVBAMTDFZp
a2luZ1ZQTiBDQTEQMA4GA1UEKRMHRWFzeVJTQTEhMB8GCSqGSIb3DQEJARYSbWVA
bXlob3N0Lm15ZG9tYWluMB4XDTE0MTIyOTIxNDUyMloXDTI0MTIyNjIxNDUyMlow
HjEcMBoGA1UEAxMTQ2xpZW50ODAxQ2VydDE2MjA1ZDCCAiIwDQYJKoZIhvcNAQEB
BQADggIPADCCAgoCggIBAJ30ceWdyhuG/cZc8tBUqMA0nHtAhAo8wRkE2vQaNAYJ
pCZQUJ1fiRKTI626gfHoU1QaiXtarRjQ+HEo06NDv/J6l62esSOXmLwiOJOfU6Pk
89XKkb4MIURHQhTa8pr7zcVUaYUJrIgCbv27EJkIV1VSROg0UbXYA8TDuGdAH8TG
Nr+aw0fnUI6m6ZOx2eXex6H7QbuHmBBQUJVUo4uhQJ1rLOaQ8IkVwu+W6/pPET39
O/72PrymGFnRQM9QjjYhc8leO73zHIR+t/LprEBubVmRrDkBN0BAg2pKVjXbIl8Y
G+9vS27gY/g9RJTI6eKa8b4xeu74gp8iJpkseGmPQa9puZU2WNj2FsIB4zDu4SRt
/nBCo+gxJeTPjjWIHzq+UMtyiPXwiDfMJ2kLMDLwMpGgv8VuwHSvMqhohtxQjmSw
eUef+N+zblkFgJL4SM1mMmm6FaKjbJRY0OtwXao4Zv0eEDwlwCB4L8OeKeQosjmv
dgQ5Fy2W5qHcdBsyTeLkunQYiL8VfodlkVDZe+DxEH95F3+UPJTNf4Tz0DWhSxEb
D5bUluuYNlML/gxU87Mi7h5+yOOyw6fRAS8kEhDqhd9/rqZn3ngRRnWY+CEG4xlA
bSDCcO8/Q2SB5tNe7wll9+dy6P1me9Xb5mjfTzBrzbr7Nw3sd0/PFm8aslwL0y7p
AgMBAAGjggFjMIIBXzAJBgNVHRMEAjAAMC0GCWCGSAGG+EIBDQQgFh5FYXN5LVJT
QSBHZW5lcmF0ZWQgQ2VydGlmaWNhdGUwHQYDVR0OBBYEFEQNlNL8MUMNIS/Y0vi1
/vesq+ffMIHhBgNVHSMEgdkwgdaAFBLNYATSoICecO3Gmbh7LMZS/RmhoYGypIGv
MIGsMQswCQYDVQQGEwJVUzELMAkGA1UECBMCT0gxETAPBgNVBAcTCENvbHVtYnVz
MRIwEAYDVQQKEwlWaWtpbmdWUE4xHTAbBgNVBAsTFE15T3JnYW5pemF0aW9uYWxV
bml0MRUwEwYDVQQDEwxWaWtpbmdWUE4gQ0ExEDAOBgNVBCkTB0Vhc3lSU0ExITAf
BgkqhkiG9w0BCQEWEm1lQG15aG9zdC5teWRvbWFpboIJAM81he6Avyo+MBMGA1Ud
JQQMMAoGCCsGAQUFBwMCMAsGA1UdDwQEAwIHgDANBgkqhkiG9w0BAQQFAAOCAgEA
VUJbMSHyVd7kIJEMJHu5PUEidkfITvePMDmLsOzGTg8W+lTgsEGGwfGGwjxba5Bk
5+xcjnUrkasazuuIzYe6NRozgJNNh4XFqrXP7LQ9Ni+UImMOXiHx7rQxFkcAvqld
XSPZ1HKXtP8PgC5JF/mtyFrSo2SwC6eSTpx3+IyrNRSPIoTPtRsQF4Oc/N3KONue
peQ9XCQIc8Lu8jU+PyBzl90YKcmHfVFuia6taGwPawtWdmxUUG+JPyhTJTpYPw0t
AgMiRoyyHBm5FxTzs7zO7+6JbprGrATA21uw+m0hiiU/I+l0fxeNMQuGWzek9ZC6
f9PnafQDHCq/ihg5xqLsZa5N/Wrr69RqR3g2pExBVSxVoe1ZGyJRJxTZt9jXlUOE
nt4rTuyWNml0zTgRdE+EROr1N0dofvLxxpLaCAWjQguucE1nM8+yb1tgw8lo4uk/
/zono8FoYlnoKoFryhD9xVfwdx8P8P0NI2ADoP2Nj/b0mjRP0wdSobkgC6+SMnjJ
oX+IM8mSckBHtkFrd/k2URtKOxbiz6PfFyHVXMB0WE/ax1/FwK+jyoiFbH6vI/7l
FVMtaRxm98Z4WCa6Ok24UQHjti2onvwWITHoQA/KCXgIYX59590xaElZ05VVe8Ri
QcHBK1F+FQEMGm4JG4yQ78uKF4qkS0yfTyReE2925Rg=
-----END CERTIFICATE-----
