Certificate:
    Data:
        Version: 3 (0x2)
        Serial Number: 10528 (0x2920)
    Signature Algorithm: sha256WithRSAEncryption
        Issuer: C=US, ST=OH, L=Columbus, O=VikingVPN, OU=MyOrganizationalUnit, CN=VikingVPN CA/name=EasyRSA/emailAddress=me@myhost.mydomain
        Validity
            Not Before: Apr  3 22:49:44 2017 GMT
            Not After : Apr  1 22:49:44 2027 GMT
        Subject: CN=Client2685Cert864b06
        Subject Public Key Info:
            Public Key Algorithm: rsaEncryption
                Public-Key: (4096 bit)
                Modulus:
                    00:c4:06:5a:57:2f:00:3d:8e:2f:8d:db:ac:34:93:
                    d7:db:2d:61:a2:90:62:64:42:55:64:aa:8a:05:10:
                    bb:ed:22:f3:1c:bd:60:3f:b9:cc:a3:e0:f7:ca:1a:
                    8d:55:24:78:0e:36:da:7f:f0:e5:ce:f7:b0:f0:91:
                    9a:f2:f8:7e:31:3b:00:ab:ee:e8:bd:26:11:28:3c:
                    e2:38:b7:cc:46:f8:03:d4:a2:7b:69:a1:cb:70:cd:
                    0f:46:84:ef:df:03:b5:b6:de:37:2a:ba:67:33:f8:
                    57:b8:a9:30:47:cb:13:3c:fd:71:a5:db:c9:b3:89:
                    ce:5c:24:d0:1c:40:63:b7:83:fc:86:d8:7e:3a:01:
                    11:d8:8c:b1:d5:5f:0c:23:de:dd:94:07:2d:5b:24:
                    4a:73:cf:f0:ca:10:20:11:00:63:1c:a9:75:e6:3a:
                    53:00:e4:b7:fc:31:37:c3:86:20:8a:04:bd:c7:d6:
                    c9:bf:aa:e2:dc:b9:fc:3f:cc:95:a8:df:dc:74:cb:
                    48:5a:99:cb:5c:89:39:c1:2f:81:c0:40:77:ea:fb:
                    f7:bf:08:25:b2:0c:87:8f:33:66:4a:2c:7c:17:df:
                    a5:e1:2f:16:f1:3d:d1:40:d3:ce:19:48:2e:4b:5b:
                    19:47:8f:dd:2f:eb:51:32:47:66:28:c4:1f:84:6f:
                    25:ec:9a:a7:5b:18:dc:0d:33:f6:0d:51:c3:60:6b:
                    d8:ca:49:58:38:56:75:45:52:17:38:11:e9:79:ab:
                    d4:9c:2b:60:ce:36:5e:ef:12:28:6b:6c:44:5d:a3:
                    af:32:b0:7b:ee:15:ce:5c:45:9c:77:8f:92:65:45:
                    de:32:2f:3e:71:d0:99:61:25:5b:f2:99:53:a0:5c:
                    4c:60:c0:d2:c2:64:90:75:4b:5b:5b:90:b9:4a:e5:
                    23:d7:94:65:d1:9c:2b:f1:6c:66:5f:c6:b3:01:02:
                    90:c8:b0:9e:20:98:09:29:76:72:3a:d1:ca:d5:19:
                    32:18:5e:16:18:32:aa:59:32:26:fe:18:db:8f:10:
                    03:9c:d9:69:74:76:34:ed:ca:db:b6:af:55:9d:4b:
                    94:50:39:49:9d:36:f8:50:01:69:6a:e7:df:92:fa:
                    31:0f:9c:26:d1:a2:ed:03:37:bb:2d:b9:c9:19:59:
                    e0:6d:87:81:82:37:e4:90:71:0c:3b:93:e3:1f:34:
                    6b:1f:31:f1:35:d0:5b:d0:54:40:17:ef:3c:90:f4:
                    53:88:51:3d:4d:24:ed:ee:54:a1:42:a3:03:69:8b:
                    a8:4d:df:75:8a:4d:d3:30:94:02:15:9b:7f:b2:a9:
                    e6:fa:cb:da:e1:0d:ca:f7:2f:3f:3e:44:4f:c3:6d:
                    61:75:b1
                Exponent: 65537 (0x10001)
        X509v3 extensions:
            X509v3 Basic Constraints: 
                CA:FALSE
            Netscape Comment: 
                Easy-RSA Generated Certificate
            X509v3 Subject Key Identifier: 
                18:D9:7E:D6:8B:B6:F3:8B:83:8C:00:F9:A0:26:46:92:BB:43:FB:A8
            X509v3 Authority Key Identifier: 
                keyid:12:CD:60:04:D2:A0:80:9E:70:ED:C6:99:B8:7B:2C:C6:52:FD:19:A1
                DirName:/C=US/ST=OH/L=Columbus/O=VikingVPN/OU=MyOrganizationalUnit/CN=VikingVPN CA/name=EasyRSA/emailAddress=me@myhost.mydomain
                serial:CF:35:85:EE:80:BF:2A:3E

            X509v3 Extended Key Usage: 
                TLS Web Client Authentication
            X509v3 Key Usage: 
                Digital Signature
    Signature Algorithm: sha256WithRSAEncryption
         a2:65:be:79:ac:f7:07:7b:cb:63:b7:c0:3b:b5:7e:78:a0:34:
         64:47:99:86:28:0e:4b:ed:da:4b:77:9e:42:d3:52:05:d8:a0:
         1a:ff:a9:2a:61:e4:69:3b:0a:7c:89:ba:00:34:d4:e6:ff:8c:
         f7:a6:31:18:be:64:2c:2f:bd:0a:63:bc:46:ac:3d:22:8e:14:
         92:3f:dd:c4:e8:68:39:dc:5b:41:b8:55:24:fd:8b:d3:04:21:
         a7:46:57:83:85:73:21:95:2c:7d:d2:1f:81:fb:ac:7b:a2:3e:
         a1:64:9f:33:cc:6a:ec:a7:13:35:37:d4:cd:b5:83:8e:47:63:
         75:84:a5:4d:a9:b0:68:03:48:5f:d8:86:47:cf:f1:55:9c:4b:
         99:b1:f3:74:6c:59:e3:26:99:2a:cb:6e:6c:85:e4:50:f6:2e:
         6e:72:13:49:6b:91:15:fe:68:b2:52:83:e3:a2:9a:e4:39:01:
         05:51:51:8c:4d:3f:ea:b5:80:f0:9f:ca:b6:4e:ca:68:de:3b:
         d3:39:db:bf:db:b4:08:94:5e:7b:62:df:29:f5:f9:70:64:02:
         73:c5:42:8e:e3:f2:47:9b:60:fc:33:ed:89:c2:13:79:7b:58:
         c5:c3:37:a3:b9:c7:8b:83:c2:6d:8c:4e:4f:5c:05:30:f4:e5:
         b0:8b:40:a8:72:42:e5:02:46:6e:b4:1c:5e:b3:2d:f5:49:19:
         7b:1d:88:ff:a4:81:1f:dd:5a:ed:59:6c:54:e8:aa:43:9a:1b:
         74:52:54:50:e3:b5:8f:2a:bd:60:69:1e:90:7f:ac:e8:c2:45:
         9a:5a:d3:7d:d3:9e:a5:37:0d:c3:a9:7c:3d:cc:84:2a:e2:ad:
         2e:b6:61:04:0b:2f:8f:c4:a5:7b:5c:7a:5c:03:78:d7:ea:dc:
         29:1b:58:f4:f3:46:3a:85:55:7b:36:b4:9f:c3:a9:a7:8b:8f:
         1e:65:6f:85:a5:40:f7:0c:41:6f:cd:53:d5:cc:ef:2d:df:73:
         cc:b1:75:70:9b:40:90:44:92:90:a6:09:7a:c3:eb:c4:06:08:
         0d:d3:25:3c:0b:44:bf:43:8e:20:21:01:b2:60:2c:1c:85:88:
         46:8d:fa:48:0e:86:46:f5:9d:08:1a:39:78:c1:48:e9:00:37:
         7b:24:1e:5e:5b:71:41:ee:d4:af:49:65:3f:68:5d:88:a3:c3:
         e8:76:19:21:43:56:55:8e:72:14:87:4f:86:83:2b:f7:04:9d:
         a9:f3:20:38:c6:68:b5:ce:46:f5:1f:28:92:a6:87:f8:f4:0f:
         56:b1:c7:4b:02:12:75:6d:52:e0:3d:fe:d3:25:c9:e1:b0:51:
         34:7e:03:64:87:17:ca:ec
-----BEGIN CERTIFICATE-----
MIIGrTCCBJWgAwIBAgICKSAwDQYJKoZIhvcNAQELBQAwgawxCzAJBgNVBAYTAlVT
MQswCQYDVQQIEwJPSDERMA8GA1UEBxMIQ29sdW1idXMxEjAQBgNVBAoTCVZpa2lu
Z1ZQTjEdMBsGA1UECxMUTXlPcmdhbml6YXRpb25hbFVuaXQxFTATBgNVBAMTDFZp
a2luZ1ZQTiBDQTEQMA4GA1UEKRMHRWFzeVJTQTEhMB8GCSqGSIb3DQEJARYSbWVA
bXlob3N0Lm15ZG9tYWluMB4XDTE3MDQwMzIyNDk0NFoXDTI3MDQwMTIyNDk0NFow
HzEdMBsGA1UEAxMUQ2xpZW50MjY4NUNlcnQ4NjRiMDYwggIiMA0GCSqGSIb3DQEB
AQUAA4ICDwAwggIKAoICAQDEBlpXLwA9ji+N26w0k9fbLWGikGJkQlVkqooFELvt
IvMcvWA/ucyj4PfKGo1VJHgONtp/8OXO97DwkZry+H4xOwCr7ui9JhEoPOI4t8xG
+APUontpoctwzQ9GhO/fA7W23jcqumcz+Fe4qTBHyxM8/XGl28mzic5cJNAcQGO3
g/yG2H46ARHYjLHVXwwj3t2UBy1bJEpzz/DKECARAGMcqXXmOlMA5Lf8MTfDhiCK
BL3H1sm/quLcufw/zJWo39x0y0hamctciTnBL4HAQHfq+/e/CCWyDIePM2ZKLHwX
36XhLxbxPdFA084ZSC5LWxlHj90v61EyR2YoxB+EbyXsmqdbGNwNM/YNUcNga9jK
SVg4VnVFUhc4Eel5q9ScK2DONl7vEihrbERdo68ysHvuFc5cRZx3j5JlRd4yLz5x
0JlhJVvymVOgXExgwNLCZJB1S1tbkLlK5SPXlGXRnCvxbGZfxrMBApDIsJ4gmAkp
dnI60crVGTIYXhYYMqpZMib+GNuPEAOc2Wl0djTtytu2r1WdS5RQOUmdNvhQAWlq
59+S+jEPnCbRou0DN7stuckZWeBth4GCN+SQcQw7k+MfNGsfMfE10FvQVEAX7zyQ
9FOIUT1NJO3uVKFCowNpi6hN33WKTdMwlAIVm3+yqeb6y9rhDcr3Lz8+RE/DbWF1
sQIDAQABo4IBYzCCAV8wCQYDVR0TBAIwADAtBglghkgBhvhCAQ0EIBYeRWFzeS1S
U0EgR2VuZXJhdGVkIENlcnRpZmljYXRlMB0GA1UdDgQWBBQY2X7Wi7bzi4OMAPmg
JkaSu0P7qDCB4QYDVR0jBIHZMIHWgBQSzWAE0qCAnnDtxpm4eyzGUv0ZoaGBsqSB
rzCBrDELMAkGA1UEBhMCVVMxCzAJBgNVBAgTAk9IMREwDwYDVQQHEwhDb2x1bWJ1
czESMBAGA1UEChMJVmlraW5nVlBOMR0wGwYDVQQLExRNeU9yZ2FuaXphdGlvbmFs
VW5pdDEVMBMGA1UEAxMMVmlraW5nVlBOIENBMRAwDgYDVQQpEwdFYXN5UlNBMSEw
HwYJKoZIhvcNAQkBFhJtZUBteWhvc3QubXlkb21haW6CCQDPNYXugL8qPjATBgNV
HSUEDDAKBggrBgEFBQcDAjALBgNVHQ8EBAMCB4AwDQYJKoZIhvcNAQELBQADggIB
AKJlvnms9wd7y2O3wDu1fnigNGRHmYYoDkvt2kt3nkLTUgXYoBr/qSph5Gk7CnyJ
ugA01Ob/jPemMRi+ZCwvvQpjvEasPSKOFJI/3cToaDncW0G4VST9i9MEIadGV4OF
cyGVLH3SH4H7rHuiPqFknzPMauynEzU31M21g45HY3WEpU2psGgDSF/YhkfP8VWc
S5mx83RsWeMmmSrLbmyF5FD2Lm5yE0lrkRX+aLJSg+OimuQ5AQVRUYxNP+q1gPCf
yrZOymjeO9M527/btAiUXnti3yn1+XBkAnPFQo7j8kebYPwz7YnCE3l7WMXDN6O5
x4uDwm2MTk9cBTD05bCLQKhyQuUCRm60HF6zLfVJGXsdiP+kgR/dWu1ZbFToqkOa
G3RSVFDjtY8qvWBpHpB/rOjCRZpa033TnqU3DcOpfD3MhCrirS62YQQLL4/EpXtc
elwDeNfq3CkbWPTzRjqFVXs2tJ/DqaeLjx5lb4WlQPcMQW/NU9XM7y3fc8yxdXCb
QJBEkpCmCXrD68QGCA3TJTwLRL9DjiAhAbJgLByFiEaN+kgOhkb1nQgaOXjBSOkA
N3skHl5bcUHu1K9JZT9oXYijw+h2GSFDVlWOchSHT4aDK/cEnanzIDjGaLXORvUf
KJKmh/j0D1axx0sCEnVtUuA9/tMlyeGwUTR+A2SHF8rs
-----END CERTIFICATE-----
