Certificate:
    Data:
        Version: 3 (0x2)
        Serial Number: 5096 (0x13e8)
    Signature Algorithm: md5WithRSAEncryption
        Issuer: C=US, ST=OH, L=Columbus, O=VikingVPN, OU=MyOrganizationalUnit, CN=VikingVPN CA/name=EasyRSA/emailAddress=me@myhost.mydomain
        Validity
            Not Before: Apr 27 03:09:46 2015 GMT
            Not After : Apr 24 03:09:46 2025 GMT
        Subject: CN=Client1364Certdb6f5a
        Subject Public Key Info:
            Public Key Algorithm: rsaEncryption
                Public-Key: (4096 bit)
                Modulus:
                    00:ac:15:94:58:6a:60:3f:f3:e6:05:28:15:c7:07:
                    8b:74:bb:16:b9:63:2e:71:27:6c:9f:d0:9c:16:2f:
                    cf:af:bb:31:46:bc:ff:ac:48:46:3f:44:a1:36:02:
                    2e:56:08:65:8b:84:81:0c:72:5b:55:90:81:0f:40:
                    00:32:d6:76:fc:68:b5:d9:ec:22:b6:7b:57:fd:a8:
                    d9:c9:b0:65:e3:9e:d3:52:3e:d0:81:bb:4b:b0:5e:
                    04:79:04:f9:f0:7b:d9:17:b9:e4:25:8d:57:b1:0b:
                    ef:26:24:2b:ef:a5:c8:c4:5a:c1:8b:bc:77:64:5b:
                    d2:84:a9:4d:91:eb:16:ef:58:6f:7b:d4:f1:f1:89:
                    f5:9e:bc:8b:d3:e9:30:7b:ea:32:5b:9c:b0:5a:f5:
                    32:63:83:e6:0f:4c:33:a8:3f:bb:77:08:da:86:4e:
                    77:05:f4:d4:a1:da:c3:96:fd:08:4d:ca:15:a9:08:
                    1c:ce:fd:fd:2e:00:9c:3b:6a:34:c3:56:a7:5d:87:
                    2a:2f:23:76:4a:ab:62:c5:b1:43:96:1f:db:79:44:
                    28:2f:7e:b5:13:bb:41:6c:c8:b3:1d:3e:7f:15:41:
                    09:ca:8a:7c:04:9d:51:bc:e6:65:09:b3:8e:ac:ce:
                    f5:2c:ea:85:f7:15:e1:21:46:09:ac:0a:99:e9:43:
                    e9:74:c7:8f:e3:6b:47:7d:50:6a:23:b5:b1:81:c5:
                    45:09:70:39:a2:60:88:8c:c9:75:f9:e0:23:a4:8d:
                    c9:cb:7e:3e:c7:eb:d6:be:25:92:ea:47:76:8e:ba:
                    7d:65:b4:ad:28:13:8f:7f:89:d4:9b:d2:46:3f:cd:
                    da:30:5f:a6:80:73:f6:2d:bc:c7:8a:a3:e7:68:4c:
                    2a:de:5f:00:80:b5:6a:b3:91:60:de:a2:ea:d2:a8:
                    86:0e:b7:64:f5:67:73:95:aa:60:96:aa:c4:e2:f5:
                    da:e2:db:25:c6:4c:38:95:59:4b:47:96:2c:75:38:
                    87:14:07:df:ff:62:d4:46:1e:ad:df:c7:22:fb:89:
                    b9:59:bf:e4:43:9b:27:fa:b7:1c:a4:8f:1a:57:4d:
                    60:0f:80:8a:69:34:95:d5:d0:c4:b0:77:13:ca:7a:
                    9e:3c:d5:13:df:de:55:08:63:38:a8:7e:25:16:64:
                    50:83:42:21:85:d5:b9:7f:08:26:cc:bc:cc:09:32:
                    ec:a2:1b:02:83:04:20:87:eb:4a:8b:29:03:e3:00:
                    4c:b0:70:a7:ee:a9:da:54:6c:75:04:52:ef:18:c0:
                    9e:88:90:d7:dd:f6:8b:6a:56:2c:3f:ee:37:90:46:
                    74:2c:54:60:37:5c:2e:1b:63:ee:8b:23:6e:b3:68:
                    e9:d4:57
                Exponent: 65537 (0x10001)
        X509v3 extensions:
            X509v3 Basic Constraints: 
                CA:FALSE
            Netscape Comment: 
                Easy-RSA Generated Certificate
            X509v3 Subject Key Identifier: 
                23:8D:BE:B4:A7:43:83:4D:3E:45:ED:3F:AF:3C:91:8E:4F:49:BF:4F
            X509v3 Authority Key Identifier: 
                keyid:12:CD:60:04:D2:A0:80:9E:70:ED:C6:99:B8:7B:2C:C6:52:FD:19:A1
                DirName:/C=US/ST=OH/L=Columbus/O=VikingVPN/OU=MyOrganizationalUnit/CN=VikingVPN CA/name=EasyRSA/emailAddress=me@myhost.mydomain
                serial:CF:35:85:EE:80:BF:2A:3E

            X509v3 Extended Key Usage: 
                TLS Web Client Authentication
            X509v3 Key Usage: 
                Digital Signature
    Signature Algorithm: md5WithRSAEncryption
         27:e4:d4:2a:1a:94:fa:59:ef:9f:0f:be:66:00:5a:1b:d5:2a:
         18:3f:de:fc:fb:22:95:b1:6a:e9:50:67:7c:71:dc:b3:39:a5:
         86:d8:76:40:b1:67:34:95:01:ad:b4:4e:03:f1:ac:87:3f:e4:
         84:b6:8b:1b:de:39:b2:99:10:7d:e3:8c:5e:fe:f3:e0:78:6c:
         3c:e3:1b:99:f5:dc:78:3e:8e:47:bb:51:aa:02:b2:c5:2b:f9:
         15:d3:10:d8:97:a6:42:94:3c:f7:93:8b:f9:ec:9c:5c:50:6d:
         2e:64:bd:b5:21:0a:89:ca:82:5d:43:ac:2e:8a:43:de:f5:43:
         47:0e:6b:75:18:9c:f8:1b:f5:bf:4c:1e:58:8b:fb:19:cf:6d:
         ff:23:c3:83:69:f6:0c:fd:c8:99:3c:eb:39:3b:19:b1:3c:44:
         d3:7c:d0:7c:26:3f:2d:22:eb:5d:42:6c:d9:c5:50:12:4c:3f:
         e1:02:56:28:3d:e4:dc:7d:ca:2c:fc:fd:7e:68:c6:52:67:cd:
         45:a0:60:7f:e1:64:8f:a7:c9:3d:c7:c3:93:85:5c:79:8c:2d:
         62:42:72:7c:0a:32:53:a2:c4:e8:b9:72:68:d8:4d:48:02:eb:
         70:a1:4e:ab:8d:62:28:35:78:8f:01:6b:d6:fd:d4:3c:80:83:
         84:47:0a:c7:d8:ec:c3:bd:31:e5:40:46:5e:e3:35:27:fc:e7:
         ee:e0:b6:04:ea:69:bf:e7:dd:1e:da:17:6d:15:8c:78:ad:6d:
         41:23:de:a7:da:0a:66:02:54:35:86:4a:56:0b:c4:24:09:d6:
         ca:ad:d0:3f:bc:c1:40:43:97:ca:f9:84:d5:db:d9:5e:40:2e:
         f0:61:59:0f:7b:d4:21:59:cb:3f:3a:bf:2d:cd:a2:a8:de:73:
         f2:ba:60:59:04:22:21:3c:30:7f:14:d3:58:82:ab:30:2e:16:
         f4:bb:3c:c2:60:43:f7:b3:6f:99:fd:93:ab:0e:6c:01:c7:f4:
         bb:f1:f1:34:51:0b:d3:c1:8b:e2:a1:ae:5e:81:ed:8e:73:0b:
         bf:ae:b2:7c:4b:55:d4:39:f6:da:6b:b0:8c:66:d3:aa:49:3c:
         16:c6:03:d9:27:11:b6:8c:26:61:0a:67:6b:e8:5b:dd:8e:35:
         15:82:e0:6e:2c:c0:f1:3b:b3:c1:a8:32:64:ee:d4:13:0f:e9:
         5c:d9:12:56:78:61:51:43:a0:20:9a:77:17:d1:64:05:29:ee:
         47:80:1c:91:11:78:bc:6f:6f:97:73:3f:9e:cf:11:4c:b8:36:
         48:05:83:c4:66:cf:a7:6e:eb:9c:b0:57:37:95:3e:54:aa:1d:
         db:0a:4b:67:c7:94:67:8f
-----BEGIN CERTIFICATE-----
MIIGrTCCBJWgAwIBAgICE+gwDQYJKoZIhvcNAQEEBQAwgawxCzAJBgNVBAYTAlVT
MQswCQYDVQQIEwJPSDERMA8GA1UEBxMIQ29sdW1idXMxEjAQBgNVBAoTCVZpa2lu
Z1ZQTjEdMBsGA1UECxMUTXlPcmdhbml6YXRpb25hbFVuaXQxFTATBgNVBAMTDFZp
a2luZ1ZQTiBDQTEQMA4GA1UEKRMHRWFzeVJTQTEhMB8GCSqGSIb3DQEJARYSbWVA
bXlob3N0Lm15ZG9tYWluMB4XDTE1MDQyNzAzMDk0NloXDTI1MDQyNDAzMDk0Nlow
HzEdMBsGA1UEAxMUQ2xpZW50MTM2NENlcnRkYjZmNWEwggIiMA0GCSqGSIb3DQEB
AQUAA4ICDwAwggIKAoICAQCsFZRYamA/8+YFKBXHB4t0uxa5Yy5xJ2yf0JwWL8+v
uzFGvP+sSEY/RKE2Ai5WCGWLhIEMcltVkIEPQAAy1nb8aLXZ7CK2e1f9qNnJsGXj
ntNSPtCBu0uwXgR5BPnwe9kXueQljVexC+8mJCvvpcjEWsGLvHdkW9KEqU2R6xbv
WG971PHxifWevIvT6TB76jJbnLBa9TJjg+YPTDOoP7t3CNqGTncF9NSh2sOW/QhN
yhWpCBzO/f0uAJw7ajTDVqddhyovI3ZKq2LFsUOWH9t5RCgvfrUTu0FsyLMdPn8V
QQnKinwEnVG85mUJs46szvUs6oX3FeEhRgmsCpnpQ+l0x4/ja0d9UGojtbGBxUUJ
cDmiYIiMyXX54COkjcnLfj7H69a+JZLqR3aOun1ltK0oE49/idSb0kY/zdowX6aA
c/YtvMeKo+doTCreXwCAtWqzkWDeourSqIYOt2T1Z3OVqmCWqsTi9dri2yXGTDiV
WUtHlix1OIcUB9//YtRGHq3fxyL7iblZv+RDmyf6txykjxpXTWAPgIppNJXV0MSw
dxPKep481RPf3lUIYziofiUWZFCDQiGF1bl/CCbMvMwJMuyiGwKDBCCH60qLKQPj
AEywcKfuqdpUbHUEUu8YwJ6IkNfd9otqViw/7jeQRnQsVGA3XC4bY+6LI26zaOnU
VwIDAQABo4IBYzCCAV8wCQYDVR0TBAIwADAtBglghkgBhvhCAQ0EIBYeRWFzeS1S
U0EgR2VuZXJhdGVkIENlcnRpZmljYXRlMB0GA1UdDgQWBBQjjb60p0ODTT5F7T+v
PJGOT0m/TzCB4QYDVR0jBIHZMIHWgBQSzWAE0qCAnnDtxpm4eyzGUv0ZoaGBsqSB
rzCBrDELMAkGA1UEBhMCVVMxCzAJBgNVBAgTAk9IMREwDwYDVQQHEwhDb2x1bWJ1
czESMBAGA1UEChMJVmlraW5nVlBOMR0wGwYDVQQLExRNeU9yZ2FuaXphdGlvbmFs
VW5pdDEVMBMGA1UEAxMMVmlraW5nVlBOIENBMRAwDgYDVQQpEwdFYXN5UlNBMSEw
HwYJKoZIhvcNAQkBFhJtZUBteWhvc3QubXlkb21haW6CCQDPNYXugL8qPjATBgNV
HSUEDDAKBggrBgEFBQcDAjALBgNVHQ8EBAMCB4AwDQYJKoZIhvcNAQEEBQADggIB
ACfk1CoalPpZ758PvmYAWhvVKhg/3vz7IpWxaulQZ3xx3LM5pYbYdkCxZzSVAa20
TgPxrIc/5IS2ixveObKZEH3jjF7+8+B4bDzjG5n13Hg+jke7UaoCssUr+RXTENiX
pkKUPPeTi/nsnFxQbS5kvbUhConKgl1DrC6KQ971Q0cOa3UYnPgb9b9MHliL+xnP
bf8jw4Np9gz9yJk86zk7GbE8RNN80HwmPy0i611CbNnFUBJMP+ECVig95Nx9yiz8
/X5oxlJnzUWgYH/hZI+nyT3Hw5OFXHmMLWJCcnwKMlOixOi5cmjYTUgC63ChTquN
Yig1eI8Ba9b91DyAg4RHCsfY7MO9MeVARl7jNSf85+7gtgTqab/n3R7aF20VjHit
bUEj3qfaCmYCVDWGSlYLxCQJ1sqt0D+8wUBDl8r5hNXb2V5ALvBhWQ971CFZyz86
vy3Noqjec/K6YFkEIiE8MH8U01iCqzAuFvS7PMJgQ/ezb5n9k6sObAHH9Lvx8TRR
C9PBi+Khrl6B7Y5zC7+usnxLVdQ59tprsIxm06pJPBbGA9knEbaMJmEKZ2voW92O
NRWC4G4swPE7s8GoMmTu1BMP6VzZElZ4YVFDoCCadxfRZAUp7keAHJEReLxvb5dz
P57PEUy4NkgFg8Rmz6du65ywVzeVPlSqHdsKS2fHlGeP
-----END CERTIFICATE-----
