Certificate:
    Data:
        Version: 3 (0x2)
        Serial Number: 5546 (0x15aa)
    Signature Algorithm: md5WithRSAEncryption
        Issuer: C=US, ST=OH, L=Columbus, O=VikingVPN, OU=MyOrganizationalUnit, CN=VikingVPN CA/name=EasyRSA/emailAddress=me@myhost.mydomain
        Validity
            Not Before: Jun 14 23:42:44 2015 GMT
            Not After : Jun 11 23:42:44 2025 GMT
        Subject: CN=Client1711Cert212541
        Subject Public Key Info:
            Public Key Algorithm: rsaEncryption
                Public-Key: (4096 bit)
                Modulus:
                    00:bf:ea:c5:d8:72:d7:f6:cb:93:e9:5e:77:38:03:
                    ef:f6:41:d1:05:bc:76:f4:d2:d6:00:59:eb:17:6b:
                    05:9f:7a:2b:2c:0b:01:f8:58:ae:a0:3b:ae:7a:6a:
                    7a:a0:5b:4f:43:84:6f:6d:8d:c3:12:5a:54:fa:97:
                    3b:3d:5b:c6:87:57:8a:b3:bb:68:d7:78:d3:95:f2:
                    7e:70:e1:95:c5:52:b9:21:3b:52:87:16:06:8f:f6:
                    f2:ed:2c:6f:3b:a9:84:d9:bf:7e:4b:65:7f:a0:24:
                    f3:ec:9f:66:f2:2e:fe:54:25:2f:7d:87:6e:a0:cb:
                    14:ed:47:86:4d:83:ba:e8:b1:f8:33:78:b1:f5:40:
                    8c:cb:d9:88:04:c7:2b:28:2e:ed:b3:9b:83:1c:c9:
                    4d:45:f2:5a:e8:93:81:ff:be:97:84:32:5b:88:87:
                    af:6a:ca:cb:07:c6:4c:4f:2e:af:c4:ed:1c:2c:88:
                    ee:a9:81:c5:cd:d9:8c:1a:d4:bd:e0:cb:39:47:41:
                    7d:9c:0a:be:11:b4:aa:6a:6b:73:94:08:e0:92:e2:
                    db:56:60:77:0f:37:fb:0d:c8:ed:f6:4e:67:fd:19:
                    87:32:2b:4e:25:76:f3:fb:c7:73:ac:e8:75:a4:0c:
                    a9:01:16:5a:52:6a:f5:fe:13:7f:3d:07:60:e8:89:
                    26:e7:bd:21:53:c3:f4:c1:cc:1b:a7:83:51:e9:6c:
                    66:e6:71:12:d2:85:52:64:e6:66:9c:56:7b:d1:ed:
                    40:e7:34:4f:91:b1:9e:c7:c7:6f:45:72:a9:9d:c8:
                    0a:b2:28:cc:a2:97:0f:99:b2:c4:08:9d:a7:f3:cf:
                    db:4a:05:2c:1b:b4:39:b3:4f:5d:02:0e:ed:4c:b9:
                    b4:9a:77:30:30:6b:8d:65:58:a4:73:93:f1:73:33:
                    d4:30:4f:10:e1:67:c3:65:5b:fa:6d:97:ee:d7:b4:
                    f6:e8:9c:74:26:80:f1:b8:af:f0:63:c5:93:5c:41:
                    10:39:ac:29:f7:fd:95:ba:2b:04:6d:3a:ae:42:6f:
                    d8:2d:dc:87:43:98:88:f3:b3:da:e0:2f:d7:e3:52:
                    78:3d:3d:94:90:48:62:05:30:d6:2e:1d:09:dc:c3:
                    df:ff:39:70:53:77:10:3b:cb:ce:70:cd:2c:b6:80:
                    15:48:a4:23:97:0a:1b:82:6c:4a:9d:2b:59:f9:cf:
                    f9:9a:7c:14:a8:76:82:08:be:9e:56:4a:90:c6:cf:
                    6d:5c:1a:a5:b4:7a:6f:a5:fa:bf:0e:80:b7:19:c1:
                    c6:3f:92:a0:63:5b:4d:12:fb:77:0a:e9:ab:b9:37:
                    bf:a8:d6:81:eb:b6:5e:ab:56:72:bf:5e:56:4b:ed:
                    62:21:0b
                Exponent: 65537 (0x10001)
        X509v3 extensions:
            X509v3 Basic Constraints: 
                CA:FALSE
            Netscape Comment: 
                Easy-RSA Generated Certificate
            X509v3 Subject Key Identifier: 
                73:FB:D0:5E:67:7F:18:F5:6B:20:07:1B:7E:DC:5E:55:6B:90:D4:41
            X509v3 Authority Key Identifier: 
                keyid:12:CD:60:04:D2:A0:80:9E:70:ED:C6:99:B8:7B:2C:C6:52:FD:19:A1
                DirName:/C=US/ST=OH/L=Columbus/O=VikingVPN/OU=MyOrganizationalUnit/CN=VikingVPN CA/name=EasyRSA/emailAddress=me@myhost.mydomain
                serial:CF:35:85:EE:80:BF:2A:3E

            X509v3 Extended Key Usage: 
                TLS Web Client Authentication
            X509v3 Key Usage: 
                Digital Signature
    Signature Algorithm: md5WithRSAEncryption
         6d:26:e0:52:c3:b3:ba:14:70:63:cd:1c:14:6b:b6:ea:60:e8:
         4c:f4:6d:e3:f5:2f:de:06:af:de:c4:f0:de:bd:c3:86:cb:57:
         bc:64:4f:b1:f1:3f:65:c5:57:a5:67:01:18:84:15:86:80:1c:
         43:78:47:96:ab:b1:83:5a:8b:9c:34:a0:46:3b:ee:d6:2f:d3:
         e3:74:7a:51:35:8b:ed:82:d3:82:ac:4b:b9:8f:95:53:94:a5:
         da:40:4e:0b:21:60:7d:89:99:75:53:2a:1e:7b:d0:4e:f6:ff:
         20:20:95:d8:ff:65:90:2b:cd:e5:ea:56:80:f0:e9:78:cc:c3:
         ca:b2:c8:d7:72:0c:c9:a1:b0:52:a1:1a:17:25:0a:5a:93:68:
         f7:b9:92:05:96:68:c3:ec:fc:ad:8e:73:b8:04:c7:00:b2:89:
         f5:d5:1a:36:f3:9a:f4:48:14:d3:c3:02:19:3a:7f:8b:66:b7:
         ff:15:ba:bb:52:0d:1f:13:ca:38:47:be:09:44:4c:f5:ab:46:
         8c:15:bd:77:12:e1:00:56:5a:05:c5:fa:63:a5:e0:ec:54:fb:
         77:b4:d6:2f:fb:80:1e:de:d6:33:05:7c:3b:74:5b:1e:6d:8b:
         3b:1b:b0:be:51:d6:24:53:03:b0:41:7f:66:c4:55:9c:09:a3:
         f8:6e:93:dd:a1:48:fc:ea:f6:50:6f:d3:5b:a7:6b:5c:1e:12:
         2a:73:53:ad:aa:f4:30:20:6d:89:3e:2e:1b:7c:99:7c:c7:15:
         91:e4:08:97:b1:dc:67:65:ba:1b:ae:c3:e0:59:46:1b:f3:78:
         a5:af:60:c0:e8:0a:a6:21:86:fb:80:e8:cf:65:e0:9a:01:92:
         8a:e0:34:d6:44:50:ca:30:a6:c3:be:9f:d9:2c:0d:50:e0:d0:
         b6:3b:a5:c8:ba:cd:9f:f9:bd:2c:d9:4c:1b:07:03:60:b8:ea:
         4a:03:66:23:ed:07:cf:ec:d0:6e:37:52:16:77:22:28:7f:af:
         78:15:0f:f8:b9:6e:33:14:69:12:a2:f2:1b:65:29:bd:5b:fd:
         6d:d8:99:e3:54:45:a8:d6:62:6b:67:6e:c6:1f:23:63:16:25:
         c9:29:11:b1:b1:e1:d7:a1:d7:66:d2:8b:35:83:3f:07:38:48:
         ba:6f:51:51:bf:4b:bf:17:42:5c:35:20:9b:8c:33:1b:40:b3:
         af:a6:a9:8d:db:fb:ea:15:19:18:e0:2a:63:f2:c9:85:7d:b2:
         b8:31:e4:f7:f9:33:d8:8c:22:64:ab:bb:84:db:a9:41:8a:32:
         83:6d:e6:1e:6d:cb:c9:89:c0:11:03:42:e7:12:bb:1e:6f:c1:
         51:aa:21:ef:fd:8e:96:f3
-----BEGIN CERTIFICATE-----
MIIGrTCCBJWgAwIBAgICFaowDQYJKoZIhvcNAQEEBQAwgawxCzAJBgNVBAYTAlVT
MQswCQYDVQQIEwJPSDERMA8GA1UEBxMIQ29sdW1idXMxEjAQBgNVBAoTCVZpa2lu
Z1ZQTjEdMBsGA1UECxMUTXlPcmdhbml6YXRpb25hbFVuaXQxFTATBgNVBAMTDFZp
a2luZ1ZQTiBDQTEQMA4GA1UEKRMHRWFzeVJTQTEhMB8GCSqGSIb3DQEJARYSbWVA
bXlob3N0Lm15ZG9tYWluMB4XDTE1MDYxNDIzNDI0NFoXDTI1MDYxMTIzNDI0NFow
HzEdMBsGA1UEAxMUQ2xpZW50MTcxMUNlcnQyMTI1NDEwggIiMA0GCSqGSIb3DQEB
AQUAA4ICDwAwggIKAoICAQC/6sXYctf2y5PpXnc4A+/2QdEFvHb00tYAWesXawWf
eissCwH4WK6gO656anqgW09DhG9tjcMSWlT6lzs9W8aHV4qzu2jXeNOV8n5w4ZXF
UrkhO1KHFgaP9vLtLG87qYTZv35LZX+gJPPsn2byLv5UJS99h26gyxTtR4ZNg7ro
sfgzeLH1QIzL2YgExysoLu2zm4McyU1F8lrok4H/vpeEMluIh69qyssHxkxPLq/E
7RwsiO6pgcXN2Ywa1L3gyzlHQX2cCr4RtKpqa3OUCOCS4ttWYHcPN/sNyO32Tmf9
GYcyK04ldvP7x3Os6HWkDKkBFlpSavX+E389B2DoiSbnvSFTw/TBzBung1HpbGbm
cRLShVJk5macVnvR7UDnNE+RsZ7Hx29FcqmdyAqyKMyilw+ZssQInafzz9tKBSwb
tDmzT10CDu1MubSadzAwa41lWKRzk/FzM9QwTxDhZ8NlW/ptl+7XtPbonHQmgPG4
r/BjxZNcQRA5rCn3/ZW6KwRtOq5Cb9gt3IdDmIjzs9rgL9fjUng9PZSQSGIFMNYu
HQncw9//OXBTdxA7y85wzSy2gBVIpCOXChuCbEqdK1n5z/mafBSodoIIvp5WSpDG
z21cGqW0em+l+r8OgLcZwcY/kqBjW00S+3cK6au5N7+o1oHrtl6rVnK/XlZL7WIh
CwIDAQABo4IBYzCCAV8wCQYDVR0TBAIwADAtBglghkgBhvhCAQ0EIBYeRWFzeS1S
U0EgR2VuZXJhdGVkIENlcnRpZmljYXRlMB0GA1UdDgQWBBRz+9BeZ38Y9WsgBxt+
3F5Va5DUQTCB4QYDVR0jBIHZMIHWgBQSzWAE0qCAnnDtxpm4eyzGUv0ZoaGBsqSB
rzCBrDELMAkGA1UEBhMCVVMxCzAJBgNVBAgTAk9IMREwDwYDVQQHEwhDb2x1bWJ1
czESMBAGA1UEChMJVmlraW5nVlBOMR0wGwYDVQQLExRNeU9yZ2FuaXphdGlvbmFs
VW5pdDEVMBMGA1UEAxMMVmlraW5nVlBOIENBMRAwDgYDVQQpEwdFYXN5UlNBMSEw
HwYJKoZIhvcNAQkBFhJtZUBteWhvc3QubXlkb21haW6CCQDPNYXugL8qPjATBgNV
HSUEDDAKBggrBgEFBQcDAjALBgNVHQ8EBAMCB4AwDQYJKoZIhvcNAQEEBQADggIB
AG0m4FLDs7oUcGPNHBRrtupg6Ez0beP1L94Gr97E8N69w4bLV7xkT7HxP2XFV6Vn
ARiEFYaAHEN4R5arsYNai5w0oEY77tYv0+N0elE1i+2C04KsS7mPlVOUpdpATgsh
YH2JmXVTKh570E72/yAgldj/ZZArzeXqVoDw6XjMw8qyyNdyDMmhsFKhGhclClqT
aPe5kgWWaMPs/K2Oc7gExwCyifXVGjbzmvRIFNPDAhk6f4tmt/8VurtSDR8TyjhH
vglETPWrRowVvXcS4QBWWgXF+mOl4OxU+3e01i/7gB7e1jMFfDt0Wx5tizsbsL5R
1iRTA7BBf2bEVZwJo/huk92hSPzq9lBv01una1weEipzU62q9DAgbYk+Lht8mXzH
FZHkCJex3Gdluhuuw+BZRhvzeKWvYMDoCqYhhvuA6M9l4JoBkorgNNZEUMowpsO+
n9ksDVDg0LY7pci6zZ/5vSzZTBsHA2C46koDZiPtB8/s0G43UhZ3Iih/r3gVD/i5
bjMUaRKi8htlKb1b/W3YmeNURajWYmtnbsYfI2MWJckpEbGx4deh12bSizWDPwc4
SLpvUVG/S78XQlw1IJuMMxtAs6+mqY3b++oVGRjgKmPyyYV9srgx5Pf5M9iMImSr
u4TbqUGKMoNt5h5ty8mJwBEDQucSux5vwVGqIe/9jpbz
-----END CERTIFICATE-----
