Certificate:
    Data:
        Version: 3 (0x2)
        Serial Number: 8417 (0x20e1)
    Signature Algorithm: md5WithRSAEncryption
        Issuer: C=US, ST=OH, L=Columbus, O=VikingVPN, OU=MyOrganizationalUnit, CN=VikingVPN CA/name=EasyRSA/emailAddress=me@myhost.mydomain
        Validity
            Not Before: Jul  4 22:51:07 2016 GMT
            Not After : Jul  2 22:51:07 2026 GMT
        Subject: CN=Client2414Cert76038b
        Subject Public Key Info:
            Public Key Algorithm: rsaEncryption
                Public-Key: (4096 bit)
                Modulus:
                    00:ce:5a:97:11:87:6e:9b:39:4b:a1:19:af:96:f7:
                    aa:32:6c:71:2d:12:78:73:dc:e8:39:9a:41:c9:d1:
                    87:f5:e6:af:fc:d0:25:73:5a:c9:09:95:22:9e:c5:
                    eb:39:95:5a:55:04:29:3b:02:e8:9b:ca:3e:42:f0:
                    c0:ae:b5:c9:1d:59:5c:82:95:81:e7:d2:f9:0d:82:
                    a6:44:a2:1c:2d:57:52:73:70:ac:5f:42:64:fc:29:
                    3a:66:0b:fe:f4:94:63:4d:d1:e9:e5:29:66:b9:10:
                    d3:ee:84:0b:30:ac:45:e0:6b:ab:5f:b2:18:c4:3f:
                    13:90:25:d7:f7:03:7d:af:28:86:f7:0d:74:0a:b8:
                    28:9c:0d:ef:27:da:26:ae:e9:85:61:3d:2b:95:2a:
                    9f:c7:6a:b9:97:b2:b5:1d:01:a5:b0:c9:70:89:64:
                    28:8e:a0:a4:ab:2a:fb:20:26:cc:0f:ca:29:7e:e6:
                    e5:f1:17:21:da:96:10:82:d1:1c:33:54:9e:31:80:
                    a7:6d:62:2c:ae:d2:d7:97:2e:d3:43:1e:41:cb:61:
                    86:52:87:f0:8e:cc:4a:17:b5:9d:41:e2:4b:ef:ef:
                    d4:98:37:d3:90:de:f9:c8:8b:b5:49:d1:f2:6d:a1:
                    e9:b5:d3:b6:89:a5:87:98:c1:5c:9e:e1:20:e2:e0:
                    19:ab:35:0f:72:8a:77:40:c8:8b:08:a2:0f:23:5b:
                    eb:c5:5b:de:6c:e4:4c:3f:d2:57:10:6c:c3:78:f3:
                    68:d6:eb:e5:14:a4:5d:f6:6d:7e:fb:c9:d9:31:78:
                    f7:fc:21:aa:17:ad:f4:6c:c7:7c:61:cf:06:e7:2a:
                    30:43:4a:8b:06:8a:da:66:29:f0:fb:04:07:64:c7:
                    69:6e:14:46:28:2e:9b:d6:cf:1a:e2:b6:9b:ac:f9:
                    4e:94:16:80:b3:a3:ea:fb:98:de:e2:84:90:f5:33:
                    08:0c:fd:5e:6f:10:65:2b:7b:b2:bc:eb:79:f3:3d:
                    0c:66:58:83:33:ca:3d:b5:2e:01:2d:e4:d5:90:85:
                    38:4b:44:5b:c1:ec:8e:0b:2a:91:01:cf:5e:5f:51:
                    c1:10:de:15:8a:0f:8a:1c:6b:7d:09:15:26:f6:d0:
                    c0:48:70:d6:8a:53:ee:b6:37:b6:d2:12:0e:05:07:
                    d9:6e:a7:e2:86:54:5f:34:08:8a:f8:4c:21:a3:e5:
                    d2:0f:fe:fa:07:be:87:b0:44:1d:bf:64:66:ba:d1:
                    08:c8:d3:6b:04:a1:36:4f:1e:c5:95:a7:2d:67:7f:
                    de:65:21:63:3d:2d:4b:bc:b0:2e:15:b3:02:51:5a:
                    e2:d7:59:17:cc:aa:8f:86:db:c5:22:8b:d5:ad:73:
                    95:0a:8d
                Exponent: 65537 (0x10001)
        X509v3 extensions:
            X509v3 Basic Constraints: 
                CA:FALSE
            Netscape Comment: 
                Easy-RSA Generated Certificate
            X509v3 Subject Key Identifier: 
                BB:94:14:33:4E:5E:B6:42:95:A7:CA:55:A4:E9:96:67:51:D1:F8:66
            X509v3 Authority Key Identifier: 
                keyid:12:CD:60:04:D2:A0:80:9E:70:ED:C6:99:B8:7B:2C:C6:52:FD:19:A1
                DirName:/C=US/ST=OH/L=Columbus/O=VikingVPN/OU=MyOrganizationalUnit/CN=VikingVPN CA/name=EasyRSA/emailAddress=me@myhost.mydomain
                serial:CF:35:85:EE:80:BF:2A:3E

            X509v3 Extended Key Usage: 
                TLS Web Client Authentication
            X509v3 Key Usage: 
                Digital Signature
    Signature Algorithm: md5WithRSAEncryption
         9e:ac:54:6d:4d:27:9c:0b:dd:b9:31:46:13:c1:83:63:8f:5e:
         c0:b3:cf:70:24:f6:21:8a:35:91:75:c9:97:74:45:f1:13:a6:
         24:d1:46:4f:34:80:42:7f:1a:55:22:d0:4e:5b:bd:73:08:24:
         dd:df:91:bf:a9:57:8f:40:8c:31:fd:21:63:ae:76:f3:44:0e:
         5a:4e:e0:02:93:75:82:65:02:b0:45:73:45:20:1c:25:e2:06:
         e8:04:89:18:25:fa:e4:c3:ae:6c:fb:7c:d7:01:ef:db:14:8f:
         c6:a3:86:4a:3e:06:97:d3:ca:3e:37:81:63:9b:54:25:4a:62:
         e6:48:3f:ff:7a:80:ab:d5:3a:b7:19:a9:45:1d:b3:f3:1d:11:
         48:b9:6c:9b:a5:cd:38:91:9a:02:23:04:ea:b9:74:85:b1:78:
         f9:5b:4b:2b:74:f4:85:19:1a:3e:29:ff:78:33:fe:ae:ce:0b:
         fd:96:bd:f5:3b:14:06:85:7d:a2:0e:12:0d:fd:a5:3b:70:01:
         a8:2d:b6:ca:32:b6:45:84:9e:1a:50:54:e2:dd:6d:bb:c1:f0:
         12:3e:08:a3:bb:9e:90:82:1d:09:44:95:fb:58:8b:1b:11:6d:
         1e:9e:65:19:b8:98:76:43:8d:0e:14:18:ae:26:4d:93:90:81:
         58:23:87:db:3c:47:5a:35:d3:45:a5:4c:62:28:03:09:c8:10:
         d9:2d:88:d9:9b:cf:45:c3:d5:98:87:d0:d1:c6:dc:b8:3c:89:
         2f:e8:49:fc:39:d8:9c:3e:97:b7:84:7b:7c:38:c9:ae:3d:c7:
         51:2a:90:bc:c7:46:c4:48:f0:0c:c1:1a:1e:80:13:0b:cc:03:
         83:84:7d:54:6f:af:6a:ef:dc:a7:92:5d:2e:c9:83:e7:87:37:
         b6:f2:b5:3e:c7:2a:02:1a:27:d7:cf:37:6b:a0:db:52:9c:34:
         74:6a:c2:28:ec:af:05:c3:9f:3d:0e:66:25:74:7c:9e:ed:c9:
         81:24:f3:6a:22:74:c3:cc:3a:58:23:ce:ed:17:09:3c:e0:e4:
         3d:2a:d7:6a:8e:ce:8d:fa:07:b4:28:f5:ae:8b:f3:35:53:9a:
         17:7d:14:bd:65:a9:eb:9b:d4:db:e3:43:e5:15:7b:20:e4:c6:
         09:50:4b:0e:9c:be:ff:b4:9d:e4:5d:16:cc:05:29:0e:2c:85:
         43:82:1d:a6:1b:47:7b:b1:9d:d7:71:62:03:7e:4b:f3:53:c9:
         26:0b:54:dd:2b:31:f4:05:f1:ed:d3:9a:1e:a9:64:7e:54:c5:
         f2:ce:2f:87:98:8b:8c:2a:11:2d:49:34:84:f3:10:91:ae:15:
         f4:7f:4d:06:6b:40:4c:a1
-----BEGIN CERTIFICATE-----
MIIGrTCCBJWgAwIBAgICIOEwDQYJKoZIhvcNAQEEBQAwgawxCzAJBgNVBAYTAlVT
MQswCQYDVQQIEwJPSDERMA8GA1UEBxMIQ29sdW1idXMxEjAQBgNVBAoTCVZpa2lu
Z1ZQTjEdMBsGA1UECxMUTXlPcmdhbml6YXRpb25hbFVuaXQxFTATBgNVBAMTDFZp
a2luZ1ZQTiBDQTEQMA4GA1UEKRMHRWFzeVJTQTEhMB8GCSqGSIb3DQEJARYSbWVA
bXlob3N0Lm15ZG9tYWluMB4XDTE2MDcwNDIyNTEwN1oXDTI2MDcwMjIyNTEwN1ow
HzEdMBsGA1UEAxMUQ2xpZW50MjQxNENlcnQ3NjAzOGIwggIiMA0GCSqGSIb3DQEB
AQUAA4ICDwAwggIKAoICAQDOWpcRh26bOUuhGa+W96oybHEtEnhz3Og5mkHJ0Yf1
5q/80CVzWskJlSKexes5lVpVBCk7Auibyj5C8MCutckdWVyClYHn0vkNgqZEohwt
V1JzcKxfQmT8KTpmC/70lGNN0enlKWa5ENPuhAswrEXga6tfshjEPxOQJdf3A32v
KIb3DXQKuCicDe8n2iau6YVhPSuVKp/HarmXsrUdAaWwyXCJZCiOoKSrKvsgJswP
yil+5uXxFyHalhCC0RwzVJ4xgKdtYiyu0teXLtNDHkHLYYZSh/COzEoXtZ1B4kvv
79SYN9OQ3vnIi7VJ0fJtoem107aJpYeYwVye4SDi4BmrNQ9yindAyIsIog8jW+vF
W95s5Ew/0lcQbMN482jW6+UUpF32bX77ydkxePf8IaoXrfRsx3xhzwbnKjBDSosG
itpmKfD7BAdkx2luFEYoLpvWzxritpus+U6UFoCzo+r7mN7ihJD1MwgM/V5vEGUr
e7K863nzPQxmWIMzyj21LgEt5NWQhThLRFvB7I4LKpEBz15fUcEQ3hWKD4oca30J
FSb20MBIcNaKU+62N7bSEg4FB9lup+KGVF80CIr4TCGj5dIP/voHvoewRB2/ZGa6
0QjI02sEoTZPHsWVpy1nf95lIWM9LUu8sC4VswJRWuLXWRfMqo+G28Uii9Wtc5UK
jQIDAQABo4IBYzCCAV8wCQYDVR0TBAIwADAtBglghkgBhvhCAQ0EIBYeRWFzeS1S
U0EgR2VuZXJhdGVkIENlcnRpZmljYXRlMB0GA1UdDgQWBBS7lBQzTl62QpWnylWk
6ZZnUdH4ZjCB4QYDVR0jBIHZMIHWgBQSzWAE0qCAnnDtxpm4eyzGUv0ZoaGBsqSB
rzCBrDELMAkGA1UEBhMCVVMxCzAJBgNVBAgTAk9IMREwDwYDVQQHEwhDb2x1bWJ1
czESMBAGA1UEChMJVmlraW5nVlBOMR0wGwYDVQQLExRNeU9yZ2FuaXphdGlvbmFs
VW5pdDEVMBMGA1UEAxMMVmlraW5nVlBOIENBMRAwDgYDVQQpEwdFYXN5UlNBMSEw
HwYJKoZIhvcNAQkBFhJtZUBteWhvc3QubXlkb21haW6CCQDPNYXugL8qPjATBgNV
HSUEDDAKBggrBgEFBQcDAjALBgNVHQ8EBAMCB4AwDQYJKoZIhvcNAQEEBQADggIB
AJ6sVG1NJ5wL3bkxRhPBg2OPXsCzz3Ak9iGKNZF1yZd0RfETpiTRRk80gEJ/GlUi
0E5bvXMIJN3fkb+pV49AjDH9IWOudvNEDlpO4AKTdYJlArBFc0UgHCXiBugEiRgl
+uTDrmz7fNcB79sUj8ajhko+BpfTyj43gWObVCVKYuZIP/96gKvVOrcZqUUds/Md
EUi5bJulzTiRmgIjBOq5dIWxePlbSyt09IUZGj4p/3gz/q7OC/2WvfU7FAaFfaIO
Eg39pTtwAagttsoytkWEnhpQVOLdbbvB8BI+CKO7npCCHQlElftYixsRbR6eZRm4
mHZDjQ4UGK4mTZOQgVgjh9s8R1o100WlTGIoAwnIENktiNmbz0XD1ZiH0NHG3Lg8
iS/oSfw52Jw+l7eEe3w4ya49x1EqkLzHRsRI8AzBGh6AEwvMA4OEfVRvr2rv3KeS
XS7Jg+eHN7bytT7HKgIaJ9fPN2ug21KcNHRqwijsrwXDnz0OZiV0fJ7tyYEk82oi
dMPMOlgjzu0XCTzg5D0q12qOzo36B7Qo9a6L8zVTmhd9FL1lqeub1NvjQ+UVeyDk
xglQSw6cvv+0neRdFswFKQ4shUOCHaYbR3uxnddxYgN+S/NTySYLVN0rMfQF8e3T
mh6pZH5UxfLOL4eYi4wqES1JNITzEJGuFfR/TQZrQEyh
-----END CERTIFICATE-----
