Certificate:
    Data:
        Version: 3 (0x2)
        Serial Number: 10783 (0x2a1f)
    Signature Algorithm: sha256WithRSAEncryption
        Issuer: C=US, ST=OH, L=Columbus, O=VikingVPN, OU=MyOrganizationalUnit, CN=VikingVPN CA/name=EasyRSA/emailAddress=me@myhost.mydomain
        Validity
            Not Before: Apr 24 20:23:56 2017 GMT
            Not After : Apr 22 20:23:56 2027 GMT
        Subject: CN=Client2879Certb7727c
        Subject Public Key Info:
            Public Key Algorithm: rsaEncryption
                Public-Key: (4096 bit)
                Modulus:
                    00:eb:11:c8:31:df:8c:fa:d2:06:34:6f:10:fc:fd:
                    3e:47:a0:e3:29:22:b3:09:d9:82:01:fc:e8:47:c5:
                    f3:df:62:d1:c4:0a:cc:82:46:34:fb:26:33:49:bd:
                    9f:46:0d:cc:e3:55:86:a3:21:a0:a4:a0:cb:1c:4d:
                    b5:62:f4:84:8a:df:e5:b1:8c:d6:f2:fa:4d:7d:09:
                    7f:c9:6c:1c:2b:8e:dc:27:4b:1a:35:7a:8a:fd:c9:
                    06:53:7b:a3:00:21:c2:2a:4d:f0:65:34:86:ea:e6:
                    7c:da:8a:50:65:3b:9a:84:d5:c5:ec:b2:59:40:51:
                    3f:02:20:00:17:b6:9f:8b:6b:86:7e:29:df:4f:ec:
                    02:73:99:2e:d6:1f:9c:8b:42:31:69:4c:36:93:fe:
                    56:1c:46:85:27:7d:65:8d:3f:24:c5:19:07:56:b8:
                    4c:c2:ef:32:cc:5c:9e:be:8e:fa:be:b8:4f:45:ca:
                    32:08:1d:ec:c7:06:62:34:8f:51:6a:39:55:85:da:
                    e7:f1:8b:85:ea:0c:03:ea:fd:b7:55:35:46:08:79:
                    b3:85:f7:1e:03:a5:c6:58:13:f6:ed:c5:67:65:9c:
                    f7:2e:77:a2:ee:4f:fe:dc:19:d2:63:8f:e9:9e:ca:
                    5d:2d:db:0a:14:48:0c:42:23:ce:05:8e:e7:4e:0b:
                    b7:8c:0a:24:61:5d:be:0a:aa:78:c5:e6:ab:ec:c3:
                    27:7e:aa:26:f9:0a:41:12:f6:df:0f:b3:b2:2d:98:
                    81:fa:30:eb:7a:07:6a:25:81:1a:eb:e4:ea:7e:ef:
                    8d:fe:f3:36:06:83:c4:13:12:fa:89:77:bf:96:8e:
                    f8:af:4f:81:ae:03:77:ee:fc:0b:4b:a8:1f:cf:9f:
                    34:cc:20:fc:5f:e8:0f:a6:59:5a:0f:98:68:6a:df:
                    3d:7c:78:61:b4:f6:28:bf:c4:52:ec:d9:de:ff:7e:
                    d6:0c:63:42:9a:14:96:68:57:d1:c3:ba:23:c3:de:
                    fb:d5:44:1d:2c:c0:f7:d6:5e:ff:b5:46:47:a7:88:
                    39:36:4b:88:ae:7a:0c:db:40:b9:87:48:e3:6a:11:
                    ab:86:8b:02:41:41:d9:fd:7f:73:3f:3a:48:4f:d4:
                    5a:e4:32:f4:80:65:fe:84:9b:80:a7:2e:bd:26:af:
                    3f:76:9b:52:62:aa:1a:4a:4e:d3:85:22:41:6f:4e:
                    55:92:b6:c0:99:36:0b:e7:e8:91:bf:2e:bd:02:67:
                    6a:be:49:b0:51:8b:b8:cc:c3:1c:80:53:29:0a:d2:
                    17:35:37:ab:67:71:f5:13:e0:f2:ca:4f:9e:45:9e:
                    6d:d7:08:56:09:fd:42:65:4f:22:6b:37:ad:3d:e9:
                    e1:29:37
                Exponent: 65537 (0x10001)
        X509v3 extensions:
            X509v3 Basic Constraints: 
                CA:FALSE
            Netscape Comment: 
                Easy-RSA Generated Certificate
            X509v3 Subject Key Identifier: 
                C3:39:32:C1:A9:83:D8:04:8B:96:33:C3:96:5A:F8:CA:79:43:91:21
            X509v3 Authority Key Identifier: 
                keyid:12:CD:60:04:D2:A0:80:9E:70:ED:C6:99:B8:7B:2C:C6:52:FD:19:A1
                DirName:/C=US/ST=OH/L=Columbus/O=VikingVPN/OU=MyOrganizationalUnit/CN=VikingVPN CA/name=EasyRSA/emailAddress=me@myhost.mydomain
                serial:CF:35:85:EE:80:BF:2A:3E

            X509v3 Extended Key Usage: 
                TLS Web Client Authentication
            X509v3 Key Usage: 
                Digital Signature
    Signature Algorithm: sha256WithRSAEncryption
         bf:d5:9a:ac:e8:15:fe:a2:75:d0:a6:41:96:93:eb:cb:91:01:
         02:30:64:58:a3:e6:0a:ff:75:4d:75:e0:52:b6:e4:8f:01:8a:
         e9:b0:d3:53:eb:82:13:47:bf:f8:47:bb:9a:b9:61:33:7b:c4:
         2a:d3:97:1d:6a:49:ed:36:2b:37:77:27:89:bb:56:c7:7d:f8:
         8e:b8:7d:25:41:1f:e6:ee:d9:41:67:69:d6:f1:5d:14:3e:9a:
         d5:84:49:d0:3e:ff:31:64:4d:a2:ac:70:4a:c4:51:fb:c1:6a:
         63:bd:62:36:ef:7a:e3:c9:4d:1d:a8:f0:9d:3a:6e:c0:d0:cb:
         c0:67:53:d9:78:79:2e:a9:a5:45:55:17:b6:cf:ca:41:8e:3b:
         f1:a5:71:da:60:aa:27:b7:1e:cb:3e:45:b2:17:66:fe:82:c1:
         58:87:32:bb:d1:b2:60:4f:6f:e9:3f:e4:bd:9e:c9:a0:6d:f3:
         50:39:fd:a5:6f:aa:d0:fa:e5:b7:50:fc:36:8a:b5:b5:40:df:
         b7:0d:47:e3:e8:49:53:28:38:00:d8:fb:f8:33:66:7d:40:14:
         15:22:c9:e0:ad:25:da:5f:4f:c6:45:4c:08:e8:4d:c2:25:26:
         10:5b:d9:8a:a4:60:a0:11:50:73:5f:64:ac:86:15:08:6e:ad:
         4e:49:59:80:1a:ad:e8:e4:45:a5:6a:1a:07:69:d5:9a:76:42:
         73:49:41:82:03:af:d7:0a:d1:32:04:01:32:59:05:08:18:77:
         b5:39:2b:15:3e:65:83:8e:94:79:d6:9d:62:23:02:45:9f:91:
         60:ca:78:6d:df:ad:1f:a0:8b:3c:dc:55:57:68:5a:f4:8b:f1:
         e1:da:25:da:1f:6b:bd:cf:77:b4:24:7e:6d:d2:90:bf:9d:a4:
         e9:8d:8f:80:11:92:14:7e:34:c6:51:ba:d7:37:47:b6:fb:50:
         e6:e1:d4:f3:68:26:13:47:b7:d1:e0:7b:31:fa:9f:fb:c8:c8:
         37:67:c8:57:ac:e9:48:c9:57:37:b8:9f:9b:bb:ce:a5:b2:55:
         69:39:8e:9c:ca:ba:a0:be:6d:8c:39:f5:6b:a6:20:14:d9:0f:
         08:d2:d9:c8:79:d8:38:b4:58:48:e9:d4:e0:6f:aa:28:8a:db:
         cd:f0:74:f1:f1:e7:22:93:81:f8:36:ed:60:b7:d1:4a:ac:5d:
         62:c3:88:c0:f2:51:74:93:dc:d4:8a:b2:6e:1d:55:bb:76:9e:
         2e:30:6f:da:78:ab:32:f9:ef:e1:2a:c1:63:56:c7:1b:33:0d:
         83:c8:19:fe:98:bf:23:e7:bb:fa:8e:bb:cb:f5:19:f6:0f:02:
         b5:17:13:c0:8d:d7:d4:e6
-----BEGIN CERTIFICATE-----
MIIGrTCCBJWgAwIBAgICKh8wDQYJKoZIhvcNAQELBQAwgawxCzAJBgNVBAYTAlVT
MQswCQYDVQQIEwJPSDERMA8GA1UEBxMIQ29sdW1idXMxEjAQBgNVBAoTCVZpa2lu
Z1ZQTjEdMBsGA1UECxMUTXlPcmdhbml6YXRpb25hbFVuaXQxFTATBgNVBAMTDFZp
a2luZ1ZQTiBDQTEQMA4GA1UEKRMHRWFzeVJTQTEhMB8GCSqGSIb3DQEJARYSbWVA
bXlob3N0Lm15ZG9tYWluMB4XDTE3MDQyNDIwMjM1NloXDTI3MDQyMjIwMjM1Nlow
HzEdMBsGA1UEAxMUQ2xpZW50Mjg3OUNlcnRiNzcyN2MwggIiMA0GCSqGSIb3DQEB
AQUAA4ICDwAwggIKAoICAQDrEcgx34z60gY0bxD8/T5HoOMpIrMJ2YIB/OhHxfPf
YtHECsyCRjT7JjNJvZ9GDczjVYajIaCkoMscTbVi9ISK3+WxjNby+k19CX/JbBwr
jtwnSxo1eor9yQZTe6MAIcIqTfBlNIbq5nzailBlO5qE1cXssllAUT8CIAAXtp+L
a4Z+Kd9P7AJzmS7WH5yLQjFpTDaT/lYcRoUnfWWNPyTFGQdWuEzC7zLMXJ6+jvq+
uE9FyjIIHezHBmI0j1FqOVWF2ufxi4XqDAPq/bdVNUYIebOF9x4DpcZYE/btxWdl
nPcud6LuT/7cGdJjj+meyl0t2woUSAxCI84FjudOC7eMCiRhXb4KqnjF5qvswyd+
qib5CkES9t8Ps7ItmIH6MOt6B2olgRrr5Op+743+8zYGg8QTEvqJd7+WjvivT4Gu
A3fu/AtLqB/PnzTMIPxf6A+mWVoPmGhq3z18eGG09ii/xFLs2d7/ftYMY0KaFJZo
V9HDuiPD3vvVRB0swPfWXv+1RkeniDk2S4iuegzbQLmHSONqEauGiwJBQdn9f3M/
OkhP1FrkMvSAZf6Em4CnLr0mrz92m1JiqhpKTtOFIkFvTlWStsCZNgvn6JG/Lr0C
Z2q+SbBRi7jMwxyAUykK0hc1N6tncfUT4PLKT55Fnm3XCFYJ/UJlTyJrN6096eEp
NwIDAQABo4IBYzCCAV8wCQYDVR0TBAIwADAtBglghkgBhvhCAQ0EIBYeRWFzeS1S
U0EgR2VuZXJhdGVkIENlcnRpZmljYXRlMB0GA1UdDgQWBBTDOTLBqYPYBIuWM8OW
WvjKeUORITCB4QYDVR0jBIHZMIHWgBQSzWAE0qCAnnDtxpm4eyzGUv0ZoaGBsqSB
rzCBrDELMAkGA1UEBhMCVVMxCzAJBgNVBAgTAk9IMREwDwYDVQQHEwhDb2x1bWJ1
czESMBAGA1UEChMJVmlraW5nVlBOMR0wGwYDVQQLExRNeU9yZ2FuaXphdGlvbmFs
VW5pdDEVMBMGA1UEAxMMVmlraW5nVlBOIENBMRAwDgYDVQQpEwdFYXN5UlNBMSEw
HwYJKoZIhvcNAQkBFhJtZUBteWhvc3QubXlkb21haW6CCQDPNYXugL8qPjATBgNV
HSUEDDAKBggrBgEFBQcDAjALBgNVHQ8EBAMCB4AwDQYJKoZIhvcNAQELBQADggIB
AL/VmqzoFf6iddCmQZaT68uRAQIwZFij5gr/dU114FK25I8Biumw01PrghNHv/hH
u5q5YTN7xCrTlx1qSe02Kzd3J4m7Vsd9+I64fSVBH+bu2UFnadbxXRQ+mtWESdA+
/zFkTaKscErEUfvBamO9YjbveuPJTR2o8J06bsDQy8BnU9l4eS6ppUVVF7bPykGO
O/Glcdpgqie3Hss+RbIXZv6CwViHMrvRsmBPb+k/5L2eyaBt81A5/aVvqtD65bdQ
/DaKtbVA37cNR+PoSVMoOADY+/gzZn1AFBUiyeCtJdpfT8ZFTAjoTcIlJhBb2Yqk
YKARUHNfZKyGFQhurU5JWYAarejkRaVqGgdp1Zp2QnNJQYIDr9cK0TIEATJZBQgY
d7U5KxU+ZYOOlHnWnWIjAkWfkWDKeG3frR+gizzcVVdoWvSL8eHaJdofa73Pd7Qk
fm3SkL+dpOmNj4ARkhR+NMZRutc3R7b7UObh1PNoJhNHt9HgezH6n/vIyDdnyFes
6UjJVze4n5u7zqWyVWk5jpzKuqC+bYw59WumIBTZDwjS2ch52Di0WEjp1OBvqiiK
283wdPHx5yKTgfg27WC30UqsXWLDiMDyUXST3NSKsm4dVbt2ni4wb9p4qzL57+Eq
wWNWxxszDYPIGf6YvyPnu/qOu8v1GfYPArUXE8CN19Tm
-----END CERTIFICATE-----
