Certificate:
    Data:
        Version: 3 (0x2)
        Serial Number: 6683 (0x1a1b)
    Signature Algorithm: md5WithRSAEncryption
        Issuer: C=US, ST=OH, L=Columbus, O=VikingVPN, OU=MyOrganizationalUnit, CN=VikingVPN CA/name=EasyRSA/emailAddress=me@myhost.mydomain
        Validity
            Not Before: Nov 11 09:31:27 2015 GMT
            Not After : Nov  8 09:31:27 2025 GMT
        Subject: CN=Client2050Cert3b62b2
        Subject Public Key Info:
            Public Key Algorithm: rsaEncryption
                Public-Key: (4096 bit)
                Modulus:
                    00:d2:9b:05:71:16:5c:6c:3d:72:84:d4:95:1a:43:
                    12:64:97:0b:80:7b:d7:ed:c6:49:24:5d:5e:c4:be:
                    3c:52:77:26:49:d1:e9:a4:e6:12:8b:00:29:3e:c6:
                    8e:2d:b0:b8:fe:aa:33:23:04:de:27:aa:73:49:b5:
                    49:6e:82:d2:6f:76:6a:c5:63:b8:68:97:32:44:4c:
                    9b:af:52:47:c1:e8:8a:33:4b:f7:40:94:d4:12:db:
                    53:2e:2e:d4:92:69:aa:17:11:58:55:56:fa:12:94:
                    e1:08:df:94:25:bf:68:ca:98:a6:ab:4e:17:15:f0:
                    80:12:c4:65:6b:48:47:87:b7:64:a3:cd:dd:b6:34:
                    e8:55:c1:0a:a8:f9:b5:5e:87:4b:15:d8:16:87:5a:
                    d8:8a:76:61:81:b9:4c:c1:e1:d6:4d:e0:d1:b4:9d:
                    07:c5:38:de:fd:b4:d0:51:15:22:53:d2:61:bc:38:
                    ac:16:9c:00:dc:a7:64:59:64:78:72:e2:24:85:b3:
                    bd:80:c0:37:9b:f4:4f:81:7c:9a:4a:73:9c:06:07:
                    a8:95:75:a5:14:ae:a0:6a:5f:0f:03:f6:4d:21:c2:
                    1c:6e:a7:8e:1e:e8:31:fb:38:b9:e3:e7:08:73:db:
                    0a:b5:97:a3:57:1b:9c:13:09:07:1a:f5:8b:f3:94:
                    cd:6d:73:56:b6:ff:f7:6d:cc:66:ff:2e:ce:54:40:
                    55:c1:ed:a9:96:3b:3a:8c:fe:79:10:58:08:2e:6a:
                    80:91:06:fb:1c:4f:88:6a:b3:97:70:3d:a4:8b:a4:
                    4f:12:1c:45:a7:ea:4e:f1:f6:20:96:9b:b7:7e:cd:
                    c7:8a:97:6f:02:2d:e9:3d:37:2f:85:64:77:68:a7:
                    a7:1c:a9:de:cc:44:80:63:6a:f9:ec:e5:38:3e:5e:
                    7e:8b:a3:c3:e1:1c:70:98:59:57:96:16:57:12:2f:
                    5c:ab:97:cd:d1:02:8b:ee:c9:05:ee:29:18:fe:3b:
                    5c:f4:45:58:9d:41:f6:09:af:a5:5f:89:87:72:27:
                    43:a7:47:e7:be:cc:ba:65:b1:e2:a6:46:fa:7f:58:
                    cb:71:31:79:3e:2b:e1:b3:30:0f:06:df:0c:74:b2:
                    93:2f:5e:9c:64:0b:12:15:7d:02:63:39:f5:0d:a9:
                    d7:1e:bc:e0:e7:7f:c0:bd:ef:6d:c2:21:cf:e2:cf:
                    21:ef:76:46:da:4f:75:04:90:c8:ad:e0:06:87:cc:
                    9a:93:c8:28:d0:c2:ca:cc:fd:de:d3:9b:c5:2a:97:
                    52:76:e7:60:04:24:e9:9d:65:5c:f5:dc:79:69:0e:
                    df:2a:e7:c1:ef:f4:41:a1:75:b6:d6:53:08:eb:9e:
                    6a:4a:b5
                Exponent: 65537 (0x10001)
        X509v3 extensions:
            X509v3 Basic Constraints: 
                CA:FALSE
            Netscape Comment: 
                Easy-RSA Generated Certificate
            X509v3 Subject Key Identifier: 
                E1:6E:94:64:49:28:05:D8:98:0D:19:0B:D5:DA:23:E1:B0:BD:73:74
            X509v3 Authority Key Identifier: 
                keyid:12:CD:60:04:D2:A0:80:9E:70:ED:C6:99:B8:7B:2C:C6:52:FD:19:A1
                DirName:/C=US/ST=OH/L=Columbus/O=VikingVPN/OU=MyOrganizationalUnit/CN=VikingVPN CA/name=EasyRSA/emailAddress=me@myhost.mydomain
                serial:CF:35:85:EE:80:BF:2A:3E

            X509v3 Extended Key Usage: 
                TLS Web Client Authentication
            X509v3 Key Usage: 
                Digital Signature
    Signature Algorithm: md5WithRSAEncryption
         ed:07:22:15:80:4b:fc:4c:1b:ec:a6:10:b7:7c:2a:71:6d:10:
         17:f0:ab:6f:06:24:a2:fa:a5:8d:02:ec:ec:6b:72:8b:76:69:
         8f:30:43:ac:b5:e4:bf:eb:26:98:eb:24:40:32:27:d8:c9:99:
         22:a5:85:8a:5a:e3:63:2c:c8:c7:17:2d:dc:7f:be:c0:8e:4b:
         0f:3a:7c:79:34:6c:18:9e:00:51:cb:03:3b:95:65:dd:df:50:
         77:18:27:85:47:4f:4c:c5:23:42:b0:5d:a3:48:ff:bd:97:bd:
         e2:51:3c:45:63:38:2e:f0:2e:4b:19:11:be:71:f7:87:f9:00:
         00:b3:6a:de:6f:9a:11:91:d5:fc:13:7f:7d:f9:c7:8e:11:d3:
         95:b0:1f:15:a4:b7:6e:31:e7:61:31:ea:85:83:9f:e1:14:fd:
         cf:86:d6:7f:81:d1:f4:77:37:78:5b:ed:a9:49:65:c1:4f:d9:
         11:fa:29:38:77:2c:5a:ad:69:39:b3:f0:1f:c8:4c:15:e7:6f:
         05:ef:b1:a3:fc:9e:92:11:46:f4:2f:04:19:48:3c:cc:e7:52:
         9c:72:12:03:d2:98:e2:c6:4f:6f:71:87:b2:e2:a3:bc:46:ad:
         8b:54:18:4c:5d:f9:b1:ee:72:7b:38:d5:62:7c:63:0a:19:d3:
         66:30:34:bc:67:1e:29:b7:84:37:41:8e:e1:5c:5a:90:f6:c9:
         90:fc:4a:a5:ab:be:25:35:f7:09:57:d3:20:8e:d7:9a:dc:eb:
         5b:87:b5:e5:a9:37:f2:41:c6:9a:83:a4:03:40:8c:da:fd:be:
         f5:c5:04:8e:29:ff:12:1f:a0:cf:45:a6:1f:48:05:3d:22:c4:
         42:00:53:77:d0:a3:f1:d5:82:73:49:3c:63:29:c5:e1:c0:b3:
         3c:3d:46:ca:54:5b:d5:d5:60:ca:1d:0c:0a:bf:bc:9a:a5:d4:
         53:cf:18:ce:92:62:f5:a1:ee:20:d0:e7:16:9c:20:8d:60:59:
         3f:27:df:69:e0:b3:49:5a:4d:70:2c:75:e2:26:d9:36:8b:55:
         5f:3a:39:c8:c0:65:23:e0:80:88:8a:25:36:99:89:d5:72:0d:
         c5:84:46:f2:15:63:1d:27:c1:bf:4c:9e:6f:ba:5f:40:9c:12:
         97:bc:73:31:e1:cb:1b:48:89:a7:c8:0d:ef:cb:b3:6a:ca:dc:
         32:1c:de:b6:fa:3d:87:94:c7:56:9c:6a:59:6e:30:b4:21:12:
         fe:9e:31:23:23:bd:b6:4e:ab:ff:36:86:d0:ef:0d:c9:2d:35:
         d8:bf:7a:94:fe:83:3d:89:30:7a:83:cd:f6:9c:75:81:aa:25:
         3d:2c:ea:08:1c:4c:48:44
-----BEGIN CERTIFICATE-----
MIIGrTCCBJWgAwIBAgICGhswDQYJKoZIhvcNAQEEBQAwgawxCzAJBgNVBAYTAlVT
MQswCQYDVQQIEwJPSDERMA8GA1UEBxMIQ29sdW1idXMxEjAQBgNVBAoTCVZpa2lu
Z1ZQTjEdMBsGA1UECxMUTXlPcmdhbml6YXRpb25hbFVuaXQxFTATBgNVBAMTDFZp
a2luZ1ZQTiBDQTEQMA4GA1UEKRMHRWFzeVJTQTEhMB8GCSqGSIb3DQEJARYSbWVA
bXlob3N0Lm15ZG9tYWluMB4XDTE1MTExMTA5MzEyN1oXDTI1MTEwODA5MzEyN1ow
HzEdMBsGA1UEAxMUQ2xpZW50MjA1MENlcnQzYjYyYjIwggIiMA0GCSqGSIb3DQEB
AQUAA4ICDwAwggIKAoICAQDSmwVxFlxsPXKE1JUaQxJklwuAe9ftxkkkXV7EvjxS
dyZJ0emk5hKLACk+xo4tsLj+qjMjBN4nqnNJtUlugtJvdmrFY7holzJETJuvUkfB
6IozS/dAlNQS21MuLtSSaaoXEVhVVvoSlOEI35Qlv2jKmKarThcV8IASxGVrSEeH
t2Sjzd22NOhVwQqo+bVeh0sV2BaHWtiKdmGBuUzB4dZN4NG0nQfFON79tNBRFSJT
0mG8OKwWnADcp2RZZHhy4iSFs72AwDeb9E+BfJpKc5wGB6iVdaUUrqBqXw8D9k0h
whxup44e6DH7OLnj5whz2wq1l6NXG5wTCQca9YvzlM1tc1a2//dtzGb/Ls5UQFXB
7amWOzqM/nkQWAguaoCRBvscT4hqs5dwPaSLpE8SHEWn6k7x9iCWm7d+zceKl28C
Lek9Ny+FZHdop6ccqd7MRIBjavns5Tg+Xn6Lo8PhHHCYWVeWFlcSL1yrl83RAovu
yQXuKRj+O1z0RVidQfYJr6VfiYdyJ0OnR+e+zLplseKmRvp/WMtxMXk+K+GzMA8G
3wx0spMvXpxkCxIVfQJjOfUNqdcevODnf8C9723CIc/izyHvdkbaT3UEkMit4AaH
zJqTyCjQwsrM/d7Tm8Uql1J252AEJOmdZVz13HlpDt8q58Hv9EGhdbbWUwjrnmpK
tQIDAQABo4IBYzCCAV8wCQYDVR0TBAIwADAtBglghkgBhvhCAQ0EIBYeRWFzeS1S
U0EgR2VuZXJhdGVkIENlcnRpZmljYXRlMB0GA1UdDgQWBBThbpRkSSgF2JgNGQvV
2iPhsL1zdDCB4QYDVR0jBIHZMIHWgBQSzWAE0qCAnnDtxpm4eyzGUv0ZoaGBsqSB
rzCBrDELMAkGA1UEBhMCVVMxCzAJBgNVBAgTAk9IMREwDwYDVQQHEwhDb2x1bWJ1
czESMBAGA1UEChMJVmlraW5nVlBOMR0wGwYDVQQLExRNeU9yZ2FuaXphdGlvbmFs
VW5pdDEVMBMGA1UEAxMMVmlraW5nVlBOIENBMRAwDgYDVQQpEwdFYXN5UlNBMSEw
HwYJKoZIhvcNAQkBFhJtZUBteWhvc3QubXlkb21haW6CCQDPNYXugL8qPjATBgNV
HSUEDDAKBggrBgEFBQcDAjALBgNVHQ8EBAMCB4AwDQYJKoZIhvcNAQEEBQADggIB
AO0HIhWAS/xMG+ymELd8KnFtEBfwq28GJKL6pY0C7Oxrcot2aY8wQ6y15L/rJpjr
JEAyJ9jJmSKlhYpa42MsyMcXLdx/vsCOSw86fHk0bBieAFHLAzuVZd3fUHcYJ4VH
T0zFI0KwXaNI/72XveJRPEVjOC7wLksZEb5x94f5AACzat5vmhGR1fwTf335x44R
05WwHxWkt24x52Ex6oWDn+EU/c+G1n+B0fR3N3hb7alJZcFP2RH6KTh3LFqtaTmz
8B/ITBXnbwXvsaP8npIRRvQvBBlIPMznUpxyEgPSmOLGT29xh7Lio7xGrYtUGExd
+bHucns41WJ8YwoZ02YwNLxnHim3hDdBjuFcWpD2yZD8SqWrviU19wlX0yCO15rc
61uHteWpN/JBxpqDpANAjNr9vvXFBI4p/xIfoM9Fph9IBT0ixEIAU3fQo/HVgnNJ
PGMpxeHAszw9RspUW9XVYModDAq/vJql1FPPGM6SYvWh7iDQ5xacII1gWT8n32ng
s0laTXAsdeIm2TaLVV86OcjAZSPggIiKJTaZidVyDcWERvIVYx0nwb9Mnm+6X0Cc
Epe8czHhyxtIiafIDe/Ls2rK3DIc3rb6PYeUx1acalluMLQhEv6eMSMjvbZOq/82
htDvDcktNdi/epT+gz2JMHqDzfacdYGqJT0s6ggcTEhE
-----END CERTIFICATE-----
