Certificate:
    Data:
        Version: 3 (0x2)
        Serial Number: 8981 (0x2315)
    Signature Algorithm: sha256WithRSAEncryption
        Issuer: C=US, ST=OH, L=Columbus, O=VikingVPN, OU=MyOrganizationalUnit, CN=VikingVPN CA/name=EasyRSA/emailAddress=me@myhost.mydomain
        Validity
            Not Before: Sep  4 23:17:12 2016 GMT
            Not After : Sep  2 23:17:12 2026 GMT
        Subject: CN=Client2152Certcb1302
        Subject Public Key Info:
            Public Key Algorithm: rsaEncryption
                Public-Key: (4096 bit)
                Modulus:
                    00:c5:9b:62:d9:f7:ea:8d:27:f6:d2:97:ee:dd:a7:
                    8d:c3:28:ad:de:2f:9a:98:04:54:c4:b3:da:8b:99:
                    ff:e2:0e:20:1a:6f:b4:13:ef:bd:f8:e7:74:a2:cf:
                    bc:83:44:9f:1e:05:19:d5:32:3f:85:9c:d1:dd:f9:
                    ac:e3:35:18:a5:88:df:bb:cb:73:c9:e6:63:4b:b6:
                    1f:b5:de:09:3c:f2:e1:a8:50:75:80:71:aa:20:88:
                    6d:ed:c7:3c:83:1e:46:d0:9f:47:7f:02:c7:61:13:
                    dd:d5:6e:8d:75:32:4b:3c:49:7d:bf:5e:d4:14:54:
                    a1:5b:f8:7e:3a:4d:c7:b1:b6:07:bc:09:90:b1:b5:
                    8e:38:24:f2:95:25:d9:1d:7c:65:1a:96:5d:ad:80:
                    80:5b:ff:63:a1:a4:07:f0:16:fb:c0:9e:83:2e:60:
                    2c:6c:59:a3:05:50:d1:16:73:98:bc:fa:91:ec:f0:
                    62:6a:af:e3:82:1b:7a:94:a1:ea:d8:71:b7:11:4c:
                    c5:93:4a:96:d9:13:b4:6c:71:f0:65:80:e1:94:b0:
                    db:1c:0a:6e:67:5c:56:1e:13:90:6d:f4:43:6b:84:
                    6e:dd:cc:f9:a5:18:ac:af:a1:57:7a:1c:d6:41:d1:
                    21:ac:c7:23:8b:04:0a:3e:65:07:6b:9c:f9:3d:e0:
                    52:2f:f9:e9:72:d9:ef:cb:8a:36:fd:db:6d:7c:19:
                    c2:de:91:92:be:3a:44:03:43:68:00:05:1c:e3:5d:
                    6c:cc:f9:92:94:38:62:f1:f2:41:c4:1a:61:47:6c:
                    d1:bb:38:ad:4f:1e:ef:02:ee:4e:d3:a0:d6:86:45:
                    64:98:0f:fe:46:a3:6c:77:f3:3e:74:af:73:e8:91:
                    83:0f:0d:10:97:dd:38:a4:42:37:fb:db:1b:e8:90:
                    5e:ab:15:02:d5:56:24:72:f4:c3:b3:82:b9:b3:2d:
                    08:1e:f0:32:50:d9:ab:61:71:4e:28:70:0a:c7:a0:
                    1f:f5:fb:35:bb:a2:f1:dd:df:4b:71:f3:5b:db:d7:
                    de:60:fb:f6:b8:a1:fb:39:55:d8:11:73:7f:33:8f:
                    30:ba:75:11:0e:f9:4d:8c:50:eb:ee:f1:cd:f8:73:
                    02:c5:50:af:d6:d7:f9:c3:22:f3:37:b2:77:c1:d7:
                    ef:aa:41:a0:ff:83:c7:16:48:f9:6f:2a:b4:33:bd:
                    1d:b7:83:b6:8f:87:38:65:af:fa:d4:51:89:4b:a0:
                    94:c7:40:df:30:91:5f:a5:d1:fa:6b:ea:0c:83:ff:
                    98:3a:2e:37:b5:5c:65:21:57:88:17:98:65:ad:f2:
                    21:f7:ac:d5:de:26:48:dd:1a:98:7d:7e:57:7d:74:
                    fa:2d:af
                Exponent: 65537 (0x10001)
        X509v3 extensions:
            X509v3 Basic Constraints: 
                CA:FALSE
            Netscape Comment: 
                Easy-RSA Generated Certificate
            X509v3 Subject Key Identifier: 
                2E:65:E2:D4:52:3F:23:3F:CD:BB:80:09:6B:AE:7D:73:33:6C:DC:20
            X509v3 Authority Key Identifier: 
                keyid:12:CD:60:04:D2:A0:80:9E:70:ED:C6:99:B8:7B:2C:C6:52:FD:19:A1
                DirName:/C=US/ST=OH/L=Columbus/O=VikingVPN/OU=MyOrganizationalUnit/CN=VikingVPN CA/name=EasyRSA/emailAddress=me@myhost.mydomain
                serial:CF:35:85:EE:80:BF:2A:3E

            X509v3 Extended Key Usage: 
                TLS Web Client Authentication
            X509v3 Key Usage: 
                Digital Signature
    Signature Algorithm: sha256WithRSAEncryption
         13:a3:ea:26:43:6d:ef:12:79:76:dd:5a:d0:13:0f:fc:10:41:
         07:02:64:97:73:ce:11:5c:39:bf:b6:66:af:31:70:42:65:de:
         75:45:e5:a2:64:ae:9c:df:b3:2c:c3:cf:ce:32:e4:3a:a5:b5:
         16:74:19:73:2a:ad:4c:0b:d2:86:21:f6:09:88:96:8b:67:63:
         17:bd:7b:5c:83:7f:ae:02:b0:8d:a8:0a:1f:33:66:2c:81:41:
         06:80:1f:30:33:13:4c:4e:0b:e8:3a:92:13:87:e9:3a:12:cb:
         b0:9a:6a:ff:7e:ab:27:4a:bc:f1:e2:66:26:a4:e4:82:8d:26:
         5a:98:f4:90:0a:fc:dd:1b:61:63:e2:6e:30:d7:77:7f:68:7c:
         43:9c:dc:9f:d3:94:d6:28:b2:bf:39:18:c2:5c:a6:89:c7:75:
         25:26:22:65:c1:e7:7e:d4:43:9d:7d:8d:59:f5:f4:00:56:b7:
         67:06:5a:fd:91:a6:65:37:08:30:b5:9a:cd:1b:32:94:76:9e:
         34:2c:8c:07:1a:ea:1a:a0:f1:55:34:e9:fe:8d:13:fc:d9:a3:
         ec:93:e6:5a:89:d0:1d:a2:d3:2b:2f:49:06:ea:2a:30:6b:d2:
         15:f9:46:b0:9e:e0:fe:8e:c1:42:1c:b0:ec:ce:49:b7:a7:0a:
         4a:64:f5:0b:9e:d8:a1:49:53:d2:cb:4b:66:93:5a:94:58:ab:
         bf:38:93:3f:43:78:40:19:45:90:98:51:67:b3:4a:71:8d:20:
         8c:72:87:1b:39:ef:23:b6:92:9f:5f:55:a0:e3:3d:1c:26:b7:
         c3:4d:3c:6f:c4:b6:6d:19:d9:3f:6d:94:2c:98:41:be:e0:bf:
         09:3c:56:cb:a2:bd:d3:17:3e:41:b6:02:16:33:4d:39:38:8e:
         69:96:3a:38:14:ec:2a:df:43:f0:16:0f:e0:45:73:49:70:37:
         88:d3:56:30:9c:c5:8a:d3:de:86:89:de:1b:06:6c:01:6d:28:
         97:33:a4:24:c8:76:44:01:b9:fe:22:8a:27:c2:31:a8:e2:dd:
         74:45:2b:05:6f:c6:43:aa:0a:d7:1b:a3:20:a7:d0:8b:08:92:
         9b:75:49:c8:c3:8e:ab:94:98:55:48:42:68:4b:16:1c:63:41:
         dc:74:3f:fe:26:ae:33:0e:0e:6b:e5:6d:91:8c:79:5a:4b:89:
         22:7e:2c:5a:24:55:6e:fd:b0:51:49:0c:4a:ef:2c:e9:7e:d9:
         19:9a:1b:0f:b6:27:01:e5:32:51:3c:5c:0e:82:fe:45:b5:00:
         4a:d7:ee:ed:e7:df:e6:d7:01:c1:fc:1e:a1:a9:f3:76:99:f4:
         0c:ac:c4:11:2c:e4:ec:bd
-----BEGIN CERTIFICATE-----
MIIGrTCCBJWgAwIBAgICIxUwDQYJKoZIhvcNAQELBQAwgawxCzAJBgNVBAYTAlVT
MQswCQYDVQQIEwJPSDERMA8GA1UEBxMIQ29sdW1idXMxEjAQBgNVBAoTCVZpa2lu
Z1ZQTjEdMBsGA1UECxMUTXlPcmdhbml6YXRpb25hbFVuaXQxFTATBgNVBAMTDFZp
a2luZ1ZQTiBDQTEQMA4GA1UEKRMHRWFzeVJTQTEhMB8GCSqGSIb3DQEJARYSbWVA
bXlob3N0Lm15ZG9tYWluMB4XDTE2MDkwNDIzMTcxMloXDTI2MDkwMjIzMTcxMlow
HzEdMBsGA1UEAxMUQ2xpZW50MjE1MkNlcnRjYjEzMDIwggIiMA0GCSqGSIb3DQEB
AQUAA4ICDwAwggIKAoICAQDFm2LZ9+qNJ/bSl+7dp43DKK3eL5qYBFTEs9qLmf/i
DiAab7QT773453Siz7yDRJ8eBRnVMj+FnNHd+azjNRiliN+7y3PJ5mNLth+13gk8
8uGoUHWAcaogiG3txzyDHkbQn0d/AsdhE93Vbo11Mks8SX2/XtQUVKFb+H46Tcex
tge8CZCxtY44JPKVJdkdfGUall2tgIBb/2OhpAfwFvvAnoMuYCxsWaMFUNEWc5i8
+pHs8GJqr+OCG3qUoerYcbcRTMWTSpbZE7RscfBlgOGUsNscCm5nXFYeE5Bt9ENr
hG7dzPmlGKyvoVd6HNZB0SGsxyOLBAo+ZQdrnPk94FIv+ely2e/Lijb92218GcLe
kZK+OkQDQ2gABRzjXWzM+ZKUOGLx8kHEGmFHbNG7OK1PHu8C7k7ToNaGRWSYD/5G
o2x38z50r3PokYMPDRCX3TikQjf72xvokF6rFQLVViRy9MOzgrmzLQge8DJQ2ath
cU4ocArHoB/1+zW7ovHd30tx81vb195g+/a4ofs5VdgRc38zjzC6dREO+U2MUOvu
8c34cwLFUK/W1/nDIvM3snfB1++qQaD/g8cWSPlvKrQzvR23g7aPhzhlr/rUUYlL
oJTHQN8wkV+l0fpr6gyD/5g6Lje1XGUhV4gXmGWt8iH3rNXeJkjdGph9fld9dPot
rwIDAQABo4IBYzCCAV8wCQYDVR0TBAIwADAtBglghkgBhvhCAQ0EIBYeRWFzeS1S
U0EgR2VuZXJhdGVkIENlcnRpZmljYXRlMB0GA1UdDgQWBBQuZeLUUj8jP827gAlr
rn1zM2zcIDCB4QYDVR0jBIHZMIHWgBQSzWAE0qCAnnDtxpm4eyzGUv0ZoaGBsqSB
rzCBrDELMAkGA1UEBhMCVVMxCzAJBgNVBAgTAk9IMREwDwYDVQQHEwhDb2x1bWJ1
czESMBAGA1UEChMJVmlraW5nVlBOMR0wGwYDVQQLExRNeU9yZ2FuaXphdGlvbmFs
VW5pdDEVMBMGA1UEAxMMVmlraW5nVlBOIENBMRAwDgYDVQQpEwdFYXN5UlNBMSEw
HwYJKoZIhvcNAQkBFhJtZUBteWhvc3QubXlkb21haW6CCQDPNYXugL8qPjATBgNV
HSUEDDAKBggrBgEFBQcDAjALBgNVHQ8EBAMCB4AwDQYJKoZIhvcNAQELBQADggIB
ABOj6iZDbe8SeXbdWtATD/wQQQcCZJdzzhFcOb+2Zq8xcEJl3nVF5aJkrpzfsyzD
z84y5DqltRZ0GXMqrUwL0oYh9gmIlotnYxe9e1yDf64CsI2oCh8zZiyBQQaAHzAz
E0xOC+g6khOH6ToSy7Caav9+qydKvPHiZiak5IKNJlqY9JAK/N0bYWPibjDXd39o
fEOc3J/TlNYosr85GMJcponHdSUmImXB537UQ519jVn19ABWt2cGWv2RpmU3CDC1
ms0bMpR2njQsjAca6hqg8VU06f6NE/zZo+yT5lqJ0B2i0ysvSQbqKjBr0hX5RrCe
4P6OwUIcsOzOSbenCkpk9Que2KFJU9LLS2aTWpRYq784kz9DeEAZRZCYUWezSnGN
IIxyhxs57yO2kp9fVaDjPRwmt8NNPG/Etm0Z2T9tlCyYQb7gvwk8VsuivdMXPkG2
AhYzTTk4jmmWOjgU7CrfQ/AWD+BFc0lwN4jTVjCcxYrT3oaJ3hsGbAFtKJczpCTI
dkQBuf4iiifCMaji3XRFKwVvxkOqCtcboyCn0IsIkpt1ScjDjquUmFVIQmhLFhxj
Qdx0P/4mrjMODmvlbZGMeVpLiSJ+LFokVW79sFFJDErvLOl+2RmaGw+2JwHlMlE8
XA6C/kW1AErX7u3n3+bXAcH8HqGp83aZ9AysxBEs5Oy9
-----END CERTIFICATE-----
