Certificate:
    Data:
        Version: 3 (0x2)
        Serial Number: 7602 (0x1db2)
    Signature Algorithm: md5WithRSAEncryption
        Issuer: C=US, ST=OH, L=Columbus, O=VikingVPN, OU=MyOrganizationalUnit, CN=VikingVPN CA/name=EasyRSA/emailAddress=me@myhost.mydomain
        Validity
            Not Before: Mar 23 21:04:24 2016 GMT
            Not After : Mar 21 21:04:24 2026 GMT
        Subject: CN=Client1711Certf439c4
        Subject Public Key Info:
            Public Key Algorithm: rsaEncryption
                Public-Key: (4096 bit)
                Modulus:
                    00:ac:a6:25:5b:79:43:fe:f1:65:11:e4:a2:34:f0:
                    75:e6:5a:8f:f1:0c:83:60:48:2e:cd:b9:01:29:8b:
                    65:64:58:31:26:7f:da:cb:67:5b:14:c1:10:70:e3:
                    39:bb:1f:41:dd:c1:ef:c4:12:e0:a2:58:4d:bc:8e:
                    f3:60:97:dc:31:01:c7:95:91:bf:81:97:7b:d2:df:
                    0c:99:bf:03:c0:d9:6c:97:dd:76:9e:49:38:fa:d2:
                    a0:97:5f:dc:2a:1b:f7:1c:c9:cc:0c:7a:7b:6c:23:
                    b0:3d:a7:7c:b6:80:29:a6:3b:0f:db:96:5a:e2:c0:
                    4a:fe:55:26:e0:dc:8a:b2:66:9a:ca:06:e4:d9:b9:
                    b9:6b:be:2a:1f:b6:54:f3:19:26:80:de:9b:96:f0:
                    b6:66:10:6e:db:4c:ba:d8:89:19:3e:64:a7:48:57:
                    cc:3f:fc:36:3d:d6:fc:9d:b3:14:79:20:cd:a1:78:
                    71:9e:e1:c5:27:05:6b:4c:1a:79:a8:1c:cc:6f:1d:
                    eb:e3:25:02:48:d6:84:85:25:2c:2c:8e:bd:4a:43:
                    d6:78:24:0c:e5:a9:60:51:f1:f3:43:47:fd:2e:16:
                    75:f0:7b:ea:f7:b1:54:4a:8c:ad:3b:c3:dc:4c:45:
                    8f:f8:2b:97:87:ef:68:bc:11:91:de:cb:ab:ae:dd:
                    0d:90:62:49:e5:e9:60:1b:42:4a:25:af:98:78:8f:
                    cb:8a:33:ac:0a:b6:74:4e:90:d6:9e:47:44:8f:46:
                    20:a7:f8:ce:9f:fd:f4:23:76:19:eb:c3:07:ac:db:
                    aa:14:60:5d:50:1f:fc:a0:d4:f0:3f:2d:48:60:a8:
                    9e:5e:f2:2e:fc:4c:e6:6e:f3:0d:4c:1f:c3:2e:f7:
                    35:b4:d4:ae:cc:31:b6:c5:50:53:f6:54:08:5f:e0:
                    40:91:a3:33:a3:9b:3d:e0:60:25:78:af:82:4f:49:
                    60:3e:aa:c1:2b:37:28:e0:ef:e3:e9:43:bf:97:fc:
                    b0:c8:25:f2:ac:70:50:90:c3:4c:ae:3b:25:57:e8:
                    db:75:ea:da:60:ec:1e:09:3e:f1:0d:a1:7c:30:11:
                    24:5c:57:e5:a4:87:2e:ce:13:8d:59:de:c3:22:29:
                    69:d9:f3:0e:40:e4:57:47:85:8b:cf:55:c0:25:ac:
                    6f:ee:e5:5e:53:61:c8:85:ff:73:88:1f:36:ef:38:
                    5c:ac:a7:6c:5d:97:59:64:63:3f:c8:18:d3:60:e9:
                    f6:eb:77:47:9b:b4:2b:81:c3:85:3a:54:d3:56:04:
                    49:e3:2f:6a:46:c4:af:94:4c:bd:36:85:91:0e:d8:
                    19:d7:51:8f:10:38:6e:2f:b8:af:2f:d2:89:88:e5:
                    e2:47:3f
                Exponent: 65537 (0x10001)
        X509v3 extensions:
            X509v3 Basic Constraints: 
                CA:FALSE
            Netscape Comment: 
                Easy-RSA Generated Certificate
            X509v3 Subject Key Identifier: 
                28:4D:00:21:36:AD:7E:C6:4D:F8:1B:06:D7:4C:3E:D2:02:6B:41:97
            X509v3 Authority Key Identifier: 
                keyid:12:CD:60:04:D2:A0:80:9E:70:ED:C6:99:B8:7B:2C:C6:52:FD:19:A1
                DirName:/C=US/ST=OH/L=Columbus/O=VikingVPN/OU=MyOrganizationalUnit/CN=VikingVPN CA/name=EasyRSA/emailAddress=me@myhost.mydomain
                serial:CF:35:85:EE:80:BF:2A:3E

            X509v3 Extended Key Usage: 
                TLS Web Client Authentication
            X509v3 Key Usage: 
                Digital Signature
    Signature Algorithm: md5WithRSAEncryption
         a7:d4:55:a8:ca:9b:81:cf:dc:88:3d:1a:37:c3:11:96:3e:54:
         ed:9e:bd:7c:c4:52:1c:d2:81:00:e1:38:14:24:a6:02:dc:a4:
         95:2c:7a:9e:88:78:9d:80:cd:31:30:cd:85:a6:6c:fc:74:78:
         da:a8:b5:f4:02:3f:d6:f3:63:5e:96:32:f4:3b:f2:26:c3:0f:
         3b:4e:97:1d:57:b7:60:6f:a2:4b:de:b7:33:a5:c1:85:60:b8:
         8c:b3:92:16:5e:e7:ea:39:45:64:6b:70:4d:15:9f:1d:27:40:
         9d:e9:62:6d:9e:fb:73:5e:54:00:6b:97:bd:75:0b:3b:b5:d9:
         dd:eb:70:e7:d0:11:eb:cf:78:02:42:6f:0e:79:db:66:90:00:
         4b:85:aa:07:34:1a:07:a8:41:49:10:ab:31:50:df:af:38:15:
         97:04:44:eb:a8:14:d7:4a:36:2f:a4:6d:78:41:c9:85:b3:2a:
         0b:b4:8a:7f:99:ad:7c:3f:4a:b4:ff:f3:1d:37:a8:05:01:77:
         52:9b:f1:33:81:59:3a:83:a5:fb:6c:15:29:f0:54:fa:ab:14:
         a4:88:e8:8f:d0:a5:cf:97:ee:b1:71:6b:75:c2:0f:06:a2:a7:
         37:64:20:14:1f:aa:a6:ec:2b:8f:21:14:d2:f3:d2:5e:05:05:
         f4:26:5b:39:7d:4c:c6:73:49:6a:d4:2a:db:db:d8:84:73:04:
         69:13:6c:98:4b:65:f5:f6:e6:a2:e3:f0:9d:b4:d3:7c:52:a2:
         d5:69:4f:6d:b6:8b:fd:61:bf:96:e0:34:3f:c0:81:4c:fe:ee:
         8f:99:b4:64:eb:6c:3b:91:5f:7a:bd:d2:76:77:0b:a5:1e:7e:
         24:b7:ad:01:3d:b4:6a:8b:59:a3:0d:fe:7f:34:bc:f4:65:80:
         a2:5c:c7:ce:cf:de:10:c0:eb:0b:ab:4d:b2:75:3a:ae:b5:08:
         15:dc:4c:ae:9e:97:6d:bd:57:81:0c:aa:bb:39:41:9f:8b:be:
         3e:77:05:a9:a3:c4:d2:31:c8:36:55:79:bb:84:7a:f9:b2:67:
         62:d1:dc:c7:71:f2:5b:64:4f:a8:55:08:d0:5b:33:97:08:ff:
         6a:ef:cf:76:db:fa:c4:bd:fa:94:d9:dc:51:3d:0e:e4:ce:13:
         49:9f:b2:f3:0d:c0:a2:48:c8:61:9b:d1:ba:77:a3:04:0b:31:
         fe:ae:79:cd:59:7b:e4:c4:0c:65:1b:1f:2a:ea:e2:fb:8e:8b:
         54:36:51:70:56:41:2b:2a:85:59:43:4b:91:3d:d0:e4:4d:25:
         5a:2b:4d:ba:44:5a:3d:81:49:8c:41:98:a5:3e:16:38:6c:09:
         57:ba:80:8e:e1:cb:ce:fc
-----BEGIN CERTIFICATE-----
MIIGrTCCBJWgAwIBAgICHbIwDQYJKoZIhvcNAQEEBQAwgawxCzAJBgNVBAYTAlVT
MQswCQYDVQQIEwJPSDERMA8GA1UEBxMIQ29sdW1idXMxEjAQBgNVBAoTCVZpa2lu
Z1ZQTjEdMBsGA1UECxMUTXlPcmdhbml6YXRpb25hbFVuaXQxFTATBgNVBAMTDFZp
a2luZ1ZQTiBDQTEQMA4GA1UEKRMHRWFzeVJTQTEhMB8GCSqGSIb3DQEJARYSbWVA
bXlob3N0Lm15ZG9tYWluMB4XDTE2MDMyMzIxMDQyNFoXDTI2MDMyMTIxMDQyNFow
HzEdMBsGA1UEAxMUQ2xpZW50MTcxMUNlcnRmNDM5YzQwggIiMA0GCSqGSIb3DQEB
AQUAA4ICDwAwggIKAoICAQCspiVbeUP+8WUR5KI08HXmWo/xDINgSC7NuQEpi2Vk
WDEmf9rLZ1sUwRBw4zm7H0Hdwe/EEuCiWE28jvNgl9wxAceVkb+Bl3vS3wyZvwPA
2WyX3XaeSTj60qCXX9wqG/ccycwMentsI7A9p3y2gCmmOw/bllriwEr+VSbg3Iqy
ZprKBuTZublrvioftlTzGSaA3puW8LZmEG7bTLrYiRk+ZKdIV8w//DY91vydsxR5
IM2heHGe4cUnBWtMGnmoHMxvHevjJQJI1oSFJSwsjr1KQ9Z4JAzlqWBR8fNDR/0u
FnXwe+r3sVRKjK07w9xMRY/4K5eH72i8EZHey6uu3Q2QYknl6WAbQkolr5h4j8uK
M6wKtnROkNaeR0SPRiCn+M6f/fQjdhnrwwes26oUYF1QH/yg1PA/LUhgqJ5e8i78
TOZu8w1MH8Mu9zW01K7MMbbFUFP2VAhf4ECRozOjmz3gYCV4r4JPSWA+qsErNyjg
7+PpQ7+X/LDIJfKscFCQw0yuOyVX6Nt16tpg7B4JPvENoXwwESRcV+Wkhy7OE41Z
3sMiKWnZ8w5A5FdHhYvPVcAlrG/u5V5TYciF/3OIHzbvOFysp2xdl1lkYz/IGNNg
6fbrd0ebtCuBw4U6VNNWBEnjL2pGxK+UTL02hZEO2BnXUY8QOG4vuK8v0omI5eJH
PwIDAQABo4IBYzCCAV8wCQYDVR0TBAIwADAtBglghkgBhvhCAQ0EIBYeRWFzeS1S
U0EgR2VuZXJhdGVkIENlcnRpZmljYXRlMB0GA1UdDgQWBBQoTQAhNq1+xk34GwbX
TD7SAmtBlzCB4QYDVR0jBIHZMIHWgBQSzWAE0qCAnnDtxpm4eyzGUv0ZoaGBsqSB
rzCBrDELMAkGA1UEBhMCVVMxCzAJBgNVBAgTAk9IMREwDwYDVQQHEwhDb2x1bWJ1
czESMBAGA1UEChMJVmlraW5nVlBOMR0wGwYDVQQLExRNeU9yZ2FuaXphdGlvbmFs
VW5pdDEVMBMGA1UEAxMMVmlraW5nVlBOIENBMRAwDgYDVQQpEwdFYXN5UlNBMSEw
HwYJKoZIhvcNAQkBFhJtZUBteWhvc3QubXlkb21haW6CCQDPNYXugL8qPjATBgNV
HSUEDDAKBggrBgEFBQcDAjALBgNVHQ8EBAMCB4AwDQYJKoZIhvcNAQEEBQADggIB
AKfUVajKm4HP3Ig9GjfDEZY+VO2evXzEUhzSgQDhOBQkpgLcpJUsep6IeJ2AzTEw
zYWmbPx0eNqotfQCP9bzY16WMvQ78ibDDztOlx1Xt2BvokvetzOlwYVguIyzkhZe
5+o5RWRrcE0Vnx0nQJ3pYm2e+3NeVABrl711Czu12d3rcOfQEevPeAJCbw5522aQ
AEuFqgc0GgeoQUkQqzFQ3684FZcEROuoFNdKNi+kbXhByYWzKgu0in+ZrXw/SrT/
8x03qAUBd1Kb8TOBWTqDpftsFSnwVPqrFKSI6I/Qpc+X7rFxa3XCDwaipzdkIBQf
qqbsK48hFNLz0l4FBfQmWzl9TMZzSWrUKtvb2IRzBGkTbJhLZfX25qLj8J2003xS
otVpT222i/1hv5bgND/AgUz+7o+ZtGTrbDuRX3q90nZ3C6UefiS3rQE9tGqLWaMN
/n80vPRlgKJcx87P3hDA6wurTbJ1Oq61CBXcTK6el229V4EMqrs5QZ+Lvj53Bamj
xNIxyDZVebuEevmyZ2LR3Mdx8ltkT6hVCNBbM5cI/2rvz3bb+sS9+pTZ3FE9DuTO
E0mfsvMNwKJIyGGb0bp3owQLMf6uec1Ze+TEDGUbHyrq4vuOi1Q2UXBWQSsqhVlD
S5E90ORNJVorTbpEWj2BSYxBmKU+FjhsCVe6gI7hy878
-----END CERTIFICATE-----
