Certificate:
    Data:
        Version: 3 (0x2)
        Serial Number: 6238 (0x185e)
    Signature Algorithm: md5WithRSAEncryption
        Issuer: C=US, ST=OH, L=Columbus, O=VikingVPN, OU=MyOrganizationalUnit, CN=VikingVPN CA/name=EasyRSA/emailAddress=me@myhost.mydomain
        Validity
            Not Before: Sep  8 07:39:14 2015 GMT
            Not After : Sep  5 07:39:14 2025 GMT
        Subject: CN=Client1882Cert6fd1f8
        Subject Public Key Info:
            Public Key Algorithm: rsaEncryption
                Public-Key: (4096 bit)
                Modulus:
                    00:cc:75:80:49:bf:ee:6c:af:c6:08:cc:1a:76:1a:
                    2c:56:b4:ed:33:af:9e:a2:5c:40:eb:e6:49:68:ae:
                    5e:67:be:f6:23:7b:b8:73:71:63:53:d9:a4:e0:ac:
                    40:b6:75:79:aa:35:60:70:b7:11:5e:dc:89:5f:46:
                    27:69:29:29:40:97:c9:da:e6:ea:04:d1:ca:e3:6a:
                    d4:12:8e:55:2e:df:1e:3d:2d:ff:09:96:f8:10:4d:
                    97:04:13:d3:b4:34:2e:2a:a3:05:0f:da:4f:69:8d:
                    5e:26:9d:68:a8:b9:7b:db:d1:3f:9b:5b:b8:ee:c6:
                    c2:45:20:25:8d:67:d0:be:06:b8:84:b6:ea:94:de:
                    a2:dc:14:e9:c5:61:f9:9a:17:da:c8:1d:ed:1e:a1:
                    22:9a:99:29:a9:b2:5b:1f:89:cb:e4:e4:77:33:b5:
                    87:18:b8:22:1a:4c:f6:00:e2:b5:c6:a7:f7:90:d1:
                    b5:00:6f:78:8c:36:0c:cc:75:07:65:dd:7d:eb:44:
                    14:a9:3b:3c:04:5d:59:21:d3:48:26:68:d5:f8:36:
                    76:98:61:fd:6d:90:96:71:e7:b4:46:4b:90:3e:38:
                    63:58:de:f0:3c:ea:20:17:94:69:3f:41:34:39:cf:
                    5e:61:ec:52:5d:78:ac:54:57:8c:da:7e:79:ef:da:
                    67:6e:fa:ed:81:71:7a:7c:da:5f:a4:4a:ef:60:21:
                    4a:1b:1b:65:81:d4:32:6e:71:28:28:33:47:d5:b5:
                    13:36:a4:da:0e:77:d5:f0:f8:09:5e:a7:71:b7:a4:
                    84:58:f2:33:e2:ef:7a:d5:ca:88:45:43:6f:2f:96:
                    6e:67:09:9d:8d:94:20:7e:1a:da:04:db:ee:12:0a:
                    a0:b8:14:77:6d:07:38:f8:6f:76:fd:c1:96:35:31:
                    fb:9a:f2:d5:72:2e:ca:e4:ad:08:ef:58:5c:df:d6:
                    aa:41:97:d9:02:bb:ea:96:f9:59:c3:42:6e:67:9b:
                    0b:cb:f8:95:35:f7:1e:94:96:81:fc:f5:3e:3e:3e:
                    d4:33:e5:43:da:12:94:0f:49:a3:fb:88:34:b1:10:
                    f8:7f:03:73:a8:c3:b9:09:d4:33:a7:c5:50:cf:ec:
                    ef:66:b5:33:c3:72:52:ab:ca:c6:a4:1c:1d:57:42:
                    a0:19:33:be:a5:58:6b:af:8c:30:89:c4:06:37:dd:
                    a8:a7:20:13:ff:03:16:26:91:23:73:a5:56:88:4d:
                    ef:2f:31:5e:f0:2d:7e:85:81:42:a5:3d:03:24:23:
                    79:ec:2f:52:fd:5a:dc:d8:2a:59:49:b2:b3:41:4d:
                    e0:1c:c1:a2:37:b0:59:cb:5c:9d:43:3d:2c:47:0b:
                    c8:a1:b7
                Exponent: 65537 (0x10001)
        X509v3 extensions:
            X509v3 Basic Constraints: 
                CA:FALSE
            Netscape Comment: 
                Easy-RSA Generated Certificate
            X509v3 Subject Key Identifier: 
                87:D1:F1:27:E5:53:3C:68:49:AF:1D:EC:1A:12:FB:59:E6:EF:18:9E
            X509v3 Authority Key Identifier: 
                keyid:12:CD:60:04:D2:A0:80:9E:70:ED:C6:99:B8:7B:2C:C6:52:FD:19:A1
                DirName:/C=US/ST=OH/L=Columbus/O=VikingVPN/OU=MyOrganizationalUnit/CN=VikingVPN CA/name=EasyRSA/emailAddress=me@myhost.mydomain
                serial:CF:35:85:EE:80:BF:2A:3E

            X509v3 Extended Key Usage: 
                TLS Web Client Authentication
            X509v3 Key Usage: 
                Digital Signature
    Signature Algorithm: md5WithRSAEncryption
         9f:fd:8e:db:39:bd:20:78:db:44:45:cb:8b:26:1f:a4:1d:a3:
         3c:57:c6:cc:e2:44:c3:5a:d1:22:ec:2a:59:7d:54:d6:26:6c:
         15:ae:c0:a0:45:32:6d:02:b3:15:75:83:5b:27:03:d0:77:db:
         7d:30:5a:1f:95:2c:4e:70:91:b2:07:7f:f9:de:53:20:5d:64:
         3f:c1:ce:c3:ca:4a:67:f1:9a:03:89:94:bc:fa:21:9a:55:13:
         07:b1:3a:03:df:42:20:49:b9:72:a5:38:17:bf:22:03:35:08:
         4c:0b:ac:90:0b:ce:4d:1a:a5:c6:ae:d7:fb:12:0e:21:74:3f:
         ba:2d:05:5d:22:fe:ee:7b:cf:d8:c7:c9:34:68:d7:26:0a:a1:
         a3:f9:0a:fe:04:f8:da:7a:fd:e9:f5:81:33:c4:bd:2b:cd:b0:
         b4:f6:12:c0:ba:10:5b:f0:d7:53:0e:02:e6:04:5c:ca:2d:19:
         09:23:30:61:da:57:7a:9f:6d:4b:64:71:81:1f:52:32:b5:be:
         1a:1f:06:da:a0:fb:ff:17:0b:18:11:82:03:b5:af:23:2e:9c:
         cf:ac:da:39:50:13:38:13:97:60:ab:69:cc:cb:6a:44:a3:d4:
         2c:63:5f:17:86:73:93:99:25:c9:e0:95:8d:6d:1d:0b:13:78:
         1e:6b:d0:1e:4c:6c:4b:bc:66:91:95:cf:fc:07:2a:65:9c:f6:
         31:02:32:56:12:6a:66:9e:0c:e9:34:e3:12:21:cb:fd:5b:a9:
         87:47:05:30:c7:bd:14:b5:fd:a8:b3:d3:47:1e:33:da:fb:64:
         62:91:47:9b:d6:24:e7:d3:e7:f6:3a:3f:c9:96:8c:ae:ab:92:
         c0:65:fa:c9:75:85:b6:0a:78:15:84:a5:8a:a2:58:f0:8a:8a:
         bd:65:b7:7b:69:e3:34:99:22:b4:aa:7c:35:d6:3a:dc:05:42:
         fd:db:97:31:a1:29:70:62:2a:ef:8d:16:4f:2a:b1:6f:97:e0:
         a6:43:d0:31:b3:af:ec:ea:62:95:8d:21:64:89:32:fb:a9:be:
         fc:4a:6c:03:45:e4:34:4f:6b:38:e2:b7:0f:39:14:f0:26:43:
         99:4e:7b:61:26:12:d8:9d:cd:83:32:bf:91:a8:11:7a:09:8b:
         a5:6a:f8:e3:de:00:bc:0f:a2:ed:33:b2:d6:72:d8:58:19:76:
         79:f8:19:4a:2a:89:73:3c:a6:57:ef:52:1f:a7:d5:21:6c:e2:
         ea:32:7d:a5:26:51:d4:dc:18:84:82:f7:d1:ba:b8:bd:76:3b:
         89:77:7c:4c:46:67:8d:d1:78:c5:f6:8d:25:30:ce:f8:b2:54:
         67:03:eb:6a:e4:8f:73:e4
-----BEGIN CERTIFICATE-----
MIIGrTCCBJWgAwIBAgICGF4wDQYJKoZIhvcNAQEEBQAwgawxCzAJBgNVBAYTAlVT
MQswCQYDVQQIEwJPSDERMA8GA1UEBxMIQ29sdW1idXMxEjAQBgNVBAoTCVZpa2lu
Z1ZQTjEdMBsGA1UECxMUTXlPcmdhbml6YXRpb25hbFVuaXQxFTATBgNVBAMTDFZp
a2luZ1ZQTiBDQTEQMA4GA1UEKRMHRWFzeVJTQTEhMB8GCSqGSIb3DQEJARYSbWVA
bXlob3N0Lm15ZG9tYWluMB4XDTE1MDkwODA3MzkxNFoXDTI1MDkwNTA3MzkxNFow
HzEdMBsGA1UEAxMUQ2xpZW50MTg4MkNlcnQ2ZmQxZjgwggIiMA0GCSqGSIb3DQEB
AQUAA4ICDwAwggIKAoICAQDMdYBJv+5sr8YIzBp2GixWtO0zr56iXEDr5klorl5n
vvYje7hzcWNT2aTgrEC2dXmqNWBwtxFe3IlfRidpKSlAl8na5uoE0crjatQSjlUu
3x49Lf8JlvgQTZcEE9O0NC4qowUP2k9pjV4mnWiouXvb0T+bW7juxsJFICWNZ9C+
BriEtuqU3qLcFOnFYfmaF9rIHe0eoSKamSmpslsficvk5HcztYcYuCIaTPYA4rXG
p/eQ0bUAb3iMNgzMdQdl3X3rRBSpOzwEXVkh00gmaNX4NnaYYf1tkJZx57RGS5A+
OGNY3vA86iAXlGk/QTQ5z15h7FJdeKxUV4zafnnv2mdu+u2BcXp82l+kSu9gIUob
G2WB1DJucSgoM0fVtRM2pNoOd9Xw+Alep3G3pIRY8jPi73rVyohFQ28vlm5nCZ2N
lCB+GtoE2+4SCqC4FHdtBzj4b3b9wZY1Mfua8tVyLsrkrQjvWFzf1qpBl9kCu+qW
+VnDQm5nmwvL+JU19x6UloH89T4+PtQz5UPaEpQPSaP7iDSxEPh/A3Oow7kJ1DOn
xVDP7O9mtTPDclKrysakHB1XQqAZM76lWGuvjDCJxAY33ainIBP/AxYmkSNzpVaI
Te8vMV7wLX6FgUKlPQMkI3nsL1L9WtzYKllJsrNBTeAcwaI3sFnLXJ1DPSxHC8ih
twIDAQABo4IBYzCCAV8wCQYDVR0TBAIwADAtBglghkgBhvhCAQ0EIBYeRWFzeS1S
U0EgR2VuZXJhdGVkIENlcnRpZmljYXRlMB0GA1UdDgQWBBSH0fEn5VM8aEmvHewa
EvtZ5u8YnjCB4QYDVR0jBIHZMIHWgBQSzWAE0qCAnnDtxpm4eyzGUv0ZoaGBsqSB
rzCBrDELMAkGA1UEBhMCVVMxCzAJBgNVBAgTAk9IMREwDwYDVQQHEwhDb2x1bWJ1
czESMBAGA1UEChMJVmlraW5nVlBOMR0wGwYDVQQLExRNeU9yZ2FuaXphdGlvbmFs
VW5pdDEVMBMGA1UEAxMMVmlraW5nVlBOIENBMRAwDgYDVQQpEwdFYXN5UlNBMSEw
HwYJKoZIhvcNAQkBFhJtZUBteWhvc3QubXlkb21haW6CCQDPNYXugL8qPjATBgNV
HSUEDDAKBggrBgEFBQcDAjALBgNVHQ8EBAMCB4AwDQYJKoZIhvcNAQEEBQADggIB
AJ/9jts5vSB420RFy4smH6QdozxXxsziRMNa0SLsKll9VNYmbBWuwKBFMm0CsxV1
g1snA9B3230wWh+VLE5wkbIHf/neUyBdZD/BzsPKSmfxmgOJlLz6IZpVEwexOgPf
QiBJuXKlOBe/IgM1CEwLrJALzk0apcau1/sSDiF0P7otBV0i/u57z9jHyTRo1yYK
oaP5Cv4E+Np6/en1gTPEvSvNsLT2EsC6EFvw11MOAuYEXMotGQkjMGHaV3qfbUtk
cYEfUjK1vhofBtqg+/8XCxgRggO1ryMunM+s2jlQEzgTl2CraczLakSj1CxjXxeG
c5OZJcnglY1tHQsTeB5r0B5MbEu8ZpGVz/wHKmWc9jECMlYSamaeDOk04xIhy/1b
qYdHBTDHvRS1/aiz00ceM9r7ZGKRR5vWJOfT5/Y6P8mWjK6rksBl+sl1hbYKeBWE
pYqiWPCKir1lt3tp4zSZIrSqfDXWOtwFQv3blzGhKXBiKu+NFk8qsW+X4KZD0DGz
r+zqYpWNIWSJMvupvvxKbANF5DRPazjitw85FPAmQ5lOe2EmEtidzYMyv5GoEXoJ
i6Vq+OPeALwPou0zstZy2FgZdnn4GUoqiXM8plfvUh+n1SFs4uoyfaUmUdTcGISC
99G6uL12O4l3fExGZ43ReMX2jSUwzviyVGcD62rkj3Pk
-----END CERTIFICATE-----
