Certificate:
    Data:
        Version: 3 (0x2)
        Serial Number: 3885 (0xf2d)
    Signature Algorithm: md5WithRSAEncryption
        Issuer: C=US, ST=OH, L=Columbus, O=VikingVPN, OU=MyOrganizationalUnit, CN=VikingVPN CA/name=EasyRSA/emailAddress=me@myhost.mydomain
        Validity
            Not Before: Dec 29 21:45:38 2014 GMT
            Not After : Dec 26 21:45:38 2024 GMT
        Subject: CN=Client801Cert32f8bd
        Subject Public Key Info:
            Public Key Algorithm: rsaEncryption
                Public-Key: (4096 bit)
                Modulus:
                    00:e8:8c:70:2c:fe:66:94:cd:37:f3:7b:84:7d:6d:
                    94:ca:39:6b:7f:ca:35:88:d6:b5:2b:0b:7b:d1:33:
                    43:54:1a:4c:2d:8c:bb:fa:ae:f6:25:34:2d:dd:6c:
                    4d:a3:8e:36:c4:59:e2:de:f9:62:46:21:3c:f2:bb:
                    41:76:5e:34:19:41:d9:a4:11:5a:01:bb:a8:5d:bc:
                    fa:cf:53:a9:5c:cc:56:1b:b4:f4:67:a9:89:2a:f9:
                    1c:20:34:54:20:7e:d4:a4:11:0e:0e:78:e9:aa:78:
                    1e:75:60:dd:76:aa:56:fc:c5:25:93:46:d6:41:f5:
                    3a:49:b2:1d:39:c2:c4:69:4e:22:31:d1:ac:b2:95:
                    e9:70:63:a7:14:cc:48:3d:11:2f:f6:64:e2:82:8b:
                    9f:6a:c2:38:50:25:12:4d:b6:b9:7a:5f:71:e4:1b:
                    b4:99:ee:92:93:39:50:39:ce:5f:ab:9a:bb:27:f7:
                    19:bf:b3:a4:ad:84:2d:da:2b:32:ab:fc:00:28:f1:
                    d6:27:48:3b:41:ed:d1:fa:fd:65:55:67:f0:8e:e5:
                    42:de:34:84:af:a7:dc:ac:8a:8b:53:ef:78:5e:83:
                    24:26:7d:47:e1:43:24:e0:91:af:3b:cf:2a:cc:0b:
                    42:f2:c2:16:52:25:84:73:12:32:1c:2e:4c:df:2b:
                    fb:b9:9e:a1:c2:34:ff:70:94:a8:bb:91:d2:98:91:
                    48:1f:31:c7:ad:4a:fa:31:0a:bb:6f:cf:46:e7:8b:
                    d3:15:a0:46:0f:61:a2:3f:ea:c0:eb:de:c4:dc:ae:
                    91:b3:1b:d3:bf:ef:33:7c:ce:2a:16:f6:87:13:72:
                    f5:13:b8:9a:15:37:2f:9f:de:05:2c:90:ba:96:73:
                    dc:68:f8:27:f5:0a:b0:91:50:cd:19:05:11:21:7a:
                    70:99:87:23:2f:aa:84:d2:f2:6a:91:f2:46:20:7c:
                    a6:ed:82:bc:b0:6b:0e:99:16:c7:3d:f6:ed:e2:f8:
                    c6:e5:e7:c4:3d:07:24:b1:ad:2e:0a:26:0f:7c:29:
                    6b:27:6f:d3:ab:71:44:1c:9e:ba:e3:ec:ee:d5:ce:
                    2d:ba:e2:08:d2:ba:d4:bb:a5:18:e5:cb:a9:05:51:
                    56:a6:6c:50:26:b2:b0:c7:b5:25:33:c3:96:38:e8:
                    b5:c9:a5:2c:9d:dc:ff:a5:bd:82:3b:39:81:2e:86:
                    e2:af:c5:ef:69:b3:8e:86:ea:3d:1e:b7:13:70:61:
                    02:c1:bd:8f:ba:e8:88:1d:c6:1e:8b:0b:b9:bb:8b:
                    67:18:55:f6:3e:0d:49:7c:ac:9f:39:6f:e7:29:7a:
                    9f:0a:8f:9e:b7:e1:4f:db:07:db:77:3e:04:8f:87:
                    08:c8:6b
                Exponent: 65537 (0x10001)
        X509v3 extensions:
            X509v3 Basic Constraints: 
                CA:FALSE
            Netscape Comment: 
                Easy-RSA Generated Certificate
            X509v3 Subject Key Identifier: 
                72:11:72:DC:A0:B8:1E:66:4F:CE:E8:4E:AA:8E:D6:91:7B:0D:FA:38
            X509v3 Authority Key Identifier: 
                keyid:12:CD:60:04:D2:A0:80:9E:70:ED:C6:99:B8:7B:2C:C6:52:FD:19:A1
                DirName:/C=US/ST=OH/L=Columbus/O=VikingVPN/OU=MyOrganizationalUnit/CN=VikingVPN CA/name=EasyRSA/emailAddress=me@myhost.mydomain
                serial:CF:35:85:EE:80:BF:2A:3E

            X509v3 Extended Key Usage: 
                TLS Web Client Authentication
            X509v3 Key Usage: 
                Digital Signature
    Signature Algorithm: md5WithRSAEncryption
         63:01:83:05:77:f7:fb:c7:b7:00:ba:1b:32:fc:d4:f5:20:3f:
         c0:21:d6:ba:bf:72:48:5d:6f:a7:a9:f6:73:88:f8:4b:b4:db:
         47:e4:1c:c0:98:84:52:d9:93:38:b1:cd:c0:0d:a6:4a:e3:61:
         e6:a8:3c:ea:35:b6:59:4f:df:9c:6d:d3:e9:56:71:df:6b:fa:
         c4:83:52:5f:f3:f5:fb:8f:2d:34:3f:d5:af:0f:4f:d5:0a:8a:
         e5:6d:bc:22:44:d3:5f:98:32:3f:e1:7c:62:9b:ac:73:15:de:
         22:06:06:6e:e9:98:64:06:d1:a1:9c:1e:c5:79:05:97:02:5c:
         29:96:42:27:2a:ad:3c:60:94:93:68:ef:02:52:c3:aa:71:a0:
         05:94:77:69:bf:91:4c:72:d8:f0:b9:61:43:6f:e5:27:97:88:
         b0:24:a5:4e:02:90:9a:30:9c:03:d3:43:4d:a5:7a:6e:69:1b:
         96:d8:36:33:6a:c1:4c:14:2d:ba:e5:e5:78:c4:0d:a5:83:45:
         1a:3f:0d:8b:0a:7e:e5:23:8c:77:64:4e:83:59:42:86:27:66:
         1d:b6:55:05:8c:f1:1a:4f:d2:fe:d2:a4:94:c6:03:ff:e0:44:
         2f:24:5f:0a:06:18:f6:bc:d5:c1:e7:08:19:94:d4:23:63:dc:
         09:8c:fa:b4:42:6a:65:0a:9c:61:2b:13:dc:a9:1a:5e:07:c9:
         23:14:24:bb:a9:1e:61:c9:e6:d2:54:1e:54:99:3a:23:ed:59:
         a5:b9:e4:09:c7:fa:88:57:16:1a:49:16:e5:cb:61:39:4a:35:
         09:c9:2b:67:24:8f:25:ab:e4:26:66:e1:49:da:1e:b3:d4:e1:
         ac:89:63:6e:82:d4:7d:12:33:74:0d:d3:75:57:7b:a5:69:c4:
         db:0a:95:a2:e6:e3:d1:cb:67:c4:b6:08:ff:f9:f6:1a:31:78:
         53:99:59:c9:66:ec:be:5c:84:fc:d9:4c:3a:64:0c:dc:7b:dc:
         04:b8:32:c1:02:7f:7a:f6:a9:32:7f:35:c9:8e:d0:a0:e0:47:
         d9:27:ad:73:77:03:1e:54:36:cc:5e:5f:22:8c:4a:56:8f:35:
         7f:20:c5:e0:f8:65:4a:b2:9e:92:00:71:89:b2:59:8e:97:01:
         e6:2c:52:ea:95:6c:34:d5:6d:e4:a0:06:c9:2a:23:50:76:c1:
         aa:7f:89:57:b2:5c:67:71:f9:0b:9b:62:e6:ea:ae:c9:53:86:
         87:ab:b7:bf:bc:aa:90:5f:f2:3e:8d:2e:64:b7:a7:f0:4f:03:
         a2:20:1f:3b:82:ae:a6:cf:4f:6a:ca:a1:78:97:4d:1c:1b:1a:
         a9:e8:4e:8f:7f:3c:e5:5a
-----BEGIN CERTIFICATE-----
MIIGrDCCBJSgAwIBAgICDy0wDQYJKoZIhvcNAQEEBQAwgawxCzAJBgNVBAYTAlVT
MQswCQYDVQQIEwJPSDERMA8GA1UEBxMIQ29sdW1idXMxEjAQBgNVBAoTCVZpa2lu
Z1ZQTjEdMBsGA1UECxMUTXlPcmdhbml6YXRpb25hbFVuaXQxFTATBgNVBAMTDFZp
a2luZ1ZQTiBDQTEQMA4GA1UEKRMHRWFzeVJTQTEhMB8GCSqGSIb3DQEJARYSbWVA
bXlob3N0Lm15ZG9tYWluMB4XDTE0MTIyOTIxNDUzOFoXDTI0MTIyNjIxNDUzOFow
HjEcMBoGA1UEAxMTQ2xpZW50ODAxQ2VydDMyZjhiZDCCAiIwDQYJKoZIhvcNAQEB
BQADggIPADCCAgoCggIBAOiMcCz+ZpTNN/N7hH1tlMo5a3/KNYjWtSsLe9EzQ1Qa
TC2Mu/qu9iU0Ld1sTaOONsRZ4t75YkYhPPK7QXZeNBlB2aQRWgG7qF28+s9TqVzM
Vhu09GepiSr5HCA0VCB+1KQRDg546ap4HnVg3XaqVvzFJZNG1kH1OkmyHTnCxGlO
IjHRrLKV6XBjpxTMSD0RL/Zk4oKLn2rCOFAlEk22uXpfceQbtJnukpM5UDnOX6ua
uyf3Gb+zpK2ELdorMqv8ACjx1idIO0Ht0fr9ZVVn8I7lQt40hK+n3KyKi1PveF6D
JCZ9R+FDJOCRrzvPKswLQvLCFlIlhHMSMhwuTN8r+7meocI0/3CUqLuR0piRSB8x
x61K+jEKu2/PRueL0xWgRg9hoj/qwOvexNyukbMb07/vM3zOKhb2hxNy9RO4mhU3
L5/eBSyQupZz3Gj4J/UKsJFQzRkFESF6cJmHIy+qhNLyapHyRiB8pu2CvLBrDpkW
xz327eL4xuXnxD0HJLGtLgomD3wpaydv06txRByeuuPs7tXOLbriCNK61LulGOXL
qQVRVqZsUCaysMe1JTPDljjotcmlLJ3c/6W9gjs5gS6G4q/F72mzjobqPR63E3Bh
AsG9j7roiB3GHosLubuLZxhV9j4NSXysnzlv5yl6nwqPnrfhT9sH23c+BI+HCMhr
AgMBAAGjggFjMIIBXzAJBgNVHRMEAjAAMC0GCWCGSAGG+EIBDQQgFh5FYXN5LVJT
QSBHZW5lcmF0ZWQgQ2VydGlmaWNhdGUwHQYDVR0OBBYEFHIRctyguB5mT87oTqqO
1pF7Dfo4MIHhBgNVHSMEgdkwgdaAFBLNYATSoICecO3Gmbh7LMZS/RmhoYGypIGv
MIGsMQswCQYDVQQGEwJVUzELMAkGA1UECBMCT0gxETAPBgNVBAcTCENvbHVtYnVz
MRIwEAYDVQQKEwlWaWtpbmdWUE4xHTAbBgNVBAsTFE15T3JnYW5pemF0aW9uYWxV
bml0MRUwEwYDVQQDEwxWaWtpbmdWUE4gQ0ExEDAOBgNVBCkTB0Vhc3lSU0ExITAf
BgkqhkiG9w0BCQEWEm1lQG15aG9zdC5teWRvbWFpboIJAM81he6Avyo+MBMGA1Ud
JQQMMAoGCCsGAQUFBwMCMAsGA1UdDwQEAwIHgDANBgkqhkiG9w0BAQQFAAOCAgEA
YwGDBXf3+8e3ALobMvzU9SA/wCHWur9ySF1vp6n2c4j4S7TbR+QcwJiEUtmTOLHN
wA2mSuNh5qg86jW2WU/fnG3T6VZx32v6xINSX/P1+48tND/Vrw9P1QqK5W28IkTT
X5gyP+F8YpuscxXeIgYGbumYZAbRoZwexXkFlwJcKZZCJyqtPGCUk2jvAlLDqnGg
BZR3ab+RTHLY8LlhQ2/lJ5eIsCSlTgKQmjCcA9NDTaV6bmkbltg2M2rBTBQtuuXl
eMQNpYNFGj8Niwp+5SOMd2ROg1lChidmHbZVBYzxGk/S/tKklMYD/+BELyRfCgYY
9rzVwecIGZTUI2PcCYz6tEJqZQqcYSsT3KkaXgfJIxQku6keYcnm0lQeVJk6I+1Z
pbnkCcf6iFcWGkkW5cthOUo1CckrZySPJavkJmbhSdoes9ThrIljboLUfRIzdA3T
dVd7pWnE2wqVoubj0ctnxLYI//n2GjF4U5lZyWbsvlyE/NlMOmQM3HvcBLgywQJ/
evapMn81yY7QoOBH2Setc3cDHlQ2zF5fIoxKVo81fyDF4PhlSrKekgBxibJZjpcB
5ixS6pVsNNVt5KAGySojUHbBqn+JV7JcZ3H5C5ti5uquyVOGh6u3v7yqkF/yPo0u
ZLen8E8DoiAfO4Kups9PasqheJdNHBsaqehOj3885Vo=
-----END CERTIFICATE-----
