Certificate:
    Data:
        Version: 3 (0x2)
        Serial Number: 9015 (0x2337)
    Signature Algorithm: sha256WithRSAEncryption
        Issuer: C=US, ST=OH, L=Columbus, O=VikingVPN, OU=MyOrganizationalUnit, CN=VikingVPN CA/name=EasyRSA/emailAddress=me@myhost.mydomain
        Validity
            Not Before: Sep 11 06:04:16 2016 GMT
            Not After : Sep  9 06:04:16 2026 GMT
        Subject: CN=Client2078Cert34ab49
        Subject Public Key Info:
            Public Key Algorithm: rsaEncryption
                Public-Key: (4096 bit)
                Modulus:
                    00:d1:4f:1f:0b:fd:c6:50:4a:52:81:c4:3f:0f:85:
                    38:ff:fc:ef:4c:ab:89:dd:eb:18:a3:c2:50:48:36:
                    f4:f2:a0:42:7c:f0:70:f3:d8:20:14:98:d6:2f:54:
                    10:12:39:5a:9e:df:3d:98:6d:43:f5:0e:c1:6b:d2:
                    49:3d:29:0c:89:c7:14:5c:a0:51:47:ea:67:f9:be:
                    73:38:b0:9b:8e:9b:91:0d:e8:ce:c7:1b:f9:d5:21:
                    04:5f:d6:55:ca:a7:97:22:bc:97:bb:51:01:f0:fb:
                    e5:96:b0:b2:ec:67:ac:1f:b9:c2:c8:a5:e6:2c:ed:
                    6c:95:99:6c:3a:b7:78:0a:ba:59:46:18:83:0d:10:
                    4d:85:dc:da:1f:a3:56:1c:23:5d:88:3e:06:20:cc:
                    00:31:2d:9d:58:9c:35:13:32:15:0d:fe:71:07:38:
                    4a:fc:8a:5e:2d:8e:33:0c:5f:41:04:00:d1:50:f7:
                    39:ea:33:f7:63:50:6e:9a:d8:05:6c:9d:c0:a0:21:
                    82:31:b4:96:11:f6:0a:66:85:8c:b7:9f:87:e7:96:
                    3f:09:cb:b5:6b:30:73:84:39:38:97:bc:6d:bc:58:
                    e5:d1:78:04:0c:03:7b:25:6e:8d:8c:96:a3:62:5f:
                    96:69:a0:9e:26:98:b1:97:49:34:7a:c3:b0:56:c1:
                    71:21:d6:8f:df:d3:dc:ea:48:13:9f:eb:b0:a2:44:
                    77:0a:8e:d7:57:f5:1b:a8:03:10:eb:76:44:85:ef:
                    14:b1:e0:51:d0:4d:ba:b5:5a:7c:e9:a0:f8:49:21:
                    98:89:dc:9b:7f:17:a3:4f:bd:ba:34:b2:b1:2f:bc:
                    9d:07:69:e7:7b:fe:30:c9:bf:66:1a:13:fd:80:35:
                    a3:34:d6:bb:ee:b2:b9:7d:19:a7:28:c0:17:c3:05:
                    99:5e:8b:00:88:9f:89:3b:06:fe:ee:de:60:c5:36:
                    0c:22:ae:cb:71:e4:6f:e4:25:7b:a3:65:74:00:c8:
                    83:47:a2:3f:eb:db:f1:64:cc:05:5c:24:71:a2:ac:
                    7d:84:d6:13:34:f3:49:fd:8d:99:db:48:b6:30:4f:
                    84:30:a8:b5:8e:52:47:65:48:0f:eb:a1:c1:ec:c2:
                    46:16:99:65:0e:4f:24:05:80:0d:d1:5a:5f:fd:a2:
                    aa:d5:0c:6a:cb:03:94:77:02:b9:43:38:7e:7f:72:
                    db:c5:6d:7e:b1:7e:3b:b4:51:d9:0c:1b:36:d9:7e:
                    9d:b5:1a:50:a0:be:f6:a3:d0:9a:a3:91:2c:b9:9e:
                    ab:8f:04:be:12:3c:c1:90:20:cc:55:3c:52:51:40:
                    e7:57:17:25:f6:cb:11:b1:c7:28:af:df:f2:9d:cf:
                    52:a0:49
                Exponent: 65537 (0x10001)
        X509v3 extensions:
            X509v3 Basic Constraints: 
                CA:FALSE
            Netscape Comment: 
                Easy-RSA Generated Certificate
            X509v3 Subject Key Identifier: 
                75:62:3E:6B:3F:A0:B8:83:09:09:97:42:DC:48:DF:55:33:BE:50:9B
            X509v3 Authority Key Identifier: 
                keyid:12:CD:60:04:D2:A0:80:9E:70:ED:C6:99:B8:7B:2C:C6:52:FD:19:A1
                DirName:/C=US/ST=OH/L=Columbus/O=VikingVPN/OU=MyOrganizationalUnit/CN=VikingVPN CA/name=EasyRSA/emailAddress=me@myhost.mydomain
                serial:CF:35:85:EE:80:BF:2A:3E

            X509v3 Extended Key Usage: 
                TLS Web Client Authentication
            X509v3 Key Usage: 
                Digital Signature
    Signature Algorithm: sha256WithRSAEncryption
         e8:ff:02:a0:47:3d:52:fb:4f:30:b4:b9:b7:e9:df:92:d3:8f:
         5b:d6:b6:3b:89:57:7f:58:5a:35:9b:c9:78:a9:fd:51:a0:07:
         67:92:b5:a4:c4:b5:8f:46:50:57:9a:bf:94:3a:f2:8b:7d:ba:
         c4:45:00:2e:8b:8c:c9:c9:f7:50:5a:a7:21:25:25:51:4f:c3:
         e9:02:88:8a:e7:83:a6:f2:a2:87:c7:39:bc:93:fb:77:66:4b:
         64:fc:c7:65:5a:bc:eb:6d:82:07:b0:96:b8:38:f7:e3:54:8f:
         a9:b6:ef:8a:72:6e:5e:d7:d3:06:5e:e9:b7:5a:90:66:45:2b:
         e1:e5:24:06:c5:8d:8a:a9:7f:c2:bc:c2:ed:37:59:44:50:7a:
         37:87:32:69:a5:ef:9c:34:6f:f7:96:c3:e1:dd:16:e3:7c:d9:
         1d:58:08:3f:69:07:59:8d:0d:4d:c2:6a:23:bf:c6:8b:c3:7c:
         11:6b:37:9f:e6:c8:df:f2:78:61:6d:b0:60:b9:6d:a9:33:6b:
         9c:f8:4e:f1:8c:f3:e0:b7:0a:39:64:6c:24:b2:6f:9f:42:6d:
         4f:cd:3a:6a:d8:11:c3:11:f1:16:f3:b2:18:ac:03:a8:1b:04:
         bf:10:36:33:e8:58:97:f7:ba:42:16:ca:2d:46:f6:a3:3c:91:
         59:ee:18:3e:8d:4e:0e:45:28:6d:b8:a9:67:d0:68:b2:8e:f6:
         81:f3:5b:82:c3:b0:cb:d9:b4:86:6b:b7:63:93:bb:12:b1:b6:
         45:dd:e1:94:d1:9c:fa:d9:06:6b:37:6a:e1:19:55:bb:d1:32:
         d7:87:75:5f:81:e7:ca:cd:6e:35:da:b9:57:e7:3c:df:2f:82:
         44:60:83:a9:45:5d:3a:35:d4:8c:a9:f6:18:f1:02:72:88:68:
         d6:3e:8d:58:a2:b3:a0:db:1d:7d:3c:7a:60:53:ac:a7:81:27:
         b5:6b:eb:59:dc:eb:69:0b:c0:d1:22:c3:07:e4:e0:d5:c2:46:
         62:c4:3b:0a:14:5a:2f:b8:99:bb:e8:1b:c9:71:21:63:79:fd:
         c6:03:dc:0b:29:d8:65:39:57:8d:23:7f:06:b7:63:ee:8a:10:
         10:b7:a7:bb:e6:2e:2c:48:ea:4d:18:a6:82:3b:4c:b6:d2:23:
         32:c0:c9:77:9e:11:35:73:25:85:5b:05:59:1f:02:bb:7a:51:
         c9:9e:d1:e3:75:f9:96:d7:64:a6:81:f9:48:3c:c9:77:5a:dc:
         ed:44:96:4d:5e:a2:21:7f:4a:59:c5:15:6f:0c:2a:9d:bd:16:
         6a:47:f2:47:5e:4d:80:89:7b:b2:2c:9b:6f:0e:8f:68:ba:df:
         a1:e2:9c:f5:2b:84:15:d7
-----BEGIN CERTIFICATE-----
MIIGrTCCBJWgAwIBAgICIzcwDQYJKoZIhvcNAQELBQAwgawxCzAJBgNVBAYTAlVT
MQswCQYDVQQIEwJPSDERMA8GA1UEBxMIQ29sdW1idXMxEjAQBgNVBAoTCVZpa2lu
Z1ZQTjEdMBsGA1UECxMUTXlPcmdhbml6YXRpb25hbFVuaXQxFTATBgNVBAMTDFZp
a2luZ1ZQTiBDQTEQMA4GA1UEKRMHRWFzeVJTQTEhMB8GCSqGSIb3DQEJARYSbWVA
bXlob3N0Lm15ZG9tYWluMB4XDTE2MDkxMTA2MDQxNloXDTI2MDkwOTA2MDQxNlow
HzEdMBsGA1UEAxMUQ2xpZW50MjA3OENlcnQzNGFiNDkwggIiMA0GCSqGSIb3DQEB
AQUAA4ICDwAwggIKAoICAQDRTx8L/cZQSlKBxD8PhTj//O9Mq4nd6xijwlBINvTy
oEJ88HDz2CAUmNYvVBASOVqe3z2YbUP1DsFr0kk9KQyJxxRcoFFH6mf5vnM4sJuO
m5EN6M7HG/nVIQRf1lXKp5civJe7UQHw++WWsLLsZ6wfucLIpeYs7WyVmWw6t3gK
ullGGIMNEE2F3Nofo1YcI12IPgYgzAAxLZ1YnDUTMhUN/nEHOEr8il4tjjMMX0EE
ANFQ9znqM/djUG6a2AVsncCgIYIxtJYR9gpmhYy3n4fnlj8Jy7VrMHOEOTiXvG28
WOXReAQMA3slbo2MlqNiX5ZpoJ4mmLGXSTR6w7BWwXEh1o/f09zqSBOf67CiRHcK
jtdX9RuoAxDrdkSF7xSx4FHQTbq1WnzpoPhJIZiJ3Jt/F6NPvbo0srEvvJ0Haed7
/jDJv2YaE/2ANaM01rvusrl9GacowBfDBZleiwCIn4k7Bv7u3mDFNgwirstx5G/k
JXujZXQAyINHoj/r2/FkzAVcJHGirH2E1hM080n9jZnbSLYwT4QwqLWOUkdlSA/r
ocHswkYWmWUOTyQFgA3RWl/9oqrVDGrLA5R3ArlDOH5/ctvFbX6xfju0UdkMGzbZ
fp21GlCgvvaj0JqjkSy5nquPBL4SPMGQIMxVPFJRQOdXFyX2yxGxxyiv3/Kdz1Kg
SQIDAQABo4IBYzCCAV8wCQYDVR0TBAIwADAtBglghkgBhvhCAQ0EIBYeRWFzeS1S
U0EgR2VuZXJhdGVkIENlcnRpZmljYXRlMB0GA1UdDgQWBBR1Yj5rP6C4gwkJl0Lc
SN9VM75QmzCB4QYDVR0jBIHZMIHWgBQSzWAE0qCAnnDtxpm4eyzGUv0ZoaGBsqSB
rzCBrDELMAkGA1UEBhMCVVMxCzAJBgNVBAgTAk9IMREwDwYDVQQHEwhDb2x1bWJ1
czESMBAGA1UEChMJVmlraW5nVlBOMR0wGwYDVQQLExRNeU9yZ2FuaXphdGlvbmFs
VW5pdDEVMBMGA1UEAxMMVmlraW5nVlBOIENBMRAwDgYDVQQpEwdFYXN5UlNBMSEw
HwYJKoZIhvcNAQkBFhJtZUBteWhvc3QubXlkb21haW6CCQDPNYXugL8qPjATBgNV
HSUEDDAKBggrBgEFBQcDAjALBgNVHQ8EBAMCB4AwDQYJKoZIhvcNAQELBQADggIB
AOj/AqBHPVL7TzC0ubfp35LTj1vWtjuJV39YWjWbyXip/VGgB2eStaTEtY9GUFea
v5Q68ot9usRFAC6LjMnJ91BapyElJVFPw+kCiIrng6byoofHObyT+3dmS2T8x2Va
vOttggewlrg49+NUj6m274pybl7X0wZe6bdakGZFK+HlJAbFjYqpf8K8wu03WURQ
ejeHMmml75w0b/eWw+HdFuN82R1YCD9pB1mNDU3CaiO/xovDfBFrN5/myN/yeGFt
sGC5bakza5z4TvGM8+C3CjlkbCSyb59CbU/NOmrYEcMR8RbzshisA6gbBL8QNjPo
WJf3ukIWyi1G9qM8kVnuGD6NTg5FKG24qWfQaLKO9oHzW4LDsMvZtIZrt2OTuxKx
tkXd4ZTRnPrZBms3auEZVbvRMteHdV+B58rNbjXauVfnPN8vgkRgg6lFXTo11Iyp
9hjxAnKIaNY+jViis6DbHX08emBTrKeBJ7Vr61nc62kLwNEiwwfk4NXCRmLEOwoU
Wi+4mbvoG8lxIWN5/cYD3Asp2GU5V40jfwa3Y+6KEBC3p7vmLixI6k0YpoI7TLbS
IzLAyXeeETVzJYVbBVkfArt6Ucme0eN1+ZbXZKaB+Ug8yXda3O1Elk1eoiF/SlnF
FW8MKp29FmpH8kdeTYCJe7Ism28Oj2i636HinPUrhBXX
-----END CERTIFICATE-----
