Certificate:
    Data:
        Version: 3 (0x2)
        Serial Number: 4694 (0x1256)
    Signature Algorithm: md5WithRSAEncryption
        Issuer: C=US, ST=OH, L=Columbus, O=VikingVPN, OU=MyOrganizationalUnit, CN=VikingVPN CA/name=EasyRSA/emailAddress=me@myhost.mydomain
        Validity
            Not Before: Mar  8 13:45:03 2015 GMT
            Not After : Mar  5 13:45:03 2025 GMT
        Subject: CN=Client1529Cert57e4dc
        Subject Public Key Info:
            Public Key Algorithm: rsaEncryption
                Public-Key: (4096 bit)
                Modulus:
                    00:ac:27:22:c7:89:45:20:0a:4b:68:7f:15:b3:a4:
                    b7:68:c3:f3:82:fe:a4:83:da:80:7b:a6:16:40:5f:
                    c9:0c:f7:2e:de:51:31:56:2e:db:ad:67:8d:c3:42:
                    91:21:ec:9f:fb:77:95:c4:db:1d:98:0c:fa:1b:ce:
                    ec:cc:c3:65:5d:43:bb:49:84:c8:e5:f8:44:a4:78:
                    d2:d6:11:b6:86:20:0e:63:4a:83:f0:c9:f3:e2:c0:
                    54:ec:2b:e9:43:99:be:8b:50:be:57:20:6e:19:98:
                    f8:ea:94:52:f5:8f:81:11:1b:d1:50:d8:f7:31:1f:
                    2a:77:d8:9d:f6:54:f1:49:c3:fb:a4:ed:e6:d4:cd:
                    49:af:a1:f1:7a:0e:8d:5b:58:75:c8:28:f9:25:37:
                    57:29:1e:2a:29:a3:ff:20:28:ae:84:90:d4:0f:c0:
                    ec:0a:39:7e:41:cb:90:59:af:5d:3a:54:d8:ea:78:
                    31:dd:20:d9:1f:40:f6:bb:ca:c8:57:ec:7e:a9:05:
                    4e:33:e2:8b:c7:f7:3a:77:5e:9b:39:4f:56:e8:d1:
                    ab:02:69:5e:48:9e:01:1b:2d:ae:bf:76:c0:7d:3d:
                    af:08:eb:70:10:02:8e:3d:38:07:70:fe:8f:a8:10:
                    45:8b:11:62:a9:78:77:25:1b:34:20:32:4e:ad:1b:
                    6a:f4:54:4a:47:66:02:33:00:87:39:f2:9e:5b:3c:
                    f4:e8:d4:a1:af:ed:90:e6:b5:b1:39:15:de:55:82:
                    79:f4:8b:40:3e:5a:d0:9c:14:36:71:24:5c:e9:e7:
                    d4:ee:8a:46:93:c9:2f:d8:de:b5:8c:f8:57:8a:cd:
                    f1:da:cb:f9:e0:57:78:81:1c:a2:ad:c3:8b:59:9c:
                    39:9e:e4:82:6d:95:8a:c8:93:a0:1b:a8:d2:30:79:
                    14:c7:fe:8a:06:21:3b:1e:87:91:cf:ea:6c:46:69:
                    05:d3:a8:b5:8f:50:ca:5b:bb:e3:65:7d:6c:e8:ff:
                    c3:4b:a1:c0:fd:60:14:18:1c:60:ff:82:13:df:3e:
                    bb:a9:5b:4f:dc:61:8a:e0:1e:b5:15:27:b4:cb:5e:
                    b0:6d:ab:49:6e:b9:92:05:c7:3a:5c:35:0e:30:2b:
                    d8:88:6e:81:df:d1:98:51:2a:d7:f4:fc:20:5a:d0:
                    13:7e:bc:47:36:0e:7f:90:65:d0:6e:7a:19:dc:02:
                    d4:cf:96:21:cc:b9:bc:e5:d9:25:f4:5b:78:b0:7d:
                    9f:c0:d8:77:50:87:3f:38:87:e7:b0:35:fc:54:22:
                    b4:b1:62:4e:1c:f1:b1:15:c6:4d:25:4d:3a:99:7e:
                    c8:68:a3:4b:0e:7e:48:60:8a:05:31:60:b7:0b:3f:
                    1c:f2:57
                Exponent: 65537 (0x10001)
        X509v3 extensions:
            X509v3 Basic Constraints: 
                CA:FALSE
            Netscape Comment: 
                Easy-RSA Generated Certificate
            X509v3 Subject Key Identifier: 
                5B:D4:F8:B7:B9:13:C5:19:8E:EE:09:E0:FB:76:8F:8E:08:F1:FC:83
            X509v3 Authority Key Identifier: 
                keyid:12:CD:60:04:D2:A0:80:9E:70:ED:C6:99:B8:7B:2C:C6:52:FD:19:A1
                DirName:/C=US/ST=OH/L=Columbus/O=VikingVPN/OU=MyOrganizationalUnit/CN=VikingVPN CA/name=EasyRSA/emailAddress=me@myhost.mydomain
                serial:CF:35:85:EE:80:BF:2A:3E

            X509v3 Extended Key Usage: 
                TLS Web Client Authentication
            X509v3 Key Usage: 
                Digital Signature
    Signature Algorithm: md5WithRSAEncryption
         34:37:1f:70:80:f8:12:a2:e4:ee:9d:86:4e:f8:16:01:95:b7:
         66:4a:b6:ff:7f:09:5a:78:e8:80:78:a0:07:6a:95:13:ef:eb:
         60:82:00:00:d1:b9:81:c3:a9:74:e5:41:95:b7:19:a7:d7:73:
         b0:d6:a1:e1:97:44:4a:c8:88:f2:98:f8:e8:46:43:b3:ca:12:
         4c:3c:dd:34:23:79:b1:a7:27:aa:16:7b:df:32:8c:97:3a:83:
         ed:67:89:85:46:3f:ef:2c:b5:08:7f:9b:da:75:5c:6f:a5:e9:
         2a:41:fe:15:49:a3:69:73:8e:c6:2c:8b:76:28:af:49:60:e4:
         bc:ac:bd:96:1d:e6:34:a3:4a:cc:eb:0a:6a:61:5f:7d:06:20:
         58:37:01:16:24:17:8b:d5:10:80:cb:76:9d:e0:a6:d2:03:31:
         36:01:91:3b:a8:de:f2:3d:5e:9a:3e:a2:f3:7f:e0:db:ec:80:
         be:3b:9f:4c:e1:97:a7:38:52:a3:f6:6a:dc:30:11:15:16:4d:
         74:7e:96:5c:7d:d9:e0:d7:24:2b:15:54:73:ea:47:7b:45:a0:
         2e:1f:a1:3f:01:e5:5c:1e:d3:8c:ac:73:f7:00:50:6f:4c:49:
         a2:7d:94:ee:93:22:33:9b:3d:96:65:90:9d:6d:ed:9f:07:8b:
         67:fe:26:ea:5d:4a:61:01:cb:d7:2b:42:58:24:25:a8:2b:3a:
         22:cb:51:ff:74:e8:0b:04:d3:54:54:16:01:05:42:f7:3a:5d:
         59:60:af:f4:e0:f7:17:66:71:18:6c:b5:10:f1:d5:3f:5e:4b:
         9d:9f:71:c8:1c:87:07:5e:50:2d:da:e3:2b:41:a4:36:ec:7b:
         99:e4:d2:5b:51:0f:e5:07:02:13:08:cb:10:1d:d0:a1:73:41:
         47:63:28:db:03:46:ef:f7:94:44:43:8f:38:73:ea:79:c1:6c:
         ca:4d:cf:6f:b9:23:cf:e7:4c:25:da:9d:61:43:4e:c3:98:8d:
         88:43:91:82:8a:1d:90:69:94:24:60:5c:d0:3d:ed:22:da:18:
         8d:2f:ff:e2:ea:a7:5c:d4:40:e8:06:0e:de:9b:b1:9e:46:61:
         05:50:6f:2e:56:d0:78:c2:f5:12:66:9f:d4:89:bd:8f:3b:ba:
         a1:cc:62:c7:39:1e:57:b2:74:d5:67:a9:07:72:8d:da:c8:a7:
         34:a3:09:d8:d3:89:34:6e:02:d7:b7:93:27:23:33:54:61:62:
         cf:f8:b0:8d:d5:3e:ca:79:5d:5e:18:d6:8c:7e:70:01:f9:fd:
         1e:b7:72:05:64:0d:31:14:89:75:f8:a5:c7:61:13:90:21:da:
         04:0f:72:74:80:a2:7a:aa
-----BEGIN CERTIFICATE-----
MIIGrTCCBJWgAwIBAgICElYwDQYJKoZIhvcNAQEEBQAwgawxCzAJBgNVBAYTAlVT
MQswCQYDVQQIEwJPSDERMA8GA1UEBxMIQ29sdW1idXMxEjAQBgNVBAoTCVZpa2lu
Z1ZQTjEdMBsGA1UECxMUTXlPcmdhbml6YXRpb25hbFVuaXQxFTATBgNVBAMTDFZp
a2luZ1ZQTiBDQTEQMA4GA1UEKRMHRWFzeVJTQTEhMB8GCSqGSIb3DQEJARYSbWVA
bXlob3N0Lm15ZG9tYWluMB4XDTE1MDMwODEzNDUwM1oXDTI1MDMwNTEzNDUwM1ow
HzEdMBsGA1UEAxMUQ2xpZW50MTUyOUNlcnQ1N2U0ZGMwggIiMA0GCSqGSIb3DQEB
AQUAA4ICDwAwggIKAoICAQCsJyLHiUUgCktofxWzpLdow/OC/qSD2oB7phZAX8kM
9y7eUTFWLtutZ43DQpEh7J/7d5XE2x2YDPobzuzMw2VdQ7tJhMjl+ESkeNLWEbaG
IA5jSoPwyfPiwFTsK+lDmb6LUL5XIG4ZmPjqlFL1j4ERG9FQ2PcxHyp32J32VPFJ
w/uk7ebUzUmvofF6Do1bWHXIKPklN1cpHiopo/8gKK6EkNQPwOwKOX5By5BZr106
VNjqeDHdINkfQPa7yshX7H6pBU4z4ovH9zp3Xps5T1bo0asCaV5IngEbLa6/dsB9
Pa8I63AQAo49OAdw/o+oEEWLEWKpeHclGzQgMk6tG2r0VEpHZgIzAIc58p5bPPTo
1KGv7ZDmtbE5Fd5Vgnn0i0A+WtCcFDZxJFzp59TuikaTyS/Y3rWM+FeKzfHay/ng
V3iBHKKtw4tZnDme5IJtlYrIk6AbqNIweRTH/ooGITseh5HP6mxGaQXTqLWPUMpb
u+NlfWzo/8NLocD9YBQYHGD/ghPfPrupW0/cYYrgHrUVJ7TLXrBtq0luuZIFxzpc
NQ4wK9iIboHf0ZhRKtf0/CBa0BN+vEc2Dn+QZdBuehncAtTPliHMubzl2SX0W3iw
fZ/A2HdQhz84h+ewNfxUIrSxYk4c8bEVxk0lTTqZfshoo0sOfkhgigUxYLcLPxzy
VwIDAQABo4IBYzCCAV8wCQYDVR0TBAIwADAtBglghkgBhvhCAQ0EIBYeRWFzeS1S
U0EgR2VuZXJhdGVkIENlcnRpZmljYXRlMB0GA1UdDgQWBBRb1Pi3uRPFGY7uCeD7
do+OCPH8gzCB4QYDVR0jBIHZMIHWgBQSzWAE0qCAnnDtxpm4eyzGUv0ZoaGBsqSB
rzCBrDELMAkGA1UEBhMCVVMxCzAJBgNVBAgTAk9IMREwDwYDVQQHEwhDb2x1bWJ1
czESMBAGA1UEChMJVmlraW5nVlBOMR0wGwYDVQQLExRNeU9yZ2FuaXphdGlvbmFs
VW5pdDEVMBMGA1UEAxMMVmlraW5nVlBOIENBMRAwDgYDVQQpEwdFYXN5UlNBMSEw
HwYJKoZIhvcNAQkBFhJtZUBteWhvc3QubXlkb21haW6CCQDPNYXugL8qPjATBgNV
HSUEDDAKBggrBgEFBQcDAjALBgNVHQ8EBAMCB4AwDQYJKoZIhvcNAQEEBQADggIB
ADQ3H3CA+BKi5O6dhk74FgGVt2ZKtv9/CVp46IB4oAdqlRPv62CCAADRuYHDqXTl
QZW3GafXc7DWoeGXRErIiPKY+OhGQ7PKEkw83TQjebGnJ6oWe98yjJc6g+1niYVG
P+8stQh/m9p1XG+l6SpB/hVJo2lzjsYsi3Yor0lg5LysvZYd5jSjSszrCmphX30G
IFg3ARYkF4vVEIDLdp3gptIDMTYBkTuo3vI9Xpo+ovN/4NvsgL47n0zhl6c4UqP2
atwwERUWTXR+llx92eDXJCsVVHPqR3tFoC4foT8B5Vwe04ysc/cAUG9MSaJ9lO6T
IjObPZZlkJ1t7Z8Hi2f+JupdSmEBy9crQlgkJagrOiLLUf906AsE01RUFgEFQvc6
XVlgr/Tg9xdmcRhstRDx1T9eS52fccgchwdeUC3a4ytBpDbse5nk0ltRD+UHAhMI
yxAd0KFzQUdjKNsDRu/3lERDjzhz6nnBbMpNz2+5I8/nTCXanWFDTsOYjYhDkYKK
HZBplCRgXNA97SLaGI0v/+Lqp1zUQOgGDt6bsZ5GYQVQby5W0HjC9RJmn9SJvY87
uqHMYsc5HleydNVnqQdyjdrIpzSjCdjTiTRuAte3kycjM1RhYs/4sI3VPsp5XV4Y
1ox+cAH5/R63cgVkDTEUiXX4pcdhE5Ah2gQPcnSAonqq
-----END CERTIFICATE-----
