Certificate:
    Data:
        Version: 3 (0x2)
        Serial Number: 5976 (0x1758)
    Signature Algorithm: md5WithRSAEncryption
        Issuer: C=US, ST=OH, L=Columbus, O=VikingVPN, OU=MyOrganizationalUnit, CN=VikingVPN CA/name=EasyRSA/emailAddress=me@myhost.mydomain
        Validity
            Not Before: Aug  4 18:29:27 2015 GMT
            Not After : Aug  1 18:29:27 2025 GMT
        Subject: CN=Client1534Cert879366
        Subject Public Key Info:
            Public Key Algorithm: rsaEncryption
                Public-Key: (4096 bit)
                Modulus:
                    00:d1:4e:0c:7a:ca:95:44:ea:cc:49:5b:b9:01:4d:
                    d8:68:7b:2e:58:e8:8d:5e:c6:21:17:14:47:c7:c3:
                    b6:3e:4f:26:3e:01:45:d8:51:f9:32:70:f2:cd:cf:
                    4b:c3:66:de:d2:e9:5c:9d:0d:50:a2:c0:b2:51:66:
                    6c:78:51:a7:56:91:75:6d:e7:d7:26:b8:06:69:1a:
                    14:b3:ac:9a:86:2b:d6:85:5f:08:b4:ca:95:46:57:
                    38:9e:43:e6:9c:0a:40:a8:46:4f:39:2b:dd:46:2c:
                    55:15:5d:bc:70:3f:24:a5:2e:4c:e0:9d:88:9d:dd:
                    6f:59:e7:e2:89:cd:93:06:ee:c1:58:4f:b4:96:83:
                    9b:cf:86:38:bc:c6:a2:21:14:3b:30:fb:75:a1:96:
                    07:ab:69:24:52:64:cf:76:04:2c:7a:fd:79:32:c1:
                    f2:33:d5:fd:73:80:8d:66:81:96:1a:a2:ca:97:43:
                    b0:8a:69:52:41:b2:3f:74:58:c0:1b:d8:aa:40:b5:
                    d7:2f:fb:0a:f4:a5:df:39:c3:04:e6:92:45:ca:ea:
                    cf:a0:83:4e:5d:77:90:51:78:d3:20:07:32:fb:ad:
                    eb:6e:71:63:bb:04:4c:6e:dd:bf:90:5d:b0:65:8f:
                    a0:f7:88:46:2a:84:d0:ec:cb:d5:15:e8:a5:8b:53:
                    16:e2:ed:43:6e:8e:91:f3:af:1f:a4:d8:e6:51:b1:
                    87:15:6f:86:93:bc:07:31:00:86:08:05:44:95:d9:
                    61:ef:61:bd:46:be:b4:57:16:3f:fb:a3:ab:4d:b6:
                    4b:6e:b7:a4:3a:fd:60:97:05:fc:31:3f:94:68:a3:
                    30:d6:6d:4e:8d:55:81:b3:12:bd:50:da:93:aa:87:
                    36:de:92:f8:d3:59:9c:be:cd:85:4d:fc:4d:ce:9a:
                    01:ac:8c:a8:7a:39:f2:40:df:02:5a:95:bb:7f:bf:
                    12:e3:f3:e6:cd:50:2d:d9:fd:7b:6e:fc:08:b0:30:
                    da:ac:b7:24:1b:a9:ec:de:5a:52:aa:a8:83:b1:ed:
                    43:9f:a0:39:24:05:6d:1d:a2:62:cc:6e:af:08:db:
                    e4:18:5d:7d:80:e2:b1:a2:38:eb:49:45:0a:32:65:
                    d7:b0:aa:bc:41:8b:6f:44:a2:ea:d4:78:97:37:e1:
                    4a:66:2d:ca:1f:f9:43:2e:ef:e8:c3:94:c0:3f:b8:
                    85:3e:37:99:f5:c1:70:b6:ae:34:22:8c:57:1d:8c:
                    0c:ee:24:32:27:e6:80:4f:e7:55:f1:85:be:b2:29:
                    59:0d:45:2e:f1:64:a8:c5:67:f6:a7:c1:fc:c7:94:
                    7e:4e:d3:f1:80:af:91:ea:16:36:5f:71:f5:a4:6a:
                    9a:85:2d
                Exponent: 65537 (0x10001)
        X509v3 extensions:
            X509v3 Basic Constraints: 
                CA:FALSE
            Netscape Comment: 
                Easy-RSA Generated Certificate
            X509v3 Subject Key Identifier: 
                92:47:B4:01:CC:AC:89:76:83:5F:00:DF:92:4F:6B:C9:43:C3:2D:33
            X509v3 Authority Key Identifier: 
                keyid:12:CD:60:04:D2:A0:80:9E:70:ED:C6:99:B8:7B:2C:C6:52:FD:19:A1
                DirName:/C=US/ST=OH/L=Columbus/O=VikingVPN/OU=MyOrganizationalUnit/CN=VikingVPN CA/name=EasyRSA/emailAddress=me@myhost.mydomain
                serial:CF:35:85:EE:80:BF:2A:3E

            X509v3 Extended Key Usage: 
                TLS Web Client Authentication
            X509v3 Key Usage: 
                Digital Signature
    Signature Algorithm: md5WithRSAEncryption
         79:ce:23:40:4f:29:5e:2a:d6:9f:b3:fb:4e:0c:52:b7:40:52:
         c0:f8:90:fc:33:97:bb:b4:39:3c:84:be:b1:43:00:83:5f:15:
         fa:32:19:56:cd:b0:7a:99:3c:e2:2a:a7:ef:4a:4e:55:5d:fc:
         32:3f:3e:bf:a1:d4:86:6e:4b:76:09:c0:ec:44:03:7c:7d:c2:
         72:ea:fe:99:a9:90:eb:85:2e:b4:a0:e2:61:0b:ac:0c:4d:ba:
         ac:73:c5:19:9d:9b:19:02:a7:55:d1:a7:05:6b:0b:ff:2e:e2:
         7d:19:1d:ab:f3:89:d6:12:f2:b2:d4:e0:3d:49:7c:9a:b9:bd:
         e8:70:75:37:5d:58:98:ac:37:11:d6:de:ad:87:2c:01:1c:1f:
         92:b4:1e:98:4f:5f:80:4b:c2:79:aa:77:69:77:c1:ac:10:97:
         6b:cb:93:c3:68:db:7e:28:bb:8c:0c:fd:76:c4:ee:ca:c6:8f:
         2c:85:99:69:f8:f3:fd:53:a3:36:92:9a:bb:44:25:aa:39:96:
         c9:bf:fc:f7:8e:3d:50:d8:6c:55:e3:77:5f:ef:29:01:9c:b0:
         72:33:0d:3f:64:aa:84:7c:31:5a:5c:4f:18:62:7f:e3:da:69:
         72:ea:aa:aa:cb:0c:31:7b:78:9a:ba:db:80:8a:6c:df:42:23:
         a3:84:29:fa:cd:17:11:8d:c9:63:d2:59:44:39:0a:96:0e:26:
         67:78:3b:84:cb:8b:76:27:25:05:eb:4b:b9:69:3c:0d:11:54:
         64:7b:a4:74:82:c6:f0:8d:3b:a3:fe:6d:23:07:83:89:3c:99:
         21:0e:0f:0e:ff:01:4c:bb:18:af:9c:9b:74:ee:93:34:0a:5e:
         cd:ec:ff:04:1b:fb:49:60:07:37:d0:bd:1b:c7:f0:c2:73:80:
         1c:14:a3:d4:6e:6c:82:df:dc:a9:30:57:34:9c:11:cd:59:2c:
         22:90:e0:64:b6:42:06:c5:10:03:b3:0d:53:a2:c9:45:f2:17:
         cb:7a:63:2d:28:ed:2c:b9:68:37:0d:a8:58:47:58:17:4d:54:
         4c:20:94:d8:f3:da:c8:56:66:a6:da:1c:72:21:c2:34:0b:7c:
         8c:3d:66:d4:e2:1a:3c:ea:a3:2f:98:15:2f:e5:41:e7:35:5b:
         e0:c9:c7:4f:02:42:10:39:0d:0e:0a:47:3a:2c:2b:5e:1f:6c:
         45:84:28:33:f6:bf:fa:0f:af:77:ed:56:6f:92:5c:21:92:2d:
         26:a5:cd:3d:e3:e0:8f:56:ed:b0:4d:92:c9:25:04:a4:44:2c:
         2d:37:0e:e5:c1:da:05:e9:f0:60:25:24:5a:54:3a:3f:f2:cc:
         ed:36:b1:cb:b8:09:b1:01
-----BEGIN CERTIFICATE-----
MIIGrTCCBJWgAwIBAgICF1gwDQYJKoZIhvcNAQEEBQAwgawxCzAJBgNVBAYTAlVT
MQswCQYDVQQIEwJPSDERMA8GA1UEBxMIQ29sdW1idXMxEjAQBgNVBAoTCVZpa2lu
Z1ZQTjEdMBsGA1UECxMUTXlPcmdhbml6YXRpb25hbFVuaXQxFTATBgNVBAMTDFZp
a2luZ1ZQTiBDQTEQMA4GA1UEKRMHRWFzeVJTQTEhMB8GCSqGSIb3DQEJARYSbWVA
bXlob3N0Lm15ZG9tYWluMB4XDTE1MDgwNDE4MjkyN1oXDTI1MDgwMTE4MjkyN1ow
HzEdMBsGA1UEAxMUQ2xpZW50MTUzNENlcnQ4NzkzNjYwggIiMA0GCSqGSIb3DQEB
AQUAA4ICDwAwggIKAoICAQDRTgx6ypVE6sxJW7kBTdhoey5Y6I1exiEXFEfHw7Y+
TyY+AUXYUfkycPLNz0vDZt7S6VydDVCiwLJRZmx4UadWkXVt59cmuAZpGhSzrJqG
K9aFXwi0ypVGVzieQ+acCkCoRk85K91GLFUVXbxwPySlLkzgnYid3W9Z5+KJzZMG
7sFYT7SWg5vPhji8xqIhFDsw+3WhlgeraSRSZM92BCx6/XkywfIz1f1zgI1mgZYa
osqXQ7CKaVJBsj90WMAb2KpAtdcv+wr0pd85wwTmkkXK6s+gg05dd5BReNMgBzL7
retucWO7BExu3b+QXbBlj6D3iEYqhNDsy9UV6KWLUxbi7UNujpHzrx+k2OZRsYcV
b4aTvAcxAIYIBUSV2WHvYb1GvrRXFj/7o6tNtktut6Q6/WCXBfwxP5RoozDWbU6N
VYGzEr1Q2pOqhzbekvjTWZy+zYVN/E3OmgGsjKh6OfJA3wJalbt/vxLj8+bNUC3Z
/Xtu/AiwMNqstyQbqezeWlKqqIOx7UOfoDkkBW0domLMbq8I2+QYXX2A4rGiOOtJ
RQoyZdewqrxBi29EourUeJc34UpmLcof+UMu7+jDlMA/uIU+N5n1wXC2rjQijFcd
jAzuJDIn5oBP51Xxhb6yKVkNRS7xZKjFZ/anwfzHlH5O0/GAr5HqFjZfcfWkapqF
LQIDAQABo4IBYzCCAV8wCQYDVR0TBAIwADAtBglghkgBhvhCAQ0EIBYeRWFzeS1S
U0EgR2VuZXJhdGVkIENlcnRpZmljYXRlMB0GA1UdDgQWBBSSR7QBzKyJdoNfAN+S
T2vJQ8MtMzCB4QYDVR0jBIHZMIHWgBQSzWAE0qCAnnDtxpm4eyzGUv0ZoaGBsqSB
rzCBrDELMAkGA1UEBhMCVVMxCzAJBgNVBAgTAk9IMREwDwYDVQQHEwhDb2x1bWJ1
czESMBAGA1UEChMJVmlraW5nVlBOMR0wGwYDVQQLExRNeU9yZ2FuaXphdGlvbmFs
VW5pdDEVMBMGA1UEAxMMVmlraW5nVlBOIENBMRAwDgYDVQQpEwdFYXN5UlNBMSEw
HwYJKoZIhvcNAQkBFhJtZUBteWhvc3QubXlkb21haW6CCQDPNYXugL8qPjATBgNV
HSUEDDAKBggrBgEFBQcDAjALBgNVHQ8EBAMCB4AwDQYJKoZIhvcNAQEEBQADggIB
AHnOI0BPKV4q1p+z+04MUrdAUsD4kPwzl7u0OTyEvrFDAINfFfoyGVbNsHqZPOIq
p+9KTlVd/DI/Pr+h1IZuS3YJwOxEA3x9wnLq/pmpkOuFLrSg4mELrAxNuqxzxRmd
mxkCp1XRpwVrC/8u4n0ZHavzidYS8rLU4D1JfJq5vehwdTddWJisNxHW3q2HLAEc
H5K0HphPX4BLwnmqd2l3wawQl2vLk8No234ou4wM/XbE7srGjyyFmWn48/1TozaS
mrtEJao5lsm//PeOPVDYbFXjd1/vKQGcsHIzDT9kqoR8MVpcTxhif+PaaXLqqqrL
DDF7eJq624CKbN9CI6OEKfrNFxGNyWPSWUQ5CpYOJmd4O4TLi3YnJQXrS7lpPA0R
VGR7pHSCxvCNO6P+bSMHg4k8mSEODw7/AUy7GK+cm3TukzQKXs3s/wQb+0lgBzfQ
vRvH8MJzgBwUo9RubILf3KkwVzScEc1ZLCKQ4GS2QgbFEAOzDVOiyUXyF8t6Yy0o
7Sy5aDcNqFhHWBdNVEwglNjz2shWZqbaHHIhwjQLfIw9ZtTiGjzqoy+YFS/lQec1
W+DJx08CQhA5DQ4KRzosK14fbEWEKDP2v/oPr3ftVm+SXCGSLSalzT3j4I9W7bBN
ksklBKRELC03DuXB2gXp8GAlJFpUOj/yzO02scu4CbEB
-----END CERTIFICATE-----
