Certificate:
    Data:
        Version: 3 (0x2)
        Serial Number: 12705 (0x31a1)
    Signature Algorithm: sha256WithRSAEncryption
        Issuer: C=US, ST=OH, L=Columbus, O=VikingVPN, OU=MyOrganizationalUnit, CN=VikingVPN CA/name=EasyRSA/emailAddress=me@myhost.mydomain
        Validity
            Not Before: Mar  5 09:10:50 2018 GMT
            Not After : Mar  2 09:10:50 2028 GMT
        Subject: CN=Client3244Cert04759e
        Subject Public Key Info:
            Public Key Algorithm: rsaEncryption
                Public-Key: (4096 bit)
                Modulus:
                    00:aa:ad:4c:1a:df:dd:0e:d9:8b:a5:8d:4d:f1:2e:
                    cb:d9:09:3a:f9:e0:1b:7c:ac:44:cd:7c:16:6f:d4:
                    02:a6:f4:2a:03:f7:4a:1e:aa:77:b3:47:2a:b5:cd:
                    7d:ee:57:06:0e:15:4e:97:c2:62:51:cc:88:15:fd:
                    e2:e4:9a:08:29:64:21:f7:b5:b9:5e:d7:2b:9b:5b:
                    ac:99:f6:c5:a0:0d:89:fb:a4:71:67:23:cf:ed:7a:
                    16:4c:c0:e3:a6:a4:21:d2:74:5f:12:c9:94:c1:66:
                    e8:78:7a:d2:be:75:51:a4:df:dc:99:0e:49:58:91:
                    f7:26:1f:5b:da:be:c8:35:22:9b:4b:0b:1a:64:55:
                    32:47:f4:7e:d3:89:4c:4c:76:d5:d2:00:cb:0c:26:
                    66:2a:32:24:82:e3:74:1a:4e:0a:6a:76:bd:fa:71:
                    e2:cc:e3:b8:32:d4:40:80:61:f2:c5:e7:71:96:dd:
                    f8:21:f7:dc:e6:39:0f:b9:6a:d2:79:50:a6:3c:01:
                    38:d1:ae:0c:e1:8a:58:84:e4:94:e4:d2:48:63:02:
                    15:59:a7:ca:c5:9f:c6:9d:ee:40:9f:ee:fd:58:85:
                    17:b8:2b:26:5f:3d:42:5f:2e:81:2a:ca:aa:f7:00:
                    70:60:17:d0:6d:93:0e:ee:55:7a:06:38:58:58:3a:
                    3f:bd:3e:5c:98:1b:7b:e8:b3:f3:e3:46:fb:9b:0e:
                    06:55:d2:c5:f6:56:b2:89:eb:d3:a0:1b:cd:dd:ec:
                    94:7f:ae:f1:18:f4:ed:e1:2b:41:62:e6:0c:f1:be:
                    bc:73:e6:ee:9e:75:cf:a1:92:dc:cb:93:3d:6c:35:
                    72:e8:d8:7d:4a:be:d5:18:53:d4:9b:78:74:bd:b5:
                    5c:da:26:52:b7:e4:bf:e8:6b:0a:dd:d2:5e:17:dd:
                    3d:7e:e2:d2:27:8c:fe:18:04:02:57:1d:76:d3:6a:
                    d2:a0:35:d1:87:bc:7c:3c:d2:ae:9d:4a:f1:da:16:
                    ee:54:a3:d3:c6:13:91:f4:41:8e:45:d3:86:5c:27:
                    29:36:e0:46:83:fc:d7:f1:38:03:29:3c:b2:07:17:
                    f3:a8:40:e4:5c:b1:41:b2:c3:1f:74:fd:fe:5d:3f:
                    cd:b5:80:79:a8:d0:69:2d:fa:bf:ec:52:dd:59:89:
                    f6:ed:dc:a4:cc:fe:d5:20:57:a4:51:62:1b:8f:bf:
                    03:54:55:ef:e4:6e:a4:66:57:20:8b:df:c2:bc:09:
                    0e:be:46:c1:af:10:61:d8:2e:74:2c:8e:13:73:b6:
                    b3:09:2a:32:b5:fd:54:e0:98:54:de:01:06:3a:04:
                    a1:87:6d:be:d4:ba:58:4f:cb:b3:10:2e:01:ca:f1:
                    90:bc:7f
                Exponent: 65537 (0x10001)
        X509v3 extensions:
            X509v3 Basic Constraints: 
                CA:FALSE
            Netscape Comment: 
                Easy-RSA Generated Certificate
            X509v3 Subject Key Identifier: 
                8E:AB:6D:4A:FF:07:B9:35:97:67:93:35:6E:54:F3:A4:C2:87:89:17
            X509v3 Authority Key Identifier: 
                keyid:12:CD:60:04:D2:A0:80:9E:70:ED:C6:99:B8:7B:2C:C6:52:FD:19:A1
                DirName:/C=US/ST=OH/L=Columbus/O=VikingVPN/OU=MyOrganizationalUnit/CN=VikingVPN CA/name=EasyRSA/emailAddress=me@myhost.mydomain
                serial:CF:35:85:EE:80:BF:2A:3E

            X509v3 Extended Key Usage: 
                TLS Web Client Authentication
            X509v3 Key Usage: 
                Digital Signature
    Signature Algorithm: sha256WithRSAEncryption
         10:e6:27:6c:06:73:b7:0b:dc:08:cb:2a:c8:6c:9d:d2:17:48:
         52:41:7e:22:14:01:db:25:00:49:06:5e:69:41:f2:13:7b:7d:
         f3:5a:8e:10:5d:08:85:c6:3b:50:dd:cb:11:cb:d1:8a:d4:e6:
         b2:33:94:7e:48:8a:8d:95:6f:7a:ea:b1:f7:c0:76:45:2a:17:
         6b:bb:a6:c2:2a:ed:3a:ef:7e:70:8f:6b:25:5a:a7:c2:46:85:
         3a:c9:60:91:50:26:41:49:e4:bb:ec:54:31:74:d1:c4:8d:32:
         6d:ad:eb:84:d6:43:48:65:4b:82:60:74:f4:88:25:14:4d:9e:
         4a:24:d2:33:8f:99:c4:18:dc:9a:36:f8:19:66:11:23:3e:54:
         4a:c7:2a:da:85:3e:93:5a:89:2e:8f:fa:85:38:d4:42:c5:86:
         5a:d1:b6:7b:1c:dd:66:fa:3a:09:1f:91:5c:ec:37:bf:42:40:
         8a:89:b5:ac:27:2e:f1:03:6f:84:b8:f3:35:c4:a2:0c:9a:ec:
         8d:16:b4:b0:93:79:22:c2:51:8f:db:d3:31:7f:90:f5:c0:1c:
         f8:3b:3c:4b:a7:00:0f:c9:1c:5d:15:d0:06:22:fe:32:96:61:
         9c:e4:2a:ff:ba:e1:08:dc:7e:ce:07:35:3e:5e:68:58:77:a7:
         f3:71:d8:60:ef:c4:b8:21:aa:e1:40:19:86:7f:bc:37:9d:80:
         c4:28:8e:27:ac:28:a6:54:d1:0b:8d:11:4f:d8:86:61:3f:c6:
         de:df:55:0a:68:46:4e:cb:ed:63:ae:64:50:2c:a8:40:17:91:
         10:74:7c:cc:0e:68:dd:08:a0:cc:7d:c3:c0:30:2e:e8:67:1c:
         75:a6:3b:d9:83:03:86:30:95:2d:5f:e8:d8:71:e3:7f:69:d3:
         00:db:3c:a8:c5:4a:40:8f:b3:00:a4:af:dc:45:bd:86:7e:f6:
         49:40:43:ba:75:54:e6:bf:35:25:20:5d:3a:21:14:54:1a:f6:
         eb:d5:45:50:68:b2:06:48:e8:0e:4d:cf:5c:25:26:b5:85:63:
         6c:da:32:95:77:2c:b2:ab:bf:4f:23:a4:f4:30:73:84:6d:a1:
         23:7e:1a:8d:7f:80:71:d9:ec:49:c1:8a:3a:c3:79:91:42:32:
         3f:78:62:7c:00:64:d0:e5:04:09:c8:39:8e:33:72:e4:49:b5:
         e4:ca:ac:64:f8:2b:54:ba:67:53:b8:4b:0c:d4:d5:16:8c:2f:
         4d:64:f1:cd:6a:18:d3:ca:fa:3e:07:f7:f6:91:98:0b:3f:88:
         11:03:4f:02:6d:21:c7:3f:29:54:91:6a:ae:d8:34:2e:3a:b4:
         5a:17:9d:46:62:0b:1e:e1
-----BEGIN CERTIFICATE-----
MIIGrTCCBJWgAwIBAgICMaEwDQYJKoZIhvcNAQELBQAwgawxCzAJBgNVBAYTAlVT
MQswCQYDVQQIEwJPSDERMA8GA1UEBxMIQ29sdW1idXMxEjAQBgNVBAoTCVZpa2lu
Z1ZQTjEdMBsGA1UECxMUTXlPcmdhbml6YXRpb25hbFVuaXQxFTATBgNVBAMTDFZp
a2luZ1ZQTiBDQTEQMA4GA1UEKRMHRWFzeVJTQTEhMB8GCSqGSIb3DQEJARYSbWVA
bXlob3N0Lm15ZG9tYWluMB4XDTE4MDMwNTA5MTA1MFoXDTI4MDMwMjA5MTA1MFow
HzEdMBsGA1UEAxMUQ2xpZW50MzI0NENlcnQwNDc1OWUwggIiMA0GCSqGSIb3DQEB
AQUAA4ICDwAwggIKAoICAQCqrUwa390O2YuljU3xLsvZCTr54Bt8rETNfBZv1AKm
9CoD90oeqnezRyq1zX3uVwYOFU6XwmJRzIgV/eLkmggpZCH3tble1yubW6yZ9sWg
DYn7pHFnI8/tehZMwOOmpCHSdF8SyZTBZuh4etK+dVGk39yZDklYkfcmH1vavsg1
IptLCxpkVTJH9H7TiUxMdtXSAMsMJmYqMiSC43QaTgpqdr36ceLM47gy1ECAYfLF
53GW3fgh99zmOQ+5atJ5UKY8ATjRrgzhiliE5JTk0khjAhVZp8rFn8ad7kCf7v1Y
hRe4KyZfPUJfLoEqyqr3AHBgF9Btkw7uVXoGOFhYOj+9PlyYG3vos/PjRvubDgZV
0sX2VrKJ69OgG83d7JR/rvEY9O3hK0Fi5gzxvrxz5u6edc+hktzLkz1sNXLo2H1K
vtUYU9SbeHS9tVzaJlK35L/oawrd0l4X3T1+4tInjP4YBAJXHXbTatKgNdGHvHw8
0q6dSvHaFu5Uo9PGE5H0QY5F04ZcJyk24EaD/NfxOAMpPLIHF/OoQORcsUGywx90
/f5dP821gHmo0Gkt+r/sUt1Zifbt3KTM/tUgV6RRYhuPvwNUVe/kbqRmVyCL38K8
CQ6+RsGvEGHYLnQsjhNztrMJKjK1/VTgmFTeAQY6BKGHbb7UulhPy7MQLgHK8ZC8
fwIDAQABo4IBYzCCAV8wCQYDVR0TBAIwADAtBglghkgBhvhCAQ0EIBYeRWFzeS1S
U0EgR2VuZXJhdGVkIENlcnRpZmljYXRlMB0GA1UdDgQWBBSOq21K/we5NZdnkzVu
VPOkwoeJFzCB4QYDVR0jBIHZMIHWgBQSzWAE0qCAnnDtxpm4eyzGUv0ZoaGBsqSB
rzCBrDELMAkGA1UEBhMCVVMxCzAJBgNVBAgTAk9IMREwDwYDVQQHEwhDb2x1bWJ1
czESMBAGA1UEChMJVmlraW5nVlBOMR0wGwYDVQQLExRNeU9yZ2FuaXphdGlvbmFs
VW5pdDEVMBMGA1UEAxMMVmlraW5nVlBOIENBMRAwDgYDVQQpEwdFYXN5UlNBMSEw
HwYJKoZIhvcNAQkBFhJtZUBteWhvc3QubXlkb21haW6CCQDPNYXugL8qPjATBgNV
HSUEDDAKBggrBgEFBQcDAjALBgNVHQ8EBAMCB4AwDQYJKoZIhvcNAQELBQADggIB
ABDmJ2wGc7cL3AjLKshsndIXSFJBfiIUAdslAEkGXmlB8hN7ffNajhBdCIXGO1Dd
yxHL0YrU5rIzlH5Iio2Vb3rqsffAdkUqF2u7psIq7TrvfnCPayVap8JGhTrJYJFQ
JkFJ5LvsVDF00cSNMm2t64TWQ0hlS4JgdPSIJRRNnkok0jOPmcQY3Jo2+BlmESM+
VErHKtqFPpNaiS6P+oU41ELFhlrRtnsc3Wb6OgkfkVzsN79CQIqJtawnLvEDb4S4
8zXEogya7I0WtLCTeSLCUY/b0zF/kPXAHPg7PEunAA/JHF0V0AYi/jKWYZzkKv+6
4Qjcfs4HNT5eaFh3p/Nx2GDvxLghquFAGYZ/vDedgMQojiesKKZU0QuNEU/YhmE/
xt7fVQpoRk7L7WOuZFAsqEAXkRB0fMwOaN0IoMx9w8AwLuhnHHWmO9mDA4YwlS1f
6Nhx439p0wDbPKjFSkCPswCkr9xFvYZ+9klAQ7p1VOa/NSUgXTohFFQa9uvVRVBo
sgZI6A5Nz1wlJrWFY2zaMpV3LLKrv08jpPQwc4RtoSN+Go1/gHHZ7EnBijrDeZFC
Mj94YnwAZNDlBAnIOY4zcuRJteTKrGT4K1S6Z1O4SwzU1RaML01k8c1qGNPK+j4H
9/aRmAs/iBEDTwJtIcc/KVSRaq7YNC46tFoXnUZiCx7h
-----END CERTIFICATE-----
