Certificate:
    Data:
        Version: 3 (0x2)
        Serial Number: 11840 (0x2e40)
    Signature Algorithm: sha256WithRSAEncryption
        Issuer: C=US, ST=OH, L=Columbus, O=VikingVPN, OU=MyOrganizationalUnit, CN=VikingVPN CA/name=EasyRSA/emailAddress=me@myhost.mydomain
        Validity
            Not Before: Sep 16 03:40:57 2017 GMT
            Not After : Sep 14 03:40:57 2027 GMT
        Subject: CN=Client2607Cert83d941
        Subject Public Key Info:
            Public Key Algorithm: rsaEncryption
                Public-Key: (4096 bit)
                Modulus:
                    00:ce:24:fe:15:10:bf:ab:32:f3:cc:4d:6f:28:63:
                    36:48:6e:df:27:47:22:f0:66:ac:78:bd:f4:9b:40:
                    24:a3:f4:60:e9:d4:be:32:14:48:f5:f1:44:c3:fa:
                    4c:64:b4:b1:36:54:89:f0:d9:16:ec:52:72:34:1d:
                    13:a8:28:9a:da:ac:25:3f:f6:ff:6c:2b:ea:37:c0:
                    be:59:c7:f5:20:86:70:ff:b2:36:98:ab:c8:b5:ae:
                    99:bd:51:0c:1c:11:69:af:e6:ec:9f:9a:35:6f:a0:
                    40:76:07:cf:1f:7c:f5:ef:22:59:a7:90:75:63:e7:
                    21:cc:96:11:e9:09:de:b1:5f:56:9f:27:a1:a4:fe:
                    34:4c:cf:99:19:2a:2d:8d:b6:bf:ec:93:b3:b6:6b:
                    7d:9a:46:34:7e:46:39:e3:73:44:18:33:6d:c9:54:
                    5a:84:c7:01:fd:3d:40:94:c7:2d:69:65:d1:51:61:
                    68:8c:74:5b:e4:eb:38:b9:bc:a6:0c:7c:58:8d:0b:
                    98:5f:74:4b:c2:68:a2:9a:7d:14:ec:24:99:19:40:
                    2b:3f:af:fb:11:51:b5:44:b8:b3:6f:e8:78:0e:72:
                    8c:46:34:2e:7c:4a:80:18:f8:bb:bf:69:94:0d:f4:
                    71:f4:c9:6b:5a:7b:77:26:ca:dc:80:9b:84:7b:65:
                    11:96:d5:50:73:4a:2b:7f:38:18:e2:f5:ca:69:60:
                    65:8f:99:fa:c2:5f:48:a3:9e:59:10:e9:82:c8:45:
                    06:40:8f:18:28:ed:d3:0b:1c:ae:ec:c9:b0:55:44:
                    6a:b6:d7:21:98:6c:e1:18:b2:a6:71:29:de:a1:1e:
                    22:89:a6:37:90:d7:0c:66:c5:d7:4e:25:3d:e0:1e:
                    9b:f3:1a:d9:df:91:06:3d:a4:f9:fd:01:f1:71:7a:
                    d6:4e:37:de:55:6d:cd:b7:0c:3d:fd:e8:fc:1e:1e:
                    da:71:7e:d6:8d:05:17:da:0b:af:2d:36:cb:f3:19:
                    3f:88:3d:db:8a:94:31:4a:9a:7c:f6:e0:17:38:e3:
                    4a:23:54:6c:45:24:d4:29:16:20:f9:a2:59:10:2b:
                    c7:16:2d:bf:24:67:4c:a1:66:20:36:8e:ad:fd:5f:
                    80:99:a1:56:c7:48:91:81:e6:75:87:a1:17:c9:de:
                    ce:85:6f:31:08:a4:2f:dc:17:50:c5:fb:37:54:85:
                    ea:6a:57:3e:37:f6:2b:6e:fb:e5:b2:64:ab:d5:a4:
                    4d:49:4d:65:4a:11:eb:94:a6:f7:6c:de:c6:24:d7:
                    5d:5a:0d:dc:74:63:b7:5a:9f:b1:1d:e9:98:5f:0f:
                    d8:9a:5d:d0:99:5e:12:33:79:a8:e6:be:e6:b7:d5:
                    17:7b:fb
                Exponent: 65537 (0x10001)
        X509v3 extensions:
            X509v3 Basic Constraints: 
                CA:FALSE
            Netscape Comment: 
                Easy-RSA Generated Certificate
            X509v3 Subject Key Identifier: 
                8B:2A:1F:FD:1B:18:46:7E:F8:9B:35:BE:60:0D:FA:54:2F:0B:DA:5A
            X509v3 Authority Key Identifier: 
                keyid:12:CD:60:04:D2:A0:80:9E:70:ED:C6:99:B8:7B:2C:C6:52:FD:19:A1
                DirName:/C=US/ST=OH/L=Columbus/O=VikingVPN/OU=MyOrganizationalUnit/CN=VikingVPN CA/name=EasyRSA/emailAddress=me@myhost.mydomain
                serial:CF:35:85:EE:80:BF:2A:3E

            X509v3 Extended Key Usage: 
                TLS Web Client Authentication
            X509v3 Key Usage: 
                Digital Signature
    Signature Algorithm: sha256WithRSAEncryption
         6e:e7:b1:a6:52:dd:9b:4a:75:69:54:0c:31:db:fe:8e:c4:8c:
         17:c5:a6:73:be:6f:0f:5a:ec:aa:46:9f:37:8b:4d:2d:d8:81:
         d2:f5:17:32:29:b2:51:cd:e0:4c:a1:15:a3:1d:d9:80:58:bb:
         49:42:87:a2:4f:13:6f:17:07:e1:cf:3b:7e:4b:f3:a6:d6:1f:
         95:63:dd:97:c4:39:85:54:24:94:c3:e1:96:0e:5e:20:9d:aa:
         3b:b7:a7:6b:37:63:9d:81:32:86:77:ab:f3:bb:ec:a3:6e:06:
         fd:5d:9e:d8:1a:56:d3:47:40:ea:13:33:62:4e:03:be:59:76:
         2a:5e:42:ee:68:3c:3f:ea:4e:f1:ed:67:6f:cb:a9:54:5e:08:
         b7:43:56:24:c3:66:c3:75:8d:09:be:a4:2e:43:57:48:c0:59:
         50:22:fa:c8:7e:ba:92:70:1b:24:47:3d:05:62:6d:8d:49:4a:
         06:f0:3c:6e:2d:f8:0a:2f:9f:e9:cf:da:2a:54:8c:45:f9:d1:
         17:52:be:87:7a:1a:e4:af:b7:69:64:5c:f5:18:c2:40:e0:5e:
         fa:c7:8c:1c:eb:ce:68:87:97:46:c8:84:4b:51:15:d6:1e:be:
         b4:f5:7c:3a:c7:1c:60:82:4d:8b:9c:95:1f:0d:58:f5:8d:7b:
         1f:31:cd:8f:0d:29:56:3e:65:39:46:b6:94:cb:35:c6:8c:c7:
         52:50:b1:12:1f:66:f6:a7:04:4c:d8:14:24:c0:03:31:78:8e:
         14:26:67:58:77:bd:e7:d7:bd:f1:5b:30:2c:d6:8f:25:a6:23:
         a0:fa:3d:72:ad:b1:e0:40:ca:2e:5f:af:af:a0:d3:38:f8:6c:
         05:bb:00:79:27:f1:f4:13:e1:fa:be:9d:00:40:6b:54:af:ca:
         9e:0d:e8:4c:e2:91:08:f3:3d:f3:a2:3c:43:42:0a:6e:76:2c:
         c3:e5:81:2d:b2:16:b4:2e:6e:26:95:d7:93:b4:65:55:b2:7d:
         37:54:18:38:7c:89:5f:0c:dd:60:c7:8d:a7:ab:cf:ca:b7:13:
         72:29:ac:ac:a3:86:e4:b7:36:ba:67:0b:ab:9e:fc:26:c4:9e:
         e7:18:16:51:b8:e0:70:d4:9c:9a:28:03:d9:7c:bd:54:8d:14:
         40:d8:c4:0c:8a:53:59:40:0d:27:56:b3:fc:db:be:01:85:bf:
         7a:a6:fc:97:7b:4e:cc:63:ed:fb:ee:84:b5:aa:d6:66:94:72:
         50:35:d1:d2:59:74:b1:c2:d5:c2:33:34:02:d1:d2:c1:93:31:
         3c:e7:23:45:18:12:e1:62:03:73:b6:c6:ce:d8:9f:ad:db:ff:
         1c:00:92:56:87:45:77:c2
-----BEGIN CERTIFICATE-----
MIIGrTCCBJWgAwIBAgICLkAwDQYJKoZIhvcNAQELBQAwgawxCzAJBgNVBAYTAlVT
MQswCQYDVQQIEwJPSDERMA8GA1UEBxMIQ29sdW1idXMxEjAQBgNVBAoTCVZpa2lu
Z1ZQTjEdMBsGA1UECxMUTXlPcmdhbml6YXRpb25hbFVuaXQxFTATBgNVBAMTDFZp
a2luZ1ZQTiBDQTEQMA4GA1UEKRMHRWFzeVJTQTEhMB8GCSqGSIb3DQEJARYSbWVA
bXlob3N0Lm15ZG9tYWluMB4XDTE3MDkxNjAzNDA1N1oXDTI3MDkxNDAzNDA1N1ow
HzEdMBsGA1UEAxMUQ2xpZW50MjYwN0NlcnQ4M2Q5NDEwggIiMA0GCSqGSIb3DQEB
AQUAA4ICDwAwggIKAoICAQDOJP4VEL+rMvPMTW8oYzZIbt8nRyLwZqx4vfSbQCSj
9GDp1L4yFEj18UTD+kxktLE2VInw2RbsUnI0HROoKJrarCU/9v9sK+o3wL5Zx/Ug
hnD/sjaYq8i1rpm9UQwcEWmv5uyfmjVvoEB2B88ffPXvIlmnkHVj5yHMlhHpCd6x
X1afJ6Gk/jRMz5kZKi2Ntr/sk7O2a32aRjR+Rjnjc0QYM23JVFqExwH9PUCUxy1p
ZdFRYWiMdFvk6zi5vKYMfFiNC5hfdEvCaKKafRTsJJkZQCs/r/sRUbVEuLNv6HgO
coxGNC58SoAY+Lu/aZQN9HH0yWtae3cmytyAm4R7ZRGW1VBzSit/OBji9cppYGWP
mfrCX0ijnlkQ6YLIRQZAjxgo7dMLHK7sybBVRGq21yGYbOEYsqZxKd6hHiKJpjeQ
1wxmxddOJT3gHpvzGtnfkQY9pPn9AfFxetZON95Vbc23DD396PweHtpxftaNBRfa
C68tNsvzGT+IPduKlDFKmnz24Bc440ojVGxFJNQpFiD5olkQK8cWLb8kZ0yhZiA2
jq39X4CZoVbHSJGB5nWHoRfJ3s6FbzEIpC/cF1DF+zdUhepqVz439itu++WyZKvV
pE1JTWVKEeuUpvds3sYk111aDdx0Y7dan7Ed6ZhfD9iaXdCZXhIzeajmvua31Rd7
+wIDAQABo4IBYzCCAV8wCQYDVR0TBAIwADAtBglghkgBhvhCAQ0EIBYeRWFzeS1S
U0EgR2VuZXJhdGVkIENlcnRpZmljYXRlMB0GA1UdDgQWBBSLKh/9GxhGfvibNb5g
DfpULwvaWjCB4QYDVR0jBIHZMIHWgBQSzWAE0qCAnnDtxpm4eyzGUv0ZoaGBsqSB
rzCBrDELMAkGA1UEBhMCVVMxCzAJBgNVBAgTAk9IMREwDwYDVQQHEwhDb2x1bWJ1
czESMBAGA1UEChMJVmlraW5nVlBOMR0wGwYDVQQLExRNeU9yZ2FuaXphdGlvbmFs
VW5pdDEVMBMGA1UEAxMMVmlraW5nVlBOIENBMRAwDgYDVQQpEwdFYXN5UlNBMSEw
HwYJKoZIhvcNAQkBFhJtZUBteWhvc3QubXlkb21haW6CCQDPNYXugL8qPjATBgNV
HSUEDDAKBggrBgEFBQcDAjALBgNVHQ8EBAMCB4AwDQYJKoZIhvcNAQELBQADggIB
AG7nsaZS3ZtKdWlUDDHb/o7EjBfFpnO+bw9a7KpGnzeLTS3YgdL1FzIpslHN4Eyh
FaMd2YBYu0lCh6JPE28XB+HPO35L86bWH5Vj3ZfEOYVUJJTD4ZYOXiCdqju3p2s3
Y52BMoZ3q/O77KNuBv1dntgaVtNHQOoTM2JOA75ZdipeQu5oPD/qTvHtZ2/LqVRe
CLdDViTDZsN1jQm+pC5DV0jAWVAi+sh+upJwGyRHPQVibY1JSgbwPG4t+Aovn+nP
2ipUjEX50RdSvod6GuSvt2lkXPUYwkDgXvrHjBzrzmiHl0bIhEtRFdYevrT1fDrH
HGCCTYuclR8NWPWNex8xzY8NKVY+ZTlGtpTLNcaMx1JQsRIfZvanBEzYFCTAAzF4
jhQmZ1h3vefXvfFbMCzWjyWmI6D6PXKtseBAyi5fr6+g0zj4bAW7AHkn8fQT4fq+
nQBAa1Svyp4N6EzikQjzPfOiPENCCm52LMPlgS2yFrQubiaV15O0ZVWyfTdUGDh8
iV8M3WDHjaerz8q3E3IprKyjhuS3NrpnC6ue/CbEnucYFlG44HDUnJooA9l8vVSN
FEDYxAyKU1lADSdWs/zbvgGFv3qm/Jd7Tsxj7fvuhLWq1maUclA10dJZdLHC1cIz
NALR0sGTMTznI0UYEuFiA3O2xs7Yn63b/xwAklaHRXfC
-----END CERTIFICATE-----
