Certificate:
    Data:
        Version: 3 (0x2)
        Serial Number: 11813 (0x2e25)
    Signature Algorithm: sha256WithRSAEncryption
        Issuer: C=US, ST=OH, L=Columbus, O=VikingVPN, OU=MyOrganizationalUnit, CN=VikingVPN CA/name=EasyRSA/emailAddress=me@myhost.mydomain
        Validity
            Not Before: Sep  9 03:33:03 2017 GMT
            Not After : Sep  7 03:33:03 2027 GMT
        Subject: CN=Client1799Cert0e00bf
        Subject Public Key Info:
            Public Key Algorithm: rsaEncryption
                Public-Key: (4096 bit)
                Modulus:
                    00:db:c2:ff:69:97:16:1c:2c:1d:90:f2:77:1a:18:
                    a9:03:19:e0:d7:7d:ff:a8:4b:7c:f6:fd:49:d9:df:
                    d8:56:c8:03:73:18:b7:83:70:52:b6:a4:54:cb:13:
                    10:3a:f7:cb:ea:c6:d7:bb:e5:60:b2:2e:3a:55:1d:
                    52:e5:9b:3d:e7:03:17:15:ce:19:5c:85:18:7f:b6:
                    d4:c4:34:f8:a8:52:79:9f:47:7c:05:1e:ab:b9:4e:
                    58:87:6f:68:90:fb:9c:02:68:ab:f0:65:75:16:4a:
                    48:36:55:d0:5b:91:4e:fd:e9:2a:5c:8e:16:5c:24:
                    8a:61:56:8f:67:6c:ac:f4:f2:e7:24:ab:1f:e5:2d:
                    4a:c1:d3:c7:33:8f:16:e7:31:a9:36:0f:05:cb:4d:
                    36:15:c8:59:f1:4d:a2:91:c4:0f:f8:ba:05:b7:89:
                    03:90:9f:4d:6c:3e:37:bb:bc:f3:83:a3:0a:fa:dd:
                    55:bf:94:20:5b:7e:4a:e4:0c:d5:78:e9:3b:bc:ee:
                    bd:ac:8c:80:8e:75:24:e1:fb:56:da:0c:99:00:8a:
                    14:fc:af:1f:4d:62:f7:31:ad:79:72:71:dc:e6:39:
                    05:27:cc:9e:ab:ab:d4:2d:3f:36:0d:18:8a:c0:59:
                    96:df:e8:c6:63:14:35:3a:e8:15:5c:6d:bc:f7:48:
                    8e:1b:c8:45:00:71:d6:f1:d7:71:01:90:fb:9b:5f:
                    b8:e6:a3:e6:6b:92:43:34:a3:4d:38:15:15:1d:02:
                    5f:53:e5:ae:60:1b:de:70:77:c0:95:3a:8f:80:7e:
                    5d:ad:a1:2f:12:ec:33:7a:0d:a1:0d:0e:ef:7f:0e:
                    12:18:35:ac:5d:f4:35:4e:e3:cd:e5:6e:af:b9:4a:
                    8f:c7:d3:ff:9d:21:39:3d:3a:e8:fa:16:9d:c5:78:
                    fd:39:7c:81:d2:27:7d:71:9e:92:4e:b1:93:df:a2:
                    ed:43:ff:b3:ea:41:c1:95:1c:f5:24:30:f3:71:0d:
                    87:38:90:d5:d3:cd:6c:28:67:ed:10:45:64:3e:32:
                    6b:44:c8:70:78:33:9b:ea:96:a5:81:5a:0f:ba:5e:
                    af:8e:8b:c6:f7:a3:00:33:8d:eb:3b:d6:61:0c:0f:
                    2a:b3:7c:f6:f9:84:6b:6e:92:97:57:85:94:72:a5:
                    d8:7c:8c:08:e8:c5:9e:9d:e7:be:7b:05:aa:30:0d:
                    62:2c:2d:10:92:b0:21:85:32:a7:91:56:64:f4:4f:
                    67:83:9b:28:a5:87:52:32:fa:2b:98:b6:5a:54:eb:
                    15:61:63:d9:ba:c5:45:4f:7c:06:a0:63:84:61:b5:
                    c2:02:de:1d:06:ba:22:b4:3a:56:fa:55:b5:ea:03:
                    c0:6a:23
                Exponent: 65537 (0x10001)
        X509v3 extensions:
            X509v3 Basic Constraints: 
                CA:FALSE
            Netscape Comment: 
                Easy-RSA Generated Certificate
            X509v3 Subject Key Identifier: 
                CF:73:2F:28:39:BE:F2:89:4D:08:F3:C4:0A:71:04:13:F5:73:BD:BC
            X509v3 Authority Key Identifier: 
                keyid:12:CD:60:04:D2:A0:80:9E:70:ED:C6:99:B8:7B:2C:C6:52:FD:19:A1
                DirName:/C=US/ST=OH/L=Columbus/O=VikingVPN/OU=MyOrganizationalUnit/CN=VikingVPN CA/name=EasyRSA/emailAddress=me@myhost.mydomain
                serial:CF:35:85:EE:80:BF:2A:3E

            X509v3 Extended Key Usage: 
                TLS Web Client Authentication
            X509v3 Key Usage: 
                Digital Signature
    Signature Algorithm: sha256WithRSAEncryption
         91:5b:fb:70:3f:c9:ed:97:8c:d6:e7:60:c2:69:d9:0b:f1:39:
         7f:dd:69:8f:de:6a:26:0d:fd:84:80:a8:a7:4b:43:f2:68:a8:
         31:9a:73:a4:aa:d4:81:20:87:7a:a1:77:47:fa:89:73:49:e7:
         de:f7:f7:f1:d8:f4:56:26:78:7e:53:3a:15:02:4d:7b:a2:78:
         c1:07:9c:b6:98:f4:27:29:1a:27:e2:d9:60:78:aa:ac:a5:67:
         cd:a3:8a:e6:73:83:01:5b:da:6a:1c:81:2b:78:f3:de:70:0f:
         ce:5b:d7:b1:97:81:56:9a:5f:ae:cc:db:df:e2:4c:98:f4:be:
         22:05:97:ca:ad:84:b7:f6:03:6d:f0:1e:01:bb:b5:6a:e6:de:
         d3:c5:be:e7:fb:b3:35:a3:4d:7e:3f:b0:54:4c:a0:1b:79:eb:
         bf:67:45:45:12:07:61:57:0e:d3:1f:7e:0d:37:0d:9a:c8:4b:
         f8:c4:8e:d7:34:78:18:c8:84:31:0b:50:84:92:c2:1d:2f:46:
         9b:a5:7c:ba:d3:da:83:a3:58:e6:3c:fb:52:28:84:a5:78:46:
         63:bc:0c:a1:ae:a3:01:16:d3:c9:18:63:bc:c2:34:f1:7c:b0:
         cc:32:e8:2a:31:19:7a:3b:59:e3:98:2d:6b:85:ef:23:90:cc:
         f1:35:27:3f:ab:08:4a:93:7b:26:51:86:c1:10:7b:a8:46:40:
         d4:54:26:c3:fe:55:0e:4c:31:e6:92:c0:f3:c4:24:a6:04:35:
         31:2a:ec:07:f6:1c:c6:39:84:40:91:ea:2d:d2:ed:28:90:0c:
         29:96:73:5a:5b:78:9a:b4:ca:df:0c:74:a0:c3:28:01:13:65:
         84:aa:a0:03:a1:38:b7:7b:97:bb:f6:62:d7:12:a5:76:8c:07:
         dc:dc:68:57:89:5c:f2:63:82:48:26:63:f5:b5:3b:84:7b:2b:
         36:82:14:22:f5:dc:53:07:41:e6:b3:85:a6:83:de:64:c5:50:
         17:1e:27:75:3c:3e:8a:6a:dd:79:21:2d:63:96:dc:bc:fd:17:
         41:5f:d4:a5:db:a2:43:f4:a0:c0:bd:25:65:5f:0c:61:55:c3:
         e9:6b:8c:fc:d8:e1:40:66:ff:dd:63:23:dd:91:e7:a3:85:09:
         99:7d:7e:c9:bb:c5:2c:c9:91:19:68:85:a8:fd:ee:04:a1:31:
         6e:4d:04:f0:65:ea:07:51:20:e9:d1:69:af:a6:74:f4:a3:17:
         d0:7d:14:f3:cd:94:a7:89:b7:34:8d:f2:4d:83:c9:5c:99:c8:
         ee:98:d1:9a:f5:d5:5b:68:4c:98:3d:3c:bb:9e:92:ab:6a:d8:
         db:31:a5:fc:1c:dc:74:6f
-----BEGIN CERTIFICATE-----
MIIGrTCCBJWgAwIBAgICLiUwDQYJKoZIhvcNAQELBQAwgawxCzAJBgNVBAYTAlVT
MQswCQYDVQQIEwJPSDERMA8GA1UEBxMIQ29sdW1idXMxEjAQBgNVBAoTCVZpa2lu
Z1ZQTjEdMBsGA1UECxMUTXlPcmdhbml6YXRpb25hbFVuaXQxFTATBgNVBAMTDFZp
a2luZ1ZQTiBDQTEQMA4GA1UEKRMHRWFzeVJTQTEhMB8GCSqGSIb3DQEJARYSbWVA
bXlob3N0Lm15ZG9tYWluMB4XDTE3MDkwOTAzMzMwM1oXDTI3MDkwNzAzMzMwM1ow
HzEdMBsGA1UEAxMUQ2xpZW50MTc5OUNlcnQwZTAwYmYwggIiMA0GCSqGSIb3DQEB
AQUAA4ICDwAwggIKAoICAQDbwv9plxYcLB2Q8ncaGKkDGeDXff+oS3z2/UnZ39hW
yANzGLeDcFK2pFTLExA698vqxte75WCyLjpVHVLlmz3nAxcVzhlchRh/ttTENPio
UnmfR3wFHqu5TliHb2iQ+5wCaKvwZXUWSkg2VdBbkU796SpcjhZcJIphVo9nbKz0
8uckqx/lLUrB08czjxbnMak2DwXLTTYVyFnxTaKRxA/4ugW3iQOQn01sPje7vPOD
owr63VW/lCBbfkrkDNV46Tu87r2sjICOdSTh+1baDJkAihT8rx9NYvcxrXlycdzm
OQUnzJ6rq9QtPzYNGIrAWZbf6MZjFDU66BVcbbz3SI4byEUAcdbx13EBkPubX7jm
o+ZrkkM0o004FRUdAl9T5a5gG95wd8CVOo+Afl2toS8S7DN6DaENDu9/DhIYNaxd
9DVO483lbq+5So/H0/+dITk9Ouj6Fp3FeP05fIHSJ31xnpJOsZPfou1D/7PqQcGV
HPUkMPNxDYc4kNXTzWwoZ+0QRWQ+MmtEyHB4M5vqlqWBWg+6Xq+Oi8b3owAzjes7
1mEMDyqzfPb5hGtukpdXhZRypdh8jAjoxZ6d5757BaowDWIsLRCSsCGFMqeRVmT0
T2eDmyilh1Iy+iuYtlpU6xVhY9m6xUVPfAagY4RhtcIC3h0GuiK0Olb6VbXqA8Bq
IwIDAQABo4IBYzCCAV8wCQYDVR0TBAIwADAtBglghkgBhvhCAQ0EIBYeRWFzeS1S
U0EgR2VuZXJhdGVkIENlcnRpZmljYXRlMB0GA1UdDgQWBBTPcy8oOb7yiU0I88QK
cQQT9XO9vDCB4QYDVR0jBIHZMIHWgBQSzWAE0qCAnnDtxpm4eyzGUv0ZoaGBsqSB
rzCBrDELMAkGA1UEBhMCVVMxCzAJBgNVBAgTAk9IMREwDwYDVQQHEwhDb2x1bWJ1
czESMBAGA1UEChMJVmlraW5nVlBOMR0wGwYDVQQLExRNeU9yZ2FuaXphdGlvbmFs
VW5pdDEVMBMGA1UEAxMMVmlraW5nVlBOIENBMRAwDgYDVQQpEwdFYXN5UlNBMSEw
HwYJKoZIhvcNAQkBFhJtZUBteWhvc3QubXlkb21haW6CCQDPNYXugL8qPjATBgNV
HSUEDDAKBggrBgEFBQcDAjALBgNVHQ8EBAMCB4AwDQYJKoZIhvcNAQELBQADggIB
AJFb+3A/ye2XjNbnYMJp2QvxOX/daY/eaiYN/YSAqKdLQ/JoqDGac6Sq1IEgh3qh
d0f6iXNJ59739/HY9FYmeH5TOhUCTXuieMEHnLaY9CcpGifi2WB4qqylZ82jiuZz
gwFb2mocgSt4895wD85b17GXgVaaX67M29/iTJj0viIFl8qthLf2A23wHgG7tWrm
3tPFvuf7szWjTX4/sFRMoBt5679nRUUSB2FXDtMffg03DZrIS/jEjtc0eBjIhDEL
UISSwh0vRpulfLrT2oOjWOY8+1IohKV4RmO8DKGuowEW08kYY7zCNPF8sMwy6Cox
GXo7WeOYLWuF7yOQzPE1Jz+rCEqTeyZRhsEQe6hGQNRUJsP+VQ5MMeaSwPPEJKYE
NTEq7Af2HMY5hECR6i3S7SiQDCmWc1pbeJq0yt8MdKDDKAETZYSqoAOhOLd7l7v2
YtcSpXaMB9zcaFeJXPJjgkgmY/W1O4R7KzaCFCL13FMHQeazhaaD3mTFUBceJ3U8
Popq3XkhLWOW3Lz9F0Ff1KXbokP0oMC9JWVfDGFVw+lrjPzY4UBm/91jI92R56OF
CZl9fsm7xSzJkRlohaj97gShMW5NBPBl6gdRIOnRaa+mdPSjF9B9FPPNlKeJtzSN
8k2DyVyZyO6Y0Zr11VtoTJg9PLuekqtq2Nsxpfwc3HRv
-----END CERTIFICATE-----
