Certificate:
    Data:
        Version: 3 (0x2)
        Serial Number: 10424 (0x28b8)
    Signature Algorithm: sha256WithRSAEncryption
        Issuer: C=US, ST=OH, L=Columbus, O=VikingVPN, OU=MyOrganizationalUnit, CN=VikingVPN CA/name=EasyRSA/emailAddress=me@myhost.mydomain
        Validity
            Not Before: Mar 29 18:31:29 2017 GMT
            Not After : Mar 27 18:31:29 2027 GMT
        Subject: CN=Client2804Cert372fd8
        Subject Public Key Info:
            Public Key Algorithm: rsaEncryption
                Public-Key: (4096 bit)
                Modulus:
                    00:ee:11:88:7d:5f:02:85:8d:c9:a7:c0:50:81:e3:
                    12:c2:8e:dd:59:91:66:8a:a6:d1:1e:d4:97:67:67:
                    91:63:c1:f6:03:98:3a:e4:9c:6a:9f:ed:0a:5f:e1:
                    89:bf:1d:48:68:18:1a:c9:a3:47:ca:11:17:19:ee:
                    3b:fc:ce:ac:64:3c:d7:a6:e7:ae:36:0e:dc:7f:be:
                    51:f0:a0:81:c6:ec:77:e9:ad:c7:91:2a:2b:90:ff:
                    ac:de:0b:ad:97:5f:28:89:97:e3:e3:d2:51:f9:84:
                    c0:32:2f:6b:fb:27:e2:79:27:5a:08:9a:90:d8:13:
                    8b:2d:c3:38:63:a5:89:59:ef:68:8b:b4:5b:0a:ee:
                    3c:10:84:6d:db:5d:44:33:a5:d1:89:6c:9e:0e:0c:
                    52:1c:ed:94:24:35:0d:f5:d5:5d:42:e3:0b:93:6d:
                    06:0b:0f:1e:9d:5d:47:e8:8a:13:d6:08:f4:76:48:
                    be:95:0d:51:ea:0e:24:44:a3:a5:90:7a:5b:d3:5e:
                    a0:62:47:3e:2d:16:aa:95:f7:4e:db:6e:10:82:fe:
                    64:3f:7c:e0:04:97:5b:d6:16:9f:4c:4a:c7:2c:e8:
                    8a:46:90:4c:bb:25:26:81:0a:48:da:07:76:ee:d0:
                    82:46:a8:08:0b:fa:b1:8b:9d:a1:71:6a:c6:eb:7b:
                    a9:56:63:7c:fc:5c:2a:d8:e5:c4:58:83:a5:7f:3c:
                    0f:ed:71:13:fc:3f:ad:de:35:41:12:6e:eb:2a:01:
                    ad:5a:8f:c2:4e:f3:56:5f:f9:14:29:e4:84:23:a8:
                    c5:e9:87:82:47:f4:ab:67:9a:a2:b3:e3:61:a9:cd:
                    f7:60:eb:73:a0:56:ac:43:43:e2:45:ea:94:09:92:
                    ec:90:c4:18:72:66:a2:5f:21:8d:bc:24:e9:d6:f8:
                    60:e9:0a:89:d4:51:91:8a:c7:40:a3:dd:3a:6a:ab:
                    16:16:1a:5e:9d:cd:81:32:9b:0d:8f:49:96:22:a1:
                    49:f6:52:33:38:fd:d9:6d:2c:30:a8:fe:81:60:8c:
                    ea:43:47:66:ab:85:13:3a:e9:eb:a5:23:21:4b:e8:
                    ee:6e:77:ae:0b:80:12:eb:45:bf:43:98:0a:5c:66:
                    9c:c3:fc:32:03:7a:11:9d:bf:82:e4:6d:93:5a:0a:
                    21:2b:b9:f3:17:be:53:79:9c:b1:ae:6d:00:5f:75:
                    4a:3d:dc:d9:8b:ab:35:86:a3:9b:7c:c9:10:4a:08:
                    e1:62:4d:25:d8:b8:0a:c6:ae:df:23:1c:6b:be:aa:
                    03:e8:86:90:55:0b:38:2c:18:b8:c0:1e:3b:ea:9f:
                    85:64:f0:da:12:6b:77:0b:4c:01:f9:49:7c:42:c6:
                    34:4e:1b
                Exponent: 65537 (0x10001)
        X509v3 extensions:
            X509v3 Basic Constraints: 
                CA:FALSE
            Netscape Comment: 
                Easy-RSA Generated Certificate
            X509v3 Subject Key Identifier: 
                6F:9E:00:7E:7D:01:34:35:D5:2B:12:77:2F:25:76:7D:29:FD:DD:58
            X509v3 Authority Key Identifier: 
                keyid:12:CD:60:04:D2:A0:80:9E:70:ED:C6:99:B8:7B:2C:C6:52:FD:19:A1
                DirName:/C=US/ST=OH/L=Columbus/O=VikingVPN/OU=MyOrganizationalUnit/CN=VikingVPN CA/name=EasyRSA/emailAddress=me@myhost.mydomain
                serial:CF:35:85:EE:80:BF:2A:3E

            X509v3 Extended Key Usage: 
                TLS Web Client Authentication
            X509v3 Key Usage: 
                Digital Signature
    Signature Algorithm: sha256WithRSAEncryption
         be:f8:8b:eb:6a:f1:a2:5a:52:f5:8d:aa:5c:c6:df:c2:df:01:
         fa:7e:1e:1f:49:66:3c:22:0b:fd:03:cc:82:df:0f:5a:ef:ac:
         75:ee:67:76:b8:5a:41:e7:36:8c:89:4d:14:4d:99:bc:b7:e6:
         da:b6:5d:62:7f:18:2c:ad:e0:27:7e:d0:6a:e0:2d:f9:69:77:
         d1:c0:19:15:bd:79:6a:ab:26:65:dc:27:23:3c:b6:80:b8:0c:
         2a:ce:47:a9:0e:2d:38:f3:68:bc:fd:a4:8e:af:9a:76:2e:b4:
         50:95:85:5a:78:30:c3:6d:75:ae:89:97:5b:ba:26:24:45:90:
         c2:76:7c:32:b3:f7:d1:4f:ef:83:6e:3a:71:d2:38:88:77:01:
         a4:89:9c:f9:b6:19:c3:3e:e8:49:42:3a:a6:33:69:49:db:ad:
         7c:7f:bd:0e:84:b0:25:e1:cc:19:eb:80:bf:b3:70:bf:2c:b9:
         7c:0e:ce:58:d7:9e:b4:37:76:60:72:38:aa:6a:61:c9:ab:ee:
         2a:8a:5b:51:e6:23:47:eb:14:98:f4:bc:b3:94:3c:9e:69:75:
         fc:82:36:7c:7b:d9:e3:f2:54:40:04:fa:50:44:52:1a:1b:83:
         60:c0:5b:8b:97:62:75:e0:38:da:24:f9:c1:c8:c8:22:8b:e2:
         ee:9a:9e:ae:a2:99:fc:03:af:09:97:42:7b:f2:80:8b:bf:8f:
         7a:db:84:93:d4:4b:0a:a6:ad:54:e8:06:17:f0:83:9c:03:f3:
         82:2d:53:90:cf:da:55:6e:39:e5:b8:0d:a9:e0:52:8a:2a:ab:
         90:da:6f:cc:eb:86:4a:02:5c:c0:b7:d5:80:fa:cf:8f:a8:90:
         ad:58:23:ae:48:a6:f0:6c:71:ae:51:79:05:a6:e9:f3:bb:ec:
         28:db:fc:32:8f:0b:c9:6a:ad:c4:b3:e5:e0:b4:f4:cc:b3:56:
         ba:99:bd:ff:bc:7f:57:58:c4:0c:4e:41:cb:17:a4:9d:fc:d9:
         6f:cb:65:57:16:ae:12:ec:f3:ff:4d:51:2b:13:32:e9:40:7f:
         6c:12:4e:18:94:2e:33:36:92:a8:7b:94:d1:c5:78:71:3a:20:
         7f:96:47:68:ff:25:d4:e7:b5:23:dd:72:ac:41:3e:18:39:89:
         43:68:b5:21:d2:ce:90:5e:7a:54:9d:89:e3:e0:16:ce:d7:62:
         7d:5f:df:ee:75:84:6a:33:76:1a:b0:71:b8:4a:6c:4a:aa:c1:
         5f:ed:b5:7f:bf:7d:eb:b4:78:7c:c0:6a:2b:2f:d5:6b:c9:21:
         80:a5:36:33:af:39:44:84:92:38:58:69:e0:77:c7:20:88:fa:
         c6:16:c4:93:6e:db:09:92
-----BEGIN CERTIFICATE-----
MIIGrTCCBJWgAwIBAgICKLgwDQYJKoZIhvcNAQELBQAwgawxCzAJBgNVBAYTAlVT
MQswCQYDVQQIEwJPSDERMA8GA1UEBxMIQ29sdW1idXMxEjAQBgNVBAoTCVZpa2lu
Z1ZQTjEdMBsGA1UECxMUTXlPcmdhbml6YXRpb25hbFVuaXQxFTATBgNVBAMTDFZp
a2luZ1ZQTiBDQTEQMA4GA1UEKRMHRWFzeVJTQTEhMB8GCSqGSIb3DQEJARYSbWVA
bXlob3N0Lm15ZG9tYWluMB4XDTE3MDMyOTE4MzEyOVoXDTI3MDMyNzE4MzEyOVow
HzEdMBsGA1UEAxMUQ2xpZW50MjgwNENlcnQzNzJmZDgwggIiMA0GCSqGSIb3DQEB
AQUAA4ICDwAwggIKAoICAQDuEYh9XwKFjcmnwFCB4xLCjt1ZkWaKptEe1JdnZ5Fj
wfYDmDrknGqf7Qpf4Ym/HUhoGBrJo0fKERcZ7jv8zqxkPNem5642Dtx/vlHwoIHG
7HfprceRKiuQ/6zeC62XXyiJl+Pj0lH5hMAyL2v7J+J5J1oImpDYE4stwzhjpYlZ
72iLtFsK7jwQhG3bXUQzpdGJbJ4ODFIc7ZQkNQ311V1C4wuTbQYLDx6dXUfoihPW
CPR2SL6VDVHqDiREo6WQelvTXqBiRz4tFqqV907bbhCC/mQ/fOAEl1vWFp9MSscs
6IpGkEy7JSaBCkjaB3bu0IJGqAgL+rGLnaFxasbre6lWY3z8XCrY5cRYg6V/PA/t
cRP8P63eNUESbusqAa1aj8JO81Zf+RQp5IQjqMXph4JH9KtnmqKz42Gpzfdg63Og
VqxDQ+JF6pQJkuyQxBhyZqJfIY28JOnW+GDpConUUZGKx0Cj3TpqqxYWGl6dzYEy
mw2PSZYioUn2UjM4/dltLDCo/oFgjOpDR2arhRM66eulIyFL6O5ud64LgBLrRb9D
mApcZpzD/DIDehGdv4LkbZNaCiErufMXvlN5nLGubQBfdUo93NmLqzWGo5t8yRBK
COFiTSXYuArGrt8jHGu+qgPohpBVCzgsGLjAHjvqn4Vk8NoSa3cLTAH5SXxCxjRO
GwIDAQABo4IBYzCCAV8wCQYDVR0TBAIwADAtBglghkgBhvhCAQ0EIBYeRWFzeS1S
U0EgR2VuZXJhdGVkIENlcnRpZmljYXRlMB0GA1UdDgQWBBRvngB+fQE0NdUrEncv
JXZ9Kf3dWDCB4QYDVR0jBIHZMIHWgBQSzWAE0qCAnnDtxpm4eyzGUv0ZoaGBsqSB
rzCBrDELMAkGA1UEBhMCVVMxCzAJBgNVBAgTAk9IMREwDwYDVQQHEwhDb2x1bWJ1
czESMBAGA1UEChMJVmlraW5nVlBOMR0wGwYDVQQLExRNeU9yZ2FuaXphdGlvbmFs
VW5pdDEVMBMGA1UEAxMMVmlraW5nVlBOIENBMRAwDgYDVQQpEwdFYXN5UlNBMSEw
HwYJKoZIhvcNAQkBFhJtZUBteWhvc3QubXlkb21haW6CCQDPNYXugL8qPjATBgNV
HSUEDDAKBggrBgEFBQcDAjALBgNVHQ8EBAMCB4AwDQYJKoZIhvcNAQELBQADggIB
AL74i+tq8aJaUvWNqlzG38LfAfp+Hh9JZjwiC/0DzILfD1rvrHXuZ3a4WkHnNoyJ
TRRNmby35tq2XWJ/GCyt4Cd+0GrgLflpd9HAGRW9eWqrJmXcJyM8toC4DCrOR6kO
LTjzaLz9pI6vmnYutFCVhVp4MMNtda6Jl1u6JiRFkMJ2fDKz99FP74NuOnHSOIh3
AaSJnPm2GcM+6ElCOqYzaUnbrXx/vQ6EsCXhzBnrgL+zcL8suXwOzljXnrQ3dmBy
OKpqYcmr7iqKW1HmI0frFJj0vLOUPJ5pdfyCNnx72ePyVEAE+lBEUhobg2DAW4uX
YnXgONok+cHIyCKL4u6anq6imfwDrwmXQnvygIu/j3rbhJPUSwqmrVToBhfwg5wD
84ItU5DP2lVuOeW4DangUooqq5Dab8zrhkoCXMC31YD6z4+okK1YI65IpvBsca5R
eQWm6fO77Cjb/DKPC8lqrcSz5eC09MyzVrqZvf+8f1dYxAxOQcsXpJ382W/LZVcW
rhLs8/9NUSsTMulAf2wSThiULjM2kqh7lNHFeHE6IH+WR2j/JdTntSPdcqxBPhg5
iUNotSHSzpBeelSdiePgFs7XYn1f3+51hGozdhqwcbhKbEqqwV/ttX+/feu0eHzA
aisv1WvJIYClNjOvOUSEkjhYaeB3xyCI+sYWxJNu2wmS
-----END CERTIFICATE-----
