Certificate:
    Data:
        Version: 3 (0x2)
        Serial Number: 6593 (0x19c1)
    Signature Algorithm: md5WithRSAEncryption
        Issuer: C=US, ST=OH, L=Columbus, O=VikingVPN, OU=MyOrganizationalUnit, CN=VikingVPN CA/name=EasyRSA/emailAddress=me@myhost.mydomain
        Validity
            Not Before: Oct 31 21:30:44 2015 GMT
            Not After : Oct 28 21:30:44 2025 GMT
        Subject: CN=Client1279Cert040e63
        Subject Public Key Info:
            Public Key Algorithm: rsaEncryption
                Public-Key: (4096 bit)
                Modulus:
                    00:ab:5a:1a:b4:ef:a6:11:c1:93:0b:04:e6:7f:0d:
                    4e:af:09:45:04:c8:14:22:ad:c0:91:02:a1:c3:b2:
                    4e:63:8c:28:fc:14:ca:45:0b:4e:99:91:81:a9:b4:
                    75:26:80:58:e0:ca:74:12:01:69:1b:35:23:c6:89:
                    0c:7c:82:44:86:f4:f6:79:db:50:94:58:52:2e:52:
                    10:fa:fe:fe:1b:62:17:40:d2:80:00:63:ba:a0:56:
                    ec:02:2c:af:69:cd:b6:ba:d8:88:0a:27:6b:2c:61:
                    3b:6a:5e:45:16:0e:ba:e2:0b:9b:8e:18:0f:b5:78:
                    e5:01:09:c4:8c:f2:c9:e3:de:97:a5:61:4d:7b:f7:
                    d9:9c:8f:af:7e:8d:8c:60:08:6e:bd:c8:36:89:0b:
                    b2:ff:7a:28:2b:fc:fc:58:ea:e5:e0:33:0d:87:d6:
                    6a:d9:8e:b5:8f:2c:f2:12:5f:8e:41:9a:58:e1:1a:
                    8a:f2:05:a1:0e:35:90:b5:66:db:8c:d9:33:d6:92:
                    a0:35:93:c7:81:8d:ea:7b:61:64:94:e4:df:29:8c:
                    99:3b:85:d4:e6:25:0a:ea:60:36:dc:c6:7a:7f:2b:
                    02:8a:dc:4b:bd:88:75:72:b2:78:70:04:64:ec:74:
                    fd:4b:71:98:5e:07:a8:67:16:1b:cf:f6:25:eb:20:
                    3e:84:b4:4e:ee:d1:ca:e4:8b:38:23:e7:0f:2c:6a:
                    c3:0d:2d:db:a0:af:07:50:a7:f5:73:12:f1:27:16:
                    5a:97:a9:46:f9:a1:02:aa:29:7c:b5:6b:00:09:70:
                    48:c8:21:ca:df:b9:70:35:22:20:e6:a6:84:48:9b:
                    27:3a:bd:46:cf:3a:14:51:d2:6f:fa:4a:9a:5b:27:
                    3e:30:92:5f:4d:23:0c:d1:a3:80:0c:aa:25:cb:b8:
                    a6:4e:5d:8d:c2:13:df:71:cd:b1:48:71:a8:b0:15:
                    a6:60:be:f8:c3:5e:dc:de:74:c5:35:e2:d5:03:83:
                    86:99:c5:78:d4:49:ac:6a:80:6a:e5:e3:6b:fa:30:
                    51:ce:ff:42:69:b2:4d:e3:ef:e8:42:aa:dc:b6:d6:
                    2a:43:bc:11:49:76:1d:93:53:8e:f5:62:d2:3f:1c:
                    42:0d:b5:20:04:a6:28:b6:04:bf:91:73:c5:e3:1c:
                    11:da:91:cd:36:d7:1c:ad:5d:2b:1e:4a:39:55:75:
                    c6:f4:c9:41:20:c8:b4:34:75:2e:ec:82:7b:00:02:
                    f3:ce:bb:2c:8a:d1:ba:08:a4:65:82:b8:04:ac:4f:
                    5a:82:0b:f5:22:79:eb:b4:bc:dd:18:da:4f:31:9c:
                    3f:84:d7:62:af:4c:4a:f6:bd:be:14:23:76:c6:71:
                    b5:a5:a1
                Exponent: 65537 (0x10001)
        X509v3 extensions:
            X509v3 Basic Constraints: 
                CA:FALSE
            Netscape Comment: 
                Easy-RSA Generated Certificate
            X509v3 Subject Key Identifier: 
                C1:A0:47:55:5D:AB:2A:70:BE:CE:75:E6:CC:8F:68:78:0E:9D:A9:3D
            X509v3 Authority Key Identifier: 
                keyid:12:CD:60:04:D2:A0:80:9E:70:ED:C6:99:B8:7B:2C:C6:52:FD:19:A1
                DirName:/C=US/ST=OH/L=Columbus/O=VikingVPN/OU=MyOrganizationalUnit/CN=VikingVPN CA/name=EasyRSA/emailAddress=me@myhost.mydomain
                serial:CF:35:85:EE:80:BF:2A:3E

            X509v3 Extended Key Usage: 
                TLS Web Client Authentication
            X509v3 Key Usage: 
                Digital Signature
    Signature Algorithm: md5WithRSAEncryption
         d7:e5:76:90:a2:f7:11:31:c3:3f:93:bc:18:c0:6f:0f:7e:90:
         d4:71:e5:95:b5:32:1c:71:ac:f8:8b:08:8a:ba:af:d5:6c:ae:
         3f:9e:9a:2c:39:3b:48:97:77:d0:b9:33:6a:73:91:26:bb:ff:
         3a:34:23:04:c2:5f:b0:50:b4:a3:19:9b:cf:3e:e0:34:3e:e3:
         84:ff:60:9b:61:3f:37:37:37:62:6c:9f:7b:d4:57:e8:88:5d:
         d6:f9:19:68:c4:0a:e3:b0:23:69:76:27:ee:79:13:79:32:91:
         20:85:2e:fc:0a:fc:fc:9f:a0:bf:72:a6:b2:20:9f:ec:86:28:
         d8:45:84:05:43:a1:5d:20:db:8c:12:13:1f:26:7e:dd:ed:11:
         3e:6e:38:c8:fe:87:dc:4d:a4:75:a4:5c:47:dc:6a:e1:28:9b:
         5d:6a:aa:b0:fe:17:0a:4c:2b:73:ab:89:70:24:5f:8c:11:04:
         6b:38:4a:8c:62:d5:35:8c:5b:4d:0b:ff:15:ad:3b:be:1d:d1:
         f5:90:45:6d:ff:04:3a:7e:3d:88:80:ac:93:01:10:62:22:af:
         02:21:aa:8a:01:d8:48:5e:c2:be:a2:0f:55:00:6c:5a:e8:6a:
         73:bb:0a:99:7d:5c:36:c6:9e:10:ec:03:72:54:63:c6:62:52:
         00:fa:53:07:93:0e:df:c6:05:1f:77:06:fd:d4:d2:78:38:7e:
         9a:d8:e0:f8:a4:70:6d:21:54:2d:0c:d9:35:66:c3:48:0f:7d:
         38:a4:a0:07:ff:b9:13:04:6e:a2:85:17:40:22:6a:39:bd:9e:
         6b:b8:be:74:3f:5e:f2:5c:32:75:6c:d7:5a:6d:01:e1:a3:fc:
         20:f1:bb:84:b4:4c:19:dc:ab:20:10:c6:a5:e3:4d:0c:29:79:
         a9:77:de:70:9d:03:a6:8b:86:33:9c:44:0e:90:8b:e5:f8:ed:
         37:b3:4b:25:c0:9a:bf:21:26:07:7c:65:c5:25:b9:bf:de:b9:
         16:77:1b:6b:53:08:f9:12:91:8c:fe:2c:bc:04:97:5a:1c:ed:
         28:fd:5f:7e:84:73:4b:a0:b4:16:2e:9a:61:17:48:68:42:1f:
         eb:e7:d3:21:13:57:ca:52:a1:72:8d:f9:e2:d4:1b:24:97:1c:
         37:ff:ee:ae:c5:91:11:c1:67:d5:07:e3:69:74:86:08:46:65:
         95:90:ad:22:52:41:cf:d3:3c:83:88:5c:92:8d:a2:ab:2a:08:
         cc:e3:be:b4:24:bb:5f:b0:ec:4b:8e:e0:99:31:3c:5f:ff:be:
         90:6a:cf:20:5e:61:d4:0f:54:de:e6:6a:fc:bc:f4:2a:d4:32:
         b3:41:0d:d0:c2:ef:68:0e
-----BEGIN CERTIFICATE-----
MIIGrTCCBJWgAwIBAgICGcEwDQYJKoZIhvcNAQEEBQAwgawxCzAJBgNVBAYTAlVT
MQswCQYDVQQIEwJPSDERMA8GA1UEBxMIQ29sdW1idXMxEjAQBgNVBAoTCVZpa2lu
Z1ZQTjEdMBsGA1UECxMUTXlPcmdhbml6YXRpb25hbFVuaXQxFTATBgNVBAMTDFZp
a2luZ1ZQTiBDQTEQMA4GA1UEKRMHRWFzeVJTQTEhMB8GCSqGSIb3DQEJARYSbWVA
bXlob3N0Lm15ZG9tYWluMB4XDTE1MTAzMTIxMzA0NFoXDTI1MTAyODIxMzA0NFow
HzEdMBsGA1UEAxMUQ2xpZW50MTI3OUNlcnQwNDBlNjMwggIiMA0GCSqGSIb3DQEB
AQUAA4ICDwAwggIKAoICAQCrWhq076YRwZMLBOZ/DU6vCUUEyBQircCRAqHDsk5j
jCj8FMpFC06ZkYGptHUmgFjgynQSAWkbNSPGiQx8gkSG9PZ521CUWFIuUhD6/v4b
YhdA0oAAY7qgVuwCLK9pzba62IgKJ2ssYTtqXkUWDrriC5uOGA+1eOUBCcSM8snj
3pelYU1799mcj69+jYxgCG69yDaJC7L/eigr/PxY6uXgMw2H1mrZjrWPLPISX45B
mljhGoryBaEONZC1ZtuM2TPWkqA1k8eBjep7YWSU5N8pjJk7hdTmJQrqYDbcxnp/
KwKK3Eu9iHVysnhwBGTsdP1LcZheB6hnFhvP9iXrID6EtE7u0crkizgj5w8sasMN
LdugrwdQp/VzEvEnFlqXqUb5oQKqKXy1awAJcEjIIcrfuXA1IiDmpoRImyc6vUbP
OhRR0m/6SppbJz4wkl9NIwzRo4AMqiXLuKZOXY3CE99xzbFIcaiwFaZgvvjDXtze
dMU14tUDg4aZxXjUSaxqgGrl42v6MFHO/0Jpsk3j7+hCqty21ipDvBFJdh2TU471
YtI/HEINtSAEpii2BL+Rc8XjHBHakc021xytXSseSjlVdcb0yUEgyLQ0dS7sgnsA
AvPOuyyK0boIpGWCuASsT1qCC/Uieeu0vN0Y2k8xnD+E12KvTEr2vb4UI3bGcbWl
oQIDAQABo4IBYzCCAV8wCQYDVR0TBAIwADAtBglghkgBhvhCAQ0EIBYeRWFzeS1S
U0EgR2VuZXJhdGVkIENlcnRpZmljYXRlMB0GA1UdDgQWBBTBoEdVXasqcL7OdebM
j2h4Dp2pPTCB4QYDVR0jBIHZMIHWgBQSzWAE0qCAnnDtxpm4eyzGUv0ZoaGBsqSB
rzCBrDELMAkGA1UEBhMCVVMxCzAJBgNVBAgTAk9IMREwDwYDVQQHEwhDb2x1bWJ1
czESMBAGA1UEChMJVmlraW5nVlBOMR0wGwYDVQQLExRNeU9yZ2FuaXphdGlvbmFs
VW5pdDEVMBMGA1UEAxMMVmlraW5nVlBOIENBMRAwDgYDVQQpEwdFYXN5UlNBMSEw
HwYJKoZIhvcNAQkBFhJtZUBteWhvc3QubXlkb21haW6CCQDPNYXugL8qPjATBgNV
HSUEDDAKBggrBgEFBQcDAjALBgNVHQ8EBAMCB4AwDQYJKoZIhvcNAQEEBQADggIB
ANfldpCi9xExwz+TvBjAbw9+kNRx5ZW1MhxxrPiLCIq6r9Vsrj+emiw5O0iXd9C5
M2pzkSa7/zo0IwTCX7BQtKMZm88+4DQ+44T/YJthPzc3N2Jsn3vUV+iIXdb5GWjE
CuOwI2l2J+55E3kykSCFLvwK/PyfoL9yprIgn+yGKNhFhAVDoV0g24wSEx8mft3t
ET5uOMj+h9xNpHWkXEfcauEom11qqrD+FwpMK3OriXAkX4wRBGs4Soxi1TWMW00L
/xWtO74d0fWQRW3/BDp+PYiArJMBEGIirwIhqooB2Ehewr6iD1UAbFroanO7Cpl9
XDbGnhDsA3JUY8ZiUgD6UweTDt/GBR93Bv3U0ng4fprY4PikcG0hVC0M2TVmw0gP
fTikoAf/uRMEbqKFF0Aiajm9nmu4vnQ/XvJcMnVs11ptAeGj/CDxu4S0TBncqyAQ
xqXjTQwpeal33nCdA6aLhjOcRA6Qi+X47TezSyXAmr8hJgd8ZcUlub/euRZ3G2tT
CPkSkYz+LLwEl1oc7Sj9X36Ec0ugtBYummEXSGhCH+vn0yETV8pSoXKN+eLUGySX
HDf/7q7FkRHBZ9UH42l0hghGZZWQrSJSQc/TPIOIXJKNoqsqCMzjvrQku1+w7EuO
4JkxPF//vpBqzyBeYdQPVN7mavy89CrUMrNBDdDC72gO
-----END CERTIFICATE-----
