Certificate:
    Data:
        Version: 3 (0x2)
        Serial Number: 565 (0x235)
    Signature Algorithm: md5WithRSAEncryption
        Issuer: C=US, ST=OH, L=Columbus, O=VikingVPN, OU=MyOrganizationalUnit, CN=VikingVPN CA/name=EasyRSA/emailAddress=me@myhost.mydomain
        Validity
            Not Before: Dec 14 20:17:03 2013 GMT
            Not After : Dec 12 20:17:03 2023 GMT
        Subject: CN=Client232Cert818928
        Subject Public Key Info:
            Public Key Algorithm: rsaEncryption
                Public-Key: (4096 bit)
                Modulus:
                    00:c0:91:80:f1:3f:eb:b3:70:72:91:15:7d:21:08:
                    02:75:cc:06:d8:86:b2:81:d6:3e:9e:b5:9d:70:d8:
                    9e:60:0c:af:08:45:6a:3b:74:19:12:0d:fe:74:ab:
                    d3:13:f9:a9:8c:18:27:f3:fb:58:9f:cf:ee:99:9e:
                    c7:32:39:88:9a:f1:ba:56:92:df:78:48:91:74:a9:
                    05:55:81:28:18:53:0b:0c:2b:84:97:8b:95:f5:0a:
                    db:75:27:0e:bc:d2:55:4c:29:6e:8d:17:03:e7:4d:
                    5d:70:cf:18:a2:93:f9:59:02:d3:c9:28:eb:96:7c:
                    85:de:6e:0f:29:83:81:48:f0:6c:f9:ba:a3:38:d3:
                    71:9b:4c:30:b9:10:b5:84:88:2d:17:ac:f0:ff:e6:
                    8a:c1:df:89:4e:be:4d:57:aa:6e:ed:a3:3e:4d:58:
                    f8:9a:53:4d:e9:7a:0d:95:83:3c:14:18:5c:8a:b1:
                    1b:3e:0d:5c:5c:9f:83:ab:b9:83:cf:b6:c1:f3:91:
                    16:00:03:95:17:db:bd:ab:49:c8:5c:c2:dc:13:c6:
                    b3:0e:7a:f2:40:4d:28:b4:07:ff:e5:b0:f8:eb:2e:
                    af:38:70:dd:7d:e2:7d:e2:bb:84:3d:e0:46:39:fe:
                    dd:78:35:41:48:82:b8:e9:36:7b:ba:b4:d4:64:be:
                    a7:b3:7b:7a:fe:42:75:c5:23:42:aa:76:a5:b9:63:
                    9f:e6:6e:6c:bb:18:27:c5:18:c7:3e:24:e0:d7:1b:
                    40:55:fd:a5:7e:83:4e:35:dd:66:c5:05:0d:01:02:
                    65:10:fa:d0:63:74:33:0e:5b:c9:92:19:24:3d:52:
                    2e:89:fc:6a:fb:14:40:27:83:e5:8d:ce:13:e6:23:
                    80:eb:87:47:db:fc:61:c3:96:74:fc:98:93:d7:e9:
                    37:04:83:70:06:9a:ec:ca:bf:e9:e4:de:4f:58:3b:
                    a3:4f:c7:ea:18:8b:45:17:49:42:e4:2d:41:80:dc:
                    83:f8:23:b8:85:f5:d1:fc:08:59:48:2c:fb:b0:89:
                    57:e3:f7:99:a6:18:ff:2b:1a:52:fa:30:16:c8:5f:
                    a0:9f:b4:f6:50:50:da:e2:53:35:07:a4:c3:4b:fe:
                    af:d4:b6:1f:e2:ec:2d:31:03:3c:56:13:e8:66:b4:
                    22:e1:30:70:4b:c0:eb:f5:1f:db:7e:8e:5a:16:e7:
                    67:9d:b9:5d:a2:0a:14:57:14:23:bf:ee:fb:19:d0:
                    07:fd:08:fa:d5:17:18:7c:34:66:9e:f0:ca:40:7c:
                    a7:0c:8a:2e:94:02:54:bf:8a:62:3e:50:67:41:09:
                    da:c4:e5:67:c4:09:a4:97:e6:bc:61:c6:a9:90:ec:
                    04:db:21
                Exponent: 65537 (0x10001)
        X509v3 extensions:
            X509v3 Basic Constraints: 
                CA:FALSE
            Netscape Comment: 
                Easy-RSA Generated Certificate
            X509v3 Subject Key Identifier: 
                BC:43:F5:56:AD:F3:CD:9F:A0:34:2A:D4:D9:1B:CD:F9:27:D1:2E:DB
            X509v3 Authority Key Identifier: 
                keyid:12:CD:60:04:D2:A0:80:9E:70:ED:C6:99:B8:7B:2C:C6:52:FD:19:A1
                DirName:/C=US/ST=OH/L=Columbus/O=VikingVPN/OU=MyOrganizationalUnit/CN=VikingVPN CA/name=EasyRSA/emailAddress=me@myhost.mydomain
                serial:CF:35:85:EE:80:BF:2A:3E

            X509v3 Extended Key Usage: 
                TLS Web Client Authentication
            X509v3 Key Usage: 
                Digital Signature
    Signature Algorithm: md5WithRSAEncryption
         36:ef:40:f6:34:29:d9:2c:85:57:89:5e:ab:4a:b6:73:5f:0f:
         3b:81:9b:b7:8d:21:86:a0:d4:e7:ed:82:35:bf:07:d1:2d:8a:
         d1:46:4a:d8:49:5b:68:81:81:b0:bd:53:52:02:fa:f8:12:53:
         85:6c:93:ef:65:23:66:29:0d:5b:6f:c6:8d:cf:81:fb:36:a5:
         21:54:10:65:98:bf:be:e9:ca:57:9b:5d:c1:1b:15:c1:51:83:
         21:1a:13:03:1e:89:ab:c5:9b:6b:79:28:0a:2c:d2:57:d8:2f:
         ac:e5:fc:12:50:f6:b8:81:ce:2b:12:fe:14:79:23:1b:ee:64:
         cd:d1:94:3e:26:4c:ea:ae:71:4d:0a:26:5d:e6:dd:25:c5:48:
         60:a5:d9:45:3b:2c:68:f1:7b:c2:d6:5a:3e:4c:e9:9a:a8:ea:
         c6:19:da:84:1d:91:8c:55:9b:7d:87:ee:af:d8:cf:f3:2d:87:
         9c:3e:0d:50:e9:6e:6e:7d:dc:a7:9d:0b:29:62:fd:f0:33:06:
         6e:ee:a4:26:bc:66:36:23:0d:66:d5:71:cd:9e:f1:d7:0a:40:
         0b:5d:8c:54:3f:2c:96:d2:77:7d:c1:be:69:2a:dd:87:03:ff:
         89:61:5a:e0:de:5f:2b:33:98:92:e9:75:0a:30:5f:38:93:bf:
         3d:b6:5a:a1:d4:83:c7:c5:95:98:ce:1c:03:47:c5:0a:a5:85:
         8d:9e:d8:7c:8e:f0:e9:97:8b:a4:78:7a:79:ba:51:01:70:fb:
         e2:3a:cc:5b:38:d1:73:ac:76:0c:f1:e3:4e:a5:21:51:f7:00:
         05:e1:e2:46:65:0f:45:d7:6e:ad:26:eb:3d:2a:82:14:76:a9:
         27:48:9b:a5:e4:5e:55:bf:75:0f:76:de:9f:4d:0b:6f:03:b6:
         2c:a2:85:ee:5c:14:13:c8:68:e4:c9:15:3f:f1:91:f9:0f:c5:
         07:d7:dd:89:ec:fd:ed:cd:b8:67:c2:f9:d3:11:c1:42:5e:f3:
         47:a1:fa:11:aa:03:00:c1:65:bf:bc:6d:db:6f:a3:ad:ec:5e:
         eb:0e:e1:5d:02:6d:df:e8:2a:29:05:35:ec:85:a7:1e:9b:62:
         9c:79:d8:a7:af:27:3e:e4:4a:a5:6c:16:24:a8:39:98:02:98:
         47:af:c9:dd:9d:6e:d1:61:14:ca:78:ea:1d:6f:cd:6a:73:cd:
         9d:66:df:25:7d:ef:fd:f8:90:ee:49:68:fb:c3:4e:d4:c8:59:
         d8:a9:91:c8:71:f4:20:61:4a:8f:f3:a7:78:63:e8:83:d6:35:
         57:c2:ee:4a:fa:1d:96:0f:b5:c4:ee:e3:76:3e:6b:39:8a:45:
         e8:8c:4d:79:be:60:1e:36
-----BEGIN CERTIFICATE-----
MIIGrDCCBJSgAwIBAgICAjUwDQYJKoZIhvcNAQEEBQAwgawxCzAJBgNVBAYTAlVT
MQswCQYDVQQIEwJPSDERMA8GA1UEBxMIQ29sdW1idXMxEjAQBgNVBAoTCVZpa2lu
Z1ZQTjEdMBsGA1UECxMUTXlPcmdhbml6YXRpb25hbFVuaXQxFTATBgNVBAMTDFZp
a2luZ1ZQTiBDQTEQMA4GA1UEKRMHRWFzeVJTQTEhMB8GCSqGSIb3DQEJARYSbWVA
bXlob3N0Lm15ZG9tYWluMB4XDTEzMTIxNDIwMTcwM1oXDTIzMTIxMjIwMTcwM1ow
HjEcMBoGA1UEAxMTQ2xpZW50MjMyQ2VydDgxODkyODCCAiIwDQYJKoZIhvcNAQEB
BQADggIPADCCAgoCggIBAMCRgPE/67NwcpEVfSEIAnXMBtiGsoHWPp61nXDYnmAM
rwhFajt0GRIN/nSr0xP5qYwYJ/P7WJ/P7pmexzI5iJrxulaS33hIkXSpBVWBKBhT
CwwrhJeLlfUK23UnDrzSVUwpbo0XA+dNXXDPGKKT+VkC08ko65Z8hd5uDymDgUjw
bPm6ozjTcZtMMLkQtYSILRes8P/misHfiU6+TVeqbu2jPk1Y+JpTTel6DZWDPBQY
XIqxGz4NXFyfg6u5g8+2wfORFgADlRfbvatJyFzC3BPGsw568kBNKLQH/+Ww+Osu
rzhw3X3ifeK7hD3gRjn+3Xg1QUiCuOk2e7q01GS+p7N7ev5CdcUjQqp2pbljn+Zu
bLsYJ8UYxz4k4NcbQFX9pX6DTjXdZsUFDQECZRD60GN0Mw5byZIZJD1SLon8avsU
QCeD5Y3OE+YjgOuHR9v8YcOWdPyYk9fpNwSDcAaa7Mq/6eTeT1g7o0/H6hiLRRdJ
QuQtQYDcg/gjuIX10fwIWUgs+7CJV+P3maYY/ysaUvowFshfoJ+09lBQ2uJTNQek
w0v+r9S2H+LsLTEDPFYT6Ga0IuEwcEvA6/Uf236OWhbnZ525XaIKFFcUI7/u+xnQ
B/0I+tUXGHw0Zp7wykB8pwyKLpQCVL+KYj5QZ0EJ2sTlZ8QJpJfmvGHGqZDsBNsh
AgMBAAGjggFjMIIBXzAJBgNVHRMEAjAAMC0GCWCGSAGG+EIBDQQgFh5FYXN5LVJT
QSBHZW5lcmF0ZWQgQ2VydGlmaWNhdGUwHQYDVR0OBBYEFLxD9Vat882foDQq1Nkb
zfkn0S7bMIHhBgNVHSMEgdkwgdaAFBLNYATSoICecO3Gmbh7LMZS/RmhoYGypIGv
MIGsMQswCQYDVQQGEwJVUzELMAkGA1UECBMCT0gxETAPBgNVBAcTCENvbHVtYnVz
MRIwEAYDVQQKEwlWaWtpbmdWUE4xHTAbBgNVBAsTFE15T3JnYW5pemF0aW9uYWxV
bml0MRUwEwYDVQQDEwxWaWtpbmdWUE4gQ0ExEDAOBgNVBCkTB0Vhc3lSU0ExITAf
BgkqhkiG9w0BCQEWEm1lQG15aG9zdC5teWRvbWFpboIJAM81he6Avyo+MBMGA1Ud
JQQMMAoGCCsGAQUFBwMCMAsGA1UdDwQEAwIHgDANBgkqhkiG9w0BAQQFAAOCAgEA
Nu9A9jQp2SyFV4leq0q2c18PO4Gbt40hhqDU5+2CNb8H0S2K0UZK2ElbaIGBsL1T
UgL6+BJThWyT72UjZikNW2/Gjc+B+zalIVQQZZi/vunKV5tdwRsVwVGDIRoTAx6J
q8Wba3koCizSV9gvrOX8ElD2uIHOKxL+FHkjG+5kzdGUPiZM6q5xTQomXebdJcVI
YKXZRTssaPF7wtZaPkzpmqjqxhnahB2RjFWbfYfur9jP8y2HnD4NUOlubn3cp50L
KWL98DMGbu6kJrxmNiMNZtVxzZ7x1wpAC12MVD8sltJ3fcG+aSrdhwP/iWFa4N5f
KzOYkul1CjBfOJO/PbZaodSDx8WVmM4cA0fFCqWFjZ7YfI7w6ZeLpHh6ebpRAXD7
4jrMWzjRc6x2DPHjTqUhUfcABeHiRmUPRddurSbrPSqCFHapJ0ibpeReVb91D3be
n00LbwO2LKKF7lwUE8ho5MkVP/GR+Q/FB9fdiez97c24Z8L50xHBQl7zR6H6EaoD
AMFlv7xt22+jrexe6w7hXQJt3+gqKQU17IWnHptinHnYp68nPuRKpWwWJKg5mAKY
R6/J3Z1u0WEUynjqHW/NanPNnWbfJX3v/fiQ7klo+8NO1MhZ2KmRyHH0IGFKj/On
eGPog9Y1V8LuSvodlg+1xO7jdj5rOYpF6IxNeb5gHjY=
-----END CERTIFICATE-----
