Certificate:
    Data:
        Version: 3 (0x2)
        Serial Number: 11687 (0x2da7)
    Signature Algorithm: sha256WithRSAEncryption
        Issuer: C=US, ST=OH, L=Columbus, O=VikingVPN, OU=MyOrganizationalUnit, CN=VikingVPN CA/name=EasyRSA/emailAddress=me@myhost.mydomain
        Validity
            Not Before: Aug 27 10:04:23 2017 GMT
            Not After : Aug 25 10:04:23 2027 GMT
        Subject: CN=Client1702Cert5a1dc8
        Subject Public Key Info:
            Public Key Algorithm: rsaEncryption
                Public-Key: (4096 bit)
                Modulus:
                    00:d7:ed:7e:cd:64:d0:c6:38:d9:47:74:e0:89:29:
                    f0:6b:1b:e9:0f:2c:6e:e0:21:9f:86:15:06:c3:ba:
                    ad:bf:13:37:1f:70:ea:15:4b:c0:22:e2:d8:92:2d:
                    6a:ee:43:0b:3e:54:48:72:56:e4:0c:d4:0c:fd:36:
                    8a:24:f7:c7:ed:87:2f:fd:dd:e7:13:c8:ce:b8:70:
                    0c:04:eb:fc:e5:3a:f7:3e:a6:f1:ff:75:56:ba:be:
                    f4:ef:ee:b3:64:1c:53:84:46:e6:52:c3:2b:a2:26:
                    ae:fd:9a:32:7a:2e:a2:4e:12:99:2b:81:91:fc:f2:
                    ac:8e:d9:2c:51:3e:eb:81:d7:6f:66:26:09:04:29:
                    68:f3:c6:a3:60:2b:5c:bb:a0:b1:64:9c:47:e8:64:
                    79:1f:34:63:d9:c5:f4:10:22:40:43:66:d8:57:82:
                    6c:4a:93:6a:57:cf:4b:bf:26:20:30:c9:87:b5:42:
                    4e:97:49:b1:47:c6:d5:72:8f:fc:7f:58:15:8a:62:
                    ec:da:39:bd:00:98:0e:23:d8:83:a4:77:62:55:ef:
                    89:4f:a2:5c:2d:cf:86:d6:a9:63:08:fe:d1:f3:ea:
                    a4:1c:13:2f:8c:89:0e:96:41:ca:96:42:87:43:23:
                    72:75:54:e7:df:20:dc:e2:a3:3d:03:eb:23:ec:89:
                    3f:ea:1b:01:84:8e:b1:cc:73:7d:49:b7:0e:b5:13:
                    68:b0:9b:19:09:ca:31:3d:1f:79:64:d2:24:4d:77:
                    cf:66:7c:b9:e0:17:3f:22:fc:cc:06:c0:59:52:b3:
                    56:19:7b:70:36:48:b2:33:93:41:0c:63:aa:42:02:
                    7b:8a:2e:b1:14:bc:01:aa:d4:62:04:ba:e3:a5:ac:
                    76:8c:98:58:da:c4:af:8a:f0:e5:f0:c5:48:55:f1:
                    56:74:7c:54:2f:15:99:33:bc:9f:2f:17:96:8f:c7:
                    09:9d:6c:aa:94:96:85:e5:c1:48:ab:d4:df:8b:72:
                    97:4c:e2:e1:22:ef:2f:d0:0c:65:f3:c5:76:05:65:
                    3e:83:79:32:48:f9:80:b8:14:12:ad:4a:52:f3:31:
                    c5:01:98:41:48:ac:95:de:ec:ad:f3:e2:4e:47:76:
                    2e:17:9c:fa:7b:6e:22:b1:ad:42:54:ce:40:b1:26:
                    2c:27:90:ab:e7:37:1a:a6:4c:35:e9:72:23:b5:95:
                    c2:23:2e:14:b8:bd:60:67:f0:e5:89:1b:20:85:34:
                    c3:f2:d7:72:9e:a6:88:c8:c2:42:65:2a:17:2c:8d:
                    75:3e:93:79:9c:16:8c:ea:f2:35:b3:38:78:54:6d:
                    86:66:97:f3:9a:18:01:c8:b3:ba:97:bd:a0:d4:ff:
                    00:49:07
                Exponent: 65537 (0x10001)
        X509v3 extensions:
            X509v3 Basic Constraints: 
                CA:FALSE
            Netscape Comment: 
                Easy-RSA Generated Certificate
            X509v3 Subject Key Identifier: 
                7B:A0:AD:E3:4C:99:66:AF:E9:2D:77:88:50:03:37:E7:12:9D:CF:D6
            X509v3 Authority Key Identifier: 
                keyid:12:CD:60:04:D2:A0:80:9E:70:ED:C6:99:B8:7B:2C:C6:52:FD:19:A1
                DirName:/C=US/ST=OH/L=Columbus/O=VikingVPN/OU=MyOrganizationalUnit/CN=VikingVPN CA/name=EasyRSA/emailAddress=me@myhost.mydomain
                serial:CF:35:85:EE:80:BF:2A:3E

            X509v3 Extended Key Usage: 
                TLS Web Client Authentication
            X509v3 Key Usage: 
                Digital Signature
    Signature Algorithm: sha256WithRSAEncryption
         6f:5a:6d:1a:30:eb:3e:3a:f8:72:f5:ae:40:71:43:ed:e0:68:
         9c:97:40:2d:81:cc:87:a6:0a:b2:6e:c9:50:a9:12:70:8e:84:
         74:06:fc:3e:5c:e6:f1:1b:81:57:8a:e0:bf:72:dd:d3:41:3a:
         44:41:a9:ad:24:a2:85:14:0f:90:c8:b2:ac:1b:0b:8b:2a:0b:
         c0:29:bc:31:2e:e6:2a:eb:cf:4d:20:84:7a:92:1c:72:1c:eb:
         d9:a4:12:f6:8d:e4:41:d1:a8:04:32:c4:c0:bc:07:94:f9:c2:
         fe:b0:c7:ab:68:15:f9:44:35:a3:7c:d1:29:9e:3f:18:38:e8:
         d7:4b:c9:ae:53:6d:49:17:13:9b:44:f3:3d:8e:f9:40:dc:b5:
         08:a3:73:c9:be:17:9d:87:68:72:f3:19:d4:d1:ef:52:d5:d4:
         83:38:d8:fb:b2:ee:96:9f:1f:c4:49:a9:64:d8:14:54:24:b4:
         67:5a:cf:47:e7:8e:b7:a6:56:22:43:e9:e4:72:90:7b:84:db:
         b8:d8:d2:e4:a3:e5:52:91:26:7e:3e:f3:7c:24:26:b2:8f:50:
         be:eb:b2:13:14:8f:86:55:ad:34:59:fe:77:c8:48:de:44:30:
         0c:a7:a2:12:22:55:7f:05:e5:26:9a:9a:0b:68:c2:20:aa:d4:
         cf:95:7c:64:12:11:c4:3c:21:ab:a5:f4:ad:45:b5:7c:d9:28:
         db:fb:46:d6:0f:2a:92:e4:83:eb:6b:8a:52:2c:6b:ce:ac:06:
         d0:27:77:a0:2a:e8:50:b4:fc:74:24:4e:5d:a7:10:82:5b:99:
         49:a0:40:a1:58:e6:88:74:49:7e:25:b9:d4:24:64:47:f4:cf:
         d1:26:35:ac:84:58:7b:d2:6b:54:f1:60:4d:7e:4a:b6:b7:77:
         b6:70:ce:34:7f:da:0d:09:00:28:06:ec:ce:c3:7f:f4:e8:7a:
         e9:6c:bb:00:2d:6e:dc:e4:a2:12:86:e5:cf:6c:2b:0c:73:eb:
         6e:e0:a6:1f:d3:b2:82:91:db:ff:6b:f1:94:02:30:51:e5:a9:
         75:17:19:17:3e:8c:f1:ce:36:89:77:a8:59:14:51:6c:cf:2a:
         62:db:96:57:f7:56:13:e2:ca:8b:9f:38:ad:47:f0:00:19:53:
         ad:3e:56:23:6d:9e:24:85:72:6a:92:e1:1c:b7:7e:81:14:13:
         98:88:43:93:11:e0:b6:ee:08:40:e9:7c:92:73:da:00:97:00:
         66:5e:14:13:c9:5c:42:e7:a3:f1:6e:3d:ef:ae:23:e6:75:73:
         11:98:0b:26:6e:9f:16:13:cf:be:e6:1e:05:c4:7c:fa:c3:89:
         bf:3c:f1:74:a4:01:bd:d2
-----BEGIN CERTIFICATE-----
MIIGrTCCBJWgAwIBAgICLacwDQYJKoZIhvcNAQELBQAwgawxCzAJBgNVBAYTAlVT
MQswCQYDVQQIEwJPSDERMA8GA1UEBxMIQ29sdW1idXMxEjAQBgNVBAoTCVZpa2lu
Z1ZQTjEdMBsGA1UECxMUTXlPcmdhbml6YXRpb25hbFVuaXQxFTATBgNVBAMTDFZp
a2luZ1ZQTiBDQTEQMA4GA1UEKRMHRWFzeVJTQTEhMB8GCSqGSIb3DQEJARYSbWVA
bXlob3N0Lm15ZG9tYWluMB4XDTE3MDgyNzEwMDQyM1oXDTI3MDgyNTEwMDQyM1ow
HzEdMBsGA1UEAxMUQ2xpZW50MTcwMkNlcnQ1YTFkYzgwggIiMA0GCSqGSIb3DQEB
AQUAA4ICDwAwggIKAoICAQDX7X7NZNDGONlHdOCJKfBrG+kPLG7gIZ+GFQbDuq2/
EzcfcOoVS8Ai4tiSLWruQws+VEhyVuQM1Az9Nook98fthy/93ecTyM64cAwE6/zl
Ovc+pvH/dVa6vvTv7rNkHFOERuZSwyuiJq79mjJ6LqJOEpkrgZH88qyO2SxRPuuB
129mJgkEKWjzxqNgK1y7oLFknEfoZHkfNGPZxfQQIkBDZthXgmxKk2pXz0u/JiAw
yYe1Qk6XSbFHxtVyj/x/WBWKYuzaOb0AmA4j2IOkd2JV74lPolwtz4bWqWMI/tHz
6qQcEy+MiQ6WQcqWQodDI3J1VOffINzioz0D6yPsiT/qGwGEjrHMc31Jtw61E2iw
mxkJyjE9H3lk0iRNd89mfLngFz8i/MwGwFlSs1YZe3A2SLIzk0EMY6pCAnuKLrEU
vAGq1GIEuuOlrHaMmFjaxK+K8OXwxUhV8VZ0fFQvFZkzvJ8vF5aPxwmdbKqUloXl
wUir1N+LcpdM4uEi7y/QDGXzxXYFZT6DeTJI+YC4FBKtSlLzMcUBmEFIrJXe7K3z
4k5Hdi4XnPp7biKxrUJUzkCxJiwnkKvnNxqmTDXpciO1lcIjLhS4vWBn8OWJGyCF
NMPy13KepojIwkJlKhcsjXU+k3mcFozq8jWzOHhUbYZml/OaGAHIs7qXvaDU/wBJ
BwIDAQABo4IBYzCCAV8wCQYDVR0TBAIwADAtBglghkgBhvhCAQ0EIBYeRWFzeS1S
U0EgR2VuZXJhdGVkIENlcnRpZmljYXRlMB0GA1UdDgQWBBR7oK3jTJlmr+ktd4hQ
AzfnEp3P1jCB4QYDVR0jBIHZMIHWgBQSzWAE0qCAnnDtxpm4eyzGUv0ZoaGBsqSB
rzCBrDELMAkGA1UEBhMCVVMxCzAJBgNVBAgTAk9IMREwDwYDVQQHEwhDb2x1bWJ1
czESMBAGA1UEChMJVmlraW5nVlBOMR0wGwYDVQQLExRNeU9yZ2FuaXphdGlvbmFs
VW5pdDEVMBMGA1UEAxMMVmlraW5nVlBOIENBMRAwDgYDVQQpEwdFYXN5UlNBMSEw
HwYJKoZIhvcNAQkBFhJtZUBteWhvc3QubXlkb21haW6CCQDPNYXugL8qPjATBgNV
HSUEDDAKBggrBgEFBQcDAjALBgNVHQ8EBAMCB4AwDQYJKoZIhvcNAQELBQADggIB
AG9abRow6z46+HL1rkBxQ+3gaJyXQC2BzIemCrJuyVCpEnCOhHQG/D5c5vEbgVeK
4L9y3dNBOkRBqa0kooUUD5DIsqwbC4sqC8ApvDEu5irrz00ghHqSHHIc69mkEvaN
5EHRqAQyxMC8B5T5wv6wx6toFflENaN80SmePxg46NdLya5TbUkXE5tE8z2O+UDc
tQijc8m+F52HaHLzGdTR71LV1IM42Puy7pafH8RJqWTYFFQktGdaz0fnjremViJD
6eRykHuE27jY0uSj5VKRJn4+83wkJrKPUL7rshMUj4ZVrTRZ/nfISN5EMAynohIi
VX8F5SaamgtowiCq1M+VfGQSEcQ8Iaul9K1FtXzZKNv7RtYPKpLkg+trilIsa86s
BtAnd6Aq6FC0/HQkTl2nEIJbmUmgQKFY5oh0SX4ludQkZEf0z9EmNayEWHvSa1Tx
YE1+Sra3d7ZwzjR/2g0JACgG7M7Df/ToeulsuwAtbtzkohKG5c9sKwxz627gph/T
soKR2/9r8ZQCMFHlqXUXGRc+jPHONol3qFkUUWzPKmLbllf3VhPiyoufOK1H8AAZ
U60+ViNtniSFcmqS4Ry3foEUE5iIQ5MR4LbuCEDpfJJz2gCXAGZeFBPJXELno/Fu
Pe+uI+Z1cxGYCyZunxYTz77mHgXEfPrDib888XSkAb3S
-----END CERTIFICATE-----
