Certificate:
    Data:
        Version: 3 (0x2)
        Serial Number: 9527 (0x2537)
    Signature Algorithm: sha256WithRSAEncryption
        Issuer: C=US, ST=OH, L=Columbus, O=VikingVPN, OU=MyOrganizationalUnit, CN=VikingVPN CA/name=EasyRSA/emailAddress=me@myhost.mydomain
        Validity
            Not Before: Nov 24 14:39:22 2016 GMT
            Not After : Nov 22 14:39:22 2026 GMT
        Subject: CN=Client1802Certf89d99
        Subject Public Key Info:
            Public Key Algorithm: rsaEncryption
                Public-Key: (4096 bit)
                Modulus:
                    00:b0:f2:90:55:4e:26:c1:1b:e7:a2:05:6b:10:24:
                    e4:9c:4b:7a:0a:42:2f:ad:e9:c0:66:b8:82:3e:10:
                    2d:e5:01:62:2e:35:39:a9:e6:8c:7a:36:94:22:ad:
                    8e:aa:5a:b6:34:5f:19:f3:ff:15:9c:96:a6:99:6b:
                    20:60:ed:0a:74:ab:8e:c9:40:35:ba:e1:9c:2b:ee:
                    84:3e:20:ca:dd:5a:d9:45:89:99:3b:6d:29:5d:25:
                    0b:f6:53:b1:ff:66:e3:a5:7f:97:71:c8:41:fe:89:
                    5b:7b:c6:39:9c:46:c6:0e:bc:99:96:04:a8:ce:79:
                    49:19:20:9f:69:8b:73:34:c5:c9:78:42:05:30:4c:
                    12:01:ab:ff:f9:e3:f0:88:04:e0:2a:e5:28:ee:67:
                    12:97:7f:22:f6:b0:c1:51:6c:d6:65:db:36:26:c1:
                    ca:60:4e:56:ce:f1:2d:58:9d:c8:93:2c:33:ae:01:
                    d5:8a:11:d1:87:0c:86:30:5a:7b:5c:ea:85:47:e6:
                    0b:14:eb:37:14:e9:ac:38:1f:03:c2:ae:af:00:54:
                    62:63:30:f9:84:aa:5f:30:f3:85:b1:29:5a:1a:37:
                    35:c5:f1:08:e8:50:87:53:59:42:7e:54:1e:b1:8e:
                    2b:0b:1f:3e:e0:3d:e1:80:bf:be:76:91:5c:3d:1b:
                    04:b4:eb:96:65:8c:c4:1a:b0:cb:97:91:1c:be:ba:
                    d0:1c:29:b1:4f:e1:ab:40:f8:1d:a6:b0:5b:42:bb:
                    83:da:bc:f7:dc:15:3f:f5:82:89:67:c0:22:d3:39:
                    a3:cd:2e:6b:7e:0d:5d:5a:b1:4d:28:8a:38:bf:2f:
                    73:97:08:f6:50:ef:fb:82:7f:ff:f1:6b:36:6a:ce:
                    46:58:97:12:d1:54:9a:37:6d:3c:b8:20:ee:e3:61:
                    44:a9:80:7a:2d:1a:ea:3a:4f:17:19:79:15:fb:0f:
                    11:83:1c:42:19:0e:c7:56:fe:0b:28:25:6a:0b:9e:
                    2e:60:af:b2:32:e6:9c:75:93:a6:8a:10:85:b0:85:
                    bd:ea:f1:9a:28:c2:af:ca:43:32:fd:00:02:7d:74:
                    43:0b:52:2c:9f:fe:ce:5b:29:0d:b7:1b:19:ee:f8:
                    78:43:13:66:24:29:1f:47:a7:55:28:58:ff:1f:66:
                    2f:17:6a:50:a9:9c:e4:53:eb:67:3d:26:5a:c8:26:
                    33:15:e8:bd:32:f3:c2:60:c3:19:9a:e4:3f:d2:b3:
                    51:38:14:a6:75:62:52:f1:ab:49:58:05:ab:0e:29:
                    cf:2d:d7:f5:68:30:0b:14:62:ad:ce:f8:fb:a8:f9:
                    9d:c8:f8:33:37:eb:ff:0f:e9:68:14:3d:47:42:62:
                    5c:fc:15
                Exponent: 65537 (0x10001)
        X509v3 extensions:
            X509v3 Basic Constraints: 
                CA:FALSE
            Netscape Comment: 
                Easy-RSA Generated Certificate
            X509v3 Subject Key Identifier: 
                3F:7F:2A:8F:4E:B8:47:A7:7C:1A:42:62:92:67:82:D0:25:C4:27:BB
            X509v3 Authority Key Identifier: 
                keyid:12:CD:60:04:D2:A0:80:9E:70:ED:C6:99:B8:7B:2C:C6:52:FD:19:A1
                DirName:/C=US/ST=OH/L=Columbus/O=VikingVPN/OU=MyOrganizationalUnit/CN=VikingVPN CA/name=EasyRSA/emailAddress=me@myhost.mydomain
                serial:CF:35:85:EE:80:BF:2A:3E

            X509v3 Extended Key Usage: 
                TLS Web Client Authentication
            X509v3 Key Usage: 
                Digital Signature
    Signature Algorithm: sha256WithRSAEncryption
         89:fe:3b:00:ba:91:a2:10:ee:27:e4:fc:fc:47:93:4a:97:1f:
         db:31:6c:71:37:3b:1a:d9:06:73:9c:cd:58:89:bc:09:b5:0c:
         8b:1f:0c:c2:9a:24:56:08:28:43:58:e1:0d:2c:bb:90:2b:46:
         af:8b:ee:a7:c1:09:23:25:45:4c:10:0b:2c:76:0e:7b:30:42:
         e3:4c:9a:2f:f5:e7:1a:3a:c4:39:bf:29:4a:4c:98:76:79:d2:
         51:ac:bc:f0:3d:e1:43:d8:53:05:8e:95:29:6d:3d:7b:d1:b7:
         90:18:56:a1:fa:eb:2a:10:e5:b4:8f:11:00:df:ff:7b:28:4b:
         40:a7:d4:8a:ff:15:eb:ca:09:0b:29:c8:e0:f3:63:99:3e:db:
         d5:62:5c:b7:61:29:b6:cb:85:52:3a:07:08:e3:00:7a:a6:37:
         40:42:33:e8:47:bb:2f:f2:0a:fd:fa:2b:e1:10:73:49:e4:a1:
         30:17:41:de:b4:2e:19:f3:fe:8f:98:99:cb:42:75:b3:cc:1a:
         0d:fb:5a:3e:d0:38:61:89:66:d1:05:7c:ae:c5:12:e8:e7:cb:
         18:2c:c1:02:b9:19:ae:72:96:c9:6e:cb:0e:53:5f:30:36:88:
         4b:44:cc:fc:1b:8e:7d:12:aa:51:85:a5:37:ea:11:e6:55:9c:
         c3:5c:51:91:5f:51:bf:ab:db:3d:2d:87:4c:be:ab:88:9d:cf:
         16:d4:bb:43:59:74:5a:f3:4a:aa:a9:b2:70:61:3d:d0:cb:e2:
         f2:1a:b8:dc:46:7e:63:e4:49:cd:42:2c:1a:bb:e1:cf:ee:e0:
         77:d9:f8:1d:9d:04:86:fa:8c:a4:ff:7c:0f:2a:77:86:b5:48:
         e4:cc:51:f2:82:d1:7b:36:cf:49:3d:7c:95:4d:ec:7f:9f:3b:
         e1:66:f7:ac:28:36:99:b1:ea:11:6a:29:ed:1a:9d:03:49:5b:
         f7:b1:75:b5:bd:e6:4f:8d:34:42:ea:23:2e:6b:da:9c:77:d3:
         60:da:10:2c:33:9a:1f:0e:f9:87:d6:40:0b:34:f8:8d:f0:26:
         53:74:2d:94:62:3f:6f:7e:0a:3f:bf:bf:61:ac:e9:0f:b2:50:
         9d:ac:ca:20:2a:d0:59:6b:20:54:7b:c4:26:02:fd:90:8d:15:
         d0:ce:7b:37:90:d8:53:9b:c6:a0:33:1d:5c:48:75:f2:10:ed:
         78:56:63:c4:f6:00:1c:1a:6f:41:23:48:45:fa:fc:e4:2e:bd:
         de:f9:7a:61:73:59:2f:30:aa:be:f1:26:bb:99:df:ed:37:62:
         7b:9e:b0:f9:1e:25:34:ce:1b:7b:69:3a:48:93:6f:c1:8c:47:
         61:db:e6:28:8c:1b:ff:c4
-----BEGIN CERTIFICATE-----
MIIGrTCCBJWgAwIBAgICJTcwDQYJKoZIhvcNAQELBQAwgawxCzAJBgNVBAYTAlVT
MQswCQYDVQQIEwJPSDERMA8GA1UEBxMIQ29sdW1idXMxEjAQBgNVBAoTCVZpa2lu
Z1ZQTjEdMBsGA1UECxMUTXlPcmdhbml6YXRpb25hbFVuaXQxFTATBgNVBAMTDFZp
a2luZ1ZQTiBDQTEQMA4GA1UEKRMHRWFzeVJTQTEhMB8GCSqGSIb3DQEJARYSbWVA
bXlob3N0Lm15ZG9tYWluMB4XDTE2MTEyNDE0MzkyMloXDTI2MTEyMjE0MzkyMlow
HzEdMBsGA1UEAxMUQ2xpZW50MTgwMkNlcnRmODlkOTkwggIiMA0GCSqGSIb3DQEB
AQUAA4ICDwAwggIKAoICAQCw8pBVTibBG+eiBWsQJOScS3oKQi+t6cBmuII+EC3l
AWIuNTmp5ox6NpQirY6qWrY0Xxnz/xWclqaZayBg7Qp0q47JQDW64Zwr7oQ+IMrd
WtlFiZk7bSldJQv2U7H/ZuOlf5dxyEH+iVt7xjmcRsYOvJmWBKjOeUkZIJ9pi3M0
xcl4QgUwTBIBq//54/CIBOAq5SjuZxKXfyL2sMFRbNZl2zYmwcpgTlbO8S1YnciT
LDOuAdWKEdGHDIYwWntc6oVH5gsU6zcU6aw4HwPCrq8AVGJjMPmEql8w84WxKVoa
NzXF8QjoUIdTWUJ+VB6xjisLHz7gPeGAv752kVw9GwS065ZljMQasMuXkRy+utAc
KbFP4atA+B2msFtCu4PavPfcFT/1golnwCLTOaPNLmt+DV1asU0oiji/L3OXCPZQ
7/uCf//xazZqzkZYlxLRVJo3bTy4IO7jYUSpgHotGuo6TxcZeRX7DxGDHEIZDsdW
/gsoJWoLni5gr7Iy5px1k6aKEIWwhb3q8Zoowq/KQzL9AAJ9dEMLUiyf/s5bKQ23
Gxnu+HhDE2YkKR9Hp1UoWP8fZi8XalCpnORT62c9JlrIJjMV6L0y88Jgwxma5D/S
s1E4FKZ1YlLxq0lYBasOKc8t1/VoMAsUYq3O+Puo+Z3I+DM36/8P6WgUPUdCYlz8
FQIDAQABo4IBYzCCAV8wCQYDVR0TBAIwADAtBglghkgBhvhCAQ0EIBYeRWFzeS1S
U0EgR2VuZXJhdGVkIENlcnRpZmljYXRlMB0GA1UdDgQWBBQ/fyqPTrhHp3waQmKS
Z4LQJcQnuzCB4QYDVR0jBIHZMIHWgBQSzWAE0qCAnnDtxpm4eyzGUv0ZoaGBsqSB
rzCBrDELMAkGA1UEBhMCVVMxCzAJBgNVBAgTAk9IMREwDwYDVQQHEwhDb2x1bWJ1
czESMBAGA1UEChMJVmlraW5nVlBOMR0wGwYDVQQLExRNeU9yZ2FuaXphdGlvbmFs
VW5pdDEVMBMGA1UEAxMMVmlraW5nVlBOIENBMRAwDgYDVQQpEwdFYXN5UlNBMSEw
HwYJKoZIhvcNAQkBFhJtZUBteWhvc3QubXlkb21haW6CCQDPNYXugL8qPjATBgNV
HSUEDDAKBggrBgEFBQcDAjALBgNVHQ8EBAMCB4AwDQYJKoZIhvcNAQELBQADggIB
AIn+OwC6kaIQ7ifk/PxHk0qXH9sxbHE3OxrZBnOczViJvAm1DIsfDMKaJFYIKENY
4Q0su5ArRq+L7qfBCSMlRUwQCyx2DnswQuNMmi/15xo6xDm/KUpMmHZ50lGsvPA9
4UPYUwWOlSltPXvRt5AYVqH66yoQ5bSPEQDf/3soS0Cn1Ir/FevKCQspyODzY5k+
29ViXLdhKbbLhVI6BwjjAHqmN0BCM+hHuy/yCv36K+EQc0nkoTAXQd60Lhnz/o+Y
mctCdbPMGg37Wj7QOGGJZtEFfK7FEujnyxgswQK5Ga5ylsluyw5TXzA2iEtEzPwb
jn0SqlGFpTfqEeZVnMNcUZFfUb+r2z0th0y+q4idzxbUu0NZdFrzSqqpsnBhPdDL
4vIauNxGfmPkSc1CLBq74c/u4HfZ+B2dBIb6jKT/fA8qd4a1SOTMUfKC0Xs2z0k9
fJVN7H+fO+Fm96woNpmx6hFqKe0anQNJW/exdbW95k+NNELqIy5r2px302DaECwz
mh8O+YfWQAs0+I3wJlN0LZRiP29+Cj+/v2Gs6Q+yUJ2syiAq0FlrIFR7xCYC/ZCN
FdDOezeQ2FObxqAzHVxIdfIQ7XhWY8T2ABwab0EjSEX6/OQuvd75emFzWS8wqr7x
JruZ3+03YnuesPkeJTTOG3tpOkiTb8GMR2Hb5iiMG//E
-----END CERTIFICATE-----
