Certificate:
    Data:
        Version: 3 (0x2)
        Serial Number: 10389 (0x2895)
    Signature Algorithm: sha256WithRSAEncryption
        Issuer: C=US, ST=OH, L=Columbus, O=VikingVPN, OU=MyOrganizationalUnit, CN=VikingVPN CA/name=EasyRSA/emailAddress=me@myhost.mydomain
        Validity
            Not Before: Mar 27 00:17:41 2017 GMT
            Not After : Mar 25 00:17:41 2027 GMT
        Subject: CN=Client2797Cert358a45
        Subject Public Key Info:
            Public Key Algorithm: rsaEncryption
                Public-Key: (4096 bit)
                Modulus:
                    00:c0:74:05:65:1e:cf:4b:50:6d:b3:61:06:7b:26:
                    dd:b6:7c:8a:52:13:ed:b6:df:ad:33:e4:38:3a:d1:
                    ef:05:9d:18:8c:f3:c7:2d:cf:09:d6:71:c1:c1:af:
                    2c:91:e2:42:d9:bc:23:30:00:94:f5:30:c8:ad:7d:
                    ec:e3:c0:a7:23:fa:66:60:83:c5:50:bf:cf:2c:55:
                    ab:59:ef:eb:67:84:94:c5:9d:80:c5:63:1a:fa:74:
                    45:bf:9d:9b:0e:42:20:1f:7e:4d:65:4a:cc:34:53:
                    c7:92:37:fe:ad:e6:ce:b4:d7:58:f4:79:3d:27:46:
                    a6:0a:aa:5b:04:35:28:51:aa:5a:d8:2f:01:72:d9:
                    9b:1d:3c:4c:63:85:87:8b:b3:b0:bc:fd:65:96:73:
                    e6:9a:ee:ea:a8:d7:a2:5f:f5:e7:3d:d7:39:7b:2c:
                    66:44:5f:1b:ae:11:7a:a3:bd:01:b4:b8:2b:a1:a1:
                    60:93:df:e6:d5:61:f2:dd:1b:2d:6e:1f:7b:ad:cc:
                    de:fd:cd:31:4c:7d:36:9a:ff:2f:57:8b:00:9f:82:
                    db:89:f5:b0:eb:4a:d3:09:30:75:1e:a3:33:c8:7b:
                    ca:cb:5d:5d:f3:4f:c7:92:cd:95:38:5e:a9:1c:f3:
                    66:fd:e4:88:74:9d:cf:dd:9c:f4:76:39:79:2f:52:
                    fc:1e:80:a7:c1:7a:c7:af:46:45:30:9f:2a:50:29:
                    8d:7b:69:ba:f9:4a:f2:da:53:72:86:88:76:71:a6:
                    32:4f:23:aa:3a:6e:90:ca:59:73:0d:b5:d8:01:06:
                    3e:1c:f1:c1:3b:c3:a3:41:2e:4d:bc:78:f8:28:78:
                    d8:81:95:58:fe:34:59:dc:1f:8d:9e:14:1d:52:35:
                    37:93:1c:01:1c:d9:fa:cc:a7:d9:a2:62:48:71:84:
                    f7:aa:b2:ef:68:62:8b:4a:28:f9:89:81:dc:79:67:
                    c2:db:3e:f3:bd:ab:17:e3:9d:4c:33:05:6f:30:2c:
                    27:29:80:0a:9d:ac:fd:db:14:7c:1b:01:11:17:7c:
                    63:a6:3e:24:ef:f8:3b:a7:39:52:01:4e:25:8e:1a:
                    5c:47:77:68:13:1b:a9:28:2f:23:65:d5:35:a1:c6:
                    76:ef:51:8a:02:e2:99:4b:ff:1e:a6:f3:ae:0b:02:
                    fa:97:fe:1d:80:da:28:57:fb:2a:39:8a:c0:00:f6:
                    77:7b:db:73:55:b3:21:47:77:60:a7:5b:0a:36:3d:
                    bd:7f:d8:04:e7:2b:4b:f1:fc:87:3e:9b:52:9c:88:
                    8c:c8:7e:92:74:08:50:70:f9:11:67:6c:21:69:27:
                    e1:87:0b:b2:e1:16:b7:10:9d:9e:89:d6:0a:69:09:
                    56:79:39
                Exponent: 65537 (0x10001)
        X509v3 extensions:
            X509v3 Basic Constraints: 
                CA:FALSE
            Netscape Comment: 
                Easy-RSA Generated Certificate
            X509v3 Subject Key Identifier: 
                FC:61:92:29:C7:25:15:76:E6:A2:2F:41:A8:B8:10:FF:63:5D:57:B0
            X509v3 Authority Key Identifier: 
                keyid:12:CD:60:04:D2:A0:80:9E:70:ED:C6:99:B8:7B:2C:C6:52:FD:19:A1
                DirName:/C=US/ST=OH/L=Columbus/O=VikingVPN/OU=MyOrganizationalUnit/CN=VikingVPN CA/name=EasyRSA/emailAddress=me@myhost.mydomain
                serial:CF:35:85:EE:80:BF:2A:3E

            X509v3 Extended Key Usage: 
                TLS Web Client Authentication
            X509v3 Key Usage: 
                Digital Signature
    Signature Algorithm: sha256WithRSAEncryption
         5c:ba:64:7c:32:ab:8c:8f:7c:c9:f6:7d:61:24:34:f4:0d:68:
         d9:0a:9c:c7:22:91:b5:6f:73:45:ab:a7:59:d3:0d:b1:5b:56:
         2a:2a:07:3b:ef:f4:1a:7b:07:3f:d4:7b:26:1f:47:5c:00:6d:
         cf:ad:e7:74:e4:b0:39:be:c4:0f:d6:53:a4:a1:a6:e3:a8:6d:
         09:f0:c3:66:39:f7:03:2d:93:fb:aa:b7:6d:41:1e:7f:9f:e6:
         f5:9b:7c:c0:6f:88:39:41:16:d0:46:a9:53:7b:63:71:77:1d:
         53:e6:98:9b:3c:4f:58:a9:56:b0:9c:17:9d:04:d6:b8:1e:4f:
         77:3e:74:a4:06:88:2a:b9:b2:47:05:fd:e8:68:38:16:63:e4:
         43:31:a9:a3:be:88:92:87:ad:2a:b9:e2:9b:a4:5b:ae:61:6a:
         f0:11:0f:70:68:2b:a4:9e:22:1e:b6:db:4a:10:5c:c5:61:cf:
         53:63:a4:2e:90:03:81:ad:7d:32:c6:01:d2:ce:ac:06:b8:e3:
         4d:1f:fd:89:0b:f0:e2:a8:15:01:60:88:fd:04:df:27:8a:2f:
         de:75:56:f7:e0:2c:c9:7e:7e:e9:09:14:f3:29:63:c1:5b:fc:
         28:b7:66:55:9f:0f:8b:0d:78:04:5a:91:54:8c:d2:9c:23:fe:
         de:45:32:7c:95:b3:85:6a:d3:dd:60:cc:42:b0:2b:25:6a:c3:
         3a:03:b3:cb:03:11:04:55:2d:a0:43:dc:27:fc:8d:45:47:68:
         20:fb:b4:13:d0:e2:cc:74:97:69:98:f5:d1:a4:3c:eb:71:ec:
         ab:a7:be:b9:f5:4b:c7:07:bb:45:dc:99:2d:a5:a2:7c:a6:47:
         2b:76:b5:88:05:7c:94:3b:c2:12:ac:55:85:a3:35:5b:3a:db:
         b3:e1:32:50:d7:eb:5b:a1:5c:c2:49:21:63:eb:c2:96:c0:77:
         26:95:9c:8d:97:21:ed:be:cf:c6:64:d9:90:b8:ac:25:54:a5:
         53:14:e1:c0:4f:5a:37:00:0d:69:d1:cb:ef:2c:76:0b:ae:0f:
         09:1e:3c:03:b5:5a:bd:35:02:7f:25:c0:86:13:ea:69:47:a8:
         bf:0f:55:be:f5:77:fe:9e:ca:8f:10:27:94:3c:f8:45:5b:50:
         32:f6:65:fc:43:30:25:dc:3f:18:09:2e:de:94:2e:13:06:96:
         6a:15:b6:9c:de:ed:91:01:34:c8:c3:3c:cf:28:e4:41:bf:d8:
         03:8d:04:a4:69:8f:8a:6e:72:31:4b:dc:bf:0b:e5:4b:a0:e2:
         b2:5f:df:f1:62:92:68:15:d9:f3:35:40:5a:08:8b:7c:f6:d3:
         e7:c0:f9:90:ac:e8:34:2d
-----BEGIN CERTIFICATE-----
MIIGrTCCBJWgAwIBAgICKJUwDQYJKoZIhvcNAQELBQAwgawxCzAJBgNVBAYTAlVT
MQswCQYDVQQIEwJPSDERMA8GA1UEBxMIQ29sdW1idXMxEjAQBgNVBAoTCVZpa2lu
Z1ZQTjEdMBsGA1UECxMUTXlPcmdhbml6YXRpb25hbFVuaXQxFTATBgNVBAMTDFZp
a2luZ1ZQTiBDQTEQMA4GA1UEKRMHRWFzeVJTQTEhMB8GCSqGSIb3DQEJARYSbWVA
bXlob3N0Lm15ZG9tYWluMB4XDTE3MDMyNzAwMTc0MVoXDTI3MDMyNTAwMTc0MVow
HzEdMBsGA1UEAxMUQ2xpZW50Mjc5N0NlcnQzNThhNDUwggIiMA0GCSqGSIb3DQEB
AQUAA4ICDwAwggIKAoICAQDAdAVlHs9LUG2zYQZ7Jt22fIpSE+22360z5Dg60e8F
nRiM88ctzwnWccHBryyR4kLZvCMwAJT1MMitfezjwKcj+mZgg8VQv88sVatZ7+tn
hJTFnYDFYxr6dEW/nZsOQiAffk1lSsw0U8eSN/6t5s6011j0eT0nRqYKqlsENShR
qlrYLwFy2ZsdPExjhYeLs7C8/WWWc+aa7uqo16Jf9ec91zl7LGZEXxuuEXqjvQG0
uCuhoWCT3+bVYfLdGy1uH3utzN79zTFMfTaa/y9XiwCfgtuJ9bDrStMJMHUeozPI
e8rLXV3zT8eSzZU4Xqkc82b95Ih0nc/dnPR2OXkvUvwegKfBesevRkUwnypQKY17
abr5SvLaU3KGiHZxpjJPI6o6bpDKWXMNtdgBBj4c8cE7w6NBLk28ePgoeNiBlVj+
NFncH42eFB1SNTeTHAEc2frMp9miYkhxhPeqsu9oYotKKPmJgdx5Z8LbPvO9qxfj
nUwzBW8wLCcpgAqdrP3bFHwbAREXfGOmPiTv+DunOVIBTiWOGlxHd2gTG6koLyNl
1TWhxnbvUYoC4plL/x6m864LAvqX/h2A2ihX+yo5isAA9nd723NVsyFHd2CnWwo2
Pb1/2ATnK0vx/Ic+m1KciIzIfpJ0CFBw+RFnbCFpJ+GHC7LhFrcQnZ6J1gppCVZ5
OQIDAQABo4IBYzCCAV8wCQYDVR0TBAIwADAtBglghkgBhvhCAQ0EIBYeRWFzeS1S
U0EgR2VuZXJhdGVkIENlcnRpZmljYXRlMB0GA1UdDgQWBBT8YZIpxyUVduaiL0Go
uBD/Y11XsDCB4QYDVR0jBIHZMIHWgBQSzWAE0qCAnnDtxpm4eyzGUv0ZoaGBsqSB
rzCBrDELMAkGA1UEBhMCVVMxCzAJBgNVBAgTAk9IMREwDwYDVQQHEwhDb2x1bWJ1
czESMBAGA1UEChMJVmlraW5nVlBOMR0wGwYDVQQLExRNeU9yZ2FuaXphdGlvbmFs
VW5pdDEVMBMGA1UEAxMMVmlraW5nVlBOIENBMRAwDgYDVQQpEwdFYXN5UlNBMSEw
HwYJKoZIhvcNAQkBFhJtZUBteWhvc3QubXlkb21haW6CCQDPNYXugL8qPjATBgNV
HSUEDDAKBggrBgEFBQcDAjALBgNVHQ8EBAMCB4AwDQYJKoZIhvcNAQELBQADggIB
AFy6ZHwyq4yPfMn2fWEkNPQNaNkKnMcikbVvc0Wrp1nTDbFbVioqBzvv9Bp7Bz/U
eyYfR1wAbc+t53TksDm+xA/WU6ShpuOobQnww2Y59wMtk/uqt21BHn+f5vWbfMBv
iDlBFtBGqVN7Y3F3HVPmmJs8T1ipVrCcF50E1rgeT3c+dKQGiCq5skcF/ehoOBZj
5EMxqaO+iJKHrSq54pukW65havARD3BoK6SeIh6220oQXMVhz1NjpC6QA4GtfTLG
AdLOrAa4400f/YkL8OKoFQFgiP0E3yeKL951VvfgLMl+fukJFPMpY8Fb/Ci3ZlWf
D4sNeARakVSM0pwj/t5FMnyVs4Vq091gzEKwKyVqwzoDs8sDEQRVLaBD3Cf8jUVH
aCD7tBPQ4sx0l2mY9dGkPOtx7Kunvrn1S8cHu0XcmS2lonymRyt2tYgFfJQ7whKs
VYWjNVs627PhMlDX61uhXMJJIWPrwpbAdyaVnI2XIe2+z8Zk2ZC4rCVUpVMU4cBP
WjcADWnRy+8sdguuDwkePAO1Wr01An8lwIYT6mlHqL8PVb71d/6eyo8QJ5Q8+EVb
UDL2ZfxDMCXcPxgJLt6ULhMGlmoVtpze7ZEBNMjDPM8o5EG/2AONBKRpj4pucjFL
3L8L5Uug4rJf3/FikmgV2fM1QFoIi3z20+fA+ZCs6DQt
-----END CERTIFICATE-----
