Certificate:
    Data:
        Version: 3 (0x2)
        Serial Number: 11254 (0x2bf6)
    Signature Algorithm: sha256WithRSAEncryption
        Issuer: C=US, ST=OH, L=Columbus, O=VikingVPN, OU=MyOrganizationalUnit, CN=VikingVPN CA/name=EasyRSA/emailAddress=me@myhost.mydomain
        Validity
            Not Before: Jul  6 15:43:54 2017 GMT
            Not After : Jul  4 15:43:54 2027 GMT
        Subject: CN=Client2984Cert3d43cd
        Subject Public Key Info:
            Public Key Algorithm: rsaEncryption
                Public-Key: (4096 bit)
                Modulus:
                    00:bf:7d:f3:5c:77:a0:76:b7:93:88:86:66:2b:b6:
                    36:18:ea:e5:23:ae:3c:6c:0f:3a:5d:03:c5:04:bf:
                    f4:ac:43:8c:d3:ff:70:22:a6:d3:47:4d:ed:0f:35:
                    e1:4d:5a:45:7e:a6:be:3f:fb:0a:01:01:19:ff:36:
                    13:72:7a:0f:3c:00:8d:b9:22:03:a9:3f:b0:17:34:
                    16:e8:5d:4c:eb:90:c0:6e:97:37:90:96:f2:20:44:
                    68:2c:2a:49:9b:0b:99:9b:73:38:7d:6d:15:af:99:
                    95:d5:b0:b7:2d:c0:bc:18:cb:0c:50:eb:84:c5:74:
                    a3:56:70:59:04:2f:31:a4:00:e7:78:52:ae:4d:a5:
                    94:2e:a9:ff:28:06:8e:ea:94:92:89:58:35:99:cd:
                    24:05:47:29:79:5f:24:cc:69:49:25:0e:07:39:ee:
                    b0:a8:68:01:0f:e3:02:01:8b:fb:7f:78:10:ec:45:
                    6c:50:82:bc:41:8a:9e:1c:8a:36:60:35:1a:41:62:
                    f3:1c:2a:14:3b:6e:2a:6e:05:8b:b7:03:84:b4:1f:
                    c0:75:c7:71:9d:d3:07:af:bb:56:3f:07:4a:6a:53:
                    80:31:b4:94:fb:ae:97:ac:34:af:0c:fc:e2:b2:3e:
                    e5:03:2c:5e:fc:e8:87:59:2a:73:8a:a9:a0:e7:f4:
                    f0:b6:17:53:bc:30:94:6f:ff:c5:40:57:bc:7a:47:
                    aa:75:73:ff:07:0d:4a:bc:75:23:cc:bc:74:60:ed:
                    cd:e6:43:6b:3b:4a:7f:80:10:1c:72:af:cd:e3:f6:
                    17:1d:17:68:2f:30:89:bf:7b:88:f6:ae:21:d6:65:
                    ee:51:d8:ac:45:45:cd:91:90:84:5a:08:9c:c0:fc:
                    aa:1b:fe:f9:24:3c:38:da:25:ae:47:ac:6e:b5:26:
                    44:df:e0:48:77:9d:ed:cc:39:f6:8f:75:9d:90:cc:
                    b2:2c:86:48:61:7a:8b:ab:ca:3f:c0:d4:63:f9:07:
                    71:9f:6c:d0:7c:23:32:3a:e0:85:bc:8e:d3:0a:66:
                    4b:46:8f:9c:9e:c6:f3:6a:00:92:b5:6a:00:03:c8:
                    74:46:74:f2:74:39:45:1c:c5:39:c2:bc:94:68:93:
                    70:d2:65:61:b5:07:63:c0:d9:d5:78:a1:b5:0a:21:
                    38:76:4d:8a:05:31:7b:b8:3c:fd:1c:de:c7:7c:21:
                    70:1e:12:63:61:35:ec:1c:f1:3a:17:1c:79:38:f2:
                    92:a2:db:fe:23:e3:39:ea:fc:60:b4:29:af:2a:bc:
                    e5:da:9a:06:e6:70:6c:28:df:bc:69:89:47:a8:d9:
                    fc:e1:44:41:09:ca:98:b3:b4:61:4e:af:b4:ce:1e:
                    5d:a5:23
                Exponent: 65537 (0x10001)
        X509v3 extensions:
            X509v3 Basic Constraints: 
                CA:FALSE
            Netscape Comment: 
                Easy-RSA Generated Certificate
            X509v3 Subject Key Identifier: 
                A5:92:85:C3:FC:26:0F:52:F5:2E:EE:A9:E8:05:63:47:88:E9:E2:7C
            X509v3 Authority Key Identifier: 
                keyid:12:CD:60:04:D2:A0:80:9E:70:ED:C6:99:B8:7B:2C:C6:52:FD:19:A1
                DirName:/C=US/ST=OH/L=Columbus/O=VikingVPN/OU=MyOrganizationalUnit/CN=VikingVPN CA/name=EasyRSA/emailAddress=me@myhost.mydomain
                serial:CF:35:85:EE:80:BF:2A:3E

            X509v3 Extended Key Usage: 
                TLS Web Client Authentication
            X509v3 Key Usage: 
                Digital Signature
    Signature Algorithm: sha256WithRSAEncryption
         a7:f0:28:9b:60:bf:4e:f8:14:86:29:1d:87:32:06:3f:fd:72:
         ef:c6:7d:5a:10:46:91:bb:5b:81:b5:8a:5f:64:d9:f5:58:d6:
         ff:18:fb:7a:ca:2b:f6:32:3f:e2:d6:e8:6a:55:64:c5:0b:c4:
         58:3d:a1:75:90:66:17:f2:3e:ff:62:e5:19:d5:a5:ab:94:fb:
         6e:ed:47:3e:aa:37:67:5c:ad:56:84:88:59:bb:2b:11:bc:92:
         dc:a7:97:60:64:66:0f:89:32:9d:5c:8d:98:fe:bf:b4:8b:43:
         d0:73:c5:5a:1d:d9:32:7f:14:a4:d0:01:8e:68:8b:0b:21:2d:
         f8:3e:49:b4:79:e4:9e:5a:75:db:54:cb:de:36:68:fe:da:3c:
         85:45:f4:5f:dc:35:cf:a2:7b:15:d4:48:df:2d:aa:59:90:9b:
         d6:6c:14:98:b1:a4:e1:c9:37:a8:39:b8:68:4a:af:80:26:0b:
         21:79:a4:0c:d9:26:0d:64:90:36:70:22:54:58:81:15:66:6a:
         e2:b7:46:07:63:1e:f7:59:f7:ef:93:2a:66:b8:70:7a:2a:7a:
         09:83:5a:b3:80:e4:a7:e4:eb:cb:c6:59:dd:cc:fd:9a:1b:72:
         eb:57:fb:f9:47:29:83:91:82:57:e2:84:2d:66:db:fd:be:68:
         6d:9b:dc:a7:90:c7:7b:fa:b9:3b:cf:b2:a0:68:0e:f2:e0:fb:
         96:bd:2f:b1:4d:38:ad:71:96:e9:7b:c9:1e:ef:15:bc:55:41:
         e6:1d:10:c3:8d:d7:11:8a:65:34:8f:b1:2f:06:44:1c:5e:0d:
         71:48:ca:b7:02:6f:a3:70:38:d2:2e:a3:54:03:46:46:97:25:
         60:42:f6:16:15:ad:4c:86:08:58:e3:b4:8e:ff:b0:d6:1f:fb:
         73:16:24:3b:6a:64:6b:6d:6f:a5:9a:f7:82:c4:a1:fa:c3:20:
         8d:a7:5b:b6:67:f0:ba:6e:eb:ee:83:41:a2:46:b0:52:e6:0f:
         27:14:1b:96:b1:9c:f3:08:c6:42:c0:63:62:2d:52:30:1f:0f:
         e4:f2:a3:b6:21:b3:55:6a:41:cf:df:86:a2:6a:38:dc:8b:81:
         12:72:09:6a:99:ba:1b:89:4c:26:99:40:b7:b0:08:e8:22:43:
         86:b3:18:fb:b7:c0:8a:52:4b:41:da:88:f5:01:24:d5:ab:02:
         32:f8:5a:be:df:90:82:4f:9c:83:fe:0c:67:21:2b:79:64:e1:
         32:ac:16:fe:12:49:24:f0:9c:ac:bc:f0:7c:4a:39:ea:2f:62:
         37:99:39:31:6a:e2:40:20:f1:b3:94:04:f3:39:07:46:34:5b:
         ae:5d:1f:56:c3:14:a3:bf
-----BEGIN CERTIFICATE-----
MIIGrTCCBJWgAwIBAgICK/YwDQYJKoZIhvcNAQELBQAwgawxCzAJBgNVBAYTAlVT
MQswCQYDVQQIEwJPSDERMA8GA1UEBxMIQ29sdW1idXMxEjAQBgNVBAoTCVZpa2lu
Z1ZQTjEdMBsGA1UECxMUTXlPcmdhbml6YXRpb25hbFVuaXQxFTATBgNVBAMTDFZp
a2luZ1ZQTiBDQTEQMA4GA1UEKRMHRWFzeVJTQTEhMB8GCSqGSIb3DQEJARYSbWVA
bXlob3N0Lm15ZG9tYWluMB4XDTE3MDcwNjE1NDM1NFoXDTI3MDcwNDE1NDM1NFow
HzEdMBsGA1UEAxMUQ2xpZW50Mjk4NENlcnQzZDQzY2QwggIiMA0GCSqGSIb3DQEB
AQUAA4ICDwAwggIKAoICAQC/ffNcd6B2t5OIhmYrtjYY6uUjrjxsDzpdA8UEv/Ss
Q4zT/3AiptNHTe0PNeFNWkV+pr4/+woBARn/NhNyeg88AI25IgOpP7AXNBboXUzr
kMBulzeQlvIgRGgsKkmbC5mbczh9bRWvmZXVsLctwLwYywxQ64TFdKNWcFkELzGk
AOd4Uq5NpZQuqf8oBo7qlJKJWDWZzSQFRyl5XyTMaUklDgc57rCoaAEP4wIBi/t/
eBDsRWxQgrxBip4cijZgNRpBYvMcKhQ7bipuBYu3A4S0H8B1x3Gd0wevu1Y/B0pq
U4AxtJT7rpesNK8M/OKyPuUDLF786IdZKnOKqaDn9PC2F1O8MJRv/8VAV7x6R6p1
c/8HDUq8dSPMvHRg7c3mQ2s7Sn+AEBxyr83j9hcdF2gvMIm/e4j2riHWZe5R2KxF
Rc2RkIRaCJzA/Kob/vkkPDjaJa5HrG61JkTf4Eh3ne3MOfaPdZ2QzLIshkhheour
yj/A1GP5B3GfbNB8IzI64IW8jtMKZktGj5yexvNqAJK1agADyHRGdPJ0OUUcxTnC
vJRok3DSZWG1B2PA2dV4obUKITh2TYoFMXu4PP0c3sd8IXAeEmNhNewc8ToXHHk4
8pKi2/4j4znq/GC0Ka8qvOXamgbmcGwo37xpiUeo2fzhREEJypiztGFOr7TOHl2l
IwIDAQABo4IBYzCCAV8wCQYDVR0TBAIwADAtBglghkgBhvhCAQ0EIBYeRWFzeS1S
U0EgR2VuZXJhdGVkIENlcnRpZmljYXRlMB0GA1UdDgQWBBSlkoXD/CYPUvUu7qno
BWNHiOnifDCB4QYDVR0jBIHZMIHWgBQSzWAE0qCAnnDtxpm4eyzGUv0ZoaGBsqSB
rzCBrDELMAkGA1UEBhMCVVMxCzAJBgNVBAgTAk9IMREwDwYDVQQHEwhDb2x1bWJ1
czESMBAGA1UEChMJVmlraW5nVlBOMR0wGwYDVQQLExRNeU9yZ2FuaXphdGlvbmFs
VW5pdDEVMBMGA1UEAxMMVmlraW5nVlBOIENBMRAwDgYDVQQpEwdFYXN5UlNBMSEw
HwYJKoZIhvcNAQkBFhJtZUBteWhvc3QubXlkb21haW6CCQDPNYXugL8qPjATBgNV
HSUEDDAKBggrBgEFBQcDAjALBgNVHQ8EBAMCB4AwDQYJKoZIhvcNAQELBQADggIB
AKfwKJtgv074FIYpHYcyBj/9cu/GfVoQRpG7W4G1il9k2fVY1v8Y+3rKK/YyP+LW
6GpVZMULxFg9oXWQZhfyPv9i5RnVpauU+27tRz6qN2dcrVaEiFm7KxG8ktynl2Bk
Zg+JMp1cjZj+v7SLQ9BzxVod2TJ/FKTQAY5oiwshLfg+SbR55J5addtUy942aP7a
PIVF9F/cNc+iexXUSN8tqlmQm9ZsFJixpOHJN6g5uGhKr4AmCyF5pAzZJg1kkDZw
IlRYgRVmauK3RgdjHvdZ9++TKma4cHoqegmDWrOA5Kfk68vGWd3M/ZobcutX+/lH
KYORglfihC1m2/2+aG2b3KeQx3v6uTvPsqBoDvLg+5a9L7FNOK1xlul7yR7vFbxV
QeYdEMON1xGKZTSPsS8GRBxeDXFIyrcCb6NwONIuo1QDRkaXJWBC9hYVrUyGCFjj
tI7/sNYf+3MWJDtqZGttb6Wa94LEofrDII2nW7Zn8Lpu6+6DQaJGsFLmDycUG5ax
nPMIxkLAY2ItUjAfD+Tyo7Yhs1VqQc/fhqJqONyLgRJyCWqZuhuJTCaZQLewCOgi
Q4azGPu3wIpSS0HaiPUBJNWrAjL4Wr7fkIJPnIP+DGchK3lk4TKsFv4SSSTwnKy8
8HxKOeovYjeZOTFq4kAg8bOUBPM5B0Y0W65dH1bDFKO/
-----END CERTIFICATE-----
