Certificate:
    Data:
        Version: 3 (0x2)
        Serial Number: 4485 (0x1185)
    Signature Algorithm: md5WithRSAEncryption
        Issuer: C=US, ST=OH, L=Columbus, O=VikingVPN, OU=MyOrganizationalUnit, CN=VikingVPN CA/name=EasyRSA/emailAddress=me@myhost.mydomain
        Validity
            Not Before: Feb 16 18:02:03 2015 GMT
            Not After : Feb 13 18:02:03 2025 GMT
        Subject: CN=Client1457Certcd0dd2
        Subject Public Key Info:
            Public Key Algorithm: rsaEncryption
                Public-Key: (4096 bit)
                Modulus:
                    00:d0:a2:11:f1:2e:66:8a:db:40:f6:c4:05:73:f8:
                    e8:d1:f8:0f:d8:d4:02:33:0b:69:24:0e:49:23:f2:
                    ff:78:9c:c7:94:fd:c5:32:ba:f5:5f:3c:c3:b9:65:
                    f0:b1:71:f6:2f:a5:ad:f6:bd:25:b1:ed:9a:90:eb:
                    be:b5:d5:f0:e7:0c:d1:f2:7b:d8:80:38:25:1e:f9:
                    b2:fb:b4:1a:58:9b:f2:db:2d:71:97:02:42:70:83:
                    b8:2b:60:d3:e2:a8:04:5e:94:ba:72:0c:c1:fc:59:
                    df:a0:2c:7f:78:c7:11:71:1d:ad:87:10:7a:1b:64:
                    48:bd:fe:78:ba:f6:7d:f4:d8:17:b0:cc:b7:60:b7:
                    d0:8b:b6:e9:57:cd:ce:e2:7f:a2:83:1a:c1:87:49:
                    77:2c:a0:55:83:bb:75:70:d1:f0:14:23:db:9c:fc:
                    01:73:96:ac:9a:75:ef:59:69:0a:66:85:2a:1c:11:
                    2f:26:0f:88:10:1a:8c:cf:3e:4a:02:24:02:dd:4c:
                    bd:02:b6:35:ad:da:ac:7f:a0:b8:22:9f:e9:db:ca:
                    71:7d:aa:80:d9:d2:ce:a9:30:04:a6:22:02:32:5d:
                    2b:db:d3:5c:a2:34:1d:5a:10:f7:df:d5:8d:ef:1c:
                    73:f2:df:21:95:91:09:67:ab:6b:ec:82:22:99:78:
                    51:f0:b3:2b:1e:75:88:37:2f:80:a2:ef:d6:06:ee:
                    a6:39:e2:cf:33:ce:84:bd:71:b7:65:45:ea:38:e8:
                    94:42:ea:bd:e7:33:f0:38:ba:7d:1a:55:e4:53:b7:
                    71:0d:f8:f7:48:e5:4d:13:d5:0e:36:89:27:b8:57:
                    ea:c7:7e:de:f1:4e:00:b6:0c:4f:b6:59:cc:7c:25:
                    e7:50:0d:73:7c:33:c7:41:84:c4:1c:ee:23:f1:9f:
                    7a:51:1b:5d:7b:b0:40:0b:53:af:d8:f1:d7:0d:31:
                    c6:6c:37:72:d3:0c:d0:91:b0:94:61:be:b9:ff:a0:
                    45:69:a4:51:a0:3c:be:f3:d9:e9:d2:e0:49:16:74:
                    c6:f7:ad:6a:a3:ee:18:bf:21:a2:fb:58:e6:37:21:
                    49:48:9b:64:db:26:c6:d8:c6:c2:c1:6e:80:f0:cd:
                    d7:5e:bb:69:13:b1:1e:34:49:4a:47:6a:76:74:c9:
                    b2:57:60:da:84:62:5b:db:bc:3b:84:b0:a3:de:0a:
                    e5:99:da:e8:fb:84:a7:a0:89:fb:ae:a0:b2:13:2a:
                    cb:bc:3f:e0:16:c3:9a:21:7b:48:b1:1a:6f:e1:fe:
                    88:77:3d:83:4b:6a:3b:1d:50:39:60:4d:47:1d:2b:
                    18:a2:07:2d:84:3d:ee:a4:ad:8c:66:fa:4b:e9:1c:
                    b8:9b:d3
                Exponent: 65537 (0x10001)
        X509v3 extensions:
            X509v3 Basic Constraints: 
                CA:FALSE
            Netscape Comment: 
                Easy-RSA Generated Certificate
            X509v3 Subject Key Identifier: 
                56:27:7B:63:DE:A1:32:98:C0:01:39:5D:C7:0E:B2:83:96:7C:46:6F
            X509v3 Authority Key Identifier: 
                keyid:12:CD:60:04:D2:A0:80:9E:70:ED:C6:99:B8:7B:2C:C6:52:FD:19:A1
                DirName:/C=US/ST=OH/L=Columbus/O=VikingVPN/OU=MyOrganizationalUnit/CN=VikingVPN CA/name=EasyRSA/emailAddress=me@myhost.mydomain
                serial:CF:35:85:EE:80:BF:2A:3E

            X509v3 Extended Key Usage: 
                TLS Web Client Authentication
            X509v3 Key Usage: 
                Digital Signature
    Signature Algorithm: md5WithRSAEncryption
         00:fb:1b:a2:10:40:6a:3d:f9:ac:8d:d0:47:7f:a4:56:94:15:
         b9:83:ce:54:fd:58:1f:de:31:61:84:c5:69:64:bf:23:9c:a0:
         24:78:3d:12:5c:9c:d5:6e:b4:b0:b3:0a:03:35:1e:6d:fa:e8:
         39:ce:80:e1:21:53:2b:c4:22:ff:dc:45:52:73:b2:f2:00:2c:
         24:6d:8a:9f:49:5b:3e:1f:cf:05:aa:14:9d:2a:07:6b:41:e6:
         59:40:9b:6e:de:10:80:1f:e2:0a:a5:28:6e:f5:ad:74:fc:de:
         c7:c8:92:7e:d0:b2:e7:1c:02:90:be:a9:23:3b:14:18:72:62:
         5a:e1:71:77:9b:ad:15:40:87:10:7a:8a:ba:9d:28:71:e7:b2:
         9a:b3:0a:95:fe:00:d9:0e:a5:bc:9b:13:6f:08:ed:34:8b:dc:
         2c:a8:af:1c:3f:2a:ce:09:6f:ce:3f:47:2b:a8:db:3f:bd:85:
         90:13:5f:d0:eb:1e:e8:f7:47:54:99:7e:36:67:ea:ed:1f:29:
         bb:49:40:e7:ca:f0:3d:98:4e:f5:17:c0:1d:d2:55:13:c9:83:
         74:5b:75:3a:eb:70:d3:cc:30:c0:07:fa:49:63:3e:ee:cd:be:
         e2:49:19:df:52:77:08:dd:d6:c0:87:66:5b:c0:10:2a:1b:8f:
         e3:e5:85:ea:07:5f:a0:a4:d0:59:99:36:00:dd:7b:c2:9a:5f:
         65:51:ac:8a:b8:ac:b7:7b:2f:ab:5f:f1:91:92:b0:59:0b:82:
         24:49:75:67:e7:94:bf:b4:f5:32:01:90:ce:08:a7:5a:55:ea:
         9a:d2:5e:5f:a7:40:f1:b5:b4:d2:25:e3:0b:a2:02:be:c2:50:
         9e:e4:96:60:8f:34:7d:6d:b8:b5:e9:7f:62:94:11:43:bf:d6:
         3b:79:7b:fa:1d:6b:66:c8:20:ea:08:30:cf:c1:7c:73:2c:e4:
         c0:44:c2:8d:07:e4:c9:00:de:af:5d:72:b8:7b:84:bd:bc:0b:
         d0:87:8f:59:e8:05:82:6e:07:18:77:19:16:69:9d:79:c4:2f:
         1c:02:b9:25:d2:a1:bf:60:c5:62:7c:1a:3a:9f:9d:bf:a3:44:
         fc:9b:17:96:7c:52:03:17:48:a9:54:a8:22:5d:35:3e:c8:80:
         bc:56:39:a8:f7:0f:96:44:75:21:58:c1:04:b7:0f:d7:f7:bc:
         2a:5b:4e:b2:8e:d1:02:28:b7:5e:94:c9:b8:cc:d9:d0:36:4e:
         ec:d1:1c:8c:a2:21:30:d1:c7:47:78:9a:ad:70:2c:0c:7d:f9:
         20:1b:4d:b3:f0:3e:a7:50:d2:92:05:f9:26:da:e0:ba:0b:d6:
         dd:15:b8:9f:56:31:0a:ed
-----BEGIN CERTIFICATE-----
MIIGrTCCBJWgAwIBAgICEYUwDQYJKoZIhvcNAQEEBQAwgawxCzAJBgNVBAYTAlVT
MQswCQYDVQQIEwJPSDERMA8GA1UEBxMIQ29sdW1idXMxEjAQBgNVBAoTCVZpa2lu
Z1ZQTjEdMBsGA1UECxMUTXlPcmdhbml6YXRpb25hbFVuaXQxFTATBgNVBAMTDFZp
a2luZ1ZQTiBDQTEQMA4GA1UEKRMHRWFzeVJTQTEhMB8GCSqGSIb3DQEJARYSbWVA
bXlob3N0Lm15ZG9tYWluMB4XDTE1MDIxNjE4MDIwM1oXDTI1MDIxMzE4MDIwM1ow
HzEdMBsGA1UEAxMUQ2xpZW50MTQ1N0NlcnRjZDBkZDIwggIiMA0GCSqGSIb3DQEB
AQUAA4ICDwAwggIKAoICAQDQohHxLmaK20D2xAVz+OjR+A/Y1AIzC2kkDkkj8v94
nMeU/cUyuvVfPMO5ZfCxcfYvpa32vSWx7ZqQ67611fDnDNHye9iAOCUe+bL7tBpY
m/LbLXGXAkJwg7grYNPiqARelLpyDMH8Wd+gLH94xxFxHa2HEHobZEi9/ni69n30
2BewzLdgt9CLtulXzc7if6KDGsGHSXcsoFWDu3Vw0fAUI9uc/AFzlqyade9ZaQpm
hSocES8mD4gQGozPPkoCJALdTL0CtjWt2qx/oLgin+nbynF9qoDZ0s6pMASmIgIy
XSvb01yiNB1aEPff1Y3vHHPy3yGVkQlnq2vsgiKZeFHwsysedYg3L4Ci79YG7qY5
4s8zzoS9cbdlReo46JRC6r3nM/A4un0aVeRTt3EN+PdI5U0T1Q42iSe4V+rHft7x
TgC2DE+2Wcx8JedQDXN8M8dBhMQc7iPxn3pRG117sEALU6/Y8dcNMcZsN3LTDNCR
sJRhvrn/oEVppFGgPL7z2enS4EkWdMb3rWqj7hi/IaL7WOY3IUlIm2TbJsbYxsLB
boDwzddeu2kTsR40SUpHanZ0ybJXYNqEYlvbvDuEsKPeCuWZ2uj7hKegifuuoLIT
Ksu8P+AWw5ohe0ixGm/h/oh3PYNLajsdUDlgTUcdKxiiBy2EPe6krYxm+kvpHLib
0wIDAQABo4IBYzCCAV8wCQYDVR0TBAIwADAtBglghkgBhvhCAQ0EIBYeRWFzeS1S
U0EgR2VuZXJhdGVkIENlcnRpZmljYXRlMB0GA1UdDgQWBBRWJ3tj3qEymMABOV3H
DrKDlnxGbzCB4QYDVR0jBIHZMIHWgBQSzWAE0qCAnnDtxpm4eyzGUv0ZoaGBsqSB
rzCBrDELMAkGA1UEBhMCVVMxCzAJBgNVBAgTAk9IMREwDwYDVQQHEwhDb2x1bWJ1
czESMBAGA1UEChMJVmlraW5nVlBOMR0wGwYDVQQLExRNeU9yZ2FuaXphdGlvbmFs
VW5pdDEVMBMGA1UEAxMMVmlraW5nVlBOIENBMRAwDgYDVQQpEwdFYXN5UlNBMSEw
HwYJKoZIhvcNAQkBFhJtZUBteWhvc3QubXlkb21haW6CCQDPNYXugL8qPjATBgNV
HSUEDDAKBggrBgEFBQcDAjALBgNVHQ8EBAMCB4AwDQYJKoZIhvcNAQEEBQADggIB
AAD7G6IQQGo9+ayN0Ed/pFaUFbmDzlT9WB/eMWGExWlkvyOcoCR4PRJcnNVutLCz
CgM1Hm366DnOgOEhUyvEIv/cRVJzsvIALCRtip9JWz4fzwWqFJ0qB2tB5llAm27e
EIAf4gqlKG71rXT83sfIkn7QsuccApC+qSM7FBhyYlrhcXebrRVAhxB6irqdKHHn
spqzCpX+ANkOpbybE28I7TSL3Cyorxw/Ks4Jb84/Ryuo2z+9hZATX9DrHuj3R1SZ
fjZn6u0fKbtJQOfK8D2YTvUXwB3SVRPJg3RbdTrrcNPMMMAH+kljPu7NvuJJGd9S
dwjd1sCHZlvAECobj+PlheoHX6Ck0FmZNgDde8KaX2VRrIq4rLd7L6tf8ZGSsFkL
giRJdWfnlL+09TIBkM4Ip1pV6prSXl+nQPG1tNIl4wuiAr7CUJ7klmCPNH1tuLXp
f2KUEUO/1jt5e/oda2bIIOoIMM/BfHMs5MBEwo0H5MkA3q9dcrh7hL28C9CHj1no
BYJuBxh3GRZpnXnELxwCuSXSob9gxWJ8Gjqfnb+jRPybF5Z8UgMXSKlUqCJdNT7I
gLxWOaj3D5ZEdSFYwQS3D9f3vCpbTrKO0QIot16UybjM2dA2TuzRHIyiITDRx0d4
mq1wLAx9+SAbTbPwPqdQ0pIF+Sba4LoL1t0VuJ9WMQrt
-----END CERTIFICATE-----
