Certificate:
    Data:
        Version: 3 (0x2)
        Serial Number: 7462 (0x1d26)
    Signature Algorithm: md5WithRSAEncryption
        Issuer: C=US, ST=OH, L=Columbus, O=VikingVPN, OU=MyOrganizationalUnit, CN=VikingVPN CA/name=EasyRSA/emailAddress=me@myhost.mydomain
        Validity
            Not Before: Mar  9 16:36:24 2016 GMT
            Not After : Mar  7 16:36:24 2026 GMT
        Subject: CN=Client2221Cert4b2e04
        Subject Public Key Info:
            Public Key Algorithm: rsaEncryption
                Public-Key: (4096 bit)
                Modulus:
                    00:cc:e2:2d:f6:a9:4e:22:a7:fa:cf:11:bc:4c:cd:
                    cf:f9:5c:15:e6:3c:47:9f:be:17:37:e9:ee:ff:a2:
                    64:4b:77:b4:64:6d:da:a9:d1:ea:c5:cd:a5:2a:ff:
                    17:5a:a1:44:08:b8:e6:fd:25:e8:48:20:e2:33:f5:
                    e5:27:4e:33:82:a7:f2:b9:c2:50:1f:0a:2b:a8:52:
                    8d:89:59:8d:4f:97:0c:5b:fb:bb:7b:a5:37:ad:ca:
                    76:e6:28:47:b3:c4:26:5e:38:ec:bf:29:d9:c5:7a:
                    71:88:5b:db:0d:7b:c6:f4:bc:4e:11:1e:9f:43:e9:
                    74:28:85:e4:c8:04:30:6c:b6:fc:62:58:a7:16:fe:
                    a2:af:9d:46:1c:46:0f:c0:8f:fb:68:5d:66:68:43:
                    8f:b8:70:41:62:a0:f2:ec:93:ca:9a:27:69:42:57:
                    4b:30:29:4e:5e:63:8e:01:51:6a:68:44:02:7e:b8:
                    fb:f1:25:8a:98:fd:a3:20:6c:e0:fb:82:93:78:fc:
                    23:1f:8e:e1:7c:fb:07:e2:32:b4:e7:9e:46:ef:20:
                    d1:7c:5c:47:b0:a4:0d:81:da:ec:1c:20:66:a1:03:
                    80:83:5a:e4:ea:e3:53:c7:37:b7:7e:97:38:e3:66:
                    03:59:8f:2e:f0:c7:d1:91:44:c4:98:8f:ec:83:04:
                    ab:a2:46:60:56:45:b9:24:fc:4f:a9:b3:3d:5e:9f:
                    ed:5f:dc:f6:00:43:e4:12:aa:a2:b4:81:ac:40:6c:
                    64:1b:79:99:d2:41:35:89:cd:9a:75:e0:04:a6:f5:
                    7b:28:d0:dc:da:6c:36:30:1d:8b:e4:db:64:b1:9d:
                    50:29:86:c1:7d:e3:0a:b6:c3:e9:3c:89:2b:a6:b7:
                    87:94:63:5b:1c:68:b5:12:b7:50:3f:5a:45:c3:e4:
                    1e:42:79:f6:12:b3:79:00:e0:a1:38:b7:69:08:5a:
                    04:1a:27:f5:20:a9:77:6a:ba:5d:28:2a:98:9a:10:
                    fc:e6:be:63:5c:23:de:03:13:d2:d6:d3:10:b4:80:
                    a0:3b:9b:3f:91:af:9c:8b:c7:e9:63:27:58:b9:85:
                    65:a1:cc:5d:09:cf:3e:9d:fd:60:a0:af:ec:22:25:
                    57:27:d6:17:aa:ce:1a:b8:a5:21:f5:4f:db:4b:aa:
                    90:70:92:eb:2c:5b:26:8f:eb:b2:71:c5:df:e9:9c:
                    bb:bc:26:1d:61:ea:da:86:1b:03:e8:f9:2b:b2:47:
                    ac:50:6a:0c:13:10:30:de:d6:e2:b0:35:16:53:25:
                    ad:34:a4:fc:9e:b6:38:67:0d:0e:6c:15:cc:d5:4a:
                    6a:0b:97:a1:63:08:bf:f1:21:51:82:ae:97:37:d8:
                    3d:37:71
                Exponent: 65537 (0x10001)
        X509v3 extensions:
            X509v3 Basic Constraints: 
                CA:FALSE
            Netscape Comment: 
                Easy-RSA Generated Certificate
            X509v3 Subject Key Identifier: 
                8F:8B:6F:A2:94:27:D8:6B:39:97:09:BC:C4:C8:8F:C8:8A:29:F8:94
            X509v3 Authority Key Identifier: 
                keyid:12:CD:60:04:D2:A0:80:9E:70:ED:C6:99:B8:7B:2C:C6:52:FD:19:A1
                DirName:/C=US/ST=OH/L=Columbus/O=VikingVPN/OU=MyOrganizationalUnit/CN=VikingVPN CA/name=EasyRSA/emailAddress=me@myhost.mydomain
                serial:CF:35:85:EE:80:BF:2A:3E

            X509v3 Extended Key Usage: 
                TLS Web Client Authentication
            X509v3 Key Usage: 
                Digital Signature
    Signature Algorithm: md5WithRSAEncryption
         23:66:d8:84:30:34:f3:53:d5:5d:6f:c8:45:83:04:f7:e8:89:
         61:36:8c:99:e8:f9:3e:a2:6c:2a:45:ae:b0:48:76:2b:e5:99:
         0d:64:6b:d5:b4:a5:c9:8a:c3:72:06:fa:e1:de:83:e8:70:4a:
         40:e2:41:8a:89:e9:9e:48:65:38:08:32:5d:34:d0:2f:59:77:
         4b:8a:dd:24:d3:cb:f4:c7:61:82:f3:19:69:31:aa:d3:e8:83:
         21:06:fa:44:41:98:1c:aa:4f:46:90:0f:15:76:b6:60:8c:f3:
         93:6c:b2:19:95:0c:6b:41:0d:96:1d:ea:a8:5d:46:04:8b:86:
         df:f9:c8:2e:9c:52:c6:91:9e:9c:96:cb:f1:6c:a7:54:a8:81:
         41:4e:f1:82:32:82:08:aa:d6:05:6a:d5:e9:fa:ac:f6:12:8d:
         ef:3b:a1:16:c6:21:04:71:6b:19:72:c2:9a:33:eb:af:a9:c5:
         b8:32:ab:5b:96:09:92:5d:0c:60:31:22:11:2a:0f:d8:d4:58:
         c0:f5:25:86:7c:05:89:e7:28:b1:8a:40:0e:00:07:4d:15:ea:
         44:5d:b1:24:9a:5d:b7:df:a8:e2:f5:5b:9b:77:75:65:54:40:
         34:af:1d:33:a6:85:67:95:33:1c:a4:51:bc:34:27:8c:14:9c:
         08:0c:be:2b:38:7d:50:94:47:b5:c4:e7:62:38:78:4d:1f:9d:
         d6:a9:19:98:fb:6d:3e:f8:a8:59:1a:91:3e:6f:e5:af:64:6b:
         ff:ea:9e:75:ce:2e:f9:ba:e1:b0:dc:5f:2a:c5:f3:be:c2:5f:
         ef:e7:7c:6e:b3:63:76:2d:f7:1f:d0:c5:33:8a:56:fd:89:b3:
         45:e8:23:71:13:62:f7:44:06:d5:ee:fd:87:96:e4:52:48:d8:
         43:e5:d1:f8:6e:86:0c:d5:a5:d7:c6:c5:5a:c9:dc:00:49:09:
         e1:ae:e6:b9:d0:7c:ff:04:b8:06:24:40:6b:81:37:6b:87:30:
         cb:18:b8:94:f7:a4:8e:e3:82:2b:c0:82:40:83:af:2d:7d:0b:
         a8:c2:41:87:8f:7a:8f:26:42:91:07:ab:60:7c:c0:c7:89:37:
         16:05:fe:70:00:12:8f:ef:5a:c6:34:46:a7:2c:79:2d:81:d2:
         de:09:00:fc:78:9f:a6:64:cb:bc:c7:34:18:e3:a5:78:bc:75:
         fc:a3:1c:6e:63:3b:5d:bb:0b:7e:e9:a3:1c:25:31:86:cc:f9:
         14:0d:27:31:a1:e5:a3:4d:ef:8c:63:1b:bc:93:5f:b1:4b:20:
         00:08:a2:0f:a3:f1:1e:e0:00:71:5b:26:a5:fa:e0:2c:cb:5a:
         fe:3f:12:eb:1b:b7:00:22
-----BEGIN CERTIFICATE-----
MIIGrTCCBJWgAwIBAgICHSYwDQYJKoZIhvcNAQEEBQAwgawxCzAJBgNVBAYTAlVT
MQswCQYDVQQIEwJPSDERMA8GA1UEBxMIQ29sdW1idXMxEjAQBgNVBAoTCVZpa2lu
Z1ZQTjEdMBsGA1UECxMUTXlPcmdhbml6YXRpb25hbFVuaXQxFTATBgNVBAMTDFZp
a2luZ1ZQTiBDQTEQMA4GA1UEKRMHRWFzeVJTQTEhMB8GCSqGSIb3DQEJARYSbWVA
bXlob3N0Lm15ZG9tYWluMB4XDTE2MDMwOTE2MzYyNFoXDTI2MDMwNzE2MzYyNFow
HzEdMBsGA1UEAxMUQ2xpZW50MjIyMUNlcnQ0YjJlMDQwggIiMA0GCSqGSIb3DQEB
AQUAA4ICDwAwggIKAoICAQDM4i32qU4ip/rPEbxMzc/5XBXmPEefvhc36e7/omRL
d7Rkbdqp0erFzaUq/xdaoUQIuOb9JehIIOIz9eUnTjOCp/K5wlAfCiuoUo2JWY1P
lwxb+7t7pTetynbmKEezxCZeOOy/KdnFenGIW9sNe8b0vE4RHp9D6XQoheTIBDBs
tvxiWKcW/qKvnUYcRg/Aj/toXWZoQ4+4cEFioPLsk8qaJ2lCV0swKU5eY44BUWpo
RAJ+uPvxJYqY/aMgbOD7gpN4/CMfjuF8+wfiMrTnnkbvINF8XEewpA2B2uwcIGah
A4CDWuTq41PHN7d+lzjjZgNZjy7wx9GRRMSYj+yDBKuiRmBWRbkk/E+psz1en+1f
3PYAQ+QSqqK0gaxAbGQbeZnSQTWJzZp14ASm9Xso0NzabDYwHYvk22SxnVAphsF9
4wq2w+k8iSumt4eUY1scaLUSt1A/WkXD5B5CefYSs3kA4KE4t2kIWgQaJ/UgqXdq
ul0oKpiaEPzmvmNcI94DE9LW0xC0gKA7mz+Rr5yLx+ljJ1i5hWWhzF0Jzz6d/WCg
r+wiJVcn1heqzhq4pSH1T9tLqpBwkussWyaP67Jxxd/pnLu8Jh1h6tqGGwPo+Suy
R6xQagwTEDDe1uKwNRZTJa00pPyetjhnDQ5sFczVSmoLl6FjCL/xIVGCrpc32D03
cQIDAQABo4IBYzCCAV8wCQYDVR0TBAIwADAtBglghkgBhvhCAQ0EIBYeRWFzeS1S
U0EgR2VuZXJhdGVkIENlcnRpZmljYXRlMB0GA1UdDgQWBBSPi2+ilCfYazmXCbzE
yI/Iiin4lDCB4QYDVR0jBIHZMIHWgBQSzWAE0qCAnnDtxpm4eyzGUv0ZoaGBsqSB
rzCBrDELMAkGA1UEBhMCVVMxCzAJBgNVBAgTAk9IMREwDwYDVQQHEwhDb2x1bWJ1
czESMBAGA1UEChMJVmlraW5nVlBOMR0wGwYDVQQLExRNeU9yZ2FuaXphdGlvbmFs
VW5pdDEVMBMGA1UEAxMMVmlraW5nVlBOIENBMRAwDgYDVQQpEwdFYXN5UlNBMSEw
HwYJKoZIhvcNAQkBFhJtZUBteWhvc3QubXlkb21haW6CCQDPNYXugL8qPjATBgNV
HSUEDDAKBggrBgEFBQcDAjALBgNVHQ8EBAMCB4AwDQYJKoZIhvcNAQEEBQADggIB
ACNm2IQwNPNT1V1vyEWDBPfoiWE2jJno+T6ibCpFrrBIdivlmQ1ka9W0pcmKw3IG
+uHeg+hwSkDiQYqJ6Z5IZTgIMl000C9Zd0uK3STTy/THYYLzGWkxqtPogyEG+kRB
mByqT0aQDxV2tmCM85NsshmVDGtBDZYd6qhdRgSLht/5yC6cUsaRnpyWy/Fsp1So
gUFO8YIyggiq1gVq1en6rPYSje87oRbGIQRxaxlywpoz66+pxbgyq1uWCZJdDGAx
IhEqD9jUWMD1JYZ8BYnnKLGKQA4AB00V6kRdsSSaXbffqOL1W5t3dWVUQDSvHTOm
hWeVMxykUbw0J4wUnAgMvis4fVCUR7XE52I4eE0fndapGZj7bT74qFkakT5v5a9k
a//qnnXOLvm64bDcXyrF877CX+/nfG6zY3Yt9x/QxTOKVv2Js0XoI3ETYvdEBtXu
/YeW5FJI2EPl0fhuhgzVpdfGxVrJ3ABJCeGu5rnQfP8EuAYkQGuBN2uHMMsYuJT3
pI7jgivAgkCDry19C6jCQYePeo8mQpEHq2B8wMeJNxYF/nAAEo/vWsY0RqcseS2B
0t4JAPx4n6Zky7zHNBjjpXi8dfyjHG5jO127C37poxwlMYbM+RQNJzGh5aNN74xj
G7yTX7FLIAAIog+j8R7gAHFbJqX64CzLWv4/EusbtwAi
-----END CERTIFICATE-----
