Certificate:
    Data:
        Version: 3 (0x2)
        Serial Number: 7256 (0x1c58)
    Signature Algorithm: md5WithRSAEncryption
        Issuer: C=US, ST=OH, L=Columbus, O=VikingVPN, OU=MyOrganizationalUnit, CN=VikingVPN CA/name=EasyRSA/emailAddress=me@myhost.mydomain
        Validity
            Not Before: Feb 21 00:25:19 2016 GMT
            Not After : Feb 18 00:25:19 2026 GMT
        Subject: CN=Client2188Certbb2477
        Subject Public Key Info:
            Public Key Algorithm: rsaEncryption
                Public-Key: (4096 bit)
                Modulus:
                    00:c2:e0:d8:93:c3:b7:70:4c:48:e4:f2:49:19:51:
                    48:b3:94:be:26:38:02:1c:00:03:59:24:23:6c:24:
                    4c:d9:d4:29:c2:b9:19:46:92:33:f4:4d:3c:ed:ac:
                    c1:ed:1c:5a:80:c1:f4:b3:d9:08:01:e9:78:cc:90:
                    73:e6:86:37:90:f4:74:e2:ff:2b:f7:66:88:28:7b:
                    c7:db:62:9f:3f:01:00:63:93:4e:3e:29:da:53:49:
                    3f:8c:55:ef:b8:6c:fc:70:c4:7d:06:c3:ea:77:40:
                    27:47:75:cd:7e:23:b9:b2:57:61:7b:01:a3:05:89:
                    7b:4e:2b:7d:a2:67:69:28:c0:75:88:fb:56:bb:05:
                    f0:ad:7b:25:cd:82:ff:fb:e7:68:db:ef:61:1e:ba:
                    b9:77:8a:10:02:0e:8e:af:51:00:5c:5e:e1:91:09:
                    29:bc:1f:58:f3:cc:1d:cd:2d:0e:d9:eb:c0:2d:99:
                    bd:73:5d:08:60:9b:b9:4c:27:fc:07:ce:c6:b5:f0:
                    bd:1a:24:e8:71:69:e9:3d:e4:51:04:cb:04:76:91:
                    25:0c:4b:16:82:df:a6:32:48:ef:ae:19:13:75:2c:
                    3d:50:50:28:d6:c4:84:5a:07:f8:bc:34:65:98:db:
                    09:bb:36:96:a2:46:df:31:8b:3b:ea:05:8a:aa:98:
                    e7:e5:8e:c2:e8:75:37:99:07:b3:12:70:5d:5e:4c:
                    a2:9c:e1:3f:30:e9:1c:82:82:5e:77:5e:a2:43:3a:
                    76:81:db:11:07:2f:ab:0e:8b:d8:ce:25:48:5b:6d:
                    6e:ea:8d:00:80:4a:5f:cc:b6:e4:26:0d:52:aa:54:
                    07:b8:07:1f:00:fc:db:40:9e:20:61:d8:e5:4b:eb:
                    b4:77:43:18:58:82:54:50:00:66:67:04:70:2c:18:
                    84:6f:d9:db:a9:d4:37:eb:2c:a2:22:f9:1e:72:29:
                    93:bb:3c:57:8c:0a:6c:8f:e2:50:d0:70:a9:06:b3:
                    b7:15:cc:6e:45:9d:27:75:30:4d:b2:a1:f8:3c:89:
                    da:49:46:7a:99:56:14:c3:79:a5:0c:66:e3:27:a5:
                    7b:1a:3a:1c:8f:20:94:a6:b0:58:f2:d1:6d:07:27:
                    72:19:b8:00:0b:4f:fe:a9:73:b8:65:d2:c4:51:b2:
                    4e:b6:1a:47:7d:24:56:78:ae:41:83:b1:67:5e:40:
                    de:be:8a:b3:e3:7b:05:3d:19:ed:b8:87:42:08:92:
                    65:58:17:a1:d6:36:4f:98:da:31:67:3c:1c:08:90:
                    f3:c1:bb:78:c5:29:9d:f3:af:f8:fb:84:0d:1f:4a:
                    2d:f3:33:59:be:e2:73:c2:56:ed:f7:87:bb:e5:75:
                    19:56:93
                Exponent: 65537 (0x10001)
        X509v3 extensions:
            X509v3 Basic Constraints: 
                CA:FALSE
            Netscape Comment: 
                Easy-RSA Generated Certificate
            X509v3 Subject Key Identifier: 
                86:8D:D3:B7:2E:40:D9:8E:C7:23:8E:71:A6:0B:3E:B4:F1:C5:17:BB
            X509v3 Authority Key Identifier: 
                keyid:12:CD:60:04:D2:A0:80:9E:70:ED:C6:99:B8:7B:2C:C6:52:FD:19:A1
                DirName:/C=US/ST=OH/L=Columbus/O=VikingVPN/OU=MyOrganizationalUnit/CN=VikingVPN CA/name=EasyRSA/emailAddress=me@myhost.mydomain
                serial:CF:35:85:EE:80:BF:2A:3E

            X509v3 Extended Key Usage: 
                TLS Web Client Authentication
            X509v3 Key Usage: 
                Digital Signature
    Signature Algorithm: md5WithRSAEncryption
         76:c7:1f:37:39:f8:8a:8c:07:83:ae:6b:7f:9a:35:87:98:13:
         6f:c4:8f:59:ae:79:48:c0:a3:52:87:67:bd:af:20:fb:26:be:
         85:e9:e6:0e:51:f4:bf:0e:22:2a:f5:e7:02:1b:8d:49:65:10:
         d9:ed:d8:18:7f:e3:02:ce:81:37:ab:95:a1:22:72:05:92:e6:
         92:42:c1:c6:75:c3:9e:23:39:1e:57:c1:dd:cc:e5:f5:b3:71:
         21:41:e5:5f:b6:75:5c:47:4b:81:ca:20:db:61:70:a6:e8:76:
         53:6c:f3:4b:cb:9a:08:06:30:4c:1c:e6:cd:ee:ae:e0:47:a6:
         7d:48:4a:60:62:3f:cd:a0:6f:96:8c:94:69:f1:be:72:c1:57:
         29:c6:57:43:4c:40:15:a5:4c:9d:3d:c4:d8:80:98:52:a6:9e:
         e8:34:35:3c:9f:91:13:ed:da:d7:83:6d:8b:82:03:cc:9f:89:
         0a:f9:83:50:e4:c5:cd:68:3b:f5:11:09:3d:b0:e6:5a:27:49:
         e8:ad:b6:de:4b:29:c9:30:2f:74:72:f3:e4:f0:46:07:f2:9d:
         7a:8f:a2:56:ac:41:2d:15:33:39:9d:51:d4:99:bd:d1:f1:27:
         33:c2:a3:5a:a9:e7:98:38:d7:75:c7:99:b1:d1:23:20:e4:0c:
         7c:51:bb:e2:49:f6:dd:ab:91:ef:da:d6:1f:36:b8:39:62:cd:
         e8:9c:fe:43:cf:2f:db:b1:48:82:71:bf:cc:51:90:07:c9:fa:
         26:1b:69:c5:13:5c:91:50:00:b0:74:f1:1c:a0:79:b9:f4:6b:
         04:6f:4e:64:b7:7f:c8:7d:ed:72:97:99:4a:99:4a:ec:95:c7:
         01:75:2b:98:63:fb:50:b5:51:23:46:a2:52:9a:40:49:90:30:
         8e:4e:e4:73:cd:47:b7:7c:5d:76:8f:db:1d:1b:3a:e5:27:e1:
         f0:ed:17:71:df:21:07:b2:e2:30:22:fa:f4:e2:dd:d4:d3:b8:
         af:92:88:c4:f9:ed:01:b0:80:44:2b:40:22:63:ab:c8:81:32:
         87:ef:7e:cc:e5:f8:90:81:a9:c7:cb:69:ab:9a:aa:52:2f:11:
         02:fc:f3:18:e6:ac:39:52:66:4f:b0:a2:05:a7:72:e5:67:04:
         19:4c:d6:f9:f9:04:3b:9d:f3:48:a2:85:5a:ad:12:1c:03:8e:
         59:92:0e:6f:28:88:ae:e6:e9:4c:35:fc:b5:64:40:f8:86:5d:
         59:94:bc:84:56:3f:88:59:09:a8:e9:6b:ab:98:a4:c1:ac:2a:
         af:79:8d:3c:a2:b2:5e:f4:98:9f:1b:de:04:11:7e:38:2b:11:
         f5:f8:21:cc:29:b7:ad:d8
-----BEGIN CERTIFICATE-----
MIIGrTCCBJWgAwIBAgICHFgwDQYJKoZIhvcNAQEEBQAwgawxCzAJBgNVBAYTAlVT
MQswCQYDVQQIEwJPSDERMA8GA1UEBxMIQ29sdW1idXMxEjAQBgNVBAoTCVZpa2lu
Z1ZQTjEdMBsGA1UECxMUTXlPcmdhbml6YXRpb25hbFVuaXQxFTATBgNVBAMTDFZp
a2luZ1ZQTiBDQTEQMA4GA1UEKRMHRWFzeVJTQTEhMB8GCSqGSIb3DQEJARYSbWVA
bXlob3N0Lm15ZG9tYWluMB4XDTE2MDIyMTAwMjUxOVoXDTI2MDIxODAwMjUxOVow
HzEdMBsGA1UEAxMUQ2xpZW50MjE4OENlcnRiYjI0NzcwggIiMA0GCSqGSIb3DQEB
AQUAA4ICDwAwggIKAoICAQDC4NiTw7dwTEjk8kkZUUizlL4mOAIcAANZJCNsJEzZ
1CnCuRlGkjP0TTztrMHtHFqAwfSz2QgB6XjMkHPmhjeQ9HTi/yv3Zogoe8fbYp8/
AQBjk04+KdpTST+MVe+4bPxwxH0Gw+p3QCdHdc1+I7myV2F7AaMFiXtOK32iZ2ko
wHWI+1a7BfCteyXNgv/752jb72Eeurl3ihACDo6vUQBcXuGRCSm8H1jzzB3NLQ7Z
68Atmb1zXQhgm7lMJ/wHzsa18L0aJOhxaek95FEEywR2kSUMSxaC36YySO+uGRN1
LD1QUCjWxIRaB/i8NGWY2wm7NpaiRt8xizvqBYqqmOfljsLodTeZB7MScF1eTKKc
4T8w6RyCgl53XqJDOnaB2xEHL6sOi9jOJUhbbW7qjQCASl/MtuQmDVKqVAe4Bx8A
/NtAniBh2OVL67R3QxhYglRQAGZnBHAsGIRv2dup1DfrLKIi+R5yKZO7PFeMCmyP
4lDQcKkGs7cVzG5FnSd1ME2yofg8idpJRnqZVhTDeaUMZuMnpXsaOhyPIJSmsFjy
0W0HJ3IZuAALT/6pc7hl0sRRsk62Gkd9JFZ4rkGDsWdeQN6+irPjewU9Ge24h0II
kmVYF6HWNk+Y2jFnPBwIkPPBu3jFKZ3zr/j7hA0fSi3zM1m+4nPCVu33h7vldRlW
kwIDAQABo4IBYzCCAV8wCQYDVR0TBAIwADAtBglghkgBhvhCAQ0EIBYeRWFzeS1S
U0EgR2VuZXJhdGVkIENlcnRpZmljYXRlMB0GA1UdDgQWBBSGjdO3LkDZjscjjnGm
Cz608cUXuzCB4QYDVR0jBIHZMIHWgBQSzWAE0qCAnnDtxpm4eyzGUv0ZoaGBsqSB
rzCBrDELMAkGA1UEBhMCVVMxCzAJBgNVBAgTAk9IMREwDwYDVQQHEwhDb2x1bWJ1
czESMBAGA1UEChMJVmlraW5nVlBOMR0wGwYDVQQLExRNeU9yZ2FuaXphdGlvbmFs
VW5pdDEVMBMGA1UEAxMMVmlraW5nVlBOIENBMRAwDgYDVQQpEwdFYXN5UlNBMSEw
HwYJKoZIhvcNAQkBFhJtZUBteWhvc3QubXlkb21haW6CCQDPNYXugL8qPjATBgNV
HSUEDDAKBggrBgEFBQcDAjALBgNVHQ8EBAMCB4AwDQYJKoZIhvcNAQEEBQADggIB
AHbHHzc5+IqMB4Oua3+aNYeYE2/Ej1mueUjAo1KHZ72vIPsmvoXp5g5R9L8OIir1
5wIbjUllENnt2Bh/4wLOgTerlaEicgWS5pJCwcZ1w54jOR5Xwd3M5fWzcSFB5V+2
dVxHS4HKINthcKbodlNs80vLmggGMEwc5s3uruBHpn1ISmBiP82gb5aMlGnxvnLB
VynGV0NMQBWlTJ09xNiAmFKmnug0NTyfkRPt2teDbYuCA8yfiQr5g1Dkxc1oO/UR
CT2w5lonSeittt5LKckwL3Ry8+TwRgfynXqPolasQS0VMzmdUdSZvdHxJzPCo1qp
55g413XHmbHRIyDkDHxRu+JJ9t2rke/a1h82uDlizeic/kPPL9uxSIJxv8xRkAfJ
+iYbacUTXJFQALB08Rygebn0awRvTmS3f8h97XKXmUqZSuyVxwF1K5hj+1C1USNG
olKaQEmQMI5O5HPNR7d8XXaP2x0bOuUn4fDtF3HfIQey4jAi+vTi3dTTuK+SiMT5
7QGwgEQrQCJjq8iBMofvfszl+JCBqcfLaauaqlIvEQL88xjmrDlSZk+wogWncuVn
BBlM1vn5BDud80iihVqtEhwDjlmSDm8oiK7m6Uw1/LVkQPiGXVmUvIRWP4hZCajp
a6uYpMGsKq95jTyisl70mJ8b3gQRfjgrEfX4Icwpt63Y
-----END CERTIFICATE-----
