Certificate:
    Data:
        Version: 3 (0x2)
        Serial Number: 10225 (0x27f1)
    Signature Algorithm: sha256WithRSAEncryption
        Issuer: C=US, ST=OH, L=Columbus, O=VikingVPN, OU=MyOrganizationalUnit, CN=VikingVPN CA/name=EasyRSA/emailAddress=me@myhost.mydomain
        Validity
            Not Before: Mar  2 22:01:10 2017 GMT
            Not After : Feb 28 22:01:10 2027 GMT
        Subject: CN=Client2750Cert640fb5
        Subject Public Key Info:
            Public Key Algorithm: rsaEncryption
                Public-Key: (4096 bit)
                Modulus:
                    00:e2:e2:1f:83:9b:6c:19:17:3d:cf:f7:44:af:bf:
                    13:e1:ee:d7:5f:56:1f:a4:80:b4:bc:63:27:06:50:
                    f4:ff:1d:fe:88:9e:22:41:39:0a:b4:0e:b7:4c:c8:
                    65:3c:e5:1b:0b:9a:3a:12:92:83:e0:38:95:89:3f:
                    8e:4e:42:06:df:b7:f1:37:9e:cc:61:09:03:41:6d:
                    a2:c3:3c:79:d7:13:c0:21:4d:8e:b2:ca:2d:fb:a6:
                    49:b8:40:79:69:f2:7c:85:47:90:49:ca:9a:48:ce:
                    0d:43:b6:4a:7c:8e:87:02:07:ef:b5:83:57:9d:46:
                    04:4f:7d:7c:03:7d:58:84:c1:83:fc:80:6d:5a:4c:
                    2b:11:c2:a5:71:0c:01:56:d8:1e:77:e4:67:aa:a6:
                    af:b7:21:ee:23:a8:55:8c:42:04:44:4a:c7:6e:ea:
                    d3:5e:b0:71:ea:57:3e:0a:88:e0:4c:ff:70:08:42:
                    5c:31:0a:26:ae:88:e1:7c:bc:76:31:91:c9:cc:0c:
                    1f:95:f4:cd:70:50:d1:00:4e:16:d2:10:d3:f1:90:
                    98:8e:6b:61:df:39:08:fd:e8:8d:eb:20:5d:6d:15:
                    4a:a2:e8:21:9a:2c:07:73:85:23:6c:16:f3:e2:e4:
                    9f:68:a7:63:56:9e:64:71:43:9e:3c:5e:1f:30:6c:
                    43:d9:0c:c4:b8:b2:19:18:ea:8d:31:5c:d4:10:cf:
                    43:09:32:46:b8:fd:b6:cb:7e:71:ac:e3:de:24:1b:
                    98:e4:1c:f3:4b:50:87:9c:0b:00:b8:f5:bb:ce:b7:
                    ba:50:23:b4:eb:1b:19:2d:41:03:2c:85:55:7e:e3:
                    8c:60:8b:4f:cb:1f:5c:8d:d0:70:e0:06:36:1e:fd:
                    ec:13:6c:00:9b:02:a9:23:5c:10:48:14:62:17:1c:
                    42:5b:21:91:36:37:f6:6c:5c:15:6f:51:1e:b9:34:
                    6e:42:af:d4:6b:5c:2b:c5:57:59:35:ea:69:f2:79:
                    06:bd:d1:7c:2e:f0:20:10:7b:2a:bc:e5:47:3f:81:
                    32:06:d9:88:99:71:be:8c:56:42:1f:0f:75:8c:49:
                    c7:42:ee:32:f9:6c:7e:6a:e3:21:ae:a7:09:8e:0c:
                    ab:48:17:cd:70:83:3a:01:a2:89:2d:94:9b:5e:9e:
                    ac:99:33:21:57:4b:e2:b5:3f:59:71:33:09:ad:a4:
                    72:7a:67:8c:91:7d:f2:e3:0c:f8:f3:84:37:09:a2:
                    4a:21:6b:d5:f1:7c:59:b6:e8:db:cf:2e:d2:89:25:
                    82:22:48:5f:e8:64:d8:01:95:e5:b2:6c:04:5d:47:
                    b8:ab:ff:41:dc:0f:c8:1e:b6:4b:e1:02:57:d3:2e:
                    7c:67:f1
                Exponent: 65537 (0x10001)
        X509v3 extensions:
            X509v3 Basic Constraints: 
                CA:FALSE
            Netscape Comment: 
                Easy-RSA Generated Certificate
            X509v3 Subject Key Identifier: 
                15:70:48:81:57:07:05:4A:5B:90:B2:0F:E0:B6:45:DA:AA:C9:CB:01
            X509v3 Authority Key Identifier: 
                keyid:12:CD:60:04:D2:A0:80:9E:70:ED:C6:99:B8:7B:2C:C6:52:FD:19:A1
                DirName:/C=US/ST=OH/L=Columbus/O=VikingVPN/OU=MyOrganizationalUnit/CN=VikingVPN CA/name=EasyRSA/emailAddress=me@myhost.mydomain
                serial:CF:35:85:EE:80:BF:2A:3E

            X509v3 Extended Key Usage: 
                TLS Web Client Authentication
            X509v3 Key Usage: 
                Digital Signature
    Signature Algorithm: sha256WithRSAEncryption
         6f:a2:45:0f:09:a4:a1:99:4d:ab:e3:2e:e6:ae:25:da:11:b4:
         12:a8:9f:89:d6:e9:4b:f7:8b:46:06:b9:bc:98:c1:2a:b2:c4:
         14:48:51:51:cd:09:b8:fa:4a:27:26:32:3e:95:1b:65:c3:29:
         75:6b:70:af:ed:f4:5d:95:f5:e2:ba:23:ed:e3:ea:89:89:75:
         5b:f8:28:33:cb:ee:36:a8:88:06:bb:48:c5:95:60:dd:24:26:
         3d:6f:b0:22:a0:a1:d1:f7:de:d2:f3:be:f6:d0:d2:df:12:bb:
         6d:86:a7:6e:74:0f:6c:c5:ed:bb:32:b6:4e:53:5c:f7:1a:34:
         64:6e:21:97:0c:d6:90:75:41:15:bc:b3:db:af:c5:b1:b3:f5:
         c2:7f:0f:c3:49:b2:4c:d4:b0:11:77:12:5c:ad:82:42:76:c6:
         1e:ea:53:89:40:59:51:38:8b:0f:98:d8:cd:b9:14:f4:60:39:
         c7:1f:c5:88:e6:7f:c3:d0:51:70:d2:e8:2c:3a:25:3c:06:85:
         bc:bb:b2:c4:a6:a3:74:07:1a:8e:c0:6e:22:3f:7a:f1:fb:80:
         1b:ca:a5:c1:7e:a2:8b:27:5e:9d:8b:1c:e7:6f:fd:c6:71:36:
         4a:7d:13:b1:6a:cb:0f:fd:0b:11:6b:02:c8:7e:ff:45:35:e3:
         30:4f:4f:8a:63:10:77:cf:a7:4b:08:78:5d:23:50:0e:b2:e2:
         ee:69:ef:d4:61:a5:df:15:2e:0f:8a:03:bc:55:08:4f:b9:39:
         00:35:e8:04:62:23:40:bd:9b:83:62:ab:30:9d:92:5d:77:66:
         a8:07:e4:05:a8:97:f2:84:1b:3b:ee:85:ef:fa:77:99:06:e0:
         56:9d:79:cf:f0:ae:a8:61:0e:af:8d:02:dc:8e:49:5c:4e:51:
         78:79:90:82:d0:a5:ef:16:82:be:87:c4:53:4e:52:45:af:ac:
         a1:f1:ff:04:12:66:ef:07:a5:03:4a:fc:68:99:07:c4:48:44:
         79:29:46:66:d7:ac:7d:18:2d:c0:2d:f0:37:81:82:fd:55:0a:
         0d:74:f2:77:92:89:cc:5b:4d:8e:d8:ab:17:20:20:b5:90:a2:
         89:0d:60:47:b2:6c:af:d9:5e:66:96:a5:96:7b:b4:0e:fc:b5:
         39:51:69:df:77:84:39:78:31:0d:27:b9:fe:29:ca:cf:54:15:
         9d:83:cb:d6:b7:79:a6:4d:4a:22:2b:2f:02:98:4f:0f:42:36:
         b9:a9:61:a9:e7:9e:5c:24:a0:69:4f:53:3f:00:c3:86:87:77:
         01:ac:e3:c5:2c:63:5b:81:9c:27:f3:da:90:1d:79:1f:87:f8:
         64:90:57:61:dc:8e:1f:8b
-----BEGIN CERTIFICATE-----
MIIGrTCCBJWgAwIBAgICJ/EwDQYJKoZIhvcNAQELBQAwgawxCzAJBgNVBAYTAlVT
MQswCQYDVQQIEwJPSDERMA8GA1UEBxMIQ29sdW1idXMxEjAQBgNVBAoTCVZpa2lu
Z1ZQTjEdMBsGA1UECxMUTXlPcmdhbml6YXRpb25hbFVuaXQxFTATBgNVBAMTDFZp
a2luZ1ZQTiBDQTEQMA4GA1UEKRMHRWFzeVJTQTEhMB8GCSqGSIb3DQEJARYSbWVA
bXlob3N0Lm15ZG9tYWluMB4XDTE3MDMwMjIyMDExMFoXDTI3MDIyODIyMDExMFow
HzEdMBsGA1UEAxMUQ2xpZW50Mjc1MENlcnQ2NDBmYjUwggIiMA0GCSqGSIb3DQEB
AQUAA4ICDwAwggIKAoICAQDi4h+Dm2wZFz3P90SvvxPh7tdfVh+kgLS8YycGUPT/
Hf6IniJBOQq0DrdMyGU85RsLmjoSkoPgOJWJP45OQgbft/E3nsxhCQNBbaLDPHnX
E8AhTY6yyi37pkm4QHlp8nyFR5BJyppIzg1Dtkp8jocCB++1g1edRgRPfXwDfViE
wYP8gG1aTCsRwqVxDAFW2B535Geqpq+3Ie4jqFWMQgRESsdu6tNesHHqVz4KiOBM
/3AIQlwxCiauiOF8vHYxkcnMDB+V9M1wUNEAThbSENPxkJiOa2HfOQj96I3rIF1t
FUqi6CGaLAdzhSNsFvPi5J9op2NWnmRxQ548Xh8wbEPZDMS4shkY6o0xXNQQz0MJ
Mka4/bbLfnGs494kG5jkHPNLUIecCwC49bvOt7pQI7TrGxktQQMshVV+44xgi0/L
H1yN0HDgBjYe/ewTbACbAqkjXBBIFGIXHEJbIZE2N/ZsXBVvUR65NG5Cr9RrXCvF
V1k16mnyeQa90Xwu8CAQeyq85Uc/gTIG2YiZcb6MVkIfD3WMScdC7jL5bH5q4yGu
pwmODKtIF81wgzoBooktlJtenqyZMyFXS+K1P1lxMwmtpHJ6Z4yRffLjDPjzhDcJ
okoha9XxfFm26NvPLtKJJYIiSF/oZNgBleWybARdR7ir/0HcD8getkvhAlfTLnxn
8QIDAQABo4IBYzCCAV8wCQYDVR0TBAIwADAtBglghkgBhvhCAQ0EIBYeRWFzeS1S
U0EgR2VuZXJhdGVkIENlcnRpZmljYXRlMB0GA1UdDgQWBBQVcEiBVwcFSluQsg/g
tkXaqsnLATCB4QYDVR0jBIHZMIHWgBQSzWAE0qCAnnDtxpm4eyzGUv0ZoaGBsqSB
rzCBrDELMAkGA1UEBhMCVVMxCzAJBgNVBAgTAk9IMREwDwYDVQQHEwhDb2x1bWJ1
czESMBAGA1UEChMJVmlraW5nVlBOMR0wGwYDVQQLExRNeU9yZ2FuaXphdGlvbmFs
VW5pdDEVMBMGA1UEAxMMVmlraW5nVlBOIENBMRAwDgYDVQQpEwdFYXN5UlNBMSEw
HwYJKoZIhvcNAQkBFhJtZUBteWhvc3QubXlkb21haW6CCQDPNYXugL8qPjATBgNV
HSUEDDAKBggrBgEFBQcDAjALBgNVHQ8EBAMCB4AwDQYJKoZIhvcNAQELBQADggIB
AG+iRQ8JpKGZTavjLuauJdoRtBKon4nW6Uv3i0YGubyYwSqyxBRIUVHNCbj6Sicm
Mj6VG2XDKXVrcK/t9F2V9eK6I+3j6omJdVv4KDPL7jaoiAa7SMWVYN0kJj1vsCKg
odH33tLzvvbQ0t8Su22Gp250D2zF7bsytk5TXPcaNGRuIZcM1pB1QRW8s9uvxbGz
9cJ/D8NJskzUsBF3ElytgkJ2xh7qU4lAWVE4iw+Y2M25FPRgOccfxYjmf8PQUXDS
6Cw6JTwGhby7ssSmo3QHGo7AbiI/evH7gBvKpcF+oosnXp2LHOdv/cZxNkp9E7Fq
yw/9CxFrAsh+/0U14zBPT4pjEHfPp0sIeF0jUA6y4u5p79Rhpd8VLg+KA7xVCE+5
OQA16ARiI0C9m4NiqzCdkl13ZqgH5AWol/KEGzvuhe/6d5kG4Fadec/wrqhhDq+N
AtyOSVxOUXh5kILQpe8Wgr6HxFNOUkWvrKHx/wQSZu8HpQNK/GiZB8RIRHkpRmbX
rH0YLcAt8DeBgv1VCg108neSicxbTY7YqxcgILWQookNYEeybK/ZXmaWpZZ7tA78
tTlRad93hDl4MQ0nuf4pys9UFZ2Dy9a3eaZNSiIrLwKYTw9CNrmpYannnlwkoGlP
Uz8Aw4aHdwGs48UsY1uBnCfz2pAdeR+H+GSQV2Hcjh+L
-----END CERTIFICATE-----
