Certificate:
    Data:
        Version: 3 (0x2)
        Serial Number: 5038 (0x13ae)
    Signature Algorithm: md5WithRSAEncryption
        Issuer: C=US, ST=OH, L=Columbus, O=VikingVPN, OU=MyOrganizationalUnit, CN=VikingVPN CA/name=EasyRSA/emailAddress=me@myhost.mydomain
        Validity
            Not Before: Apr 21 12:01:56 2015 GMT
            Not After : Apr 18 12:01:56 2025 GMT
        Subject: CN=Client1620Certaa2d30
        Subject Public Key Info:
            Public Key Algorithm: rsaEncryption
                Public-Key: (4096 bit)
                Modulus:
                    00:c0:82:e0:09:74:f6:db:e3:91:96:41:33:79:c4:
                    2b:82:ca:b2:03:14:bb:df:4a:e4:2a:2e:31:02:e6:
                    e0:c5:31:01:c3:ba:3c:92:77:76:c4:d3:69:a5:7c:
                    f9:7e:86:11:b4:c2:37:b1:69:7c:be:9d:b2:5c:49:
                    8c:b2:c7:07:dd:d6:f1:9a:82:78:94:4e:77:6b:70:
                    e9:03:58:28:eb:86:9a:d2:76:8b:d7:91:f8:cd:17:
                    16:6a:fc:70:dd:8e:d8:93:28:38:b4:ce:43:b8:a2:
                    84:91:70:65:d4:1f:6b:cb:17:ee:a8:18:98:32:a9:
                    9f:7b:88:64:40:83:39:74:c2:89:3a:76:b3:ea:85:
                    d3:47:84:54:6b:0c:2d:48:62:cc:17:5c:40:49:c9:
                    97:92:d6:f8:66:43:4d:4d:5b:32:eb:f5:a7:c6:d2:
                    8e:45:03:13:39:54:a6:1d:bb:fa:d4:8d:1b:5f:27:
                    f0:3b:87:f7:5c:32:1e:4a:64:bc:8c:d7:26:a5:b8:
                    f5:0c:9e:82:28:8e:17:bf:e0:d8:b1:21:2d:7b:b9:
                    0c:30:0b:f3:5d:9c:16:01:18:25:d8:02:91:c1:63:
                    98:18:b8:b7:44:10:db:d4:7e:d8:ba:fc:fe:5e:d3:
                    4f:6e:16:ac:8c:86:87:ac:bd:ec:2d:27:bc:fa:1a:
                    75:f6:ce:8b:c4:50:35:94:49:0f:7e:1c:a3:b5:01:
                    d6:19:ed:f9:c3:46:54:38:55:b7:2f:df:2e:7b:03:
                    bc:a0:30:21:e3:b1:e9:d1:7c:a7:70:88:d5:59:fb:
                    00:a9:02:94:71:d8:76:34:4a:64:a9:63:df:a2:01:
                    ef:8d:e2:4a:c7:fb:5b:d2:34:5e:b9:d5:17:82:25:
                    92:ad:55:50:17:c0:be:3e:c4:0e:a3:5a:83:ef:3d:
                    eb:94:6b:ff:36:3a:c3:55:83:df:fb:cb:08:59:15:
                    16:c9:df:c5:61:ff:6a:51:d5:5f:f0:ab:58:df:65:
                    25:22:d7:ed:f3:89:b4:31:3f:5e:b4:88:8f:56:48:
                    ab:d7:65:ae:e7:21:ec:18:23:24:2d:e0:09:ca:2b:
                    a7:da:02:06:c3:9a:ad:f4:b2:7d:d8:a2:cf:95:84:
                    b6:f2:65:be:a4:2f:7a:2d:ac:a2:92:63:50:4d:e7:
                    65:db:0b:51:53:9c:d2:11:e4:bd:7f:8a:0e:71:cd:
                    44:c4:67:88:0e:e8:0c:55:5b:ee:40:2e:df:8c:c4:
                    3f:4f:1f:cf:c8:20:fc:e2:2a:11:d9:75:16:1e:67:
                    41:15:a2:d5:95:52:4f:e9:60:62:19:b6:69:0b:67:
                    27:d6:89:02:2c:7a:99:ef:bb:8b:28:8b:b5:07:18:
                    80:bf:f9
                Exponent: 65537 (0x10001)
        X509v3 extensions:
            X509v3 Basic Constraints: 
                CA:FALSE
            Netscape Comment: 
                Easy-RSA Generated Certificate
            X509v3 Subject Key Identifier: 
                FF:17:69:7C:D4:B5:3B:F9:49:E2:1E:CD:AF:38:EB:37:D0:87:04:E4
            X509v3 Authority Key Identifier: 
                keyid:12:CD:60:04:D2:A0:80:9E:70:ED:C6:99:B8:7B:2C:C6:52:FD:19:A1
                DirName:/C=US/ST=OH/L=Columbus/O=VikingVPN/OU=MyOrganizationalUnit/CN=VikingVPN CA/name=EasyRSA/emailAddress=me@myhost.mydomain
                serial:CF:35:85:EE:80:BF:2A:3E

            X509v3 Extended Key Usage: 
                TLS Web Client Authentication
            X509v3 Key Usage: 
                Digital Signature
    Signature Algorithm: md5WithRSAEncryption
         5c:4b:7e:1b:cf:b1:10:69:78:70:a0:fd:e5:c3:d4:ca:f6:61:
         97:e9:59:8f:d0:9e:dd:78:26:3c:e0:2b:1c:8d:b5:bf:aa:5e:
         76:d3:54:49:7f:82:16:7d:77:44:1c:44:2b:ad:17:cc:b6:d0:
         bf:1c:13:4a:f5:fb:61:6a:07:8a:4c:04:c0:9a:0a:4b:6a:a9:
         e0:ab:f5:03:25:7a:1b:8a:39:da:81:36:ee:68:3b:60:30:2f:
         85:dd:6b:8e:40:b0:79:26:1a:7b:fb:05:2a:70:95:97:76:c4:
         6b:5c:51:b1:1f:c7:10:95:47:3f:8a:87:a8:f7:97:f4:5e:07:
         57:aa:52:28:d2:05:52:d0:73:89:9d:29:f2:b2:3d:96:62:65:
         39:f9:7f:61:b6:4b:70:01:ad:02:a8:4a:ec:af:14:4e:c5:e0:
         79:a4:10:c7:7c:45:55:6e:80:37:37:3e:7f:c8:dd:6f:7e:23:
         c8:62:69:d3:37:a7:a2:98:f4:f4:c1:eb:28:74:ce:11:9e:d0:
         ad:9f:49:97:98:18:8f:6f:bf:18:39:ad:a8:47:5c:a9:be:4a:
         2c:ad:d5:66:8f:3a:63:66:59:9a:5d:ef:df:59:55:e7:60:a2:
         0e:03:e9:9e:87:7b:2d:e7:7b:33:14:57:3b:51:9c:cc:19:2a:
         c2:57:23:18:57:a4:ae:71:24:3e:85:40:0a:4d:5e:e7:bb:01:
         68:4f:ca:38:ac:31:d3:45:47:8a:e9:87:f1:d4:a0:ce:50:6c:
         e3:49:69:88:ae:5b:56:06:72:9a:03:70:2a:11:6b:63:0a:62:
         06:07:13:12:c3:74:b0:38:89:ab:37:c0:81:01:ec:4f:e2:4b:
         45:93:3d:62:17:27:5c:8d:cc:51:4c:b9:36:74:d4:71:1d:56:
         75:bd:9a:16:ea:8b:9f:e3:11:74:19:9c:f0:ba:88:4b:8a:d8:
         ce:03:52:d7:e4:09:ad:98:93:e3:11:2f:99:60:7d:3e:86:65:
         3f:38:03:cb:78:b6:bc:b6:96:a0:35:ea:da:d2:f5:fc:f8:de:
         c4:ce:4a:2e:71:8a:8a:65:53:a8:eb:5c:a8:da:8c:b6:d3:94:
         4d:c5:6e:1c:9b:10:7f:94:fd:da:3c:ec:6a:ef:6f:f5:79:18:
         89:00:12:5c:2e:22:8f:6e:81:7d:36:df:f1:25:3c:58:2b:ca:
         e0:35:5e:fc:70:14:8f:34:3c:05:d9:22:bf:81:e8:53:15:14:
         ea:0e:23:77:5c:7e:6f:fb:1b:0f:4d:25:ae:dc:88:26:04:7a:
         1e:23:bf:57:0f:c3:b1:c1:0d:5c:a6:d8:09:1d:d1:5a:14:40:
         04:7f:23:6b:4b:66:26:d1
-----BEGIN CERTIFICATE-----
MIIGrTCCBJWgAwIBAgICE64wDQYJKoZIhvcNAQEEBQAwgawxCzAJBgNVBAYTAlVT
MQswCQYDVQQIEwJPSDERMA8GA1UEBxMIQ29sdW1idXMxEjAQBgNVBAoTCVZpa2lu
Z1ZQTjEdMBsGA1UECxMUTXlPcmdhbml6YXRpb25hbFVuaXQxFTATBgNVBAMTDFZp
a2luZ1ZQTiBDQTEQMA4GA1UEKRMHRWFzeVJTQTEhMB8GCSqGSIb3DQEJARYSbWVA
bXlob3N0Lm15ZG9tYWluMB4XDTE1MDQyMTEyMDE1NloXDTI1MDQxODEyMDE1Nlow
HzEdMBsGA1UEAxMUQ2xpZW50MTYyMENlcnRhYTJkMzAwggIiMA0GCSqGSIb3DQEB
AQUAA4ICDwAwggIKAoICAQDAguAJdPbb45GWQTN5xCuCyrIDFLvfSuQqLjEC5uDF
MQHDujySd3bE02mlfPl+hhG0wjexaXy+nbJcSYyyxwfd1vGagniUTndrcOkDWCjr
hprSdovXkfjNFxZq/HDdjtiTKDi0zkO4ooSRcGXUH2vLF+6oGJgyqZ97iGRAgzl0
wok6drPqhdNHhFRrDC1IYswXXEBJyZeS1vhmQ01NWzLr9afG0o5FAxM5VKYdu/rU
jRtfJ/A7h/dcMh5KZLyM1yaluPUMnoIojhe/4NixIS17uQwwC/NdnBYBGCXYApHB
Y5gYuLdEENvUfti6/P5e009uFqyMhoesvewtJ7z6GnX2zovEUDWUSQ9+HKO1AdYZ
7fnDRlQ4Vbcv3y57A7ygMCHjsenRfKdwiNVZ+wCpApRx2HY0SmSpY9+iAe+N4krH
+1vSNF651ReCJZKtVVAXwL4+xA6jWoPvPeuUa/82OsNVg9/7ywhZFRbJ38Vh/2pR
1V/wq1jfZSUi1+3zibQxP160iI9WSKvXZa7nIewYIyQt4AnKK6faAgbDmq30sn3Y
os+VhLbyZb6kL3otrKKSY1BN52XbC1FTnNIR5L1/ig5xzUTEZ4gO6AxVW+5ALt+M
xD9PH8/IIPziKhHZdRYeZ0EVotWVUk/pYGIZtmkLZyfWiQIsepnvu4soi7UHGIC/
+QIDAQABo4IBYzCCAV8wCQYDVR0TBAIwADAtBglghkgBhvhCAQ0EIBYeRWFzeS1S
U0EgR2VuZXJhdGVkIENlcnRpZmljYXRlMB0GA1UdDgQWBBT/F2l81LU7+UniHs2v
OOs30IcE5DCB4QYDVR0jBIHZMIHWgBQSzWAE0qCAnnDtxpm4eyzGUv0ZoaGBsqSB
rzCBrDELMAkGA1UEBhMCVVMxCzAJBgNVBAgTAk9IMREwDwYDVQQHEwhDb2x1bWJ1
czESMBAGA1UEChMJVmlraW5nVlBOMR0wGwYDVQQLExRNeU9yZ2FuaXphdGlvbmFs
VW5pdDEVMBMGA1UEAxMMVmlraW5nVlBOIENBMRAwDgYDVQQpEwdFYXN5UlNBMSEw
HwYJKoZIhvcNAQkBFhJtZUBteWhvc3QubXlkb21haW6CCQDPNYXugL8qPjATBgNV
HSUEDDAKBggrBgEFBQcDAjALBgNVHQ8EBAMCB4AwDQYJKoZIhvcNAQEEBQADggIB
AFxLfhvPsRBpeHCg/eXD1Mr2YZfpWY/Qnt14JjzgKxyNtb+qXnbTVEl/ghZ9d0Qc
RCutF8y20L8cE0r1+2FqB4pMBMCaCktqqeCr9QMlehuKOdqBNu5oO2AwL4Xda45A
sHkmGnv7BSpwlZd2xGtcUbEfxxCVRz+Kh6j3l/ReB1eqUijSBVLQc4mdKfKyPZZi
ZTn5f2G2S3ABrQKoSuyvFE7F4HmkEMd8RVVugDc3Pn/I3W9+I8hiadM3p6KY9PTB
6yh0zhGe0K2fSZeYGI9vvxg5rahHXKm+Siyt1WaPOmNmWZpd799ZVedgog4D6Z6H
ey3nezMUVztRnMwZKsJXIxhXpK5xJD6FQApNXue7AWhPyjisMdNFR4rph/HUoM5Q
bONJaYiuW1YGcpoDcCoRa2MKYgYHExLDdLA4ias3wIEB7E/iS0WTPWIXJ1yNzFFM
uTZ01HEdVnW9mhbqi5/jEXQZnPC6iEuK2M4DUtfkCa2Yk+MRL5lgfT6GZT84A8t4
try2lqA16trS9fz43sTOSi5xioplU6jrXKjajLbTlE3FbhybEH+U/do87Grvb/V5
GIkAElwuIo9ugX023/ElPFgryuA1XvxwFI80PAXZIr+B6FMVFOoOI3dcfm/7Gw9N
Ja7ciCYEeh4jv1cPw7HBDVym2Akd0VoUQAR/I2tLZibR
-----END CERTIFICATE-----
