Certificate:
    Data:
        Version: 3 (0x2)
        Serial Number: 9382 (0x24a6)
    Signature Algorithm: sha256WithRSAEncryption
        Issuer: C=US, ST=OH, L=Columbus, O=VikingVPN, OU=MyOrganizationalUnit, CN=VikingVPN CA/name=EasyRSA/emailAddress=me@myhost.mydomain
        Validity
            Not Before: Nov  2 19:38:18 2016 GMT
            Not After : Oct 31 19:38:18 2026 GMT
        Subject: CN=Client2571Certc185af
        Subject Public Key Info:
            Public Key Algorithm: rsaEncryption
                Public-Key: (4096 bit)
                Modulus:
                    00:d5:b6:b6:67:7a:1b:c4:2f:2c:97:70:ce:1b:e5:
                    6f:d2:4d:da:aa:62:8a:58:3f:c0:4d:15:0b:98:0a:
                    73:b7:85:0e:ed:7b:5f:ad:04:c7:32:d5:1a:2c:76:
                    b4:4c:e7:b0:e3:8a:f2:53:25:6c:ef:63:a5:6f:5d:
                    f8:e6:e4:05:a2:d5:ba:38:b9:84:85:f6:1f:f4:33:
                    b9:56:c0:b4:89:90:83:ef:fa:08:ea:92:4c:75:da:
                    1f:62:fc:c6:45:7c:c3:90:89:40:5c:05:c8:36:b6:
                    7b:f6:52:c5:b8:9a:ec:9a:8e:64:1e:4d:c0:53:1f:
                    f5:97:ee:cf:84:6a:6a:c1:af:01:e6:0d:08:39:f9:
                    8d:a8:b6:e5:13:43:ad:f9:f4:86:55:4c:03:d9:26:
                    c2:1f:4a:74:21:89:45:4a:92:fc:41:a5:62:60:46:
                    08:3a:2a:8c:b2:59:e0:fe:36:95:de:30:11:05:a3:
                    e0:ec:fe:b7:a5:19:d9:56:93:d6:27:82:1f:b9:2c:
                    60:2c:0a:78:b7:61:19:e3:1d:09:e6:93:98:3a:4b:
                    a1:a8:20:af:44:20:b4:93:47:91:84:de:8c:62:50:
                    11:d2:64:31:db:1b:7f:b2:43:7a:ad:8a:ae:bf:fb:
                    b8:1a:4c:53:f8:1c:63:c5:69:2a:98:68:2c:ca:10:
                    ff:3e:2c:4c:d0:ef:a2:00:7f:e8:3a:e9:8f:52:b7:
                    f0:30:0e:91:d0:da:70:51:3e:2c:34:a9:94:03:07:
                    69:ea:a6:a3:b4:4d:30:28:82:4d:80:b5:7b:00:7f:
                    62:63:af:3a:41:88:b0:a1:db:81:33:82:ae:6a:83:
                    85:12:25:f1:08:71:f8:c8:41:a9:03:01:24:76:0a:
                    dc:e7:1a:27:8d:27:9f:a2:19:f6:ec:2c:96:37:cb:
                    f1:7a:20:ba:5b:37:c2:9a:e3:a2:f8:dd:57:2b:f7:
                    99:8a:60:6a:a4:33:5b:26:f6:0a:78:8a:92:78:fd:
                    20:29:98:c3:29:05:26:e7:6b:f6:24:58:03:0c:41:
                    d5:39:a9:6e:f3:ad:80:fa:fd:87:93:80:36:eb:c6:
                    a1:09:03:aa:e9:d7:09:17:f4:17:69:b9:7e:bd:e4:
                    bc:f7:dd:e7:27:c1:8b:5c:0c:48:56:7d:ec:ab:24:
                    ad:2e:fd:5a:98:e0:a9:18:17:ba:ff:e4:b4:ac:a5:
                    e1:03:7f:1f:ca:71:7b:dd:02:4d:4b:9c:e7:fa:90:
                    b3:8d:2f:61:9f:a7:6b:ac:4d:80:ce:52:b3:e8:a6:
                    00:e6:e9:18:14:31:ae:9e:05:d6:cf:6b:ee:bf:31:
                    be:b3:db:b3:52:48:c5:86:86:78:96:1c:c3:78:23:
                    55:93:47
                Exponent: 65537 (0x10001)
        X509v3 extensions:
            X509v3 Basic Constraints: 
                CA:FALSE
            Netscape Comment: 
                Easy-RSA Generated Certificate
            X509v3 Subject Key Identifier: 
                93:F4:41:C0:9D:B2:3F:BE:01:E3:A8:2B:B1:0A:A3:AB:F3:18:26:D7
            X509v3 Authority Key Identifier: 
                keyid:12:CD:60:04:D2:A0:80:9E:70:ED:C6:99:B8:7B:2C:C6:52:FD:19:A1
                DirName:/C=US/ST=OH/L=Columbus/O=VikingVPN/OU=MyOrganizationalUnit/CN=VikingVPN CA/name=EasyRSA/emailAddress=me@myhost.mydomain
                serial:CF:35:85:EE:80:BF:2A:3E

            X509v3 Extended Key Usage: 
                TLS Web Client Authentication
            X509v3 Key Usage: 
                Digital Signature
    Signature Algorithm: sha256WithRSAEncryption
         0e:5a:1d:22:13:71:b4:32:0a:91:89:14:fb:92:63:3f:98:23:
         12:d9:4d:88:be:d9:a6:71:49:82:53:7d:3c:21:ce:c2:1a:04:
         25:a5:d0:2d:1d:e2:c3:ff:ba:7e:25:22:f6:3c:8d:67:44:44:
         e9:c8:f8:6e:4c:06:d2:e9:e3:69:d7:bc:86:5a:d2:d9:4d:2e:
         57:b5:68:0c:4c:e0:d9:24:e0:1c:46:3f:a5:1d:cc:1c:dd:66:
         0d:5c:d1:1b:e5:96:0b:78:d2:d1:61:c2:c0:1b:99:43:dd:6a:
         07:55:e8:2b:b0:2c:45:e1:68:5e:04:84:26:14:5d:a3:a7:14:
         30:a9:71:b2:37:be:e7:03:5d:be:a0:c4:ad:f0:2c:37:d7:fb:
         db:2f:66:d2:4c:42:70:f0:b1:c2:c1:16:d1:0f:d2:d3:d9:ef:
         5c:a3:1c:87:81:ba:2b:c1:c8:0e:d2:e7:5e:46:67:a7:05:5a:
         b5:84:d4:dd:ea:f6:01:ed:fd:1f:0a:fd:f0:95:f2:43:8f:e8:
         e7:02:bd:e6:5f:f3:bf:73:26:7f:e7:8e:34:47:e0:54:57:5b:
         63:5d:b1:fe:0c:01:46:56:c8:49:53:b4:28:b0:80:f2:a4:30:
         c9:05:d1:1a:a3:b8:ed:5d:8f:b3:9d:ae:fe:82:ba:66:d4:ad:
         cb:a0:a4:04:24:b3:12:aa:3a:22:bb:e9:b8:95:0d:ba:b1:8d:
         35:87:17:08:94:82:2f:33:26:9e:59:b9:b7:9b:a7:c3:13:18:
         57:71:56:be:65:39:ee:5c:43:0f:37:d5:9b:7f:44:04:28:78:
         af:b3:e9:7c:e9:6d:e7:ed:3c:5a:a7:6b:bf:b3:54:bc:cd:fe:
         47:8d:cf:71:27:36:a2:18:93:f0:61:42:91:10:3d:cc:58:22:
         e7:ad:da:c1:58:12:35:17:9b:81:37:1e:ba:26:af:4d:63:e1:
         63:43:39:32:9f:d0:f3:b7:2a:73:21:b2:5e:85:62:41:3f:ba:
         18:8e:54:90:85:8a:fe:d6:fc:c7:96:bb:f2:db:fc:af:48:71:
         8b:c4:ee:be:d8:00:c8:63:3f:2c:1c:7e:01:27:ec:a3:e9:ea:
         2f:bd:ec:3f:bf:42:d0:63:59:23:83:1c:33:7c:d7:5c:4c:f2:
         3f:44:26:f3:a8:cd:3b:59:63:fc:e6:cb:ef:6a:a3:35:11:2c:
         ac:29:bd:f9:cc:a7:34:8d:3f:07:ba:ff:31:09:1d:e9:0f:ce:
         87:a8:00:e1:6f:5c:6f:2a:57:db:d7:12:93:e8:e9:f3:0b:c8:
         a8:62:6c:8a:35:26:b3:ab:99:d2:1e:f2:57:f3:ca:4c:c2:8e:
         d6:d3:4e:64:27:53:26:58
-----BEGIN CERTIFICATE-----
MIIGrTCCBJWgAwIBAgICJKYwDQYJKoZIhvcNAQELBQAwgawxCzAJBgNVBAYTAlVT
MQswCQYDVQQIEwJPSDERMA8GA1UEBxMIQ29sdW1idXMxEjAQBgNVBAoTCVZpa2lu
Z1ZQTjEdMBsGA1UECxMUTXlPcmdhbml6YXRpb25hbFVuaXQxFTATBgNVBAMTDFZp
a2luZ1ZQTiBDQTEQMA4GA1UEKRMHRWFzeVJTQTEhMB8GCSqGSIb3DQEJARYSbWVA
bXlob3N0Lm15ZG9tYWluMB4XDTE2MTEwMjE5MzgxOFoXDTI2MTAzMTE5MzgxOFow
HzEdMBsGA1UEAxMUQ2xpZW50MjU3MUNlcnRjMTg1YWYwggIiMA0GCSqGSIb3DQEB
AQUAA4ICDwAwggIKAoICAQDVtrZnehvELyyXcM4b5W/STdqqYopYP8BNFQuYCnO3
hQ7te1+tBMcy1RosdrRM57DjivJTJWzvY6VvXfjm5AWi1bo4uYSF9h/0M7lWwLSJ
kIPv+gjqkkx12h9i/MZFfMOQiUBcBcg2tnv2UsW4muyajmQeTcBTH/WX7s+EamrB
rwHmDQg5+Y2otuUTQ6359IZVTAPZJsIfSnQhiUVKkvxBpWJgRgg6KoyyWeD+NpXe
MBEFo+Ds/relGdlWk9Yngh+5LGAsCni3YRnjHQnmk5g6S6GoIK9EILSTR5GE3oxi
UBHSZDHbG3+yQ3qtiq6/+7gaTFP4HGPFaSqYaCzKEP8+LEzQ76IAf+g66Y9St/Aw
DpHQ2nBRPiw0qZQDB2nqpqO0TTAogk2AtXsAf2JjrzpBiLCh24Ezgq5qg4USJfEI
cfjIQakDASR2CtznGieNJ5+iGfbsLJY3y/F6ILpbN8Ka46L43Vcr95mKYGqkM1sm
9gp4ipJ4/SApmMMpBSbna/YkWAMMQdU5qW7zrYD6/YeTgDbrxqEJA6rp1wkX9Bdp
uX695Lz33ecnwYtcDEhWfeyrJK0u/VqY4KkYF7r/5LSspeEDfx/KcXvdAk1LnOf6
kLONL2Gfp2usTYDOUrPopgDm6RgUMa6eBdbPa+6/Mb6z27NSSMWGhniWHMN4I1WT
RwIDAQABo4IBYzCCAV8wCQYDVR0TBAIwADAtBglghkgBhvhCAQ0EIBYeRWFzeS1S
U0EgR2VuZXJhdGVkIENlcnRpZmljYXRlMB0GA1UdDgQWBBST9EHAnbI/vgHjqCux
CqOr8xgm1zCB4QYDVR0jBIHZMIHWgBQSzWAE0qCAnnDtxpm4eyzGUv0ZoaGBsqSB
rzCBrDELMAkGA1UEBhMCVVMxCzAJBgNVBAgTAk9IMREwDwYDVQQHEwhDb2x1bWJ1
czESMBAGA1UEChMJVmlraW5nVlBOMR0wGwYDVQQLExRNeU9yZ2FuaXphdGlvbmFs
VW5pdDEVMBMGA1UEAxMMVmlraW5nVlBOIENBMRAwDgYDVQQpEwdFYXN5UlNBMSEw
HwYJKoZIhvcNAQkBFhJtZUBteWhvc3QubXlkb21haW6CCQDPNYXugL8qPjATBgNV
HSUEDDAKBggrBgEFBQcDAjALBgNVHQ8EBAMCB4AwDQYJKoZIhvcNAQELBQADggIB
AA5aHSITcbQyCpGJFPuSYz+YIxLZTYi+2aZxSYJTfTwhzsIaBCWl0C0d4sP/un4l
IvY8jWdEROnI+G5MBtLp42nXvIZa0tlNLle1aAxM4Nkk4BxGP6UdzBzdZg1c0Rvl
lgt40tFhwsAbmUPdagdV6CuwLEXhaF4EhCYUXaOnFDCpcbI3vucDXb6gxK3wLDfX
+9svZtJMQnDwscLBFtEP0tPZ71yjHIeBuivByA7S515GZ6cFWrWE1N3q9gHt/R8K
/fCV8kOP6OcCveZf879zJn/njjRH4FRXW2Ndsf4MAUZWyElTtCiwgPKkMMkF0Rqj
uO1dj7Odrv6CumbUrcugpAQksxKqOiK76biVDbqxjTWHFwiUgi8zJp5Zubebp8MT
GFdxVr5lOe5cQw831Zt/RAQoeK+z6XzpbeftPFqna7+zVLzN/keNz3EnNqIYk/Bh
QpEQPcxYIuet2sFYEjUXm4E3Hromr01j4WNDOTKf0PO3KnMhsl6FYkE/uhiOVJCF
iv7W/MeWu/Lb/K9IcYvE7r7YAMhjPywcfgEn7KPp6i+97D+/QtBjWSODHDN811xM
8j9EJvOozTtZY/zmy+9qozURLKwpvfnMpzSNPwe6/zEJHekPzoeoAOFvXG8qV9vX
EpPo6fMLyKhibIo1JrOrmdIe8lfzykzCjtbTTmQnUyZY
-----END CERTIFICATE-----
