Certificate:
    Data:
        Version: 3 (0x2)
        Serial Number: 5110 (0x13f6)
    Signature Algorithm: md5WithRSAEncryption
        Issuer: C=US, ST=OH, L=Columbus, O=VikingVPN, OU=MyOrganizationalUnit, CN=VikingVPN CA/name=EasyRSA/emailAddress=me@myhost.mydomain
        Validity
            Not Before: Apr 27 22:37:15 2015 GMT
            Not After : Apr 24 22:37:15 2025 GMT
        Subject: CN=Client336Cert5da1cf
        Subject Public Key Info:
            Public Key Algorithm: rsaEncryption
                Public-Key: (4096 bit)
                Modulus:
                    00:a8:1f:e1:80:51:35:46:b1:5f:c9:78:b9:0e:c4:
                    99:bc:2b:54:7b:08:10:78:fb:c6:c9:9c:ce:da:a7:
                    43:87:8d:91:ab:1b:56:6a:78:b9:6e:27:6c:86:dc:
                    9a:96:74:8f:00:b0:22:1a:56:e2:5a:cb:9b:99:c3:
                    c3:19:3c:4c:b4:ef:c5:4e:82:33:78:c9:73:a5:de:
                    49:04:11:25:64:be:5c:6f:c6:74:35:87:b9:e6:95:
                    cc:45:4c:51:a7:6c:cf:10:ec:de:9d:07:00:99:ef:
                    d9:31:d2:5a:4b:6f:a8:b4:e3:2d:4f:8f:c3:f6:d8:
                    b7:23:f3:5a:68:ed:0e:6e:3e:5a:3e:1d:fb:f8:a2:
                    e6:49:4f:f8:ff:20:19:b0:63:5b:aa:88:e1:a5:c4:
                    00:42:ca:21:48:70:82:8c:ac:3b:44:f0:71:ce:4d:
                    19:ba:d1:1f:e1:e6:c5:81:6b:e9:d2:1c:ae:2a:d0:
                    c0:78:e7:3f:f8:b1:f9:f1:eb:02:b1:1d:31:19:d2:
                    43:27:f3:0f:43:19:73:cb:f6:dc:9e:be:4a:9a:d2:
                    40:d8:33:45:86:4f:5f:32:a2:64:fc:fc:b8:ca:f4:
                    1a:36:14:cd:c6:2c:23:9e:1d:05:d1:64:74:bc:c1:
                    7c:28:2e:fc:10:99:1c:77:a4:ed:b8:da:3a:fe:d2:
                    55:90:d6:87:88:75:4f:4a:de:28:c6:fd:0f:26:13:
                    10:24:a6:6b:a5:a6:23:fd:22:97:a9:d2:fc:6e:f1:
                    10:1f:3c:72:97:7f:84:86:7c:4f:96:ab:3a:c7:32:
                    ae:5b:c6:3e:9a:f9:55:ae:b5:9f:8d:e3:8d:3a:aa:
                    1c:16:88:30:c4:6e:95:b0:68:6e:36:cc:52:cc:30:
                    eb:da:f0:bf:ba:c8:dc:43:46:9e:c2:4b:67:f0:0d:
                    4a:dd:5e:99:7c:ce:22:62:51:35:19:ef:fc:d5:d2:
                    e4:30:55:01:61:30:11:8d:dc:80:b1:0b:23:c7:0c:
                    63:12:4e:27:3f:db:cc:b3:c1:58:59:5c:23:61:09:
                    75:b5:e9:17:28:51:20:ed:80:6b:25:8a:4d:5f:02:
                    25:06:4c:57:b6:91:8f:57:07:d9:97:39:60:be:ab:
                    50:da:d1:4d:7d:2e:62:e3:ee:8d:5a:14:81:84:f7:
                    bb:82:aa:cf:f4:5c:0b:6b:b2:ff:52:2e:a4:5d:80:
                    d2:b3:24:fe:2a:4d:c3:1e:23:ad:d4:b7:4e:ab:c1:
                    58:52:29:b2:97:de:9b:34:9c:2d:bd:d9:e9:81:96:
                    3a:ca:52:97:b2:8a:6b:09:c6:13:3a:41:cb:8f:19:
                    3c:d3:07:9c:5f:72:62:5c:37:83:e5:a5:48:94:47:
                    21:3d:25
                Exponent: 65537 (0x10001)
        X509v3 extensions:
            X509v3 Basic Constraints: 
                CA:FALSE
            Netscape Comment: 
                Easy-RSA Generated Certificate
            X509v3 Subject Key Identifier: 
                F1:FD:85:99:7E:C5:80:18:C5:27:83:05:76:DB:A0:FA:18:13:AC:1A
            X509v3 Authority Key Identifier: 
                keyid:12:CD:60:04:D2:A0:80:9E:70:ED:C6:99:B8:7B:2C:C6:52:FD:19:A1
                DirName:/C=US/ST=OH/L=Columbus/O=VikingVPN/OU=MyOrganizationalUnit/CN=VikingVPN CA/name=EasyRSA/emailAddress=me@myhost.mydomain
                serial:CF:35:85:EE:80:BF:2A:3E

            X509v3 Extended Key Usage: 
                TLS Web Client Authentication
            X509v3 Key Usage: 
                Digital Signature
    Signature Algorithm: md5WithRSAEncryption
         d6:ae:62:2b:1a:3b:ad:d5:b9:d9:bc:4e:09:32:b6:3f:65:a0:
         9f:58:ac:cf:f5:bd:4d:86:85:28:dd:b5:38:24:1f:70:03:db:
         1a:38:53:07:b9:c6:40:1b:38:4f:ec:9d:b8:86:c6:1b:9e:bb:
         e6:0a:b9:f4:5b:ac:fa:98:ce:b8:39:00:f8:7c:c0:5f:31:a7:
         fa:bc:89:7d:e9:67:75:d1:16:ad:44:f7:0a:56:35:fe:2b:b1:
         34:40:ed:d0:81:f3:70:e2:64:2e:d6:dd:22:3d:45:a7:35:23:
         89:fb:e0:b5:f9:f9:35:8f:e0:85:9e:05:7f:62:4a:c4:0a:3b:
         0a:3e:1a:14:86:22:40:26:5d:81:e9:5c:da:b3:d3:92:47:c5:
         99:4f:26:34:8e:dc:d2:14:7d:01:9a:b9:5e:e7:3a:b1:2c:b4:
         a5:56:a3:e4:03:0a:c1:11:b1:0c:34:99:95:e2:fc:ca:eb:e7:
         bb:a0:a2:d5:eb:8f:06:ba:70:c8:dd:11:1f:da:85:83:7c:9d:
         5b:64:f4:9f:3f:7f:96:6d:4e:fc:31:c7:df:88:c6:9c:7b:bb:
         a8:cf:b0:e4:f6:9c:96:3b:e1:d5:c8:0a:b4:70:a2:76:70:be:
         83:9b:af:8f:e7:f8:4a:72:ed:bd:92:f9:f6:13:f6:5e:b4:38:
         03:9e:db:75:0b:61:98:df:dc:31:ba:b6:a7:d2:c3:41:d8:84:
         e1:cd:81:9b:b4:66:d0:e2:6c:7c:5f:c6:cb:38:2e:a8:5d:a4:
         11:7c:61:a6:60:d2:e9:23:69:8b:9d:93:cc:e1:4e:57:9b:49:
         c6:8f:cf:77:21:6c:80:7c:fb:4a:60:3f:00:72:53:af:df:35:
         b2:09:7c:20:3f:33:46:2d:dd:cc:b2:09:fe:ab:40:0b:5e:c6:
         ad:1b:1d:50:98:83:19:2d:27:c1:d7:5d:4d:df:18:cc:16:23:
         51:ba:3e:54:52:c3:20:c2:be:0d:40:16:1f:fa:db:2b:bb:2a:
         28:17:3c:43:0d:89:b0:40:23:80:f0:3b:34:76:1d:0c:14:db:
         b3:ea:1b:99:6b:91:1a:d3:41:90:e6:18:c5:34:ab:61:43:93:
         ca:67:23:8c:8b:2c:26:28:44:20:ff:e1:a3:f8:87:5f:e8:f4:
         af:bc:9e:88:e4:e5:0d:8c:2e:b3:c6:22:79:91:76:18:49:8d:
         51:f3:4e:40:5d:2b:99:09:c5:34:18:99:62:aa:80:cd:02:7b:
         6c:54:4e:ca:1f:fd:14:94:cb:e5:b0:18:3e:69:59:b3:8f:06:
         02:41:02:a6:13:08:bf:66:d5:bb:f9:77:eb:aa:83:59:d6:71:
         61:0e:1c:99:7c:b6:3f:f3
-----BEGIN CERTIFICATE-----
MIIGrDCCBJSgAwIBAgICE/YwDQYJKoZIhvcNAQEEBQAwgawxCzAJBgNVBAYTAlVT
MQswCQYDVQQIEwJPSDERMA8GA1UEBxMIQ29sdW1idXMxEjAQBgNVBAoTCVZpa2lu
Z1ZQTjEdMBsGA1UECxMUTXlPcmdhbml6YXRpb25hbFVuaXQxFTATBgNVBAMTDFZp
a2luZ1ZQTiBDQTEQMA4GA1UEKRMHRWFzeVJTQTEhMB8GCSqGSIb3DQEJARYSbWVA
bXlob3N0Lm15ZG9tYWluMB4XDTE1MDQyNzIyMzcxNVoXDTI1MDQyNDIyMzcxNVow
HjEcMBoGA1UEAxMTQ2xpZW50MzM2Q2VydDVkYTFjZjCCAiIwDQYJKoZIhvcNAQEB
BQADggIPADCCAgoCggIBAKgf4YBRNUaxX8l4uQ7EmbwrVHsIEHj7xsmcztqnQ4eN
kasbVmp4uW4nbIbcmpZ0jwCwIhpW4lrLm5nDwxk8TLTvxU6CM3jJc6XeSQQRJWS+
XG/GdDWHueaVzEVMUadszxDs3p0HAJnv2THSWktvqLTjLU+Pw/bYtyPzWmjtDm4+
Wj4d+/ii5klP+P8gGbBjW6qI4aXEAELKIUhwgoysO0Twcc5NGbrRH+HmxYFr6dIc
rirQwHjnP/ix+fHrArEdMRnSQyfzD0MZc8v23J6+SprSQNgzRYZPXzKiZPz8uMr0
GjYUzcYsI54dBdFkdLzBfCgu/BCZHHek7bjaOv7SVZDWh4h1T0reKMb9DyYTECSm
a6WmI/0il6nS/G7xEB88cpd/hIZ8T5arOscyrlvGPpr5Va61n43jjTqqHBaIMMRu
lbBobjbMUsww69rwv7rI3ENGnsJLZ/ANSt1emXzOImJRNRnv/NXS5DBVAWEwEY3c
gLELI8cMYxJOJz/bzLPBWFlcI2EJdbXpFyhRIO2AayWKTV8CJQZMV7aRj1cH2Zc5
YL6rUNrRTX0uYuPujVoUgYT3u4Kqz/RcC2uy/1IupF2A0rMk/ipNwx4jrdS3TqvB
WFIpspfemzScLb3Z6YGWOspSl7KKawnGEzpBy48ZPNMHnF9yYlw3g+WlSJRHIT0l
AgMBAAGjggFjMIIBXzAJBgNVHRMEAjAAMC0GCWCGSAGG+EIBDQQgFh5FYXN5LVJT
QSBHZW5lcmF0ZWQgQ2VydGlmaWNhdGUwHQYDVR0OBBYEFPH9hZl+xYAYxSeDBXbb
oPoYE6waMIHhBgNVHSMEgdkwgdaAFBLNYATSoICecO3Gmbh7LMZS/RmhoYGypIGv
MIGsMQswCQYDVQQGEwJVUzELMAkGA1UECBMCT0gxETAPBgNVBAcTCENvbHVtYnVz
MRIwEAYDVQQKEwlWaWtpbmdWUE4xHTAbBgNVBAsTFE15T3JnYW5pemF0aW9uYWxV
bml0MRUwEwYDVQQDEwxWaWtpbmdWUE4gQ0ExEDAOBgNVBCkTB0Vhc3lSU0ExITAf
BgkqhkiG9w0BCQEWEm1lQG15aG9zdC5teWRvbWFpboIJAM81he6Avyo+MBMGA1Ud
JQQMMAoGCCsGAQUFBwMCMAsGA1UdDwQEAwIHgDANBgkqhkiG9w0BAQQFAAOCAgEA
1q5iKxo7rdW52bxOCTK2P2Wgn1isz/W9TYaFKN21OCQfcAPbGjhTB7nGQBs4T+yd
uIbGG5675gq59Fus+pjOuDkA+HzAXzGn+ryJfelnddEWrUT3ClY1/iuxNEDt0IHz
cOJkLtbdIj1FpzUjifvgtfn5NY/ghZ4Ff2JKxAo7Cj4aFIYiQCZdgelc2rPTkkfF
mU8mNI7c0hR9AZq5Xuc6sSy0pVaj5AMKwRGxDDSZleL8yuvnu6Ci1euPBrpwyN0R
H9qFg3ydW2T0nz9/lm1O/DHH34jGnHu7qM+w5Pacljvh1cgKtHCidnC+g5uvj+f4
SnLtvZL59hP2XrQ4A57bdQthmN/cMbq2p9LDQdiE4c2Bm7Rm0OJsfF/GyzguqF2k
EXxhpmDS6SNpi52TzOFOV5tJxo/PdyFsgHz7SmA/AHJTr981sgl8ID8zRi3dzLIJ
/qtAC17GrRsdUJiDGS0nwdddTd8YzBYjUbo+VFLDIMK+DUAWH/rbK7sqKBc8Qw2J
sEAjgPA7NHYdDBTbs+obmWuRGtNBkOYYxTSrYUOTymcjjIssJihEIP/ho/iHX+j0
r7yeiOTlDYwus8YieZF2GEmNUfNOQF0rmQnFNBiZYqqAzQJ7bFROyh/9FJTL5bAY
PmlZs48GAkECphMIv2bVu/l366qDWdZxYQ4cmXy2P/M=
-----END CERTIFICATE-----
