Certificate:
    Data:
        Version: 3 (0x2)
        Serial Number: 11171 (0x2ba3)
    Signature Algorithm: sha256WithRSAEncryption
        Issuer: C=US, ST=OH, L=Columbus, O=VikingVPN, OU=MyOrganizationalUnit, CN=VikingVPN CA/name=EasyRSA/emailAddress=me@myhost.mydomain
        Validity
            Not Before: Jun 24 08:06:31 2017 GMT
            Not After : Jun 22 08:06:31 2027 GMT
        Subject: CN=Client2781Cert67babe
        Subject Public Key Info:
            Public Key Algorithm: rsaEncryption
                Public-Key: (4096 bit)
                Modulus:
                    00:b6:4e:e9:84:46:f4:0e:e7:7e:c8:83:2d:d7:03:
                    32:11:9b:d0:76:8d:3f:f9:f7:a8:37:3b:34:47:e7:
                    e5:9c:2b:0a:b0:35:25:6b:cd:5e:8d:ab:83:70:bb:
                    cf:6b:c0:3b:8e:f3:89:ee:d1:65:d6:2c:89:58:7c:
                    c3:b3:a7:78:05:16:4a:5c:ac:62:26:47:ba:a0:f4:
                    59:07:70:c8:c3:64:55:31:ea:77:53:d7:86:1e:05:
                    29:b9:12:a5:89:2e:d3:81:40:da:a6:10:e3:d5:21:
                    fa:d2:6f:f0:7c:ac:5f:49:1f:31:84:b4:0d:16:9a:
                    1c:66:5c:a2:30:20:dd:22:47:e1:b1:a3:c2:82:f2:
                    41:07:ec:98:2c:6e:f9:e0:f6:03:f5:3c:d1:68:fa:
                    d1:11:12:3a:b3:73:6a:36:78:d2:cf:62:1c:eb:41:
                    1b:20:14:4d:d3:d7:d8:45:96:8c:23:32:55:c3:d4:
                    51:5b:9c:07:94:0d:a2:85:91:3c:7f:b3:07:4a:00:
                    19:4d:e2:47:79:a2:6c:65:f8:b3:a2:94:c2:88:76:
                    18:62:23:b9:06:c7:1d:49:5c:9e:5f:44:e6:14:d6:
                    d3:1c:d4:99:e2:79:32:4e:5a:aa:a3:18:34:df:a1:
                    e7:c2:ad:d5:0b:55:c8:6c:42:17:85:eb:7a:2d:50:
                    f3:07:6d:0d:ba:02:f7:7f:7b:a2:b1:19:fd:e2:64:
                    bc:8e:3a:37:7d:47:16:a0:36:f8:44:7d:5a:16:aa:
                    05:37:45:d3:68:dd:18:ee:6c:ed:61:07:dd:7a:11:
                    1a:6e:8e:72:db:6d:0e:b4:44:69:2c:17:da:34:7e:
                    96:5f:d3:78:3e:f3:c7:5b:cf:19:af:94:e9:79:b8:
                    fc:3a:d8:84:c1:25:fb:ab:3e:72:01:93:f7:48:1b:
                    58:a7:5c:e2:7b:29:74:17:19:0f:ac:17:a2:03:b8:
                    81:c9:75:66:fa:db:42:51:6e:f1:57:3b:0e:6b:6d:
                    75:8a:71:11:f5:6f:9d:29:69:ce:e6:46:5d:f5:21:
                    34:c4:2d:43:36:97:4c:bb:dd:7a:c4:e8:e4:f5:f5:
                    76:66:2e:1d:be:af:5d:31:d0:fb:f1:0b:f9:27:aa:
                    05:c7:d8:3c:32:b2:f1:15:53:7e:81:a9:41:c8:f7:
                    e4:66:c1:3e:26:3d:be:13:82:b0:9c:08:ac:1a:e9:
                    53:d2:c5:75:9d:04:87:5a:5c:b4:65:da:6e:ec:57:
                    7e:66:38:7c:c1:e0:64:69:0f:6d:11:b5:44:1a:f4:
                    74:45:17:44:08:d2:0a:cf:35:82:ea:49:50:ae:dc:
                    bb:46:8b:c6:5c:ae:0d:15:18:fd:19:da:af:66:53:
                    6d:be:95
                Exponent: 65537 (0x10001)
        X509v3 extensions:
            X509v3 Basic Constraints: 
                CA:FALSE
            Netscape Comment: 
                Easy-RSA Generated Certificate
            X509v3 Subject Key Identifier: 
                FC:9E:88:B5:DB:82:A0:67:23:79:7D:D1:B0:EC:09:C5:BB:D1:E5:7D
            X509v3 Authority Key Identifier: 
                keyid:12:CD:60:04:D2:A0:80:9E:70:ED:C6:99:B8:7B:2C:C6:52:FD:19:A1
                DirName:/C=US/ST=OH/L=Columbus/O=VikingVPN/OU=MyOrganizationalUnit/CN=VikingVPN CA/name=EasyRSA/emailAddress=me@myhost.mydomain
                serial:CF:35:85:EE:80:BF:2A:3E

            X509v3 Extended Key Usage: 
                TLS Web Client Authentication
            X509v3 Key Usage: 
                Digital Signature
    Signature Algorithm: sha256WithRSAEncryption
         00:de:ff:22:3c:b4:d3:18:f4:b7:f2:7f:85:ea:a0:64:70:d3:
         d2:59:16:92:30:be:e6:b7:b0:ca:9d:25:e4:ad:e6:d6:3f:74:
         6f:21:4b:42:8a:40:31:29:2a:1b:9b:f3:87:53:7b:c1:0c:ee:
         7c:52:39:f1:8d:e8:31:9f:ea:66:c0:c7:28:cb:3e:0f:3b:85:
         59:4b:78:43:d1:57:c8:df:38:1b:a0:cc:12:09:a6:85:1b:c1:
         a3:d7:0c:de:e8:bb:24:ee:76:3b:6a:48:2f:be:57:88:62:dd:
         aa:5e:60:98:44:b9:b8:da:b3:88:d0:32:d1:5c:82:82:3c:f4:
         74:13:e4:77:25:dc:4c:a8:33:8a:fd:06:57:12:6e:9f:90:ab:
         8c:69:f0:98:de:44:80:f6:1d:ae:8e:96:e5:a8:69:0e:83:b1:
         e9:54:8b:17:43:6e:4a:ca:87:fe:8b:b4:52:f0:39:c2:0a:47:
         0a:12:0f:0c:af:a4:c5:91:16:15:a4:1f:bf:9c:c3:d0:37:31:
         a7:66:8a:5f:7c:7d:ff:7b:5e:fc:ef:2b:21:87:25:3d:eb:c2:
         c1:2c:54:d5:da:36:64:b9:ce:75:f8:fc:76:fd:ba:d9:13:c6:
         e3:03:3f:29:67:b9:e6:26:ce:a5:36:60:9c:a7:58:d2:ab:47:
         43:65:f1:b2:1d:fc:e4:15:f1:01:02:be:98:bf:3d:f3:c6:94:
         57:dc:93:fb:74:a0:af:34:54:c4:02:74:38:c2:bb:3d:bd:b2:
         07:61:8c:ef:77:da:b1:c3:2e:87:d8:93:c8:e1:9b:18:4c:8d:
         42:e3:ac:20:8b:01:e8:ec:a1:91:04:16:74:14:e3:28:1f:02:
         e2:c0:6c:fb:e9:47:cd:2c:c1:8c:99:d3:16:ab:c2:d5:ae:f6:
         aa:c5:cb:df:90:8a:24:54:55:e0:2e:8c:29:e5:7c:30:b4:da:
         0b:a8:2b:ac:65:a7:de:f1:29:8a:cb:84:fe:1f:a0:cb:35:2a:
         bd:94:95:c0:d3:fd:c2:dc:2b:31:47:2d:b7:76:71:ea:12:16:
         a8:4b:6d:72:c5:67:37:8b:2a:1a:68:7d:c5:fb:1f:b8:71:78:
         d4:66:cb:f9:5e:43:08:b1:f3:87:94:12:ec:e4:30:57:5c:69:
         a6:e0:1d:1e:f5:f3:43:fb:7b:23:d0:a5:69:05:3e:7e:b3:7d:
         35:f6:e6:0b:71:15:93:b8:f1:12:58:cd:6b:e8:ab:50:18:96:
         46:7b:06:94:b8:43:40:b6:2c:e9:3a:91:bc:9a:fc:43:21:42:
         2f:e5:18:5b:3f:b8:a3:6c:b7:75:4a:c7:2a:19:3d:59:63:62:
         f6:58:df:94:26:21:75:66
-----BEGIN CERTIFICATE-----
MIIGrTCCBJWgAwIBAgICK6MwDQYJKoZIhvcNAQELBQAwgawxCzAJBgNVBAYTAlVT
MQswCQYDVQQIEwJPSDERMA8GA1UEBxMIQ29sdW1idXMxEjAQBgNVBAoTCVZpa2lu
Z1ZQTjEdMBsGA1UECxMUTXlPcmdhbml6YXRpb25hbFVuaXQxFTATBgNVBAMTDFZp
a2luZ1ZQTiBDQTEQMA4GA1UEKRMHRWFzeVJTQTEhMB8GCSqGSIb3DQEJARYSbWVA
bXlob3N0Lm15ZG9tYWluMB4XDTE3MDYyNDA4MDYzMVoXDTI3MDYyMjA4MDYzMVow
HzEdMBsGA1UEAxMUQ2xpZW50Mjc4MUNlcnQ2N2JhYmUwggIiMA0GCSqGSIb3DQEB
AQUAA4ICDwAwggIKAoICAQC2TumERvQO537Igy3XAzIRm9B2jT/596g3OzRH5+Wc
KwqwNSVrzV6Nq4Nwu89rwDuO84nu0WXWLIlYfMOzp3gFFkpcrGImR7qg9FkHcMjD
ZFUx6ndT14YeBSm5EqWJLtOBQNqmEOPVIfrSb/B8rF9JHzGEtA0WmhxmXKIwIN0i
R+Gxo8KC8kEH7Jgsbvng9gP1PNFo+tEREjqzc2o2eNLPYhzrQRsgFE3T19hFlowj
MlXD1FFbnAeUDaKFkTx/swdKABlN4kd5omxl+LOilMKIdhhiI7kGxx1JXJ5fROYU
1tMc1JnieTJOWqqjGDTfoefCrdULVchsQheF63otUPMHbQ26Avd/e6KxGf3iZLyO
Ojd9RxagNvhEfVoWqgU3RdNo3RjubO1hB916ERpujnLbbQ60RGksF9o0fpZf03g+
88dbzxmvlOl5uPw62ITBJfurPnIBk/dIG1inXOJ7KXQXGQ+sF6IDuIHJdWb620JR
bvFXOw5rbXWKcRH1b50pac7mRl31ITTELUM2l0y73XrE6OT19XZmLh2+r10x0Pvx
C/knqgXH2DwysvEVU36BqUHI9+RmwT4mPb4TgrCcCKwa6VPSxXWdBIdaXLRl2m7s
V35mOHzB4GRpD20RtUQa9HRFF0QI0grPNYLqSVCu3LtGi8Zcrg0VGP0Z2q9mU22+
lQIDAQABo4IBYzCCAV8wCQYDVR0TBAIwADAtBglghkgBhvhCAQ0EIBYeRWFzeS1S
U0EgR2VuZXJhdGVkIENlcnRpZmljYXRlMB0GA1UdDgQWBBT8noi124KgZyN5fdGw
7AnFu9HlfTCB4QYDVR0jBIHZMIHWgBQSzWAE0qCAnnDtxpm4eyzGUv0ZoaGBsqSB
rzCBrDELMAkGA1UEBhMCVVMxCzAJBgNVBAgTAk9IMREwDwYDVQQHEwhDb2x1bWJ1
czESMBAGA1UEChMJVmlraW5nVlBOMR0wGwYDVQQLExRNeU9yZ2FuaXphdGlvbmFs
VW5pdDEVMBMGA1UEAxMMVmlraW5nVlBOIENBMRAwDgYDVQQpEwdFYXN5UlNBMSEw
HwYJKoZIhvcNAQkBFhJtZUBteWhvc3QubXlkb21haW6CCQDPNYXugL8qPjATBgNV
HSUEDDAKBggrBgEFBQcDAjALBgNVHQ8EBAMCB4AwDQYJKoZIhvcNAQELBQADggIB
AADe/yI8tNMY9Lfyf4XqoGRw09JZFpIwvua3sMqdJeSt5tY/dG8hS0KKQDEpKhub
84dTe8EM7nxSOfGN6DGf6mbAxyjLPg87hVlLeEPRV8jfOBugzBIJpoUbwaPXDN7o
uyTudjtqSC++V4hi3apeYJhEubjas4jQMtFcgoI89HQT5Hcl3EyoM4r9BlcSbp+Q
q4xp8JjeRID2Ha6OluWoaQ6DselUixdDbkrKh/6LtFLwOcIKRwoSDwyvpMWRFhWk
H7+cw9A3Madmil98ff97XvzvKyGHJT3rwsEsVNXaNmS5znX4/Hb9utkTxuMDPyln
ueYmzqU2YJynWNKrR0Nl8bId/OQV8QECvpi/PfPGlFfck/t0oK80VMQCdDjCuz29
sgdhjO932rHDLofYk8jhmxhMjULjrCCLAejsoZEEFnQU4ygfAuLAbPvpR80swYyZ
0xarwtWu9qrFy9+QiiRUVeAujCnlfDC02guoK6xlp97xKYrLhP4foMs1Kr2UlcDT
/cLcKzFHLbd2ceoSFqhLbXLFZzeLKhpofcX7H7hxeNRmy/leQwix84eUEuzkMFdc
aabgHR7180P7eyPQpWkFPn6zfTX25gtxFZO48RJYzWvoq1AYlkZ7BpS4Q0C2LOk6
kbya/EMhQi/lGFs/uKNst3VKxyoZPVljYvZY35QmIXVm
-----END CERTIFICATE-----
