Certificate:
    Data:
        Version: 3 (0x2)
        Serial Number: 2465 (0x9a1)
    Signature Algorithm: md5WithRSAEncryption
        Issuer: C=US, ST=OH, L=Columbus, O=VikingVPN, OU=MyOrganizationalUnit, CN=VikingVPN CA/name=EasyRSA/emailAddress=me@myhost.mydomain
        Validity
            Not Before: Aug  5 02:47:52 2014 GMT
            Not After : Aug  2 02:47:52 2024 GMT
        Subject: CN=Client790Certa77a38
        Subject Public Key Info:
            Public Key Algorithm: rsaEncryption
                Public-Key: (4096 bit)
                Modulus:
                    00:cb:1b:76:3d:85:55:5f:1c:48:a6:b1:f0:65:5d:
                    f2:a6:87:7e:3b:55:22:7f:ce:e4:71:27:14:05:bc:
                    19:e0:e7:fa:e2:0b:d1:f5:02:74:8c:49:c9:1d:c4:
                    fd:65:9d:8b:fa:6f:e8:1d:63:ca:64:b9:c1:ef:bf:
                    12:51:fe:b5:79:1b:29:35:c3:59:82:c4:55:b0:cf:
                    40:3e:58:02:79:0b:4e:cd:62:ce:93:a2:c1:92:d6:
                    9b:24:f4:ed:cb:0f:aa:38:02:9b:1e:ad:4e:9e:64:
                    a9:49:84:17:27:18:a7:e0:89:c0:22:67:47:cf:51:
                    97:32:a9:47:e6:60:2c:5a:38:af:04:a3:4f:46:83:
                    bd:0f:ac:43:4a:26:69:4e:58:be:54:53:ef:be:c1:
                    82:ec:c5:e8:c6:45:8e:58:16:e3:3c:a7:6b:3c:bf:
                    ac:b8:c2:22:bf:08:d6:6c:14:af:cd:02:cd:31:a2:
                    d3:59:b3:69:f6:3c:cc:ad:b8:fa:74:36:f5:f9:19:
                    f6:a8:bb:7f:4d:29:81:11:2a:44:34:76:43:a6:77:
                    d4:85:13:82:45:ad:dc:27:fe:db:9a:e1:68:9c:42:
                    e7:0b:9a:c9:78:37:1c:2b:6b:e3:ae:fc:a9:41:bb:
                    48:8f:d4:0d:27:05:0d:e7:4c:ec:bc:d5:17:1f:28:
                    00:d0:a5:1e:c9:7f:89:cc:39:3a:d7:aa:3b:f9:8a:
                    de:95:63:2e:7f:60:f7:4f:b0:7f:74:c3:b0:dd:a4:
                    07:4c:88:15:ec:d9:d3:f9:7b:3c:eb:02:30:f4:d0:
                    5d:ef:4a:d1:50:34:52:b3:a6:fa:da:c2:d7:36:12:
                    6b:55:3c:4a:09:29:b7:6e:c1:1b:56:70:1a:30:a5:
                    23:f4:7a:d0:63:36:3b:13:ef:98:92:b8:b9:99:e2:
                    a9:b1:c9:c2:81:d2:a9:c0:a0:b2:e2:70:27:2e:5d:
                    d4:d3:b1:17:22:ba:5d:b6:94:8f:35:28:b1:50:92:
                    69:b3:10:ec:ad:a3:80:cd:f1:29:38:dc:0f:6e:28:
                    8d:04:3f:08:cc:39:92:dc:dd:d3:c8:ef:d1:b4:e4:
                    a9:c1:88:d4:c3:8b:2c:4e:43:a9:49:fa:9d:02:8e:
                    a2:43:88:ff:c2:5f:5a:23:d8:e3:74:5f:fe:a6:9e:
                    13:4e:24:b0:8f:dd:d4:0b:21:41:80:6c:a7:de:b7:
                    6c:c1:f1:28:f3:28:e3:5a:53:7e:d2:79:2f:7a:51:
                    45:48:56:ca:18:bc:c8:39:b3:b8:63:67:87:49:84:
                    dd:5d:f0:4c:3e:f3:ba:ba:dd:a9:02:e5:3a:41:46:
                    a9:61:cb:db:80:3a:5a:28:c2:36:c3:6b:d4:28:15:
                    76:0a:8d
                Exponent: 65537 (0x10001)
        X509v3 extensions:
            X509v3 Basic Constraints: 
                CA:FALSE
            Netscape Comment: 
                Easy-RSA Generated Certificate
            X509v3 Subject Key Identifier: 
                EE:30:77:C1:5F:AE:14:E9:ED:A7:E2:6B:6F:B7:05:6B:AF:CC:44:20
            X509v3 Authority Key Identifier: 
                keyid:12:CD:60:04:D2:A0:80:9E:70:ED:C6:99:B8:7B:2C:C6:52:FD:19:A1
                DirName:/C=US/ST=OH/L=Columbus/O=VikingVPN/OU=MyOrganizationalUnit/CN=VikingVPN CA/name=EasyRSA/emailAddress=me@myhost.mydomain
                serial:CF:35:85:EE:80:BF:2A:3E

            X509v3 Extended Key Usage: 
                TLS Web Client Authentication
            X509v3 Key Usage: 
                Digital Signature
    Signature Algorithm: md5WithRSAEncryption
         dd:b3:c0:5c:2d:72:a5:be:0e:df:c5:8d:4e:78:a9:f6:8e:1c:
         45:6d:9e:32:28:48:e9:d6:43:6a:89:12:f7:13:c5:0c:fe:d0:
         2a:2d:86:7e:df:c2:d1:90:41:27:35:1c:29:20:97:1a:bb:fc:
         7b:0d:c8:7f:0b:c5:2b:46:74:9f:e3:20:3e:80:b9:d6:86:95:
         41:37:08:78:f7:e6:db:5c:55:cc:df:b9:c9:5d:41:43:a1:54:
         29:3a:89:c2:bb:b2:78:8e:61:6a:40:19:0d:89:7f:a9:0a:57:
         ca:ef:f7:cf:3a:42:ec:a4:0f:4a:93:05:d3:87:d7:6d:a7:11:
         d2:16:0a:fe:64:af:09:6e:c1:79:a6:66:e0:fa:8f:bd:5e:f1:
         2a:6d:70:62:35:18:29:ed:bd:bd:b5:47:ba:6d:72:97:70:e6:
         0d:c1:8d:a4:f5:37:8d:a8:c8:f2:74:b4:c0:46:5f:0d:d9:2a:
         5f:62:07:0d:7e:94:8f:1c:56:d4:63:a6:10:75:f7:d6:5f:65:
         98:04:58:81:e7:25:67:eb:a2:24:cd:bd:0c:1e:a4:08:20:f7:
         d1:9f:8c:3f:44:55:8f:04:0c:bf:26:f4:af:87:28:bc:0d:33:
         1c:3f:ba:a4:e4:23:74:2e:26:92:4a:44:49:0c:b9:70:04:c8:
         30:b5:b3:39:fe:32:c7:45:53:a2:5b:65:65:94:59:ca:44:75:
         1a:80:ef:f3:f7:7b:bb:07:47:c1:d4:2d:6f:9a:14:b0:6c:05:
         da:61:aa:a9:d2:ff:58:39:ff:da:20:26:84:4d:11:b6:eb:8b:
         68:3b:fa:c7:af:df:ad:46:82:28:7b:4f:e7:05:9c:9a:46:98:
         4e:c7:e2:79:0e:ab:3c:9b:76:1d:e5:48:8f:a4:7f:05:90:eb:
         41:4b:7e:80:98:f7:46:67:ea:db:8e:1e:03:d5:23:57:da:2f:
         57:f9:c0:0b:90:66:62:78:ae:5c:28:ff:07:d8:3b:73:7c:c8:
         a7:72:f3:e3:34:01:42:b8:e3:d7:0b:f0:ed:8f:f9:16:80:9e:
         d9:51:9e:7f:3c:5b:55:53:d0:d8:77:52:31:8f:8a:e0:9a:d2:
         07:f0:3f:ab:83:64:f2:bd:ae:56:61:d7:89:2a:7e:b1:b4:cc:
         56:8b:65:77:ae:b7:90:0d:15:83:7d:57:a6:28:49:55:77:c1:
         a0:b0:3d:23:2f:ab:5b:08:bd:8e:03:7d:4b:19:09:c0:86:87:
         99:f1:03:33:2d:46:46:b3:6e:8d:3d:d9:25:a7:14:7d:f4:4d:
         40:f0:ba:bc:64:c8:b0:04:4b:53:fc:88:4b:df:fc:11:96:fa:
         b0:2b:66:14:2e:8e:92:04
-----BEGIN CERTIFICATE-----
MIIGrDCCBJSgAwIBAgICCaEwDQYJKoZIhvcNAQEEBQAwgawxCzAJBgNVBAYTAlVT
MQswCQYDVQQIEwJPSDERMA8GA1UEBxMIQ29sdW1idXMxEjAQBgNVBAoTCVZpa2lu
Z1ZQTjEdMBsGA1UECxMUTXlPcmdhbml6YXRpb25hbFVuaXQxFTATBgNVBAMTDFZp
a2luZ1ZQTiBDQTEQMA4GA1UEKRMHRWFzeVJTQTEhMB8GCSqGSIb3DQEJARYSbWVA
bXlob3N0Lm15ZG9tYWluMB4XDTE0MDgwNTAyNDc1MloXDTI0MDgwMjAyNDc1Mlow
HjEcMBoGA1UEAxMTQ2xpZW50NzkwQ2VydGE3N2EzODCCAiIwDQYJKoZIhvcNAQEB
BQADggIPADCCAgoCggIBAMsbdj2FVV8cSKax8GVd8qaHfjtVIn/O5HEnFAW8GeDn
+uIL0fUCdIxJyR3E/WWdi/pv6B1jymS5we+/ElH+tXkbKTXDWYLEVbDPQD5YAnkL
Ts1izpOiwZLWmyT07csPqjgCmx6tTp5kqUmEFycYp+CJwCJnR89RlzKpR+ZgLFo4
rwSjT0aDvQ+sQ0omaU5YvlRT777BguzF6MZFjlgW4zynazy/rLjCIr8I1mwUr80C
zTGi01mzafY8zK24+nQ29fkZ9qi7f00pgREqRDR2Q6Z31IUTgkWt3Cf+25rhaJxC
5wuayXg3HCtr4678qUG7SI/UDScFDedM7LzVFx8oANClHsl/icw5OteqO/mK3pVj
Ln9g90+wf3TDsN2kB0yIFezZ0/l7POsCMPTQXe9K0VA0UrOm+trC1zYSa1U8Sgkp
t27BG1ZwGjClI/R60GM2OxPvmJK4uZniqbHJwoHSqcCgsuJwJy5d1NOxFyK6XbaU
jzUosVCSabMQ7K2jgM3xKTjcD24ojQQ/CMw5ktzd08jv0bTkqcGI1MOLLE5DqUn6
nQKOokOI/8JfWiPY43Rf/qaeE04ksI/d1AshQYBsp963bMHxKPMo41pTftJ5L3pR
RUhWyhi8yDmzuGNnh0mE3V3wTD7zurrdqQLlOkFGqWHL24A6WijCNsNr1CgVdgqN
AgMBAAGjggFjMIIBXzAJBgNVHRMEAjAAMC0GCWCGSAGG+EIBDQQgFh5FYXN5LVJT
QSBHZW5lcmF0ZWQgQ2VydGlmaWNhdGUwHQYDVR0OBBYEFO4wd8FfrhTp7afia2+3
BWuvzEQgMIHhBgNVHSMEgdkwgdaAFBLNYATSoICecO3Gmbh7LMZS/RmhoYGypIGv
MIGsMQswCQYDVQQGEwJVUzELMAkGA1UECBMCT0gxETAPBgNVBAcTCENvbHVtYnVz
MRIwEAYDVQQKEwlWaWtpbmdWUE4xHTAbBgNVBAsTFE15T3JnYW5pemF0aW9uYWxV
bml0MRUwEwYDVQQDEwxWaWtpbmdWUE4gQ0ExEDAOBgNVBCkTB0Vhc3lSU0ExITAf
BgkqhkiG9w0BCQEWEm1lQG15aG9zdC5teWRvbWFpboIJAM81he6Avyo+MBMGA1Ud
JQQMMAoGCCsGAQUFBwMCMAsGA1UdDwQEAwIHgDANBgkqhkiG9w0BAQQFAAOCAgEA
3bPAXC1ypb4O38WNTnip9o4cRW2eMihI6dZDaokS9xPFDP7QKi2Gft/C0ZBBJzUc
KSCXGrv8ew3IfwvFK0Z0n+MgPoC51oaVQTcIePfm21xVzN+5yV1BQ6FUKTqJwruy
eI5hakAZDYl/qQpXyu/3zzpC7KQPSpMF04fXbacR0hYK/mSvCW7BeaZm4PqPvV7x
Km1wYjUYKe29vbVHum1yl3DmDcGNpPU3jajI8nS0wEZfDdkqX2IHDX6UjxxW1GOm
EHX31l9lmARYgeclZ+uiJM29DB6kCCD30Z+MP0RVjwQMvyb0r4covA0zHD+6pOQj
dC4mkkpESQy5cATIMLWzOf4yx0VToltlZZRZykR1GoDv8/d7uwdHwdQtb5oUsGwF
2mGqqdL/WDn/2iAmhE0RtuuLaDv6x6/frUaCKHtP5wWcmkaYTsfieQ6rPJt2HeVI
j6R/BZDrQUt+gJj3Rmfq244eA9UjV9ovV/nAC5BmYniuXCj/B9g7c3zIp3Lz4zQB
Qrjj1wvw7Y/5FoCe2VGefzxbVVPQ2HdSMY+K4JrSB/A/q4Nk8r2uVmHXiSp+sbTM
Votld663kA0Vg31XpihJVXfBoLA9Iy+rWwi9jgN9SxkJwIaHmfEDMy1GRrNujT3Z
JacUffRNQPC6vGTIsARLU/yIS9/8EZb6sCtmFC6OkgQ=
-----END CERTIFICATE-----
