Certificate:
    Data:
        Version: 3 (0x2)
        Serial Number: 4509 (0x119d)
    Signature Algorithm: md5WithRSAEncryption
        Issuer: C=US, ST=OH, L=Columbus, O=VikingVPN, OU=MyOrganizationalUnit, CN=VikingVPN CA/name=EasyRSA/emailAddress=me@myhost.mydomain
        Validity
            Not Before: Feb 19 11:54:41 2015 GMT
            Not After : Feb 16 11:54:41 2025 GMT
        Subject: CN=Client884Cert3348c7
        Subject Public Key Info:
            Public Key Algorithm: rsaEncryption
                Public-Key: (4096 bit)
                Modulus:
                    00:a9:3e:e3:7d:a4:22:71:d7:db:c7:62:47:48:1f:
                    a5:32:57:11:55:b7:cb:db:56:90:70:0e:29:1f:90:
                    e6:bc:51:60:72:56:75:d4:fe:ba:9e:ae:0c:54:a9:
                    ea:5c:ec:bd:7e:ac:4c:1a:bd:ad:97:79:d9:00:ba:
                    05:7f:b5:fc:18:5c:28:eb:09:eb:cb:65:e8:2e:96:
                    be:0b:9c:34:3c:b2:e5:f6:52:49:a5:7a:13:f4:06:
                    99:36:fd:31:9b:5f:e7:36:65:4b:9e:6d:ed:90:16:
                    98:46:18:0b:79:99:35:b9:1f:95:11:9b:40:63:02:
                    d4:5c:43:44:3f:53:44:86:c2:46:8f:63:83:f6:f5:
                    5a:72:e2:7b:88:93:8f:de:48:8c:58:d8:81:93:db:
                    82:2a:76:fb:8b:cc:e0:40:d8:2c:12:b5:f1:40:00:
                    48:74:14:b8:c5:a1:9a:f9:4c:af:da:8d:de:66:ad:
                    49:d9:fe:e3:16:84:0b:5e:aa:d5:63:bf:a6:5b:14:
                    64:2b:f0:08:04:36:27:85:22:9b:70:2e:0c:86:fa:
                    99:2c:88:fa:c3:e9:60:8b:38:86:2c:cd:b6:bd:54:
                    a9:a2:09:4c:79:1e:3c:94:73:0c:94:4c:bd:12:cc:
                    be:c8:d5:73:13:0d:72:cf:b6:35:99:91:b9:c2:cb:
                    bd:61:5f:e5:b1:5e:f4:41:be:a7:07:93:2c:28:42:
                    92:ff:e2:02:08:82:66:1c:50:16:c0:14:b1:29:77:
                    b8:f1:92:41:73:19:96:a2:a1:91:3c:40:02:4f:7f:
                    a4:0a:8e:e1:02:ba:b3:56:5d:20:03:ef:88:ea:e2:
                    4b:fb:a0:d0:18:64:5a:a9:89:4e:3b:7c:d0:f7:ad:
                    04:4a:27:45:6c:16:22:4c:fa:20:0b:e1:45:d3:6c:
                    e6:2a:13:9e:62:49:3f:30:b7:23:4d:c7:ac:1c:10:
                    b5:4e:8f:94:ba:3c:93:46:d3:94:a6:04:55:9d:1e:
                    76:91:66:f3:8f:1e:de:50:ec:63:99:b0:4f:5c:04:
                    9f:a4:14:5a:00:9e:23:1f:71:6d:20:a5:c9:02:81:
                    7b:d6:26:18:29:48:72:93:69:98:1c:84:b3:75:bc:
                    cb:c5:0a:47:f6:5b:5a:9a:6e:19:3d:63:37:fa:3a:
                    0c:18:fe:1a:ae:f6:3f:67:a2:b3:d9:ee:d2:de:5f:
                    c1:0a:67:48:03:49:1e:3a:54:8d:a9:8d:35:3a:fc:
                    70:b0:28:75:62:35:2f:91:b3:17:b3:cd:f2:4d:5d:
                    a0:e5:21:92:26:15:88:8c:a5:fe:f9:88:31:d5:43:
                    22:3c:96:c6:83:10:47:92:68:a5:7c:72:90:0b:88:
                    26:e1:6f
                Exponent: 65537 (0x10001)
        X509v3 extensions:
            X509v3 Basic Constraints: 
                CA:FALSE
            Netscape Comment: 
                Easy-RSA Generated Certificate
            X509v3 Subject Key Identifier: 
                A5:A1:66:40:F7:5F:EF:54:49:98:72:A4:68:A7:4E:1E:18:00:74:79
            X509v3 Authority Key Identifier: 
                keyid:12:CD:60:04:D2:A0:80:9E:70:ED:C6:99:B8:7B:2C:C6:52:FD:19:A1
                DirName:/C=US/ST=OH/L=Columbus/O=VikingVPN/OU=MyOrganizationalUnit/CN=VikingVPN CA/name=EasyRSA/emailAddress=me@myhost.mydomain
                serial:CF:35:85:EE:80:BF:2A:3E

            X509v3 Extended Key Usage: 
                TLS Web Client Authentication
            X509v3 Key Usage: 
                Digital Signature
    Signature Algorithm: md5WithRSAEncryption
         7c:b2:fd:b3:bc:e8:01:62:de:69:97:90:03:86:21:10:0c:db:
         ce:b7:03:81:2b:47:65:c4:5b:f7:39:c1:c3:25:9d:a5:ee:cc:
         f8:b7:27:83:87:3a:13:4c:61:2c:a7:39:5c:ed:31:c9:36:5a:
         d6:06:94:c5:4f:c6:86:09:92:f9:66:16:b8:77:69:7b:ce:7e:
         bf:40:61:4c:17:ef:21:0a:09:0a:eb:a0:66:6f:f0:f5:9c:9c:
         64:3d:55:ad:0d:99:97:61:26:b9:2e:c8:a6:5b:2c:62:37:24:
         62:8a:77:50:7f:29:b6:06:b5:58:57:83:8d:c4:76:0b:97:00:
         78:4b:14:0b:ac:75:24:a3:4f:df:2e:ac:79:7f:e1:fb:a2:81:
         ae:54:1b:9c:57:8e:15:ae:fa:39:35:62:d9:4c:0d:11:eb:3b:
         b2:bb:c4:a2:06:be:e7:aa:a1:67:96:8a:3f:f6:4f:c9:09:af:
         f7:97:fd:bc:03:53:92:1b:22:3e:af:a6:f7:63:d7:ab:e6:b6:
         04:37:0f:f6:f7:0a:d9:68:7b:4a:e6:a7:da:27:95:96:f7:bb:
         b0:fe:cc:2f:16:d3:fb:e5:e0:b7:16:ae:81:af:0d:6a:da:c9:
         1d:8f:c2:17:bd:66:77:48:aa:01:dd:fc:a4:a4:fd:54:ac:38:
         46:b3:5f:c0:da:6c:77:f7:99:91:e4:5f:09:80:39:53:a1:2b:
         b5:c9:44:b6:a8:1e:cf:98:4f:b2:df:63:32:40:61:2d:fb:0e:
         56:62:82:0e:ea:52:5f:22:6d:eb:5c:28:9b:c7:b2:4d:bd:d0:
         80:b6:7f:34:bf:56:0e:f1:0e:8f:07:e9:88:94:6c:e2:9e:da:
         46:c6:4e:df:fd:7e:42:5d:55:fa:2e:36:68:2e:d3:56:95:ce:
         25:0d:c4:20:c0:7a:79:d2:96:d3:7a:48:ef:b7:0b:8b:9c:4e:
         8f:52:d9:bb:e8:51:f4:5e:40:d0:55:96:8a:52:39:08:51:11:
         75:82:e9:56:f1:40:cb:6f:ff:1d:1b:47:d0:0d:94:10:23:d2:
         82:92:ae:42:df:1f:fe:08:c9:34:b2:8b:64:24:de:b4:09:6b:
         eb:69:af:a6:8c:f1:2e:3b:95:87:98:83:0c:20:8f:1f:70:a2:
         bd:31:c2:76:f1:d5:a3:d5:2e:42:3d:6b:9a:48:45:45:31:bb:
         2e:db:b6:78:5a:cb:f1:83:77:35:50:fa:2e:fe:5b:6b:99:b6:
         5b:ff:55:a6:65:5f:a0:5a:d4:73:64:56:56:c2:c1:89:a8:4b:
         f0:8d:55:4c:f8:3a:69:77:5b:40:ab:e1:2c:78:87:d4:90:38:
         78:17:2b:f9:d0:00:cd:6b
-----BEGIN CERTIFICATE-----
MIIGrDCCBJSgAwIBAgICEZ0wDQYJKoZIhvcNAQEEBQAwgawxCzAJBgNVBAYTAlVT
MQswCQYDVQQIEwJPSDERMA8GA1UEBxMIQ29sdW1idXMxEjAQBgNVBAoTCVZpa2lu
Z1ZQTjEdMBsGA1UECxMUTXlPcmdhbml6YXRpb25hbFVuaXQxFTATBgNVBAMTDFZp
a2luZ1ZQTiBDQTEQMA4GA1UEKRMHRWFzeVJTQTEhMB8GCSqGSIb3DQEJARYSbWVA
bXlob3N0Lm15ZG9tYWluMB4XDTE1MDIxOTExNTQ0MVoXDTI1MDIxNjExNTQ0MVow
HjEcMBoGA1UEAxMTQ2xpZW50ODg0Q2VydDMzNDhjNzCCAiIwDQYJKoZIhvcNAQEB
BQADggIPADCCAgoCggIBAKk+432kInHX28diR0gfpTJXEVW3y9tWkHAOKR+Q5rxR
YHJWddT+up6uDFSp6lzsvX6sTBq9rZd52QC6BX+1/BhcKOsJ68tl6C6WvgucNDyy
5fZSSaV6E/QGmTb9MZtf5zZlS55t7ZAWmEYYC3mZNbkflRGbQGMC1FxDRD9TRIbC
Ro9jg/b1WnLie4iTj95IjFjYgZPbgip2+4vM4EDYLBK18UAASHQUuMWhmvlMr9qN
3matSdn+4xaEC16q1WO/plsUZCvwCAQ2J4Uim3AuDIb6mSyI+sPpYIs4hizNtr1U
qaIJTHkePJRzDJRMvRLMvsjVcxMNcs+2NZmRucLLvWFf5bFe9EG+pweTLChCkv/i
AgiCZhxQFsAUsSl3uPGSQXMZlqKhkTxAAk9/pAqO4QK6s1ZdIAPviOriS/ug0Bhk
WqmJTjt80PetBEonRWwWIkz6IAvhRdNs5ioTnmJJPzC3I03HrBwQtU6PlLo8k0bT
lKYEVZ0edpFm848e3lDsY5mwT1wEn6QUWgCeIx9xbSClyQKBe9YmGClIcpNpmByE
s3W8y8UKR/ZbWppuGT1jN/o6DBj+Gq72P2eis9nu0t5fwQpnSANJHjpUjamNNTr8
cLAodWI1L5GzF7PN8k1doOUhkiYViIyl/vmIMdVDIjyWxoMQR5JopXxykAuIJuFv
AgMBAAGjggFjMIIBXzAJBgNVHRMEAjAAMC0GCWCGSAGG+EIBDQQgFh5FYXN5LVJT
QSBHZW5lcmF0ZWQgQ2VydGlmaWNhdGUwHQYDVR0OBBYEFKWhZkD3X+9USZhypGin
Th4YAHR5MIHhBgNVHSMEgdkwgdaAFBLNYATSoICecO3Gmbh7LMZS/RmhoYGypIGv
MIGsMQswCQYDVQQGEwJVUzELMAkGA1UECBMCT0gxETAPBgNVBAcTCENvbHVtYnVz
MRIwEAYDVQQKEwlWaWtpbmdWUE4xHTAbBgNVBAsTFE15T3JnYW5pemF0aW9uYWxV
bml0MRUwEwYDVQQDEwxWaWtpbmdWUE4gQ0ExEDAOBgNVBCkTB0Vhc3lSU0ExITAf
BgkqhkiG9w0BCQEWEm1lQG15aG9zdC5teWRvbWFpboIJAM81he6Avyo+MBMGA1Ud
JQQMMAoGCCsGAQUFBwMCMAsGA1UdDwQEAwIHgDANBgkqhkiG9w0BAQQFAAOCAgEA
fLL9s7zoAWLeaZeQA4YhEAzbzrcDgStHZcRb9znBwyWdpe7M+Lcng4c6E0xhLKc5
XO0xyTZa1gaUxU/GhgmS+WYWuHdpe85+v0BhTBfvIQoJCuugZm/w9ZycZD1VrQ2Z
l2EmuS7IplssYjckYop3UH8ptga1WFeDjcR2C5cAeEsUC6x1JKNP3y6seX/h+6KB
rlQbnFeOFa76OTVi2UwNEes7srvEoga+56qhZ5aKP/ZPyQmv95f9vANTkhsiPq+m
92PXq+a2BDcP9vcK2Wh7Suan2ieVlve7sP7MLxbT++Xgtxauga8NatrJHY/CF71m
d0iqAd38pKT9VKw4RrNfwNpsd/eZkeRfCYA5U6ErtclEtqgez5hPst9jMkBhLfsO
VmKCDupSXyJt61wom8eyTb3QgLZ/NL9WDvEOjwfpiJRs4p7aRsZO3/1+Ql1V+i42
aC7TVpXOJQ3EIMB6edKW03pI77cLi5xOj1LZu+hR9F5A0FWWilI5CFERdYLpVvFA
y2//HRtH0A2UECPSgpKuQt8f/gjJNLKLZCTetAlr62mvpozxLjuVh5iDDCCPH3Ci
vTHCdvHVo9UuQj1rmkhFRTG7Ltu2eFrL8YN3NVD6Lv5ba5m2W/9VpmVfoFrUc2RW
VsLBiahL8I1VTPg6aXdbQKvhLHiH1JA4eBcr+dAAzWs=
-----END CERTIFICATE-----
