Certificate:
    Data:
        Version: 3 (0x2)
        Serial Number: 9960 (0x26e8)
    Signature Algorithm: sha256WithRSAEncryption
        Issuer: C=US, ST=OH, L=Columbus, O=VikingVPN, OU=MyOrganizationalUnit, CN=VikingVPN CA/name=EasyRSA/emailAddress=me@myhost.mydomain
        Validity
            Not Before: Jan 23 22:25:48 2017 GMT
            Not After : Jan 21 22:25:48 2027 GMT
        Subject: CN=Client2701Certf72266
        Subject Public Key Info:
            Public Key Algorithm: rsaEncryption
                Public-Key: (4096 bit)
                Modulus:
                    00:c3:3c:e1:14:76:7d:1e:eb:6b:60:ef:ba:60:c3:
                    40:fb:02:9a:83:07:76:4c:3a:22:b3:44:30:ba:14:
                    b5:80:1c:5a:86:5f:25:7c:72:9c:94:52:0c:7f:78:
                    e7:39:51:49:c0:8b:b7:6f:fb:76:c4:49:14:f0:3b:
                    e2:51:d4:a3:0b:8c:36:5a:bf:89:0e:46:1f:c1:1c:
                    bf:50:9f:cf:bb:25:dc:7a:54:0d:0e:21:e6:00:ed:
                    5b:35:a8:65:53:e2:d9:44:2c:53:e4:ab:99:46:10:
                    f0:15:8a:ff:4b:c5:f2:22:cd:0c:f2:3a:db:34:02:
                    58:87:f0:7a:c3:2b:16:20:76:60:bf:e1:f2:8f:b7:
                    1a:59:6e:0b:9f:65:5e:53:7e:cb:14:57:9d:5e:43:
                    7f:db:ab:10:2b:e2:d2:a9:32:8a:7b:ef:99:61:b2:
                    e8:84:40:5e:24:a0:9f:a2:ec:eb:96:f6:f7:e6:17:
                    84:45:d5:99:8e:6d:66:60:e6:5c:a2:c5:66:9f:ca:
                    ee:ce:55:00:6c:cc:d7:75:8b:e1:49:9b:01:45:bb:
                    8d:2f:ab:fa:bb:00:29:12:6e:c5:f7:1b:79:5f:62:
                    e0:43:b1:0c:62:1a:eb:b3:23:11:4f:ac:26:28:b7:
                    37:02:9d:36:41:f5:e2:7b:f0:2a:8f:e4:ac:79:e1:
                    a5:02:b0:f6:c8:97:a3:b6:70:16:ea:55:08:eb:04:
                    e8:2d:29:d6:53:ac:a5:47:c3:89:b8:b9:fc:a9:b0:
                    e7:68:1d:5a:9c:19:51:e8:d8:ae:59:0f:f5:45:ba:
                    dc:77:21:e1:61:1e:0c:f5:1c:a0:9f:54:b4:57:a4:
                    ec:ae:30:c4:e1:a2:6c:11:3b:06:53:1f:23:4d:65:
                    a6:24:fe:35:82:cd:73:c7:e2:80:ad:c0:b8:49:9f:
                    0f:af:37:bb:37:07:f3:5d:fc:91:8d:99:a9:db:4d:
                    bf:0c:7f:92:55:37:36:8b:0f:02:b3:c6:32:46:26:
                    34:25:90:4d:6e:a4:80:4d:cf:cc:5e:4f:c7:4b:44:
                    01:8d:79:89:f5:61:62:2a:6f:c8:ef:72:12:aa:b0:
                    47:cb:41:cf:12:64:b1:06:8f:e5:fe:01:45:f7:47:
                    65:c1:95:7d:9d:09:dc:4d:07:81:4c:10:72:6b:f8:
                    b2:d1:af:99:d9:02:06:45:75:ca:d3:ef:13:2b:93:
                    c7:a1:6e:85:0e:3d:40:9c:a8:14:85:3e:75:c6:94:
                    0f:60:a0:9d:6d:7b:d5:06:d0:61:87:54:0a:6a:7d:
                    26:bb:07:69:d8:54:15:55:ac:52:f0:ca:87:5d:d7:
                    27:d4:db:18:59:ac:d1:d2:c1:78:d9:8d:c2:fe:0a:
                    3e:f6:27
                Exponent: 65537 (0x10001)
        X509v3 extensions:
            X509v3 Basic Constraints: 
                CA:FALSE
            Netscape Comment: 
                Easy-RSA Generated Certificate
            X509v3 Subject Key Identifier: 
                2E:96:AE:6F:82:F7:86:A8:E6:4E:76:E3:22:15:AD:AB:94:74:0B:04
            X509v3 Authority Key Identifier: 
                keyid:12:CD:60:04:D2:A0:80:9E:70:ED:C6:99:B8:7B:2C:C6:52:FD:19:A1
                DirName:/C=US/ST=OH/L=Columbus/O=VikingVPN/OU=MyOrganizationalUnit/CN=VikingVPN CA/name=EasyRSA/emailAddress=me@myhost.mydomain
                serial:CF:35:85:EE:80:BF:2A:3E

            X509v3 Extended Key Usage: 
                TLS Web Client Authentication
            X509v3 Key Usage: 
                Digital Signature
    Signature Algorithm: sha256WithRSAEncryption
         a8:dc:67:d8:30:ac:8d:2b:65:f2:23:2d:4b:07:14:57:02:85:
         0a:4d:77:a1:fa:6b:69:36:58:d2:b1:9f:e0:b8:65:d3:0c:3c:
         f5:2b:71:7d:04:64:46:42:ea:e2:ec:bf:12:ea:84:a9:f6:f3:
         78:d2:5d:2f:17:0e:67:fd:06:d0:88:39:a7:ef:06:02:69:4b:
         f3:88:f0:44:b7:f7:cb:79:8b:26:73:32:bc:94:24:3e:a1:7c:
         82:9c:4f:c5:3b:fc:6b:99:90:5d:3d:53:df:5a:50:7e:89:e3:
         d9:fa:1f:9f:c9:2c:d1:12:35:34:f7:87:61:47:bf:b7:c0:63:
         b5:0b:0c:19:f3:de:65:62:3c:ad:ee:70:af:33:9f:c8:73:c5:
         59:a7:b3:ba:3d:1c:24:2c:b2:cf:8d:6a:50:55:0f:31:eb:9a:
         22:0f:00:b7:df:92:95:c7:32:af:02:71:79:8d:aa:73:bb:08:
         c6:6f:24:f2:7b:1e:a2:98:4a:c2:10:e6:da:a7:d7:be:99:5b:
         c4:fb:ec:6b:a7:da:e2:3b:7b:78:d4:e4:e9:c8:be:54:51:61:
         e4:8a:9f:fe:0b:27:2b:e8:17:24:eb:b2:f2:82:f5:c3:b8:69:
         65:92:9a:ae:51:23:cd:be:83:aa:6d:f1:79:8c:47:d9:50:b1:
         5c:5a:c6:9e:86:c8:36:02:a8:4d:2e:fc:a0:9d:78:63:fc:86:
         ae:59:96:0a:50:d7:fa:fb:2b:fe:f6:ca:4f:14:9b:6d:e3:44:
         e6:8c:0c:1a:eb:03:89:b8:76:50:3c:45:0a:60:90:a5:f3:8d:
         49:2a:ff:c9:cb:a0:d8:e4:0d:a6:35:7f:15:0b:58:57:e3:d9:
         de:e3:85:09:e5:48:81:26:a7:8b:c7:a7:86:04:03:6f:b0:e5:
         57:a2:09:da:c2:77:89:4b:e2:9e:74:65:c3:91:21:61:6a:67:
         4d:3f:ac:c2:bd:56:8f:0b:48:10:e0:57:14:fc:e7:02:1c:18:
         c0:3a:49:1d:6c:41:53:13:7d:e9:81:22:fa:38:10:70:08:e2:
         db:90:5d:b5:27:2d:dd:c0:32:43:b7:9f:19:f9:40:6e:9f:8f:
         d8:cb:b0:28:8c:e9:35:f7:2b:ae:5f:1c:29:94:c2:f4:d7:53:
         57:06:6b:78:63:c1:5b:fc:31:42:d9:66:a4:6e:26:ba:3d:c3:
         a5:76:08:4f:d3:74:60:da:1f:87:b3:0d:bc:82:a2:97:80:2d:
         fb:64:70:b1:f6:0b:59:7a:bf:33:4d:c6:48:11:a6:67:bc:63:
         7b:b3:2e:9b:46:e2:09:9e:c1:83:1b:2c:82:83:e6:6a:a8:4c:
         47:67:7c:2b:76:3d:1b:4a
-----BEGIN CERTIFICATE-----
MIIGrTCCBJWgAwIBAgICJugwDQYJKoZIhvcNAQELBQAwgawxCzAJBgNVBAYTAlVT
MQswCQYDVQQIEwJPSDERMA8GA1UEBxMIQ29sdW1idXMxEjAQBgNVBAoTCVZpa2lu
Z1ZQTjEdMBsGA1UECxMUTXlPcmdhbml6YXRpb25hbFVuaXQxFTATBgNVBAMTDFZp
a2luZ1ZQTiBDQTEQMA4GA1UEKRMHRWFzeVJTQTEhMB8GCSqGSIb3DQEJARYSbWVA
bXlob3N0Lm15ZG9tYWluMB4XDTE3MDEyMzIyMjU0OFoXDTI3MDEyMTIyMjU0OFow
HzEdMBsGA1UEAxMUQ2xpZW50MjcwMUNlcnRmNzIyNjYwggIiMA0GCSqGSIb3DQEB
AQUAA4ICDwAwggIKAoICAQDDPOEUdn0e62tg77pgw0D7ApqDB3ZMOiKzRDC6FLWA
HFqGXyV8cpyUUgx/eOc5UUnAi7dv+3bESRTwO+JR1KMLjDZav4kORh/BHL9Qn8+7
Jdx6VA0OIeYA7Vs1qGVT4tlELFPkq5lGEPAViv9LxfIizQzyOts0AliH8HrDKxYg
dmC/4fKPtxpZbgufZV5TfssUV51eQ3/bqxAr4tKpMop775lhsuiEQF4koJ+i7OuW
9vfmF4RF1ZmObWZg5lyixWafyu7OVQBszNd1i+FJmwFFu40vq/q7ACkSbsX3G3lf
YuBDsQxiGuuzIxFPrCYotzcCnTZB9eJ78CqP5Kx54aUCsPbIl6O2cBbqVQjrBOgt
KdZTrKVHw4m4ufypsOdoHVqcGVHo2K5ZD/VFutx3IeFhHgz1HKCfVLRXpOyuMMTh
omwROwZTHyNNZaYk/jWCzXPH4oCtwLhJnw+vN7s3B/Nd/JGNmanbTb8Mf5JVNzaL
DwKzxjJGJjQlkE1upIBNz8xeT8dLRAGNeYn1YWIqb8jvchKqsEfLQc8SZLEGj+X+
AUX3R2XBlX2dCdxNB4FMEHJr+LLRr5nZAgZFdcrT7xMrk8ehboUOPUCcqBSFPnXG
lA9goJ1te9UG0GGHVApqfSa7B2nYVBVVrFLwyodd1yfU2xhZrNHSwXjZjcL+Cj72
JwIDAQABo4IBYzCCAV8wCQYDVR0TBAIwADAtBglghkgBhvhCAQ0EIBYeRWFzeS1S
U0EgR2VuZXJhdGVkIENlcnRpZmljYXRlMB0GA1UdDgQWBBQulq5vgveGqOZOduMi
Fa2rlHQLBDCB4QYDVR0jBIHZMIHWgBQSzWAE0qCAnnDtxpm4eyzGUv0ZoaGBsqSB
rzCBrDELMAkGA1UEBhMCVVMxCzAJBgNVBAgTAk9IMREwDwYDVQQHEwhDb2x1bWJ1
czESMBAGA1UEChMJVmlraW5nVlBOMR0wGwYDVQQLExRNeU9yZ2FuaXphdGlvbmFs
VW5pdDEVMBMGA1UEAxMMVmlraW5nVlBOIENBMRAwDgYDVQQpEwdFYXN5UlNBMSEw
HwYJKoZIhvcNAQkBFhJtZUBteWhvc3QubXlkb21haW6CCQDPNYXugL8qPjATBgNV
HSUEDDAKBggrBgEFBQcDAjALBgNVHQ8EBAMCB4AwDQYJKoZIhvcNAQELBQADggIB
AKjcZ9gwrI0rZfIjLUsHFFcChQpNd6H6a2k2WNKxn+C4ZdMMPPUrcX0EZEZC6uLs
vxLqhKn283jSXS8XDmf9BtCIOafvBgJpS/OI8ES398t5iyZzMryUJD6hfIKcT8U7
/GuZkF09U99aUH6J49n6H5/JLNESNTT3h2FHv7fAY7ULDBnz3mViPK3ucK8zn8hz
xVmns7o9HCQsss+NalBVDzHrmiIPALffkpXHMq8CcXmNqnO7CMZvJPJ7HqKYSsIQ
5tqn176ZW8T77Gun2uI7e3jU5OnIvlRRYeSKn/4LJyvoFyTrsvKC9cO4aWWSmq5R
I82+g6pt8XmMR9lQsVxaxp6GyDYCqE0u/KCdeGP8hq5ZlgpQ1/r7K/72yk8Um23j
ROaMDBrrA4m4dlA8RQpgkKXzjUkq/8nLoNjkDaY1fxULWFfj2d7jhQnlSIEmp4vH
p4YEA2+w5VeiCdrCd4lL4p50ZcORIWFqZ00/rMK9Vo8LSBDgVxT85wIcGMA6SR1s
QVMTfemBIvo4EHAI4tuQXbUnLd3AMkO3nxn5QG6fj9jLsCiM6TX3K65fHCmUwvTX
U1cGa3hjwVv8MULZZqRuJro9w6V2CE/TdGDaH4ezDbyCopeALftkcLH2C1l6vzNN
xkgRpme8Y3uzLptG4gmewYMbLIKD5mqoTEdnfCt2PRtK
-----END CERTIFICATE-----
