Certificate:
    Data:
        Version: 3 (0x2)
        Serial Number: 2860 (0xb2c)
    Signature Algorithm: md5WithRSAEncryption
        Issuer: C=US, ST=OH, L=Columbus, O=VikingVPN, OU=MyOrganizationalUnit, CN=VikingVPN CA/name=EasyRSA/emailAddress=me@myhost.mydomain
        Validity
            Not Before: Sep 15 12:20:47 2014 GMT
            Not After : Sep 12 12:20:47 2024 GMT
        Subject: CN=Client988Cert4045db
        Subject Public Key Info:
            Public Key Algorithm: rsaEncryption
                Public-Key: (4096 bit)
                Modulus:
                    00:ff:33:be:63:3f:a0:51:57:a1:a9:ac:3b:a8:5a:
                    87:f1:42:f1:09:05:e7:3b:78:8d:e5:cd:d4:81:3f:
                    f5:d7:0b:48:d1:df:a6:26:b5:9a:f2:00:f2:7a:db:
                    76:7d:88:b3:3f:68:6c:fe:8d:b7:67:29:e2:d0:7a:
                    8a:20:02:7b:90:53:a2:b7:86:de:9d:d6:b5:57:d4:
                    44:89:e5:7a:da:01:ee:38:3d:67:34:9c:0d:8a:48:
                    21:99:c6:ed:b7:63:32:51:93:e1:e7:3e:87:4c:83:
                    f0:a7:87:16:3f:2b:b0:1f:3c:23:48:5b:71:c4:c1:
                    06:a5:a0:76:ca:26:0f:14:5d:9a:41:ab:85:19:f3:
                    ae:7b:bc:f8:a2:d5:76:e3:e9:ad:38:9f:45:17:6a:
                    06:51:1d:5a:58:ae:8b:88:19:b6:31:b7:cc:98:20:
                    5e:16:6c:e0:33:a7:a9:43:9f:a7:e7:cb:56:90:a1:
                    39:8f:c9:b2:43:94:5b:f9:e8:ea:44:5f:a5:85:07:
                    1f:29:2f:10:99:d2:82:85:25:4a:15:cd:16:fe:e6:
                    fe:a5:3a:90:a5:ae:f1:ba:99:66:d9:40:81:cf:b2:
                    d6:73:8f:9c:cb:57:9e:d2:3b:f6:13:9a:5c:8f:f0:
                    4f:36:df:3d:bf:f2:8d:31:f8:d7:ee:c4:a0:04:27:
                    30:65:7d:d3:56:84:45:6e:a7:1a:37:ef:77:2c:53:
                    64:91:58:a1:6c:ab:53:c0:bc:1f:5c:34:1e:f3:cf:
                    c6:6d:b9:93:6c:a0:80:a4:83:89:a8:8b:2e:d8:e8:
                    1a:24:61:b5:f9:d1:71:93:32:d7:77:a3:90:ec:54:
                    87:29:85:93:62:74:c5:c1:c4:a2:42:41:d1:b0:b6:
                    07:22:bf:54:99:49:b9:39:cf:66:cf:56:79:b4:4c:
                    b3:5a:69:fe:6f:b8:ab:48:df:2d:be:26:81:3e:13:
                    ca:54:59:c5:d2:5a:72:d4:f3:0e:06:f9:6b:35:9f:
                    4e:2a:38:0e:fe:e0:e4:09:c3:b7:b6:a8:91:ec:cb:
                    8a:99:9d:c5:18:64:d9:95:ea:38:0e:79:89:ad:67:
                    ae:57:32:a9:b2:a0:48:c8:c7:a6:3a:7d:b0:45:2a:
                    8e:62:3b:15:5a:78:31:ce:f2:d0:97:1e:be:05:a6:
                    f5:fe:1e:90:d4:9e:59:3d:66:cc:12:e1:16:50:99:
                    ff:52:eb:77:ba:1f:e5:fb:68:32:39:0e:cc:23:1a:
                    b9:98:56:20:45:4e:e2:8d:4b:b0:5c:19:76:b9:6b:
                    a4:91:ad:9e:a6:f1:8f:d9:4f:01:df:3f:8d:af:3d:
                    84:ff:47:d7:2f:cb:fc:f7:6f:04:b4:0c:d4:16:15:
                    07:8c:29
                Exponent: 65537 (0x10001)
        X509v3 extensions:
            X509v3 Basic Constraints: 
                CA:FALSE
            Netscape Comment: 
                Easy-RSA Generated Certificate
            X509v3 Subject Key Identifier: 
                10:24:51:8D:BF:35:A2:B0:01:3F:14:1D:C0:36:63:68:E7:49:8B:56
            X509v3 Authority Key Identifier: 
                keyid:12:CD:60:04:D2:A0:80:9E:70:ED:C6:99:B8:7B:2C:C6:52:FD:19:A1
                DirName:/C=US/ST=OH/L=Columbus/O=VikingVPN/OU=MyOrganizationalUnit/CN=VikingVPN CA/name=EasyRSA/emailAddress=me@myhost.mydomain
                serial:CF:35:85:EE:80:BF:2A:3E

            X509v3 Extended Key Usage: 
                TLS Web Client Authentication
            X509v3 Key Usage: 
                Digital Signature
    Signature Algorithm: md5WithRSAEncryption
         9e:14:43:03:c3:f5:1d:de:aa:5c:0e:f8:1c:76:5a:4d:60:67:
         e6:9a:26:da:21:32:c8:90:f2:14:f1:02:9a:d8:c1:c4:de:a8:
         5e:45:4b:c9:a0:1e:a2:fe:77:71:45:a2:cb:a1:51:4f:e6:e4:
         1d:2e:e2:78:1e:17:bc:45:20:ce:84:bb:cf:0e:f6:5a:bd:b4:
         c4:c0:ee:aa:0c:5f:09:62:a1:20:cd:25:c8:4d:45:2c:96:20:
         6f:0c:63:70:51:53:9c:02:9c:e0:5d:8c:69:fc:37:a3:a5:fd:
         c7:a4:96:b9:19:f4:2a:04:c7:1a:8f:aa:7f:a4:21:3c:0e:f8:
         d8:15:b9:96:67:2d:4e:5a:1c:37:74:14:fd:02:4e:1a:91:38:
         fb:c4:e4:b8:fa:9d:4b:78:78:52:96:3b:8f:c1:ec:90:10:3b:
         49:fc:4c:0a:5d:dc:a8:1e:e8:df:eb:a4:89:32:d3:3d:1a:40:
         30:24:22:cf:64:16:a1:f7:f1:5b:3a:f1:2f:62:a5:c1:4c:61:
         fe:dc:3f:be:9e:7d:ad:d9:48:18:4b:5f:50:36:01:5d:20:89:
         bf:31:c4:27:d2:6b:16:c6:b2:72:52:b4:af:f4:36:48:30:56:
         66:ea:27:d7:c6:99:c1:53:c0:17:e0:74:8f:d1:28:2d:96:56:
         37:15:be:ae:a5:f0:39:a5:5c:eb:de:19:3e:f3:3e:70:77:c4:
         b4:c5:69:d6:5c:c4:5c:6f:1f:90:b4:27:b2:54:38:1a:b9:a4:
         17:99:0d:57:66:67:e0:1b:df:90:70:ad:a6:39:6e:0e:f5:44:
         a6:5d:9d:21:ff:0c:29:ba:3c:b3:a2:84:3e:0c:26:0d:d6:32:
         f6:e7:ad:f9:2c:f7:9f:5e:a8:ed:f6:3c:97:ac:da:34:a4:8a:
         8f:6a:d4:83:b5:00:1e:cf:f2:0a:b6:d7:83:40:fe:b7:42:a0:
         2d:b4:f9:7f:09:d0:b3:c5:13:08:50:2f:80:06:24:43:81:14:
         b8:ef:58:16:18:00:bc:cd:cd:39:75:69:b7:ab:7b:f8:3e:b3:
         b7:8c:db:6a:3a:db:46:b8:98:ba:ef:57:e7:d6:ef:5f:a7:59:
         d2:09:27:61:9b:5d:21:03:9d:ac:f7:f7:53:af:20:44:28:dc:
         67:d0:2e:4e:8d:35:31:a3:dc:ed:c3:aa:58:b2:c6:3b:ee:a7:
         42:b6:d0:84:79:3c:7f:cb:a5:31:b3:af:bf:2a:7a:b9:b5:26:
         6d:01:8d:8c:ef:21:bc:0c:2d:ea:a0:de:91:c7:94:e7:cf:65:
         5f:20:c5:fc:1f:09:38:3d:cb:4e:cf:dc:05:a8:3b:67:1b:64:
         5a:d7:59:b3:d6:f6:71:b8
-----BEGIN CERTIFICATE-----
MIIGrDCCBJSgAwIBAgICCywwDQYJKoZIhvcNAQEEBQAwgawxCzAJBgNVBAYTAlVT
MQswCQYDVQQIEwJPSDERMA8GA1UEBxMIQ29sdW1idXMxEjAQBgNVBAoTCVZpa2lu
Z1ZQTjEdMBsGA1UECxMUTXlPcmdhbml6YXRpb25hbFVuaXQxFTATBgNVBAMTDFZp
a2luZ1ZQTiBDQTEQMA4GA1UEKRMHRWFzeVJTQTEhMB8GCSqGSIb3DQEJARYSbWVA
bXlob3N0Lm15ZG9tYWluMB4XDTE0MDkxNTEyMjA0N1oXDTI0MDkxMjEyMjA0N1ow
HjEcMBoGA1UEAxMTQ2xpZW50OTg4Q2VydDQwNDVkYjCCAiIwDQYJKoZIhvcNAQEB
BQADggIPADCCAgoCggIBAP8zvmM/oFFXoamsO6hah/FC8QkF5zt4jeXN1IE/9dcL
SNHfpia1mvIA8nrbdn2Isz9obP6Nt2cp4tB6iiACe5BToreG3p3WtVfURInletoB
7jg9ZzScDYpIIZnG7bdjMlGT4ec+h0yD8KeHFj8rsB88I0hbccTBBqWgdsomDxRd
mkGrhRnzrnu8+KLVduPprTifRRdqBlEdWliui4gZtjG3zJggXhZs4DOnqUOfp+fL
VpChOY/JskOUW/no6kRfpYUHHykvEJnSgoUlShXNFv7m/qU6kKWu8bqZZtlAgc+y
1nOPnMtXntI79hOaXI/wTzbfPb/yjTH41+7EoAQnMGV901aERW6nGjfvdyxTZJFY
oWyrU8C8H1w0HvPPxm25k2yggKSDiaiLLtjoGiRhtfnRcZMy13ejkOxUhymFk2J0
xcHEokJB0bC2ByK/VJlJuTnPZs9WebRMs1pp/m+4q0jfLb4mgT4TylRZxdJactTz
Dgb5azWfTio4Dv7g5AnDt7aokezLipmdxRhk2ZXqOA55ia1nrlcyqbKgSMjHpjp9
sEUqjmI7FVp4Mc7y0JcevgWm9f4ekNSeWT1mzBLhFlCZ/1Lrd7of5ftoMjkOzCMa
uZhWIEVO4o1LsFwZdrlrpJGtnqbxj9lPAd8/ja89hP9H1y/L/PdvBLQM1BYVB4wp
AgMBAAGjggFjMIIBXzAJBgNVHRMEAjAAMC0GCWCGSAGG+EIBDQQgFh5FYXN5LVJT
QSBHZW5lcmF0ZWQgQ2VydGlmaWNhdGUwHQYDVR0OBBYEFBAkUY2/NaKwAT8UHcA2
Y2jnSYtWMIHhBgNVHSMEgdkwgdaAFBLNYATSoICecO3Gmbh7LMZS/RmhoYGypIGv
MIGsMQswCQYDVQQGEwJVUzELMAkGA1UECBMCT0gxETAPBgNVBAcTCENvbHVtYnVz
MRIwEAYDVQQKEwlWaWtpbmdWUE4xHTAbBgNVBAsTFE15T3JnYW5pemF0aW9uYWxV
bml0MRUwEwYDVQQDEwxWaWtpbmdWUE4gQ0ExEDAOBgNVBCkTB0Vhc3lSU0ExITAf
BgkqhkiG9w0BCQEWEm1lQG15aG9zdC5teWRvbWFpboIJAM81he6Avyo+MBMGA1Ud
JQQMMAoGCCsGAQUFBwMCMAsGA1UdDwQEAwIHgDANBgkqhkiG9w0BAQQFAAOCAgEA
nhRDA8P1Hd6qXA74HHZaTWBn5pom2iEyyJDyFPECmtjBxN6oXkVLyaAeov53cUWi
y6FRT+bkHS7ieB4XvEUgzoS7zw72Wr20xMDuqgxfCWKhIM0lyE1FLJYgbwxjcFFT
nAKc4F2Mafw3o6X9x6SWuRn0KgTHGo+qf6QhPA742BW5lmctTlocN3QU/QJOGpE4
+8TkuPqdS3h4UpY7j8HskBA7SfxMCl3cqB7o3+ukiTLTPRpAMCQiz2QWoffxWzrx
L2KlwUxh/tw/vp59rdlIGEtfUDYBXSCJvzHEJ9JrFsayclK0r/Q2SDBWZuon18aZ
wVPAF+B0j9EoLZZWNxW+rqXwOaVc694ZPvM+cHfEtMVp1lzEXG8fkLQnslQ4Grmk
F5kNV2Zn4BvfkHCtpjluDvVEpl2dIf8MKbo8s6KEPgwmDdYy9uet+Sz3n16o7fY8
l6zaNKSKj2rUg7UAHs/yCrbXg0D+t0KgLbT5fwnQs8UTCFAvgAYkQ4EUuO9YFhgA
vM3NOXVpt6t7+D6zt4zbajrbRriYuu9X59bvX6dZ0gknYZtdIQOdrPf3U68gRCjc
Z9AuTo01MaPc7cOqWLLGO+6nQrbQhHk8f8ulMbOvvyp6ubUmbQGNjO8hvAwt6qDe
kceU589lXyDF/B8JOD3LTs/cBag7ZxtkWtdZs9b2cbg=
-----END CERTIFICATE-----
