Certificate:
    Data:
        Version: 3 (0x2)
        Serial Number: 7325 (0x1c9d)
    Signature Algorithm: md5WithRSAEncryption
        Issuer: C=US, ST=OH, L=Columbus, O=VikingVPN, OU=MyOrganizationalUnit, CN=VikingVPN CA/name=EasyRSA/emailAddress=me@myhost.mydomain
        Validity
            Not Before: Feb 27 19:13:06 2016 GMT
            Not After : Feb 24 19:13:06 2026 GMT
        Subject: CN=Client1834Cert166c37
        Subject Public Key Info:
            Public Key Algorithm: rsaEncryption
                Public-Key: (4096 bit)
                Modulus:
                    00:ae:80:93:4c:54:0a:25:35:af:7b:69:91:51:ad:
                    d6:31:ec:24:1c:f9:00:25:ef:ef:88:a0:fc:05:99:
                    57:c0:6c:fc:1c:75:12:80:f7:dd:c0:5a:d6:6e:85:
                    21:62:d7:99:58:95:a3:ba:84:89:9c:2b:ef:df:a1:
                    50:b4:97:5b:d6:bc:19:14:92:ef:52:d9:0a:c8:27:
                    32:16:c2:fb:40:40:e1:b9:fe:ba:4b:6b:55:67:b4:
                    44:1a:21:dd:fb:37:e6:f5:a1:df:d7:90:83:ca:52:
                    b1:50:29:eb:e2:d4:29:be:e5:e5:86:9b:6d:7c:88:
                    ad:b5:96:9a:1b:16:09:7e:c4:ce:16:fe:db:c7:68:
                    50:aa:5d:c2:58:ab:fa:53:a6:cf:ca:62:41:fa:f3:
                    ce:30:ce:4b:0e:7b:e9:0c:c2:ed:4d:51:72:fc:f7:
                    08:c2:fc:23:9f:cd:64:6d:57:ff:51:f9:c8:30:b9:
                    b4:fc:5c:6d:6c:da:20:07:2b:3f:78:36:4a:37:9c:
                    97:96:39:cd:4c:1e:2c:4a:45:e3:8b:a7:a0:95:c4:
                    c1:85:aa:6c:f6:f8:81:99:38:7a:49:26:29:d8:e3:
                    d9:42:4c:62:d3:e3:bc:fb:12:0f:d0:0d:c5:a5:f5:
                    74:a7:1a:15:c2:df:5a:93:8e:cd:67:1f:a0:34:21:
                    46:dd:73:e9:84:a8:c4:f9:65:fd:38:60:99:08:c7:
                    a5:25:8b:91:2a:7e:9a:30:d7:c7:63:55:34:ee:12:
                    16:21:ba:d0:c0:63:c9:da:36:f3:40:f2:a5:19:60:
                    68:e2:51:07:f2:11:19:c6:5e:a3:83:e3:39:5e:e1:
                    0e:e5:01:7e:01:5f:4e:4b:93:02:dd:d8:64:e3:d3:
                    57:9b:eb:0a:ac:62:52:ed:25:4a:da:1c:b2:27:73:
                    53:da:ca:2e:37:38:9c:a3:39:6a:c4:74:9a:17:28:
                    6a:e3:4f:c5:3c:1d:c1:9f:d7:80:55:a8:95:2a:b7:
                    6a:66:c5:3c:4c:11:2f:52:d5:1c:71:ae:86:97:03:
                    d3:e2:24:6d:25:67:58:18:01:64:c3:65:8e:51:49:
                    0a:11:19:88:0c:da:cb:0a:e0:42:7f:4f:43:85:0c:
                    5f:bc:2e:08:ca:1f:7b:39:ef:da:0a:45:cf:05:dd:
                    a2:12:d3:10:98:08:91:61:9e:4d:2b:41:b2:21:37:
                    d0:32:5a:f4:97:74:95:7b:81:a1:64:8f:f4:bf:ee:
                    91:a7:e7:01:ad:4d:f6:79:4d:48:3f:37:04:3d:d9:
                    4c:fd:95:03:10:b1:58:6d:bd:99:2c:70:cf:bf:f4:
                    0c:a4:ea:7a:47:3c:28:f3:8c:86:93:ae:3f:33:7e:
                    48:46:cd
                Exponent: 65537 (0x10001)
        X509v3 extensions:
            X509v3 Basic Constraints: 
                CA:FALSE
            Netscape Comment: 
                Easy-RSA Generated Certificate
            X509v3 Subject Key Identifier: 
                8F:20:FF:30:46:EE:D8:DD:E4:93:90:74:23:33:DB:65:FB:04:B5:7F
            X509v3 Authority Key Identifier: 
                keyid:12:CD:60:04:D2:A0:80:9E:70:ED:C6:99:B8:7B:2C:C6:52:FD:19:A1
                DirName:/C=US/ST=OH/L=Columbus/O=VikingVPN/OU=MyOrganizationalUnit/CN=VikingVPN CA/name=EasyRSA/emailAddress=me@myhost.mydomain
                serial:CF:35:85:EE:80:BF:2A:3E

            X509v3 Extended Key Usage: 
                TLS Web Client Authentication
            X509v3 Key Usage: 
                Digital Signature
    Signature Algorithm: md5WithRSAEncryption
         56:41:59:17:59:52:ce:58:80:75:e4:a9:30:0d:2a:22:32:3b:
         e3:fc:93:23:27:56:65:77:70:a6:a2:89:0a:1e:1f:e0:6c:33:
         18:ee:85:29:30:4f:3d:ff:14:4f:cf:74:17:e3:f2:21:fe:d9:
         55:e1:56:e9:39:3d:26:15:a1:d8:69:21:21:73:ef:7c:17:b9:
         8a:e7:8f:de:c9:dc:bb:d6:66:d9:e3:72:ef:46:5c:0a:58:99:
         cd:8c:dd:2b:d7:fc:c5:89:a4:01:b5:fd:c2:6b:5f:40:26:11:
         d7:d6:16:79:5b:45:42:63:69:90:0e:1a:6e:f4:88:4b:35:79:
         46:bf:10:07:73:69:49:eb:da:94:49:ab:55:02:39:22:45:90:
         1c:2d:5d:66:56:6c:85:aa:05:ad:33:6d:39:a9:8c:b0:c6:85:
         f0:c1:42:44:2b:88:dc:8c:7e:19:af:bd:83:c0:19:c4:b5:63:
         a2:41:86:95:68:8c:27:d7:dd:49:22:44:41:f2:7f:3b:04:ab:
         1f:f0:a6:ca:26:2c:e7:87:7c:9f:69:82:7b:4f:1d:09:f2:8f:
         23:d1:17:28:0b:e7:15:23:c8:1b:4d:d9:1a:db:16:6a:4e:61:
         52:a1:e4:26:de:d5:38:c9:63:1b:41:70:eb:0c:8f:3c:6a:84:
         ca:19:11:c1:3a:6f:6a:d4:26:50:ed:6f:63:4f:9b:a4:a2:4f:
         84:87:1c:61:2b:a0:11:db:8e:c7:f5:47:18:9c:1c:65:eb:c6:
         fb:b3:34:be:3a:f3:fa:82:c0:13:6b:82:9f:2d:9e:89:52:71:
         ac:e7:55:fb:58:6d:04:f0:82:08:b8:8e:62:d7:9a:b1:35:a9:
         ab:bc:3e:10:2f:f5:03:ba:e9:87:e7:1b:8b:6a:f6:f1:ac:40:
         0e:f2:26:8b:b5:b1:16:b1:54:f8:2c:6b:02:67:a4:ef:84:54:
         bd:a6:b0:d8:92:64:92:cb:03:95:a6:e0:60:78:61:86:58:c1:
         09:c7:5c:6d:9d:1e:d3:d1:7b:c2:20:0a:f3:ae:01:f3:6f:bb:
         cd:c5:22:71:0c:bf:4d:5b:09:6c:9d:be:3b:c7:9f:1a:cd:f3:
         c8:bd:74:41:e6:e9:58:7f:de:10:10:df:db:bc:60:de:c7:a6:
         9f:a9:f8:41:db:04:39:e1:12:90:61:c4:7d:fc:df:3e:5c:64:
         c4:17:5d:9b:4a:45:df:07:74:35:c9:00:33:9c:24:9e:0e:86:
         7d:22:12:32:2a:e0:24:6b:3a:5a:3d:6f:70:ba:80:2e:ab:ad:
         b2:9a:b9:fe:ab:ff:80:e4:40:38:9f:0b:75:19:37:94:ca:cc:
         b8:f6:5e:71:7e:b0:a4:c4
-----BEGIN CERTIFICATE-----
MIIGrTCCBJWgAwIBAgICHJ0wDQYJKoZIhvcNAQEEBQAwgawxCzAJBgNVBAYTAlVT
MQswCQYDVQQIEwJPSDERMA8GA1UEBxMIQ29sdW1idXMxEjAQBgNVBAoTCVZpa2lu
Z1ZQTjEdMBsGA1UECxMUTXlPcmdhbml6YXRpb25hbFVuaXQxFTATBgNVBAMTDFZp
a2luZ1ZQTiBDQTEQMA4GA1UEKRMHRWFzeVJTQTEhMB8GCSqGSIb3DQEJARYSbWVA
bXlob3N0Lm15ZG9tYWluMB4XDTE2MDIyNzE5MTMwNloXDTI2MDIyNDE5MTMwNlow
HzEdMBsGA1UEAxMUQ2xpZW50MTgzNENlcnQxNjZjMzcwggIiMA0GCSqGSIb3DQEB
AQUAA4ICDwAwggIKAoICAQCugJNMVAolNa97aZFRrdYx7CQc+QAl7++IoPwFmVfA
bPwcdRKA993AWtZuhSFi15lYlaO6hImcK+/foVC0l1vWvBkUku9S2QrIJzIWwvtA
QOG5/rpLa1VntEQaId37N+b1od/XkIPKUrFQKevi1Cm+5eWGm218iK21lpobFgl+
xM4W/tvHaFCqXcJYq/pTps/KYkH6884wzksOe+kMwu1NUXL89wjC/COfzWRtV/9R
+cgwubT8XG1s2iAHKz94Nko3nJeWOc1MHixKReOLp6CVxMGFqmz2+IGZOHpJJinY
49lCTGLT47z7Eg/QDcWl9XSnGhXC31qTjs1nH6A0IUbdc+mEqMT5Zf04YJkIx6Ul
i5Eqfpow18djVTTuEhYhutDAY8naNvNA8qUZYGjiUQfyERnGXqOD4zle4Q7lAX4B
X05LkwLd2GTj01eb6wqsYlLtJUraHLInc1Payi43OJyjOWrEdJoXKGrjT8U8HcGf
14BVqJUqt2pmxTxMES9S1RxxroaXA9PiJG0lZ1gYAWTDZY5RSQoRGYgM2ssK4EJ/
T0OFDF+8LgjKH3s579oKRc8F3aIS0xCYCJFhnk0rQbIhN9AyWvSXdJV7gaFkj/S/
7pGn5wGtTfZ5TUg/NwQ92Uz9lQMQsVhtvZkscM+/9Ayk6npHPCjzjIaTrj8zfkhG
zQIDAQABo4IBYzCCAV8wCQYDVR0TBAIwADAtBglghkgBhvhCAQ0EIBYeRWFzeS1S
U0EgR2VuZXJhdGVkIENlcnRpZmljYXRlMB0GA1UdDgQWBBSPIP8wRu7Y3eSTkHQj
M9tl+wS1fzCB4QYDVR0jBIHZMIHWgBQSzWAE0qCAnnDtxpm4eyzGUv0ZoaGBsqSB
rzCBrDELMAkGA1UEBhMCVVMxCzAJBgNVBAgTAk9IMREwDwYDVQQHEwhDb2x1bWJ1
czESMBAGA1UEChMJVmlraW5nVlBOMR0wGwYDVQQLExRNeU9yZ2FuaXphdGlvbmFs
VW5pdDEVMBMGA1UEAxMMVmlraW5nVlBOIENBMRAwDgYDVQQpEwdFYXN5UlNBMSEw
HwYJKoZIhvcNAQkBFhJtZUBteWhvc3QubXlkb21haW6CCQDPNYXugL8qPjATBgNV
HSUEDDAKBggrBgEFBQcDAjALBgNVHQ8EBAMCB4AwDQYJKoZIhvcNAQEEBQADggIB
AFZBWRdZUs5YgHXkqTANKiIyO+P8kyMnVmV3cKaiiQoeH+BsMxjuhSkwTz3/FE/P
dBfj8iH+2VXhVuk5PSYVodhpISFz73wXuYrnj97J3LvWZtnjcu9GXApYmc2M3SvX
/MWJpAG1/cJrX0AmEdfWFnlbRUJjaZAOGm70iEs1eUa/EAdzaUnr2pRJq1UCOSJF
kBwtXWZWbIWqBa0zbTmpjLDGhfDBQkQriNyMfhmvvYPAGcS1Y6JBhpVojCfX3Uki
REHyfzsEqx/wpsomLOeHfJ9pgntPHQnyjyPRFygL5xUjyBtN2RrbFmpOYVKh5Cbe
1TjJYxtBcOsMjzxqhMoZEcE6b2rUJlDtb2NPm6SiT4SHHGEroBHbjsf1RxicHGXr
xvuzNL468/qCwBNrgp8tnolScaznVftYbQTwggi4jmLXmrE1qau8PhAv9QO66Yfn
G4tq9vGsQA7yJou1sRaxVPgsawJnpO+EVL2msNiSZJLLA5Wm4GB4YYZYwQnHXG2d
HtPRe8IgCvOuAfNvu83FInEMv01bCWydvjvHnxrN88i9dEHm6Vh/3hAQ39u8YN7H
pp+p+EHbBDnhEpBhxH383z5cZMQXXZtKRd8HdDXJADOcJJ4Ohn0iEjIq4CRrOlo9
b3C6gC6rrbKauf6r/4DkQDifC3UZN5TKzLj2XnF+sKTE
-----END CERTIFICATE-----
