Certificate:
    Data:
        Version: 3 (0x2)
        Serial Number: 3948 (0xf6c)
    Signature Algorithm: md5WithRSAEncryption
        Issuer: C=US, ST=OH, L=Columbus, O=VikingVPN, OU=MyOrganizationalUnit, CN=VikingVPN CA/name=EasyRSA/emailAddress=me@myhost.mydomain
        Validity
            Not Before: Jan  2 02:57:29 2015 GMT
            Not After : Dec 30 02:57:29 2024 GMT
        Subject: CN=Client955Certe5bf39
        Subject Public Key Info:
            Public Key Algorithm: rsaEncryption
                Public-Key: (4096 bit)
                Modulus:
                    00:97:b1:c2:fa:6a:a3:d9:e7:d0:0c:0f:9b:cf:77:
                    04:89:b9:3e:7c:16:d3:f1:48:d1:f4:49:31:c5:00:
                    c5:67:81:7d:47:3e:9f:3b:cf:d7:6c:65:7d:08:fc:
                    0d:d7:86:b2:e3:5e:cc:0c:87:ae:2d:da:1d:03:98:
                    0e:07:78:af:cc:a6:f9:bd:f2:14:89:67:85:b5:b1:
                    82:6d:e0:89:d2:fb:49:bc:a8:d2:66:42:12:dd:ff:
                    7a:f9:29:ff:5e:0a:19:cc:d2:8c:eb:b4:5e:67:a6:
                    bc:23:77:dc:d7:31:e2:2d:3f:bb:4a:78:f7:85:18:
                    a7:11:2e:78:a6:1f:2f:ac:cb:58:26:73:51:9f:c0:
                    64:13:a0:4f:37:9b:09:b1:9d:66:84:e5:83:8a:d7:
                    0b:d3:73:00:ec:9d:6b:20:11:34:8d:38:ac:47:3b:
                    26:8b:41:38:7b:d3:90:92:b1:2c:b8:25:64:c4:d7:
                    e8:cd:47:ba:4f:aa:b0:10:30:2b:fb:e2:51:60:1b:
                    52:56:05:32:1b:d6:54:d6:82:cd:fd:0f:cc:1f:e0:
                    50:0f:dc:b1:67:0d:4f:32:91:e2:61:64:6a:4f:99:
                    0e:f7:0a:98:fb:c4:c8:63:d5:92:b9:b8:20:a1:fc:
                    f0:0a:09:f4:9c:3d:a4:7d:ed:b5:ec:42:71:e5:54:
                    c7:6b:b9:d4:f2:9c:c3:3f:57:6d:c1:29:f9:d8:10:
                    8b:72:2c:27:44:06:18:81:f3:9a:c2:63:0b:a8:57:
                    04:b0:ea:49:51:dd:c2:25:e9:62:9b:a8:a3:71:1c:
                    41:eb:22:89:e8:0b:5c:68:c8:87:c2:24:bd:49:1f:
                    34:a6:6c:06:65:cb:56:da:7f:bd:f0:04:d4:5f:ee:
                    d2:64:b0:7a:0c:24:9f:1d:67:76:64:74:66:9a:a6:
                    21:12:03:ea:7c:4b:88:7c:a9:9d:43:6f:22:96:ec:
                    2b:e7:1a:62:38:a6:82:3c:0e:e4:6d:1b:ad:93:9c:
                    c5:12:52:af:7f:cf:ef:65:e9:97:06:32:70:35:b4:
                    77:d9:c0:99:dd:2b:24:94:e7:10:e7:2a:8e:77:53:
                    8c:c2:bf:6d:85:43:60:35:f8:bb:d6:a8:e7:a4:b3:
                    ef:da:35:3b:e1:99:21:17:4a:ea:91:1b:3f:03:e6:
                    58:22:f6:86:d4:b2:78:35:26:3b:f3:cb:29:a1:63:
                    c1:53:d9:1f:f8:68:7d:0d:d1:c9:1f:5c:38:02:15:
                    43:a6:2c:f8:10:4d:e1:19:f6:48:ff:6e:1e:e5:f7:
                    2e:35:e1:e4:9e:9f:c0:92:c6:fd:83:ae:71:91:67:
                    65:78:23:e4:cb:97:17:d4:57:0d:c9:6c:fb:69:2f:
                    20:70:49
                Exponent: 65537 (0x10001)
        X509v3 extensions:
            X509v3 Basic Constraints: 
                CA:FALSE
            Netscape Comment: 
                Easy-RSA Generated Certificate
            X509v3 Subject Key Identifier: 
                44:13:7D:0B:55:59:4D:7F:E7:3D:3B:F2:62:01:16:40:AF:36:83:41
            X509v3 Authority Key Identifier: 
                keyid:12:CD:60:04:D2:A0:80:9E:70:ED:C6:99:B8:7B:2C:C6:52:FD:19:A1
                DirName:/C=US/ST=OH/L=Columbus/O=VikingVPN/OU=MyOrganizationalUnit/CN=VikingVPN CA/name=EasyRSA/emailAddress=me@myhost.mydomain
                serial:CF:35:85:EE:80:BF:2A:3E

            X509v3 Extended Key Usage: 
                TLS Web Client Authentication
            X509v3 Key Usage: 
                Digital Signature
    Signature Algorithm: md5WithRSAEncryption
         6a:08:8b:9d:6e:e9:c1:9a:5f:6e:a2:ea:25:ec:4d:63:08:e0:
         6f:26:3d:83:20:27:39:34:a4:e3:09:59:cb:ef:dc:32:d0:e8:
         af:51:93:a4:9c:a6:8a:69:83:c3:3e:6e:70:31:b7:9b:fe:cb:
         56:ad:5f:29:95:ba:07:9e:c1:b7:80:31:7f:75:12:82:64:dc:
         ad:de:76:ed:1b:c6:3b:bb:3b:59:4c:06:7b:24:18:12:e2:b2:
         51:b7:4b:ca:82:ea:48:f9:3c:72:ef:cf:c6:ec:de:e0:c8:a2:
         5d:1c:55:a2:57:cc:51:fe:ae:76:44:c6:7a:fa:b3:ff:d8:58:
         b0:97:55:19:f2:f5:ca:f4:1a:cb:88:e4:cd:6a:1f:0d:33:df:
         3e:75:d0:59:79:49:d9:ff:a0:34:85:6d:6f:80:ea:8f:de:b3:
         f5:17:9c:4f:f8:79:84:57:dc:17:15:48:ba:99:46:95:0c:c8:
         b0:41:f9:89:7a:38:95:1f:22:b0:89:08:b1:9d:c1:c4:69:7e:
         d7:4f:9d:99:cf:b8:dc:aa:4f:4c:81:55:0b:e1:1f:8a:52:1b:
         1c:c5:58:f6:e3:7e:31:c1:9e:77:28:53:4a:da:94:7a:c5:82:
         7f:e7:37:70:12:39:53:f0:bb:c2:64:88:01:d9:d3:32:84:a3:
         4c:c9:9d:69:79:3b:f4:f7:f7:c2:6a:1b:11:68:24:63:b6:86:
         8c:ed:68:af:c6:1a:3e:ae:1c:ef:7f:dd:37:7d:dc:ca:a1:7f:
         d6:d3:bc:8e:f8:cb:eb:61:5f:f9:57:f8:14:16:9e:0e:25:c4:
         22:51:b2:77:1a:57:c4:8c:01:69:68:4c:82:fc:4d:9d:d9:a1:
         a9:ed:b5:75:3e:16:b7:96:50:6d:dc:60:41:ea:98:37:20:bc:
         06:b4:02:a4:c8:83:1d:6b:a0:23:03:87:e3:92:cd:b1:14:da:
         29:32:1f:09:ae:69:37:d5:6d:ee:05:b1:c5:29:19:53:a8:7c:
         af:9f:8f:a3:3e:19:04:a3:58:0c:e7:81:ca:31:82:c2:b0:df:
         f7:0c:99:6b:e2:31:a5:fe:d4:19:d6:d6:48:c6:c5:2c:9c:ef:
         49:cc:9e:08:e4:d9:bb:11:b4:49:96:15:80:72:68:bd:11:29:
         12:59:03:96:c8:12:bf:bb:7d:cf:3b:3d:d6:58:16:4f:30:c9:
         94:e6:e2:67:ca:80:96:73:bf:53:79:09:b1:e2:c9:13:cf:59:
         b4:83:26:2a:03:97:1f:63:55:40:46:d2:71:4a:c6:ee:b3:1a:
         b3:01:9d:c6:b2:f5:07:cc:40:0f:3c:45:04:50:9f:cc:ed:32:
         d9:ab:68:2e:17:81:a2:14
-----BEGIN CERTIFICATE-----
MIIGrDCCBJSgAwIBAgICD2wwDQYJKoZIhvcNAQEEBQAwgawxCzAJBgNVBAYTAlVT
MQswCQYDVQQIEwJPSDERMA8GA1UEBxMIQ29sdW1idXMxEjAQBgNVBAoTCVZpa2lu
Z1ZQTjEdMBsGA1UECxMUTXlPcmdhbml6YXRpb25hbFVuaXQxFTATBgNVBAMTDFZp
a2luZ1ZQTiBDQTEQMA4GA1UEKRMHRWFzeVJTQTEhMB8GCSqGSIb3DQEJARYSbWVA
bXlob3N0Lm15ZG9tYWluMB4XDTE1MDEwMjAyNTcyOVoXDTI0MTIzMDAyNTcyOVow
HjEcMBoGA1UEAxMTQ2xpZW50OTU1Q2VydGU1YmYzOTCCAiIwDQYJKoZIhvcNAQEB
BQADggIPADCCAgoCggIBAJexwvpqo9nn0AwPm893BIm5PnwW0/FI0fRJMcUAxWeB
fUc+nzvP12xlfQj8DdeGsuNezAyHri3aHQOYDgd4r8ym+b3yFIlnhbWxgm3gidL7
Sbyo0mZCEt3/evkp/14KGczSjOu0XmemvCN33Ncx4i0/u0p494UYpxEueKYfL6zL
WCZzUZ/AZBOgTzebCbGdZoTlg4rXC9NzAOydayARNI04rEc7JotBOHvTkJKxLLgl
ZMTX6M1Huk+qsBAwK/viUWAbUlYFMhvWVNaCzf0PzB/gUA/csWcNTzKR4mFkak+Z
DvcKmPvEyGPVkrm4IKH88AoJ9Jw9pH3ttexCceVUx2u51PKcwz9XbcEp+dgQi3Is
J0QGGIHzmsJjC6hXBLDqSVHdwiXpYpuoo3EcQesiiegLXGjIh8IkvUkfNKZsBmXL
Vtp/vfAE1F/u0mSwegwknx1ndmR0ZpqmIRID6nxLiHypnUNvIpbsK+caYjimgjwO
5G0brZOcxRJSr3/P72XplwYycDW0d9nAmd0rJJTnEOcqjndTjMK/bYVDYDX4u9ao
56Sz79o1O+GZIRdK6pEbPwPmWCL2htSyeDUmO/PLKaFjwVPZH/hofQ3RyR9cOAIV
Q6Ys+BBN4Rn2SP9uHuX3LjXh5J6fwJLG/YOucZFnZXgj5MuXF9RXDcls+2kvIHBJ
AgMBAAGjggFjMIIBXzAJBgNVHRMEAjAAMC0GCWCGSAGG+EIBDQQgFh5FYXN5LVJT
QSBHZW5lcmF0ZWQgQ2VydGlmaWNhdGUwHQYDVR0OBBYEFEQTfQtVWU1/5z078mIB
FkCvNoNBMIHhBgNVHSMEgdkwgdaAFBLNYATSoICecO3Gmbh7LMZS/RmhoYGypIGv
MIGsMQswCQYDVQQGEwJVUzELMAkGA1UECBMCT0gxETAPBgNVBAcTCENvbHVtYnVz
MRIwEAYDVQQKEwlWaWtpbmdWUE4xHTAbBgNVBAsTFE15T3JnYW5pemF0aW9uYWxV
bml0MRUwEwYDVQQDEwxWaWtpbmdWUE4gQ0ExEDAOBgNVBCkTB0Vhc3lSU0ExITAf
BgkqhkiG9w0BCQEWEm1lQG15aG9zdC5teWRvbWFpboIJAM81he6Avyo+MBMGA1Ud
JQQMMAoGCCsGAQUFBwMCMAsGA1UdDwQEAwIHgDANBgkqhkiG9w0BAQQFAAOCAgEA
agiLnW7pwZpfbqLqJexNYwjgbyY9gyAnOTSk4wlZy+/cMtDor1GTpJymimmDwz5u
cDG3m/7LVq1fKZW6B57Bt4Axf3USgmTcrd527RvGO7s7WUwGeyQYEuKyUbdLyoLq
SPk8cu/Pxuze4MiiXRxVolfMUf6udkTGevqz/9hYsJdVGfL1yvQay4jkzWofDTPf
PnXQWXlJ2f+gNIVtb4Dqj96z9RecT/h5hFfcFxVIuplGlQzIsEH5iXo4lR8isIkI
sZ3BxGl+10+dmc+43KpPTIFVC+EfilIbHMVY9uN+McGedyhTStqUesWCf+c3cBI5
U/C7wmSIAdnTMoSjTMmdaXk79Pf3wmobEWgkY7aGjO1or8YaPq4c73/dN33cyqF/
1tO8jvjL62Ff+Vf4FBaeDiXEIlGydxpXxIwBaWhMgvxNndmhqe21dT4Wt5ZQbdxg
QeqYNyC8BrQCpMiDHWugIwOH45LNsRTaKTIfCa5pN9Vt7gWxxSkZU6h8r5+Poz4Z
BKNYDOeByjGCwrDf9wyZa+Ixpf7UGdbWSMbFLJzvScyeCOTZuxG0SZYVgHJovREp
ElkDlsgSv7t9zzs91lgWTzDJlObiZ8qAlnO/U3kJseLJE89ZtIMmKgOXH2NVQEbS
cUrG7rMaswGdxrL1B8xADzxFBFCfzO0y2atoLheBohQ=
-----END CERTIFICATE-----
