Certificate:
    Data:
        Version: 3 (0x2)
        Serial Number: 5102 (0x13ee)
    Signature Algorithm: md5WithRSAEncryption
        Issuer: C=US, ST=OH, L=Columbus, O=VikingVPN, OU=MyOrganizationalUnit, CN=VikingVPN CA/name=EasyRSA/emailAddress=me@myhost.mydomain
        Validity
            Not Before: Apr 27 08:01:47 2015 GMT
            Not After : Apr 24 08:01:47 2025 GMT
        Subject: CN=Client3Cert826f5e
        Subject Public Key Info:
            Public Key Algorithm: rsaEncryption
                Public-Key: (4096 bit)
                Modulus:
                    00:d9:e3:36:78:b5:ef:cf:0f:f0:51:62:5e:05:2a:
                    02:d8:aa:1f:68:dd:c9:dd:a1:9c:f7:1b:e1:15:03:
                    de:5f:39:93:bd:9e:27:6e:9b:30:40:56:16:e5:98:
                    59:ef:88:44:e8:63:0f:e3:0a:fe:19:5a:9f:b2:07:
                    6f:e2:39:85:ff:ec:3c:ed:2e:07:fb:21:c6:63:e1:
                    a7:73:e8:9a:8d:25:77:db:d8:53:9e:1f:b5:c8:1a:
                    a0:6d:11:06:5b:b8:3a:9b:62:1c:91:22:10:a5:3a:
                    a9:30:a9:09:dd:2b:65:45:42:77:84:fd:47:02:0b:
                    4b:bf:b2:43:5e:7f:a4:94:18:98:8d:49:66:a8:1f:
                    0e:01:80:af:ed:2d:60:49:a2:d8:44:2d:96:6a:26:
                    82:0b:f3:e5:8a:59:7a:a2:b6:a1:66:5b:5b:38:ae:
                    77:6f:99:cb:0c:29:0c:ce:b4:c3:8b:f0:d9:36:90:
                    0d:2f:e1:a9:b2:45:03:29:ae:61:ea:1d:6e:b0:68:
                    8f:16:a5:44:51:d3:ea:f8:52:9a:4e:f6:f3:6c:9c:
                    5c:6a:ee:50:ce:94:88:25:37:28:aa:7f:13:25:97:
                    0e:f4:73:78:b3:bb:79:4b:b2:c2:06:26:ed:49:01:
                    af:dc:fa:d7:b8:80:0d:59:c3:e1:87:cd:ec:c1:ab:
                    73:cb:df:b7:74:a0:77:67:74:2b:51:ae:6d:22:a7:
                    00:f4:06:c5:c9:82:63:e8:c9:cf:09:ef:a2:ac:61:
                    70:ab:6e:c2:78:21:14:9f:5e:7f:14:1e:ac:ce:13:
                    99:2a:aa:9b:82:54:bb:18:61:c8:f2:66:a6:4c:96:
                    35:d8:5f:f2:54:01:22:ca:9c:d8:73:d3:b9:b3:b2:
                    0b:cc:49:2f:4d:24:21:07:cf:1a:00:00:01:07:97:
                    b4:89:97:08:73:c6:21:9c:e9:90:25:fb:0d:9c:da:
                    92:4d:8c:db:97:7c:8d:30:a5:1e:19:f6:aa:08:b0:
                    ba:00:f7:88:9e:3c:f9:35:bb:6c:39:29:2f:4a:b4:
                    bb:4b:1b:93:02:0e:2e:04:a1:b1:7e:aa:a6:58:fa:
                    e9:02:05:c1:96:6e:92:9b:1d:d0:c7:62:5b:92:c7:
                    66:72:41:f0:60:8e:e3:7a:3a:fc:ad:13:29:4b:9f:
                    12:b5:c0:a1:57:0f:8a:1e:be:d9:c1:e9:00:e4:5c:
                    1c:70:77:83:f7:77:a8:17:01:f9:37:4e:19:eb:d5:
                    be:d6:20:71:7c:d7:a4:fe:4a:23:de:0e:ab:3a:ec:
                    59:f5:9f:bd:f7:01:69:9f:4b:76:04:1b:28:25:56:
                    b4:37:80:90:3d:d3:a3:f9:e7:1a:d0:84:76:44:0c:
                    b9:28:c7
                Exponent: 65537 (0x10001)
        X509v3 extensions:
            X509v3 Basic Constraints: 
                CA:FALSE
            Netscape Comment: 
                Easy-RSA Generated Certificate
            X509v3 Subject Key Identifier: 
                E1:DA:24:D2:B6:27:C0:1F:30:E8:F5:48:CE:56:07:C5:67:D2:F9:32
            X509v3 Authority Key Identifier: 
                keyid:12:CD:60:04:D2:A0:80:9E:70:ED:C6:99:B8:7B:2C:C6:52:FD:19:A1
                DirName:/C=US/ST=OH/L=Columbus/O=VikingVPN/OU=MyOrganizationalUnit/CN=VikingVPN CA/name=EasyRSA/emailAddress=me@myhost.mydomain
                serial:CF:35:85:EE:80:BF:2A:3E

            X509v3 Extended Key Usage: 
                TLS Web Client Authentication
            X509v3 Key Usage: 
                Digital Signature
    Signature Algorithm: md5WithRSAEncryption
         9e:05:4a:2e:cb:81:18:98:b8:4c:c9:1e:16:b3:1d:a2:c2:01:
         50:49:1b:35:b9:e0:1d:70:3b:3a:ff:d7:3a:24:97:29:c7:e6:
         c7:2a:30:5f:8b:88:a1:57:5d:65:e8:88:90:88:ec:72:48:c4:
         e6:01:80:d8:07:73:c8:af:33:c0:94:51:9a:5f:88:dc:6d:1b:
         9e:69:a3:ad:9e:dc:af:87:a2:c6:a0:88:f9:80:f4:a2:6a:20:
         0b:1d:9e:52:03:45:78:d1:e5:d1:9f:10:df:15:01:62:d4:af:
         05:ba:f3:42:d8:84:43:ff:3c:10:40:70:d2:76:14:c2:b0:ea:
         cd:94:28:da:d1:a9:68:b5:ea:a6:92:31:50:5b:c2:b2:af:a7:
         5a:88:ef:94:d9:f9:d9:b9:b6:a5:39:98:72:de:61:db:85:a0:
         ee:79:28:ff:27:cd:b8:55:fb:cd:bb:14:53:7d:b4:39:4c:a6:
         df:9d:1c:2c:0f:67:90:13:27:01:92:a5:41:11:07:9c:5b:f9:
         e1:f5:a4:13:3e:e1:57:b1:11:5c:4d:a6:78:e0:3d:6a:bb:b9:
         39:4c:05:46:0e:57:f2:86:81:cc:27:c4:4c:b0:82:2a:ce:6a:
         f9:50:4d:9e:0d:f1:28:cf:7d:f9:52:14:5e:73:91:39:f0:12:
         34:64:5b:28:0d:ff:aa:3a:56:4d:81:f1:ba:cc:d0:6e:36:70:
         e4:a2:ab:a3:27:c9:1b:0a:c7:89:c8:49:34:b2:44:c6:52:ea:
         b5:37:36:f4:f4:d2:8f:4a:ff:78:30:8b:2e:48:8a:4e:b1:4c:
         18:cb:88:ad:62:94:8f:10:d5:b4:37:2e:ff:4f:9d:d2:69:6e:
         5c:db:3d:10:cb:33:06:17:63:8e:b9:72:d0:f9:c9:c3:97:c1:
         33:34:ea:46:5a:e9:e0:4c:8e:80:8f:b6:e3:79:c0:6d:8d:78:
         40:ca:19:c9:c1:56:de:0d:82:4a:bd:ab:71:c6:07:6b:14:0e:
         34:95:02:c5:5f:60:56:00:cb:74:5c:6e:40:6d:e5:c2:14:2d:
         55:22:51:fa:b7:d9:ec:38:b5:f0:22:2c:08:b7:45:0b:53:d7:
         c8:e3:3e:89:a6:d5:c4:15:55:be:d0:1b:2c:9e:b6:da:70:d3:
         86:8b:4c:10:18:8f:f2:61:20:a4:05:e3:74:74:99:60:44:b2:
         e0:a9:f9:15:0e:17:ab:b8:57:3d:90:08:e6:34:ce:07:be:d9:
         90:0d:90:6b:e4:66:d9:ef:15:c8:59:99:01:6c:53:28:c3:04:
         d7:bd:6b:f7:e1:16:62:c9:6d:88:0f:77:a4:a7:34:cf:20:c9:
         5e:1a:f8:93:c2:2c:56:c5
-----BEGIN CERTIFICATE-----
MIIGqjCCBJKgAwIBAgICE+4wDQYJKoZIhvcNAQEEBQAwgawxCzAJBgNVBAYTAlVT
MQswCQYDVQQIEwJPSDERMA8GA1UEBxMIQ29sdW1idXMxEjAQBgNVBAoTCVZpa2lu
Z1ZQTjEdMBsGA1UECxMUTXlPcmdhbml6YXRpb25hbFVuaXQxFTATBgNVBAMTDFZp
a2luZ1ZQTiBDQTEQMA4GA1UEKRMHRWFzeVJTQTEhMB8GCSqGSIb3DQEJARYSbWVA
bXlob3N0Lm15ZG9tYWluMB4XDTE1MDQyNzA4MDE0N1oXDTI1MDQyNDA4MDE0N1ow
HDEaMBgGA1UEAxMRQ2xpZW50M0NlcnQ4MjZmNWUwggIiMA0GCSqGSIb3DQEBAQUA
A4ICDwAwggIKAoICAQDZ4zZ4te/PD/BRYl4FKgLYqh9o3cndoZz3G+EVA95fOZO9
nidumzBAVhblmFnviEToYw/jCv4ZWp+yB2/iOYX/7DztLgf7IcZj4adz6JqNJXfb
2FOeH7XIGqBtEQZbuDqbYhyRIhClOqkwqQndK2VFQneE/UcCC0u/skNef6SUGJiN
SWaoHw4BgK/tLWBJothELZZqJoIL8+WKWXqitqFmW1s4rndvmcsMKQzOtMOL8Nk2
kA0v4amyRQMprmHqHW6waI8WpURR0+r4UppO9vNsnFxq7lDOlIglNyiqfxMllw70
c3izu3lLssIGJu1JAa/c+te4gA1Zw+GHzezBq3PL37d0oHdndCtRrm0ipwD0BsXJ
gmPoyc8J76KsYXCrbsJ4IRSfXn8UHqzOE5kqqpuCVLsYYcjyZqZMljXYX/JUASLK
nNhz07mzsgvMSS9NJCEHzxoAAAEHl7SJlwhzxiGc6ZAl+w2c2pJNjNuXfI0wpR4Z
9qoIsLoA94iePPk1u2w5KS9KtLtLG5MCDi4EobF+qqZY+ukCBcGWbpKbHdDHYluS
x2ZyQfBgjuN6OvytEylLnxK1wKFXD4oevtnB6QDkXBxwd4P3d6gXAfk3Thnr1b7W
IHF816T+SiPeDqs67Fn1n733AWmfS3YEGyglVrQ3gJA906P55xrQhHZEDLkoxwID
AQABo4IBYzCCAV8wCQYDVR0TBAIwADAtBglghkgBhvhCAQ0EIBYeRWFzeS1SU0Eg
R2VuZXJhdGVkIENlcnRpZmljYXRlMB0GA1UdDgQWBBTh2iTStifAHzDo9UjOVgfF
Z9L5MjCB4QYDVR0jBIHZMIHWgBQSzWAE0qCAnnDtxpm4eyzGUv0ZoaGBsqSBrzCB
rDELMAkGA1UEBhMCVVMxCzAJBgNVBAgTAk9IMREwDwYDVQQHEwhDb2x1bWJ1czES
MBAGA1UEChMJVmlraW5nVlBOMR0wGwYDVQQLExRNeU9yZ2FuaXphdGlvbmFsVW5p
dDEVMBMGA1UEAxMMVmlraW5nVlBOIENBMRAwDgYDVQQpEwdFYXN5UlNBMSEwHwYJ
KoZIhvcNAQkBFhJtZUBteWhvc3QubXlkb21haW6CCQDPNYXugL8qPjATBgNVHSUE
DDAKBggrBgEFBQcDAjALBgNVHQ8EBAMCB4AwDQYJKoZIhvcNAQEEBQADggIBAJ4F
Si7LgRiYuEzJHhazHaLCAVBJGzW54B1wOzr/1zoklynH5scqMF+LiKFXXWXoiJCI
7HJIxOYBgNgHc8ivM8CUUZpfiNxtG55po62e3K+HosagiPmA9KJqIAsdnlIDRXjR
5dGfEN8VAWLUrwW680LYhEP/PBBAcNJ2FMKw6s2UKNrRqWi16qaSMVBbwrKvp1qI
75TZ+dm5tqU5mHLeYduFoO55KP8nzbhV+827FFN9tDlMpt+dHCwPZ5ATJwGSpUER
B5xb+eH1pBM+4VexEVxNpnjgPWq7uTlMBUYOV/KGgcwnxEywgirOavlQTZ4N8SjP
fflSFF5zkTnwEjRkWygN/6o6Vk2B8brM0G42cOSiq6MnyRsKx4nISTSyRMZS6rU3
NvT00o9K/3gwiy5Iik6xTBjLiK1ilI8Q1bQ3Lv9PndJpblzbPRDLMwYXY465ctD5
ycOXwTM06kZa6eBMjoCPtuN5wG2NeEDKGcnBVt4Ngkq9q3HGB2sUDjSVAsVfYFYA
y3RcbkBt5cIULVUiUfq32ew4tfAiLAi3RQtT18jjPomm1cQVVb7QGyyettpw04aL
TBAYj/JhIKQF43R0mWBEsuCp+RUOF6u4Vz2QCOY0zge+2ZANkGvkZtnvFchZmQFs
UyjDBNe9a/fhFmLJbYgPd6SnNM8gyV4a+JPCLFbF
-----END CERTIFICATE-----
