Certificate:
    Data:
        Version: 3 (0x2)
        Serial Number: 4315 (0x10db)
    Signature Algorithm: md5WithRSAEncryption
        Issuer: C=US, ST=OH, L=Columbus, O=VikingVPN, OU=MyOrganizationalUnit, CN=VikingVPN CA/name=EasyRSA/emailAddress=me@myhost.mydomain
        Validity
            Not Before: Jan 28 18:08:03 2015 GMT
            Not After : Jan 25 18:08:03 2025 GMT
        Subject: CN=Client1408Certa2634f
        Subject Public Key Info:
            Public Key Algorithm: rsaEncryption
                Public-Key: (4096 bit)
                Modulus:
                    00:b9:e6:c2:38:fd:f2:cf:20:4b:dc:0f:ae:ef:67:
                    2b:02:1d:fc:ad:ae:1c:e6:13:cc:43:28:1e:cd:06:
                    85:81:f5:17:1f:46:16:2d:ca:b7:5c:2d:e3:5c:73:
                    2a:a4:18:72:73:c4:02:80:7f:65:ef:15:1f:c2:bb:
                    f3:c8:e4:99:ab:87:c4:d1:76:5e:2f:20:6d:54:9c:
                    16:a3:6c:09:d2:d2:66:4e:1c:21:53:e1:af:04:fc:
                    4b:38:b8:9a:7e:11:49:8e:ce:c9:6b:ca:92:8b:cb:
                    7f:bb:bc:e3:64:bc:42:6e:a9:fb:17:4a:68:47:ed:
                    3e:33:0d:1f:8d:e9:db:72:2a:b9:8d:31:e2:42:fd:
                    c7:fc:4f:5f:ab:b2:d9:8c:86:ff:16:c9:96:fa:92:
                    af:de:a0:17:8a:21:ba:8d:a2:c1:03:97:1b:b9:e1:
                    88:46:d3:4a:2d:29:8d:81:b3:2e:48:bc:47:1a:50:
                    4e:50:86:0e:36:63:c7:33:1a:89:94:f4:35:c8:f4:
                    99:65:52:96:31:f4:b3:ed:4b:29:5b:50:3d:4d:99:
                    4b:c8:00:e9:78:bf:59:7f:cb:31:c5:0b:f7:c5:33:
                    3a:ee:5f:6f:96:88:fe:10:40:66:28:97:3a:68:a4:
                    d3:5b:fa:d4:3d:41:79:7a:81:bc:3f:96:ec:a3:8d:
                    e6:db:18:41:04:f0:ac:6b:3c:be:49:1e:f0:d6:77:
                    d2:bf:31:ea:b1:63:d5:4f:e2:ef:ad:a1:94:8c:1c:
                    83:8a:3c:f7:f4:87:a3:3d:fb:00:ef:97:19:1b:9e:
                    b9:78:29:cc:e4:79:f8:e5:51:90:87:8c:7e:c1:8e:
                    aa:d0:56:95:3f:57:8e:ca:76:0d:ad:e7:c7:29:e4:
                    67:bc:e5:fd:32:9a:0a:83:ef:b0:12:0c:45:02:14:
                    03:5e:53:5e:e6:60:ba:ce:d9:92:a4:b9:f5:76:e0:
                    f7:98:e4:2e:6c:4d:55:02:5c:bc:05:86:92:4a:7a:
                    98:2f:3f:6d:78:8a:0c:03:34:ee:23:b1:ad:42:53:
                    92:5d:d4:da:10:e3:2b:af:ad:94:9d:f1:af:99:ae:
                    e6:cd:af:24:23:7d:a0:27:89:84:8b:e6:a3:64:50:
                    f9:03:f3:9a:f0:03:56:b4:9b:59:f1:c5:53:7b:7f:
                    8e:d2:7d:49:c6:87:b6:d2:0a:1e:15:cd:e6:e7:f4:
                    a9:c3:95:3e:c2:6b:42:1e:37:bb:c6:92:6e:34:63:
                    c2:7d:27:19:39:f9:6d:c7:b7:f9:93:61:34:88:69:
                    b8:56:89:ea:50:eb:18:12:b9:c6:24:34:9b:ba:a4:
                    0b:1f:81:41:b8:99:db:28:c1:bf:d8:65:44:07:d4:
                    6b:ce:29
                Exponent: 65537 (0x10001)
        X509v3 extensions:
            X509v3 Basic Constraints: 
                CA:FALSE
            Netscape Comment: 
                Easy-RSA Generated Certificate
            X509v3 Subject Key Identifier: 
                1D:02:1C:CB:C2:5C:C7:31:B7:0C:0F:9D:8B:8E:80:D7:B9:D4:D8:FE
            X509v3 Authority Key Identifier: 
                keyid:12:CD:60:04:D2:A0:80:9E:70:ED:C6:99:B8:7B:2C:C6:52:FD:19:A1
                DirName:/C=US/ST=OH/L=Columbus/O=VikingVPN/OU=MyOrganizationalUnit/CN=VikingVPN CA/name=EasyRSA/emailAddress=me@myhost.mydomain
                serial:CF:35:85:EE:80:BF:2A:3E

            X509v3 Extended Key Usage: 
                TLS Web Client Authentication
            X509v3 Key Usage: 
                Digital Signature
    Signature Algorithm: md5WithRSAEncryption
         b1:aa:5a:92:54:bf:92:5f:c5:6f:cf:c7:11:5d:39:e2:a1:d9:
         fb:4b:e4:9f:8f:2d:12:0a:c1:0b:08:d3:ca:b1:f1:51:95:02:
         f0:26:91:b5:ed:a6:13:e1:fc:66:01:6b:6e:d3:b5:5b:0c:43:
         e9:f3:82:b1:47:1c:08:8f:4f:4a:5a:34:df:f1:8a:7a:f7:32:
         b4:37:e2:2d:39:a9:7e:15:bd:0e:c5:cd:48:e7:80:4d:56:69:
         0e:7a:9d:43:03:87:01:f2:5f:e3:6e:25:80:72:c2:f1:1b:cc:
         f8:e8:e6:c6:34:16:14:ec:4b:14:81:05:d0:4b:26:7b:f1:1c:
         58:24:37:7f:12:12:e6:48:94:cf:50:77:78:95:16:11:ea:54:
         8a:d2:0b:a7:3a:81:c2:51:3a:56:34:5b:7f:9c:cb:46:dc:86:
         4e:ab:5c:a6:ed:c8:9a:7a:8f:f0:a3:11:10:a8:7e:7b:5c:6e:
         25:93:4c:f6:d8:e8:d4:20:06:31:a0:c8:73:88:a9:d7:fd:b8:
         b1:17:ee:bc:95:12:14:8c:29:bc:69:77:f6:30:6c:5c:66:61:
         06:c3:6e:50:ca:0d:9a:13:15:4e:52:a7:f0:e5:b1:aa:c8:8d:
         6d:6e:ba:07:9a:30:74:bf:99:14:3e:36:1c:6d:ab:fd:56:b2:
         7c:05:c2:9a:65:55:45:30:41:37:70:d5:96:7d:e5:c2:66:6b:
         49:42:39:59:2a:6c:d8:ce:d6:62:c5:d2:c6:ee:d3:ff:33:2a:
         6c:b3:0a:95:f5:64:2a:2f:8b:c7:d4:de:db:89:2d:b9:cb:66:
         45:d4:22:16:0e:2a:ed:45:4f:fe:f5:e3:1f:d8:ab:09:4a:44:
         0c:b0:35:10:f2:82:da:82:9c:63:43:ee:7f:6f:5b:ac:95:09:
         16:7c:cf:6c:4e:01:d3:3c:6d:9e:df:aa:fc:15:b4:88:be:da:
         02:af:c7:a9:72:77:82:7a:6c:50:6c:aa:2e:d5:b6:a8:c2:10:
         8f:72:f5:24:fc:f3:fd:d5:3c:43:cd:05:c0:b8:69:83:66:9c:
         b8:e1:b5:b3:95:8a:aa:41:0e:62:7d:28:34:73:3a:d2:2d:d7:
         7f:4f:62:81:8c:69:89:77:0b:84:21:63:c3:de:a2:74:0b:73:
         f5:ba:00:50:52:98:b3:3e:38:3f:74:21:96:76:0e:83:44:d3:
         ae:0f:4f:b3:2b:62:7b:de:b4:d6:bc:50:a2:d9:24:fc:18:72:
         5e:7c:b5:61:eb:f2:76:54:29:8b:a1:81:82:42:51:e0:2e:e2:
         ab:23:0d:58:cf:46:76:b1:4d:3f:7b:12:41:b7:34:20:a1:66:
         69:30:e1:d0:9e:97:29:69
-----BEGIN CERTIFICATE-----
MIIGrTCCBJWgAwIBAgICENswDQYJKoZIhvcNAQEEBQAwgawxCzAJBgNVBAYTAlVT
MQswCQYDVQQIEwJPSDERMA8GA1UEBxMIQ29sdW1idXMxEjAQBgNVBAoTCVZpa2lu
Z1ZQTjEdMBsGA1UECxMUTXlPcmdhbml6YXRpb25hbFVuaXQxFTATBgNVBAMTDFZp
a2luZ1ZQTiBDQTEQMA4GA1UEKRMHRWFzeVJTQTEhMB8GCSqGSIb3DQEJARYSbWVA
bXlob3N0Lm15ZG9tYWluMB4XDTE1MDEyODE4MDgwM1oXDTI1MDEyNTE4MDgwM1ow
HzEdMBsGA1UEAxMUQ2xpZW50MTQwOENlcnRhMjYzNGYwggIiMA0GCSqGSIb3DQEB
AQUAA4ICDwAwggIKAoICAQC55sI4/fLPIEvcD67vZysCHfytrhzmE8xDKB7NBoWB
9RcfRhYtyrdcLeNccyqkGHJzxAKAf2XvFR/Cu/PI5Jmrh8TRdl4vIG1UnBajbAnS
0mZOHCFT4a8E/Es4uJp+EUmOzslrypKLy3+7vONkvEJuqfsXSmhH7T4zDR+N6dty
KrmNMeJC/cf8T1+rstmMhv8WyZb6kq/eoBeKIbqNosEDlxu54YhG00otKY2Bsy5I
vEcaUE5Qhg42Y8czGomU9DXI9JllUpYx9LPtSylbUD1NmUvIAOl4v1l/yzHFC/fF
MzruX2+WiP4QQGYolzpopNNb+tQ9QXl6gbw/luyjjebbGEEE8KxrPL5JHvDWd9K/
MeqxY9VP4u+toZSMHIOKPPf0h6M9+wDvlxkbnrl4KczkefjlUZCHjH7BjqrQVpU/
V47Kdg2t58cp5Ge85f0ymgqD77ASDEUCFANeU17mYLrO2ZKkufV24PeY5C5sTVUC
XLwFhpJKepgvP214igwDNO4jsa1CU5Jd1NoQ4yuvrZSd8a+ZrubNryQjfaAniYSL
5qNkUPkD85rwA1a0m1nxxVN7f47SfUnGh7bSCh4Vzebn9KnDlT7Ca0IeN7vGkm40
Y8J9Jxk5+W3Ht/mTYTSIabhWiepQ6xgSucYkNJu6pAsfgUG4mdsowb/YZUQH1GvO
KQIDAQABo4IBYzCCAV8wCQYDVR0TBAIwADAtBglghkgBhvhCAQ0EIBYeRWFzeS1S
U0EgR2VuZXJhdGVkIENlcnRpZmljYXRlMB0GA1UdDgQWBBQdAhzLwlzHMbcMD52L
joDXudTY/jCB4QYDVR0jBIHZMIHWgBQSzWAE0qCAnnDtxpm4eyzGUv0ZoaGBsqSB
rzCBrDELMAkGA1UEBhMCVVMxCzAJBgNVBAgTAk9IMREwDwYDVQQHEwhDb2x1bWJ1
czESMBAGA1UEChMJVmlraW5nVlBOMR0wGwYDVQQLExRNeU9yZ2FuaXphdGlvbmFs
VW5pdDEVMBMGA1UEAxMMVmlraW5nVlBOIENBMRAwDgYDVQQpEwdFYXN5UlNBMSEw
HwYJKoZIhvcNAQkBFhJtZUBteWhvc3QubXlkb21haW6CCQDPNYXugL8qPjATBgNV
HSUEDDAKBggrBgEFBQcDAjALBgNVHQ8EBAMCB4AwDQYJKoZIhvcNAQEEBQADggIB
ALGqWpJUv5JfxW/PxxFdOeKh2ftL5J+PLRIKwQsI08qx8VGVAvAmkbXtphPh/GYB
a27TtVsMQ+nzgrFHHAiPT0paNN/xinr3MrQ34i05qX4VvQ7FzUjngE1WaQ56nUMD
hwHyX+NuJYBywvEbzPjo5sY0FhTsSxSBBdBLJnvxHFgkN38SEuZIlM9Qd3iVFhHq
VIrSC6c6gcJROlY0W3+cy0bchk6rXKbtyJp6j/CjERCofntcbiWTTPbY6NQgBjGg
yHOIqdf9uLEX7ryVEhSMKbxpd/YwbFxmYQbDblDKDZoTFU5Sp/DlsarIjW1uugea
MHS/mRQ+Nhxtq/1WsnwFwpplVUUwQTdw1ZZ95cJma0lCOVkqbNjO1mLF0sbu0/8z
KmyzCpX1ZCovi8fU3tuJLbnLZkXUIhYOKu1FT/714x/YqwlKRAywNRDygtqCnGND
7n9vW6yVCRZ8z2xOAdM8bZ7fqvwVtIi+2gKvx6lyd4J6bFBsqi7VtqjCEI9y9ST8
8/3VPEPNBcC4aYNmnLjhtbOViqpBDmJ9KDRzOtIt139PYoGMaYl3C4QhY8PeonQL
c/W6AFBSmLM+OD90IZZ2DoNE064PT7MrYnvetNa8UKLZJPwYcl58tWHr8nZUKYuh
gYJCUeAu4qsjDVjPRnaxTT97EkG3NCChZmkw4dCelylp
-----END CERTIFICATE-----
