Certificate:
    Data:
        Version: 3 (0x2)
        Serial Number: 5607 (0x15e7)
    Signature Algorithm: md5WithRSAEncryption
        Issuer: C=US, ST=OH, L=Columbus, O=VikingVPN, OU=MyOrganizationalUnit, CN=VikingVPN CA/name=EasyRSA/emailAddress=me@myhost.mydomain
        Validity
            Not Before: Jun 22 02:04:19 2015 GMT
            Not After : Jun 19 02:04:19 2025 GMT
        Subject: CN=Client1778Cert37eec2
        Subject Public Key Info:
            Public Key Algorithm: rsaEncryption
                Public-Key: (4096 bit)
                Modulus:
                    00:b4:d5:8b:42:0c:4c:e9:8c:02:6d:f3:98:6d:92:
                    bd:f2:14:56:f4:1d:43:19:19:ed:b1:63:c0:4b:e6:
                    6a:9e:7c:58:df:38:a9:18:0a:81:ea:a5:8e:1a:0e:
                    03:e4:9d:95:00:aa:4e:d7:f0:a9:5b:34:4f:e3:cb:
                    cc:05:1b:2e:7e:f7:12:38:dd:b9:9f:7f:42:fd:11:
                    dd:6e:72:51:44:ff:53:b7:2d:b8:de:d5:99:c1:8a:
                    17:af:10:38:31:d0:c0:8e:63:59:74:35:c6:f9:93:
                    74:90:ff:ce:7d:5f:9c:bb:6e:0b:f8:11:23:b7:62:
                    b8:b1:e8:ae:ae:10:1a:26:33:21:fc:e1:6d:1e:50:
                    d2:ff:3d:66:62:49:f6:81:17:3e:58:a6:c8:65:31:
                    18:e9:b6:ad:17:cd:32:d8:4e:89:07:16:34:01:1a:
                    0a:18:57:46:04:b1:78:e9:05:66:5b:34:a7:4a:4b:
                    15:53:52:b3:0b:02:6d:d7:05:25:ba:29:6d:46:82:
                    94:6e:fe:65:c0:0a:94:c4:08:da:5f:96:3c:9f:68:
                    f8:8b:0d:d4:ba:5b:dc:7e:98:05:d1:2e:6d:ab:0c:
                    92:95:fd:11:20:1e:8d:17:d0:fe:15:d7:3f:55:a9:
                    4f:8d:b4:ea:87:47:ff:db:13:fc:3d:6f:0f:10:35:
                    15:50:98:f9:5e:71:f1:6a:c8:ef:8d:cb:9d:40:10:
                    54:3e:02:a3:db:85:48:bc:eb:d2:82:cd:87:18:7b:
                    34:aa:bf:6f:7b:47:74:4c:91:3d:62:fa:e5:95:08:
                    e8:e4:90:9d:6d:46:51:a0:d6:63:97:9b:61:8d:38:
                    3c:b5:fd:d2:9b:a1:47:38:2a:54:9b:46:70:a5:12:
                    0d:49:32:e7:77:64:cb:99:c1:70:07:0b:df:66:37:
                    18:14:69:b4:fb:ab:e9:94:25:54:2e:f7:07:2d:40:
                    2e:34:f1:12:8e:71:e6:e7:16:8f:d0:96:3d:38:2b:
                    ad:9a:cd:4c:eb:0e:06:8b:ec:f3:e9:ee:d0:df:54:
                    f7:7e:0d:86:2a:bc:87:77:dc:09:56:c8:f9:0b:0e:
                    ff:ba:7a:13:37:e8:d1:d0:4c:ef:e5:e2:4c:2e:f3:
                    4f:7b:27:35:14:dd:2b:f1:fd:b2:4d:e4:60:a7:48:
                    a4:fa:00:96:19:7e:4c:a6:21:91:9b:0f:ac:cc:01:
                    a7:3f:f9:16:b3:fd:aa:f4:7d:6f:5e:bc:e0:1f:39:
                    77:ef:27:dd:3e:b2:57:08:96:fc:2b:6f:13:13:27:
                    23:26:d4:6b:66:39:09:e9:f3:0b:e4:07:38:f4:e7:
                    67:0d:4f:98:c0:d0:8f:d4:9e:2e:93:fe:63:69:12:
                    02:62:c3
                Exponent: 65537 (0x10001)
        X509v3 extensions:
            X509v3 Basic Constraints: 
                CA:FALSE
            Netscape Comment: 
                Easy-RSA Generated Certificate
            X509v3 Subject Key Identifier: 
                8A:A8:1E:55:A0:32:1B:18:25:A4:BC:B9:76:46:8F:5B:57:6E:41:8F
            X509v3 Authority Key Identifier: 
                keyid:12:CD:60:04:D2:A0:80:9E:70:ED:C6:99:B8:7B:2C:C6:52:FD:19:A1
                DirName:/C=US/ST=OH/L=Columbus/O=VikingVPN/OU=MyOrganizationalUnit/CN=VikingVPN CA/name=EasyRSA/emailAddress=me@myhost.mydomain
                serial:CF:35:85:EE:80:BF:2A:3E

            X509v3 Extended Key Usage: 
                TLS Web Client Authentication
            X509v3 Key Usage: 
                Digital Signature
    Signature Algorithm: md5WithRSAEncryption
         43:f9:24:d1:df:25:3b:1f:19:fd:48:ed:d4:97:3a:e2:f3:e4:
         d7:f5:44:c1:db:c7:b2:c2:27:84:6f:71:8f:af:8c:a3:ec:d2:
         40:64:21:53:e7:04:80:cd:cc:7f:5f:6b:c1:89:75:db:2b:77:
         fc:64:e9:f2:46:43:57:ee:0a:48:33:3c:5e:10:ac:7d:84:ad:
         b0:ca:14:68:43:2e:70:88:2a:41:14:bf:c2:d4:75:65:56:e4:
         06:57:a0:55:44:70:0a:b9:85:3d:bb:c0:5a:5e:5c:e7:19:0c:
         dd:86:e4:bb:4e:4e:a6:86:fa:4e:5b:73:8c:f9:82:3f:29:0e:
         a1:90:0d:df:73:cd:ee:e4:bc:9d:6e:c4:bd:0c:e2:51:bf:4c:
         25:08:74:d0:eb:02:28:14:c9:81:29:52:20:8b:11:9a:56:b9:
         28:db:98:f1:f7:d8:9f:f9:db:35:f4:3f:25:ed:47:ff:ba:42:
         4d:e2:8a:4b:c0:0e:04:df:5b:5a:30:4e:cf:8c:79:ee:b6:8e:
         61:28:1d:7c:ee:dc:78:5c:27:4f:31:71:cf:15:61:a7:a9:a4:
         0b:63:49:7a:74:70:f7:b0:84:c2:f5:48:f4:87:5e:cf:79:bf:
         5d:61:50:62:fe:d3:aa:ac:1e:f8:8d:f3:1d:53:47:15:cb:c9:
         b4:42:a9:b7:77:55:c9:ec:24:3c:d0:fd:70:6a:72:ac:d9:c6:
         db:33:c9:67:4f:40:2f:00:22:44:84:5e:da:40:37:73:ad:12:
         ef:5d:e0:1d:15:55:55:7a:21:99:b5:d6:04:d4:dd:cb:0b:31:
         e8:81:f0:d7:57:10:85:a4:46:e3:28:d2:4f:c0:cc:69:95:d3:
         08:02:47:2c:f3:4f:05:90:b8:57:b2:6d:ff:ee:d1:de:fe:fe:
         ef:64:cb:d8:24:82:04:a4:30:52:84:da:1b:88:84:1b:a1:f7:
         93:21:93:13:1c:b8:86:2c:97:7d:57:4e:68:ed:b5:82:14:0f:
         54:da:8d:f5:01:72:d8:04:ec:51:96:3e:0b:ed:9e:1c:70:f4:
         a3:c6:7c:8a:be:b5:e5:5b:ea:c7:9a:e5:0b:15:34:54:a1:81:
         24:91:d2:c7:8e:ce:0e:bb:fa:d9:95:03:a9:61:1c:f6:f3:8e:
         b8:eb:3f:9c:1b:af:31:8e:6a:a3:73:a9:03:db:77:27:ef:36:
         04:63:a4:77:fc:24:38:4b:ce:72:33:21:a0:3a:c9:5b:46:f5:
         13:42:ac:5c:ad:27:91:6c:b7:af:a8:5e:16:83:12:83:c5:c0:
         b2:20:a8:2f:1c:06:85:fc:32:7b:3d:e6:be:6d:f1:2a:32:c1:
         12:33:2f:99:b3:b7:00:81
-----BEGIN CERTIFICATE-----
MIIGrTCCBJWgAwIBAgICFecwDQYJKoZIhvcNAQEEBQAwgawxCzAJBgNVBAYTAlVT
MQswCQYDVQQIEwJPSDERMA8GA1UEBxMIQ29sdW1idXMxEjAQBgNVBAoTCVZpa2lu
Z1ZQTjEdMBsGA1UECxMUTXlPcmdhbml6YXRpb25hbFVuaXQxFTATBgNVBAMTDFZp
a2luZ1ZQTiBDQTEQMA4GA1UEKRMHRWFzeVJTQTEhMB8GCSqGSIb3DQEJARYSbWVA
bXlob3N0Lm15ZG9tYWluMB4XDTE1MDYyMjAyMDQxOVoXDTI1MDYxOTAyMDQxOVow
HzEdMBsGA1UEAxMUQ2xpZW50MTc3OENlcnQzN2VlYzIwggIiMA0GCSqGSIb3DQEB
AQUAA4ICDwAwggIKAoICAQC01YtCDEzpjAJt85htkr3yFFb0HUMZGe2xY8BL5mqe
fFjfOKkYCoHqpY4aDgPknZUAqk7X8KlbNE/jy8wFGy5+9xI43bmff0L9Ed1uclFE
/1O3Lbje1ZnBihevEDgx0MCOY1l0Ncb5k3SQ/859X5y7bgv4ESO3Yrix6K6uEBom
MyH84W0eUNL/PWZiSfaBFz5YpshlMRjptq0XzTLYTokHFjQBGgoYV0YEsXjpBWZb
NKdKSxVTUrMLAm3XBSW6KW1GgpRu/mXACpTECNpfljyfaPiLDdS6W9x+mAXRLm2r
DJKV/REgHo0X0P4V1z9VqU+NtOqHR//bE/w9bw8QNRVQmPlecfFqyO+Ny51AEFQ+
AqPbhUi869KCzYcYezSqv297R3RMkT1i+uWVCOjkkJ1tRlGg1mOXm2GNODy1/dKb
oUc4KlSbRnClEg1JMud3ZMuZwXAHC99mNxgUabT7q+mUJVQu9wctQC408RKOcebn
Fo/Qlj04K62azUzrDgaL7PPp7tDfVPd+DYYqvId33AlWyPkLDv+6ehM36NHQTO/l
4kwu8097JzUU3Svx/bJN5GCnSKT6AJYZfkymIZGbD6zMAac/+Raz/ar0fW9evOAf
OXfvJ90+slcIlvwrbxMTJyMm1GtmOQnp8wvkBzj052cNT5jA0I/Uni6T/mNpEgJi
wwIDAQABo4IBYzCCAV8wCQYDVR0TBAIwADAtBglghkgBhvhCAQ0EIBYeRWFzeS1S
U0EgR2VuZXJhdGVkIENlcnRpZmljYXRlMB0GA1UdDgQWBBSKqB5VoDIbGCWkvLl2
Ro9bV25BjzCB4QYDVR0jBIHZMIHWgBQSzWAE0qCAnnDtxpm4eyzGUv0ZoaGBsqSB
rzCBrDELMAkGA1UEBhMCVVMxCzAJBgNVBAgTAk9IMREwDwYDVQQHEwhDb2x1bWJ1
czESMBAGA1UEChMJVmlraW5nVlBOMR0wGwYDVQQLExRNeU9yZ2FuaXphdGlvbmFs
VW5pdDEVMBMGA1UEAxMMVmlraW5nVlBOIENBMRAwDgYDVQQpEwdFYXN5UlNBMSEw
HwYJKoZIhvcNAQkBFhJtZUBteWhvc3QubXlkb21haW6CCQDPNYXugL8qPjATBgNV
HSUEDDAKBggrBgEFBQcDAjALBgNVHQ8EBAMCB4AwDQYJKoZIhvcNAQEEBQADggIB
AEP5JNHfJTsfGf1I7dSXOuLz5Nf1RMHbx7LCJ4RvcY+vjKPs0kBkIVPnBIDNzH9f
a8GJddsrd/xk6fJGQ1fuCkgzPF4QrH2ErbDKFGhDLnCIKkEUv8LUdWVW5AZXoFVE
cAq5hT27wFpeXOcZDN2G5LtOTqaG+k5bc4z5gj8pDqGQDd9zze7kvJ1uxL0M4lG/
TCUIdNDrAigUyYEpUiCLEZpWuSjbmPH32J/52zX0PyXtR/+6Qk3iikvADgTfW1ow
Ts+Mee62jmEoHXzu3HhcJ08xcc8VYaeppAtjSXp0cPewhML1SPSHXs95v11hUGL+
06qsHviN8x1TRxXLybRCqbd3VcnsJDzQ/XBqcqzZxtszyWdPQC8AIkSEXtpAN3Ot
Eu9d4B0VVVV6IZm11gTU3csLMeiB8NdXEIWkRuMo0k/AzGmV0wgCRyzzTwWQuFey
bf/u0d7+/u9ky9gkggSkMFKE2huIhBuh95MhkxMcuIYsl31XTmjttYIUD1TajfUB
ctgE7FGWPgvtnhxw9KPGfIq+teVb6sea5QsVNFShgSSR0seOzg67+tmVA6lhHPbz
jrjrP5wbrzGOaqNzqQPbdyfvNgRjpHf8JDhLznIzIaA6yVtG9RNCrFytJ5Fst6+o
XhaDEoPFwLIgqC8cBoX8Mns95r5t8SoywRIzL5mztwCB
-----END CERTIFICATE-----
