Certificate:
    Data:
        Version: 3 (0x2)
        Serial Number: 12364 (0x304c)
    Signature Algorithm: sha256WithRSAEncryption
        Issuer: C=US, ST=OH, L=Columbus, O=VikingVPN, OU=MyOrganizationalUnit, CN=VikingVPN CA/name=EasyRSA/emailAddress=me@myhost.mydomain
        Validity
            Not Before: Jan  6 22:53:08 2018 GMT
            Not After : Jan  4 22:53:08 2028 GMT
        Subject: CN=Client3195Certa600b8
        Subject Public Key Info:
            Public Key Algorithm: rsaEncryption
                Public-Key: (4096 bit)
                Modulus:
                    00:b3:b9:5d:52:f2:86:af:9e:d9:cc:df:af:75:ae:
                    77:28:c8:48:4e:6d:a0:39:19:df:ad:31:af:6b:6f:
                    e5:b8:de:e3:6e:79:40:5d:cd:ff:99:10:ac:1b:1d:
                    4a:a8:02:2f:fa:6b:d6:98:da:1b:24:87:1b:7e:a6:
                    3d:d9:fe:c5:3a:ef:71:7c:31:1b:15:32:0d:0a:83:
                    51:a7:03:15:85:98:84:3c:29:85:6f:62:0c:c7:bb:
                    f9:e4:2f:1a:27:3e:89:88:57:ff:3b:7e:89:24:ca:
                    c1:c6:de:70:18:e8:2a:f6:a4:4e:6d:8a:8d:9b:eb:
                    36:11:3a:c4:e0:73:37:d5:14:8a:11:ae:b8:38:ae:
                    cf:66:0d:ee:ff:ee:88:bc:40:ee:87:4b:7b:03:a3:
                    e7:bc:50:0f:81:2c:73:e7:30:51:39:63:3b:a9:93:
                    42:d4:b8:19:d7:da:12:4d:2d:fa:ec:8c:86:5f:15:
                    6a:84:84:1c:01:e0:68:34:33:b5:e3:0e:b8:98:db:
                    f5:f9:fb:2f:40:d2:f4:82:06:74:64:3f:e8:a1:4c:
                    6d:4f:f5:5b:61:72:29:50:13:e9:70:48:c9:91:c9:
                    77:06:b0:c9:3d:ec:b7:e3:89:10:8f:f3:3e:73:c8:
                    e3:75:fd:e4:bc:b5:5b:f9:92:04:43:94:d5:bd:69:
                    9b:1b:b3:e1:96:5a:be:7a:c9:78:d4:2f:28:cd:96:
                    4d:5c:9b:69:cc:6c:0d:9e:05:59:f9:d6:2f:92:9f:
                    4a:81:d7:c3:2f:d6:67:44:50:4f:a8:ce:a3:2b:75:
                    4d:56:03:32:6d:78:02:8d:47:ef:61:01:79:53:13:
                    d9:5f:64:7d:b5:7d:6f:10:a6:c8:40:e3:2a:64:a3:
                    5b:8d:ce:25:45:23:a8:4e:8c:df:d8:91:c0:30:b7:
                    81:05:51:64:10:8c:54:72:39:17:86:a5:32:39:8d:
                    aa:db:88:5b:64:23:d1:72:25:8c:4f:2c:3f:64:ca:
                    b4:f7:b7:b1:ca:d9:16:b5:2a:20:57:5e:c5:9a:38:
                    f5:23:c4:ab:4e:55:b2:ec:25:84:96:fd:c9:5b:43:
                    4c:e2:50:72:11:b7:5b:c8:77:7b:2b:28:29:02:97:
                    04:3a:20:cc:60:b1:62:e7:25:27:fc:eb:44:ca:9b:
                    92:6d:f3:89:df:2e:5e:ce:46:76:4e:bf:02:a3:b2:
                    02:b1:60:1a:bb:36:14:c1:b7:7d:4e:09:8f:49:2a:
                    41:df:d8:eb:c1:a3:c3:7b:5d:45:a4:19:3d:19:19:
                    a6:17:d7:0e:19:51:89:9a:cd:5d:c6:74:9e:1e:5a:
                    28:65:b1:8f:fc:24:99:f9:78:28:66:89:89:d0:b3:
                    46:d8:2f
                Exponent: 65537 (0x10001)
        X509v3 extensions:
            X509v3 Basic Constraints: 
                CA:FALSE
            Netscape Comment: 
                Easy-RSA Generated Certificate
            X509v3 Subject Key Identifier: 
                2E:7C:4C:07:34:BB:99:44:7C:AE:FE:93:AD:EC:D2:94:9C:53:50:D5
            X509v3 Authority Key Identifier: 
                keyid:12:CD:60:04:D2:A0:80:9E:70:ED:C6:99:B8:7B:2C:C6:52:FD:19:A1
                DirName:/C=US/ST=OH/L=Columbus/O=VikingVPN/OU=MyOrganizationalUnit/CN=VikingVPN CA/name=EasyRSA/emailAddress=me@myhost.mydomain
                serial:CF:35:85:EE:80:BF:2A:3E

            X509v3 Extended Key Usage: 
                TLS Web Client Authentication
            X509v3 Key Usage: 
                Digital Signature
    Signature Algorithm: sha256WithRSAEncryption
         41:27:40:fe:14:73:e1:4f:33:56:9a:41:3e:38:4a:6a:1c:b4:
         94:85:d8:fc:ae:5c:e6:fe:6a:b7:d1:35:aa:6f:6f:96:ec:8c:
         19:b9:33:18:f5:4d:60:cb:ca:54:15:0b:ea:07:24:76:82:f7:
         15:f9:6c:dd:bb:c9:96:ff:28:19:fc:15:6e:41:d7:e5:f8:68:
         a0:1c:55:e8:bb:02:fe:f6:a4:f2:5f:0b:c2:7a:8a:48:4c:24:
         1e:08:66:9a:82:fd:56:e8:e8:d5:f0:87:0d:c7:d7:dd:60:57:
         99:a0:42:d0:cd:8d:38:04:e7:18:7f:c0:29:e9:db:95:8f:e7:
         06:75:c4:9f:3e:a6:a8:ba:34:de:61:98:03:b8:f1:a4:a2:19:
         18:b1:8b:2b:56:e4:05:27:a9:53:40:b9:52:73:d8:b3:bc:bb:
         11:fd:50:65:f9:5f:15:76:0b:11:d3:48:04:a2:76:34:43:dc:
         5d:b4:f3:8d:ea:86:4a:91:19:56:08:a0:a5:49:39:29:13:a7:
         8f:fb:65:c3:48:de:56:5e:10:94:5d:31:46:fc:d4:9c:c4:63:
         80:fd:12:75:1e:b4:46:78:8f:d7:5a:bd:3b:9c:87:18:b7:46:
         ff:43:98:59:59:7e:31:4f:5e:51:ed:58:b8:af:d6:ab:ac:9c:
         83:36:d9:af:2c:9c:b6:9c:bc:42:f7:30:b4:f0:08:74:1e:a6:
         ae:e0:b4:71:c7:03:c8:0c:21:c5:23:ce:cf:b5:91:04:da:ee:
         1a:ab:16:6e:bc:b1:90:59:25:0f:a4:c1:29:cb:79:7c:ea:ff:
         8d:66:34:b8:ed:91:13:d1:9c:d0:55:88:9b:28:22:5c:8a:ba:
         ce:96:7c:a0:fc:8c:be:dd:96:f8:dd:b0:a5:f5:b8:6a:93:67:
         e8:f3:29:12:9d:e4:1e:a1:43:41:a6:ab:26:b9:b2:77:41:fc:
         89:80:6f:95:be:77:82:ee:8b:69:7c:db:46:7e:13:7e:1a:02:
         90:5c:27:41:04:56:8e:c7:28:b3:6a:18:89:1d:e7:8e:51:83:
         56:20:bc:18:af:d7:2f:2b:b6:c5:11:05:ab:7f:41:b9:80:da:
         8d:a6:0a:2d:d8:d4:a8:c7:aa:d7:c9:59:cc:1c:a2:3b:d5:ff:
         d7:04:57:6a:67:10:c9:03:c6:5f:30:c1:65:06:1c:70:cc:96:
         ff:40:c1:47:51:87:50:70:9a:fa:a4:8d:43:c4:6a:cd:87:2b:
         eb:35:e5:40:ad:f2:c4:e8:64:62:9d:db:53:c1:16:0f:f8:eb:
         7a:c0:1f:a1:60:a1:3d:c8:53:f3:fa:0b:a4:4c:33:1b:08:98:
         74:a4:e3:1b:22:29:d1:4a
-----BEGIN CERTIFICATE-----
MIIGrTCCBJWgAwIBAgICMEwwDQYJKoZIhvcNAQELBQAwgawxCzAJBgNVBAYTAlVT
MQswCQYDVQQIEwJPSDERMA8GA1UEBxMIQ29sdW1idXMxEjAQBgNVBAoTCVZpa2lu
Z1ZQTjEdMBsGA1UECxMUTXlPcmdhbml6YXRpb25hbFVuaXQxFTATBgNVBAMTDFZp
a2luZ1ZQTiBDQTEQMA4GA1UEKRMHRWFzeVJTQTEhMB8GCSqGSIb3DQEJARYSbWVA
bXlob3N0Lm15ZG9tYWluMB4XDTE4MDEwNjIyNTMwOFoXDTI4MDEwNDIyNTMwOFow
HzEdMBsGA1UEAxMUQ2xpZW50MzE5NUNlcnRhNjAwYjgwggIiMA0GCSqGSIb3DQEB
AQUAA4ICDwAwggIKAoICAQCzuV1S8oavntnM3691rncoyEhObaA5Gd+tMa9rb+W4
3uNueUBdzf+ZEKwbHUqoAi/6a9aY2hskhxt+pj3Z/sU673F8MRsVMg0Kg1GnAxWF
mIQ8KYVvYgzHu/nkLxonPomIV/87fokkysHG3nAY6Cr2pE5tio2b6zYROsTgczfV
FIoRrrg4rs9mDe7/7oi8QO6HS3sDo+e8UA+BLHPnMFE5Yzupk0LUuBnX2hJNLfrs
jIZfFWqEhBwB4Gg0M7XjDriY2/X5+y9A0vSCBnRkP+ihTG1P9VthcilQE+lwSMmR
yXcGsMk97LfjiRCP8z5zyON1/eS8tVv5kgRDlNW9aZsbs+GWWr56yXjULyjNlk1c
m2nMbA2eBVn51i+Sn0qB18Mv1mdEUE+ozqMrdU1WAzJteAKNR+9hAXlTE9lfZH21
fW8QpshA4ypko1uNziVFI6hOjN/YkcAwt4EFUWQQjFRyOReGpTI5jarbiFtkI9Fy
JYxPLD9kyrT3t7HK2Ra1KiBXXsWaOPUjxKtOVbLsJYSW/clbQ0ziUHIRt1vId3sr
KCkClwQ6IMxgsWLnJSf860TKm5Jt84nfLl7ORnZOvwKjsgKxYBq7NhTBt31OCY9J
KkHf2OvBo8N7XUWkGT0ZGaYX1w4ZUYmazV3GdJ4eWihlsY/8JJn5eChmiYnQs0bY
LwIDAQABo4IBYzCCAV8wCQYDVR0TBAIwADAtBglghkgBhvhCAQ0EIBYeRWFzeS1S
U0EgR2VuZXJhdGVkIENlcnRpZmljYXRlMB0GA1UdDgQWBBQufEwHNLuZRHyu/pOt
7NKUnFNQ1TCB4QYDVR0jBIHZMIHWgBQSzWAE0qCAnnDtxpm4eyzGUv0ZoaGBsqSB
rzCBrDELMAkGA1UEBhMCVVMxCzAJBgNVBAgTAk9IMREwDwYDVQQHEwhDb2x1bWJ1
czESMBAGA1UEChMJVmlraW5nVlBOMR0wGwYDVQQLExRNeU9yZ2FuaXphdGlvbmFs
VW5pdDEVMBMGA1UEAxMMVmlraW5nVlBOIENBMRAwDgYDVQQpEwdFYXN5UlNBMSEw
HwYJKoZIhvcNAQkBFhJtZUBteWhvc3QubXlkb21haW6CCQDPNYXugL8qPjATBgNV
HSUEDDAKBggrBgEFBQcDAjALBgNVHQ8EBAMCB4AwDQYJKoZIhvcNAQELBQADggIB
AEEnQP4Uc+FPM1aaQT44SmoctJSF2PyuXOb+arfRNapvb5bsjBm5Mxj1TWDLylQV
C+oHJHaC9xX5bN27yZb/KBn8FW5B1+X4aKAcVei7Av72pPJfC8J6ikhMJB4IZpqC
/Vbo6NXwhw3H191gV5mgQtDNjTgE5xh/wCnp25WP5wZ1xJ8+pqi6NN5hmAO48aSi
GRixiytW5AUnqVNAuVJz2LO8uxH9UGX5XxV2CxHTSASidjRD3F20843qhkqRGVYI
oKVJOSkTp4/7ZcNI3lZeEJRdMUb81JzEY4D9EnUetEZ4j9davTuchxi3Rv9DmFlZ
fjFPXlHtWLiv1qusnIM22a8snLacvEL3MLTwCHQepq7gtHHHA8gMIcUjzs+1kQTa
7hqrFm68sZBZJQ+kwSnLeXzq/41mNLjtkRPRnNBViJsoIlyKus6WfKD8jL7dlvjd
sKX1uGqTZ+jzKRKd5B6hQ0Gmqya5sndB/ImAb5W+d4Lui2l820Z+E34aApBcJ0EE
Vo7HKLNqGIkd545Rg1YgvBiv1y8rtsURBat/QbmA2o2mCi3Y1KjHqtfJWcwcojvV
/9cEV2pnEMkDxl8wwWUGHHDMlv9AwUdRh1BwmvqkjUPEas2HK+s15UCt8sToZGKd
21PBFg/463rAH6FgoT3IU/P6C6RMMxsImHSk4xsiKdFK
-----END CERTIFICATE-----
