Certificate:
    Data:
        Version: 3 (0x2)
        Serial Number: 12179 (0x2f93)
    Signature Algorithm: sha256WithRSAEncryption
        Issuer: C=US, ST=OH, L=Columbus, O=VikingVPN, OU=MyOrganizationalUnit, CN=VikingVPN CA/name=EasyRSA/emailAddress=me@myhost.mydomain
        Validity
            Not Before: Nov 28 10:31:29 2017 GMT
            Not After : Nov 26 10:31:29 2027 GMT
        Subject: CN=Client3173Certfc5ed5
        Subject Public Key Info:
            Public Key Algorithm: rsaEncryption
                Public-Key: (4096 bit)
                Modulus:
                    00:cc:d4:ce:a7:ad:e4:9c:b4:f2:83:70:d3:ca:5b:
                    8b:1d:d3:3e:51:86:a9:8a:35:06:72:8d:5b:8a:1d:
                    92:2a:3c:63:05:9a:60:81:a2:3d:c8:3d:ee:20:2a:
                    1d:b6:43:3b:7d:d5:ac:a1:86:2f:63:54:19:1b:9a:
                    00:7f:46:31:22:43:4e:12:77:1f:89:e5:a8:d0:8d:
                    52:61:21:0a:c8:de:4a:1c:44:7c:b5:41:c3:f9:20:
                    2b:3b:e8:85:60:62:2c:d9:66:7a:3f:86:73:bd:a6:
                    2e:92:1b:96:a4:56:14:fd:b2:46:1f:a5:16:51:91:
                    f8:a6:4b:0a:4a:6d:46:27:81:92:4b:e7:cc:8d:18:
                    3e:2f:a9:cd:16:39:48:9b:79:13:44:5a:ea:1b:6c:
                    d6:ac:95:a7:95:96:6c:13:15:7f:60:fc:6a:5e:2f:
                    06:3d:47:f3:1c:eb:65:7c:5b:ff:cd:23:00:0d:cd:
                    66:9f:a6:b1:34:e4:88:3e:e4:87:9b:88:91:52:f4:
                    0c:4b:75:ef:d5:91:3f:b1:86:17:89:3d:1c:a9:00:
                    96:79:91:7a:3a:be:07:95:62:ba:eb:b9:b8:c7:d7:
                    91:4c:d2:42:00:40:bf:b1:43:ca:1a:ff:7f:38:e1:
                    03:7a:af:d6:0d:c1:ed:bf:ac:a5:2a:42:4c:03:6f:
                    17:2b:da:fa:de:9f:5d:5b:4f:f3:df:8a:64:a7:d3:
                    0b:43:c4:76:66:f9:85:c0:88:a2:4c:44:9c:00:51:
                    eb:63:d7:3f:63:9f:78:41:84:1b:01:02:c8:90:99:
                    ea:47:7c:93:3f:fa:c4:6c:0f:55:47:59:02:e6:3d:
                    ca:45:12:38:9b:39:62:6e:f2:0d:cf:d3:3a:92:3b:
                    9a:5a:1e:88:c6:d7:0f:5d:90:93:1d:39:f9:bf:3d:
                    c8:07:4e:98:cc:42:7a:12:12:dc:70:53:ba:e6:17:
                    91:c6:3c:5a:87:51:f7:00:b8:cd:92:64:f6:9e:e9:
                    30:ad:9e:1e:93:74:b0:e5:15:bb:a8:2c:c8:63:f0:
                    06:02:a9:62:33:7d:9d:a9:a7:9b:b7:63:01:30:c0:
                    cd:53:7d:80:49:93:2e:a7:e1:2e:98:26:c2:b5:1e:
                    32:ff:ca:11:fb:6d:2b:3d:61:a7:32:e2:3e:c6:fb:
                    97:32:b5:85:6d:3b:4a:0c:26:97:17:61:08:36:14:
                    34:35:46:9a:88:18:e0:7c:f2:ac:1f:d1:9f:77:5a:
                    e6:e2:81:f1:7a:a8:48:a1:2d:c5:68:5d:8b:5d:52:
                    00:d7:a8:67:cb:15:08:42:2f:f1:18:7c:f0:e0:d1:
                    03:6d:2e:59:2c:c2:a4:e5:5d:df:31:77:45:59:b1:
                    f5:48:79
                Exponent: 65537 (0x10001)
        X509v3 extensions:
            X509v3 Basic Constraints: 
                CA:FALSE
            Netscape Comment: 
                Easy-RSA Generated Certificate
            X509v3 Subject Key Identifier: 
                10:76:6D:7E:83:C9:1A:A6:DA:45:5D:D8:CF:00:BB:EA:49:2F:9F:09
            X509v3 Authority Key Identifier: 
                keyid:12:CD:60:04:D2:A0:80:9E:70:ED:C6:99:B8:7B:2C:C6:52:FD:19:A1
                DirName:/C=US/ST=OH/L=Columbus/O=VikingVPN/OU=MyOrganizationalUnit/CN=VikingVPN CA/name=EasyRSA/emailAddress=me@myhost.mydomain
                serial:CF:35:85:EE:80:BF:2A:3E

            X509v3 Extended Key Usage: 
                TLS Web Client Authentication
            X509v3 Key Usage: 
                Digital Signature
    Signature Algorithm: sha256WithRSAEncryption
         df:cd:39:66:29:ee:d0:a3:43:98:01:d5:e3:d7:0f:26:b9:41:
         21:7d:c5:fd:bb:e7:ea:ba:ad:46:1c:2a:6e:dd:26:ae:7c:77:
         a2:d4:dc:5a:f8:12:d6:b5:0e:aa:a6:81:f8:c8:7a:53:70:57:
         aa:51:12:f6:bc:1a:73:44:99:8a:71:c8:9f:2d:fe:47:49:0c:
         bf:43:ed:32:da:d5:75:b5:d6:0d:d7:84:69:96:64:e9:bb:7f:
         6f:eb:23:2e:14:e7:e8:82:9a:dd:9f:81:63:d2:a2:28:94:aa:
         8e:b8:dd:65:88:4c:7f:43:7b:7e:7b:c6:2e:0f:0c:b3:c3:a7:
         c3:09:10:f7:15:e8:2c:f0:c0:e0:17:84:54:6d:6c:f9:d5:a5:
         62:19:8c:3c:15:06:3e:50:e2:0a:f4:b9:98:f9:19:28:98:0c:
         1f:fa:f9:b9:34:90:ee:86:4c:98:d8:13:4b:6b:88:d8:82:eb:
         4f:fc:be:50:44:f8:70:29:0c:d4:61:97:0b:ea:af:36:34:0f:
         de:35:ee:6a:9c:b7:fb:4a:e8:d9:5e:6e:61:6a:76:c8:21:89:
         c6:a7:68:d3:30:ef:57:55:08:dc:77:07:b9:06:2b:5f:94:09:
         e8:b0:68:87:6e:c1:7d:b2:00:9a:3f:b2:e3:b7:7e:2d:80:7e:
         88:30:32:b7:68:ab:cd:b6:e2:64:e6:8c:63:ff:aa:90:e2:c2:
         0c:31:34:0c:96:f4:c3:cf:a0:d5:68:ed:6f:da:0d:2c:6b:7f:
         74:c5:cd:0d:b8:dd:57:5d:80:74:64:b6:ea:99:1a:f5:31:d2:
         75:27:03:0b:fe:fd:c3:8e:30:ed:fb:33:d7:72:d4:4f:47:7b:
         ad:93:17:39:e9:52:0f:af:b1:b8:81:a6:04:0a:df:29:00:a7:
         81:22:ff:0e:bf:f6:8f:8e:b3:ba:ed:10:c4:8b:4e:b9:a3:7e:
         6b:0b:4d:64:69:6c:01:7d:c4:18:8c:b0:ec:b1:91:29:87:7d:
         9c:90:e0:c1:5d:92:d0:d7:2c:93:9e:50:11:f2:81:7e:f8:c8:
         35:c6:ce:a8:92:32:85:48:72:14:0c:a8:ea:28:02:a0:d4:11:
         ee:17:6d:1b:b8:82:bc:31:ed:cd:9c:88:b2:eb:88:b0:02:dd:
         eb:00:1a:07:79:40:10:6e:86:4e:b8:1e:7a:fd:d9:d0:48:3c:
         93:f6:03:83:68:43:b1:f6:4f:91:f3:4a:c2:8c:48:00:0f:33:
         2d:f8:ba:3d:29:4f:12:a5:f6:08:6b:0c:e2:d4:e1:4f:2c:0b:
         d5:83:b4:85:a2:bf:a3:6c:8d:d6:58:06:e4:1b:88:cc:95:7b:
         58:be:c4:6d:0b:38:25:4a
-----BEGIN CERTIFICATE-----
MIIGrTCCBJWgAwIBAgICL5MwDQYJKoZIhvcNAQELBQAwgawxCzAJBgNVBAYTAlVT
MQswCQYDVQQIEwJPSDERMA8GA1UEBxMIQ29sdW1idXMxEjAQBgNVBAoTCVZpa2lu
Z1ZQTjEdMBsGA1UECxMUTXlPcmdhbml6YXRpb25hbFVuaXQxFTATBgNVBAMTDFZp
a2luZ1ZQTiBDQTEQMA4GA1UEKRMHRWFzeVJTQTEhMB8GCSqGSIb3DQEJARYSbWVA
bXlob3N0Lm15ZG9tYWluMB4XDTE3MTEyODEwMzEyOVoXDTI3MTEyNjEwMzEyOVow
HzEdMBsGA1UEAxMUQ2xpZW50MzE3M0NlcnRmYzVlZDUwggIiMA0GCSqGSIb3DQEB
AQUAA4ICDwAwggIKAoICAQDM1M6nreSctPKDcNPKW4sd0z5RhqmKNQZyjVuKHZIq
PGMFmmCBoj3IPe4gKh22Qzt91ayhhi9jVBkbmgB/RjEiQ04Sdx+J5ajQjVJhIQrI
3kocRHy1QcP5ICs76IVgYizZZno/hnO9pi6SG5akVhT9skYfpRZRkfimSwpKbUYn
gZJL58yNGD4vqc0WOUibeRNEWuobbNaslaeVlmwTFX9g/GpeLwY9R/Mc62V8W//N
IwANzWafprE05Ig+5IebiJFS9AxLde/VkT+xhheJPRypAJZ5kXo6vgeVYrrrubjH
15FM0kIAQL+xQ8oa/3844QN6r9YNwe2/rKUqQkwDbxcr2vren11bT/PfimSn0wtD
xHZm+YXAiKJMRJwAUetj1z9jn3hBhBsBAsiQmepHfJM/+sRsD1VHWQLmPcpFEjib
OWJu8g3P0zqSO5paHojG1w9dkJMdOfm/PcgHTpjMQnoSEtxwU7rmF5HGPFqHUfcA
uM2SZPae6TCtnh6TdLDlFbuoLMhj8AYCqWIzfZ2pp5u3YwEwwM1TfYBJky6n4S6Y
JsK1HjL/yhH7bSs9Yacy4j7G+5cytYVtO0oMJpcXYQg2FDQ1RpqIGOB88qwf0Z93
WubigfF6qEihLcVoXYtdUgDXqGfLFQhCL/EYfPDg0QNtLlkswqTlXd8xd0VZsfVI
eQIDAQABo4IBYzCCAV8wCQYDVR0TBAIwADAtBglghkgBhvhCAQ0EIBYeRWFzeS1S
U0EgR2VuZXJhdGVkIENlcnRpZmljYXRlMB0GA1UdDgQWBBQQdm1+g8kaptpFXdjP
ALvqSS+fCTCB4QYDVR0jBIHZMIHWgBQSzWAE0qCAnnDtxpm4eyzGUv0ZoaGBsqSB
rzCBrDELMAkGA1UEBhMCVVMxCzAJBgNVBAgTAk9IMREwDwYDVQQHEwhDb2x1bWJ1
czESMBAGA1UEChMJVmlraW5nVlBOMR0wGwYDVQQLExRNeU9yZ2FuaXphdGlvbmFs
VW5pdDEVMBMGA1UEAxMMVmlraW5nVlBOIENBMRAwDgYDVQQpEwdFYXN5UlNBMSEw
HwYJKoZIhvcNAQkBFhJtZUBteWhvc3QubXlkb21haW6CCQDPNYXugL8qPjATBgNV
HSUEDDAKBggrBgEFBQcDAjALBgNVHQ8EBAMCB4AwDQYJKoZIhvcNAQELBQADggIB
AN/NOWYp7tCjQ5gB1ePXDya5QSF9xf275+q6rUYcKm7dJq58d6LU3Fr4Eta1Dqqm
gfjIelNwV6pREva8GnNEmYpxyJ8t/kdJDL9D7TLa1XW11g3XhGmWZOm7f2/rIy4U
5+iCmt2fgWPSoiiUqo643WWITH9De357xi4PDLPDp8MJEPcV6CzwwOAXhFRtbPnV
pWIZjDwVBj5Q4gr0uZj5GSiYDB/6+bk0kO6GTJjYE0triNiC60/8vlBE+HApDNRh
lwvqrzY0D9417mqct/tK6NlebmFqdsghicanaNMw71dVCNx3B7kGK1+UCeiwaIdu
wX2yAJo/suO3fi2AfogwMrdoq8224mTmjGP/qpDiwgwxNAyW9MPPoNVo7W/aDSxr
f3TFzQ243VddgHRktuqZGvUx0nUnAwv+/cOOMO37M9dy1E9He62TFznpUg+vsbiB
pgQK3ykAp4Ei/w6/9o+Os7rtEMSLTrmjfmsLTWRpbAF9xBiMsOyxkSmHfZyQ4MFd
ktDXLJOeUBHygX74yDXGzqiSMoVIchQMqOooAqDUEe4XbRu4grwx7c2ciLLriLAC
3esAGgd5QBBuhk64Hnr92dBIPJP2A4NoQ7H2T5HzSsKMSAAPMy34uj0pTxKl9ghr
DOLU4U8sC9WDtIWiv6NsjdZYBuQbiMyVe1i+xG0LOCVK
-----END CERTIFICATE-----
