Certificate:
    Data:
        Version: 3 (0x2)
        Serial Number: 299 (0x12b)
    Signature Algorithm: md5WithRSAEncryption
        Issuer: C=US, ST=OH, L=Columbus, O=VikingVPN, OU=MyOrganizationalUnit, CN=VikingVPN CA/name=EasyRSA/emailAddress=me@myhost.mydomain
        Validity
            Not Before: Oct 14 22:38:08 2013 GMT
            Not After : Oct 12 22:38:08 2023 GMT
        Subject: CN=Client138Cert1306e8
        Subject Public Key Info:
            Public Key Algorithm: rsaEncryption
                Public-Key: (4096 bit)
                Modulus:
                    00:bc:e0:88:d8:68:5e:8d:5d:ce:a5:d1:68:c6:27:
                    e2:70:a8:45:9b:aa:93:10:6e:d9:3d:86:98:82:74:
                    f6:d8:b9:93:09:c1:61:57:5e:b2:8c:6f:bc:15:e2:
                    6d:11:a6:cf:b0:bf:af:03:ed:d2:bb:47:ae:01:6d:
                    d3:a3:2a:7c:54:6c:f0:be:ba:f5:82:ad:28:0e:27:
                    b3:15:b4:93:49:86:2a:e6:8a:13:e0:63:0a:cb:e3:
                    7f:44:07:3f:50:e0:34:37:96:96:4c:e4:bf:cb:6d:
                    c4:8b:a8:b5:cd:74:03:3b:b3:7b:09:0f:f4:a2:88:
                    83:69:7f:68:e8:2c:d1:b3:4f:ad:1e:3c:22:16:a0:
                    29:e9:66:d4:fc:33:8f:4b:1d:cf:b8:20:32:4a:2d:
                    3e:be:0d:bc:3e:bc:38:b9:c8:3f:ed:52:3f:53:d2:
                    93:11:17:79:ba:f7:1b:25:5b:c9:88:1e:25:65:c7:
                    98:5d:64:8e:82:e2:a2:96:17:4f:bd:4c:18:25:17:
                    1f:a0:68:78:8d:ce:f2:39:77:6c:13:ee:5a:e1:3a:
                    57:4f:21:5a:30:bb:d8:20:ee:29:3b:3f:62:71:69:
                    16:3c:4e:d1:ca:6e:d6:8b:a5:18:30:41:76:a0:c4:
                    21:f5:c5:f4:fb:93:63:a3:38:29:1f:7e:64:97:02:
                    ce:6a:51:16:20:11:80:b1:96:3f:f1:7d:48:a9:2d:
                    c5:c1:26:a4:ec:7f:4a:a4:e3:fe:17:58:e6:f1:1c:
                    62:1c:3e:51:a4:af:23:26:db:be:02:86:67:64:0d:
                    47:b0:f1:b5:20:1f:26:8d:c5:84:d0:6c:2e:b2:05:
                    27:f0:28:cf:db:ce:7f:a9:45:5f:79:20:88:1e:22:
                    27:66:32:dc:78:e1:20:00:7f:8c:3f:85:16:38:0c:
                    42:5e:8f:2e:92:c9:1b:8b:d6:9a:b8:dc:59:a8:89:
                    bb:cb:cb:47:dc:b6:a1:ed:74:c1:85:8b:a9:0b:bb:
                    54:52:1f:0b:de:2e:14:4e:a4:17:2a:f9:9f:9e:44:
                    d5:84:1b:92:6c:de:2a:fd:ba:33:c8:3a:3c:79:2c:
                    3f:44:2b:83:e1:64:9d:18:a0:aa:ea:39:a7:12:81:
                    06:7d:61:11:df:d2:3d:ce:ec:ee:6d:d8:1e:c2:a6:
                    a4:30:9d:ff:ef:09:18:88:bb:69:34:b9:17:a5:7d:
                    c8:40:39:0b:5f:d3:01:5b:56:88:ff:f1:74:73:fc:
                    4d:fd:e4:e6:13:98:57:fc:b4:46:ce:48:2f:51:8a:
                    dd:71:54:18:64:4b:8e:a7:54:af:11:73:23:c7:bd:
                    d5:b8:8d:bd:14:41:bd:ef:6c:e0:68:54:37:90:aa:
                    72:0f:85
                Exponent: 65537 (0x10001)
        X509v3 extensions:
            X509v3 Basic Constraints: 
                CA:FALSE
            Netscape Comment: 
                Easy-RSA Generated Certificate
            X509v3 Subject Key Identifier: 
                F8:7D:00:77:3E:F5:66:B0:86:4E:39:87:5F:5F:96:AF:F4:AE:84:F7
            X509v3 Authority Key Identifier: 
                keyid:12:CD:60:04:D2:A0:80:9E:70:ED:C6:99:B8:7B:2C:C6:52:FD:19:A1
                DirName:/C=US/ST=OH/L=Columbus/O=VikingVPN/OU=MyOrganizationalUnit/CN=VikingVPN CA/name=EasyRSA/emailAddress=me@myhost.mydomain
                serial:CF:35:85:EE:80:BF:2A:3E

            X509v3 Extended Key Usage: 
                TLS Web Client Authentication
            X509v3 Key Usage: 
                Digital Signature
    Signature Algorithm: md5WithRSAEncryption
         bb:53:1d:ab:50:b0:2d:3d:97:df:0e:bb:a7:8e:e6:93:77:a9:
         97:c6:05:c9:90:57:0c:3a:ab:c2:b3:a0:c8:95:95:e0:ea:4d:
         f7:bf:a4:04:55:4d:08:fa:63:58:42:41:6d:c3:d0:66:6d:1b:
         11:03:e4:9f:61:8b:25:ea:5b:a6:fb:94:ea:d4:e7:24:26:70:
         1b:1f:fd:e6:bd:7a:3e:6b:be:c5:60:98:4e:b0:17:f1:32:28:
         d3:5b:31:ac:53:0b:92:fb:81:f0:0a:8f:c7:23:dc:d1:ea:96:
         31:f6:cc:80:ab:e7:d0:98:dc:22:b5:38:e0:03:af:6a:4f:ca:
         e6:ab:55:5a:f6:cd:84:09:52:ec:d1:fa:8b:81:29:f1:7f:5e:
         cd:ae:28:3c:b4:53:7d:41:8e:98:45:7f:52:44:64:7c:ab:66:
         2e:c9:0b:24:6b:f7:d6:f0:fb:f2:86:02:35:93:c1:6f:37:60:
         ce:95:f9:8c:df:33:a9:85:1f:45:a7:7f:a0:27:0f:f1:d3:67:
         01:e6:ca:1e:08:25:74:41:7f:68:fd:1b:89:47:d3:31:0d:74:
         1d:16:74:d9:9e:85:3a:46:8c:9e:45:44:da:8b:a6:d5:cf:55:
         23:1e:b9:5a:76:bf:55:17:f7:d4:b2:b3:09:f8:26:2a:ad:d5:
         49:21:49:44:60:a4:c3:89:dd:34:dd:ea:56:53:a9:36:62:64:
         1b:62:1b:ae:d9:e2:39:b5:15:88:7a:45:94:ce:c4:06:a1:6f:
         2d:e5:96:e2:8a:40:e3:6f:14:48:01:69:29:8b:d3:ee:5c:50:
         bc:a8:b6:0d:bc:22:aa:40:02:86:48:0e:c4:0a:9a:f3:52:fb:
         20:10:dc:8a:f9:6d:ea:e0:d6:7c:ce:00:28:0d:88:5c:da:82:
         20:de:37:88:82:0b:86:1a:3b:54:a6:28:03:9f:a8:d4:6a:0b:
         f9:37:6c:11:67:28:99:aa:98:8b:5f:bf:cd:14:c2:a1:ef:b5:
         6e:c0:e3:17:a8:8f:14:d8:f8:c4:cd:44:45:ec:2f:8b:c2:3c:
         14:15:23:2a:26:ee:86:ea:72:7c:70:3a:07:2b:32:5a:ba:bc:
         fb:ce:60:bc:a6:55:ce:b6:55:5b:d5:12:6e:7b:07:c7:7c:f0:
         ee:54:71:7b:5c:e8:50:a1:c2:b5:c4:a9:4a:14:4e:a7:d1:96:
         b2:29:e9:59:29:f6:c1:7a:8f:27:1a:41:61:8f:e9:81:b7:93:
         a5:dd:a7:d9:7a:f3:f7:ab:b7:97:16:5f:4a:d1:9e:93:5a:db:
         76:07:05:90:3c:a9:c8:dd:4f:b9:97:1d:63:38:28:a7:29:ad:
         dc:0c:39:7b:f8:d2:f6:8b
-----BEGIN CERTIFICATE-----
MIIGrDCCBJSgAwIBAgICASswDQYJKoZIhvcNAQEEBQAwgawxCzAJBgNVBAYTAlVT
MQswCQYDVQQIEwJPSDERMA8GA1UEBxMIQ29sdW1idXMxEjAQBgNVBAoTCVZpa2lu
Z1ZQTjEdMBsGA1UECxMUTXlPcmdhbml6YXRpb25hbFVuaXQxFTATBgNVBAMTDFZp
a2luZ1ZQTiBDQTEQMA4GA1UEKRMHRWFzeVJTQTEhMB8GCSqGSIb3DQEJARYSbWVA
bXlob3N0Lm15ZG9tYWluMB4XDTEzMTAxNDIyMzgwOFoXDTIzMTAxMjIyMzgwOFow
HjEcMBoGA1UEAxMTQ2xpZW50MTM4Q2VydDEzMDZlODCCAiIwDQYJKoZIhvcNAQEB
BQADggIPADCCAgoCggIBALzgiNhoXo1dzqXRaMYn4nCoRZuqkxBu2T2GmIJ09ti5
kwnBYVdesoxvvBXibRGmz7C/rwPt0rtHrgFt06MqfFRs8L669YKtKA4nsxW0k0mG
KuaKE+BjCsvjf0QHP1DgNDeWlkzkv8ttxIuotc10AzuzewkP9KKIg2l/aOgs0bNP
rR48IhagKelm1Pwzj0sdz7ggMkotPr4NvD68OLnIP+1SP1PSkxEXebr3GyVbyYge
JWXHmF1kjoLiopYXT71MGCUXH6BoeI3O8jl3bBPuWuE6V08hWjC72CDuKTs/YnFp
FjxO0cpu1oulGDBBdqDEIfXF9PuTY6M4KR9+ZJcCzmpRFiARgLGWP/F9SKktxcEm
pOx/SqTj/hdY5vEcYhw+UaSvIybbvgKGZ2QNR7DxtSAfJo3FhNBsLrIFJ/Aoz9vO
f6lFX3kgiB4iJ2Yy3HjhIAB/jD+FFjgMQl6PLpLJG4vWmrjcWaiJu8vLR9y2oe10
wYWLqQu7VFIfC94uFE6kFyr5n55E1YQbkmzeKv26M8g6PHksP0Qrg+FknRigquo5
pxKBBn1hEd/SPc7s7m3YHsKmpDCd/+8JGIi7aTS5F6V9yEA5C1/TAVtWiP/xdHP8
Tf3k5hOYV/y0Rs5IL1GK3XFUGGRLjqdUrxFzI8e91biNvRRBve9s4GhUN5Cqcg+F
AgMBAAGjggFjMIIBXzAJBgNVHRMEAjAAMC0GCWCGSAGG+EIBDQQgFh5FYXN5LVJT
QSBHZW5lcmF0ZWQgQ2VydGlmaWNhdGUwHQYDVR0OBBYEFPh9AHc+9Wawhk45h19f
lq/0roT3MIHhBgNVHSMEgdkwgdaAFBLNYATSoICecO3Gmbh7LMZS/RmhoYGypIGv
MIGsMQswCQYDVQQGEwJVUzELMAkGA1UECBMCT0gxETAPBgNVBAcTCENvbHVtYnVz
MRIwEAYDVQQKEwlWaWtpbmdWUE4xHTAbBgNVBAsTFE15T3JnYW5pemF0aW9uYWxV
bml0MRUwEwYDVQQDEwxWaWtpbmdWUE4gQ0ExEDAOBgNVBCkTB0Vhc3lSU0ExITAf
BgkqhkiG9w0BCQEWEm1lQG15aG9zdC5teWRvbWFpboIJAM81he6Avyo+MBMGA1Ud
JQQMMAoGCCsGAQUFBwMCMAsGA1UdDwQEAwIHgDANBgkqhkiG9w0BAQQFAAOCAgEA
u1Mdq1CwLT2X3w67p47mk3epl8YFyZBXDDqrwrOgyJWV4OpN97+kBFVNCPpjWEJB
bcPQZm0bEQPkn2GLJepbpvuU6tTnJCZwGx/95r16Pmu+xWCYTrAX8TIo01sxrFML
kvuB8AqPxyPc0eqWMfbMgKvn0JjcIrU44AOvak/K5qtVWvbNhAlS7NH6i4Ep8X9e
za4oPLRTfUGOmEV/UkRkfKtmLskLJGv31vD78oYCNZPBbzdgzpX5jN8zqYUfRad/
oCcP8dNnAebKHggldEF/aP0biUfTMQ10HRZ02Z6FOkaMnkVE2oum1c9VIx65Wna/
VRf31LKzCfgmKq3VSSFJRGCkw4ndNN3qVlOpNmJkG2IbrtniObUViHpFlM7EBqFv
LeWW4opA428USAFpKYvT7lxQvKi2DbwiqkAChkgOxAqa81L7IBDcivlt6uDWfM4A
KA2IXNqCIN43iIILhho7VKYoA5+o1GoL+TdsEWcomaqYi1+/zRTCoe+1bsDjF6iP
FNj4xM1ERewvi8I8FBUjKibuhupyfHA6BysyWrq8+85gvKZVzrZVW9USbnsHx3zw
7lRxe1zoUKHCtcSpShROp9GWsinpWSn2wXqPJxpBYY/pgbeTpd2n2Xrz96u3lxZf
StGek1rbdgcFkDypyN1PuZcdYzgopymt3Aw5e/jS9os=
-----END CERTIFICATE-----
