Certificate:
    Data:
        Version: 3 (0x2)
        Serial Number: 10559 (0x293f)
    Signature Algorithm: sha256WithRSAEncryption
        Issuer: C=US, ST=OH, L=Columbus, O=VikingVPN, OU=MyOrganizationalUnit, CN=VikingVPN CA/name=EasyRSA/emailAddress=me@myhost.mydomain
        Validity
            Not Before: Apr  5 23:27:30 2017 GMT
            Not After : Apr  3 23:27:30 2027 GMT
        Subject: CN=Client2832Cert9c20cf
        Subject Public Key Info:
            Public Key Algorithm: rsaEncryption
                Public-Key: (4096 bit)
                Modulus:
                    00:da:b3:f5:9d:50:ca:5b:de:5b:13:2b:34:31:ec:
                    55:87:be:fc:6c:c9:80:a7:c7:00:53:8e:3c:e6:a2:
                    fe:30:b7:2f:a1:cc:1e:61:9b:32:c4:b5:09:b5:09:
                    98:9c:af:9a:a2:a2:46:3c:72:91:97:a8:1e:cc:04:
                    37:b9:8e:80:70:99:bf:c8:8e:d3:1c:78:6a:77:8a:
                    ef:4b:62:a0:f4:a4:8c:09:82:f1:3d:49:c1:b6:76:
                    73:dd:65:72:91:5e:3f:1d:7e:8c:29:cc:ca:23:d0:
                    bd:20:56:12:28:0e:45:f0:92:dc:16:bd:49:e5:70:
                    35:7d:6e:4d:37:e6:e3:aa:5d:31:36:f8:e7:34:0d:
                    45:de:5b:95:11:26:c9:eb:99:f7:63:fd:fd:9f:71:
                    66:46:f5:1a:84:9a:ab:b7:d9:39:2a:ab:37:4d:a7:
                    41:4b:f9:d2:31:35:92:0d:2f:be:c3:c2:cb:16:f6:
                    48:04:43:13:b3:2b:84:46:a5:58:56:bf:5c:d3:f5:
                    ff:0c:df:5b:91:9b:72:2e:b4:d5:c1:30:3f:e4:f7:
                    f0:33:5f:30:e6:74:fb:37:df:e9:32:4c:71:01:f6:
                    76:c3:4e:c9:a6:cc:f3:bf:84:f5:2a:86:8d:e5:8f:
                    2d:4c:2e:e7:c0:bf:d6:21:a3:0f:5e:b5:58:60:52:
                    40:40:39:7e:6e:c4:ac:06:83:f7:26:95:37:87:cb:
                    51:5a:5c:5c:c6:ad:35:aa:7f:7d:b7:52:eb:99:45:
                    87:0d:01:51:d2:0f:4b:be:62:70:8e:09:59:71:87:
                    a9:38:86:8f:51:a6:09:73:35:f4:5a:9d:35:bc:9e:
                    0c:10:a4:c9:08:9a:ad:af:f0:ec:57:29:a7:78:ac:
                    a3:0d:67:79:da:0b:25:36:a0:1c:46:b2:2a:6b:dd:
                    73:3c:95:07:04:f6:6d:45:ea:4b:b2:a5:c1:4e:c6:
                    97:17:e1:6f:d5:80:60:99:e9:1f:cf:4c:44:93:2c:
                    65:a5:40:34:0d:f7:c0:84:00:d2:75:3e:23:10:fc:
                    c4:66:d6:c3:25:e6:a0:e3:31:04:59:97:e0:fa:7a:
                    5c:fa:cb:a7:88:27:9a:2e:6f:d1:b1:8e:69:e1:3c:
                    c7:fb:c6:69:40:99:de:d3:32:4c:4b:c8:ad:b7:77:
                    67:9d:54:37:95:ee:22:99:2e:45:36:10:eb:7f:59:
                    f7:d1:72:93:ae:b5:cc:89:74:63:0c:55:fc:0f:c2:
                    f9:a5:d6:35:df:08:3f:6b:af:35:36:be:0a:75:5b:
                    8c:b0:59:79:cd:e5:f5:0b:78:f9:fd:04:86:7f:e9:
                    ca:7c:91:57:b6:b7:ae:d0:5f:37:9e:6f:17:d9:33:
                    8e:43:c5
                Exponent: 65537 (0x10001)
        X509v3 extensions:
            X509v3 Basic Constraints: 
                CA:FALSE
            Netscape Comment: 
                Easy-RSA Generated Certificate
            X509v3 Subject Key Identifier: 
                81:C2:7E:3F:41:D8:C4:1E:BA:D8:FE:DD:59:7C:BB:96:59:5E:C4:62
            X509v3 Authority Key Identifier: 
                keyid:12:CD:60:04:D2:A0:80:9E:70:ED:C6:99:B8:7B:2C:C6:52:FD:19:A1
                DirName:/C=US/ST=OH/L=Columbus/O=VikingVPN/OU=MyOrganizationalUnit/CN=VikingVPN CA/name=EasyRSA/emailAddress=me@myhost.mydomain
                serial:CF:35:85:EE:80:BF:2A:3E

            X509v3 Extended Key Usage: 
                TLS Web Client Authentication
            X509v3 Key Usage: 
                Digital Signature
    Signature Algorithm: sha256WithRSAEncryption
         39:00:0b:17:a0:d7:66:cf:62:8a:92:b9:67:bd:2a:c8:a6:38:
         98:f1:36:7f:c7:0d:23:0b:ed:74:70:a8:40:ac:cf:a2:b1:00:
         08:25:f9:58:ae:4a:21:2f:68:16:25:74:a5:91:44:7b:79:e9:
         6a:ed:75:c0:6a:7d:bf:36:91:87:25:10:fd:3d:cb:a0:1d:ec:
         59:c9:e4:d2:ad:31:0e:b6:03:e7:2f:d2:92:97:51:69:0a:84:
         cd:13:07:8e:3c:36:e2:00:47:0e:d5:13:96:6f:bf:da:e7:3d:
         9d:01:b6:b7:96:43:87:24:19:3e:e2:af:17:ba:67:8f:21:67:
         6f:91:de:ce:f4:6b:4f:11:d6:6f:66:05:5b:0f:27:85:68:fd:
         ef:c1:d7:dc:b8:9c:f1:2a:54:1e:65:23:3c:e0:21:5f:b7:52:
         5a:58:c1:c1:e8:e4:dc:30:7e:1a:9f:ed:b1:bd:e9:bb:8e:98:
         d3:18:31:9f:06:39:76:3c:55:46:20:70:8f:b3:1f:e6:b2:d7:
         a1:47:5d:c7:a4:06:d1:f3:c9:0a:bc:75:dd:18:89:45:ac:47:
         a2:73:48:ea:5e:70:4b:74:27:2e:6d:16:30:d1:48:b7:af:eb:
         46:7a:20:be:af:19:50:a3:7f:8c:04:06:a5:ce:06:ec:73:fd:
         1e:c9:12:20:6c:79:a4:8e:3f:c2:4f:3c:8b:fd:cc:1c:98:3c:
         a3:2e:5f:54:b0:86:8c:4c:97:c7:10:b3:02:86:26:3c:e0:98:
         0b:ae:f8:5d:40:1a:ce:18:df:f2:ac:02:03:08:b0:cf:e5:5b:
         19:36:b3:37:23:22:5c:08:aa:d1:55:b2:a3:e1:5c:7b:30:77:
         3b:44:e7:4f:9d:57:ab:91:53:e7:ae:8a:93:fc:24:18:78:11:
         c4:c4:bd:c0:f9:65:8c:1e:ce:16:7b:b6:49:ef:4e:c2:46:b2:
         e8:ff:61:cf:90:80:2f:52:91:9d:86:2f:2d:c8:fb:8c:c8:08:
         65:6f:01:52:ba:8a:0d:42:d2:31:01:2e:ba:b2:3a:bd:6b:73:
         dd:aa:e4:01:26:79:6a:65:0a:1a:95:8c:8d:95:4f:db:85:cd:
         d2:d9:4b:73:50:45:f8:a2:7f:1f:e6:e4:49:24:e5:c1:d7:b1:
         f8:fc:87:fb:33:55:8f:ac:af:3b:44:46:84:7b:25:24:dc:2e:
         72:24:8a:45:d3:e5:db:eb:af:11:21:b0:eb:34:fc:5d:91:df:
         3e:e2:87:b6:2f:b6:3b:46:53:91:9e:17:cb:79:ca:f7:b6:0d:
         31:49:81:9b:02:13:11:1c:a1:16:ea:3f:69:e5:a8:ad:fd:3a:
         43:dc:b6:ed:6d:a7:b5:96
-----BEGIN CERTIFICATE-----
MIIGrTCCBJWgAwIBAgICKT8wDQYJKoZIhvcNAQELBQAwgawxCzAJBgNVBAYTAlVT
MQswCQYDVQQIEwJPSDERMA8GA1UEBxMIQ29sdW1idXMxEjAQBgNVBAoTCVZpa2lu
Z1ZQTjEdMBsGA1UECxMUTXlPcmdhbml6YXRpb25hbFVuaXQxFTATBgNVBAMTDFZp
a2luZ1ZQTiBDQTEQMA4GA1UEKRMHRWFzeVJTQTEhMB8GCSqGSIb3DQEJARYSbWVA
bXlob3N0Lm15ZG9tYWluMB4XDTE3MDQwNTIzMjczMFoXDTI3MDQwMzIzMjczMFow
HzEdMBsGA1UEAxMUQ2xpZW50MjgzMkNlcnQ5YzIwY2YwggIiMA0GCSqGSIb3DQEB
AQUAA4ICDwAwggIKAoICAQDas/WdUMpb3lsTKzQx7FWHvvxsyYCnxwBTjjzmov4w
ty+hzB5hmzLEtQm1CZicr5qiokY8cpGXqB7MBDe5joBwmb/IjtMceGp3iu9LYqD0
pIwJgvE9ScG2dnPdZXKRXj8dfowpzMoj0L0gVhIoDkXwktwWvUnlcDV9bk035uOq
XTE2+Oc0DUXeW5URJsnrmfdj/f2fcWZG9RqEmqu32TkqqzdNp0FL+dIxNZINL77D
wssW9kgEQxOzK4RGpVhWv1zT9f8M31uRm3IutNXBMD/k9/AzXzDmdPs33+kyTHEB
9nbDTsmmzPO/hPUqho3ljy1MLufAv9Yhow9etVhgUkBAOX5uxKwGg/cmlTeHy1Fa
XFzGrTWqf323UuuZRYcNAVHSD0u+YnCOCVlxh6k4ho9RpglzNfRanTW8ngwQpMkI
mq2v8OxXKad4rKMNZ3naCyU2oBxGsipr3XM8lQcE9m1F6kuypcFOxpcX4W/VgGCZ
6R/PTESTLGWlQDQN98CEANJ1PiMQ/MRm1sMl5qDjMQRZl+D6elz6y6eIJ5oub9Gx
jmnhPMf7xmlAmd7TMkxLyK23d2edVDeV7iKZLkU2EOt/WffRcpOutcyJdGMMVfwP
wvml1jXfCD9rrzU2vgp1W4ywWXnN5fULePn9BIZ/6cp8kVe2t67QXzeebxfZM45D
xQIDAQABo4IBYzCCAV8wCQYDVR0TBAIwADAtBglghkgBhvhCAQ0EIBYeRWFzeS1S
U0EgR2VuZXJhdGVkIENlcnRpZmljYXRlMB0GA1UdDgQWBBSBwn4/QdjEHrrY/t1Z
fLuWWV7EYjCB4QYDVR0jBIHZMIHWgBQSzWAE0qCAnnDtxpm4eyzGUv0ZoaGBsqSB
rzCBrDELMAkGA1UEBhMCVVMxCzAJBgNVBAgTAk9IMREwDwYDVQQHEwhDb2x1bWJ1
czESMBAGA1UEChMJVmlraW5nVlBOMR0wGwYDVQQLExRNeU9yZ2FuaXphdGlvbmFs
VW5pdDEVMBMGA1UEAxMMVmlraW5nVlBOIENBMRAwDgYDVQQpEwdFYXN5UlNBMSEw
HwYJKoZIhvcNAQkBFhJtZUBteWhvc3QubXlkb21haW6CCQDPNYXugL8qPjATBgNV
HSUEDDAKBggrBgEFBQcDAjALBgNVHQ8EBAMCB4AwDQYJKoZIhvcNAQELBQADggIB
ADkACxeg12bPYoqSuWe9KsimOJjxNn/HDSML7XRwqECsz6KxAAgl+ViuSiEvaBYl
dKWRRHt56WrtdcBqfb82kYclEP09y6Ad7FnJ5NKtMQ62A+cv0pKXUWkKhM0TB448
NuIARw7VE5Zvv9rnPZ0BtreWQ4ckGT7irxe6Z48hZ2+R3s70a08R1m9mBVsPJ4Vo
/e/B19y4nPEqVB5lIzzgIV+3UlpYwcHo5Nwwfhqf7bG96buOmNMYMZ8GOXY8VUYg
cI+zH+ay16FHXcekBtHzyQq8dd0YiUWsR6JzSOpecEt0Jy5tFjDRSLev60Z6IL6v
GVCjf4wEBqXOBuxz/R7JEiBseaSOP8JPPIv9zByYPKMuX1SwhoxMl8cQswKGJjzg
mAuu+F1AGs4Y3/KsAgMIsM/lWxk2szcjIlwIqtFVsqPhXHswdztE50+dV6uRU+eu
ipP8JBh4EcTEvcD5ZYwezhZ7tknvTsJGsuj/Yc+QgC9SkZ2GLy3I+4zICGVvAVK6
ig1C0jEBLrqyOr1rc92q5AEmeWplChqVjI2VT9uFzdLZS3NQRfiifx/m5Ekk5cHX
sfj8h/szVY+srztERoR7JSTcLnIkikXT5dvrrxEhsOs0/F2R3z7ih7YvtjtGU5Ge
F8t5yve2DTFJgZsCExEcoRbqP2nlqK39OkPctu1tp7WW
-----END CERTIFICATE-----
