Certificate:
    Data:
        Version: 3 (0x2)
        Serial Number: 5601 (0x15e1)
    Signature Algorithm: md5WithRSAEncryption
        Issuer: C=US, ST=OH, L=Columbus, O=VikingVPN, OU=MyOrganizationalUnit, CN=VikingVPN CA/name=EasyRSA/emailAddress=me@myhost.mydomain
        Validity
            Not Before: Jun 21 19:49:05 2015 GMT
            Not After : Jun 18 19:49:05 2025 GMT
        Subject: CN=Client1755Certfc5123
        Subject Public Key Info:
            Public Key Algorithm: rsaEncryption
                Public-Key: (4096 bit)
                Modulus:
                    00:a1:0b:39:04:f7:8a:ac:1b:f4:4c:d0:d4:e0:f5:
                    fb:8d:4c:59:69:c5:c7:69:ff:f9:b6:bd:df:30:21:
                    e6:13:5c:9c:31:6d:a9:9f:94:48:97:ed:98:0b:7d:
                    15:b8:b6:76:87:97:a0:c0:e4:c9:43:c3:8c:ed:5e:
                    b8:58:6b:9b:ab:6e:fc:70:15:31:d0:7b:4f:2f:f7:
                    4d:9e:41:59:f1:bd:1b:05:f2:33:a4:de:a9:36:c8:
                    5a:a6:3e:c7:e0:66:04:52:39:d9:3f:ef:42:03:f5:
                    41:52:36:e3:c8:12:67:33:aa:ea:35:a3:db:ab:5f:
                    e1:fd:9c:30:7b:98:0c:d6:62:8e:7c:10:15:4e:b7:
                    86:41:13:bd:2b:95:9a:c9:48:59:ee:c7:8c:6e:5a:
                    79:eb:7f:ab:10:59:e8:fe:0e:03:b6:59:c4:aa:7c:
                    b5:fc:86:50:66:ed:ca:a3:6d:09:c5:c1:bf:b8:16:
                    0b:cd:08:4e:71:36:08:c7:20:8c:09:10:e8:ab:17:
                    1a:69:ea:24:9b:da:35:89:18:41:d6:50:fb:83:8c:
                    fe:4a:39:eb:1d:bb:53:61:e6:de:e2:84:30:9b:ff:
                    57:ba:e8:f3:40:bd:ec:bc:46:93:b8:3c:bd:3e:8e:
                    8a:bc:39:f8:99:f8:e0:f1:ad:9e:ae:59:b7:88:45:
                    6f:df:dd:ac:fe:7d:00:3a:56:ca:bb:9c:90:72:67:
                    78:1b:66:50:0f:ac:ac:e7:0c:0d:1c:fd:92:54:7d:
                    b4:85:29:3f:40:95:5d:b7:0e:1e:87:69:ce:b2:e7:
                    3f:4d:d0:79:ab:41:e9:dd:a6:02:fb:37:c9:b8:28:
                    57:98:8c:5f:1a:ab:d1:11:66:b9:5e:2f:40:61:b4:
                    a7:8b:ba:31:26:3a:6c:fd:7a:de:ea:25:0a:39:a9:
                    b5:10:08:bb:65:a1:29:2e:98:7c:34:19:d3:3d:b1:
                    9d:2d:5b:a1:e2:80:e3:31:f7:fd:1a:46:d6:10:1b:
                    15:3e:71:ff:02:cf:cf:df:1a:8f:d5:7b:aa:9f:c0:
                    e1:fa:a4:65:22:73:ea:db:0f:66:aa:7a:ab:83:2e:
                    cc:7a:0e:ff:34:cc:4e:dc:91:65:c1:ac:1b:81:67:
                    79:e5:31:78:ba:f7:de:1a:17:07:7f:c5:ef:be:22:
                    fd:02:25:52:77:cd:b2:21:3a:40:79:0c:8d:c9:94:
                    d6:15:70:d6:f7:8d:6e:03:5a:f6:01:5a:ae:38:c0:
                    ee:02:94:2e:49:e1:92:45:da:d2:ed:86:df:d5:20:
                    a2:51:eb:1f:56:98:66:34:84:83:58:cd:34:fc:09:
                    7d:5c:45:de:7c:cb:a2:f4:d9:07:6b:2e:dc:a7:c3:
                    4b:80:4d
                Exponent: 65537 (0x10001)
        X509v3 extensions:
            X509v3 Basic Constraints: 
                CA:FALSE
            Netscape Comment: 
                Easy-RSA Generated Certificate
            X509v3 Subject Key Identifier: 
                A9:7B:2E:99:12:7B:B5:C9:5C:D4:31:9B:7C:53:FA:BC:B3:20:B3:B0
            X509v3 Authority Key Identifier: 
                keyid:12:CD:60:04:D2:A0:80:9E:70:ED:C6:99:B8:7B:2C:C6:52:FD:19:A1
                DirName:/C=US/ST=OH/L=Columbus/O=VikingVPN/OU=MyOrganizationalUnit/CN=VikingVPN CA/name=EasyRSA/emailAddress=me@myhost.mydomain
                serial:CF:35:85:EE:80:BF:2A:3E

            X509v3 Extended Key Usage: 
                TLS Web Client Authentication
            X509v3 Key Usage: 
                Digital Signature
    Signature Algorithm: md5WithRSAEncryption
         ba:fb:aa:23:fe:24:ce:ed:ea:07:62:42:6e:e4:47:05:8d:5d:
         3c:aa:04:60:5a:de:bd:08:ec:66:15:f6:87:8a:0f:cc:49:0d:
         e2:17:2f:91:b1:30:7b:d3:51:50:cf:8d:4c:b2:d0:d5:4c:d0:
         98:87:af:a9:32:47:f2:23:99:36:1e:85:69:9f:46:6e:65:95:
         29:0a:7e:88:26:76:ab:6d:3e:ab:ef:04:19:02:be:0d:18:69:
         50:10:4f:69:76:c0:6c:83:f5:bf:6a:1a:90:38:06:c7:f1:e0:
         c0:d5:6a:bc:bd:71:99:79:49:7f:2c:94:aa:83:0d:55:78:8b:
         c0:f5:4c:da:aa:14:69:c6:72:1a:de:3c:0f:36:ab:d4:c2:27:
         c3:96:78:9d:1d:d2:a0:66:74:95:68:6d:e4:07:dd:24:2b:e9:
         50:3e:c3:d2:64:b3:09:64:00:3f:de:15:23:6b:6e:ba:9d:18:
         38:8f:27:45:06:50:4e:f5:c8:c8:99:95:a9:68:da:0b:87:19:
         21:40:99:4e:f0:5e:fb:f3:e6:56:bf:3f:86:00:82:57:63:81:
         7e:df:f9:ad:4d:27:c9:bc:86:bc:33:fc:15:27:77:21:4f:cc:
         03:14:eb:27:67:b2:1a:24:e3:ae:09:af:57:c5:7c:64:34:b3:
         5b:59:38:d9:73:01:9e:b9:b7:ff:42:33:8c:e2:c7:35:15:78:
         94:fa:5f:8e:7b:79:f0:c1:63:d8:0f:69:b7:da:44:7d:14:63:
         bd:2f:5b:a9:34:0c:33:2c:2e:fa:4f:f4:d7:69:17:e9:97:9a:
         b2:c5:af:27:21:1d:94:24:58:39:11:75:23:38:15:df:bf:ce:
         35:51:67:9c:b6:43:38:2a:ab:f4:05:e4:43:65:fc:8d:c1:64:
         d6:16:42:52:c4:ad:69:3e:e3:81:e7:29:20:ad:fe:91:a8:23:
         0c:42:5a:d5:b7:1a:f5:50:42:b3:90:8f:03:2f:aa:cd:db:9d:
         37:51:58:d0:e8:90:ac:30:4a:1e:a1:cc:d9:84:1d:fa:98:9a:
         0c:9f:47:de:1f:23:f3:6e:8b:97:38:1a:1d:c3:37:e0:ed:f9:
         34:6e:fc:1b:27:cb:7f:ee:f9:6c:92:ea:23:79:5e:29:95:af:
         db:af:49:bb:1e:b2:f3:61:4e:eb:ba:29:c6:bd:dc:dc:33:11:
         dd:df:53:e4:96:1a:77:27:5c:d7:05:08:80:f5:b5:67:08:1d:
         2d:27:9c:ee:9a:ee:c6:f0:89:dd:c6:ba:78:b0:1b:6a:43:6d:
         06:90:fb:15:53:c0:c0:a3:43:2c:a9:5e:7f:bb:12:7d:39:df:
         46:49:2d:2c:2b:91:7f:bc
-----BEGIN CERTIFICATE-----
MIIGrTCCBJWgAwIBAgICFeEwDQYJKoZIhvcNAQEEBQAwgawxCzAJBgNVBAYTAlVT
MQswCQYDVQQIEwJPSDERMA8GA1UEBxMIQ29sdW1idXMxEjAQBgNVBAoTCVZpa2lu
Z1ZQTjEdMBsGA1UECxMUTXlPcmdhbml6YXRpb25hbFVuaXQxFTATBgNVBAMTDFZp
a2luZ1ZQTiBDQTEQMA4GA1UEKRMHRWFzeVJTQTEhMB8GCSqGSIb3DQEJARYSbWVA
bXlob3N0Lm15ZG9tYWluMB4XDTE1MDYyMTE5NDkwNVoXDTI1MDYxODE5NDkwNVow
HzEdMBsGA1UEAxMUQ2xpZW50MTc1NUNlcnRmYzUxMjMwggIiMA0GCSqGSIb3DQEB
AQUAA4ICDwAwggIKAoICAQChCzkE94qsG/RM0NTg9fuNTFlpxcdp//m2vd8wIeYT
XJwxbamflEiX7ZgLfRW4tnaHl6DA5MlDw4ztXrhYa5urbvxwFTHQe08v902eQVnx
vRsF8jOk3qk2yFqmPsfgZgRSOdk/70ID9UFSNuPIEmczquo1o9urX+H9nDB7mAzW
Yo58EBVOt4ZBE70rlZrJSFnux4xuWnnrf6sQWej+DgO2WcSqfLX8hlBm7cqjbQnF
wb+4FgvNCE5xNgjHIIwJEOirFxpp6iSb2jWJGEHWUPuDjP5KOesdu1Nh5t7ihDCb
/1e66PNAvey8RpO4PL0+joq8OfiZ+ODxrZ6uWbeIRW/f3az+fQA6Vsq7nJByZ3gb
ZlAPrKznDA0c/ZJUfbSFKT9AlV23Dh6Hac6y5z9N0HmrQendpgL7N8m4KFeYjF8a
q9ERZrleL0BhtKeLujEmOmz9et7qJQo5qbUQCLtloSkumHw0GdM9sZ0tW6HigOMx
9/0aRtYQGxU+cf8Cz8/fGo/Ve6qfwOH6pGUic+rbD2aqequDLsx6Dv80zE7ckWXB
rBuBZ3nlMXi6994aFwd/xe++Iv0CJVJ3zbIhOkB5DI3JlNYVcNb3jW4DWvYBWq44
wO4ClC5J4ZJF2tLtht/VIKJR6x9WmGY0hINYzTT8CX1cRd58y6L02QdrLtynw0uA
TQIDAQABo4IBYzCCAV8wCQYDVR0TBAIwADAtBglghkgBhvhCAQ0EIBYeRWFzeS1S
U0EgR2VuZXJhdGVkIENlcnRpZmljYXRlMB0GA1UdDgQWBBSpey6ZEnu1yVzUMZt8
U/q8syCzsDCB4QYDVR0jBIHZMIHWgBQSzWAE0qCAnnDtxpm4eyzGUv0ZoaGBsqSB
rzCBrDELMAkGA1UEBhMCVVMxCzAJBgNVBAgTAk9IMREwDwYDVQQHEwhDb2x1bWJ1
czESMBAGA1UEChMJVmlraW5nVlBOMR0wGwYDVQQLExRNeU9yZ2FuaXphdGlvbmFs
VW5pdDEVMBMGA1UEAxMMVmlraW5nVlBOIENBMRAwDgYDVQQpEwdFYXN5UlNBMSEw
HwYJKoZIhvcNAQkBFhJtZUBteWhvc3QubXlkb21haW6CCQDPNYXugL8qPjATBgNV
HSUEDDAKBggrBgEFBQcDAjALBgNVHQ8EBAMCB4AwDQYJKoZIhvcNAQEEBQADggIB
ALr7qiP+JM7t6gdiQm7kRwWNXTyqBGBa3r0I7GYV9oeKD8xJDeIXL5GxMHvTUVDP
jUyy0NVM0JiHr6kyR/IjmTYehWmfRm5llSkKfogmdqttPqvvBBkCvg0YaVAQT2l2
wGyD9b9qGpA4Bsfx4MDVary9cZl5SX8slKqDDVV4i8D1TNqqFGnGchrePA82q9TC
J8OWeJ0d0qBmdJVobeQH3SQr6VA+w9JkswlkAD/eFSNrbrqdGDiPJ0UGUE71yMiZ
lalo2guHGSFAmU7wXvvz5la/P4YAgldjgX7f+a1NJ8m8hrwz/BUndyFPzAMU6ydn
shok464Jr1fFfGQ0s1tZONlzAZ65t/9CM4zixzUVeJT6X457efDBY9gPabfaRH0U
Y70vW6k0DDMsLvpP9NdpF+mXmrLFrychHZQkWDkRdSM4Fd+/zjVRZ5y2Qzgqq/QF
5ENl/I3BZNYWQlLErWk+44HnKSCt/pGoIwxCWtW3GvVQQrOQjwMvqs3bnTdRWNDo
kKwwSh6hzNmEHfqYmgyfR94fI/Nui5c4Gh3DN+Dt+TRu/Bsny3/u+WyS6iN5XimV
r9uvSbsesvNhTuu6Kca93NwzEd3fU+SWGncnXNcFCID1tWcIHS0nnO6a7sbwid3G
uniwG2pDbQaQ+xVTwMCjQyypXn+7En0530ZJLSwrkX+8
-----END CERTIFICATE-----
