Certificate:
    Data:
        Version: 3 (0x2)
        Serial Number: 2870 (0xb36)
    Signature Algorithm: md5WithRSAEncryption
        Issuer: C=US, ST=OH, L=Columbus, O=VikingVPN, OU=MyOrganizationalUnit, CN=VikingVPN CA/name=EasyRSA/emailAddress=me@myhost.mydomain
        Validity
            Not Before: Sep 16 22:32:05 2014 GMT
            Not After : Sep 13 22:32:05 2024 GMT
        Subject: CN=Client49Cert3d44e3
        Subject Public Key Info:
            Public Key Algorithm: rsaEncryption
                Public-Key: (4096 bit)
                Modulus:
                    00:cf:e9:50:2c:db:b0:18:23:d4:e2:f8:0e:38:b4:
                    ab:2f:38:e4:e0:b8:87:d7:60:96:11:46:4a:b3:0e:
                    0b:34:20:22:1a:10:50:96:0b:a7:9f:8d:c7:cc:a4:
                    5d:0d:37:b3:7c:36:9e:ea:a6:3e:20:10:51:71:67:
                    5d:0f:e2:68:51:49:a9:72:71:40:2c:5a:9c:d3:f6:
                    df:6f:85:02:a9:64:3c:67:01:0b:91:99:0f:9e:0a:
                    ac:30:37:08:54:ae:02:ae:db:28:eb:82:a7:38:16:
                    48:ac:08:b2:6f:bc:40:bd:44:c1:a3:d1:ac:f6:1e:
                    4a:f4:aa:21:81:f5:0a:5e:95:b0:c5:0f:c2:d4:37:
                    70:db:63:2b:5c:1f:83:bc:bc:a2:e1:4c:ef:d2:a9:
                    b5:59:b9:4f:be:e2:7f:1c:62:c1:8f:bb:1d:5b:f2:
                    3c:27:ae:32:82:a8:a5:d0:ff:3c:af:9b:f4:e1:5b:
                    2d:c7:30:19:bd:61:25:39:ac:de:71:21:83:65:7c:
                    96:b2:38:65:19:d1:9c:7b:32:c6:a1:17:9d:b7:65:
                    5f:92:dc:07:e5:b3:79:ed:b8:d6:7b:90:e3:c5:70:
                    bc:3c:4d:50:a3:e8:a2:8f:13:be:6b:bf:d5:b5:f6:
                    97:dc:50:98:23:e3:31:e1:fa:c7:1a:20:82:2e:c6:
                    8b:2f:2b:a8:33:ca:63:0c:ee:d2:f5:68:8b:36:27:
                    87:f9:63:40:b1:d0:03:c9:09:3d:4b:48:0b:ce:7e:
                    7e:54:57:d3:1f:ee:5a:9e:74:f4:f8:70:ec:bc:ae:
                    a1:6b:b1:bd:f5:e9:ec:69:62:db:9e:e2:ff:a8:e8:
                    83:c7:70:cd:20:90:2a:36:a5:2c:50:4b:21:32:8b:
                    e1:68:3f:4f:69:ea:c2:60:ba:dc:11:91:95:92:82:
                    94:13:66:1a:bd:38:9c:f4:f5:f3:6f:3d:fb:31:bc:
                    b7:33:eb:ee:d2:e1:31:63:96:19:13:95:23:7e:2a:
                    f7:65:e8:09:0b:a7:4c:3a:e4:68:d5:1d:b9:e8:a3:
                    d8:d9:a4:88:dc:ac:1d:c0:c9:aa:11:ce:2c:08:65:
                    2c:fc:67:a5:30:15:86:91:36:1c:b0:b3:30:64:c7:
                    e4:17:2c:f6:e4:ff:8a:5b:1b:6c:93:06:78:7d:8d:
                    da:87:bf:05:bc:13:cc:71:ca:6b:29:ee:49:d3:fd:
                    2e:97:ac:10:a3:24:b9:f6:93:5b:b5:ae:82:1c:01:
                    3d:6c:8e:96:cc:8e:f8:1a:b2:98:92:76:9b:80:ab:
                    f1:c2:58:4b:48:e7:d2:02:bc:ab:ce:dd:bc:39:4a:
                    d3:a7:6b:84:2f:b3:b6:65:87:a7:3f:cd:57:b6:d7:
                    31:07:81
                Exponent: 65537 (0x10001)
        X509v3 extensions:
            X509v3 Basic Constraints: 
                CA:FALSE
            Netscape Comment: 
                Easy-RSA Generated Certificate
            X509v3 Subject Key Identifier: 
                58:9E:AF:36:E4:93:41:81:AE:D6:2F:28:4B:69:F9:6D:F7:DF:2C:6F
            X509v3 Authority Key Identifier: 
                keyid:12:CD:60:04:D2:A0:80:9E:70:ED:C6:99:B8:7B:2C:C6:52:FD:19:A1
                DirName:/C=US/ST=OH/L=Columbus/O=VikingVPN/OU=MyOrganizationalUnit/CN=VikingVPN CA/name=EasyRSA/emailAddress=me@myhost.mydomain
                serial:CF:35:85:EE:80:BF:2A:3E

            X509v3 Extended Key Usage: 
                TLS Web Client Authentication
            X509v3 Key Usage: 
                Digital Signature
    Signature Algorithm: md5WithRSAEncryption
         07:d3:00:28:a2:37:93:ba:7a:c9:63:28:c3:b8:62:64:c1:00:
         90:0b:c4:c4:75:f5:e2:7c:0c:0c:59:ce:b1:56:9a:7b:c0:6c:
         03:69:cb:d1:13:d0:70:f2:ca:8e:f5:53:66:f4:10:d0:99:a1:
         71:16:d3:5e:a1:f8:d7:05:08:8e:51:27:41:14:0c:d4:fb:98:
         0e:bb:60:12:88:11:e2:5b:95:29:c6:70:95:ab:9a:75:7a:f1:
         23:f4:af:a7:fb:e3:21:66:72:96:99:09:13:92:36:c1:21:0e:
         1f:2a:f0:b6:5b:00:a2:18:5d:22:3d:74:9e:91:07:62:5b:ea:
         b9:d0:5a:d5:57:5e:cb:b4:23:f1:6d:b7:69:e5:fb:13:89:05:
         ae:e0:d9:b2:8a:1b:8a:0b:6c:1f:80:59:7c:e1:89:0c:42:c8:
         52:20:c3:5a:b2:21:5e:bc:25:31:5e:a2:2b:4d:35:3c:59:56:
         24:d4:81:3c:8f:8a:ff:d0:24:e1:da:a1:eb:1f:30:7c:86:70:
         c3:c3:7d:58:32:6e:6b:73:37:4d:d2:3e:13:79:a4:59:f8:5c:
         33:7f:2a:62:65:e2:fe:f9:01:b8:57:07:47:e7:51:4e:57:19:
         db:21:3f:62:ca:6d:e3:ca:7f:1e:9b:84:b3:c3:f5:15:7b:72:
         34:37:4c:d1:0a:d4:fb:e1:75:82:f6:9d:11:4d:fd:4d:94:e6:
         fa:98:84:1b:ad:f0:21:f4:79:a5:e6:4f:67:3c:32:e5:e0:06:
         39:db:de:20:f0:30:46:c3:d0:10:81:d2:77:09:32:87:9a:ab:
         7c:0d:d6:8b:63:fb:e6:db:bd:a9:7d:f4:ab:ee:01:ea:78:85:
         02:e9:2b:52:51:c3:49:5e:11:12:b4:df:49:22:3e:04:7a:97:
         bf:92:0b:4b:64:6e:8f:c1:41:8b:dd:87:81:12:96:a6:cb:62:
         31:fc:e1:80:6c:0f:f6:9b:d7:50:96:cd:e8:b2:02:9f:b7:9f:
         fe:7f:f8:9d:82:16:84:e9:c7:98:51:e2:df:4e:60:b2:43:f0:
         26:b9:70:3e:b4:b9:86:22:dd:ea:4a:f9:a9:37:7d:f5:16:a6:
         71:d8:15:78:52:c8:2f:c6:1a:1f:b4:a1:31:8a:f6:10:30:0f:
         6b:65:b8:26:e7:05:38:8b:12:ab:99:07:51:61:35:5f:2c:f1:
         eb:1c:f0:89:77:81:c4:96:a0:69:01:2c:9f:33:82:38:bf:b7:
         dc:08:0c:d2:16:d7:9d:f1:ed:ab:a6:26:9a:82:ad:3f:3e:4c:
         ca:79:db:13:9f:f3:28:80:76:e6:39:5d:cf:fc:df:51:b1:b1:
         90:f0:8d:e2:b7:0f:ed:73
-----BEGIN CERTIFICATE-----
MIIGqzCCBJOgAwIBAgICCzYwDQYJKoZIhvcNAQEEBQAwgawxCzAJBgNVBAYTAlVT
MQswCQYDVQQIEwJPSDERMA8GA1UEBxMIQ29sdW1idXMxEjAQBgNVBAoTCVZpa2lu
Z1ZQTjEdMBsGA1UECxMUTXlPcmdhbml6YXRpb25hbFVuaXQxFTATBgNVBAMTDFZp
a2luZ1ZQTiBDQTEQMA4GA1UEKRMHRWFzeVJTQTEhMB8GCSqGSIb3DQEJARYSbWVA
bXlob3N0Lm15ZG9tYWluMB4XDTE0MDkxNjIyMzIwNVoXDTI0MDkxMzIyMzIwNVow
HTEbMBkGA1UEAxMSQ2xpZW50NDlDZXJ0M2Q0NGUzMIICIjANBgkqhkiG9w0BAQEF
AAOCAg8AMIICCgKCAgEAz+lQLNuwGCPU4vgOOLSrLzjk4LiH12CWEUZKsw4LNCAi
GhBQlgunn43HzKRdDTezfDae6qY+IBBRcWddD+JoUUmpcnFALFqc0/bfb4UCqWQ8
ZwELkZkPngqsMDcIVK4Crtso64KnOBZIrAiyb7xAvUTBo9Gs9h5K9KohgfUKXpWw
xQ/C1Ddw22MrXB+DvLyi4Uzv0qm1WblPvuJ/HGLBj7sdW/I8J64ygqil0P88r5v0
4VstxzAZvWElOazecSGDZXyWsjhlGdGcezLGoRedt2VfktwH5bN57bjWe5DjxXC8
PE1Qo+iijxO+a7/VtfaX3FCYI+Mx4frHGiCCLsaLLyuoM8pjDO7S9WiLNieH+WNA
sdADyQk9S0gLzn5+VFfTH+5annT0+HDsvK6ha7G99ensaWLbnuL/qOiDx3DNIJAq
NqUsUEshMovhaD9PaerCYLrcEZGVkoKUE2YavTic9PXzbz37Mby3M+vu0uExY5YZ
E5Ujfir3ZegJC6dMOuRo1R256KPY2aSI3KwdwMmqEc4sCGUs/GelMBWGkTYcsLMw
ZMfkFyz25P+KWxtskwZ4fY3ah78FvBPMccprKe5J0/0ul6wQoyS59pNbta6CHAE9
bI6WzI74GrKYknabgKvxwlhLSOfSAryrzt28OUrTp2uEL7O2ZYenP81XttcxB4EC
AwEAAaOCAWMwggFfMAkGA1UdEwQCMAAwLQYJYIZIAYb4QgENBCAWHkVhc3ktUlNB
IEdlbmVyYXRlZCBDZXJ0aWZpY2F0ZTAdBgNVHQ4EFgQUWJ6vNuSTQYGu1i8oS2n5
bfffLG8wgeEGA1UdIwSB2TCB1oAUEs1gBNKggJ5w7caZuHssxlL9GaGhgbKkga8w
gawxCzAJBgNVBAYTAlVTMQswCQYDVQQIEwJPSDERMA8GA1UEBxMIQ29sdW1idXMx
EjAQBgNVBAoTCVZpa2luZ1ZQTjEdMBsGA1UECxMUTXlPcmdhbml6YXRpb25hbFVu
aXQxFTATBgNVBAMTDFZpa2luZ1ZQTiBDQTEQMA4GA1UEKRMHRWFzeVJTQTEhMB8G
CSqGSIb3DQEJARYSbWVAbXlob3N0Lm15ZG9tYWluggkAzzWF7oC/Kj4wEwYDVR0l
BAwwCgYIKwYBBQUHAwIwCwYDVR0PBAQDAgeAMA0GCSqGSIb3DQEBBAUAA4ICAQAH
0wAoojeTunrJYyjDuGJkwQCQC8TEdfXifAwMWc6xVpp7wGwDacvRE9Bw8sqO9VNm
9BDQmaFxFtNeofjXBQiOUSdBFAzU+5gOu2ASiBHiW5UpxnCVq5p1evEj9K+n++Mh
ZnKWmQkTkjbBIQ4fKvC2WwCiGF0iPXSekQdiW+q50FrVV17LtCPxbbdp5fsTiQWu
4NmyihuKC2wfgFl84YkMQshSIMNasiFevCUxXqIrTTU8WVYk1IE8j4r/0CTh2qHr
HzB8hnDDw31YMm5rczdN0j4TeaRZ+FwzfypiZeL++QG4VwdH51FOVxnbIT9iym3j
yn8em4Szw/UVe3I0N0zRCtT74XWC9p0RTf1NlOb6mIQbrfAh9Hml5k9nPDLl4AY5
294g8DBGw9AQgdJ3CTKHmqt8DdaLY/vm272pffSr7gHqeIUC6StSUcNJXhEStN9J
Ij4Eepe/kgtLZG6PwUGL3YeBEpamy2Ix/OGAbA/2m9dQls3osgKft5/+f/idghaE
6ceYUeLfTmCyQ/AmuXA+tLmGIt3qSvmpN331FqZx2BV4UsgvxhoftKExivYQMA9r
Zbgm5wU4ixKrmQdRYTVfLPHrHPCJd4HElqBpASyfM4I4v7fcCAzSFted8e2rpiaa
gq0/PkzKedsTn/MogHbmOV3P/N9RsbGQ8I3itw/tcw==
-----END CERTIFICATE-----
