Certificate:
    Data:
        Version: 3 (0x2)
        Serial Number: 841 (0x349)
    Signature Algorithm: md5WithRSAEncryption
        Issuer: C=US, ST=OH, L=Columbus, O=VikingVPN, OU=MyOrganizationalUnit, CN=VikingVPN CA/name=EasyRSA/emailAddress=me@myhost.mydomain
        Validity
            Not Before: Jan 26 18:00:06 2014 GMT
            Not After : Jan 24 18:00:06 2024 GMT
        Subject: CN=Client334Certce5efc
        Subject Public Key Info:
            Public Key Algorithm: rsaEncryption
                Public-Key: (4096 bit)
                Modulus:
                    00:ba:11:f8:51:41:47:06:d2:86:d7:c8:46:75:53:
                    b8:9e:51:66:d8:67:b9:9a:d4:bd:b3:1a:a5:dd:84:
                    0a:15:9b:e6:59:09:23:2e:fc:ab:66:01:20:3c:cf:
                    cc:e2:d2:b7:e3:82:46:b7:75:63:34:3f:75:9c:4e:
                    a8:c4:cb:aa:bb:d4:e1:00:26:6f:93:9b:c8:e0:a6:
                    7b:ce:ca:46:cf:06:58:0a:73:c8:04:c6:1c:fb:19:
                    32:37:27:c3:88:db:0b:02:f1:7a:6c:fe:f8:92:81:
                    99:ac:29:29:8c:5f:59:ac:db:97:89:f8:f9:44:e9:
                    b8:73:6c:c4:f9:51:2f:8d:11:1d:de:c2:d7:c9:bf:
                    44:8d:29:7d:67:d2:22:66:8a:ce:2f:4a:20:0d:35:
                    78:75:fa:84:54:03:ab:b2:f5:5e:8b:fa:b0:7b:23:
                    ed:a8:77:df:2e:ee:78:b6:58:19:82:f1:b5:f3:ab:
                    f9:7d:22:9a:27:fa:34:bb:56:83:e2:57:2a:48:f9:
                    1f:b3:5f:e2:c7:7c:ec:de:e7:86:98:a0:ae:08:35:
                    71:4b:38:4e:70:73:3d:0e:50:35:56:41:75:42:ed:
                    8f:c7:86:0b:46:d9:e0:4a:d7:f4:03:ed:75:05:56:
                    37:11:17:70:46:fe:fa:dd:bb:b8:41:7c:b2:d3:1a:
                    7e:78:ec:b3:0e:fc:27:d4:1e:09:7f:c3:c7:b2:1c:
                    fd:c3:c8:c7:08:3d:cc:f7:51:e1:44:3f:1f:6e:c7:
                    ef:82:5a:73:fb:3c:e8:79:71:26:e2:a7:84:e8:b1:
                    2f:d2:a8:d9:b0:9c:dc:79:ad:b7:ff:a1:ca:c2:d9:
                    5b:95:07:7c:96:02:7e:71:18:d0:9e:71:05:bd:6f:
                    3d:e0:3e:ec:d8:b5:26:6b:ce:d4:d8:c5:2d:a3:7c:
                    97:5d:9d:31:33:cb:25:dd:60:85:28:d2:ec:4e:41:
                    b8:01:54:6d:ff:23:ff:49:d4:c9:c5:09:9e:ef:dc:
                    fb:1b:3b:3e:52:56:81:ca:c1:7c:ef:c5:c3:8a:51:
                    2b:4f:bf:e5:e5:28:a4:84:41:09:ab:5b:ee:38:6f:
                    f8:69:1d:c0:13:64:5d:c2:f7:dd:87:ad:92:b8:9f:
                    33:fc:fe:66:51:21:99:27:37:04:20:b7:24:8e:23:
                    e6:d3:a2:b8:15:10:2e:1d:54:2d:1c:87:d7:56:85:
                    2a:d6:66:80:76:1e:7b:20:6d:d0:57:c7:23:d8:4a:
                    0a:ac:b9:be:f4:5f:b5:64:ba:6d:19:ba:48:ac:15:
                    e5:7b:65:31:0a:3a:29:0d:35:af:0c:2d:b2:da:b5:
                    23:f5:1e:f2:b0:35:52:53:22:d9:4a:00:ab:01:28:
                    0d:f0:e7
                Exponent: 65537 (0x10001)
        X509v3 extensions:
            X509v3 Basic Constraints: 
                CA:FALSE
            Netscape Comment: 
                Easy-RSA Generated Certificate
            X509v3 Subject Key Identifier: 
                60:61:C0:78:A2:E2:2A:44:75:84:35:D2:4E:40:BF:1B:4E:48:66:4E
            X509v3 Authority Key Identifier: 
                keyid:12:CD:60:04:D2:A0:80:9E:70:ED:C6:99:B8:7B:2C:C6:52:FD:19:A1
                DirName:/C=US/ST=OH/L=Columbus/O=VikingVPN/OU=MyOrganizationalUnit/CN=VikingVPN CA/name=EasyRSA/emailAddress=me@myhost.mydomain
                serial:CF:35:85:EE:80:BF:2A:3E

            X509v3 Extended Key Usage: 
                TLS Web Client Authentication
            X509v3 Key Usage: 
                Digital Signature
    Signature Algorithm: md5WithRSAEncryption
         61:78:6c:ea:09:93:e3:ca:bd:a2:f4:28:42:69:07:8c:1f:4c:
         5c:da:64:84:41:74:1e:2c:09:14:50:34:14:49:da:7c:69:c2:
         d4:73:1b:6e:81:77:96:ec:c9:96:98:ab:76:fb:57:a0:d9:7b:
         96:17:8b:28:9f:8a:b7:eb:e6:ed:52:f6:d5:20:e4:8e:19:73:
         e0:43:d6:db:63:d8:9a:d4:49:6c:d5:91:4c:81:85:e8:d2:cb:
         8c:86:37:eb:5a:fc:e7:19:32:b0:22:eb:66:b7:03:51:bb:23:
         27:7d:f5:11:1b:e6:8e:3e:fd:03:6f:0b:de:a0:69:6e:7a:f5:
         2c:db:e5:76:cb:19:59:ec:ca:a8:5c:dc:f3:d9:5c:69:1e:3f:
         ef:18:21:45:9e:6d:5a:b3:fa:8a:05:b0:7a:dd:0b:94:37:2f:
         92:74:9a:df:41:68:31:a4:59:0d:a7:1e:a2:5a:20:c9:1b:a9:
         34:dd:65:ed:10:76:4d:69:1e:0e:2a:f0:00:0e:9f:fc:53:37:
         63:dd:9f:94:95:c1:1e:f5:db:47:2c:8c:6a:2a:fc:60:91:ac:
         82:70:cf:0c:66:34:48:87:51:b2:90:4f:2a:c1:39:6d:d5:0a:
         d3:49:d8:b7:63:92:a9:fc:41:35:90:4d:e1:3f:ca:af:91:15:
         11:75:22:d7:8a:1c:f1:b5:25:32:c3:d0:68:1d:42:d5:28:28:
         7d:d4:bd:68:3f:85:64:10:e4:59:fb:07:ea:68:f4:d4:11:d7:
         d1:30:e2:c1:c6:6d:ec:ca:92:72:4f:ef:c1:03:e9:30:90:97:
         80:7f:d3:6b:82:48:20:48:a6:0b:af:be:a6:ee:72:95:78:37:
         83:d4:b6:fb:6e:01:e5:91:91:4f:0f:52:b6:57:ab:38:10:13:
         74:ef:6b:ea:f2:ef:09:2f:d3:2f:f8:db:2d:47:c5:80:c4:73:
         e9:fa:b6:ca:29:cb:67:dc:b6:d3:3d:5e:11:8a:08:b0:f5:27:
         df:66:a5:56:ef:4b:4f:11:82:4e:db:29:74:d9:f1:97:75:b1:
         01:89:ba:f1:70:d0:c7:2b:d9:f0:47:65:0d:36:1a:dd:19:30:
         07:7e:2a:f6:e8:63:ff:64:2c:c1:6d:1f:b8:68:dd:b1:00:05:
         06:e4:49:82:83:0f:c5:a9:15:09:35:90:d5:4e:fa:5f:59:e1:
         45:f3:f7:9f:b2:e2:6a:2e:83:e9:8c:bb:98:e4:02:69:9f:18:
         ca:25:ab:8b:7a:9e:1e:8f:8e:0d:cd:af:48:cd:c1:61:7c:32:
         b2:c1:4f:69:f9:e9:d6:ef:08:01:43:24:93:8d:6c:2f:5c:d9:
         06:fe:19:dd:f1:61:3f:7f
-----BEGIN CERTIFICATE-----
MIIGrDCCBJSgAwIBAgICA0kwDQYJKoZIhvcNAQEEBQAwgawxCzAJBgNVBAYTAlVT
MQswCQYDVQQIEwJPSDERMA8GA1UEBxMIQ29sdW1idXMxEjAQBgNVBAoTCVZpa2lu
Z1ZQTjEdMBsGA1UECxMUTXlPcmdhbml6YXRpb25hbFVuaXQxFTATBgNVBAMTDFZp
a2luZ1ZQTiBDQTEQMA4GA1UEKRMHRWFzeVJTQTEhMB8GCSqGSIb3DQEJARYSbWVA
bXlob3N0Lm15ZG9tYWluMB4XDTE0MDEyNjE4MDAwNloXDTI0MDEyNDE4MDAwNlow
HjEcMBoGA1UEAxMTQ2xpZW50MzM0Q2VydGNlNWVmYzCCAiIwDQYJKoZIhvcNAQEB
BQADggIPADCCAgoCggIBALoR+FFBRwbShtfIRnVTuJ5RZthnuZrUvbMapd2EChWb
5lkJIy78q2YBIDzPzOLSt+OCRrd1YzQ/dZxOqMTLqrvU4QAmb5ObyOCme87KRs8G
WApzyATGHPsZMjcnw4jbCwLxemz++JKBmawpKYxfWazbl4n4+UTpuHNsxPlRL40R
Hd7C18m/RI0pfWfSImaKzi9KIA01eHX6hFQDq7L1Xov6sHsj7ah33y7ueLZYGYLx
tfOr+X0imif6NLtWg+JXKkj5H7Nf4sd87N7nhpigrgg1cUs4TnBzPQ5QNVZBdULt
j8eGC0bZ4ErX9APtdQVWNxEXcEb++t27uEF8stMafnjssw78J9QeCX/Dx7Ic/cPI
xwg9zPdR4UQ/H27H74Jac/s86HlxJuKnhOixL9Ko2bCc3Hmtt/+hysLZW5UHfJYC
fnEY0J5xBb1vPeA+7Ni1JmvO1NjFLaN8l12dMTPLJd1ghSjS7E5BuAFUbf8j/0nU
ycUJnu/c+xs7PlJWgcrBfO/Fw4pRK0+/5eUopIRBCatb7jhv+GkdwBNkXcL33Yet
krifM/z+ZlEhmSc3BCC3JI4j5tOiuBUQLh1ULRyH11aFKtZmgHYeeyBt0FfHI9hK
Cqy5vvRftWS6bRm6SKwV5XtlMQo6KQ01rwwtstq1I/Ue8rA1UlMi2UoAqwEoDfDn
AgMBAAGjggFjMIIBXzAJBgNVHRMEAjAAMC0GCWCGSAGG+EIBDQQgFh5FYXN5LVJT
QSBHZW5lcmF0ZWQgQ2VydGlmaWNhdGUwHQYDVR0OBBYEFGBhwHii4ipEdYQ10k5A
vxtOSGZOMIHhBgNVHSMEgdkwgdaAFBLNYATSoICecO3Gmbh7LMZS/RmhoYGypIGv
MIGsMQswCQYDVQQGEwJVUzELMAkGA1UECBMCT0gxETAPBgNVBAcTCENvbHVtYnVz
MRIwEAYDVQQKEwlWaWtpbmdWUE4xHTAbBgNVBAsTFE15T3JnYW5pemF0aW9uYWxV
bml0MRUwEwYDVQQDEwxWaWtpbmdWUE4gQ0ExEDAOBgNVBCkTB0Vhc3lSU0ExITAf
BgkqhkiG9w0BCQEWEm1lQG15aG9zdC5teWRvbWFpboIJAM81he6Avyo+MBMGA1Ud
JQQMMAoGCCsGAQUFBwMCMAsGA1UdDwQEAwIHgDANBgkqhkiG9w0BAQQFAAOCAgEA
YXhs6gmT48q9ovQoQmkHjB9MXNpkhEF0HiwJFFA0FEnafGnC1HMbboF3luzJlpir
dvtXoNl7lheLKJ+Kt+vm7VL21SDkjhlz4EPW22PYmtRJbNWRTIGF6NLLjIY361r8
5xkysCLrZrcDUbsjJ331ERvmjj79A28L3qBpbnr1LNvldssZWezKqFzc89lcaR4/
7xghRZ5tWrP6igWwet0LlDcvknSa30FoMaRZDaceologyRupNN1l7RB2TWkeDirw
AA6f/FM3Y92flJXBHvXbRyyMair8YJGsgnDPDGY0SIdRspBPKsE5bdUK00nYt2OS
qfxBNZBN4T/Kr5EVEXUi14oc8bUlMsPQaB1C1SgofdS9aD+FZBDkWfsH6mj01BHX
0TDiwcZt7MqSck/vwQPpMJCXgH/Ta4JIIEimC6++pu5ylXg3g9S2+24B5ZGRTw9S
tlerOBATdO9r6vLvCS/TL/jbLUfFgMRz6fq2yinLZ9y20z1eEYoIsPUn32alVu9L
TxGCTtspdNnxl3WxAYm68XDQxyvZ8EdlDTYa3RkwB34q9uhj/2QswW0fuGjdsQAF
BuRJgoMPxakVCTWQ1U76X1nhRfP3n7Liai6D6Yy7mOQCaZ8YyiWri3qeHo+ODc2v
SM3BYXwyssFPafnp1u8IAUMkk41sL1zZBv4Z3fFhP38=
-----END CERTIFICATE-----
