Certificate:
    Data:
        Version: 3 (0x2)
        Serial Number: 11580 (0x2d3c)
    Signature Algorithm: sha256WithRSAEncryption
        Issuer: C=US, ST=OH, L=Columbus, O=VikingVPN, OU=MyOrganizationalUnit, CN=VikingVPN CA/name=EasyRSA/emailAddress=me@myhost.mydomain
        Validity
            Not Before: Aug 18 20:47:30 2017 GMT
            Not After : Aug 16 20:47:30 2027 GMT
        Subject: CN=Client3053Cert9e8c3e
        Subject Public Key Info:
            Public Key Algorithm: rsaEncryption
                Public-Key: (4096 bit)
                Modulus:
                    00:db:8c:e6:91:a9:eb:36:8c:34:ef:f5:c5:aa:f6:
                    af:f8:25:b3:b6:fd:dc:52:7d:c2:d7:2d:66:89:a6:
                    5c:34:fa:f9:fb:8a:94:d8:97:63:db:66:84:21:84:
                    6a:54:75:49:97:ff:91:57:98:d0:11:2e:11:64:b7:
                    82:c5:b3:e3:04:43:60:4f:4f:10:b0:75:84:7c:25:
                    82:c3:3d:37:e0:07:93:5d:e0:79:31:9b:ba:3c:53:
                    90:6c:cb:fe:4d:09:9d:0c:ce:b7:fc:19:2c:b1:4c:
                    a3:19:58:74:cc:4c:6b:f7:39:77:4a:30:cc:2e:15:
                    15:c5:0a:29:7b:e7:e1:f8:7e:c8:9b:f1:f2:9d:78:
                    61:23:89:87:e9:7a:bd:cf:64:96:36:8c:23:9c:c2:
                    1c:47:84:d7:a6:e2:71:94:4b:62:7f:fb:9c:a6:a6:
                    60:51:8b:ec:f6:2f:5d:18:fc:1e:e2:54:45:00:bb:
                    4a:ed:5f:d4:72:d4:ce:fd:e6:24:21:79:46:c4:b2:
                    99:29:c2:5e:a0:c8:70:eb:3e:55:b8:31:51:e9:4d:
                    93:17:7a:37:07:96:4f:d1:1f:f5:72:30:ec:10:88:
                    0b:d9:0c:76:8a:6f:dc:67:58:e1:44:30:f4:7e:c4:
                    92:1c:7d:82:01:51:7f:6a:c3:d7:b6:b9:6f:a4:c3:
                    49:77:74:a0:11:f7:d8:20:2e:08:db:9b:4d:37:53:
                    a0:21:2d:55:6b:7e:19:30:0f:1a:f0:b2:9a:16:a2:
                    7f:6d:29:b4:15:f4:f4:76:8c:aa:c9:aa:76:28:a5:
                    16:74:2a:fd:cc:ef:da:e2:01:da:f4:76:56:8d:b3:
                    89:50:8f:1d:04:2a:07:a0:f6:96:d8:ce:a8:6e:49:
                    0d:c9:cd:01:25:88:12:04:44:c4:b3:9c:d4:da:44:
                    74:1b:c0:2e:14:23:84:dc:f6:d1:2d:46:f9:23:cc:
                    2f:8d:74:17:b4:20:82:4d:d6:3f:86:b4:3d:43:36:
                    1f:b6:69:ce:a4:ad:cd:65:9a:01:c2:98:13:19:64:
                    77:ab:64:7c:db:19:4d:98:b3:70:ef:4d:85:eb:1f:
                    7f:a2:76:a4:7d:f1:60:15:d5:9c:75:dd:37:1e:fd:
                    57:1a:81:72:a1:55:08:1e:c4:8d:17:18:7c:d2:96:
                    7d:38:15:71:f5:f3:7e:6c:6c:f2:d4:01:e2:ae:73:
                    e8:bb:c0:f1:7f:b1:6b:18:53:8f:fa:ee:43:29:93:
                    4c:10:c0:ce:b7:44:ce:02:fb:0f:14:20:c4:e7:df:
                    dc:3e:1a:81:e1:b6:60:da:4f:e8:81:1b:ff:88:30:
                    e9:ac:ca:8c:82:e1:89:60:e5:59:57:f4:12:af:6c:
                    a8:ec:23
                Exponent: 65537 (0x10001)
        X509v3 extensions:
            X509v3 Basic Constraints: 
                CA:FALSE
            Netscape Comment: 
                Easy-RSA Generated Certificate
            X509v3 Subject Key Identifier: 
                F6:F7:30:A9:FA:0E:9C:F6:E8:7E:66:AD:60:9C:06:58:D5:86:CD:34
            X509v3 Authority Key Identifier: 
                keyid:12:CD:60:04:D2:A0:80:9E:70:ED:C6:99:B8:7B:2C:C6:52:FD:19:A1
                DirName:/C=US/ST=OH/L=Columbus/O=VikingVPN/OU=MyOrganizationalUnit/CN=VikingVPN CA/name=EasyRSA/emailAddress=me@myhost.mydomain
                serial:CF:35:85:EE:80:BF:2A:3E

            X509v3 Extended Key Usage: 
                TLS Web Client Authentication
            X509v3 Key Usage: 
                Digital Signature
    Signature Algorithm: sha256WithRSAEncryption
         74:23:63:fa:41:67:54:6b:66:b7:77:16:0a:2d:34:c0:8d:98:
         96:76:69:f9:f0:51:2b:46:ab:77:78:0e:2e:b4:ae:17:0f:02:
         a7:5a:25:83:29:ea:f8:ca:89:b6:5b:5b:cf:b7:d2:6d:b1:76:
         fc:f4:59:c9:e2:9f:f2:9f:a6:9d:a0:38:c1:73:a3:a6:c3:ea:
         c3:ba:06:0a:14:7e:65:35:4b:e1:5a:d1:73:8d:8e:4b:0f:a2:
         6c:c5:7c:b8:cb:cb:80:28:c1:d5:08:a4:50:a1:6b:86:ef:ac:
         a1:4b:8f:aa:57:88:65:c0:24:da:0c:e7:bf:11:2b:d7:5e:da:
         26:a2:d9:19:32:0a:6b:0b:b4:ef:c1:01:7e:92:cf:04:6b:f6:
         40:ea:ed:a5:5f:02:c5:63:87:ee:d3:e8:08:b3:66:db:4d:a1:
         7b:99:ef:43:30:46:a9:53:9c:f6:7a:7c:2b:8a:86:ae:22:ef:
         61:0f:17:bf:1e:fc:28:c7:78:b8:3f:07:c9:eb:e0:0c:2f:00:
         74:27:ae:57:f0:83:5a:d3:01:ed:65:df:2d:47:a1:5a:14:02:
         e0:e4:2d:a3:9a:c1:00:33:a2:62:25:c1:7d:75:6d:db:56:14:
         ce:86:74:23:bb:ff:80:26:7e:1f:e4:6c:65:67:68:5b:16:2f:
         86:d9:61:63:58:3f:0d:9d:fb:5a:56:e5:52:59:9c:a9:a5:b6:
         b4:ae:c4:ee:04:68:dd:a7:d4:ed:8b:80:a3:39:f4:c4:03:b0:
         4c:8b:59:a0:00:96:7c:42:68:94:bd:bd:97:94:28:bd:48:96:
         73:0b:a3:2c:9b:98:e5:21:53:30:ab:af:5e:d7:7f:f6:7b:4a:
         42:a5:80:a4:d7:a8:6e:29:19:3e:8e:7f:d2:79:32:e7:1a:ac:
         79:2c:9b:d8:ee:0b:a9:d3:38:c0:a6:10:59:56:31:67:06:c2:
         bf:18:68:fd:4e:fa:b0:18:27:d8:19:aa:60:0a:52:b5:6b:c1:
         5d:d9:f3:f6:2b:f1:16:b5:c1:f3:79:15:a2:79:02:c6:43:3d:
         6a:25:b8:c4:4c:71:a7:bb:ba:cf:54:1c:84:2f:3b:94:14:af:
         b6:51:22:68:ff:7d:f8:db:06:15:a7:62:f9:0e:de:1c:c5:52:
         6b:b9:33:08:4d:f2:75:13:e8:57:90:4a:e4:fc:67:36:af:21:
         2a:c2:29:21:8b:b6:72:12:0c:73:ae:13:88:60:32:d6:89:92:
         57:d5:e1:c7:d4:af:3a:38:2a:b1:5b:bf:66:fa:15:60:34:ae:
         7a:9a:41:de:4e:6e:0a:09:8d:22:07:57:b2:2b:be:60:a7:14:
         6c:35:52:74:1a:f3:60:a6
-----BEGIN CERTIFICATE-----
MIIGrTCCBJWgAwIBAgICLTwwDQYJKoZIhvcNAQELBQAwgawxCzAJBgNVBAYTAlVT
MQswCQYDVQQIEwJPSDERMA8GA1UEBxMIQ29sdW1idXMxEjAQBgNVBAoTCVZpa2lu
Z1ZQTjEdMBsGA1UECxMUTXlPcmdhbml6YXRpb25hbFVuaXQxFTATBgNVBAMTDFZp
a2luZ1ZQTiBDQTEQMA4GA1UEKRMHRWFzeVJTQTEhMB8GCSqGSIb3DQEJARYSbWVA
bXlob3N0Lm15ZG9tYWluMB4XDTE3MDgxODIwNDczMFoXDTI3MDgxNjIwNDczMFow
HzEdMBsGA1UEAxMUQ2xpZW50MzA1M0NlcnQ5ZThjM2UwggIiMA0GCSqGSIb3DQEB
AQUAA4ICDwAwggIKAoICAQDbjOaRqes2jDTv9cWq9q/4JbO2/dxSfcLXLWaJplw0
+vn7ipTYl2PbZoQhhGpUdUmX/5FXmNARLhFkt4LFs+MEQ2BPTxCwdYR8JYLDPTfg
B5Nd4Hkxm7o8U5Bsy/5NCZ0Mzrf8GSyxTKMZWHTMTGv3OXdKMMwuFRXFCil75+H4
fsib8fKdeGEjiYfper3PZJY2jCOcwhxHhNem4nGUS2J/+5ympmBRi+z2L10Y/B7i
VEUAu0rtX9Ry1M795iQheUbEspkpwl6gyHDrPlW4MVHpTZMXejcHlk/RH/VyMOwQ
iAvZDHaKb9xnWOFEMPR+xJIcfYIBUX9qw9e2uW+kw0l3dKAR99ggLgjbm003U6Ah
LVVrfhkwDxrwspoWon9tKbQV9PR2jKrJqnYopRZ0Kv3M79riAdr0dlaNs4lQjx0E
Kgeg9pbYzqhuSQ3JzQEliBIERMSznNTaRHQbwC4UI4Tc9tEtRvkjzC+NdBe0IIJN
1j+GtD1DNh+2ac6krc1lmgHCmBMZZHerZHzbGU2Ys3DvTYXrH3+idqR98WAV1Zx1
3Tce/VcagXKhVQgexI0XGHzSln04FXH1835sbPLUAeKuc+i7wPF/sWsYU4/67kMp
k0wQwM63RM4C+w8UIMTn39w+GoHhtmDaT+iBG/+IMOmsyoyC4Ylg5VlX9BKvbKjs
IwIDAQABo4IBYzCCAV8wCQYDVR0TBAIwADAtBglghkgBhvhCAQ0EIBYeRWFzeS1S
U0EgR2VuZXJhdGVkIENlcnRpZmljYXRlMB0GA1UdDgQWBBT29zCp+g6c9uh+Zq1g
nAZY1YbNNDCB4QYDVR0jBIHZMIHWgBQSzWAE0qCAnnDtxpm4eyzGUv0ZoaGBsqSB
rzCBrDELMAkGA1UEBhMCVVMxCzAJBgNVBAgTAk9IMREwDwYDVQQHEwhDb2x1bWJ1
czESMBAGA1UEChMJVmlraW5nVlBOMR0wGwYDVQQLExRNeU9yZ2FuaXphdGlvbmFs
VW5pdDEVMBMGA1UEAxMMVmlraW5nVlBOIENBMRAwDgYDVQQpEwdFYXN5UlNBMSEw
HwYJKoZIhvcNAQkBFhJtZUBteWhvc3QubXlkb21haW6CCQDPNYXugL8qPjATBgNV
HSUEDDAKBggrBgEFBQcDAjALBgNVHQ8EBAMCB4AwDQYJKoZIhvcNAQELBQADggIB
AHQjY/pBZ1RrZrd3FgotNMCNmJZ2afnwUStGq3d4Di60rhcPAqdaJYMp6vjKibZb
W8+30m2xdvz0Wcnin/Kfpp2gOMFzo6bD6sO6BgoUfmU1S+Fa0XONjksPomzFfLjL
y4AowdUIpFCha4bvrKFLj6pXiGXAJNoM578RK9de2iai2RkyCmsLtO/BAX6SzwRr
9kDq7aVfAsVjh+7T6AizZttNoXuZ70MwRqlTnPZ6fCuKhq4i72EPF78e/CjHeLg/
B8nr4AwvAHQnrlfwg1rTAe1l3y1HoVoUAuDkLaOawQAzomIlwX11bdtWFM6GdCO7
/4Amfh/kbGVnaFsWL4bZYWNYPw2d+1pW5VJZnKmltrSuxO4EaN2n1O2LgKM59MQD
sEyLWaAAlnxCaJS9vZeUKL1IlnMLoyybmOUhUzCrr17Xf/Z7SkKlgKTXqG4pGT6O
f9J5MucarHksm9juC6nTOMCmEFlWMWcGwr8YaP1O+rAYJ9gZqmAKUrVrwV3Z8/Yr
8Ra1wfN5FaJ5AsZDPWoluMRMcae7us9UHIQvO5QUr7ZRImj/ffjbBhWnYvkO3hzF
Umu5MwhN8nUT6FeQSuT8ZzavISrCKSGLtnISDHOuE4hgMtaJklfV4cfUrzo4KrFb
v2b6FWA0rnqaQd5ObgoJjSIHV7IrvmCnFGw1UnQa82Cm
-----END CERTIFICATE-----
