Certificate:
    Data:
        Version: 3 (0x2)
        Serial Number: 11403 (0x2c8b)
    Signature Algorithm: sha256WithRSAEncryption
        Issuer: C=US, ST=OH, L=Columbus, O=VikingVPN, OU=MyOrganizationalUnit, CN=VikingVPN CA/name=EasyRSA/emailAddress=me@myhost.mydomain
        Validity
            Not Before: Jul 23 22:22:48 2017 GMT
            Not After : Jul 21 22:22:48 2027 GMT
        Subject: CN=Client1713Cert4c4869
        Subject Public Key Info:
            Public Key Algorithm: rsaEncryption
                Public-Key: (4096 bit)
                Modulus:
                    00:ba:60:2b:22:1c:02:db:e3:bc:cd:f2:62:01:37:
                    0a:d1:ca:7f:0f:0e:aa:cd:c8:e2:96:79:61:da:a9:
                    50:db:9d:2b:c8:70:4c:c1:e7:4d:61:bb:13:b7:1c:
                    ea:94:f2:1b:82:09:6e:6b:f8:47:2b:4c:66:4f:48:
                    be:b9:f4:27:67:f2:74:6c:3e:74:3d:75:8f:b2:08:
                    30:68:13:99:c8:f5:8a:07:60:f8:2a:97:a7:f0:96:
                    38:90:25:f0:45:a6:9a:30:d3:e0:4b:9b:c7:35:4e:
                    21:9f:20:9d:99:7d:91:e2:7a:6e:c9:40:e4:1d:42:
                    d7:61:28:cf:c0:42:5c:9d:90:4a:00:12:21:4d:e2:
                    7a:08:f7:41:37:3f:c4:42:f3:49:f2:08:df:de:f1:
                    99:3f:6c:de:35:42:38:df:13:27:61:e3:5e:70:15:
                    bb:6f:d4:f9:cc:44:c1:cf:25:83:78:2b:af:61:95:
                    18:c0:3e:b1:e2:b0:fc:63:32:42:df:16:fc:4b:ca:
                    8f:ac:33:b9:29:af:36:94:5e:54:e3:23:b8:89:f2:
                    cd:a6:36:4d:a1:f1:4d:82:f2:aa:63:d0:a1:92:7a:
                    57:56:9e:43:0b:b7:b4:bd:a2:18:58:41:5b:7a:70:
                    18:08:4b:97:9f:23:36:07:a9:d0:a7:3c:06:6a:e1:
                    d1:ad:04:53:2d:4b:02:81:c5:8d:8b:4f:a9:cc:28:
                    43:e8:d2:fe:c0:8a:e6:09:00:c5:71:cf:ec:bb:4f:
                    c4:8a:24:12:b3:e8:dc:1e:eb:3b:e0:05:26:a9:6f:
                    cc:c0:cd:f1:f6:b1:93:66:11:e7:b4:01:53:2f:93:
                    97:c0:bd:f7:40:5b:7b:2e:39:9b:1b:a5:cf:38:9e:
                    57:91:1c:88:0e:f9:93:f0:5f:c5:04:4a:44:07:e1:
                    42:cb:2c:a6:f5:75:d0:89:47:d1:41:9f:fb:d3:5c:
                    f9:ed:bd:81:21:4d:f2:dc:14:67:e7:4a:3a:4a:31:
                    c8:66:27:55:76:28:ed:a2:6e:7c:d5:ae:07:29:e6:
                    c6:ef:59:f0:d4:49:2d:e9:54:16:e8:75:71:9c:4e:
                    8f:bc:0a:b7:92:c3:58:7d:2d:24:e8:52:50:b9:a3:
                    05:5f:36:a6:11:9c:18:09:68:f5:4b:29:8f:db:e7:
                    64:f6:b8:d1:12:56:08:77:0a:56:3d:ce:80:23:d2:
                    0e:91:01:98:8d:5d:d7:c2:29:70:cc:b3:b6:9d:88:
                    d1:33:96:90:77:5b:a8:24:a0:ae:fe:6f:e7:5c:66:
                    05:3d:c2:eb:ce:f0:2e:3e:f0:cd:66:bf:8b:fb:bc:
                    0d:25:2b:cd:7b:62:75:af:42:01:17:9c:19:24:0b:
                    ae:94:03
                Exponent: 65537 (0x10001)
        X509v3 extensions:
            X509v3 Basic Constraints: 
                CA:FALSE
            Netscape Comment: 
                Easy-RSA Generated Certificate
            X509v3 Subject Key Identifier: 
                B1:08:9A:E2:9E:B8:E6:D0:AB:65:8C:1B:49:65:62:60:E5:73:6A:78
            X509v3 Authority Key Identifier: 
                keyid:12:CD:60:04:D2:A0:80:9E:70:ED:C6:99:B8:7B:2C:C6:52:FD:19:A1
                DirName:/C=US/ST=OH/L=Columbus/O=VikingVPN/OU=MyOrganizationalUnit/CN=VikingVPN CA/name=EasyRSA/emailAddress=me@myhost.mydomain
                serial:CF:35:85:EE:80:BF:2A:3E

            X509v3 Extended Key Usage: 
                TLS Web Client Authentication
            X509v3 Key Usage: 
                Digital Signature
    Signature Algorithm: sha256WithRSAEncryption
         e8:3c:83:73:fe:b3:f3:32:b5:50:7a:21:d7:55:90:65:49:af:
         0b:00:4d:8c:3d:78:f8:9b:25:1b:15:aa:db:6b:7f:b9:9d:1c:
         75:ec:c5:30:11:6f:1c:ae:62:60:66:5d:c7:ff:9f:8f:c6:9e:
         1e:df:ba:c6:cf:23:d9:c7:5f:89:d7:4c:d6:d1:d0:e9:b5:e2:
         73:57:91:45:5e:39:65:e8:29:fc:66:42:bc:e6:9c:a5:71:a2:
         25:ae:bc:0a:37:45:0b:4e:75:bd:77:7e:a6:46:dd:53:f9:1d:
         76:f6:17:a1:2f:57:ae:22:ae:8b:e7:88:1e:d8:9b:8e:99:10:
         bd:d6:5b:9e:28:87:68:98:fb:ae:f9:92:6e:7d:f0:0f:77:1f:
         85:ae:11:8d:ea:c1:8d:83:4f:f1:0f:ce:08:e2:62:9c:88:63:
         6d:df:a1:b4:5e:dd:ab:68:ee:d3:59:89:5c:1a:78:73:ed:b1:
         67:bc:0b:76:f8:a1:93:e8:65:90:38:7c:10:6c:b6:82:4b:dd:
         61:65:90:4c:00:8f:e2:5d:42:c7:38:c1:71:08:1e:e8:d9:cf:
         bd:9a:66:07:f7:4b:b2:20:fd:ca:be:33:87:86:6f:26:a0:cc:
         85:23:f5:34:21:f8:ef:c1:73:5b:b3:e8:f6:2b:b5:7c:4a:8f:
         e4:14:b9:75:e3:81:9b:09:27:97:72:a3:e9:ea:ee:08:26:52:
         22:be:53:63:95:df:38:8f:25:50:03:5e:80:2e:8a:6f:c2:19:
         9e:02:cf:fc:55:2e:5c:36:17:c0:d8:8a:d0:7b:af:0a:26:f4:
         df:4e:cc:1f:de:3d:ee:8f:58:1b:e0:0c:6d:d3:98:4d:3b:49:
         5b:af:ee:19:d2:21:88:ea:bc:75:84:d8:19:7f:b0:9a:cd:05:
         e7:33:81:78:de:83:23:6d:c7:0c:91:4a:69:21:2f:27:47:16:
         28:0c:b3:ef:53:4f:ac:e3:de:e1:f1:62:46:b0:3d:2a:62:6f:
         c1:db:da:d9:d9:16:c2:64:29:59:dc:dc:c9:6b:3a:ad:0f:24:
         db:e2:3f:62:3b:da:9a:aa:16:1b:30:a9:79:b0:e6:7a:51:4a:
         62:8f:a1:92:d7:b2:46:40:59:1f:85:d2:ba:16:11:29:33:1c:
         ff:0d:df:d7:79:f8:c2:4c:2b:8f:3f:57:56:dc:53:b0:07:9a:
         18:77:3c:86:27:ce:26:f0:a8:62:5e:15:ae:39:65:88:3f:e9:
         07:bb:c9:c8:80:90:75:e6:b3:a4:78:c2:c4:2a:cc:56:e8:38:
         22:75:b4:3c:a9:b7:2d:62:9a:99:f2:21:d7:56:78:bb:20:b1:
         24:b1:2f:b9:73:80:e6:51
-----BEGIN CERTIFICATE-----
MIIGrTCCBJWgAwIBAgICLIswDQYJKoZIhvcNAQELBQAwgawxCzAJBgNVBAYTAlVT
MQswCQYDVQQIEwJPSDERMA8GA1UEBxMIQ29sdW1idXMxEjAQBgNVBAoTCVZpa2lu
Z1ZQTjEdMBsGA1UECxMUTXlPcmdhbml6YXRpb25hbFVuaXQxFTATBgNVBAMTDFZp
a2luZ1ZQTiBDQTEQMA4GA1UEKRMHRWFzeVJTQTEhMB8GCSqGSIb3DQEJARYSbWVA
bXlob3N0Lm15ZG9tYWluMB4XDTE3MDcyMzIyMjI0OFoXDTI3MDcyMTIyMjI0OFow
HzEdMBsGA1UEAxMUQ2xpZW50MTcxM0NlcnQ0YzQ4NjkwggIiMA0GCSqGSIb3DQEB
AQUAA4ICDwAwggIKAoICAQC6YCsiHALb47zN8mIBNwrRyn8PDqrNyOKWeWHaqVDb
nSvIcEzB501huxO3HOqU8huCCW5r+EcrTGZPSL659Cdn8nRsPnQ9dY+yCDBoE5nI
9YoHYPgql6fwljiQJfBFppow0+BLm8c1TiGfIJ2ZfZHiem7JQOQdQtdhKM/AQlyd
kEoAEiFN4noI90E3P8RC80nyCN/e8Zk/bN41QjjfEydh415wFbtv1PnMRMHPJYN4
K69hlRjAPrHisPxjMkLfFvxLyo+sM7kprzaUXlTjI7iJ8s2mNk2h8U2C8qpj0KGS
eldWnkMLt7S9ohhYQVt6cBgIS5efIzYHqdCnPAZq4dGtBFMtSwKBxY2LT6nMKEPo
0v7AiuYJAMVxz+y7T8SKJBKz6Nwe6zvgBSapb8zAzfH2sZNmEee0AVMvk5fAvfdA
W3suOZsbpc84nleRHIgO+ZPwX8UESkQH4ULLLKb1ddCJR9FBn/vTXPntvYEhTfLc
FGfnSjpKMchmJ1V2KO2ibnzVrgcp5sbvWfDUSS3pVBbodXGcTo+8CreSw1h9LSTo
UlC5owVfNqYRnBgJaPVLKY/b52T2uNESVgh3ClY9zoAj0g6RAZiNXdfCKXDMs7ad
iNEzlpB3W6gkoK7+b+dcZgU9wuvO8C4+8M1mv4v7vA0lK817YnWvQgEXnBkkC66U
AwIDAQABo4IBYzCCAV8wCQYDVR0TBAIwADAtBglghkgBhvhCAQ0EIBYeRWFzeS1S
U0EgR2VuZXJhdGVkIENlcnRpZmljYXRlMB0GA1UdDgQWBBSxCJrinrjm0KtljBtJ
ZWJg5XNqeDCB4QYDVR0jBIHZMIHWgBQSzWAE0qCAnnDtxpm4eyzGUv0ZoaGBsqSB
rzCBrDELMAkGA1UEBhMCVVMxCzAJBgNVBAgTAk9IMREwDwYDVQQHEwhDb2x1bWJ1
czESMBAGA1UEChMJVmlraW5nVlBOMR0wGwYDVQQLExRNeU9yZ2FuaXphdGlvbmFs
VW5pdDEVMBMGA1UEAxMMVmlraW5nVlBOIENBMRAwDgYDVQQpEwdFYXN5UlNBMSEw
HwYJKoZIhvcNAQkBFhJtZUBteWhvc3QubXlkb21haW6CCQDPNYXugL8qPjATBgNV
HSUEDDAKBggrBgEFBQcDAjALBgNVHQ8EBAMCB4AwDQYJKoZIhvcNAQELBQADggIB
AOg8g3P+s/MytVB6IddVkGVJrwsATYw9ePibJRsVqttrf7mdHHXsxTARbxyuYmBm
Xcf/n4/Gnh7fusbPI9nHX4nXTNbR0Om14nNXkUVeOWXoKfxmQrzmnKVxoiWuvAo3
RQtOdb13fqZG3VP5HXb2F6EvV64irovniB7Ym46ZEL3WW54oh2iY+675km598A93
H4WuEY3qwY2DT/EPzgjiYpyIY23fobRe3ato7tNZiVwaeHPtsWe8C3b4oZPoZZA4
fBBstoJL3WFlkEwAj+JdQsc4wXEIHujZz72aZgf3S7Ig/cq+M4eGbyagzIUj9TQh
+O/Bc1uz6PYrtXxKj+QUuXXjgZsJJ5dyo+nq7ggmUiK+U2OV3ziPJVADXoAuim/C
GZ4Cz/xVLlw2F8DYitB7rwom9N9OzB/ePe6PWBvgDG3TmE07SVuv7hnSIYjqvHWE
2Bl/sJrNBeczgXjegyNtxwyRSmkhLydHFigMs+9TT6zj3uHxYkawPSpib8Hb2tnZ
FsJkKVnc3MlrOq0PJNviP2I72pqqFhswqXmw5npRSmKPoZLXskZAWR+F0roWESkz
HP8N39d5+MJMK48/V1bcU7AHmhh3PIYnzibwqGJeFa45ZYg/6Qe7yciAkHXms6R4
wsQqzFboOCJ1tDypty1impnyIddWeLsgsSSxL7lzgOZR
-----END CERTIFICATE-----
