Certificate:
    Data:
        Version: 3 (0x2)
        Serial Number: 1954 (0x7a2)
    Signature Algorithm: md5WithRSAEncryption
        Issuer: C=US, ST=OH, L=Columbus, O=VikingVPN, OU=MyOrganizationalUnit, CN=VikingVPN CA/name=EasyRSA/emailAddress=me@myhost.mydomain
        Validity
            Not Before: May 25 06:35:41 2014 GMT
            Not After : May 22 06:35:41 2024 GMT
        Subject: CN=Client303Certe9f5d5
        Subject Public Key Info:
            Public Key Algorithm: rsaEncryption
                Public-Key: (4096 bit)
                Modulus:
                    00:dd:e8:bc:9a:81:da:5e:54:56:09:d6:ae:af:79:
                    b6:d9:55:a7:95:05:7b:2d:c8:af:40:3e:57:d9:f5:
                    0d:71:22:2a:29:c8:7d:86:a8:30:2e:1f:84:14:52:
                    29:b2:d6:c0:8d:bd:3a:a7:ef:64:46:ed:d3:30:6c:
                    8b:23:78:b9:62:66:2c:01:17:6d:bd:2f:61:a6:76:
                    e7:88:44:f1:f9:c1:37:ce:ba:80:6a:c0:d7:c4:e3:
                    43:8e:5d:26:c0:ca:7e:ac:f9:1e:cb:e4:39:d8:fc:
                    22:39:8c:69:6d:9d:d5:5b:9f:1e:97:68:f9:d6:ae:
                    cf:7b:fe:47:97:06:3e:6b:4a:5f:20:13:42:21:f3:
                    a7:5f:42:a9:b1:24:83:6b:ef:56:89:9c:6d:46:a1:
                    1c:75:85:93:19:1e:85:04:71:75:c4:2c:6f:f9:b5:
                    f2:b9:f8:a0:47:04:6f:f9:2c:90:bb:63:b2:a1:aa:
                    f5:69:ee:23:c1:91:a3:bb:4f:8d:4e:df:04:c1:0f:
                    65:77:0a:13:30:89:c4:d9:d3:c6:b3:c4:d1:d4:14:
                    c1:e1:f5:69:1a:80:fd:a3:8c:a3:1b:5b:b9:52:88:
                    76:e2:fa:86:7f:37:63:64:3c:65:0b:0c:5b:34:92:
                    51:70:8e:39:9f:85:5e:51:30:74:90:b1:10:08:38:
                    ec:09:40:21:ac:75:f2:c2:89:da:59:97:87:29:ea:
                    bb:9c:6e:10:43:1c:92:f5:77:9f:3c:39:bf:84:09:
                    12:db:f5:70:65:96:da:46:46:4a:71:5a:47:df:1f:
                    da:eb:64:00:40:c5:0f:fc:97:b7:b0:18:81:f8:0d:
                    18:06:00:a3:6d:eb:d6:29:a1:b8:7a:ed:98:0f:af:
                    2e:07:80:b7:d3:e1:be:f1:c0:54:e9:66:98:85:cc:
                    95:ab:44:4f:46:86:85:fb:12:96:85:54:80:97:0c:
                    ef:1f:4e:7c:40:ad:2a:29:a7:f6:4b:90:a8:23:13:
                    33:91:c7:35:f4:80:d5:37:8c:d4:9d:19:02:b7:39:
                    a5:3e:d7:91:db:c3:0e:93:af:f1:91:f4:f9:5e:b2:
                    c4:81:31:20:13:2c:73:4c:8c:6e:0d:72:2c:56:ce:
                    95:58:57:4e:ea:f5:6a:d7:0b:a2:09:30:82:70:36:
                    1d:97:78:f3:53:95:c7:e4:3a:d6:fa:a6:9a:36:bf:
                    57:4c:5c:75:f9:22:a5:af:89:37:71:31:c0:80:a1:
                    1d:5a:af:5d:82:f1:4e:dc:83:d7:80:5f:86:2f:af:
                    ad:63:af:6b:8d:17:1d:df:8a:d6:c0:e3:5e:d6:a2:
                    84:54:8d:b8:48:ac:ca:2c:fe:4b:00:61:20:5b:17:
                    92:57:21
                Exponent: 65537 (0x10001)
        X509v3 extensions:
            X509v3 Basic Constraints: 
                CA:FALSE
            Netscape Comment: 
                Easy-RSA Generated Certificate
            X509v3 Subject Key Identifier: 
                27:29:48:91:1A:71:F0:09:9E:E9:6C:69:6F:4C:F2:A3:7A:63:94:93
            X509v3 Authority Key Identifier: 
                keyid:12:CD:60:04:D2:A0:80:9E:70:ED:C6:99:B8:7B:2C:C6:52:FD:19:A1
                DirName:/C=US/ST=OH/L=Columbus/O=VikingVPN/OU=MyOrganizationalUnit/CN=VikingVPN CA/name=EasyRSA/emailAddress=me@myhost.mydomain
                serial:CF:35:85:EE:80:BF:2A:3E

            X509v3 Extended Key Usage: 
                TLS Web Client Authentication
            X509v3 Key Usage: 
                Digital Signature
    Signature Algorithm: md5WithRSAEncryption
         54:72:2e:28:94:06:6c:9f:26:1e:b6:4c:2c:20:dd:49:43:01:
         6a:fb:21:95:4b:8a:92:3a:8a:58:a1:97:28:ac:41:4f:96:91:
         e1:3a:5d:7a:56:80:62:b0:d4:3a:43:0e:3d:09:0e:94:57:47:
         1d:12:b0:28:de:c3:20:69:2a:c3:87:de:1d:14:01:eb:03:52:
         66:59:38:ff:ba:51:6a:50:29:ec:f3:fb:28:45:18:8a:5b:df:
         f8:44:9a:60:ab:3b:77:3c:45:d6:d6:42:38:10:ba:a4:b2:81:
         d3:47:eb:3a:89:58:7b:ea:d5:b5:24:95:a7:85:24:09:b7:86:
         72:4d:af:16:cf:33:11:28:95:49:11:d0:b8:30:fa:0f:aa:83:
         39:48:0d:dd:1b:d6:5c:7e:09:e1:0f:de:fe:5c:a0:68:dd:d3:
         55:e2:69:b7:80:12:28:db:03:59:ed:d4:30:38:3a:a1:bd:27:
         bd:74:30:e8:f2:4b:40:ab:b5:64:66:47:a5:35:a0:d4:a3:d6:
         43:ea:e1:96:53:c6:69:7f:0b:0f:e1:f5:48:a6:31:20:46:2a:
         08:81:3a:08:72:eb:43:de:3b:b2:6c:de:47:62:56:13:a9:cb:
         61:1f:7f:8c:50:b3:a7:d5:44:16:1f:6c:17:68:5c:4e:f2:f1:
         e3:88:70:f7:20:57:55:ab:89:8c:9e:fd:97:93:54:b5:5e:3d:
         47:73:29:db:99:38:f4:bc:4e:20:e1:95:68:1e:5c:c5:c5:16:
         2f:90:58:04:d0:18:2a:01:f5:fc:bd:41:9c:24:81:35:b4:92:
         09:44:f8:9a:10:78:bb:82:96:92:2b:c8:7c:3f:db:3b:fc:0f:
         92:f9:ac:58:6c:4f:8a:a7:b3:0c:19:ab:a8:7f:38:97:b8:7f:
         53:b5:83:5e:c3:57:ca:11:09:0c:a7:14:07:44:70:30:6f:48:
         0b:f8:ab:f8:38:e3:5c:b0:8e:e1:c7:14:69:07:38:57:ad:db:
         73:bb:49:66:d8:fc:7e:11:8e:1c:f6:19:77:44:60:0d:36:29:
         c3:be:b1:c3:12:6a:b8:1c:5b:16:a9:c0:6b:1d:cf:02:67:81:
         ae:04:5a:06:49:42:0e:15:75:80:e4:77:9c:e8:1d:da:c3:33:
         a3:ca:6c:51:eb:c8:9f:9d:36:23:a3:ae:0c:af:01:81:59:0d:
         37:96:ca:09:70:8c:cc:bf:6d:13:53:6d:f0:f1:c1:c4:ab:86:
         8c:9a:0f:fc:90:80:6a:0c:0f:89:9f:39:a5:5a:be:d2:1b:84:
         89:d8:28:a3:38:e2:42:2f:26:56:cc:cd:e4:79:1d:40:e3:fd:
         47:98:be:6f:99:f5:70:93
-----BEGIN CERTIFICATE-----
MIIGrDCCBJSgAwIBAgICB6IwDQYJKoZIhvcNAQEEBQAwgawxCzAJBgNVBAYTAlVT
MQswCQYDVQQIEwJPSDERMA8GA1UEBxMIQ29sdW1idXMxEjAQBgNVBAoTCVZpa2lu
Z1ZQTjEdMBsGA1UECxMUTXlPcmdhbml6YXRpb25hbFVuaXQxFTATBgNVBAMTDFZp
a2luZ1ZQTiBDQTEQMA4GA1UEKRMHRWFzeVJTQTEhMB8GCSqGSIb3DQEJARYSbWVA
bXlob3N0Lm15ZG9tYWluMB4XDTE0MDUyNTA2MzU0MVoXDTI0MDUyMjA2MzU0MVow
HjEcMBoGA1UEAxMTQ2xpZW50MzAzQ2VydGU5ZjVkNTCCAiIwDQYJKoZIhvcNAQEB
BQADggIPADCCAgoCggIBAN3ovJqB2l5UVgnWrq95ttlVp5UFey3Ir0A+V9n1DXEi
KinIfYaoMC4fhBRSKbLWwI29OqfvZEbt0zBsiyN4uWJmLAEXbb0vYaZ254hE8fnB
N866gGrA18TjQ45dJsDKfqz5HsvkOdj8IjmMaW2d1VufHpdo+dauz3v+R5cGPmtK
XyATQiHzp19CqbEkg2vvVomcbUahHHWFkxkehQRxdcQsb/m18rn4oEcEb/kskLtj
sqGq9WnuI8GRo7tPjU7fBMEPZXcKEzCJxNnTxrPE0dQUweH1aRqA/aOMoxtbuVKI
duL6hn83Y2Q8ZQsMWzSSUXCOOZ+FXlEwdJCxEAg47AlAIax18sKJ2lmXhynqu5xu
EEMckvV3nzw5v4QJEtv1cGWW2kZGSnFaR98f2utkAEDFD/yXt7AYgfgNGAYAo23r
1imhuHrtmA+vLgeAt9PhvvHAVOlmmIXMlatET0aGhfsSloVUgJcM7x9OfECtKimn
9kuQqCMTM5HHNfSA1TeM1J0ZArc5pT7XkdvDDpOv8ZH0+V6yxIExIBMsc0yMbg1y
LFbOlVhXTur1atcLogkwgnA2HZd481OVx+Q61vqmmja/V0xcdfkipa+JN3ExwICh
HVqvXYLxTtyD14Bfhi+vrWOva40XHd+K1sDjXtaihFSNuEisyiz+SwBhIFsXklch
AgMBAAGjggFjMIIBXzAJBgNVHRMEAjAAMC0GCWCGSAGG+EIBDQQgFh5FYXN5LVJT
QSBHZW5lcmF0ZWQgQ2VydGlmaWNhdGUwHQYDVR0OBBYEFCcpSJEacfAJnulsaW9M
8qN6Y5STMIHhBgNVHSMEgdkwgdaAFBLNYATSoICecO3Gmbh7LMZS/RmhoYGypIGv
MIGsMQswCQYDVQQGEwJVUzELMAkGA1UECBMCT0gxETAPBgNVBAcTCENvbHVtYnVz
MRIwEAYDVQQKEwlWaWtpbmdWUE4xHTAbBgNVBAsTFE15T3JnYW5pemF0aW9uYWxV
bml0MRUwEwYDVQQDEwxWaWtpbmdWUE4gQ0ExEDAOBgNVBCkTB0Vhc3lSU0ExITAf
BgkqhkiG9w0BCQEWEm1lQG15aG9zdC5teWRvbWFpboIJAM81he6Avyo+MBMGA1Ud
JQQMMAoGCCsGAQUFBwMCMAsGA1UdDwQEAwIHgDANBgkqhkiG9w0BAQQFAAOCAgEA
VHIuKJQGbJ8mHrZMLCDdSUMBavshlUuKkjqKWKGXKKxBT5aR4TpdelaAYrDUOkMO
PQkOlFdHHRKwKN7DIGkqw4feHRQB6wNSZlk4/7pRalAp7PP7KEUYilvf+ESaYKs7
dzxF1tZCOBC6pLKB00frOolYe+rVtSSVp4UkCbeGck2vFs8zESiVSRHQuDD6D6qD
OUgN3RvWXH4J4Q/e/lygaN3TVeJpt4ASKNsDWe3UMDg6ob0nvXQw6PJLQKu1ZGZH
pTWg1KPWQ+rhllPGaX8LD+H1SKYxIEYqCIE6CHLrQ947smzeR2JWE6nLYR9/jFCz
p9VEFh9sF2hcTvLx44hw9yBXVauJjJ79l5NUtV49R3Mp25k49LxOIOGVaB5cxcUW
L5BYBNAYKgH1/L1BnCSBNbSSCUT4mhB4u4KWkivIfD/bO/wPkvmsWGxPiqezDBmr
qH84l7h/U7WDXsNXyhEJDKcUB0RwMG9IC/ir+DjjXLCO4ccUaQc4V63bc7tJZtj8
fhGOHPYZd0RgDTYpw76xwxJquBxbFqnAax3PAmeBrgRaBklCDhV1gOR3nOgd2sMz
o8psUevIn502I6OuDK8BgVkNN5bKCXCMzL9tE1Nt8PHBxKuGjJoP/JCAagwPiZ85
pVq+0huEidgoozjiQi8mVszN5HkdQOP9R5i+b5n1cJM=
-----END CERTIFICATE-----
