Certificate:
    Data:
        Version: 3 (0x2)
        Serial Number: 1883 (0x75b)
    Signature Algorithm: md5WithRSAEncryption
        Issuer: C=US, ST=OH, L=Columbus, O=VikingVPN, OU=MyOrganizationalUnit, CN=VikingVPN CA/name=EasyRSA/emailAddress=me@myhost.mydomain
        Validity
            Not Before: May 16 02:29:23 2014 GMT
            Not After : May 13 02:29:23 2024 GMT
        Subject: CN=Client648Cert452948
        Subject Public Key Info:
            Public Key Algorithm: rsaEncryption
                Public-Key: (4096 bit)
                Modulus:
                    00:ce:b8:43:8b:3a:68:2a:ee:19:95:45:87:2d:57:
                    5a:1a:08:2f:c6:1c:a4:d0:33:e5:68:12:10:07:1b:
                    28:46:fa:7d:91:54:df:15:3a:f4:69:eb:4f:19:b6:
                    55:ea:7c:4d:bc:81:30:67:55:eb:cd:5b:a6:5f:e3:
                    c5:1c:34:49:a3:01:b6:c4:47:d3:68:b6:0a:8b:2c:
                    5f:1d:8f:1f:a4:c3:5e:20:05:39:24:b5:9e:0f:e5:
                    53:ae:f5:7e:73:f1:8f:d5:19:f8:06:ef:6f:f1:60:
                    c9:ff:46:81:2e:9a:b7:56:14:17:f7:fc:51:5a:34:
                    7d:6e:d4:c6:80:22:90:7e:8f:68:a0:74:bd:cd:57:
                    6a:49:c2:d3:c3:8e:89:31:93:7c:1f:25:12:b4:9c:
                    f7:ba:10:a5:e7:64:77:27:fb:b1:71:cb:df:4d:01:
                    15:aa:53:df:30:9f:62:03:92:e4:90:f9:f2:8e:b2:
                    10:e8:ce:a1:c9:1d:fc:7b:21:29:bc:58:45:60:eb:
                    79:60:4b:c9:54:a8:a8:b8:ae:1c:6b:00:13:cd:4e:
                    5c:55:77:60:e8:8a:5b:dd:60:cc:c7:a6:73:46:86:
                    8e:0c:fe:1c:4a:2d:35:ce:ab:b3:aa:46:6e:0b:6f:
                    71:d5:4f:c4:09:9c:51:2b:4c:93:78:c8:94:64:3c:
                    40:d6:30:02:78:c3:5f:16:a9:b7:c9:78:fc:05:bb:
                    9f:48:06:23:c4:d2:2f:2a:86:34:d1:a1:04:0a:73:
                    c1:74:cc:50:00:c5:3a:d1:2e:95:c7:6f:06:fd:d5:
                    a7:24:8a:40:3f:88:ce:d5:ba:a8:c0:db:b6:cd:f9:
                    6d:82:39:f8:56:20:67:5e:3d:01:20:a6:cd:c2:44:
                    2b:f2:07:dc:71:15:b6:e0:51:3e:6e:aa:b6:8d:24:
                    5f:d8:84:94:22:3c:51:0e:65:83:41:21:5f:b6:bd:
                    b1:1d:cf:b6:31:c3:ef:78:13:e6:94:b5:42:71:96:
                    7c:e4:16:ca:bb:2e:55:e6:e5:57:a1:f7:c0:4b:df:
                    2e:96:06:c8:bb:a2:21:e4:ef:73:83:2a:93:e7:4e:
                    b6:fc:dc:49:cb:93:0f:7f:00:26:77:bf:1f:2c:18:
                    69:a9:c5:b7:2f:3f:1d:bc:50:a5:df:e2:d9:62:7e:
                    1c:89:2c:e7:f4:5d:29:46:7a:7d:1b:8d:3e:62:71:
                    59:03:d7:0f:88:df:81:9b:7b:30:70:9c:ea:a4:b7:
                    de:dd:41:0e:31:60:1c:b3:1c:e9:90:2b:5c:b5:d5:
                    0c:2d:ce:d9:1f:ba:39:d6:db:f0:ac:eb:83:fe:a2:
                    83:dd:a9:1b:1a:a7:2d:5f:5c:a9:16:dd:06:43:22:
                    a2:38:2b
                Exponent: 65537 (0x10001)
        X509v3 extensions:
            X509v3 Basic Constraints: 
                CA:FALSE
            Netscape Comment: 
                Easy-RSA Generated Certificate
            X509v3 Subject Key Identifier: 
                CD:CD:81:F4:61:72:19:04:B7:39:7A:49:2B:52:6C:D8:9C:19:95:EC
            X509v3 Authority Key Identifier: 
                keyid:12:CD:60:04:D2:A0:80:9E:70:ED:C6:99:B8:7B:2C:C6:52:FD:19:A1
                DirName:/C=US/ST=OH/L=Columbus/O=VikingVPN/OU=MyOrganizationalUnit/CN=VikingVPN CA/name=EasyRSA/emailAddress=me@myhost.mydomain
                serial:CF:35:85:EE:80:BF:2A:3E

            X509v3 Extended Key Usage: 
                TLS Web Client Authentication
            X509v3 Key Usage: 
                Digital Signature
    Signature Algorithm: md5WithRSAEncryption
         e9:3a:38:11:ca:25:fb:0b:99:d5:7d:56:18:28:06:07:b0:17:
         ff:f8:ba:12:3a:ad:9c:b5:08:6a:7b:9f:45:6f:52:52:a2:13:
         a1:69:1b:af:d4:f3:fd:ed:c7:ab:40:85:2b:54:bd:67:13:20:
         2e:d6:7e:df:bb:07:5a:27:b2:13:7f:2f:a5:f6:6a:a9:63:24:
         30:f0:c1:80:35:57:e4:f0:e5:69:8d:d1:56:71:43:89:65:87:
         88:1d:50:b7:ee:7a:00:97:84:c6:72:94:7d:25:65:19:c6:7e:
         55:16:dc:4c:59:3c:1e:55:57:85:84:9d:ad:b5:07:a9:8d:fd:
         81:83:7b:69:5f:f0:ba:4b:a0:b1:8b:39:95:15:92:c7:cf:13:
         82:28:a6:42:c7:89:a6:06:70:a0:67:df:5b:c9:b0:e4:ac:24:
         fd:34:0f:f5:67:ab:be:dd:45:ca:43:5f:d7:fc:03:62:fd:76:
         2a:59:dc:84:e2:d7:5a:03:ed:c5:2f:4b:77:87:5e:fe:37:48:
         2d:53:59:7c:a7:5f:20:da:07:68:e1:da:24:83:cb:7b:ab:1e:
         ca:70:0d:a7:b3:26:13:16:65:89:bb:e5:32:15:bc:c8:ed:ee:
         a9:92:34:05:7a:c9:2c:0b:99:9c:51:8f:3c:97:a1:8c:23:f1:
         fa:7a:96:25:72:43:42:b2:a8:0d:7a:27:4a:15:b8:0d:14:6c:
         fc:eb:ec:b6:a0:ba:9e:6e:51:11:dc:b3:6d:af:61:9c:be:4d:
         19:4f:a8:ea:4c:4b:17:22:f1:b9:9b:a9:b4:77:82:c3:1a:e2:
         85:49:0e:2f:23:0a:43:87:6d:44:50:ad:7c:6e:46:8d:07:45:
         00:a7:e3:be:d7:2b:5a:4b:22:46:51:98:12:3d:0d:af:31:9a:
         d0:4d:d5:92:f1:d5:5e:20:60:06:2c:ce:b8:79:a2:eb:01:e6:
         a1:e2:fe:f1:38:52:49:e3:36:50:96:8c:27:f0:ac:22:d4:d2:
         20:24:be:ef:45:62:9c:2e:2a:bf:e8:d9:07:f9:09:e7:d3:0f:
         54:c8:0f:ba:a8:60:b1:a8:e2:ef:c7:4c:1b:c8:dc:7c:2d:4e:
         bf:c1:77:53:70:8f:97:6b:77:7d:ec:90:4a:26:ab:e7:9b:63:
         89:05:c2:aa:ad:b3:c2:cd:19:69:4c:b1:45:f2:f2:32:80:31:
         18:f5:78:09:9b:e5:fa:aa:19:c7:3c:1c:29:97:bb:d3:1e:62:
         7c:d5:e8:65:e8:37:f3:a5:1f:ad:f3:c5:84:ba:fc:b2:4c:a4:
         91:b5:6b:c9:df:16:0c:74:0d:79:84:db:94:e1:4e:b1:09:5d:
         60:44:2f:01:be:93:c8:ed
-----BEGIN CERTIFICATE-----
MIIGrDCCBJSgAwIBAgICB1swDQYJKoZIhvcNAQEEBQAwgawxCzAJBgNVBAYTAlVT
MQswCQYDVQQIEwJPSDERMA8GA1UEBxMIQ29sdW1idXMxEjAQBgNVBAoTCVZpa2lu
Z1ZQTjEdMBsGA1UECxMUTXlPcmdhbml6YXRpb25hbFVuaXQxFTATBgNVBAMTDFZp
a2luZ1ZQTiBDQTEQMA4GA1UEKRMHRWFzeVJTQTEhMB8GCSqGSIb3DQEJARYSbWVA
bXlob3N0Lm15ZG9tYWluMB4XDTE0MDUxNjAyMjkyM1oXDTI0MDUxMzAyMjkyM1ow
HjEcMBoGA1UEAxMTQ2xpZW50NjQ4Q2VydDQ1Mjk0ODCCAiIwDQYJKoZIhvcNAQEB
BQADggIPADCCAgoCggIBAM64Q4s6aCruGZVFhy1XWhoIL8YcpNAz5WgSEAcbKEb6
fZFU3xU69GnrTxm2Vep8TbyBMGdV681bpl/jxRw0SaMBtsRH02i2CossXx2PH6TD
XiAFOSS1ng/lU671fnPxj9UZ+Abvb/Fgyf9GgS6at1YUF/f8UVo0fW7UxoAikH6P
aKB0vc1XaknC08OOiTGTfB8lErSc97oQpedkdyf7sXHL300BFapT3zCfYgOS5JD5
8o6yEOjOockd/HshKbxYRWDreWBLyVSoqLiuHGsAE81OXFV3YOiKW91gzMemc0aG
jgz+HEotNc6rs6pGbgtvcdVPxAmcUStMk3jIlGQ8QNYwAnjDXxapt8l4/AW7n0gG
I8TSLyqGNNGhBApzwXTMUADFOtEulcdvBv3VpySKQD+IztW6qMDbts35bYI5+FYg
Z149ASCmzcJEK/IH3HEVtuBRPm6qto0kX9iElCI8UQ5lg0EhX7a9sR3PtjHD73gT
5pS1QnGWfOQWyrsuVeblV6H3wEvfLpYGyLuiIeTvc4Mqk+dOtvzcScuTD38AJne/
HywYaanFty8/HbxQpd/i2WJ+HIks5/RdKUZ6fRuNPmJxWQPXD4jfgZt7MHCc6qS3
3t1BDjFgHLMc6ZArXLXVDC3O2R+6Odbb8Kzrg/6ig92pGxqnLV9cqRbdBkMiojgr
AgMBAAGjggFjMIIBXzAJBgNVHRMEAjAAMC0GCWCGSAGG+EIBDQQgFh5FYXN5LVJT
QSBHZW5lcmF0ZWQgQ2VydGlmaWNhdGUwHQYDVR0OBBYEFM3NgfRhchkEtzl6SStS
bNicGZXsMIHhBgNVHSMEgdkwgdaAFBLNYATSoICecO3Gmbh7LMZS/RmhoYGypIGv
MIGsMQswCQYDVQQGEwJVUzELMAkGA1UECBMCT0gxETAPBgNVBAcTCENvbHVtYnVz
MRIwEAYDVQQKEwlWaWtpbmdWUE4xHTAbBgNVBAsTFE15T3JnYW5pemF0aW9uYWxV
bml0MRUwEwYDVQQDEwxWaWtpbmdWUE4gQ0ExEDAOBgNVBCkTB0Vhc3lSU0ExITAf
BgkqhkiG9w0BCQEWEm1lQG15aG9zdC5teWRvbWFpboIJAM81he6Avyo+MBMGA1Ud
JQQMMAoGCCsGAQUFBwMCMAsGA1UdDwQEAwIHgDANBgkqhkiG9w0BAQQFAAOCAgEA
6To4Ecol+wuZ1X1WGCgGB7AX//i6EjqtnLUIanufRW9SUqIToWkbr9Tz/e3Hq0CF
K1S9ZxMgLtZ+37sHWieyE38vpfZqqWMkMPDBgDVX5PDlaY3RVnFDiWWHiB1Qt+56
AJeExnKUfSVlGcZ+VRbcTFk8HlVXhYSdrbUHqY39gYN7aV/wukugsYs5lRWSx88T
giimQseJpgZwoGffW8mw5Kwk/TQP9Wervt1FykNf1/wDYv12KlnchOLXWgPtxS9L
d4de/jdILVNZfKdfINoHaOHaJIPLe6seynANp7MmExZlibvlMhW8yO3uqZI0BXrJ
LAuZnFGPPJehjCPx+nqWJXJDQrKoDXonShW4DRRs/OvstqC6nm5REdyzba9hnL5N
GU+o6kxLFyLxuZuptHeCwxrihUkOLyMKQ4dtRFCtfG5GjQdFAKfjvtcrWksiRlGY
Ej0NrzGa0E3VkvHVXiBgBizOuHmi6wHmoeL+8ThSSeM2UJaMJ/CsItTSICS+70Vi
nC4qv+jZB/kJ59MPVMgPuqhgsaji78dMG8jcfC1Ov8F3U3CPl2t3feyQSiar55tj
iQXCqq2zws0ZaUyxRfLyMoAxGPV4CZvl+qoZxzwcKZe70x5ifNXoZeg386UfrfPF
hLr8skykkbVryd8WDHQNeYTblOFOsQldYEQvAb6TyO0=
-----END CERTIFICATE-----
