Certificate:
    Data:
        Version: 3 (0x2)
        Serial Number: 6508 (0x196c)
    Signature Algorithm: md5WithRSAEncryption
        Issuer: C=US, ST=OH, L=Columbus, O=VikingVPN, OU=MyOrganizationalUnit, CN=VikingVPN CA/name=EasyRSA/emailAddress=me@myhost.mydomain
        Validity
            Not Before: Oct 19 12:50:15 2015 GMT
            Not After : Oct 16 12:50:15 2025 GMT
        Subject: CN=Client617Cert51af2a
        Subject Public Key Info:
            Public Key Algorithm: rsaEncryption
                Public-Key: (4096 bit)
                Modulus:
                    00:b0:4e:f6:70:16:5a:c0:d2:bc:e7:6f:2b:b4:9c:
                    39:4d:e4:89:09:bd:a7:9e:ad:55:08:37:03:41:54:
                    21:b3:05:44:87:7e:1a:e3:69:d6:b2:56:39:91:67:
                    a9:f1:23:5b:49:de:26:d9:94:8c:19:6e:5b:93:81:
                    68:ec:55:67:c2:da:b2:53:8b:4a:53:8d:3b:50:4a:
                    58:cd:17:14:81:d3:e6:07:0c:2b:ee:28:68:19:cf:
                    42:13:2f:d4:48:97:66:ba:98:9c:1e:6d:b6:c2:38:
                    8e:fc:01:de:89:7c:e0:b2:34:de:5d:d9:f2:77:e0:
                    46:bb:37:e9:2d:36:8c:ed:2f:64:c0:e9:4b:c9:51:
                    6a:6d:ac:d5:56:90:99:e2:c3:e7:43:af:48:84:7b:
                    75:3d:97:a4:16:92:b9:ea:ff:25:91:7f:9f:07:35:
                    e7:b8:49:df:61:d9:14:fb:d1:c8:9c:a4:52:dc:93:
                    95:b8:15:82:28:e7:7e:6c:ac:d0:ed:3c:2e:3c:87:
                    28:aa:fe:64:6a:fc:f0:7c:49:51:f7:5f:21:e8:91:
                    64:ca:59:2f:3d:61:2c:e8:01:93:a0:90:31:0c:40:
                    e5:bc:7e:97:21:e9:b8:26:8b:7f:5e:72:7e:c6:fc:
                    5e:38:90:b7:87:e3:42:25:ab:51:7b:04:2f:7b:72:
                    67:70:7b:a5:d9:42:98:e9:db:17:37:01:73:fd:23:
                    c8:cc:5f:d3:a1:1a:dc:05:6f:69:ba:92:82:f5:e5:
                    75:bd:33:2f:a8:f4:27:35:00:5f:3e:44:ad:0c:eb:
                    a5:ef:8b:a6:5c:73:92:3c:5c:bf:4c:4e:04:51:b2:
                    03:88:51:65:76:34:a8:f0:5e:36:f6:db:cd:df:b1:
                    de:cc:89:5f:46:65:36:fb:fe:89:ca:09:2e:1b:23:
                    69:62:a7:54:c0:5a:0f:5e:c9:e7:e2:28:bd:0f:ca:
                    80:6d:c3:6c:c4:b5:3c:d6:51:21:7c:97:3b:60:08:
                    35:d1:be:37:17:a8:0e:48:10:63:6b:19:42:08:e7:
                    a5:cf:f2:ea:a8:77:16:1b:b8:75:58:a7:af:e0:b9:
                    f9:4f:b8:32:74:68:d9:8c:79:34:b3:1f:ca:5b:13:
                    21:41:50:79:b3:0c:3c:fa:68:20:d3:b1:a9:62:21:
                    43:bb:55:23:c8:72:0d:60:ba:e3:67:ce:a5:c9:85:
                    bf:f7:53:5c:9f:dc:b5:f4:5f:72:41:d0:f0:03:44:
                    04:8e:99:97:23:b6:92:41:c0:f9:18:e1:d4:80:cc:
                    ed:3f:3b:61:80:76:25:07:17:4c:92:da:f4:84:38:
                    a3:3f:7b:a8:13:41:18:3d:e6:02:ac:b4:fc:3a:fc:
                    b2:16:fd
                Exponent: 65537 (0x10001)
        X509v3 extensions:
            X509v3 Basic Constraints: 
                CA:FALSE
            Netscape Comment: 
                Easy-RSA Generated Certificate
            X509v3 Subject Key Identifier: 
                66:51:A1:E7:D8:4D:21:C6:E4:14:0F:68:EE:F7:73:C0:63:81:F6:4A
            X509v3 Authority Key Identifier: 
                keyid:12:CD:60:04:D2:A0:80:9E:70:ED:C6:99:B8:7B:2C:C6:52:FD:19:A1
                DirName:/C=US/ST=OH/L=Columbus/O=VikingVPN/OU=MyOrganizationalUnit/CN=VikingVPN CA/name=EasyRSA/emailAddress=me@myhost.mydomain
                serial:CF:35:85:EE:80:BF:2A:3E

            X509v3 Extended Key Usage: 
                TLS Web Client Authentication
            X509v3 Key Usage: 
                Digital Signature
    Signature Algorithm: md5WithRSAEncryption
         9f:b9:9a:02:6f:41:8c:7e:fc:1a:eb:67:ad:6d:e8:03:64:d4:
         b4:c4:22:e6:0f:2d:b4:70:45:7f:b6:7d:6a:28:3d:85:93:a2:
         7d:ab:9f:32:e8:15:5d:16:19:4a:d8:7a:aa:b4:b7:fc:bd:36:
         10:97:24:45:6d:b4:f9:cd:5b:68:cb:3c:ce:6d:17:f4:8e:a9:
         af:76:bc:ea:51:a7:b8:c4:f3:e0:e4:57:05:cc:21:91:f9:8a:
         72:a6:37:c6:0b:21:84:87:af:14:a5:ea:08:a5:7f:3e:9e:db:
         0f:9e:db:03:b5:88:a3:0b:54:13:52:c8:11:bd:4f:77:a7:69:
         56:76:d5:b0:e9:f0:be:21:f4:a9:82:84:02:38:b1:47:a4:62:
         2e:0e:ff:6d:42:16:f8:59:73:fd:ad:12:a5:97:ce:39:be:e3:
         4a:7a:83:31:4d:37:8d:7b:e1:de:bd:c9:fd:0e:37:07:ec:dd:
         f1:b0:1e:ab:f0:a9:3b:7d:87:b4:b7:b0:d6:4e:62:ea:4b:4b:
         c1:bf:d0:50:ff:de:54:86:56:4b:31:18:cc:32:ad:02:9a:d0:
         da:1b:a2:30:7b:81:7f:19:c4:37:82:c5:b4:3e:b0:e0:c1:c6:
         53:d4:d1:14:cf:39:71:0e:34:26:bd:ec:56:24:8d:1d:b9:6d:
         e2:31:2d:eb:f1:32:40:89:c4:da:55:dc:86:d4:cb:f2:d0:2c:
         a1:10:37:60:77:85:85:1b:0f:0b:18:d4:cd:c5:93:62:5e:ce:
         63:d4:25:4d:cb:04:8e:4d:61:86:c0:b2:64:47:b1:01:1d:cb:
         42:c5:6e:fd:c0:e1:b0:ba:0f:15:f4:9b:fa:bf:3c:b3:af:b7:
         9b:bf:0d:da:f6:6b:c4:ae:33:8e:df:8e:33:f2:e3:1a:bf:a9:
         f9:28:6b:56:02:d0:1f:a9:72:f0:8f:76:77:e3:03:cc:eb:bb:
         10:c0:d1:1d:12:82:6e:f7:79:56:e6:f5:91:9f:c3:56:8a:cc:
         ea:52:61:0d:5c:e9:95:15:de:bd:9a:40:da:b7:d0:95:9f:bd:
         87:12:27:89:1e:6d:b2:67:bc:20:48:b4:f4:c7:8c:25:f3:9f:
         7e:56:8c:8d:89:f2:24:cb:d0:56:0a:1d:16:02:83:10:3b:7d:
         54:1c:08:2e:aa:ed:34:64:83:b3:bf:8d:9e:d8:87:19:0b:b9:
         ea:12:99:01:ab:4a:b9:d0:48:82:93:7a:0a:1b:2f:e1:a2:52:
         c2:b5:d6:63:ab:7a:5f:f7:48:12:9d:2f:97:cf:6e:4f:d1:db:
         8d:b3:fd:83:b8:2d:b5:cd:6a:1b:59:56:ce:70:18:59:af:1c:
         93:5b:6c:e0:fe:68:0b:21
-----BEGIN CERTIFICATE-----
MIIGrDCCBJSgAwIBAgICGWwwDQYJKoZIhvcNAQEEBQAwgawxCzAJBgNVBAYTAlVT
MQswCQYDVQQIEwJPSDERMA8GA1UEBxMIQ29sdW1idXMxEjAQBgNVBAoTCVZpa2lu
Z1ZQTjEdMBsGA1UECxMUTXlPcmdhbml6YXRpb25hbFVuaXQxFTATBgNVBAMTDFZp
a2luZ1ZQTiBDQTEQMA4GA1UEKRMHRWFzeVJTQTEhMB8GCSqGSIb3DQEJARYSbWVA
bXlob3N0Lm15ZG9tYWluMB4XDTE1MTAxOTEyNTAxNVoXDTI1MTAxNjEyNTAxNVow
HjEcMBoGA1UEAxMTQ2xpZW50NjE3Q2VydDUxYWYyYTCCAiIwDQYJKoZIhvcNAQEB
BQADggIPADCCAgoCggIBALBO9nAWWsDSvOdvK7ScOU3kiQm9p56tVQg3A0FUIbMF
RId+GuNp1rJWOZFnqfEjW0neJtmUjBluW5OBaOxVZ8LaslOLSlONO1BKWM0XFIHT
5gcMK+4oaBnPQhMv1EiXZrqYnB5ttsI4jvwB3ol84LI03l3Z8nfgRrs36S02jO0v
ZMDpS8lRam2s1VaQmeLD50OvSIR7dT2XpBaSuer/JZF/nwc157hJ32HZFPvRyJyk
UtyTlbgVgijnfmys0O08LjyHKKr+ZGr88HxJUfdfIeiRZMpZLz1hLOgBk6CQMQxA
5bx+lyHpuCaLf15yfsb8XjiQt4fjQiWrUXsEL3tyZ3B7pdlCmOnbFzcBc/0jyMxf
06Ea3AVvabqSgvXldb0zL6j0JzUAXz5ErQzrpe+Lplxzkjxcv0xOBFGyA4hRZXY0
qPBeNvbbzd+x3syJX0ZlNvv+icoJLhsjaWKnVMBaD17J5+IovQ/KgG3DbMS1PNZR
IXyXO2AINdG+NxeoDkgQY2sZQgjnpc/y6qh3Fhu4dVinr+C5+U+4MnRo2Yx5NLMf
ylsTIUFQebMMPPpoINOxqWIhQ7tVI8hyDWC642fOpcmFv/dTXJ/ctfRfckHQ8ANE
BI6ZlyO2kkHA+Rjh1IDM7T87YYB2JQcXTJLa9IQ4oz97qBNBGD3mAqy0/Dr8shb9
AgMBAAGjggFjMIIBXzAJBgNVHRMEAjAAMC0GCWCGSAGG+EIBDQQgFh5FYXN5LVJT
QSBHZW5lcmF0ZWQgQ2VydGlmaWNhdGUwHQYDVR0OBBYEFGZRoefYTSHG5BQPaO73
c8BjgfZKMIHhBgNVHSMEgdkwgdaAFBLNYATSoICecO3Gmbh7LMZS/RmhoYGypIGv
MIGsMQswCQYDVQQGEwJVUzELMAkGA1UECBMCT0gxETAPBgNVBAcTCENvbHVtYnVz
MRIwEAYDVQQKEwlWaWtpbmdWUE4xHTAbBgNVBAsTFE15T3JnYW5pemF0aW9uYWxV
bml0MRUwEwYDVQQDEwxWaWtpbmdWUE4gQ0ExEDAOBgNVBCkTB0Vhc3lSU0ExITAf
BgkqhkiG9w0BCQEWEm1lQG15aG9zdC5teWRvbWFpboIJAM81he6Avyo+MBMGA1Ud
JQQMMAoGCCsGAQUFBwMCMAsGA1UdDwQEAwIHgDANBgkqhkiG9w0BAQQFAAOCAgEA
n7maAm9BjH78GutnrW3oA2TUtMQi5g8ttHBFf7Z9aig9hZOifaufMugVXRYZSth6
qrS3/L02EJckRW20+c1baMs8zm0X9I6pr3a86lGnuMTz4ORXBcwhkfmKcqY3xgsh
hIevFKXqCKV/Pp7bD57bA7WIowtUE1LIEb1Pd6dpVnbVsOnwviH0qYKEAjixR6Ri
Lg7/bUIW+Flz/a0SpZfOOb7jSnqDMU03jXvh3r3J/Q43B+zd8bAeq/CpO32HtLew
1k5i6ktLwb/QUP/eVIZWSzEYzDKtAprQ2huiMHuBfxnEN4LFtD6w4MHGU9TRFM85
cQ40Jr3sViSNHblt4jEt6/EyQInE2lXchtTL8tAsoRA3YHeFhRsPCxjUzcWTYl7O
Y9QlTcsEjk1hhsCyZEexAR3LQsVu/cDhsLoPFfSb+r88s6+3m78N2vZrxK4zjt+O
M/LjGr+p+ShrVgLQH6ly8I92d+MDzOu7EMDRHRKCbvd5Vub1kZ/DVorM6lJhDVzp
lRXevZpA2rfQlZ+9hxIniR5tsme8IEi09MeMJfOfflaMjYnyJMvQVgodFgKDEDt9
VBwILqrtNGSDs7+NntiHGQu56hKZAatKudBIgpN6Chsv4aJSwrXWY6t6X/dIEp0v
l89uT9HbjbP9g7gttc1qG1lWznAYWa8ck1ts4P5oCyE=
-----END CERTIFICATE-----
