Certificate:
    Data:
        Version: 3 (0x2)
        Serial Number: 6597 (0x19c5)
    Signature Algorithm: md5WithRSAEncryption
        Issuer: C=US, ST=OH, L=Columbus, O=VikingVPN, OU=MyOrganizationalUnit, CN=VikingVPN CA/name=EasyRSA/emailAddress=me@myhost.mydomain
        Validity
            Not Before: Nov  1 05:24:42 2015 GMT
            Not After : Oct 29 05:24:42 2025 GMT
        Subject: CN=Client1776Cert2454c6
        Subject Public Key Info:
            Public Key Algorithm: rsaEncryption
                Public-Key: (4096 bit)
                Modulus:
                    00:bc:1d:bf:d1:af:9e:d4:77:ec:3f:83:a4:46:cd:
                    68:df:7a:1b:9b:a1:65:f3:25:42:8a:5f:f6:6b:33:
                    c4:30:ec:19:c8:5b:ad:43:db:0e:8b:69:d9:08:44:
                    7e:e0:b1:d2:25:2a:c0:12:3e:4d:4f:f9:f4:81:ad:
                    39:6b:11:f7:95:62:65:17:59:71:e1:38:f3:08:e4:
                    04:3e:82:0a:36:54:f4:14:c9:51:47:de:11:2a:ef:
                    59:ad:64:7b:5e:f5:7b:83:24:2a:0f:6a:07:85:a0:
                    64:67:f1:c4:dc:90:69:34:f2:27:9a:f5:64:71:8c:
                    19:49:24:e9:77:34:86:02:c8:c6:bf:a6:3a:d7:76:
                    be:77:43:06:59:fa:17:4b:0e:15:f6:e9:1b:ae:e4:
                    e7:9d:21:d3:62:29:bf:e6:49:bd:3e:70:80:d7:7c:
                    fc:24:cf:17:1c:a6:2e:4e:3a:32:33:5a:93:96:97:
                    80:fa:b3:c1:52:81:61:e0:91:6c:31:87:8c:5e:69:
                    81:e3:09:d8:d3:8f:c9:ad:1f:5a:cf:5a:f9:a5:26:
                    79:8d:d5:8d:c2:e7:df:50:b8:ea:13:a0:6d:54:72:
                    6f:64:52:5c:52:1d:4b:31:b3:8a:85:77:d2:46:64:
                    da:90:46:f6:91:a3:79:46:89:ba:2a:0f:da:02:65:
                    5a:85:1d:04:72:32:42:89:09:4a:55:6c:45:1e:90:
                    e9:0b:46:ff:57:13:85:4f:b1:5f:9b:f6:9f:a1:51:
                    47:fd:85:ee:68:bb:df:a0:7d:0c:06:a0:f0:29:df:
                    d4:88:0f:0e:03:0e:57:27:70:e2:42:18:0d:f5:3b:
                    fb:d5:9d:9d:b2:e2:0d:83:70:ac:54:e4:94:52:0f:
                    bb:fc:6a:93:d0:1d:90:50:67:96:fd:72:1e:90:54:
                    7b:4e:ae:2e:d1:4a:76:d8:1f:95:e3:41:c9:40:78:
                    f9:ef:9a:20:ac:82:e9:9c:dc:a8:f3:b5:72:11:11:
                    ea:c6:0d:82:bf:cd:a5:d5:99:a6:c4:8f:c2:dc:25:
                    1a:fd:0b:04:cf:5b:fc:3e:a1:2e:f1:c9:ff:ee:f5:
                    34:92:d4:a6:50:a6:e0:41:c4:9b:21:7a:94:af:65:
                    c3:c1:9e:8a:ee:c4:9d:d4:15:c0:cb:7d:52:86:01:
                    82:fb:4f:d0:d9:0c:17:23:97:fe:42:3a:1f:64:e0:
                    a2:50:83:fd:23:79:f7:a0:dd:7d:7c:8c:0a:fb:57:
                    3a:ed:e1:2b:2a:63:c2:55:00:00:02:2e:ab:65:29:
                    03:69:25:6f:4b:81:11:ea:fc:1c:f2:05:e4:ec:e0:
                    c7:f6:94:f2:e4:41:2c:8e:e0:fc:d7:d3:64:fa:fa:
                    1d:70:b7
                Exponent: 65537 (0x10001)
        X509v3 extensions:
            X509v3 Basic Constraints: 
                CA:FALSE
            Netscape Comment: 
                Easy-RSA Generated Certificate
            X509v3 Subject Key Identifier: 
                7F:EC:A8:42:50:06:37:C1:27:6C:88:6A:C2:77:38:8B:FE:0A:62:D5
            X509v3 Authority Key Identifier: 
                keyid:12:CD:60:04:D2:A0:80:9E:70:ED:C6:99:B8:7B:2C:C6:52:FD:19:A1
                DirName:/C=US/ST=OH/L=Columbus/O=VikingVPN/OU=MyOrganizationalUnit/CN=VikingVPN CA/name=EasyRSA/emailAddress=me@myhost.mydomain
                serial:CF:35:85:EE:80:BF:2A:3E

            X509v3 Extended Key Usage: 
                TLS Web Client Authentication
            X509v3 Key Usage: 
                Digital Signature
    Signature Algorithm: md5WithRSAEncryption
         ea:06:81:d0:e4:9f:3b:ad:d0:34:c8:94:84:de:72:54:5d:2f:
         4a:1c:da:f5:cd:4e:27:56:85:b2:6e:95:fd:52:2d:4d:7d:ab:
         b1:c6:05:6b:0f:32:4d:96:a8:7d:88:83:89:8c:71:5f:e7:c2:
         2c:41:aa:96:84:3c:3a:3e:96:45:4a:35:64:0d:fc:5c:2b:11:
         4e:9e:a0:c0:e4:6b:a8:59:35:66:ab:c8:3d:0c:4c:f6:f0:a4:
         23:96:63:72:f5:44:ae:61:4c:0a:39:da:bb:5c:4b:92:d3:1a:
         f4:bb:c5:05:37:45:8b:4f:c8:08:71:13:2e:0a:17:db:8a:05:
         0b:07:40:76:11:57:fd:56:63:0e:49:e2:b4:82:c9:60:1e:d3:
         f7:dd:e8:89:e1:95:ac:be:80:f3:85:2e:2f:5d:51:9c:e4:52:
         c6:bb:c6:9c:e8:1a:b9:3e:04:22:95:82:47:f5:40:68:7f:4e:
         cf:ed:30:ae:ff:c8:17:ba:8b:b7:06:b8:5c:e3:f2:e6:0f:c3:
         e3:ff:13:fb:4a:01:5d:1b:44:33:a8:aa:79:c5:b3:e3:0f:d6:
         73:7c:51:9d:64:a7:ed:f3:fd:d9:6b:05:57:9d:72:dc:10:d9:
         c2:9f:ad:94:fe:f3:84:f8:70:8e:37:c1:d3:17:8d:05:8c:06:
         88:1e:f7:f1:fd:ca:2c:ea:ff:df:8b:8f:10:a9:1e:b6:be:cc:
         73:ff:e9:66:74:cd:27:50:37:50:78:bb:07:9e:ac:44:b3:62:
         3b:77:fd:fe:f3:6e:1a:6e:80:05:5f:ae:0a:2b:0c:d4:4a:08:
         e4:ff:c9:2d:f2:33:b3:71:74:d7:ac:c6:6d:b9:d2:88:3a:8e:
         59:f2:67:43:c1:32:ed:43:f1:9f:83:9b:36:c5:4e:8e:d7:4b:
         18:c4:a5:55:7b:b1:d1:7f:2c:43:c0:91:0a:20:d1:d0:8d:02:
         c2:7f:b0:27:e4:c4:fc:c5:d5:0b:34:d3:99:55:fa:dd:1d:59:
         62:10:f2:89:f0:a6:b7:0d:7a:5a:79:9a:fa:2e:05:a6:ad:26:
         10:cd:92:a2:0d:da:c2:5a:cf:96:c9:49:0a:0f:04:98:02:a7:
         b9:77:a7:26:f8:40:2d:57:85:d8:77:94:59:1c:c5:8c:0a:02:
         95:b7:7f:1f:89:96:cc:0e:65:c0:33:e7:60:b5:01:b1:62:a4:
         73:5c:eb:db:21:60:ef:f4:30:e3:e4:4f:1e:e3:7a:82:81:9f:
         c7:8f:99:14:e7:cd:d6:e4:b3:d5:10:a4:b6:b5:e4:bd:a1:19:
         d6:60:a7:ad:fa:50:29:f8:d8:04:d8:ee:da:e0:db:ad:f3:ae:
         4d:04:de:0b:ca:2e:3e:45
-----BEGIN CERTIFICATE-----
MIIGrTCCBJWgAwIBAgICGcUwDQYJKoZIhvcNAQEEBQAwgawxCzAJBgNVBAYTAlVT
MQswCQYDVQQIEwJPSDERMA8GA1UEBxMIQ29sdW1idXMxEjAQBgNVBAoTCVZpa2lu
Z1ZQTjEdMBsGA1UECxMUTXlPcmdhbml6YXRpb25hbFVuaXQxFTATBgNVBAMTDFZp
a2luZ1ZQTiBDQTEQMA4GA1UEKRMHRWFzeVJTQTEhMB8GCSqGSIb3DQEJARYSbWVA
bXlob3N0Lm15ZG9tYWluMB4XDTE1MTEwMTA1MjQ0MloXDTI1MTAyOTA1MjQ0Mlow
HzEdMBsGA1UEAxMUQ2xpZW50MTc3NkNlcnQyNDU0YzYwggIiMA0GCSqGSIb3DQEB
AQUAA4ICDwAwggIKAoICAQC8Hb/Rr57Ud+w/g6RGzWjfehuboWXzJUKKX/ZrM8Qw
7BnIW61D2w6LadkIRH7gsdIlKsASPk1P+fSBrTlrEfeVYmUXWXHhOPMI5AQ+ggo2
VPQUyVFH3hEq71mtZHte9XuDJCoPageFoGRn8cTckGk08iea9WRxjBlJJOl3NIYC
yMa/pjrXdr53QwZZ+hdLDhX26Ruu5OedIdNiKb/mSb0+cIDXfPwkzxccpi5OOjIz
WpOWl4D6s8FSgWHgkWwxh4xeaYHjCdjTj8mtH1rPWvmlJnmN1Y3C599QuOoToG1U
cm9kUlxSHUsxs4qFd9JGZNqQRvaRo3lGiboqD9oCZVqFHQRyMkKJCUpVbEUekOkL
Rv9XE4VPsV+b9p+hUUf9he5ou9+gfQwGoPAp39SIDw4DDlcncOJCGA31O/vVnZ2y
4g2DcKxU5JRSD7v8apPQHZBQZ5b9ch6QVHtOri7RSnbYH5XjQclAePnvmiCsgumc
3KjztXIREerGDYK/zaXVmabEj8LcJRr9CwTPW/w+oS7xyf/u9TSS1KZQpuBBxJsh
epSvZcPBnoruxJ3UFcDLfVKGAYL7T9DZDBcjl/5COh9k4KJQg/0jefeg3X18jAr7
Vzrt4SsqY8JVAAACLqtlKQNpJW9LgRHq/BzyBeTs4Mf2lPLkQSyO4PzX02T6+h1w
twIDAQABo4IBYzCCAV8wCQYDVR0TBAIwADAtBglghkgBhvhCAQ0EIBYeRWFzeS1S
U0EgR2VuZXJhdGVkIENlcnRpZmljYXRlMB0GA1UdDgQWBBR/7KhCUAY3wSdsiGrC
dziL/gpi1TCB4QYDVR0jBIHZMIHWgBQSzWAE0qCAnnDtxpm4eyzGUv0ZoaGBsqSB
rzCBrDELMAkGA1UEBhMCVVMxCzAJBgNVBAgTAk9IMREwDwYDVQQHEwhDb2x1bWJ1
czESMBAGA1UEChMJVmlraW5nVlBOMR0wGwYDVQQLExRNeU9yZ2FuaXphdGlvbmFs
VW5pdDEVMBMGA1UEAxMMVmlraW5nVlBOIENBMRAwDgYDVQQpEwdFYXN5UlNBMSEw
HwYJKoZIhvcNAQkBFhJtZUBteWhvc3QubXlkb21haW6CCQDPNYXugL8qPjATBgNV
HSUEDDAKBggrBgEFBQcDAjALBgNVHQ8EBAMCB4AwDQYJKoZIhvcNAQEEBQADggIB
AOoGgdDknzut0DTIlITeclRdL0oc2vXNTidWhbJulf1SLU19q7HGBWsPMk2WqH2I
g4mMcV/nwixBqpaEPDo+lkVKNWQN/FwrEU6eoMDka6hZNWaryD0MTPbwpCOWY3L1
RK5hTAo52rtcS5LTGvS7xQU3RYtPyAhxEy4KF9uKBQsHQHYRV/1WYw5J4rSCyWAe
0/fd6Inhlay+gPOFLi9dUZzkUsa7xpzoGrk+BCKVgkf1QGh/Ts/tMK7/yBe6i7cG
uFzj8uYPw+P/E/tKAV0bRDOoqnnFs+MP1nN8UZ1kp+3z/dlrBVedctwQ2cKfrZT+
84T4cI43wdMXjQWMBoge9/H9yizq/9+LjxCpHra+zHP/6WZ0zSdQN1B4uweerESz
Yjt3/f7zbhpugAVfrgorDNRKCOT/yS3yM7NxdNesxm250og6jlnyZ0PBMu1D8Z+D
mzbFTo7XSxjEpVV7sdF/LEPAkQog0dCNAsJ/sCfkxPzF1Qs005lV+t0dWWIQ8onw
prcNelp5mvouBaatJhDNkqIN2sJaz5bJSQoPBJgCp7l3pyb4QC1Xhdh3lFkcxYwK
ApW3fx+JlswOZcAz52C1AbFipHNc69shYO/0MOPkTx7jeoKBn8ePmRTnzdbks9UQ
pLa15L2hGdZgp636UCn42ATY7trg263zrk0E3gvKLj5F
-----END CERTIFICATE-----
