Certificate:
    Data:
        Version: 3 (0x2)
        Serial Number: 5185 (0x1441)
    Signature Algorithm: md5WithRSAEncryption
        Issuer: C=US, ST=OH, L=Columbus, O=VikingVPN, OU=MyOrganizationalUnit, CN=VikingVPN CA/name=EasyRSA/emailAddress=me@myhost.mydomain
        Validity
            Not Before: May  8 01:51:02 2015 GMT
            Not After : May  5 01:51:02 2025 GMT
        Subject: CN=Client1486Cert136fa7
        Subject Public Key Info:
            Public Key Algorithm: rsaEncryption
                Public-Key: (4096 bit)
                Modulus:
                    00:cd:24:e4:d7:f2:9a:c2:d2:5f:2f:5b:0d:a9:61:
                    f0:9c:fb:5a:d2:64:71:d6:74:b4:f4:ac:90:fd:39:
                    fb:1c:77:82:8d:d6:e2:e2:1b:4b:12:13:8b:5e:61:
                    15:1e:a1:80:a0:a6:36:5a:a1:01:13:18:be:a3:b8:
                    9a:93:0a:66:d8:a9:9d:1f:04:12:6e:d2:55:bd:0c:
                    50:7d:f4:60:7d:fb:fd:47:b6:e9:1b:14:b4:07:12:
                    5f:7f:80:43:af:42:0c:6f:68:ad:d9:05:17:ba:0a:
                    6b:fc:f3:23:77:62:66:df:d5:b8:79:5e:23:6b:72:
                    b9:a4:4c:91:ca:11:d8:d8:29:67:cd:8e:ad:37:06:
                    aa:e0:6d:7c:f3:d3:38:17:7e:46:26:5c:f2:95:8a:
                    b7:4b:10:44:05:8f:81:1d:dc:f6:e7:e9:a8:aa:f7:
                    6a:f8:f0:04:fe:8f:81:e7:4b:17:92:cd:07:3d:d5:
                    87:65:98:27:fd:e1:6a:0b:a6:c6:9a:b2:d6:a0:52:
                    e0:7e:14:82:aa:a9:31:f8:a6:23:3f:25:72:90:60:
                    f4:8b:01:50:51:77:91:ca:cf:ba:81:56:2c:5b:c6:
                    12:b4:43:61:64:00:34:da:15:8d:5a:f2:b4:31:87:
                    ed:59:74:d8:54:db:a7:5e:a6:75:de:3c:e0:76:d8:
                    4e:ba:40:d4:27:af:0f:a5:a0:14:d5:e0:8b:bd:3c:
                    c1:9b:c5:c1:60:a3:44:7a:ed:33:63:b4:7d:6e:e3:
                    89:26:3e:72:30:67:3f:79:88:a1:92:b0:d8:0b:76:
                    b4:8b:85:cb:ee:05:a8:15:c0:94:a6:af:cf:68:e7:
                    bf:7c:77:ed:86:42:51:92:08:78:14:66:b1:01:5e:
                    61:27:fd:bc:0a:80:b1:36:4f:1d:e3:0a:84:0d:d7:
                    f4:54:3b:18:af:a3:83:24:a3:d9:d4:34:43:92:3e:
                    5b:0f:f3:5c:48:7f:a4:4d:16:79:62:18:3d:88:69:
                    65:b2:d4:aa:ff:bd:3e:a9:90:4f:76:0b:6f:61:91:
                    a0:55:0a:d2:51:97:b3:6d:43:fa:26:ee:27:fa:e7:
                    eb:ec:d3:e8:7f:80:56:87:26:08:b3:69:44:98:29:
                    a6:db:4d:24:8d:3a:7c:59:ec:95:a5:1d:36:ad:ff:
                    83:32:c8:d7:75:27:80:b8:f6:40:9d:48:ac:5f:e1:
                    1d:72:9b:55:4c:ab:29:89:6e:04:e6:73:f3:c8:fb:
                    50:9b:a3:a0:00:f6:d6:e6:5f:73:9d:35:4c:2d:54:
                    0f:56:68:d8:fc:f6:3e:93:9a:70:68:eb:46:29:c5:
                    03:bf:9e:01:2c:08:cc:d3:bb:bd:44:52:09:67:80:
                    86:10:15
                Exponent: 65537 (0x10001)
        X509v3 extensions:
            X509v3 Basic Constraints: 
                CA:FALSE
            Netscape Comment: 
                Easy-RSA Generated Certificate
            X509v3 Subject Key Identifier: 
                07:02:06:BA:68:D2:B8:72:D9:0D:19:56:F4:92:64:15:92:3F:29:5C
            X509v3 Authority Key Identifier: 
                keyid:12:CD:60:04:D2:A0:80:9E:70:ED:C6:99:B8:7B:2C:C6:52:FD:19:A1
                DirName:/C=US/ST=OH/L=Columbus/O=VikingVPN/OU=MyOrganizationalUnit/CN=VikingVPN CA/name=EasyRSA/emailAddress=me@myhost.mydomain
                serial:CF:35:85:EE:80:BF:2A:3E

            X509v3 Extended Key Usage: 
                TLS Web Client Authentication
            X509v3 Key Usage: 
                Digital Signature
    Signature Algorithm: md5WithRSAEncryption
         e1:d9:e2:ef:1a:f2:47:c2:01:84:bf:25:df:82:bd:f8:f4:ff:
         54:09:96:db:dc:b4:f7:0e:f4:14:5f:33:1d:2c:1f:28:d9:d2:
         33:0f:9e:63:0d:e6:51:39:9e:2d:0c:86:4b:27:43:b3:1d:c9:
         d0:3b:e2:45:b3:21:8e:e9:a2:48:b3:62:af:02:0f:c3:8b:d7:
         d4:7c:e3:51:78:93:4b:d3:f3:30:2d:4f:eb:ad:79:cb:97:98:
         e5:5e:1d:91:45:7c:07:4a:0a:5c:e2:d7:5e:3d:da:1f:d4:c9:
         6f:c5:c4:86:f0:c7:74:d8:03:db:13:e9:65:fe:7d:83:73:4d:
         3f:a4:f7:d5:79:da:ce:6c:f2:75:e7:73:f6:95:21:0d:62:5a:
         af:ed:8b:f4:00:b9:5c:5d:e5:eb:d9:24:ef:3e:2f:01:b8:b4:
         a2:89:4f:25:1f:5d:1f:1f:5d:f5:b0:fd:bc:28:df:e7:f6:b3:
         6b:2f:d2:69:b6:63:49:1e:86:a7:40:81:37:23:d5:0a:e0:5b:
         25:b8:24:ab:a8:24:18:ae:32:19:4a:ce:4b:fb:1e:27:ad:6c:
         d3:a3:9d:78:91:01:4b:32:9d:6d:44:3d:44:cb:04:33:23:fc:
         eb:74:b1:42:85:1a:6b:e6:75:e6:ac:03:bf:0c:68:bf:b8:59:
         38:fd:cb:5d:1a:75:72:7a:d7:bd:3b:cc:3e:03:62:5f:34:45:
         ae:80:4d:7a:2a:1b:2d:5b:51:61:56:75:d4:7d:14:3b:16:ad:
         eb:96:bb:cb:24:e0:9a:ef:ec:88:bd:18:ab:8f:87:8c:f1:b0:
         68:59:19:f2:82:a5:5e:5a:ff:ba:78:89:80:36:f0:5e:6a:58:
         78:95:e7:47:37:4b:a6:33:1f:70:d7:7c:12:f9:57:bf:7b:82:
         7e:1a:6f:3e:35:ae:6f:18:5f:b8:67:65:f5:f8:dc:2b:41:9d:
         fa:f0:7c:08:b1:63:22:ba:02:f6:ae:e0:88:07:49:84:da:ab:
         42:d8:11:af:46:bb:fc:05:d1:0b:9c:66:4d:87:41:b8:86:e8:
         56:3e:6d:0b:be:5d:93:f8:54:0c:f7:b7:c0:20:9b:03:6b:f9:
         9c:06:a9:4b:eb:4f:23:00:f4:b8:88:d3:a3:2a:77:54:eb:8a:
         fc:96:5d:73:ad:a8:85:a6:fb:cb:37:4a:ba:82:59:cb:54:f8:
         c2:e7:3c:bf:bf:ba:c8:8a:32:3d:b9:f0:97:20:b0:cc:76:44:
         ec:93:a0:2a:e2:f5:a4:13:81:74:4b:92:12:47:2c:64:8c:e7:
         e5:f9:6c:7b:51:b2:d8:02:9b:89:26:5a:6b:0d:4f:19:02:1b:
         1e:a0:32:07:1b:1e:19:1e
-----BEGIN CERTIFICATE-----
MIIGrTCCBJWgAwIBAgICFEEwDQYJKoZIhvcNAQEEBQAwgawxCzAJBgNVBAYTAlVT
MQswCQYDVQQIEwJPSDERMA8GA1UEBxMIQ29sdW1idXMxEjAQBgNVBAoTCVZpa2lu
Z1ZQTjEdMBsGA1UECxMUTXlPcmdhbml6YXRpb25hbFVuaXQxFTATBgNVBAMTDFZp
a2luZ1ZQTiBDQTEQMA4GA1UEKRMHRWFzeVJTQTEhMB8GCSqGSIb3DQEJARYSbWVA
bXlob3N0Lm15ZG9tYWluMB4XDTE1MDUwODAxNTEwMloXDTI1MDUwNTAxNTEwMlow
HzEdMBsGA1UEAxMUQ2xpZW50MTQ4NkNlcnQxMzZmYTcwggIiMA0GCSqGSIb3DQEB
AQUAA4ICDwAwggIKAoICAQDNJOTX8prC0l8vWw2pYfCc+1rSZHHWdLT0rJD9Ofsc
d4KN1uLiG0sSE4teYRUeoYCgpjZaoQETGL6juJqTCmbYqZ0fBBJu0lW9DFB99GB9
+/1HtukbFLQHEl9/gEOvQgxvaK3ZBRe6Cmv88yN3Ymbf1bh5XiNrcrmkTJHKEdjY
KWfNjq03BqrgbXzz0zgXfkYmXPKVirdLEEQFj4Ed3Pbn6aiq92r48AT+j4HnSxeS
zQc91YdlmCf94WoLpsaastagUuB+FIKqqTH4piM/JXKQYPSLAVBRd5HKz7qBVixb
xhK0Q2FkADTaFY1a8rQxh+1ZdNhU26depnXePOB22E66QNQnrw+loBTV4Iu9PMGb
xcFgo0R67TNjtH1u44kmPnIwZz95iKGSsNgLdrSLhcvuBagVwJSmr89o5798d+2G
QlGSCHgUZrEBXmEn/bwKgLE2Tx3jCoQN1/RUOxivo4Mko9nUNEOSPlsP81xIf6RN
FnliGD2IaWWy1Kr/vT6pkE92C29hkaBVCtJRl7NtQ/om7if65+vs0+h/gFaHJgiz
aUSYKabbTSSNOnxZ7JWlHTat/4MyyNd1J4C49kCdSKxf4R1ym1VMqymJbgTmc/PI
+1Cbo6AA9tbmX3OdNUwtVA9WaNj89j6TmnBo60YpxQO/ngEsCMzTu71EUglngIYQ
FQIDAQABo4IBYzCCAV8wCQYDVR0TBAIwADAtBglghkgBhvhCAQ0EIBYeRWFzeS1S
U0EgR2VuZXJhdGVkIENlcnRpZmljYXRlMB0GA1UdDgQWBBQHAga6aNK4ctkNGVb0
kmQVkj8pXDCB4QYDVR0jBIHZMIHWgBQSzWAE0qCAnnDtxpm4eyzGUv0ZoaGBsqSB
rzCBrDELMAkGA1UEBhMCVVMxCzAJBgNVBAgTAk9IMREwDwYDVQQHEwhDb2x1bWJ1
czESMBAGA1UEChMJVmlraW5nVlBOMR0wGwYDVQQLExRNeU9yZ2FuaXphdGlvbmFs
VW5pdDEVMBMGA1UEAxMMVmlraW5nVlBOIENBMRAwDgYDVQQpEwdFYXN5UlNBMSEw
HwYJKoZIhvcNAQkBFhJtZUBteWhvc3QubXlkb21haW6CCQDPNYXugL8qPjATBgNV
HSUEDDAKBggrBgEFBQcDAjALBgNVHQ8EBAMCB4AwDQYJKoZIhvcNAQEEBQADggIB
AOHZ4u8a8kfCAYS/Jd+Cvfj0/1QJltvctPcO9BRfMx0sHyjZ0jMPnmMN5lE5ni0M
hksnQ7MdydA74kWzIY7pokizYq8CD8OL19R841F4k0vT8zAtT+utecuXmOVeHZFF
fAdKClzi11492h/UyW/FxIbwx3TYA9sT6WX+fYNzTT+k99V52s5s8nXnc/aVIQ1i
Wq/ti/QAuVxd5evZJO8+LwG4tKKJTyUfXR8fXfWw/bwo3+f2s2sv0mm2Y0kehqdA
gTcj1QrgWyW4JKuoJBiuMhlKzkv7HietbNOjnXiRAUsynW1EPUTLBDMj/Ot0sUKF
GmvmdeasA78MaL+4WTj9y10adXJ61707zD4DYl80Ra6ATXoqGy1bUWFWddR9FDsW
reuWu8sk4Jrv7Ii9GKuPh4zxsGhZGfKCpV5a/7p4iYA28F5qWHiV50c3S6YzH3DX
fBL5V797gn4abz41rm8YX7hnZfX43CtBnfrwfAixYyK6Avau4IgHSYTaq0LYEa9G
u/wF0QucZk2HQbiG6FY+bQu+XZP4VAz3t8AgmwNr+ZwGqUvrTyMA9LiI06Mqd1Tr
ivyWXXOtqIWm+8s3SrqCWctU+MLnPL+/usiKMj258JcgsMx2ROyToCri9aQTgXRL
khJHLGSM5+X5bHtRstgCm4kmWmsNTxkCGx6gMgcbHhke
-----END CERTIFICATE-----
