Certificate:
    Data:
        Version: 3 (0x2)
        Serial Number: 99 (0x63)
    Signature Algorithm: md5WithRSAEncryption
        Issuer: C=US, ST=OH, L=Columbus, O=VikingVPN, OU=MyOrganizationalUnit, CN=VikingVPN CA/name=EasyRSA/emailAddress=me@myhost.mydomain
        Validity
            Not Before: Sep  1 07:43:03 2013 GMT
            Not After : Aug 30 07:43:03 2023 GMT
        Subject: CN=Client69Cert620218
        Subject Public Key Info:
            Public Key Algorithm: rsaEncryption
                Public-Key: (4096 bit)
                Modulus:
                    00:d3:95:8a:6f:34:b5:1e:61:07:ac:7e:26:42:cb:
                    6a:6a:c9:7a:85:d3:bf:fa:a0:b4:6b:c7:c4:99:7f:
                    5d:46:5d:d1:07:00:20:4a:f7:a5:6a:05:45:87:2d:
                    5f:a2:b4:7a:92:24:c6:d0:06:d0:fd:fe:99:04:56:
                    a8:fe:2f:b0:aa:37:21:a1:59:6c:5c:af:13:96:71:
                    32:91:b6:4e:66:92:4e:24:11:67:6f:1e:98:54:73:
                    3b:18:59:03:8a:9c:10:76:aa:0b:e9:6a:9e:ad:ea:
                    2d:e3:ae:d8:00:91:2c:b5:e0:1f:93:9d:0e:63:d2:
                    15:36:6f:df:a2:3f:a3:3e:99:01:ce:bb:2a:ff:8a:
                    fb:27:34:ca:1d:95:f9:e6:37:5f:cd:9f:6f:e1:44:
                    cc:f3:cf:c6:ca:66:24:12:65:d2:12:0b:7b:27:a3:
                    88:17:c5:0a:ab:7d:20:6a:ba:f3:00:69:18:f3:49:
                    4e:d4:fd:ef:f1:7b:b1:8b:f5:92:d5:a7:65:c1:bd:
                    11:c1:d8:4b:8c:d1:af:b0:49:65:19:db:d1:c2:1d:
                    f9:94:5d:32:eb:d6:d0:c0:96:65:41:47:9f:16:59:
                    18:26:13:0f:9b:10:5f:9a:32:d3:33:ef:0c:53:29:
                    93:f0:62:21:c9:a9:44:d5:49:67:cc:ac:1d:07:cc:
                    c7:c5:8c:f9:ab:5d:04:2f:76:02:c7:91:d7:e8:d1:
                    f6:61:34:d0:a9:46:08:79:b0:d2:52:81:8f:dc:91:
                    e9:15:22:ee:da:e6:81:35:a7:94:e0:02:a4:77:a2:
                    bd:53:38:a8:f1:de:a9:75:13:23:68:d9:82:22:f4:
                    69:e8:db:87:71:27:40:90:92:ac:d7:09:8b:0a:39:
                    80:f0:88:9e:c8:d4:fb:9f:2d:9b:08:2f:ee:75:4c:
                    8e:6e:ad:dc:f9:0d:0b:e7:23:f5:81:6b:25:e2:3e:
                    44:57:e0:6c:38:38:69:a8:a8:15:f4:a2:af:8a:71:
                    5c:23:d5:35:a8:9d:71:73:12:cd:b0:f6:a1:2c:d3:
                    15:7d:ce:dc:c1:0d:23:6c:d6:8b:35:c6:d0:ff:2f:
                    ef:1d:b5:1f:3a:bf:f7:29:b1:43:75:17:cc:47:10:
                    bf:96:1d:2d:f7:bb:e8:38:f9:65:d2:fa:ef:5d:dc:
                    a4:db:ec:d7:ea:05:34:a1:a7:ff:11:7a:5e:55:20:
                    42:dc:e7:b3:c8:18:25:b5:6f:20:d5:cb:06:59:b7:
                    f3:a2:19:04:e3:bb:ec:4d:09:1e:82:ec:b2:5b:c2:
                    76:a7:a4:37:74:c4:5f:c1:5c:21:ed:ee:8d:17:46:
                    4e:63:6b:a8:61:a1:29:1f:2d:31:82:98:9f:ba:61:
                    db:5b:41
                Exponent: 65537 (0x10001)
        X509v3 extensions:
            X509v3 Basic Constraints: 
                CA:FALSE
            Netscape Comment: 
                Easy-RSA Generated Certificate
            X509v3 Subject Key Identifier: 
                63:3E:F4:E0:A4:F9:96:BD:97:C8:82:2A:27:C1:BB:3C:31:59:C7:18
            X509v3 Authority Key Identifier: 
                keyid:12:CD:60:04:D2:A0:80:9E:70:ED:C6:99:B8:7B:2C:C6:52:FD:19:A1
                DirName:/C=US/ST=OH/L=Columbus/O=VikingVPN/OU=MyOrganizationalUnit/CN=VikingVPN CA/name=EasyRSA/emailAddress=me@myhost.mydomain
                serial:CF:35:85:EE:80:BF:2A:3E

            X509v3 Extended Key Usage: 
                TLS Web Client Authentication
            X509v3 Key Usage: 
                Digital Signature
    Signature Algorithm: md5WithRSAEncryption
         60:bf:e3:92:44:fb:c1:e1:8b:5a:00:05:78:aa:0e:d4:99:7f:
         71:a7:e2:3c:98:d6:ef:8e:9e:fa:6b:ce:f2:54:0a:ce:15:2d:
         77:31:e3:06:5a:b3:15:68:62:d8:dd:a0:14:4a:94:97:4f:b2:
         1a:54:90:4a:8c:4c:5e:ed:bb:ec:fb:35:b0:c7:57:d3:95:e4:
         cc:d9:42:b3:85:68:6b:44:ec:e1:42:27:25:b2:88:e2:da:7f:
         26:ff:f8:5f:f1:57:0e:ae:4e:4d:af:22:3a:fb:60:66:75:f1:
         d4:26:36:f1:14:5a:28:59:2a:63:d7:c0:19:f9:8d:1a:ba:9d:
         4c:35:1e:14:7b:b3:19:5f:5b:17:00:5f:ab:d7:ab:13:a4:86:
         62:35:41:23:85:19:4a:b4:ad:bf:a9:00:f6:e6:ec:1b:93:9f:
         17:1d:55:88:d7:49:16:79:c0:0e:de:79:7c:7d:28:dd:0b:9f:
         b1:b2:9e:9a:e6:fa:72:e4:13:a7:b2:ce:c9:c3:fa:e8:73:de:
         e3:8f:83:36:6f:6d:c2:34:34:2b:d2:34:96:00:00:48:0a:71:
         84:7d:64:44:6c:ce:d6:8d:45:fb:2b:6b:39:60:7d:bd:76:98:
         96:71:b7:12:06:97:5d:e4:b5:ff:d7:c2:a5:8e:b1:aa:a1:a3:
         ee:01:bb:67:d2:84:08:73:ba:28:ef:0e:0f:8a:2c:10:49:ff:
         47:ca:e1:c6:f2:88:6c:4c:3b:0a:fe:4e:c3:96:09:69:0e:c2:
         bb:f5:27:a9:5d:12:60:ae:d6:23:31:6b:c3:ff:e7:17:1e:3c:
         b0:e9:e9:da:76:d2:68:07:c9:28:cb:be:6d:86:da:8f:78:74:
         9b:08:19:e6:42:bd:2b:d2:f1:34:f6:9d:9e:40:b7:24:54:85:
         8d:04:76:26:58:ae:95:b7:69:fd:9e:d7:5c:0a:ff:a7:09:88:
         b9:14:8c:4c:4b:ce:d8:e6:a9:51:5d:92:99:48:4e:9a:d4:a7:
         14:e8:ce:55:8c:a7:97:12:66:92:f6:ac:47:0b:59:20:25:8e:
         c0:6e:fd:e5:05:ed:88:21:57:55:77:46:21:23:aa:20:64:21:
         84:34:b5:cc:f2:94:4f:03:7c:ed:37:21:a4:93:90:f5:70:7f:
         54:2b:c5:3d:30:07:9b:83:e1:49:a4:26:fc:0e:c8:0d:21:b6:
         01:b0:78:f7:ab:34:27:d4:c1:8b:9a:c0:ef:76:9a:c8:95:53:
         c6:06:95:bc:d6:bf:b7:42:3e:15:2a:43:b5:73:08:aa:a9:5a:
         ea:e4:44:e8:1b:63:11:49:62:f0:c4:ea:e3:a8:49:92:b8:be:
         6d:7f:51:be:0a:11:13:d3
-----BEGIN CERTIFICATE-----
MIIGqjCCBJKgAwIBAgIBYzANBgkqhkiG9w0BAQQFADCBrDELMAkGA1UEBhMCVVMx
CzAJBgNVBAgTAk9IMREwDwYDVQQHEwhDb2x1bWJ1czESMBAGA1UEChMJVmlraW5n
VlBOMR0wGwYDVQQLExRNeU9yZ2FuaXphdGlvbmFsVW5pdDEVMBMGA1UEAxMMVmlr
aW5nVlBOIENBMRAwDgYDVQQpEwdFYXN5UlNBMSEwHwYJKoZIhvcNAQkBFhJtZUBt
eWhvc3QubXlkb21haW4wHhcNMTMwOTAxMDc0MzAzWhcNMjMwODMwMDc0MzAzWjAd
MRswGQYDVQQDExJDbGllbnQ2OUNlcnQ2MjAyMTgwggIiMA0GCSqGSIb3DQEBAQUA
A4ICDwAwggIKAoICAQDTlYpvNLUeYQesfiZCy2pqyXqF07/6oLRrx8SZf11GXdEH
ACBK96VqBUWHLV+itHqSJMbQBtD9/pkEVqj+L7CqNyGhWWxcrxOWcTKRtk5mkk4k
EWdvHphUczsYWQOKnBB2qgvpap6t6i3jrtgAkSy14B+TnQ5j0hU2b9+iP6M+mQHO
uyr/ivsnNModlfnmN1/Nn2/hRMzzz8bKZiQSZdISC3sno4gXxQqrfSBquvMAaRjz
SU7U/e/xe7GL9ZLVp2XBvRHB2EuM0a+wSWUZ29HCHfmUXTLr1tDAlmVBR58WWRgm
Ew+bEF+aMtMz7wxTKZPwYiHJqUTVSWfMrB0HzMfFjPmrXQQvdgLHkdfo0fZhNNCp
Rgh5sNJSgY/ckekVIu7a5oE1p5TgAqR3or1TOKjx3ql1EyNo2YIi9Gno24dxJ0CQ
kqzXCYsKOYDwiJ7I1PufLZsIL+51TI5urdz5DQvnI/WBayXiPkRX4Gw4OGmoqBX0
oq+KcVwj1TWonXFzEs2w9qEs0xV9ztzBDSNs1os1xtD/L+8dtR86v/cpsUN1F8xH
EL+WHS33u+g4+WXS+u9d3KTb7NfqBTShp/8Rel5VIELc57PIGCW1byDVywZZt/Oi
GQTju+xNCR6C7LJbwnanpDd0xF/BXCHt7o0XRk5ja6hhoSkfLTGCmJ+6YdtbQQID
AQABo4IBYzCCAV8wCQYDVR0TBAIwADAtBglghkgBhvhCAQ0EIBYeRWFzeS1SU0Eg
R2VuZXJhdGVkIENlcnRpZmljYXRlMB0GA1UdDgQWBBRjPvTgpPmWvZfIgionwbs8
MVnHGDCB4QYDVR0jBIHZMIHWgBQSzWAE0qCAnnDtxpm4eyzGUv0ZoaGBsqSBrzCB
rDELMAkGA1UEBhMCVVMxCzAJBgNVBAgTAk9IMREwDwYDVQQHEwhDb2x1bWJ1czES
MBAGA1UEChMJVmlraW5nVlBOMR0wGwYDVQQLExRNeU9yZ2FuaXphdGlvbmFsVW5p
dDEVMBMGA1UEAxMMVmlraW5nVlBOIENBMRAwDgYDVQQpEwdFYXN5UlNBMSEwHwYJ
KoZIhvcNAQkBFhJtZUBteWhvc3QubXlkb21haW6CCQDPNYXugL8qPjATBgNVHSUE
DDAKBggrBgEFBQcDAjALBgNVHQ8EBAMCB4AwDQYJKoZIhvcNAQEEBQADggIBAGC/
45JE+8Hhi1oABXiqDtSZf3Gn4jyY1u+OnvprzvJUCs4VLXcx4wZasxVoYtjdoBRK
lJdPshpUkEqMTF7tu+z7NbDHV9OV5MzZQrOFaGtE7OFCJyWyiOLafyb/+F/xVw6u
Tk2vIjr7YGZ18dQmNvEUWihZKmPXwBn5jRq6nUw1HhR7sxlfWxcAX6vXqxOkhmI1
QSOFGUq0rb+pAPbm7BuTnxcdVYjXSRZ5wA7eeXx9KN0Ln7Gynprm+nLkE6eyzsnD
+uhz3uOPgzZvbcI0NCvSNJYAAEgKcYR9ZERsztaNRfsrazlgfb12mJZxtxIGl13k
tf/XwqWOsaqho+4Bu2fShAhzuijvDg+KLBBJ/0fK4cbyiGxMOwr+TsOWCWkOwrv1
J6ldEmCu1iMxa8P/5xcePLDp6dp20mgHySjLvm2G2o94dJsIGeZCvSvS8TT2nZ5A
tyRUhY0EdiZYrpW3af2e11wK/6cJiLkUjExLztjmqVFdkplITprUpxTozlWMp5cS
ZpL2rEcLWSAljsBu/eUF7YghV1V3RiEjqiBkIYQ0tczylE8DfO03IaSTkPVwf1Qr
xT0wB5uD4UmkJvwOyA0htgGwePerNCfUwYuawO92msiVU8YGlbzWv7dCPhUqQ7Vz
CKqpWurkROgbYxFJYvDE6uOoSZK4vm1/Ub4KERPT
-----END CERTIFICATE-----
