Certificate:
    Data:
        Version: 3 (0x2)
        Serial Number: 8453 (0x2105)
    Signature Algorithm: md5WithRSAEncryption
        Issuer: C=US, ST=OH, L=Columbus, O=VikingVPN, OU=MyOrganizationalUnit, CN=VikingVPN CA/name=EasyRSA/emailAddress=me@myhost.mydomain
        Validity
            Not Before: Jul  9 04:21:13 2016 GMT
            Not After : Jul  7 04:21:13 2026 GMT
        Subject: CN=Client2Cert1ce85c
        Subject Public Key Info:
            Public Key Algorithm: rsaEncryption
                Public-Key: (4096 bit)
                Modulus:
                    00:c9:7d:66:82:3b:2f:0a:29:ff:4f:4b:f3:8f:b8:
                    36:ac:f0:a0:4a:12:c1:56:c0:ec:30:f5:c8:1d:38:
                    d6:9b:d8:5f:a4:a8:47:9a:4f:0b:1b:2d:91:c1:88:
                    0e:79:43:a9:f2:71:ad:29:45:83:9d:ac:53:35:6f:
                    1b:71:96:fb:8c:e7:75:f1:a9:45:fb:12:3b:af:66:
                    b0:12:31:1f:68:cb:57:85:cd:dc:22:16:2e:95:c1:
                    d1:9a:9f:5d:3b:4d:29:3b:b2:4b:a0:df:08:f1:98:
                    49:c0:3e:ee:07:33:43:ad:e5:28:63:ce:3c:ef:a7:
                    1a:1a:c1:8b:5e:ed:38:3d:2a:30:6f:db:95:3e:c4:
                    91:81:d7:32:86:72:93:fe:f1:2f:18:97:28:86:1f:
                    a2:5c:e5:59:11:95:91:8f:9b:f7:9b:16:97:e1:66:
                    01:7c:f4:db:6c:43:c1:15:1c:e3:5c:84:31:fb:5e:
                    5b:26:aa:0f:75:56:d9:e5:0d:48:05:c1:87:79:27:
                    be:ea:82:68:e7:f7:e7:ba:e5:d8:b7:31:cd:4e:1b:
                    bb:95:c5:82:05:a6:80:f6:96:55:9d:54:47:d0:39:
                    17:3d:01:06:88:ca:76:aa:97:cc:c4:20:5a:e4:aa:
                    65:b3:c4:07:e4:0a:38:e9:77:6c:9b:3f:fb:ea:e4:
                    c4:0f:3a:e6:10:ff:63:55:b7:a7:47:19:93:aa:6c:
                    05:0a:a3:c1:11:83:73:ab:ec:28:a7:14:ea:02:1d:
                    e6:45:2f:87:f7:6e:e2:e5:00:95:5b:b8:ae:bf:e0:
                    f0:2c:5f:88:2a:31:64:fb:b9:ba:f8:58:24:bf:57:
                    49:23:fd:44:56:d7:85:62:ee:87:97:28:b8:a0:e6:
                    db:2a:90:55:45:7c:f4:35:03:56:ab:2a:04:cf:6b:
                    0e:d0:41:4a:e4:7e:46:b9:15:5f:62:ec:06:29:10:
                    d9:73:92:c5:65:ec:a9:46:9e:69:9b:a6:a7:46:6e:
                    77:70:fe:fc:75:75:01:47:93:3b:34:6d:f7:df:48:
                    2b:ca:a9:35:7a:35:57:61:73:18:9e:23:b9:e2:bf:
                    5d:9f:f0:e3:b5:af:91:39:2e:2c:6e:be:93:64:76:
                    2c:53:1f:70:8f:fc:c4:a5:e4:26:16:e4:11:b6:12:
                    05:54:3e:4a:98:a2:fc:d6:a7:39:a8:3d:8e:aa:9e:
                    7f:0d:ba:73:e1:b7:5d:f0:6a:83:ac:e9:c7:3f:ff:
                    d7:7f:73:f6:d1:97:fb:ba:d0:3c:da:f9:d8:29:c6:
                    85:f2:aa:26:11:fe:92:77:a3:3d:60:ca:6a:ff:98:
                    81:6e:8c:6b:e4:04:24:72:e6:39:21:cf:ec:23:c2:
                    ae:58:b1
                Exponent: 65537 (0x10001)
        X509v3 extensions:
            X509v3 Basic Constraints: 
                CA:FALSE
            Netscape Comment: 
                Easy-RSA Generated Certificate
            X509v3 Subject Key Identifier: 
                A3:1A:65:5E:66:AE:E0:40:A6:BD:E3:3D:09:68:AA:FC:C3:75:37:6C
            X509v3 Authority Key Identifier: 
                keyid:12:CD:60:04:D2:A0:80:9E:70:ED:C6:99:B8:7B:2C:C6:52:FD:19:A1
                DirName:/C=US/ST=OH/L=Columbus/O=VikingVPN/OU=MyOrganizationalUnit/CN=VikingVPN CA/name=EasyRSA/emailAddress=me@myhost.mydomain
                serial:CF:35:85:EE:80:BF:2A:3E

            X509v3 Extended Key Usage: 
                TLS Web Client Authentication
            X509v3 Key Usage: 
                Digital Signature
    Signature Algorithm: md5WithRSAEncryption
         45:23:83:29:38:f4:ee:ca:fd:41:ae:5c:6f:c2:b3:3e:ea:8a:
         ac:b6:df:13:cc:f2:8e:ee:21:4d:86:46:6a:bb:de:b9:21:2c:
         b0:7d:89:40:4d:3c:30:93:cb:80:dd:78:3a:5a:ed:a5:e0:66:
         5b:68:8e:db:74:22:58:7b:cf:1f:de:ce:e5:1f:81:bd:b4:7a:
         6a:52:b6:23:5a:61:cf:b7:0d:35:b4:d7:f5:a9:fa:6b:df:87:
         0b:08:43:cf:f6:f4:90:58:76:65:86:ff:46:2c:ee:3e:56:da:
         d8:e2:f9:19:41:9c:f9:d8:ab:1f:7b:1d:3f:47:fc:2c:fd:5c:
         59:76:21:db:3b:a4:03:e9:81:b5:82:c7:a2:1c:c2:a5:fb:88:
         91:53:49:87:4a:fa:02:bd:cf:bf:4f:b3:c3:5b:57:03:db:77:
         8b:31:05:eb:1e:e0:70:fc:95:27:2f:65:f9:24:24:aa:5b:0f:
         0a:71:7d:03:4a:ba:61:49:11:2e:79:ee:f6:07:8b:6c:02:c0:
         2b:13:b0:5c:03:55:4b:64:51:d5:9f:b7:31:b0:c1:88:e1:cd:
         68:5a:f4:53:94:48:d9:05:43:47:a2:1c:44:7b:02:15:11:e7:
         52:9b:20:94:4c:0e:f8:77:23:42:79:b2:19:ee:04:bf:48:04:
         6b:5a:2e:07:59:2c:c5:ef:6d:51:b1:ab:2f:af:6d:83:e8:e6:
         4f:1f:bc:36:81:55:5b:db:c4:0c:a5:98:10:20:5f:32:de:b1:
         66:63:3a:91:f0:d4:43:d2:70:50:ad:0f:c5:97:c4:2f:cf:a9:
         91:35:b7:be:0a:d6:21:73:77:46:77:66:af:2c:69:e8:85:32:
         d6:20:5b:fe:9f:36:05:4d:c4:80:0c:70:09:38:2f:86:8f:0a:
         81:33:de:07:05:72:96:66:1c:47:ef:c8:bd:0b:70:76:ab:4e:
         e1:f3:5e:51:9d:ac:fd:31:71:c5:e8:48:6f:48:62:0e:fe:ad:
         a1:4c:2c:fd:bc:77:8a:6d:f2:b2:e3:92:35:62:f6:04:b4:34:
         5a:2f:5c:07:e6:b6:40:0f:9d:c1:bc:73:b1:0a:cb:fe:57:7e:
         e4:46:e8:74:86:20:c0:74:d2:31:35:77:df:dc:09:7c:a3:4c:
         3b:17:e0:59:6d:09:60:dd:9f:82:23:59:47:4c:c1:90:c0:be:
         8b:94:65:ca:48:ed:93:a1:7c:c0:1f:76:32:d6:ee:78:48:00:
         f3:d7:e5:9d:8d:c9:5a:7e:92:b8:80:dd:61:1f:d0:38:61:09:
         db:68:0a:c7:2c:5d:70:0c:70:14:e7:b5:c0:be:4e:66:0d:eb:
         71:d1:5e:1c:97:cf:4a:3e
-----BEGIN CERTIFICATE-----
MIIGqjCCBJKgAwIBAgICIQUwDQYJKoZIhvcNAQEEBQAwgawxCzAJBgNVBAYTAlVT
MQswCQYDVQQIEwJPSDERMA8GA1UEBxMIQ29sdW1idXMxEjAQBgNVBAoTCVZpa2lu
Z1ZQTjEdMBsGA1UECxMUTXlPcmdhbml6YXRpb25hbFVuaXQxFTATBgNVBAMTDFZp
a2luZ1ZQTiBDQTEQMA4GA1UEKRMHRWFzeVJTQTEhMB8GCSqGSIb3DQEJARYSbWVA
bXlob3N0Lm15ZG9tYWluMB4XDTE2MDcwOTA0MjExM1oXDTI2MDcwNzA0MjExM1ow
HDEaMBgGA1UEAxMRQ2xpZW50MkNlcnQxY2U4NWMwggIiMA0GCSqGSIb3DQEBAQUA
A4ICDwAwggIKAoICAQDJfWaCOy8KKf9PS/OPuDas8KBKEsFWwOww9cgdONab2F+k
qEeaTwsbLZHBiA55Q6nyca0pRYOdrFM1bxtxlvuM53XxqUX7EjuvZrASMR9oy1eF
zdwiFi6VwdGan107TSk7skug3wjxmEnAPu4HM0Ot5ShjzjzvpxoawYte7Tg9KjBv
25U+xJGB1zKGcpP+8S8YlyiGH6Jc5VkRlZGPm/ebFpfhZgF89NtsQ8EVHONchDH7
Xlsmqg91VtnlDUgFwYd5J77qgmjn9+e65di3Mc1OG7uVxYIFpoD2llWdVEfQORc9
AQaIynaql8zEIFrkqmWzxAfkCjjpd2ybP/vq5MQPOuYQ/2NVt6dHGZOqbAUKo8ER
g3Or7CinFOoCHeZFL4f3buLlAJVbuK6/4PAsX4gqMWT7ubr4WCS/V0kj/URW14Vi
7oeXKLig5tsqkFVFfPQ1A1arKgTPaw7QQUrkfka5FV9i7AYpENlzksVl7KlGnmmb
pqdGbndw/vx1dQFHkzs0bfffSCvKqTV6NVdhcxieI7niv12f8OO1r5E5LixuvpNk
dixTH3CP/MSl5CYW5BG2EgVUPkqYovzWpzmoPY6qnn8NunPht13waoOs6cc//9d/
c/bRl/u60Dza+dgpxoXyqiYR/pJ3oz1gymr/mIFujGvkBCRy5jkhz+wjwq5YsQID
AQABo4IBYzCCAV8wCQYDVR0TBAIwADAtBglghkgBhvhCAQ0EIBYeRWFzeS1SU0Eg
R2VuZXJhdGVkIENlcnRpZmljYXRlMB0GA1UdDgQWBBSjGmVeZq7gQKa94z0JaKr8
w3U3bDCB4QYDVR0jBIHZMIHWgBQSzWAE0qCAnnDtxpm4eyzGUv0ZoaGBsqSBrzCB
rDELMAkGA1UEBhMCVVMxCzAJBgNVBAgTAk9IMREwDwYDVQQHEwhDb2x1bWJ1czES
MBAGA1UEChMJVmlraW5nVlBOMR0wGwYDVQQLExRNeU9yZ2FuaXphdGlvbmFsVW5p
dDEVMBMGA1UEAxMMVmlraW5nVlBOIENBMRAwDgYDVQQpEwdFYXN5UlNBMSEwHwYJ
KoZIhvcNAQkBFhJtZUBteWhvc3QubXlkb21haW6CCQDPNYXugL8qPjATBgNVHSUE
DDAKBggrBgEFBQcDAjALBgNVHQ8EBAMCB4AwDQYJKoZIhvcNAQEEBQADggIBAEUj
gyk49O7K/UGuXG/Csz7qiqy23xPM8o7uIU2GRmq73rkhLLB9iUBNPDCTy4DdeDpa
7aXgZltojtt0Ilh7zx/ezuUfgb20empStiNaYc+3DTW01/Wp+mvfhwsIQ8/29JBY
dmWG/0Ys7j5W2tji+RlBnPnYqx97HT9H/Cz9XFl2Ids7pAPpgbWCx6IcwqX7iJFT
SYdK+gK9z79Ps8NbVwPbd4sxBese4HD8lScvZfkkJKpbDwpxfQNKumFJES557vYH
i2wCwCsTsFwDVUtkUdWftzGwwYjhzWha9FOUSNkFQ0eiHER7AhUR51KbIJRMDvh3
I0J5shnuBL9IBGtaLgdZLMXvbVGxqy+vbYPo5k8fvDaBVVvbxAylmBAgXzLesWZj
OpHw1EPScFCtD8WXxC/PqZE1t74K1iFzd0Z3Zq8saeiFMtYgW/6fNgVNxIAMcAk4
L4aPCoEz3gcFcpZmHEfvyL0LcHarTuHzXlGdrP0xccXoSG9IYg7+raFMLP28d4pt
8rLjkjVi9gS0NFovXAfmtkAPncG8c7EKy/5XfuRG6HSGIMB00jE1d9/cCXyjTDsX
4FltCWDdn4IjWUdMwZDAvouUZcpI7ZOhfMAfdjLW7nhIAPPX5Z2NyVp+kriA3WEf
0DhhCdtoCscsXXAMcBTntcC+TmYN63HRXhyXz0o+
-----END CERTIFICATE-----
