Certificate:
    Data:
        Version: 3 (0x2)
        Serial Number: 5397 (0x1515)
    Signature Algorithm: md5WithRSAEncryption
        Issuer: C=US, ST=OH, L=Columbus, O=VikingVPN, OU=MyOrganizationalUnit, CN=VikingVPN CA/name=EasyRSA/emailAddress=me@myhost.mydomain
        Validity
            Not Before: May 26 22:59:52 2015 GMT
            Not After : May 23 22:59:52 2025 GMT
        Subject: CN=Client1653Cert537f87
        Subject Public Key Info:
            Public Key Algorithm: rsaEncryption
                Public-Key: (4096 bit)
                Modulus:
                    00:bc:b6:2f:8f:06:17:62:3c:59:ad:b5:08:be:2c:
                    21:c4:25:ba:75:f0:7f:db:66:30:c3:69:80:c8:f1:
                    6f:9e:63:a9:66:11:c8:62:fe:eb:f6:26:29:ad:78:
                    8e:1f:d0:b7:fe:d5:b8:b0:f0:c2:f1:9a:d5:5c:7e:
                    6f:76:d7:47:a5:8f:f9:da:a3:f6:e6:da:0a:0f:4d:
                    c6:36:79:37:08:d1:f1:be:b3:63:51:5b:1e:8d:bb:
                    e0:a2:00:0e:13:cf:4b:62:43:ef:83:73:48:ff:69:
                    98:92:78:58:3f:f8:8e:97:8b:6f:dc:71:d5:8e:5c:
                    17:2e:c7:21:9e:5d:5e:7f:1b:c5:b8:c5:42:ba:83:
                    fb:b3:ad:0f:3c:e1:e6:49:99:82:91:5a:18:cc:5c:
                    37:fa:e2:f0:f5:fd:f6:5b:d2:2a:2b:13:89:31:74:
                    8e:a8:45:3c:16:a1:b8:14:d7:cf:b5:f9:31:b3:79:
                    01:ee:de:23:80:4d:a2:07:35:37:be:6b:3d:38:5d:
                    56:91:97:94:89:fa:03:09:60:11:ae:06:51:9d:a4:
                    5f:ba:58:b8:1b:1a:8c:fc:8b:ed:3f:9d:de:9b:16:
                    99:c2:9a:29:19:fa:e5:30:33:06:ff:e9:47:30:e8:
                    65:77:ae:7b:45:6b:3f:1a:a9:90:dd:90:4a:5f:b5:
                    99:c0:a1:33:8a:60:f4:24:17:a2:71:26:0c:54:b5:
                    0d:5b:44:21:f6:53:d8:75:51:81:38:db:04:6d:a5:
                    35:98:07:53:c0:81:70:b5:cb:6a:db:26:3c:a5:7b:
                    48:45:e9:7a:bc:22:4b:69:da:da:b4:22:27:2a:34:
                    cb:5a:f1:db:4a:66:95:06:74:5b:9d:39:1b:2a:9b:
                    32:f4:ce:15:51:66:a3:f0:6c:48:75:01:06:c0:b0:
                    5a:78:8f:fd:8a:a7:77:48:58:81:b8:7c:5b:96:f6:
                    40:0c:d1:b6:31:59:25:a8:24:59:99:32:67:a2:41:
                    8a:16:e4:f5:74:a7:22:51:34:9e:b5:ce:1e:ff:ee:
                    86:5b:15:33:48:f0:5b:20:af:16:ae:ca:8b:98:e1:
                    5c:bf:5e:6b:fa:91:93:08:4c:60:45:53:43:e5:6e:
                    fa:41:83:9d:22:14:f6:25:6e:0b:f6:c1:22:b5:38:
                    ec:2e:22:45:eb:3d:91:3e:bf:8b:f4:b8:e2:36:ab:
                    ce:9d:2e:9d:f8:d6:a0:24:65:0b:74:04:d9:d9:a4:
                    e4:13:41:0e:1d:84:2b:12:0d:f8:9a:9e:ab:62:07:
                    de:8d:39:64:70:1e:31:7c:d1:84:3d:16:0f:d3:0a:
                    15:f3:31:c3:d0:c4:5c:04:20:a4:cb:ca:4d:f7:be:
                    c6:61:37
                Exponent: 65537 (0x10001)
        X509v3 extensions:
            X509v3 Basic Constraints: 
                CA:FALSE
            Netscape Comment: 
                Easy-RSA Generated Certificate
            X509v3 Subject Key Identifier: 
                AE:E3:7F:16:C3:90:85:A3:43:3F:33:B6:80:57:0E:C7:01:96:9A:92
            X509v3 Authority Key Identifier: 
                keyid:12:CD:60:04:D2:A0:80:9E:70:ED:C6:99:B8:7B:2C:C6:52:FD:19:A1
                DirName:/C=US/ST=OH/L=Columbus/O=VikingVPN/OU=MyOrganizationalUnit/CN=VikingVPN CA/name=EasyRSA/emailAddress=me@myhost.mydomain
                serial:CF:35:85:EE:80:BF:2A:3E

            X509v3 Extended Key Usage: 
                TLS Web Client Authentication
            X509v3 Key Usage: 
                Digital Signature
    Signature Algorithm: md5WithRSAEncryption
         33:aa:78:9a:55:fa:9d:8d:c1:04:a9:82:a0:c0:4d:93:f5:17:
         7f:58:10:f3:3e:b7:92:ee:4f:ed:7c:36:2f:fb:be:f6:2e:7c:
         80:12:12:14:35:03:84:b6:95:2e:33:cd:91:8a:97:5f:78:c6:
         cb:89:33:2d:94:24:d0:65:91:73:da:f2:85:5a:54:d7:82:ba:
         d8:38:f6:89:bb:5c:d2:1b:e3:e7:0a:f9:c9:39:77:77:b6:9f:
         1d:c6:03:e1:87:51:e0:db:85:32:f8:38:76:ae:cc:58:60:02:
         ea:1f:bf:37:7d:c1:dd:c8:72:e2:a4:85:89:93:5c:26:ea:fa:
         8a:94:0f:a0:dd:5c:28:15:40:97:ae:4c:c7:e7:01:a4:94:25:
         90:8d:03:f2:5c:b9:d0:b4:fc:75:a2:be:7b:97:7d:39:70:43:
         ef:4e:18:75:22:96:df:1a:78:c7:2e:e3:e3:88:1b:a2:19:00:
         38:8a:f9:d9:03:8b:28:c9:9b:ba:0a:9d:56:c8:f4:9d:93:69:
         bd:08:5e:1b:91:4f:fb:08:5c:aa:ee:34:39:77:7a:34:86:18:
         70:ec:ee:49:06:c5:83:24:95:19:59:7e:26:a7:bc:b0:22:e1:
         59:0f:e6:12:60:e9:33:26:16:b3:9f:78:f6:79:6b:e2:ea:20:
         3d:14:9d:d4:6e:ce:8c:5e:3b:40:34:5f:d3:e2:da:53:d4:8e:
         da:d1:8f:21:a0:99:72:bd:37:c2:68:5e:3c:96:97:ce:75:9e:
         37:ba:b6:59:50:c4:c0:1c:9c:a7:a3:05:c4:a3:82:09:17:74:
         45:67:0d:de:b3:36:55:61:a0:a4:ef:a6:00:93:81:df:1d:53:
         78:8a:8f:19:4d:a0:b1:a7:13:f9:bb:6c:2b:48:c9:6c:a0:0a:
         bc:d8:4c:bc:08:4d:09:a9:54:8f:9c:ef:b5:cc:cb:fd:e6:57:
         9f:c7:37:3e:f9:94:4d:01:e3:05:33:69:ff:89:a9:f5:61:41:
         f5:e2:2f:51:12:a6:b6:70:54:f5:b4:e1:8f:1f:95:7e:83:f8:
         fd:d0:ee:ad:47:b4:c4:a8:6c:18:fa:c2:7f:c4:7d:71:5b:29:
         d5:f9:26:27:cd:6e:f7:5b:15:19:5a:f5:17:f3:38:81:f6:0f:
         de:cc:9b:f6:c0:49:85:9c:ef:5f:92:04:d5:72:d9:65:dc:cd:
         68:20:31:51:8b:d9:b3:b9:dc:05:f2:88:c7:bd:f4:8d:10:55:
         cc:46:8f:c3:e5:34:0e:51:ff:af:d3:fd:a9:7a:2a:10:52:2a:
         59:0a:87:55:7c:9b:64:15:f0:14:be:f0:44:5c:40:49:c9:87:
         30:21:27:5f:d2:6d:8e:ef
-----BEGIN CERTIFICATE-----
MIIGrTCCBJWgAwIBAgICFRUwDQYJKoZIhvcNAQEEBQAwgawxCzAJBgNVBAYTAlVT
MQswCQYDVQQIEwJPSDERMA8GA1UEBxMIQ29sdW1idXMxEjAQBgNVBAoTCVZpa2lu
Z1ZQTjEdMBsGA1UECxMUTXlPcmdhbml6YXRpb25hbFVuaXQxFTATBgNVBAMTDFZp
a2luZ1ZQTiBDQTEQMA4GA1UEKRMHRWFzeVJTQTEhMB8GCSqGSIb3DQEJARYSbWVA
bXlob3N0Lm15ZG9tYWluMB4XDTE1MDUyNjIyNTk1MloXDTI1MDUyMzIyNTk1Mlow
HzEdMBsGA1UEAxMUQ2xpZW50MTY1M0NlcnQ1MzdmODcwggIiMA0GCSqGSIb3DQEB
AQUAA4ICDwAwggIKAoICAQC8ti+PBhdiPFmttQi+LCHEJbp18H/bZjDDaYDI8W+e
Y6lmEchi/uv2JimteI4f0Lf+1biw8MLxmtVcfm9210elj/nao/bm2goPTcY2eTcI
0fG+s2NRWx6Nu+CiAA4Tz0tiQ++Dc0j/aZiSeFg/+I6Xi2/ccdWOXBcuxyGeXV5/
G8W4xUK6g/uzrQ884eZJmYKRWhjMXDf64vD1/fZb0iorE4kxdI6oRTwWobgU18+1
+TGzeQHu3iOATaIHNTe+az04XVaRl5SJ+gMJYBGuBlGdpF+6WLgbGoz8i+0/nd6b
FpnCmikZ+uUwMwb/6Ucw6GV3rntFaz8aqZDdkEpftZnAoTOKYPQkF6JxJgxUtQ1b
RCH2U9h1UYE42wRtpTWYB1PAgXC1y2rbJjyle0hF6Xq8Iktp2tq0IicqNMta8dtK
ZpUGdFudORsqmzL0zhVRZqPwbEh1AQbAsFp4j/2Kp3dIWIG4fFuW9kAM0bYxWSWo
JFmZMmeiQYoW5PV0pyJRNJ61zh7/7oZbFTNI8FsgrxauyouY4Vy/Xmv6kZMITGBF
U0PlbvpBg50iFPYlbgv2wSK1OOwuIkXrPZE+v4v0uOI2q86dLp341qAkZQt0BNnZ
pOQTQQ4dhCsSDfianqtiB96NOWRwHjF80YQ9Fg/TChXzMcPQxFwEIKTLyk33vsZh
NwIDAQABo4IBYzCCAV8wCQYDVR0TBAIwADAtBglghkgBhvhCAQ0EIBYeRWFzeS1S
U0EgR2VuZXJhdGVkIENlcnRpZmljYXRlMB0GA1UdDgQWBBSu438Ww5CFo0M/M7aA
Vw7HAZaakjCB4QYDVR0jBIHZMIHWgBQSzWAE0qCAnnDtxpm4eyzGUv0ZoaGBsqSB
rzCBrDELMAkGA1UEBhMCVVMxCzAJBgNVBAgTAk9IMREwDwYDVQQHEwhDb2x1bWJ1
czESMBAGA1UEChMJVmlraW5nVlBOMR0wGwYDVQQLExRNeU9yZ2FuaXphdGlvbmFs
VW5pdDEVMBMGA1UEAxMMVmlraW5nVlBOIENBMRAwDgYDVQQpEwdFYXN5UlNBMSEw
HwYJKoZIhvcNAQkBFhJtZUBteWhvc3QubXlkb21haW6CCQDPNYXugL8qPjATBgNV
HSUEDDAKBggrBgEFBQcDAjALBgNVHQ8EBAMCB4AwDQYJKoZIhvcNAQEEBQADggIB
ADOqeJpV+p2NwQSpgqDATZP1F39YEPM+t5LuT+18Ni/7vvYufIASEhQ1A4S2lS4z
zZGKl194xsuJMy2UJNBlkXPa8oVaVNeCutg49om7XNIb4+cK+ck5d3e2nx3GA+GH
UeDbhTL4OHauzFhgAuofvzd9wd3IcuKkhYmTXCbq+oqUD6DdXCgVQJeuTMfnAaSU
JZCNA/JcudC0/HWivnuXfTlwQ+9OGHUilt8aeMcu4+OIG6IZADiK+dkDiyjJm7oK
nVbI9J2Tab0IXhuRT/sIXKruNDl3ejSGGHDs7kkGxYMklRlZfianvLAi4VkP5hJg
6TMmFrOfePZ5a+LqID0UndRuzoxeO0A0X9Pi2lPUjtrRjyGgmXK9N8JoXjyWl851
nje6tllQxMAcnKejBcSjggkXdEVnDd6zNlVhoKTvpgCTgd8dU3iKjxlNoLGnE/m7
bCtIyWygCrzYTLwITQmpVI+c77XMy/3mV5/HNz75lE0B4wUzaf+JqfVhQfXiL1ES
prZwVPW04Y8flX6D+P3Q7q1HtMSobBj6wn/EfXFbKdX5JifNbvdbFRla9RfzOIH2
D97Mm/bASYWc71+SBNVy2WXczWggMVGL2bO53AXyiMe99I0QVcxGj8PlNA5R/6/T
/al6KhBSKlkKh1V8m2QV8BS+8ERcQEnJhzAhJ1/SbY7v
-----END CERTIFICATE-----
