Certificate:
    Data:
        Version: 3 (0x2)
        Serial Number: 4144 (0x1030)
    Signature Algorithm: md5WithRSAEncryption
        Issuer: C=US, ST=OH, L=Columbus, O=VikingVPN, OU=MyOrganizationalUnit, CN=VikingVPN CA/name=EasyRSA/emailAddress=me@myhost.mydomain
        Validity
            Not Before: Jan 17 01:45:33 2015 GMT
            Not After : Jan 14 01:45:33 2025 GMT
        Subject: CN=Client725Cert451787
        Subject Public Key Info:
            Public Key Algorithm: rsaEncryption
                Public-Key: (4096 bit)
                Modulus:
                    00:ad:f9:50:9e:ee:75:02:91:a9:71:e8:32:7a:52:
                    1c:4a:64:89:17:80:e4:00:c6:40:9a:da:69:42:e1:
                    8d:dc:2b:98:35:76:06:be:d1:c2:5a:b3:45:49:98:
                    df:51:ff:3e:31:bb:a3:3d:78:0a:7e:6c:7f:f3:25:
                    4a:97:66:57:45:a8:01:74:54:0a:bf:58:24:32:65:
                    18:e7:c3:d1:6e:88:74:8d:e5:e0:ee:a8:61:e6:78:
                    f2:8f:db:01:44:5c:9a:f0:96:83:ce:c1:03:e0:be:
                    8f:83:61:a0:33:0e:ab:75:69:04:a4:a2:66:ca:16:
                    7b:44:c1:ee:79:20:51:e9:8a:69:fa:ec:41:28:77:
                    77:bb:fa:f9:ed:54:69:e4:a1:56:26:9b:c6:be:0b:
                    05:24:b6:3c:c2:02:62:a2:e9:58:e8:86:58:78:81:
                    ff:e1:5a:46:20:b7:4c:01:31:77:2e:c3:50:20:a2:
                    62:d0:13:71:92:d2:5f:74:79:93:9c:36:53:34:e2:
                    35:46:77:ca:8c:a7:cd:a4:07:87:8b:d5:ad:ec:ff:
                    f6:7a:53:ef:c4:12:5a:fa:fc:65:b6:2e:2d:14:b8:
                    a4:54:ef:c1:2c:92:49:0d:78:d0:67:66:68:b9:8d:
                    02:37:35:da:1a:6d:73:cb:7f:97:43:35:19:28:1c:
                    c7:2f:24:73:54:b0:63:d9:9a:a4:7c:87:cb:13:b6:
                    78:e4:23:85:62:b4:35:7d:a2:b9:48:fd:ff:6f:7a:
                    d9:28:ff:e8:ef:8a:8c:95:37:36:ed:c6:02:b8:1a:
                    bd:dd:b6:3c:a9:2e:14:1e:32:fe:0b:f7:05:15:4e:
                    a3:d9:a9:89:04:4e:57:f1:8b:18:51:33:70:46:78:
                    51:4e:b0:f2:01:13:b9:f5:cd:49:bf:9f:83:ce:35:
                    9e:9a:da:db:9b:64:4d:95:33:81:2c:0f:6e:0f:00:
                    94:e8:f4:81:a4:d4:9b:9a:36:c4:b9:69:2b:30:0c:
                    75:ee:83:ab:9d:26:77:31:30:df:67:f3:a0:d9:99:
                    42:32:da:29:49:09:5e:64:77:6e:30:17:d6:ce:5b:
                    e3:bc:ca:4f:62:14:62:40:53:cc:ce:cc:01:ff:b3:
                    4f:69:bb:9b:8f:8a:df:ef:b8:81:ce:14:17:d8:7d:
                    5e:38:74:b6:10:fb:74:55:92:46:28:53:df:c8:82:
                    68:dd:9b:95:2b:47:77:42:71:8e:7f:3f:3f:19:e3:
                    79:8a:0f:87:f6:33:b0:b2:fd:75:8c:85:9c:22:eb:
                    f7:d8:8f:98:bc:8b:49:c5:35:f2:16:ee:cd:2b:48:
                    1f:fd:aa:28:b2:46:6a:20:df:5a:5c:dd:b2:2d:65:
                    fe:81:2b
                Exponent: 65537 (0x10001)
        X509v3 extensions:
            X509v3 Basic Constraints: 
                CA:FALSE
            Netscape Comment: 
                Easy-RSA Generated Certificate
            X509v3 Subject Key Identifier: 
                F8:6A:BE:C8:B8:39:EF:2A:98:F2:60:77:25:FB:4B:7F:A9:E7:AA:F5
            X509v3 Authority Key Identifier: 
                keyid:12:CD:60:04:D2:A0:80:9E:70:ED:C6:99:B8:7B:2C:C6:52:FD:19:A1
                DirName:/C=US/ST=OH/L=Columbus/O=VikingVPN/OU=MyOrganizationalUnit/CN=VikingVPN CA/name=EasyRSA/emailAddress=me@myhost.mydomain
                serial:CF:35:85:EE:80:BF:2A:3E

            X509v3 Extended Key Usage: 
                TLS Web Client Authentication
            X509v3 Key Usage: 
                Digital Signature
    Signature Algorithm: md5WithRSAEncryption
         6a:24:11:7a:33:c0:a3:cf:22:83:fb:ed:d1:5b:23:d3:5a:d0:
         4a:59:54:6c:df:5a:e1:9e:63:1b:d4:29:ca:c9:2f:5a:8c:01:
         92:84:21:70:a1:2e:11:e9:0b:41:44:e1:a9:cb:f6:0e:b1:28:
         94:b5:4d:9c:31:31:b5:aa:2c:06:73:db:83:52:ae:6e:63:62:
         af:25:6d:db:b9:bb:c6:e3:82:d9:5a:1a:4b:64:5b:02:64:7b:
         ad:d8:8b:a4:b0:8b:f6:16:af:97:63:58:4d:45:62:2b:1c:95:
         01:ad:be:cc:63:65:18:60:a2:d8:3b:0c:10:e6:70:58:31:6c:
         e4:bf:a2:af:7b:3f:29:78:67:17:3c:76:21:b5:c6:ed:ac:16:
         8d:75:67:ba:05:61:6c:d8:bd:f8:11:e8:0a:bb:c5:a0:8b:25:
         cb:e2:5a:da:37:c5:9d:c7:9e:fe:99:a7:79:7e:e1:3a:c8:11:
         d3:9a:18:a3:da:88:7f:b5:b9:f7:54:17:55:0b:36:87:df:10:
         ef:94:ff:3a:90:c9:1a:18:09:48:28:19:ce:b2:93:0d:02:07:
         b4:e0:70:bc:6d:c2:2e:ad:26:8c:14:ee:a3:85:cd:c9:00:bf:
         89:f3:ba:da:f1:4e:73:8a:8d:6d:36:02:0a:43:d6:10:50:1e:
         22:c8:48:ab:3c:ea:a9:70:fa:88:1a:d1:0f:90:b6:cf:95:55:
         10:27:22:15:67:d7:64:59:b6:28:43:69:dd:4f:d8:47:5f:e0:
         d1:55:f8:f1:d4:7e:fe:fe:5f:ca:68:bd:a3:02:7f:32:56:f3:
         0a:fe:f9:c9:f3:62:6c:08:94:3e:77:97:91:e6:80:05:91:6b:
         26:fc:a6:13:ea:8f:93:19:16:43:8e:79:13:95:67:ff:0d:b8:
         d1:4e:46:a4:42:e2:e8:22:a5:b5:77:43:a1:a5:70:96:d9:9d:
         55:b2:6a:53:37:ed:f8:2e:cc:69:4d:b6:ed:3c:ad:6e:69:34:
         93:1c:9f:59:68:04:ea:6d:a0:ee:77:41:9f:93:91:cf:30:cf:
         e6:02:00:3f:ea:61:9e:86:0a:68:93:c9:19:0f:60:cb:0f:53:
         41:82:07:88:c1:61:c2:ed:8d:0b:db:31:48:86:31:db:e0:bd:
         02:f3:dd:b4:f9:42:00:f3:e5:ef:6e:29:88:3b:09:39:7b:0d:
         bf:02:09:df:50:cb:a9:c0:b0:0f:62:16:37:74:9f:45:da:80:
         ee:5e:6b:00:ad:0b:ca:3d:2a:b1:77:b1:21:62:b0:6c:e9:12:
         a5:1f:48:25:5c:f4:e8:f5:82:d7:94:7a:0a:28:f8:cf:b3:cf:
         e2:23:60:3f:9e:2c:bd:3a
-----BEGIN CERTIFICATE-----
MIIGrDCCBJSgAwIBAgICEDAwDQYJKoZIhvcNAQEEBQAwgawxCzAJBgNVBAYTAlVT
MQswCQYDVQQIEwJPSDERMA8GA1UEBxMIQ29sdW1idXMxEjAQBgNVBAoTCVZpa2lu
Z1ZQTjEdMBsGA1UECxMUTXlPcmdhbml6YXRpb25hbFVuaXQxFTATBgNVBAMTDFZp
a2luZ1ZQTiBDQTEQMA4GA1UEKRMHRWFzeVJTQTEhMB8GCSqGSIb3DQEJARYSbWVA
bXlob3N0Lm15ZG9tYWluMB4XDTE1MDExNzAxNDUzM1oXDTI1MDExNDAxNDUzM1ow
HjEcMBoGA1UEAxMTQ2xpZW50NzI1Q2VydDQ1MTc4NzCCAiIwDQYJKoZIhvcNAQEB
BQADggIPADCCAgoCggIBAK35UJ7udQKRqXHoMnpSHEpkiReA5ADGQJraaULhjdwr
mDV2Br7RwlqzRUmY31H/PjG7oz14Cn5sf/MlSpdmV0WoAXRUCr9YJDJlGOfD0W6I
dI3l4O6oYeZ48o/bAURcmvCWg87BA+C+j4NhoDMOq3VpBKSiZsoWe0TB7nkgUemK
afrsQSh3d7v6+e1UaeShViabxr4LBSS2PMICYqLpWOiGWHiB/+FaRiC3TAExdy7D
UCCiYtATcZLSX3R5k5w2UzTiNUZ3yoynzaQHh4vVrez/9npT78QSWvr8ZbYuLRS4
pFTvwSySSQ140GdmaLmNAjc12hptc8t/l0M1GSgcxy8kc1SwY9mapHyHyxO2eOQj
hWK0NX2iuUj9/2962Sj/6O+KjJU3Nu3GArgavd22PKkuFB4y/gv3BRVOo9mpiQRO
V/GLGFEzcEZ4UU6w8gETufXNSb+fg841npra25tkTZUzgSwPbg8AlOj0gaTUm5o2
xLlpKzAMde6Dq50mdzEw32fzoNmZQjLaKUkJXmR3bjAX1s5b47zKT2IUYkBTzM7M
Af+zT2m7m4+K3++4gc4UF9h9Xjh0thD7dFWSRihT38iCaN2blStHd0Jxjn8/Pxnj
eYoPh/YzsLL9dYyFnCLr99iPmLyLScU18hbuzStIH/2qKLJGaiDfWlzdsi1l/oEr
AgMBAAGjggFjMIIBXzAJBgNVHRMEAjAAMC0GCWCGSAGG+EIBDQQgFh5FYXN5LVJT
QSBHZW5lcmF0ZWQgQ2VydGlmaWNhdGUwHQYDVR0OBBYEFPhqvsi4Oe8qmPJgdyX7
S3+p56r1MIHhBgNVHSMEgdkwgdaAFBLNYATSoICecO3Gmbh7LMZS/RmhoYGypIGv
MIGsMQswCQYDVQQGEwJVUzELMAkGA1UECBMCT0gxETAPBgNVBAcTCENvbHVtYnVz
MRIwEAYDVQQKEwlWaWtpbmdWUE4xHTAbBgNVBAsTFE15T3JnYW5pemF0aW9uYWxV
bml0MRUwEwYDVQQDEwxWaWtpbmdWUE4gQ0ExEDAOBgNVBCkTB0Vhc3lSU0ExITAf
BgkqhkiG9w0BCQEWEm1lQG15aG9zdC5teWRvbWFpboIJAM81he6Avyo+MBMGA1Ud
JQQMMAoGCCsGAQUFBwMCMAsGA1UdDwQEAwIHgDANBgkqhkiG9w0BAQQFAAOCAgEA
aiQRejPAo88ig/vt0Vsj01rQSllUbN9a4Z5jG9QpyskvWowBkoQhcKEuEekLQUTh
qcv2DrEolLVNnDExtaosBnPbg1KubmNiryVt27m7xuOC2VoaS2RbAmR7rdiLpLCL
9havl2NYTUViKxyVAa2+zGNlGGCi2DsMEOZwWDFs5L+ir3s/KXhnFzx2IbXG7awW
jXVnugVhbNi9+BHoCrvFoIsly+Ja2jfFncee/pmneX7hOsgR05oYo9qIf7W591QX
VQs2h98Q75T/OpDJGhgJSCgZzrKTDQIHtOBwvG3CLq0mjBTuo4XNyQC/ifO62vFO
c4qNbTYCCkPWEFAeIshIqzzqqXD6iBrRD5C2z5VVECciFWfXZFm2KENp3U/YR1/g
0VX48dR+/v5fymi9owJ/MlbzCv75yfNibAiUPneXkeaABZFrJvymE+qPkxkWQ455
E5Vn/w240U5GpELi6CKltXdDoaVwltmdVbJqUzft+C7MaU227Tytbmk0kxyfWWgE
6m2g7ndBn5ORzzDP5gIAP+phnoYKaJPJGQ9gyw9TQYIHiMFhwu2NC9sxSIYx2+C9
AvPdtPlCAPPl724piDsJOXsNvwIJ31DLqcCwD2IWN3SfRdqA7l5rAK0Lyj0qsXex
IWKwbOkSpR9IJVz06PWC15R6Cij4z7PP4iNgP54svTo=
-----END CERTIFICATE-----
