Certificate:
    Data:
        Version: 3 (0x2)
        Serial Number: 6507 (0x196b)
    Signature Algorithm: md5WithRSAEncryption
        Issuer: C=US, ST=OH, L=Columbus, O=VikingVPN, OU=MyOrganizationalUnit, CN=VikingVPN CA/name=EasyRSA/emailAddress=me@myhost.mydomain
        Validity
            Not Before: Oct 19 06:33:33 2015 GMT
            Not After : Oct 16 06:33:33 2025 GMT
        Subject: CN=Client2006Certf1f53c
        Subject Public Key Info:
            Public Key Algorithm: rsaEncryption
                Public-Key: (4096 bit)
                Modulus:
                    00:d2:bf:e4:c1:62:60:70:bd:4b:98:5f:69:da:a5:
                    8b:a1:b7:c7:b9:98:dc:42:ee:7e:10:e4:03:d2:db:
                    02:cd:cc:79:b4:dd:0a:3a:98:f9:2e:1d:57:4f:e2:
                    b0:bd:8d:e8:b7:8c:1a:f1:69:76:82:4d:a9:bb:28:
                    9e:8b:b1:a3:d3:a1:3a:4c:6e:c5:c9:49:f0:de:bc:
                    3c:4c:5b:21:c3:5b:01:44:7f:c9:7f:4b:98:39:6f:
                    4c:b9:38:fe:cc:fe:97:34:c3:16:fc:fa:ec:5a:6a:
                    df:f8:96:00:3c:fe:d1:d8:21:f9:02:d8:31:48:5c:
                    39:a1:d9:fb:ef:5d:16:1e:9c:bc:21:48:8f:e0:4e:
                    e9:e0:4d:3b:18:8f:74:41:46:47:d6:fb:bf:14:eb:
                    3d:82:a8:df:26:c0:e5:06:58:83:cf:13:02:13:41:
                    fb:33:d9:f5:6c:50:4e:91:0f:c0:f9:07:f4:f3:c3:
                    88:eb:11:a8:52:1d:e6:ec:da:93:ed:65:51:3e:d8:
                    8c:4d:9a:dd:d8:9a:a0:4b:06:ea:8b:10:8e:46:09:
                    49:dd:34:cf:28:2f:b5:e0:42:7b:07:59:d3:af:61:
                    87:13:bc:f4:87:b9:b6:14:46:f5:84:72:48:78:13:
                    7b:3d:03:40:f1:8b:bf:19:7e:ff:05:24:5d:7a:f7:
                    18:61:a9:5d:19:7f:62:d9:3d:6f:83:ef:79:fa:09:
                    5b:b3:5f:ca:31:ca:dc:63:7e:7d:72:98:2b:91:50:
                    08:b7:d0:a0:2c:1b:c4:28:25:34:79:6b:7e:6c:a5:
                    40:5a:f7:0b:0c:33:74:23:c3:34:bb:af:55:84:c6:
                    6d:da:f9:d4:60:1a:46:b0:28:44:db:c8:6d:23:ce:
                    44:f9:e2:7d:6e:13:86:0a:40:3d:57:f7:50:11:d8:
                    f0:c2:c8:fb:ff:02:c0:4d:f5:58:69:1a:d8:31:5c:
                    1e:0a:91:09:8c:7f:f1:30:7e:c7:88:98:0e:b3:13:
                    ad:1c:74:43:a6:c8:25:33:56:c6:0e:81:b9:25:42:
                    aa:00:e4:58:a3:af:b0:4e:93:d9:8f:ac:35:43:67:
                    54:d9:51:4b:d0:8c:7b:a4:b2:32:98:d3:69:0b:63:
                    6c:38:c2:dc:a7:e1:4a:e9:d3:56:07:c2:31:45:0a:
                    46:ee:74:ef:02:66:48:c6:09:7e:42:e7:6c:f2:98:
                    e7:f1:a6:0f:42:16:82:1a:4c:05:53:84:23:c3:c1:
                    10:57:50:32:0a:58:88:ba:6e:f0:96:c3:29:27:ff:
                    c4:fb:a0:29:97:c4:c8:18:9a:c9:a9:4d:5a:c0:1f:
                    73:13:e6:65:7a:01:f3:d5:fd:72:e5:1e:a2:94:eb:
                    fe:ec:e1
                Exponent: 65537 (0x10001)
        X509v3 extensions:
            X509v3 Basic Constraints: 
                CA:FALSE
            Netscape Comment: 
                Easy-RSA Generated Certificate
            X509v3 Subject Key Identifier: 
                35:1C:EB:2B:D2:08:1A:F1:49:39:32:7C:92:50:6F:B3:EA:0A:0A:10
            X509v3 Authority Key Identifier: 
                keyid:12:CD:60:04:D2:A0:80:9E:70:ED:C6:99:B8:7B:2C:C6:52:FD:19:A1
                DirName:/C=US/ST=OH/L=Columbus/O=VikingVPN/OU=MyOrganizationalUnit/CN=VikingVPN CA/name=EasyRSA/emailAddress=me@myhost.mydomain
                serial:CF:35:85:EE:80:BF:2A:3E

            X509v3 Extended Key Usage: 
                TLS Web Client Authentication
            X509v3 Key Usage: 
                Digital Signature
    Signature Algorithm: md5WithRSAEncryption
         63:e8:3e:87:25:fc:ad:72:7d:74:9b:7f:62:1f:0d:dc:0a:29:
         d5:e3:f4:e8:0e:09:95:3f:0d:ee:b1:aa:ba:1a:ff:0c:39:bf:
         ca:3b:20:8e:a8:03:2e:e0:94:15:b3:b0:b7:57:5a:ff:4d:45:
         08:49:21:94:60:0c:1c:32:6e:02:df:56:62:81:a0:bb:3e:b1:
         9a:1a:60:9a:82:5b:fa:d4:4d:1c:2f:4e:a3:7e:94:86:e7:c1:
         ed:5d:05:19:82:3f:19:c5:33:8e:dd:c4:b8:2f:03:95:55:4e:
         21:5e:a2:44:0e:45:9d:a3:20:97:2f:a9:b8:97:4e:cc:0b:39:
         ce:d4:35:28:e6:9e:c4:53:e0:2b:e8:cf:06:39:c9:28:1f:00:
         1c:39:19:9f:8a:0b:3d:f6:79:6c:31:79:40:a2:02:07:05:03:
         24:8e:7e:70:1b:8b:7b:09:86:4a:8d:d1:ec:6c:43:10:75:0f:
         1c:43:91:5c:ac:0d:de:69:94:fd:f1:6b:42:88:5a:d6:0b:dc:
         a3:ba:1f:bd:d0:6b:fc:12:a4:cb:2c:ce:ea:90:9e:9c:38:4c:
         96:4f:6c:18:8f:01:77:a8:7c:bb:5d:f4:53:d7:10:00:8a:f6:
         16:5c:dc:29:a3:39:13:27:7a:1e:6b:b5:0e:ce:69:f7:88:a1:
         b2:8b:bd:84:89:4d:f8:ea:b1:c3:1e:03:1b:08:43:36:bc:77:
         98:2e:d0:40:76:f0:72:a7:07:fb:f6:c9:28:5c:3a:69:95:d9:
         86:63:42:b6:57:5d:8c:69:68:e4:25:c0:fa:31:6d:f3:ee:2d:
         3d:b0:fc:8c:ea:71:71:81:0d:83:d4:8a:1e:37:95:74:93:e3:
         00:24:9a:49:40:69:1c:79:96:97:e8:2d:0d:7c:48:c7:cb:89:
         f3:e7:6e:d8:dd:4c:e6:74:28:bb:2b:c3:62:6d:a0:39:d3:eb:
         93:42:74:8f:e8:aa:11:cf:22:d9:63:c9:a5:82:15:e0:e4:7c:
         6b:a7:87:8a:f9:c2:3e:c1:83:14:1e:74:9e:34:15:a9:69:46:
         45:05:e2:7f:87:c6:9e:84:22:75:3b:b6:8b:52:3d:a2:56:0c:
         61:5e:eb:d3:72:76:73:e0:52:d3:31:a3:93:a7:54:b4:09:f3:
         57:47:d3:3b:a4:87:20:67:55:c8:96:22:6f:68:eb:57:6f:4b:
         34:2e:89:1f:91:30:05:02:ca:59:7a:0c:a4:4f:59:d3:c0:93:
         7a:de:29:91:0e:9b:7f:95:d9:d9:7b:2c:38:8e:fe:bf:97:39:
         2f:50:dc:c1:01:f4:fe:88:49:d2:d1:24:ad:cd:6c:20:31:16:
         16:7d:b9:2c:9f:22:14:98
-----BEGIN CERTIFICATE-----
MIIGrTCCBJWgAwIBAgICGWswDQYJKoZIhvcNAQEEBQAwgawxCzAJBgNVBAYTAlVT
MQswCQYDVQQIEwJPSDERMA8GA1UEBxMIQ29sdW1idXMxEjAQBgNVBAoTCVZpa2lu
Z1ZQTjEdMBsGA1UECxMUTXlPcmdhbml6YXRpb25hbFVuaXQxFTATBgNVBAMTDFZp
a2luZ1ZQTiBDQTEQMA4GA1UEKRMHRWFzeVJTQTEhMB8GCSqGSIb3DQEJARYSbWVA
bXlob3N0Lm15ZG9tYWluMB4XDTE1MTAxOTA2MzMzM1oXDTI1MTAxNjA2MzMzM1ow
HzEdMBsGA1UEAxMUQ2xpZW50MjAwNkNlcnRmMWY1M2MwggIiMA0GCSqGSIb3DQEB
AQUAA4ICDwAwggIKAoICAQDSv+TBYmBwvUuYX2napYuht8e5mNxC7n4Q5APS2wLN
zHm03Qo6mPkuHVdP4rC9jei3jBrxaXaCTam7KJ6LsaPToTpMbsXJSfDevDxMWyHD
WwFEf8l/S5g5b0y5OP7M/pc0wxb8+uxaat/4lgA8/tHYIfkC2DFIXDmh2fvvXRYe
nLwhSI/gTungTTsYj3RBRkfW+78U6z2CqN8mwOUGWIPPEwITQfsz2fVsUE6RD8D5
B/Tzw4jrEahSHebs2pPtZVE+2IxNmt3YmqBLBuqLEI5GCUndNM8oL7XgQnsHWdOv
YYcTvPSHubYURvWEckh4E3s9A0Dxi78Zfv8FJF169xhhqV0Zf2LZPW+D73n6CVuz
X8oxytxjfn1ymCuRUAi30KAsG8QoJTR5a35spUBa9wsMM3QjwzS7r1WExm3a+dRg
GkawKETbyG0jzkT54n1uE4YKQD1X91AR2PDCyPv/AsBN9VhpGtgxXB4KkQmMf/Ew
fseImA6zE60cdEOmyCUzVsYOgbklQqoA5Fijr7BOk9mPrDVDZ1TZUUvQjHuksjKY
02kLY2w4wtyn4Urp01YHwjFFCkbudO8CZkjGCX5C52zymOfxpg9CFoIaTAVThCPD
wRBXUDIKWIi6bvCWwykn/8T7oCmXxMgYmsmpTVrAH3MT5mV6AfPV/XLlHqKU6/7s
4QIDAQABo4IBYzCCAV8wCQYDVR0TBAIwADAtBglghkgBhvhCAQ0EIBYeRWFzeS1S
U0EgR2VuZXJhdGVkIENlcnRpZmljYXRlMB0GA1UdDgQWBBQ1HOsr0gga8Uk5MnyS
UG+z6goKEDCB4QYDVR0jBIHZMIHWgBQSzWAE0qCAnnDtxpm4eyzGUv0ZoaGBsqSB
rzCBrDELMAkGA1UEBhMCVVMxCzAJBgNVBAgTAk9IMREwDwYDVQQHEwhDb2x1bWJ1
czESMBAGA1UEChMJVmlraW5nVlBOMR0wGwYDVQQLExRNeU9yZ2FuaXphdGlvbmFs
VW5pdDEVMBMGA1UEAxMMVmlraW5nVlBOIENBMRAwDgYDVQQpEwdFYXN5UlNBMSEw
HwYJKoZIhvcNAQkBFhJtZUBteWhvc3QubXlkb21haW6CCQDPNYXugL8qPjATBgNV
HSUEDDAKBggrBgEFBQcDAjALBgNVHQ8EBAMCB4AwDQYJKoZIhvcNAQEEBQADggIB
AGPoPocl/K1yfXSbf2IfDdwKKdXj9OgOCZU/De6xqroa/ww5v8o7II6oAy7glBWz
sLdXWv9NRQhJIZRgDBwybgLfVmKBoLs+sZoaYJqCW/rUTRwvTqN+lIbnwe1dBRmC
PxnFM47dxLgvA5VVTiFeokQORZ2jIJcvqbiXTswLOc7UNSjmnsRT4CvozwY5ySgf
ABw5GZ+KCz32eWwxeUCiAgcFAySOfnAbi3sJhkqN0exsQxB1DxxDkVysDd5plP3x
a0KIWtYL3KO6H73Qa/wSpMsszuqQnpw4TJZPbBiPAXeofLtd9FPXEACK9hZc3Cmj
ORMneh5rtQ7OafeIobKLvYSJTfjqscMeAxsIQza8d5gu0EB28HKnB/v2yShcOmmV
2YZjQrZXXYxpaOQlwPoxbfPuLT2w/IzqcXGBDYPUih43lXST4wAkmklAaRx5lpfo
LQ18SMfLifPnbtjdTOZ0KLsrw2JtoDnT65NCdI/oqhHPItljyaWCFeDkfGunh4r5
wj7BgxQedJ40FalpRkUF4n+Hxp6EInU7totSPaJWDGFe69NydnPgUtMxo5OnVLQJ
81dH0zukhyBnVciWIm9o61dvSzQuiR+RMAUCyll6DKRPWdPAk3reKZEOm3+V2dl7
LDiO/r+XOS9Q3MEB9P6ISdLRJK3NbCAxFhZ9uSyfIhSY
-----END CERTIFICATE-----
