Certificate:
    Data:
        Version: 3 (0x2)
        Serial Number: 545 (0x221)
    Signature Algorithm: md5WithRSAEncryption
        Issuer: C=US, ST=OH, L=Columbus, O=VikingVPN, OU=MyOrganizationalUnit, CN=VikingVPN CA/name=EasyRSA/emailAddress=me@myhost.mydomain
        Validity
            Not Before: Dec 10 06:48:38 2013 GMT
            Not After : Dec  8 06:48:38 2023 GMT
        Subject: CN=Client226Cert13d03a
        Subject Public Key Info:
            Public Key Algorithm: rsaEncryption
                Public-Key: (4096 bit)
                Modulus:
                    00:a6:fd:e4:c3:90:d1:ba:fb:46:a2:40:f7:88:b7:
                    e7:e2:db:0e:ea:47:04:5b:9a:ec:1c:e6:13:31:99:
                    f8:a1:3a:59:4e:ab:53:2d:b0:3a:cc:99:23:36:12:
                    e5:2b:ff:72:9f:a5:71:ab:9e:9b:31:d2:2d:9d:cb:
                    4b:5e:0b:c5:43:c8:50:c3:ca:96:03:4b:fe:0a:55:
                    fe:35:16:8a:a7:b4:bb:03:b8:b5:96:8a:f5:e9:b8:
                    1d:bd:c8:9a:ac:87:04:1c:0e:02:c9:47:be:ac:35:
                    1e:38:c6:be:aa:ec:93:d4:77:50:b1:c0:05:cc:21:
                    a3:92:a4:b3:c0:a3:3b:e0:a9:c4:ca:cb:62:39:2e:
                    04:8c:76:8a:02:bc:68:98:18:8d:2d:f9:4c:fb:ec:
                    9a:03:8d:fa:7c:20:20:c0:6e:29:40:aa:af:a0:76:
                    d4:34:ac:80:89:5f:73:fd:ce:16:f8:f4:52:ee:39:
                    78:fd:a9:50:f0:7e:5a:63:ba:9d:3b:be:43:a7:82:
                    1f:d9:18:08:48:ef:83:28:a4:bf:e4:24:42:d0:72:
                    c7:47:c6:51:4f:2b:0c:e5:38:e1:69:97:37:8e:ca:
                    7c:53:f9:76:5e:8f:e0:3c:e6:8e:db:44:da:cb:1c:
                    2e:ae:fd:fe:59:97:f9:99:44:7d:81:6a:82:60:0a:
                    15:b4:38:26:fa:7d:80:56:90:a6:07:1b:c1:80:01:
                    a5:6c:c4:12:c1:69:b3:c1:a3:59:6f:59:ad:f7:39:
                    e6:17:19:53:8f:44:47:ae:c9:82:ed:09:5d:cd:cd:
                    8b:23:6d:1e:2c:d3:0f:9c:4c:44:a5:0a:c4:4a:bd:
                    b7:f5:f2:7b:1a:81:41:c6:07:5b:13:a4:64:1a:1a:
                    bf:fc:bb:1a:b4:f4:3a:5e:fa:06:82:a8:7c:43:27:
                    62:b6:2f:80:77:73:bf:eb:ef:e4:66:bf:99:3e:b5:
                    6e:40:e0:30:92:9f:5e:d8:ca:f0:5f:ff:37:71:c8:
                    a4:24:0a:31:4c:9c:2b:3a:72:1d:7d:01:66:ba:03:
                    25:29:24:82:83:43:17:73:b0:de:56:20:40:b4:35:
                    6d:93:04:34:7e:75:b8:46:1f:93:01:6f:d4:4a:07:
                    d2:51:66:c0:f7:98:6b:9d:fe:70:96:80:56:42:ac:
                    e8:d3:be:0d:22:fd:89:2d:b9:b2:a9:88:4b:ef:92:
                    d5:0c:be:c0:f2:03:23:45:1e:6c:41:7f:b7:2b:f9:
                    a2:ed:23:19:79:9e:2f:35:23:64:25:3e:94:a1:d3:
                    c7:7f:2e:29:44:80:37:37:e2:b6:76:ee:5e:aa:ba:
                    67:58:f9:9e:8d:73:99:32:dd:5c:36:64:31:fd:0c:
                    8e:10:47
                Exponent: 65537 (0x10001)
        X509v3 extensions:
            X509v3 Basic Constraints: 
                CA:FALSE
            Netscape Comment: 
                Easy-RSA Generated Certificate
            X509v3 Subject Key Identifier: 
                5E:00:9F:4B:9F:6E:1E:C9:BF:63:76:AF:08:CE:E2:51:09:2B:40:4D
            X509v3 Authority Key Identifier: 
                keyid:12:CD:60:04:D2:A0:80:9E:70:ED:C6:99:B8:7B:2C:C6:52:FD:19:A1
                DirName:/C=US/ST=OH/L=Columbus/O=VikingVPN/OU=MyOrganizationalUnit/CN=VikingVPN CA/name=EasyRSA/emailAddress=me@myhost.mydomain
                serial:CF:35:85:EE:80:BF:2A:3E

            X509v3 Extended Key Usage: 
                TLS Web Client Authentication
            X509v3 Key Usage: 
                Digital Signature
    Signature Algorithm: md5WithRSAEncryption
         4b:c7:f9:d8:9f:8a:16:9c:10:ae:05:29:3b:1d:61:18:fd:9b:
         11:74:35:fa:c7:1c:db:83:27:d9:d8:3e:22:a2:69:de:8d:ed:
         71:07:ad:82:06:ac:0e:3b:03:51:ab:bd:bd:4c:a0:45:28:f3:
         92:2f:91:15:b9:3c:94:1d:42:4a:97:7b:c6:ff:2e:b8:fc:fb:
         92:f0:4f:be:a1:ca:a4:45:21:71:8f:d0:76:d7:98:44:9f:18:
         22:d9:3c:aa:4d:30:18:5c:51:57:b6:2a:8f:bb:a3:67:7a:62:
         63:53:b7:e5:68:87:24:b5:35:53:b7:10:fe:43:80:91:99:fb:
         c6:32:d9:01:4c:aa:04:4c:dc:83:81:9f:9f:95:ad:c5:0e:c5:
         ba:b1:eb:00:ba:99:bf:1f:af:0d:5f:0b:93:6f:26:aa:48:fc:
         d2:5d:b4:0d:9c:9f:dc:09:c5:46:14:7e:a0:9c:e1:83:9c:fa:
         bd:16:84:f5:a0:af:fd:c7:6d:de:82:0d:81:78:19:cd:3a:5c:
         a4:e6:66:a6:05:16:b3:5b:2e:9a:f5:4a:eb:07:8e:92:bc:10:
         04:e0:73:55:b4:e5:c3:0a:ee:ae:ed:28:aa:5a:8d:e4:40:bf:
         e3:8d:35:d2:13:2c:c8:71:aa:d4:43:f0:29:dd:a1:d5:eb:03:
         4c:56:99:94:e9:9e:78:6e:b8:e3:d0:3f:4f:c4:10:b3:64:f6:
         27:b6:ec:cf:dd:df:d3:2a:d5:95:41:6a:a3:b1:8f:5e:13:32:
         b0:8a:a5:be:9d:a8:b3:4e:c1:41:eb:ee:4b:d9:d7:ba:99:b1:
         90:1f:9b:83:7a:60:37:fe:f8:eb:3f:52:cf:4e:b0:83:30:b3:
         46:08:6a:66:4b:55:05:a8:52:0d:60:dd:12:34:d9:bd:15:d2:
         8b:58:70:c2:90:2f:e5:7e:ed:43:56:15:6d:27:95:a8:18:c3:
         11:d6:79:8f:d3:ea:a1:65:a4:19:06:0b:98:62:61:01:8e:8c:
         ed:c1:33:99:80:74:19:6b:ae:9a:05:8e:ea:ad:99:4c:5a:a7:
         3c:7b:64:27:86:99:7d:30:52:29:60:4e:06:2d:67:f5:71:cf:
         2b:6e:ae:37:91:26:19:6b:37:d3:54:b5:14:48:47:f8:0f:be:
         b6:b8:89:76:62:ea:f3:4f:43:73:cc:82:67:2c:08:8c:4d:db:
         33:da:6d:c1:b5:23:6c:c0:b6:d3:05:96:a3:df:4d:5b:1a:45:
         b6:2a:57:1d:af:e3:94:d3:a4:77:7a:10:55:89:34:f5:cf:d9:
         2a:a6:96:aa:71:1c:62:28:9e:65:7e:cd:63:ea:b2:f3:1e:ee:
         ac:db:78:e5:b9:af:e2:83
-----BEGIN CERTIFICATE-----
MIIGrDCCBJSgAwIBAgICAiEwDQYJKoZIhvcNAQEEBQAwgawxCzAJBgNVBAYTAlVT
MQswCQYDVQQIEwJPSDERMA8GA1UEBxMIQ29sdW1idXMxEjAQBgNVBAoTCVZpa2lu
Z1ZQTjEdMBsGA1UECxMUTXlPcmdhbml6YXRpb25hbFVuaXQxFTATBgNVBAMTDFZp
a2luZ1ZQTiBDQTEQMA4GA1UEKRMHRWFzeVJTQTEhMB8GCSqGSIb3DQEJARYSbWVA
bXlob3N0Lm15ZG9tYWluMB4XDTEzMTIxMDA2NDgzOFoXDTIzMTIwODA2NDgzOFow
HjEcMBoGA1UEAxMTQ2xpZW50MjI2Q2VydDEzZDAzYTCCAiIwDQYJKoZIhvcNAQEB
BQADggIPADCCAgoCggIBAKb95MOQ0br7RqJA94i35+LbDupHBFua7BzmEzGZ+KE6
WU6rUy2wOsyZIzYS5Sv/cp+lcauemzHSLZ3LS14LxUPIUMPKlgNL/gpV/jUWiqe0
uwO4tZaK9em4Hb3ImqyHBBwOAslHvqw1HjjGvqrsk9R3ULHABcwho5Kks8CjO+Cp
xMrLYjkuBIx2igK8aJgYjS35TPvsmgON+nwgIMBuKUCqr6B21DSsgIlfc/3OFvj0
Uu45eP2pUPB+WmO6nTu+Q6eCH9kYCEjvgyikv+QkQtByx0fGUU8rDOU44WmXN47K
fFP5dl6P4DzmjttE2sscLq79/lmX+ZlEfYFqgmAKFbQ4Jvp9gFaQpgcbwYABpWzE
EsFps8GjWW9Zrfc55hcZU49ER67Jgu0JXc3NiyNtHizTD5xMRKUKxEq9t/XyexqB
QcYHWxOkZBoav/y7GrT0Ol76BoKofEMnYrYvgHdzv+vv5Ga/mT61bkDgMJKfXtjK
8F//N3HIpCQKMUycKzpyHX0BZroDJSkkgoNDF3Ow3lYgQLQ1bZMENH51uEYfkwFv
1EoH0lFmwPeYa53+cJaAVkKs6NO+DSL9iS25sqmIS++S1Qy+wPIDI0UebEF/tyv5
ou0jGXmeLzUjZCU+lKHTx38uKUSANzfitnbuXqq6Z1j5no1zmTLdXDZkMf0MjhBH
AgMBAAGjggFjMIIBXzAJBgNVHRMEAjAAMC0GCWCGSAGG+EIBDQQgFh5FYXN5LVJT
QSBHZW5lcmF0ZWQgQ2VydGlmaWNhdGUwHQYDVR0OBBYEFF4An0ufbh7Jv2N2rwjO
4lEJK0BNMIHhBgNVHSMEgdkwgdaAFBLNYATSoICecO3Gmbh7LMZS/RmhoYGypIGv
MIGsMQswCQYDVQQGEwJVUzELMAkGA1UECBMCT0gxETAPBgNVBAcTCENvbHVtYnVz
MRIwEAYDVQQKEwlWaWtpbmdWUE4xHTAbBgNVBAsTFE15T3JnYW5pemF0aW9uYWxV
bml0MRUwEwYDVQQDEwxWaWtpbmdWUE4gQ0ExEDAOBgNVBCkTB0Vhc3lSU0ExITAf
BgkqhkiG9w0BCQEWEm1lQG15aG9zdC5teWRvbWFpboIJAM81he6Avyo+MBMGA1Ud
JQQMMAoGCCsGAQUFBwMCMAsGA1UdDwQEAwIHgDANBgkqhkiG9w0BAQQFAAOCAgEA
S8f52J+KFpwQrgUpOx1hGP2bEXQ1+scc24Mn2dg+IqJp3o3tcQetggasDjsDUau9
vUygRSjzki+RFbk8lB1CSpd7xv8uuPz7kvBPvqHKpEUhcY/QdteYRJ8YItk8qk0w
GFxRV7Yqj7ujZ3piY1O35WiHJLU1U7cQ/kOAkZn7xjLZAUyqBEzcg4Gfn5WtxQ7F
urHrALqZvx+vDV8Lk28mqkj80l20DZyf3AnFRhR+oJzhg5z6vRaE9aCv/cdt3oIN
gXgZzTpcpOZmpgUWs1sumvVK6weOkrwQBOBzVbTlwwruru0oqlqN5EC/44010hMs
yHGq1EPwKd2h1esDTFaZlOmeeG6449A/T8QQs2T2J7bsz93f0yrVlUFqo7GPXhMy
sIqlvp2os07BQevuS9nXupmxkB+bg3pgN/746z9Sz06wgzCzRghqZktVBahSDWDd
EjTZvRXSi1hwwpAv5X7tQ1YVbSeVqBjDEdZ5j9PqoWWkGQYLmGJhAY6M7cEzmYB0
GWuumgWO6q2ZTFqnPHtkJ4aZfTBSKWBOBi1n9XHPK26uN5EmGWs301S1FEhH+A++
triJdmLq809Dc8yCZywIjE3bM9ptwbUjbMC20wWWo99NWxpFtipXHa/jlNOkd3oQ
VYk09c/ZKqaWqnEcYiieZX7NY+qy8x7urNt45bmv4oM=
-----END CERTIFICATE-----
