Certificate:
    Data:
        Version: 3 (0x2)
        Serial Number: 3379 (0xd33)
    Signature Algorithm: md5WithRSAEncryption
        Issuer: C=US, ST=OH, L=Columbus, O=VikingVPN, OU=MyOrganizationalUnit, CN=VikingVPN CA/name=EasyRSA/emailAddress=me@myhost.mydomain
        Validity
            Not Before: Nov 13 07:59:04 2014 GMT
            Not After : Nov 10 07:59:04 2024 GMT
        Subject: CN=Client1137Cert4dd3c0
        Subject Public Key Info:
            Public Key Algorithm: rsaEncryption
                Public-Key: (4096 bit)
                Modulus:
                    00:eb:cf:2b:b7:e1:6a:8d:ff:2d:5d:8f:34:33:f6:
                    c9:e7:59:39:fd:95:32:8d:29:51:17:0f:cf:38:41:
                    dd:c4:70:8d:55:6d:74:c8:ef:cb:99:32:7b:9d:c7:
                    d2:c6:03:df:02:38:95:a6:c9:d4:d1:d6:3d:8e:92:
                    96:74:e7:f1:20:50:55:dc:a1:9a:5b:9b:e1:4f:61:
                    2a:32:79:2e:0e:70:dd:f0:3b:b4:79:24:b2:3e:b0:
                    07:f2:53:0d:a2:c5:eb:a8:5a:1f:7b:8b:45:60:9c:
                    2b:39:8a:f0:70:69:88:4f:e1:29:ea:f4:04:fb:a0:
                    77:23:ad:91:0c:ec:7a:c1:01:9f:9c:58:eb:08:69:
                    d3:f9:d6:c1:f1:98:df:ed:cd:ec:13:c6:df:8c:a2:
                    e2:48:c6:7c:51:0b:61:52:ef:15:ef:9c:83:ab:c4:
                    83:6d:70:8c:0e:6f:81:ed:f3:f2:cb:35:05:f1:e6:
                    b9:6c:80:15:c7:5a:a4:ca:ce:82:d9:85:71:c1:40:
                    14:18:ca:be:89:af:c5:c2:65:b6:8e:20:c8:3e:f6:
                    ee:df:21:65:8c:cb:67:ba:47:0d:dd:59:cd:aa:7d:
                    03:9a:e4:c1:07:57:22:85:e6:9a:01:6b:5f:31:32:
                    23:d1:92:1b:6a:54:03:2a:57:8c:91:02:bc:3d:99:
                    fe:96:de:8b:c7:c2:ba:13:0d:43:5c:21:f8:ee:37:
                    7b:92:fa:ad:55:00:95:e7:cb:26:e1:61:6b:ab:0f:
                    4e:11:11:a4:0b:22:dc:9f:6c:d3:e6:a8:f5:4a:fa:
                    1b:13:7b:51:6b:55:3b:3e:a1:af:08:01:b6:d6:50:
                    c9:59:41:1d:60:04:59:47:6c:2e:5d:64:09:92:79:
                    31:66:49:1c:e2:5d:2f:6f:9e:f7:69:d5:37:88:41:
                    4f:b6:dd:59:e6:22:1c:34:39:60:4c:8b:1a:fd:96:
                    02:c1:ff:2d:fa:aa:cf:27:71:cf:cd:3f:fb:e6:24:
                    72:f4:94:9a:ac:c9:2b:da:bf:db:b0:aa:23:8f:af:
                    f2:ea:59:6d:26:a5:d9:bc:49:24:34:14:c9:57:46:
                    07:40:99:9a:be:87:c1:31:53:22:9a:cc:1e:66:44:
                    bd:4e:83:40:22:5f:1f:be:28:4e:4c:d8:4f:12:ef:
                    72:3d:e3:45:f6:21:1a:1c:1e:a4:c1:4c:74:fa:a6:
                    27:ab:1b:3c:b7:7f:de:7b:3c:ed:95:95:a4:fe:e6:
                    2f:e0:d8:e8:7f:cb:da:46:f2:32:f5:83:41:db:e2:
                    a0:04:19:6a:5d:47:33:04:f5:dc:97:d0:6a:99:8d:
                    cc:d1:af:28:01:ed:dc:ec:a2:9a:9b:42:27:3d:48:
                    12:a8:1f
                Exponent: 65537 (0x10001)
        X509v3 extensions:
            X509v3 Basic Constraints: 
                CA:FALSE
            Netscape Comment: 
                Easy-RSA Generated Certificate
            X509v3 Subject Key Identifier: 
                80:EB:FA:66:EE:B5:62:6E:EA:7E:6D:6E:E7:31:AE:5D:11:19:C7:90
            X509v3 Authority Key Identifier: 
                keyid:12:CD:60:04:D2:A0:80:9E:70:ED:C6:99:B8:7B:2C:C6:52:FD:19:A1
                DirName:/C=US/ST=OH/L=Columbus/O=VikingVPN/OU=MyOrganizationalUnit/CN=VikingVPN CA/name=EasyRSA/emailAddress=me@myhost.mydomain
                serial:CF:35:85:EE:80:BF:2A:3E

            X509v3 Extended Key Usage: 
                TLS Web Client Authentication
            X509v3 Key Usage: 
                Digital Signature
    Signature Algorithm: md5WithRSAEncryption
         d8:f1:31:03:f9:f7:2a:c9:4b:e9:5a:77:a1:2d:a6:c1:45:7b:
         28:01:83:83:2e:f7:15:33:ae:37:0f:86:ce:5c:69:5b:a4:65:
         b8:1c:b2:50:31:0d:14:a5:eb:67:36:97:67:e8:a2:9d:3f:a1:
         75:e0:58:19:46:e7:1b:51:20:b2:fe:0d:a8:06:ea:de:93:f8:
         00:8b:fb:11:d6:0b:59:26:2c:f0:1c:17:04:ad:92:87:1a:f6:
         d5:c7:ea:2e:81:af:41:de:ea:0e:0d:37:a7:06:37:b8:4b:6b:
         9f:f2:5b:7d:df:be:15:9c:93:0d:d7:63:7b:67:69:18:3d:f7:
         db:92:ec:ea:d1:9f:a6:e5:26:bc:a1:56:eb:3d:42:17:69:55:
         a0:88:46:76:1a:b8:b6:df:bf:48:9b:e0:b4:a7:94:91:fe:49:
         3f:ba:ad:c2:7b:8f:76:a4:53:80:bd:87:fc:21:eb:5b:0d:ef:
         c8:7b:3c:10:07:34:11:c3:d0:ce:6c:d5:42:4f:36:aa:44:81:
         92:7b:10:3f:8a:b9:69:dc:94:ed:ae:b7:29:9a:b6:79:6f:c6:
         24:de:35:3f:fb:2d:3e:d0:47:f3:23:04:13:c2:b3:ad:3f:06:
         6c:14:bd:fe:57:07:92:dc:26:ce:a8:9d:ab:e9:40:b1:ca:66:
         9b:20:33:45:e1:55:59:3f:d2:d4:63:ff:27:d7:f0:ec:96:d9:
         34:df:0a:79:1d:11:20:3e:57:66:f8:a4:fb:c0:bc:3c:a3:59:
         fe:c2:45:1e:fc:6f:c5:8e:b7:89:f0:48:e6:4b:c7:fc:c2:6d:
         ff:6d:3b:b0:44:52:f2:b2:6e:72:08:fa:4e:e1:49:25:ea:eb:
         f2:2a:ce:d9:a9:79:ec:66:7f:d5:03:41:f1:38:85:7e:2a:06:
         a8:1e:9f:4c:8a:11:e2:53:25:59:8a:5f:21:05:b4:98:0f:67:
         42:6b:4d:ee:4b:5d:4a:7e:3d:01:66:12:b9:21:3f:17:f2:a0:
         63:ac:e4:17:b9:9d:fc:a0:d6:73:4b:ac:81:93:83:3b:ee:67:
         0c:28:23:a5:44:cb:e7:94:3b:51:06:0c:ab:9f:e8:6a:50:21:
         fd:78:e2:4d:0c:b4:f9:cc:85:fc:e0:0a:00:70:7e:cf:c4:72:
         70:2d:e2:fb:89:c4:3d:76:f0:86:56:9d:c7:fb:b7:b7:51:ce:
         f1:06:bd:11:81:61:b3:4d:59:74:bd:26:88:61:e0:8b:4b:96:
         9e:38:c8:58:70:ad:22:84:4b:36:1b:7e:88:c2:ea:60:e7:c8:
         ea:4a:e9:90:25:39:48:89:db:6f:91:be:22:00:a4:96:4c:fe:
         73:12:2f:ea:9d:86:45:6a
-----BEGIN CERTIFICATE-----
MIIGrTCCBJWgAwIBAgICDTMwDQYJKoZIhvcNAQEEBQAwgawxCzAJBgNVBAYTAlVT
MQswCQYDVQQIEwJPSDERMA8GA1UEBxMIQ29sdW1idXMxEjAQBgNVBAoTCVZpa2lu
Z1ZQTjEdMBsGA1UECxMUTXlPcmdhbml6YXRpb25hbFVuaXQxFTATBgNVBAMTDFZp
a2luZ1ZQTiBDQTEQMA4GA1UEKRMHRWFzeVJTQTEhMB8GCSqGSIb3DQEJARYSbWVA
bXlob3N0Lm15ZG9tYWluMB4XDTE0MTExMzA3NTkwNFoXDTI0MTExMDA3NTkwNFow
HzEdMBsGA1UEAxMUQ2xpZW50MTEzN0NlcnQ0ZGQzYzAwggIiMA0GCSqGSIb3DQEB
AQUAA4ICDwAwggIKAoICAQDrzyu34WqN/y1djzQz9snnWTn9lTKNKVEXD884Qd3E
cI1VbXTI78uZMnudx9LGA98COJWmydTR1j2OkpZ05/EgUFXcoZpbm+FPYSoyeS4O
cN3wO7R5JLI+sAfyUw2ixeuoWh97i0VgnCs5ivBwaYhP4Snq9AT7oHcjrZEM7HrB
AZ+cWOsIadP51sHxmN/tzewTxt+MouJIxnxRC2FS7xXvnIOrxINtcIwOb4Ht8/LL
NQXx5rlsgBXHWqTKzoLZhXHBQBQYyr6Jr8XCZbaOIMg+9u7fIWWMy2e6Rw3dWc2q
fQOa5MEHVyKF5poBa18xMiPRkhtqVAMqV4yRArw9mf6W3ovHwroTDUNcIfjuN3uS
+q1VAJXnyybhYWurD04REaQLItyfbNPmqPVK+hsTe1FrVTs+oa8IAbbWUMlZQR1g
BFlHbC5dZAmSeTFmSRziXS9vnvdp1TeIQU+23VnmIhw0OWBMixr9lgLB/y36qs8n
cc/NP/vmJHL0lJqsySvav9uwqiOPr/LqWW0mpdm8SSQ0FMlXRgdAmZq+h8ExUyKa
zB5mRL1Og0AiXx++KE5M2E8S73I940X2IRocHqTBTHT6pierGzy3f957PO2VlaT+
5i/g2Oh/y9pG8jL1g0Hb4qAEGWpdRzME9dyX0GqZjczRrygB7dzsopqbQic9SBKo
HwIDAQABo4IBYzCCAV8wCQYDVR0TBAIwADAtBglghkgBhvhCAQ0EIBYeRWFzeS1S
U0EgR2VuZXJhdGVkIENlcnRpZmljYXRlMB0GA1UdDgQWBBSA6/pm7rVibup+bW7n
Ma5dERnHkDCB4QYDVR0jBIHZMIHWgBQSzWAE0qCAnnDtxpm4eyzGUv0ZoaGBsqSB
rzCBrDELMAkGA1UEBhMCVVMxCzAJBgNVBAgTAk9IMREwDwYDVQQHEwhDb2x1bWJ1
czESMBAGA1UEChMJVmlraW5nVlBOMR0wGwYDVQQLExRNeU9yZ2FuaXphdGlvbmFs
VW5pdDEVMBMGA1UEAxMMVmlraW5nVlBOIENBMRAwDgYDVQQpEwdFYXN5UlNBMSEw
HwYJKoZIhvcNAQkBFhJtZUBteWhvc3QubXlkb21haW6CCQDPNYXugL8qPjATBgNV
HSUEDDAKBggrBgEFBQcDAjALBgNVHQ8EBAMCB4AwDQYJKoZIhvcNAQEEBQADggIB
ANjxMQP59yrJS+lad6EtpsFFeygBg4Mu9xUzrjcPhs5caVukZbgcslAxDRSl62c2
l2foop0/oXXgWBlG5xtRILL+DagG6t6T+ACL+xHWC1kmLPAcFwStkoca9tXH6i6B
r0He6g4NN6cGN7hLa5/yW33fvhWckw3XY3tnaRg999uS7OrRn6blJryhVus9Qhdp
VaCIRnYauLbfv0ib4LSnlJH+ST+6rcJ7j3akU4C9h/wh61sN78h7PBAHNBHD0M5s
1UJPNqpEgZJ7ED+KuWnclO2utymatnlvxiTeNT/7LT7QR/MjBBPCs60/BmwUvf5X
B5LcJs6onavpQLHKZpsgM0XhVVk/0tRj/yfX8OyW2TTfCnkdESA+V2b4pPvAvDyj
Wf7CRR78b8WOt4nwSOZLx/zCbf9tO7BEUvKybnII+k7hSSXq6/Iqztmpeexmf9UD
QfE4hX4qBqgen0yKEeJTJVmKXyEFtJgPZ0JrTe5LXUp+PQFmErkhPxfyoGOs5Be5
nfyg1nNLrIGTgzvuZwwoI6VEy+eUO1EGDKuf6GpQIf144k0MtPnMhfzgCgBwfs/E
cnAt4vuJxD128IZWncf7t7dRzvEGvRGBYbNNWXS9Johh4ItLlp44yFhwrSKESzYb
fojC6mDnyOpK6ZAlOUiJ22+RviIApJZM/nMSL+qdhkVq
-----END CERTIFICATE-----
