Certificate:
    Data:
        Version: 3 (0x2)
        Serial Number: 12272 (0x2ff0)
    Signature Algorithm: sha256WithRSAEncryption
        Issuer: C=US, ST=OH, L=Columbus, O=VikingVPN, OU=MyOrganizationalUnit, CN=VikingVPN CA/name=EasyRSA/emailAddress=me@myhost.mydomain
        Validity
            Not Before: Dec 20 20:37:47 2017 GMT
            Not After : Dec 18 20:37:47 2027 GMT
        Subject: CN=Client2904Cert87edeb
        Subject Public Key Info:
            Public Key Algorithm: rsaEncryption
                Public-Key: (4096 bit)
                Modulus:
                    00:b8:06:fc:dd:42:d0:21:d9:4c:ec:ce:6b:fb:10:
                    5e:e1:1c:ef:c5:dc:85:87:fe:b2:90:d6:dc:c1:5e:
                    f6:bb:de:d4:de:8b:32:5b:12:30:de:0d:2d:00:77:
                    9d:f6:be:4c:0b:0e:64:b0:8c:39:04:42:03:b2:44:
                    6b:67:36:2e:34:41:2a:b8:06:1b:bd:9f:21:a2:98:
                    96:46:a1:30:1f:7d:90:ee:34:cb:9f:6e:9e:7d:02:
                    5d:50:8b:84:ee:8f:e8:fe:7f:fa:a9:c9:2b:81:49:
                    22:2c:cd:71:b7:33:c1:e5:4b:c7:6b:da:40:73:ab:
                    96:95:64:20:88:fc:9d:7b:58:a0:e7:9e:ed:44:83:
                    74:15:7d:b3:3b:3a:02:d9:71:12:a2:e6:41:f9:7f:
                    02:7f:f6:f2:7a:9a:73:1a:80:bb:74:19:03:44:ae:
                    13:61:6a:76:a2:bb:e7:7f:b3:4d:5e:9e:bb:d8:92:
                    d1:71:0a:ef:d0:1a:cd:18:44:06:71:16:62:0f:e5:
                    a3:42:f8:87:e0:96:da:62:cd:d7:7b:72:fe:9d:6f:
                    8d:36:d3:91:17:90:84:b4:53:d6:e5:93:1e:08:bf:
                    22:01:42:20:10:29:3b:8f:92:c0:98:97:14:07:be:
                    69:a9:d5:a6:2c:e4:7a:19:b7:bd:49:18:3a:35:63:
                    02:a7:bc:fc:3e:11:b0:f3:22:70:1c:9d:48:59:0b:
                    2e:77:95:9c:8b:24:4d:13:6e:6c:59:c4:8a:ca:08:
                    89:29:b2:43:6b:9a:e9:db:0f:52:d6:9c:5c:e2:ac:
                    3b:0c:5b:b4:9c:8a:d6:79:c2:5c:e8:b3:0b:39:76:
                    46:2d:27:d4:00:e8:04:b2:5e:ba:9a:19:73:4d:6c:
                    6a:12:ee:34:62:0f:a5:87:f9:82:41:29:0b:70:9e:
                    e9:6c:23:66:4e:5a:cf:6b:8d:c3:81:0b:7a:4c:e4:
                    f9:00:33:42:2f:05:42:d9:0f:d4:26:2f:a4:a8:93:
                    de:3f:83:eb:e9:a3:37:cc:0a:3d:ef:6c:3a:25:5a:
                    5a:f3:c1:11:93:94:54:8f:23:74:ec:50:49:e6:a9:
                    1a:80:1e:1a:30:28:27:85:a7:00:eb:01:77:dc:54:
                    94:43:fe:08:35:94:79:40:8e:bc:22:b2:8b:f5:66:
                    74:83:24:0c:3f:ae:8a:14:d8:a1:8c:77:08:a4:d4:
                    75:71:3d:fc:ae:f0:c2:0a:51:c9:19:86:4c:4d:91:
                    6d:59:4c:e9:59:39:f7:15:0c:43:2e:6b:7e:26:93:
                    a3:d5:e2:24:9d:ae:98:9c:d2:d0:38:5d:79:4c:78:
                    45:70:1a:78:18:4f:2b:cd:d2:56:42:62:fd:41:83:
                    5b:30:f1
                Exponent: 65537 (0x10001)
        X509v3 extensions:
            X509v3 Basic Constraints: 
                CA:FALSE
            Netscape Comment: 
                Easy-RSA Generated Certificate
            X509v3 Subject Key Identifier: 
                DB:B6:DF:E8:96:FD:9C:54:7A:DE:85:CE:6D:94:13:C2:17:B9:48:03
            X509v3 Authority Key Identifier: 
                keyid:12:CD:60:04:D2:A0:80:9E:70:ED:C6:99:B8:7B:2C:C6:52:FD:19:A1
                DirName:/C=US/ST=OH/L=Columbus/O=VikingVPN/OU=MyOrganizationalUnit/CN=VikingVPN CA/name=EasyRSA/emailAddress=me@myhost.mydomain
                serial:CF:35:85:EE:80:BF:2A:3E

            X509v3 Extended Key Usage: 
                TLS Web Client Authentication
            X509v3 Key Usage: 
                Digital Signature
    Signature Algorithm: sha256WithRSAEncryption
         2d:b1:8c:5d:54:aa:58:a1:4f:ae:9e:fd:cd:4a:c2:37:23:a3:
         9d:7e:44:3a:82:00:8e:c9:dc:88:e5:7f:0e:a3:55:83:ea:8a:
         97:31:e4:a3:e5:45:ba:38:20:36:ac:b0:3a:cd:78:9b:64:f0:
         1a:96:3a:15:51:0f:81:f9:20:db:1b:e8:21:3b:4b:3d:01:ec:
         41:7a:ce:a6:eb:1a:85:78:6f:ec:a9:06:6c:d5:ed:38:2c:ac:
         3d:eb:90:14:d1:86:51:a4:57:d7:e0:e2:b0:27:22:46:ce:8b:
         92:84:12:d4:2f:35:73:b1:0c:e6:8c:76:8f:c9:0d:4a:68:43:
         ee:36:23:7a:65:eb:5d:cc:57:87:90:75:b4:37:80:d1:b6:8d:
         ad:22:d4:a9:07:37:f6:36:10:0d:4c:5b:be:77:c6:d4:e3:c9:
         80:93:f2:17:c2:85:a0:dd:ab:96:c9:76:55:23:34:e0:9d:80:
         6c:46:57:97:04:99:fd:bd:30:42:30:18:32:4b:40:1e:24:c5:
         10:7c:83:b8:8f:28:d0:dc:70:39:f5:3e:2e:ea:fa:5e:82:8b:
         6a:7f:44:1f:ef:05:9a:11:aa:1e:c5:5d:95:62:f2:00:72:21:
         89:32:27:57:d4:b5:e9:9c:30:75:a9:09:10:e0:d5:83:81:56:
         70:9a:4d:c9:87:08:8a:48:e5:92:4d:bc:2b:dd:9d:96:aa:9d:
         32:88:6d:5c:89:e5:5a:4b:1b:77:26:d8:e3:5e:da:c6:7b:6f:
         fb:72:17:76:11:c8:e3:98:27:1d:d2:4e:60:d0:4e:f7:83:a1:
         a4:7c:3a:bc:c2:6f:5d:51:8a:eb:27:85:b5:a7:7f:85:b4:80:
         e1:60:80:97:ea:69:e0:4d:ff:d4:06:7d:95:75:80:15:ee:54:
         4c:22:55:57:74:90:b2:50:af:29:0e:84:61:bf:e1:f6:ca:5a:
         2d:7a:ec:27:4a:d5:73:dc:b4:f7:a0:c3:03:34:04:36:dd:fc:
         59:8e:63:d1:78:12:cf:77:56:66:ee:78:1c:1c:29:ab:e9:69:
         3c:a7:00:d7:7e:d2:af:cd:d8:fc:90:d8:19:ba:19:94:b2:f7:
         63:58:4d:9d:83:99:f0:4e:21:fb:a4:09:a7:31:ff:14:f9:e1:
         92:27:80:ad:76:ff:2c:a6:6e:86:f9:10:ad:9b:bf:d0:60:44:
         ff:c6:52:20:ee:b3:2d:40:21:9c:80:06:54:ca:41:25:bc:35:
         09:ff:da:13:4c:f7:79:0c:65:aa:19:c7:50:99:60:d4:4c:3a:
         78:14:f7:eb:c1:e6:de:01:5c:45:71:1d:65:27:ca:c1:ef:fb:
         d2:ea:0d:86:6a:da:1f:bb
-----BEGIN CERTIFICATE-----
MIIGrTCCBJWgAwIBAgICL/AwDQYJKoZIhvcNAQELBQAwgawxCzAJBgNVBAYTAlVT
MQswCQYDVQQIEwJPSDERMA8GA1UEBxMIQ29sdW1idXMxEjAQBgNVBAoTCVZpa2lu
Z1ZQTjEdMBsGA1UECxMUTXlPcmdhbml6YXRpb25hbFVuaXQxFTATBgNVBAMTDFZp
a2luZ1ZQTiBDQTEQMA4GA1UEKRMHRWFzeVJTQTEhMB8GCSqGSIb3DQEJARYSbWVA
bXlob3N0Lm15ZG9tYWluMB4XDTE3MTIyMDIwMzc0N1oXDTI3MTIxODIwMzc0N1ow
HzEdMBsGA1UEAxMUQ2xpZW50MjkwNENlcnQ4N2VkZWIwggIiMA0GCSqGSIb3DQEB
AQUAA4ICDwAwggIKAoICAQC4BvzdQtAh2Uzszmv7EF7hHO/F3IWH/rKQ1tzBXva7
3tTeizJbEjDeDS0Ad532vkwLDmSwjDkEQgOyRGtnNi40QSq4Bhu9nyGimJZGoTAf
fZDuNMufbp59Al1Qi4Tuj+j+f/qpySuBSSIszXG3M8HlS8dr2kBzq5aVZCCI/J17
WKDnnu1Eg3QVfbM7OgLZcRKi5kH5fwJ/9vJ6mnMagLt0GQNErhNhanaiu+d/s01e
nrvYktFxCu/QGs0YRAZxFmIP5aNC+Ifgltpizdd7cv6db40205EXkIS0U9blkx4I
vyIBQiAQKTuPksCYlxQHvmmp1aYs5HoZt71JGDo1YwKnvPw+EbDzInAcnUhZCy53
lZyLJE0TbmxZxIrKCIkpskNrmunbD1LWnFzirDsMW7ScitZ5wlzosws5dkYtJ9QA
6ASyXrqaGXNNbGoS7jRiD6WH+YJBKQtwnulsI2ZOWs9rjcOBC3pM5PkAM0IvBULZ
D9QmL6Sok94/g+vpozfMCj3vbDolWlrzwRGTlFSPI3TsUEnmqRqAHhowKCeFpwDr
AXfcVJRD/gg1lHlAjrwisov1ZnSDJAw/rooU2KGMdwik1HVxPfyu8MIKUckZhkxN
kW1ZTOlZOfcVDEMua34mk6PV4iSdrpic0tA4XXlMeEVwGngYTyvN0lZCYv1Bg1sw
8QIDAQABo4IBYzCCAV8wCQYDVR0TBAIwADAtBglghkgBhvhCAQ0EIBYeRWFzeS1S
U0EgR2VuZXJhdGVkIENlcnRpZmljYXRlMB0GA1UdDgQWBBTbtt/olv2cVHrehc5t
lBPCF7lIAzCB4QYDVR0jBIHZMIHWgBQSzWAE0qCAnnDtxpm4eyzGUv0ZoaGBsqSB
rzCBrDELMAkGA1UEBhMCVVMxCzAJBgNVBAgTAk9IMREwDwYDVQQHEwhDb2x1bWJ1
czESMBAGA1UEChMJVmlraW5nVlBOMR0wGwYDVQQLExRNeU9yZ2FuaXphdGlvbmFs
VW5pdDEVMBMGA1UEAxMMVmlraW5nVlBOIENBMRAwDgYDVQQpEwdFYXN5UlNBMSEw
HwYJKoZIhvcNAQkBFhJtZUBteWhvc3QubXlkb21haW6CCQDPNYXugL8qPjATBgNV
HSUEDDAKBggrBgEFBQcDAjALBgNVHQ8EBAMCB4AwDQYJKoZIhvcNAQELBQADggIB
AC2xjF1UqlihT66e/c1Kwjcjo51+RDqCAI7J3Ijlfw6jVYPqipcx5KPlRbo4IDas
sDrNeJtk8BqWOhVRD4H5INsb6CE7Sz0B7EF6zqbrGoV4b+ypBmzV7TgsrD3rkBTR
hlGkV9fg4rAnIkbOi5KEEtQvNXOxDOaMdo/JDUpoQ+42I3pl613MV4eQdbQ3gNG2
ja0i1KkHN/Y2EA1MW753xtTjyYCT8hfChaDdq5bJdlUjNOCdgGxGV5cEmf29MEIw
GDJLQB4kxRB8g7iPKNDccDn1Pi7q+l6Ci2p/RB/vBZoRqh7FXZVi8gByIYkyJ1fU
temcMHWpCRDg1YOBVnCaTcmHCIpI5ZJNvCvdnZaqnTKIbVyJ5VpLG3cm2ONe2sZ7
b/tyF3YRyOOYJx3STmDQTveDoaR8OrzCb11RiusnhbWnf4W0gOFggJfqaeBN/9QG
fZV1gBXuVEwiVVd0kLJQrykOhGG/4fbKWi167CdK1XPctPegwwM0BDbd/FmOY9F4
Es93VmbueBwcKavpaTynANd+0q/N2PyQ2Bm6GZSy92NYTZ2DmfBOIfukCacx/xT5
4ZIngK12/yymbob5EK2bv9BgRP/GUiDusy1AIZyABlTKQSW8NQn/2hNM93kMZaoZ
x1CZYNRMOngU9+vB5t4BXEVxHWUnysHv+9LqDYZq2h+7
-----END CERTIFICATE-----
