Certificate:
    Data:
        Version: 3 (0x2)
        Serial Number: 10666 (0x29aa)
    Signature Algorithm: sha256WithRSAEncryption
        Issuer: C=US, ST=OH, L=Columbus, O=VikingVPN, OU=MyOrganizationalUnit, CN=VikingVPN CA/name=EasyRSA/emailAddress=me@myhost.mydomain
        Validity
            Not Before: Apr 17 20:28:06 2017 GMT
            Not After : Apr 15 20:28:06 2027 GMT
        Subject: CN=Client2867Cert253bff
        Subject Public Key Info:
            Public Key Algorithm: rsaEncryption
                Public-Key: (4096 bit)
                Modulus:
                    00:cb:6d:1c:c6:97:b2:00:f4:f7:72:04:29:44:f1:
                    92:c1:6c:96:40:aa:e2:7c:d7:58:b1:c6:62:4a:60:
                    c8:d9:6f:26:48:b1:6f:fa:ab:0a:0e:b1:8b:40:3f:
                    fe:04:a9:c6:c0:81:eb:02:aa:c8:48:49:73:2e:f0:
                    c1:e2:37:a7:ba:e5:e5:9b:cb:e9:aa:b2:6b:cd:8b:
                    6b:8c:50:1a:67:b0:52:ca:cf:68:04:e8:ba:a1:63:
                    d8:fc:eb:9a:a6:82:90:ee:93:2d:d2:05:e3:c5:ed:
                    dc:28:00:93:33:13:5f:97:e9:4e:d2:db:22:c9:72:
                    9d:82:46:3b:f1:27:4f:07:fe:7a:b5:19:7b:01:94:
                    5c:3b:0b:42:c2:e8:10:3e:0f:7f:b1:76:b7:db:f5:
                    12:ec:b6:87:ae:ba:11:f9:a0:c5:4f:33:da:5e:e2:
                    ec:06:90:e2:94:5f:be:49:69:af:54:a9:48:d7:0a:
                    ab:f6:20:e2:8b:74:45:7f:fa:5d:4b:bc:16:5e:cf:
                    14:19:9e:8d:97:e7:eb:cd:11:06:59:4f:e6:ed:76:
                    0a:fd:72:55:63:4d:84:ad:5b:5f:34:2c:97:4a:bd:
                    1a:b8:6d:c7:22:e1:60:99:78:97:a9:f1:bf:70:15:
                    c5:ec:70:e5:81:79:9f:b6:e7:91:1c:b1:db:2e:88:
                    25:8e:1b:5d:1d:31:7a:a0:1c:c4:ed:af:32:28:ae:
                    1c:e4:05:d2:f8:97:2a:b1:ad:4b:d9:dc:e2:96:d9:
                    d5:e3:da:a5:3a:27:00:2d:d1:f4:75:01:88:83:30:
                    39:56:2d:07:80:d7:9f:11:0c:82:39:e6:a6:d3:e8:
                    a2:df:fd:87:07:9b:59:26:98:8c:3a:f2:07:b8:30:
                    5e:f7:d5:a2:c7:90:2a:2d:10:73:e7:74:bc:57:c6:
                    a8:30:4c:58:13:0a:bc:ce:66:20:12:2f:51:b4:21:
                    0a:72:c6:59:cf:f8:52:2c:73:cb:b7:26:71:80:fb:
                    e9:5d:51:52:e0:ce:e6:d3:66:f8:2a:8b:85:9b:c4:
                    2c:e2:29:73:c8:16:ae:ec:fd:d3:23:ff:79:bf:0b:
                    6c:6b:49:1b:57:43:57:a4:91:01:a8:e3:48:10:50:
                    b6:54:01:77:3b:37:69:e8:9d:26:af:6a:fe:e4:c2:
                    7f:0b:4f:bb:77:41:32:f5:6d:ef:e8:72:25:4b:0f:
                    f4:61:e7:8a:39:93:e2:70:ab:65:d4:84:9f:f9:00:
                    97:38:a8:6a:63:cc:03:5e:5b:a8:09:b0:10:90:b4:
                    08:bb:8f:3c:7f:47:80:55:8a:12:63:89:8f:cc:cc:
                    a9:2e:3c:8e:f5:c1:a2:13:46:d2:9a:42:cd:76:ab:
                    5a:8a:57
                Exponent: 65537 (0x10001)
        X509v3 extensions:
            X509v3 Basic Constraints: 
                CA:FALSE
            Netscape Comment: 
                Easy-RSA Generated Certificate
            X509v3 Subject Key Identifier: 
                9B:95:25:01:1F:10:C3:2E:E5:58:BE:35:74:EF:D4:4F:9A:54:7E:17
            X509v3 Authority Key Identifier: 
                keyid:12:CD:60:04:D2:A0:80:9E:70:ED:C6:99:B8:7B:2C:C6:52:FD:19:A1
                DirName:/C=US/ST=OH/L=Columbus/O=VikingVPN/OU=MyOrganizationalUnit/CN=VikingVPN CA/name=EasyRSA/emailAddress=me@myhost.mydomain
                serial:CF:35:85:EE:80:BF:2A:3E

            X509v3 Extended Key Usage: 
                TLS Web Client Authentication
            X509v3 Key Usage: 
                Digital Signature
    Signature Algorithm: sha256WithRSAEncryption
         aa:24:dd:f9:6f:aa:66:9e:72:48:e9:a2:f1:e9:2c:77:47:36:
         44:5e:7e:77:cd:b6:8f:c2:77:54:09:5e:9c:8e:6b:25:f0:59:
         8b:cd:49:17:b5:6f:28:c2:f1:91:8a:5a:42:0b:8d:8e:a2:38:
         da:0f:92:85:91:8d:bf:25:3a:fa:fb:a0:fa:5e:8b:22:c8:5b:
         c1:85:2f:8d:29:d7:f1:b2:70:0f:f8:e7:a5:9b:f2:5f:46:f4:
         fa:39:0b:ef:73:7c:b8:fc:1f:97:4a:53:b7:4d:fb:79:bd:1b:
         d6:db:75:26:d2:f2:93:80:d5:93:d1:bd:44:0e:0d:98:ef:a2:
         7b:a0:a5:e2:08:b0:fa:49:df:5f:d7:95:6c:77:c5:02:ab:49:
         66:6c:61:f2:d7:18:e1:a0:76:43:8f:68:9f:b6:30:33:70:0f:
         3d:ef:f0:81:b1:55:a2:ae:e9:9c:ef:0b:69:8f:82:63:9f:02:
         96:41:bc:74:ee:4e:32:7a:db:33:04:07:20:5b:14:b8:48:b5:
         7e:5e:e3:f7:12:90:47:a7:aa:1f:a4:df:24:22:2c:18:21:da:
         a7:c0:c8:d7:8f:aa:d0:38:1a:f6:e4:d7:96:5e:44:cc:d3:30:
         31:f0:f5:c1:bf:10:be:c5:b2:a3:68:be:00:3f:6b:13:91:75:
         7a:1f:a1:78:a5:c9:93:c7:20:12:89:95:26:b2:b1:18:27:91:
         3e:44:75:8e:50:61:03:b4:df:51:63:f6:57:0a:7f:12:49:a5:
         42:54:2b:cf:db:4b:2c:bd:52:5b:08:78:a1:31:18:4d:0d:a4:
         c3:da:06:2c:9a:aa:ab:56:ed:96:95:d2:89:8f:37:53:2f:a9:
         2a:d4:c2:b1:8f:6e:af:80:f5:e2:54:84:97:b0:ff:80:15:99:
         30:3d:f0:46:4e:e5:71:44:b1:ef:2b:0b:af:ab:85:1a:31:49:
         98:d7:96:58:f7:f9:65:a3:bf:cc:39:4b:aa:e2:71:35:ba:a5:
         ce:c8:3c:e7:00:1f:9a:c0:46:8d:1d:fc:ab:39:12:7a:fe:db:
         95:1e:b5:10:86:f4:5b:74:2b:45:0e:8f:77:df:cd:9b:4b:c5:
         b9:e7:1a:b8:a8:72:d8:5c:f6:82:23:f5:1b:76:95:a3:42:03:
         e2:d0:a7:1e:50:28:f3:08:60:37:4b:55:35:e4:b8:7e:a4:81:
         f6:01:80:22:36:bc:bf:22:b5:58:c1:a2:c4:8e:39:50:be:a1:
         3a:d0:79:0b:40:9f:91:18:d3:c2:5f:02:ba:71:ce:1c:0a:96:
         df:93:d7:30:09:73:31:37:5f:57:bd:e0:7c:d0:ef:bc:16:fb:
         3e:91:3e:cd:76:30:1b:06
-----BEGIN CERTIFICATE-----
MIIGrTCCBJWgAwIBAgICKaowDQYJKoZIhvcNAQELBQAwgawxCzAJBgNVBAYTAlVT
MQswCQYDVQQIEwJPSDERMA8GA1UEBxMIQ29sdW1idXMxEjAQBgNVBAoTCVZpa2lu
Z1ZQTjEdMBsGA1UECxMUTXlPcmdhbml6YXRpb25hbFVuaXQxFTATBgNVBAMTDFZp
a2luZ1ZQTiBDQTEQMA4GA1UEKRMHRWFzeVJTQTEhMB8GCSqGSIb3DQEJARYSbWVA
bXlob3N0Lm15ZG9tYWluMB4XDTE3MDQxNzIwMjgwNloXDTI3MDQxNTIwMjgwNlow
HzEdMBsGA1UEAxMUQ2xpZW50Mjg2N0NlcnQyNTNiZmYwggIiMA0GCSqGSIb3DQEB
AQUAA4ICDwAwggIKAoICAQDLbRzGl7IA9PdyBClE8ZLBbJZAquJ811ixxmJKYMjZ
byZIsW/6qwoOsYtAP/4EqcbAgesCqshISXMu8MHiN6e65eWby+mqsmvNi2uMUBpn
sFLKz2gE6LqhY9j865qmgpDuky3SBePF7dwoAJMzE1+X6U7S2yLJcp2CRjvxJ08H
/nq1GXsBlFw7C0LC6BA+D3+xdrfb9RLstoeuuhH5oMVPM9pe4uwGkOKUX75Jaa9U
qUjXCqv2IOKLdEV/+l1LvBZezxQZno2X5+vNEQZZT+btdgr9clVjTYStW180LJdK
vRq4bcci4WCZeJep8b9wFcXscOWBeZ+255EcsdsuiCWOG10dMXqgHMTtrzIorhzk
BdL4lyqxrUvZ3OKW2dXj2qU6JwAt0fR1AYiDMDlWLQeA158RDII55qbT6KLf/YcH
m1kmmIw68ge4MF731aLHkCotEHPndLxXxqgwTFgTCrzOZiASL1G0IQpyxlnP+FIs
c8u3JnGA++ldUVLgzubTZvgqi4WbxCziKXPIFq7s/dMj/3m/C2xrSRtXQ1ekkQGo
40gQULZUAXc7N2nonSavav7kwn8LT7t3QTL1be/ociVLD/Rh54o5k+Jwq2XUhJ/5
AJc4qGpjzANeW6gJsBCQtAi7jzx/R4BVihJjiY/MzKkuPI71waITRtKaQs12q1qK
VwIDAQABo4IBYzCCAV8wCQYDVR0TBAIwADAtBglghkgBhvhCAQ0EIBYeRWFzeS1S
U0EgR2VuZXJhdGVkIENlcnRpZmljYXRlMB0GA1UdDgQWBBSblSUBHxDDLuVYvjV0
79RPmlR+FzCB4QYDVR0jBIHZMIHWgBQSzWAE0qCAnnDtxpm4eyzGUv0ZoaGBsqSB
rzCBrDELMAkGA1UEBhMCVVMxCzAJBgNVBAgTAk9IMREwDwYDVQQHEwhDb2x1bWJ1
czESMBAGA1UEChMJVmlraW5nVlBOMR0wGwYDVQQLExRNeU9yZ2FuaXphdGlvbmFs
VW5pdDEVMBMGA1UEAxMMVmlraW5nVlBOIENBMRAwDgYDVQQpEwdFYXN5UlNBMSEw
HwYJKoZIhvcNAQkBFhJtZUBteWhvc3QubXlkb21haW6CCQDPNYXugL8qPjATBgNV
HSUEDDAKBggrBgEFBQcDAjALBgNVHQ8EBAMCB4AwDQYJKoZIhvcNAQELBQADggIB
AKok3flvqmaeckjpovHpLHdHNkRefnfNto/Cd1QJXpyOayXwWYvNSRe1byjC8ZGK
WkILjY6iONoPkoWRjb8lOvr7oPpeiyLIW8GFL40p1/GycA/456Wb8l9G9Po5C+9z
fLj8H5dKU7dN+3m9G9bbdSbS8pOA1ZPRvUQODZjvonugpeIIsPpJ31/XlWx3xQKr
SWZsYfLXGOGgdkOPaJ+2MDNwDz3v8IGxVaKu6ZzvC2mPgmOfApZBvHTuTjJ62zME
ByBbFLhItX5e4/cSkEenqh+k3yQiLBgh2qfAyNePqtA4Gvbk15ZeRMzTMDHw9cG/
EL7FsqNovgA/axORdXofoXilyZPHIBKJlSaysRgnkT5EdY5QYQO031Fj9lcKfxJJ
pUJUK8/bSyy9UlsIeKExGE0NpMPaBiyaqqtW7ZaV0omPN1MvqSrUwrGPbq+A9eJU
hJew/4AVmTA98EZO5XFEse8rC6+rhRoxSZjXllj3+WWjv8w5S6ricTW6pc7IPOcA
H5rARo0d/Ks5Enr+25UetRCG9Ft0K0UOj3ffzZtLxbnnGriocthc9oIj9Rt2laNC
A+LQpx5QKPMIYDdLVTXkuH6kgfYBgCI2vL8itVjBosSOOVC+oTrQeQtAn5EY08Jf
ArpxzhwKlt+T1zAJczE3X1e94HzQ77wW+z6RPs12MBsG
-----END CERTIFICATE-----
