Certificate:
    Data:
        Version: 3 (0x2)
        Serial Number: 3673 (0xe59)
    Signature Algorithm: md5WithRSAEncryption
        Issuer: C=US, ST=OH, L=Columbus, O=VikingVPN, OU=MyOrganizationalUnit, CN=VikingVPN CA/name=EasyRSA/emailAddress=me@myhost.mydomain
        Validity
            Not Before: Dec 14 19:51:12 2014 GMT
            Not After : Dec 11 19:51:12 2024 GMT
        Subject: CN=Client617Cert9a8a4d
        Subject Public Key Info:
            Public Key Algorithm: rsaEncryption
                Public-Key: (4096 bit)
                Modulus:
                    00:e0:ac:47:f9:80:e1:2e:3c:63:d3:2c:e4:68:3b:
                    9a:37:35:6f:a7:5d:c5:81:de:ed:2b:c0:df:fb:5e:
                    60:f8:0b:f5:c5:0f:e7:90:de:95:c2:81:27:3e:5c:
                    24:a2:83:ba:b1:3a:10:3b:03:5e:e5:f0:8f:25:ce:
                    b3:58:d0:58:9a:55:e6:b9:1a:01:dc:4b:b7:5d:23:
                    c7:21:64:9c:b2:ae:5e:b5:2e:f6:f4:32:83:b4:83:
                    a7:30:05:d2:66:ee:fa:27:24:05:14:73:76:2a:42:
                    6c:cd:f0:fb:2a:10:bc:38:7f:96:2c:42:1a:69:a9:
                    66:9f:5c:8a:e4:77:bc:e0:77:5b:57:7f:9d:6b:bb:
                    48:50:a6:4d:e3:b0:7e:04:9d:2a:50:78:12:fa:70:
                    eb:cc:b1:79:8c:9a:e0:24:f5:03:c0:27:7f:9f:4f:
                    08:93:3c:e1:29:72:13:27:82:dc:c9:02:2d:cc:b6:
                    09:b4:89:64:77:cd:3f:df:87:73:19:4a:40:09:31:
                    73:ff:47:79:62:cf:b6:d1:10:a5:84:33:1e:ec:92:
                    f8:7f:ef:77:8c:f9:2f:f3:1c:d2:1a:8c:02:b3:99:
                    a5:a3:30:30:97:ba:e2:17:33:97:e7:24:ec:79:1a:
                    dd:72:90:e0:f7:a2:38:b7:4e:59:fd:c2:90:2f:17:
                    71:f4:01:23:80:95:ca:7c:d9:80:12:52:17:de:85:
                    06:c7:fb:cf:96:7c:3d:b9:0c:6c:98:73:a7:ec:c5:
                    5d:47:ad:78:f1:f4:ef:35:f6:03:d7:e6:2b:e2:d1:
                    f6:fa:e6:59:67:23:28:30:49:fe:1e:5e:3c:22:d0:
                    d9:42:e1:c4:bc:f0:6b:8f:4c:b4:3c:fd:1d:28:d9:
                    48:cd:f9:e4:54:2a:fc:84:e3:c2:8f:7f:68:4a:1a:
                    2c:ba:73:8f:20:4c:9b:64:44:9e:f9:c5:b5:ac:a6:
                    e5:a9:5e:af:f6:2f:d5:8b:69:03:0a:b0:a9:5e:b4:
                    7f:b3:53:13:67:7f:e3:c5:b1:88:fd:6d:58:47:39:
                    0a:31:6f:e3:06:2b:2a:9d:b9:e3:9a:8c:4f:33:ec:
                    60:47:bd:eb:28:f1:3e:3c:70:78:cc:e4:c7:49:9c:
                    f8:51:8a:b2:8d:1f:51:da:eb:0a:11:65:55:d6:f5:
                    48:c6:76:7b:f0:04:98:fb:b7:36:22:e2:73:ba:08:
                    d4:a2:45:ba:a5:95:50:d8:cf:54:dc:28:2a:75:28:
                    d0:e6:ab:ad:5b:e0:6f:4f:1e:5f:f7:7d:69:5e:4f:
                    c3:a3:fe:1d:63:5b:92:4b:b4:a2:16:02:6d:15:a2:
                    ab:e6:f1:82:cd:1b:6f:cb:d0:31:da:52:44:c6:a6:
                    d6:2f:af
                Exponent: 65537 (0x10001)
        X509v3 extensions:
            X509v3 Basic Constraints: 
                CA:FALSE
            Netscape Comment: 
                Easy-RSA Generated Certificate
            X509v3 Subject Key Identifier: 
                53:21:AF:EC:E2:9B:78:A8:9A:F3:A8:72:68:92:85:86:33:17:98:4D
            X509v3 Authority Key Identifier: 
                keyid:12:CD:60:04:D2:A0:80:9E:70:ED:C6:99:B8:7B:2C:C6:52:FD:19:A1
                DirName:/C=US/ST=OH/L=Columbus/O=VikingVPN/OU=MyOrganizationalUnit/CN=VikingVPN CA/name=EasyRSA/emailAddress=me@myhost.mydomain
                serial:CF:35:85:EE:80:BF:2A:3E

            X509v3 Extended Key Usage: 
                TLS Web Client Authentication
            X509v3 Key Usage: 
                Digital Signature
    Signature Algorithm: md5WithRSAEncryption
         13:dc:bb:b3:70:69:a4:9f:21:7b:a5:1c:28:15:a8:c9:75:de:
         0d:9c:97:8f:18:cf:e1:12:92:5e:72:bb:0d:d2:3e:0c:5a:85:
         1b:96:69:f8:bd:7f:a3:43:a2:dd:d9:8f:7a:69:e9:b9:50:dd:
         05:54:8e:12:ca:f3:4b:69:77:d0:9f:d7:66:c3:43:95:64:53:
         f3:bf:21:a5:ed:85:17:f8:11:c2:08:39:a3:d2:60:50:81:ab:
         fc:ec:57:78:8b:e7:5a:d7:dd:bc:95:72:b9:8a:5d:b3:ba:c8:
         f8:8d:3b:d0:ad:06:00:a3:59:6c:03:47:fc:73:ba:33:4d:c9:
         1d:21:76:bb:f9:9d:98:a7:d1:10:94:76:9d:27:6c:5b:8b:8a:
         d9:6a:9a:47:c8:a9:41:8e:29:d7:93:7e:5e:92:bb:53:b0:29:
         e3:fb:06:e5:8e:38:82:d0:57:3d:78:a8:fe:c8:b0:1c:d2:9b:
         0d:1d:1e:1a:11:34:76:33:60:04:c6:59:4c:8c:1d:51:d6:d2:
         f1:84:fe:8b:67:94:a8:95:c8:0b:4c:8b:d3:30:bb:7e:b8:da:
         e1:fe:a8:92:bd:23:29:8f:11:58:c9:a1:48:7b:79:43:a0:47:
         68:d9:a5:e9:8d:41:19:8f:e0:ab:02:15:89:4f:90:4a:68:cf:
         8f:74:68:a9:4c:2c:e2:52:61:28:e3:dd:36:d9:5a:2c:a5:09:
         4c:9f:b1:3d:91:ea:07:a4:d2:30:e7:1b:12:61:5e:60:bf:b1:
         ba:25:b9:f4:08:28:4b:f8:65:9d:8c:de:11:ce:a4:35:a2:25:
         93:ce:17:3a:c7:8e:1e:ec:56:60:35:e0:70:17:dd:70:c6:54:
         4c:e6:e0:d2:35:97:b5:6a:80:92:cc:c5:d5:5c:9e:14:d2:1a:
         53:d7:df:d0:ae:e0:2b:9d:fa:be:d1:f3:93:97:fd:34:f6:b0:
         7e:c7:0e:08:a2:a0:42:35:ab:d5:c8:3b:ce:ce:39:9c:9e:a3:
         28:a2:57:51:1c:ae:3c:eb:9b:c1:b3:29:10:dc:26:2d:6f:e5:
         38:9a:28:15:ff:d4:1c:41:16:a0:d8:69:e4:03:92:ad:05:c3:
         b6:6b:66:bf:f8:ef:18:c2:80:e5:c6:00:20:95:90:3b:e3:2e:
         00:6f:ea:d5:6e:2c:09:26:4a:ff:cd:93:ce:a1:3c:87:31:4a:
         aa:3b:8a:d6:e8:ed:52:90:77:8f:40:1b:f2:91:90:70:1e:a7:
         30:fd:0b:60:e4:60:c6:73:6b:2b:03:85:53:af:d6:d9:b2:eb:
         24:ce:ec:32:7e:03:36:b4:6c:b7:25:15:3c:34:2e:91:5f:4a:
         04:9a:6f:8f:f9:b9:91:97
-----BEGIN CERTIFICATE-----
MIIGrDCCBJSgAwIBAgICDlkwDQYJKoZIhvcNAQEEBQAwgawxCzAJBgNVBAYTAlVT
MQswCQYDVQQIEwJPSDERMA8GA1UEBxMIQ29sdW1idXMxEjAQBgNVBAoTCVZpa2lu
Z1ZQTjEdMBsGA1UECxMUTXlPcmdhbml6YXRpb25hbFVuaXQxFTATBgNVBAMTDFZp
a2luZ1ZQTiBDQTEQMA4GA1UEKRMHRWFzeVJTQTEhMB8GCSqGSIb3DQEJARYSbWVA
bXlob3N0Lm15ZG9tYWluMB4XDTE0MTIxNDE5NTExMloXDTI0MTIxMTE5NTExMlow
HjEcMBoGA1UEAxMTQ2xpZW50NjE3Q2VydDlhOGE0ZDCCAiIwDQYJKoZIhvcNAQEB
BQADggIPADCCAgoCggIBAOCsR/mA4S48Y9Ms5Gg7mjc1b6ddxYHe7SvA3/teYPgL
9cUP55DelcKBJz5cJKKDurE6EDsDXuXwjyXOs1jQWJpV5rkaAdxLt10jxyFknLKu
XrUu9vQyg7SDpzAF0mbu+ickBRRzdipCbM3w+yoQvDh/lixCGmmpZp9ciuR3vOB3
W1d/nWu7SFCmTeOwfgSdKlB4Evpw68yxeYya4CT1A8Anf59PCJM84SlyEyeC3MkC
Lcy2CbSJZHfNP9+HcxlKQAkxc/9HeWLPttEQpYQzHuyS+H/vd4z5L/Mc0hqMArOZ
paMwMJe64hczl+ck7Hka3XKQ4PeiOLdOWf3CkC8XcfQBI4CVynzZgBJSF96FBsf7
z5Z8PbkMbJhzp+zFXUetePH07zX2A9fmK+LR9vrmWWcjKDBJ/h5ePCLQ2ULhxLzw
a49MtDz9HSjZSM355FQq/ITjwo9/aEoaLLpzjyBMm2REnvnFtaym5aler/Yv1Ytp
AwqwqV60f7NTE2d/48WxiP1tWEc5CjFv4wYrKp2545qMTzPsYEe96yjxPjxweMzk
x0mc+FGKso0fUdrrChFlVdb1SMZ2e/AEmPu3NiLic7oI1KJFuqWVUNjPVNwoKnUo
0OarrVvgb08eX/d9aV5Pw6P+HWNbkku0ohYCbRWiq+bxgs0bb8vQMdpSRMam1i+v
AgMBAAGjggFjMIIBXzAJBgNVHRMEAjAAMC0GCWCGSAGG+EIBDQQgFh5FYXN5LVJT
QSBHZW5lcmF0ZWQgQ2VydGlmaWNhdGUwHQYDVR0OBBYEFFMhr+zim3iomvOocmiS
hYYzF5hNMIHhBgNVHSMEgdkwgdaAFBLNYATSoICecO3Gmbh7LMZS/RmhoYGypIGv
MIGsMQswCQYDVQQGEwJVUzELMAkGA1UECBMCT0gxETAPBgNVBAcTCENvbHVtYnVz
MRIwEAYDVQQKEwlWaWtpbmdWUE4xHTAbBgNVBAsTFE15T3JnYW5pemF0aW9uYWxV
bml0MRUwEwYDVQQDEwxWaWtpbmdWUE4gQ0ExEDAOBgNVBCkTB0Vhc3lSU0ExITAf
BgkqhkiG9w0BCQEWEm1lQG15aG9zdC5teWRvbWFpboIJAM81he6Avyo+MBMGA1Ud
JQQMMAoGCCsGAQUFBwMCMAsGA1UdDwQEAwIHgDANBgkqhkiG9w0BAQQFAAOCAgEA
E9y7s3BppJ8he6UcKBWoyXXeDZyXjxjP4RKSXnK7DdI+DFqFG5Zp+L1/o0Oi3dmP
emnpuVDdBVSOEsrzS2l30J/XZsNDlWRT878hpe2FF/gRwgg5o9JgUIGr/OxXeIvn
WtfdvJVyuYpds7rI+I070K0GAKNZbANH/HO6M03JHSF2u/mdmKfREJR2nSdsW4uK
2WqaR8ipQY4p15N+XpK7U7Ap4/sG5Y44gtBXPXio/siwHNKbDR0eGhE0djNgBMZZ
TIwdUdbS8YT+i2eUqJXIC0yL0zC7frja4f6okr0jKY8RWMmhSHt5Q6BHaNml6Y1B
GY/gqwIViU+QSmjPj3RoqUws4lJhKOPdNtlaLKUJTJ+xPZHqB6TSMOcbEmFeYL+x
uiW59AgoS/hlnYzeEc6kNaIlk84XOseOHuxWYDXgcBfdcMZUTObg0jWXtWqAkszF
1VyeFNIaU9ff0K7gK536vtHzk5f9NPawfscOCKKgQjWr1cg7zs45nJ6jKKJXURyu
POubwbMpENwmLW/lOJooFf/UHEEWoNhp5AOSrQXDtmtmv/jvGMKA5cYAIJWQO+Mu
AG/q1W4sCSZK/82TzqE8hzFKqjuK1ujtUpB3j0Ab8pGQcB6nMP0LYORgxnNrKwOF
U6/W2bLrJM7sMn4DNrRstyUVPDQukV9KBJpvj/m5kZc=
-----END CERTIFICATE-----
