Certificate:
    Data:
        Version: 3 (0x2)
        Serial Number: 427 (0x1ab)
    Signature Algorithm: md5WithRSAEncryption
        Issuer: C=US, ST=OH, L=Columbus, O=VikingVPN, OU=MyOrganizationalUnit, CN=VikingVPN CA/name=EasyRSA/emailAddress=me@myhost.mydomain
        Validity
            Not Before: Nov 20 03:06:17 2013 GMT
            Not After : Nov 18 03:06:17 2023 GMT
        Subject: CN=Client191Cert8b07c2
        Subject Public Key Info:
            Public Key Algorithm: rsaEncryption
                Public-Key: (4096 bit)
                Modulus:
                    00:b5:6d:9d:19:4d:a2:a7:19:f5:fe:d7:f1:32:63:
                    8b:be:33:c8:40:dd:73:aa:f9:a6:6f:ff:19:7f:09:
                    5c:fc:5d:00:17:9e:ec:89:b7:de:11:b4:23:35:2c:
                    06:ba:3a:ab:8b:24:24:95:de:1c:18:a8:d9:f0:72:
                    0e:67:e2:16:0c:a1:82:df:69:ad:0b:79:fe:f2:0a:
                    41:e0:8d:93:4b:d7:62:96:9b:57:98:7c:1f:6e:90:
                    34:f6:08:8f:62:91:03:b6:f5:a6:ed:c3:25:27:97:
                    c6:b8:dc:fc:b5:a5:23:28:c4:33:df:74:47:db:1a:
                    7f:ff:71:78:0c:06:c7:b7:0c:ba:85:e0:2d:83:94:
                    3b:23:45:fb:f3:cd:15:06:db:8d:4c:a0:6b:76:98:
                    fc:06:db:d5:f4:ad:f1:9c:2c:aa:4f:b2:1e:df:f7:
                    cf:9f:47:d5:b2:4c:be:c2:9d:b0:e0:fd:65:84:0e:
                    39:c6:a1:72:98:1d:d2:01:98:84:50:7b:d5:4b:36:
                    84:50:f7:f2:0d:4d:e9:8d:b9:c9:e5:98:52:e1:11:
                    69:8d:d7:02:c8:20:3c:8d:ac:c1:bb:f2:2a:52:96:
                    7b:ed:7a:eb:d4:89:41:0f:2e:79:9d:48:fe:76:b3:
                    ed:b3:38:9c:6f:eb:9e:02:06:92:b6:f4:b2:c9:4e:
                    36:8f:fd:b3:54:9d:ae:a0:be:98:a5:bf:10:72:34:
                    a3:95:24:4f:c4:d2:e6:8d:34:2a:bc:38:88:9b:a2:
                    7c:0e:60:24:9d:9e:bd:25:c2:24:c2:c0:6d:fd:20:
                    cb:88:60:d3:15:b0:16:45:52:9d:0d:02:97:64:c5:
                    24:82:70:6c:70:d3:a2:5f:c1:80:1a:f5:1d:24:8d:
                    5f:b1:cf:78:52:44:99:9b:15:0a:86:96:dd:39:d4:
                    ee:99:89:3d:04:b2:66:77:f7:02:ba:97:3a:f7:8b:
                    e9:68:83:66:8f:5f:5f:7e:68:05:d6:1c:81:08:ea:
                    06:1d:22:8a:57:bb:7a:2b:01:0a:39:48:cf:38:4e:
                    e3:18:5a:b7:3c:83:04:b4:62:39:0d:0d:06:c9:b3:
                    12:69:7b:cf:e2:f3:9d:2e:a2:f3:ef:7e:89:c9:e2:
                    be:f7:90:f6:70:e2:1b:d8:f7:65:3b:ba:d6:09:8e:
                    f6:fe:98:eb:5b:0d:d8:9c:9c:a6:f9:43:82:99:8c:
                    1c:4b:87:33:b2:94:d0:cf:6a:fb:19:19:19:53:7b:
                    76:ee:bf:68:75:73:95:9f:05:ed:42:de:a6:be:d5:
                    eb:3a:3e:16:75:42:26:50:92:14:7a:bc:b6:dc:e0:
                    f2:6c:f3:0d:13:05:cb:66:34:db:22:22:6e:35:b7:
                    51:ba:af
                Exponent: 65537 (0x10001)
        X509v3 extensions:
            X509v3 Basic Constraints: 
                CA:FALSE
            Netscape Comment: 
                Easy-RSA Generated Certificate
            X509v3 Subject Key Identifier: 
                02:5C:62:5B:0D:52:66:08:5A:E9:A0:1C:BC:F9:7E:D2:C6:D3:65:CB
            X509v3 Authority Key Identifier: 
                keyid:12:CD:60:04:D2:A0:80:9E:70:ED:C6:99:B8:7B:2C:C6:52:FD:19:A1
                DirName:/C=US/ST=OH/L=Columbus/O=VikingVPN/OU=MyOrganizationalUnit/CN=VikingVPN CA/name=EasyRSA/emailAddress=me@myhost.mydomain
                serial:CF:35:85:EE:80:BF:2A:3E

            X509v3 Extended Key Usage: 
                TLS Web Client Authentication
            X509v3 Key Usage: 
                Digital Signature
    Signature Algorithm: md5WithRSAEncryption
         ce:8c:32:f0:e7:9b:bf:ba:62:cf:7b:cc:b6:fd:35:d4:cd:d7:
         b0:04:d3:4e:02:c0:16:7f:f3:fa:ca:3a:75:52:30:da:4c:ee:
         3d:e8:48:82:a3:df:84:64:a8:7e:ef:c5:e5:a8:6b:66:eb:d1:
         14:4a:77:17:b3:c9:21:6f:dc:d8:d7:d8:a8:8f:7f:68:ca:02:
         a0:88:64:e6:a2:83:43:32:92:07:14:47:86:f7:33:9a:ef:f9:
         bb:1d:a3:fa:62:93:11:3f:27:4b:c8:0b:5b:0b:dc:83:42:be:
         57:16:95:ec:c0:b0:f1:96:5e:09:ca:13:bb:e4:85:5f:02:df:
         1c:cb:25:41:d9:48:59:ba:f9:45:75:c4:63:e0:7a:ec:f5:8e:
         50:fd:f0:40:2d:e3:d2:4d:33:39:d8:ec:50:c7:f3:f3:81:c1:
         bf:1b:f4:21:d9:48:3b:7d:ec:29:2e:59:52:16:11:cd:34:5c:
         f5:0e:d5:d9:78:4e:a3:06:a3:f5:2a:87:61:59:60:22:72:f3:
         47:aa:76:96:a5:60:be:3d:41:74:f6:6d:78:b0:8e:79:96:dd:
         c7:ab:42:bb:b7:3d:c9:ff:43:68:dd:c4:ea:3c:53:d3:7e:67:
         64:0f:3b:ad:1a:a6:ed:13:8c:ae:40:38:68:05:28:e5:dc:7a:
         ee:61:5c:58:60:fe:b9:5d:ff:5a:c7:48:a6:22:49:7f:5a:c8:
         4d:a2:ac:92:1e:d1:c5:86:bd:8c:ec:4d:f6:65:73:04:dc:63:
         02:a0:81:1d:d1:59:51:67:c5:ae:70:36:60:23:20:ba:bb:3b:
         09:9e:7c:3d:d1:dc:44:48:44:dc:86:09:ee:64:af:42:9f:c5:
         42:1f:f6:50:e5:c1:e6:22:19:ac:a5:93:80:14:bd:eb:e7:57:
         fd:bf:45:35:d8:51:87:90:e7:43:22:c5:19:96:36:48:9d:91:
         b9:19:1f:1c:80:43:49:09:61:1a:73:4c:5a:b5:8c:0e:4e:29:
         07:3f:12:81:88:5e:3e:c9:4c:35:33:64:23:a7:b3:f3:93:55:
         15:19:e0:cb:ac:f1:34:f2:6c:2c:de:2b:0a:68:ca:7d:62:49:
         ee:85:1c:e5:0a:29:9f:d1:28:4c:30:37:62:44:d0:31:63:70:
         d0:8b:f8:e4:9a:fd:e5:79:03:72:ad:8a:66:8e:5c:f0:47:c5:
         dc:1f:e1:cf:7d:dc:d8:55:19:9d:9d:a9:9d:49:f7:e8:1b:68:
         f5:c4:51:ac:48:f5:b0:5c:99:77:db:39:1c:35:fb:19:d1:c1:
         f8:10:ac:b1:11:ba:8e:1b:90:ee:44:18:8b:2a:65:ca:9e:6e:
         d1:28:3d:91:9e:f3:db:fe
-----BEGIN CERTIFICATE-----
MIIGrDCCBJSgAwIBAgICAaswDQYJKoZIhvcNAQEEBQAwgawxCzAJBgNVBAYTAlVT
MQswCQYDVQQIEwJPSDERMA8GA1UEBxMIQ29sdW1idXMxEjAQBgNVBAoTCVZpa2lu
Z1ZQTjEdMBsGA1UECxMUTXlPcmdhbml6YXRpb25hbFVuaXQxFTATBgNVBAMTDFZp
a2luZ1ZQTiBDQTEQMA4GA1UEKRMHRWFzeVJTQTEhMB8GCSqGSIb3DQEJARYSbWVA
bXlob3N0Lm15ZG9tYWluMB4XDTEzMTEyMDAzMDYxN1oXDTIzMTExODAzMDYxN1ow
HjEcMBoGA1UEAxMTQ2xpZW50MTkxQ2VydDhiMDdjMjCCAiIwDQYJKoZIhvcNAQEB
BQADggIPADCCAgoCggIBALVtnRlNoqcZ9f7X8TJji74zyEDdc6r5pm//GX8JXPxd
ABee7Im33hG0IzUsBro6q4skJJXeHBio2fByDmfiFgyhgt9prQt5/vIKQeCNk0vX
YpabV5h8H26QNPYIj2KRA7b1pu3DJSeXxrjc/LWlIyjEM990R9saf/9xeAwGx7cM
uoXgLYOUOyNF+/PNFQbbjUyga3aY/Abb1fSt8Zwsqk+yHt/3z59H1bJMvsKdsOD9
ZYQOOcahcpgd0gGYhFB71Us2hFD38g1N6Y25yeWYUuERaY3XAsggPI2swbvyKlKW
e+1669SJQQ8ueZ1I/naz7bM4nG/rngIGkrb0sslONo/9s1SdrqC+mKW/EHI0o5Uk
T8TS5o00Krw4iJuifA5gJJ2evSXCJMLAbf0gy4hg0xWwFkVSnQ0Cl2TFJIJwbHDT
ol/BgBr1HSSNX7HPeFJEmZsVCoaW3TnU7pmJPQSyZnf3ArqXOveL6WiDZo9fX35o
BdYcgQjqBh0iile7eisBCjlIzzhO4xhatzyDBLRiOQ0NBsmzEml7z+LznS6i8+9+
icnivveQ9nDiG9j3ZTu61gmO9v6Y61sN2JycpvlDgpmMHEuHM7KU0M9q+xkZGVN7
du6/aHVzlZ8F7ULepr7V6zo+FnVCJlCSFHq8ttzg8mzzDRMFy2Y02yIibjW3Ubqv
AgMBAAGjggFjMIIBXzAJBgNVHRMEAjAAMC0GCWCGSAGG+EIBDQQgFh5FYXN5LVJT
QSBHZW5lcmF0ZWQgQ2VydGlmaWNhdGUwHQYDVR0OBBYEFAJcYlsNUmYIWumgHLz5
ftLG02XLMIHhBgNVHSMEgdkwgdaAFBLNYATSoICecO3Gmbh7LMZS/RmhoYGypIGv
MIGsMQswCQYDVQQGEwJVUzELMAkGA1UECBMCT0gxETAPBgNVBAcTCENvbHVtYnVz
MRIwEAYDVQQKEwlWaWtpbmdWUE4xHTAbBgNVBAsTFE15T3JnYW5pemF0aW9uYWxV
bml0MRUwEwYDVQQDEwxWaWtpbmdWUE4gQ0ExEDAOBgNVBCkTB0Vhc3lSU0ExITAf
BgkqhkiG9w0BCQEWEm1lQG15aG9zdC5teWRvbWFpboIJAM81he6Avyo+MBMGA1Ud
JQQMMAoGCCsGAQUFBwMCMAsGA1UdDwQEAwIHgDANBgkqhkiG9w0BAQQFAAOCAgEA
zowy8Oebv7piz3vMtv011M3XsATTTgLAFn/z+so6dVIw2kzuPehIgqPfhGSofu/F
5ahrZuvRFEp3F7PJIW/c2NfYqI9/aMoCoIhk5qKDQzKSBxRHhvczmu/5ux2j+mKT
ET8nS8gLWwvcg0K+VxaV7MCw8ZZeCcoTu+SFXwLfHMslQdlIWbr5RXXEY+B67PWO
UP3wQC3j0k0zOdjsUMfz84HBvxv0IdlIO33sKS5ZUhYRzTRc9Q7V2XhOowaj9SqH
YVlgInLzR6p2lqVgvj1BdPZteLCOeZbdx6tCu7c9yf9DaN3E6jxT035nZA87rRqm
7ROMrkA4aAUo5dx67mFcWGD+uV3/WsdIpiJJf1rITaKskh7RxYa9jOxN9mVzBNxj
AqCBHdFZUWfFrnA2YCMgurs7CZ58PdHcREhE3IYJ7mSvQp/FQh/2UOXB5iIZrKWT
gBS96+dX/b9FNdhRh5DnQyLFGZY2SJ2RuRkfHIBDSQlhGnNMWrWMDk4pBz8SgYhe
PslMNTNkI6ez85NVFRngy6zxNPJsLN4rCmjKfWJJ7oUc5Qopn9EoTDA3YkTQMWNw
0Iv45Jr95XkDcq2KZo5c8EfF3B/hz33c2FUZnZ2pnUn36Bto9cRRrEj1sFyZd9s5
HDX7GdHB+BCssRG6jhuQ7kQYiyplyp5u0Sg9kZ7z2/4=
-----END CERTIFICATE-----
