Certificate:
    Data:
        Version: 3 (0x2)
        Serial Number: 10195 (0x27d3)
    Signature Algorithm: sha256WithRSAEncryption
        Issuer: C=US, ST=OH, L=Columbus, O=VikingVPN, OU=MyOrganizationalUnit, CN=VikingVPN CA/name=EasyRSA/emailAddress=me@myhost.mydomain
        Validity
            Not Before: Feb 25 20:42:17 2017 GMT
            Not After : Feb 23 20:42:17 2027 GMT
        Subject: CN=Client2744Certc080e0
        Subject Public Key Info:
            Public Key Algorithm: rsaEncryption
                Public-Key: (4096 bit)
                Modulus:
                    00:df:89:dc:86:f9:58:9b:d6:59:c9:96:9e:79:60:
                    c6:be:19:36:66:ac:9c:e4:e7:42:ba:19:ff:84:91:
                    74:e5:f9:6d:59:2f:9a:0b:5e:e9:6f:f2:e5:15:a1:
                    28:ce:de:15:1f:d8:f9:86:35:7f:80:ac:10:01:fb:
                    2d:4b:00:7e:b2:39:d5:61:0b:ca:21:a6:ba:15:09:
                    d0:1f:8b:e1:87:4f:08:34:63:39:49:9c:90:43:71:
                    c6:37:de:c7:ef:9b:d8:01:b2:b9:cf:43:9d:52:d7:
                    e1:6e:4c:09:c9:a1:1c:45:04:46:7c:31:6f:27:fc:
                    73:de:ed:90:fe:f3:65:d6:64:96:95:ee:e8:e4:42:
                    a9:f5:b5:57:83:6e:99:ad:28:be:59:d2:30:95:d5:
                    b5:60:a9:1b:c1:cb:fd:ad:52:6d:ae:bd:d0:da:af:
                    3c:63:68:ef:43:48:03:73:51:a2:6d:7d:db:02:2e:
                    7e:ad:ad:14:98:37:e6:f4:05:63:5a:8e:4e:1a:0a:
                    b7:f6:76:81:a1:d9:e7:a4:8e:ea:2d:92:43:6b:6b:
                    c9:53:85:78:b7:26:d6:58:c2:f1:d6:1c:da:6c:28:
                    d7:7b:f5:b2:d9:a3:26:1a:45:50:4c:11:2a:53:c6:
                    17:08:17:3f:4f:ac:66:eb:68:49:9a:11:a7:e6:52:
                    a8:17:92:01:4a:31:c2:05:03:4f:78:22:22:9e:cb:
                    59:e4:4f:df:67:41:3b:02:89:40:14:d5:66:e8:5b:
                    80:97:0e:81:aa:78:ef:70:fc:f9:9c:91:e3:fe:c0:
                    43:bd:68:3a:66:f7:52:8e:79:96:4c:e2:4d:72:6c:
                    52:55:d6:5a:9b:91:10:1e:3e:de:d0:6b:bc:a5:41:
                    12:e0:65:26:5f:db:22:57:01:a3:dc:cd:96:57:70:
                    af:b9:ee:8a:80:26:f6:4f:0f:2e:b5:da:10:de:65:
                    d9:ab:eb:c9:16:df:b8:f3:41:11:fd:e1:ee:d1:ad:
                    1d:d2:13:82:9f:ec:a1:75:10:50:20:11:57:a9:9f:
                    bf:56:25:2b:2f:9d:5c:23:7c:80:92:b5:ec:38:99:
                    08:88:9f:35:0a:03:69:c6:b1:3f:4a:4e:85:ba:cc:
                    ea:8d:6b:f2:b7:19:3c:f1:96:e4:4d:5a:f2:c9:13:
                    d7:6f:ba:58:9d:5e:66:d8:cd:3e:17:66:5c:8b:1c:
                    3e:0c:71:5a:a6:c5:2e:bb:63:f6:56:6a:2d:0c:05:
                    b1:6a:a5:9d:c6:42:8f:b8:62:c3:47:25:31:d4:00:
                    f0:6c:83:9f:66:6a:c2:5c:4d:7d:b0:f7:2f:11:96:
                    1c:fa:03:e7:7f:4d:5f:b3:30:d9:f8:97:7d:db:9d:
                    85:f0:2b
                Exponent: 65537 (0x10001)
        X509v3 extensions:
            X509v3 Basic Constraints: 
                CA:FALSE
            Netscape Comment: 
                Easy-RSA Generated Certificate
            X509v3 Subject Key Identifier: 
                B0:95:67:65:30:B3:E0:66:34:2F:C5:BA:A8:7C:BE:8E:2A:74:C8:35
            X509v3 Authority Key Identifier: 
                keyid:12:CD:60:04:D2:A0:80:9E:70:ED:C6:99:B8:7B:2C:C6:52:FD:19:A1
                DirName:/C=US/ST=OH/L=Columbus/O=VikingVPN/OU=MyOrganizationalUnit/CN=VikingVPN CA/name=EasyRSA/emailAddress=me@myhost.mydomain
                serial:CF:35:85:EE:80:BF:2A:3E

            X509v3 Extended Key Usage: 
                TLS Web Client Authentication
            X509v3 Key Usage: 
                Digital Signature
    Signature Algorithm: sha256WithRSAEncryption
         d9:fa:6a:90:96:ef:56:dc:45:75:38:e7:62:e6:a9:b4:f0:e8:
         aa:48:78:d7:0f:54:74:12:d9:b3:1f:ec:1d:83:6a:71:9b:03:
         9b:a6:10:5d:93:61:9c:a9:94:97:c5:b6:95:c0:57:bd:ef:9d:
         4b:ee:04:46:e3:67:04:90:f9:2d:db:57:bd:9f:46:af:9d:9f:
         26:f0:d0:74:03:4a:a9:ee:4d:5b:08:51:31:0c:21:60:ed:e7:
         75:68:6a:9c:c6:97:7b:b5:53:a2:eb:e8:9f:bf:3e:0c:e3:e8:
         8f:c8:c1:a9:4e:65:57:c5:d1:10:4e:71:f2:65:3b:71:53:a0:
         e4:5f:ce:c3:5e:70:19:e2:bc:d8:30:e7:e3:f4:27:b6:5e:38:
         58:18:57:ce:57:ec:a2:34:49:e4:9e:ba:e9:0e:54:ca:b2:27:
         5e:c0:e0:01:71:11:de:c3:b9:5c:9a:e7:fe:af:10:55:79:f1:
         86:f8:f7:5f:01:5d:36:ad:f4:71:92:06:20:f5:9a:19:87:53:
         63:30:37:14:ef:78:f9:ca:0f:90:b2:3b:94:53:1d:ec:de:a2:
         25:90:8a:3e:86:4c:53:2e:94:e8:55:eb:f8:be:8f:a6:58:a0:
         69:8b:5a:33:2a:ad:3b:89:dc:8c:8d:7d:70:55:e5:c6:85:71:
         d5:c8:cb:dd:ab:98:10:d5:03:c8:6e:5b:92:09:0a:b2:30:25:
         c1:c3:d6:92:2c:a2:3b:73:17:49:b1:d3:c6:fc:07:d1:e8:e3:
         c2:22:f1:a0:3b:49:bb:3a:12:98:b8:d6:33:94:ed:48:df:64:
         71:9e:a7:3c:73:cb:d3:29:b1:f9:d9:19:27:79:ef:43:9b:29:
         4b:d3:93:40:df:e9:eb:26:c9:b3:cf:b2:e1:91:3f:d1:3e:fc:
         64:8a:d0:db:13:09:23:2e:ac:6d:ab:86:20:4a:eb:28:dd:a8:
         40:e7:cf:95:5f:81:ec:01:cd:e2:2e:01:6b:0e:b7:f6:b6:b3:
         44:8f:6a:cf:e9:b9:7b:d7:4b:08:5d:c5:77:a1:b5:9e:de:17:
         72:63:c7:34:a5:5c:aa:17:24:37:f4:e7:38:eb:7f:6f:fa:d0:
         23:02:13:36:c4:4a:4e:5c:5e:4f:ee:f1:12:a5:ee:1d:7e:fd:
         bb:a9:41:ee:3b:fd:94:8c:b5:c4:ac:4f:26:c6:4f:d6:fe:0c:
         0c:75:99:2d:5e:2e:56:3f:85:7a:84:25:fa:2f:5e:07:78:ac:
         fd:d9:39:00:5e:cf:c0:a5:09:b3:0b:bd:f3:70:12:a2:71:83:
         44:e2:c0:d6:ff:c2:04:b6:fd:8a:eb:a7:6e:d8:71:46:f1:13:
         62:cd:91:6f:9f:57:4b:4c
-----BEGIN CERTIFICATE-----
MIIGrTCCBJWgAwIBAgICJ9MwDQYJKoZIhvcNAQELBQAwgawxCzAJBgNVBAYTAlVT
MQswCQYDVQQIEwJPSDERMA8GA1UEBxMIQ29sdW1idXMxEjAQBgNVBAoTCVZpa2lu
Z1ZQTjEdMBsGA1UECxMUTXlPcmdhbml6YXRpb25hbFVuaXQxFTATBgNVBAMTDFZp
a2luZ1ZQTiBDQTEQMA4GA1UEKRMHRWFzeVJTQTEhMB8GCSqGSIb3DQEJARYSbWVA
bXlob3N0Lm15ZG9tYWluMB4XDTE3MDIyNTIwNDIxN1oXDTI3MDIyMzIwNDIxN1ow
HzEdMBsGA1UEAxMUQ2xpZW50Mjc0NENlcnRjMDgwZTAwggIiMA0GCSqGSIb3DQEB
AQUAA4ICDwAwggIKAoICAQDfidyG+Vib1lnJlp55YMa+GTZmrJzk50K6Gf+EkXTl
+W1ZL5oLXulv8uUVoSjO3hUf2PmGNX+ArBAB+y1LAH6yOdVhC8ohproVCdAfi+GH
Twg0YzlJnJBDccY33sfvm9gBsrnPQ51S1+FuTAnJoRxFBEZ8MW8n/HPe7ZD+82XW
ZJaV7ujkQqn1tVeDbpmtKL5Z0jCV1bVgqRvBy/2tUm2uvdDarzxjaO9DSANzUaJt
fdsCLn6trRSYN+b0BWNajk4aCrf2doGh2eekjuotkkNra8lThXi3JtZYwvHWHNps
KNd79bLZoyYaRVBMESpTxhcIFz9PrGbraEmaEafmUqgXkgFKMcIFA094IiKey1nk
T99nQTsCiUAU1WboW4CXDoGqeO9w/PmckeP+wEO9aDpm91KOeZZM4k1ybFJV1lqb
kRAePt7Qa7ylQRLgZSZf2yJXAaPczZZXcK+57oqAJvZPDy612hDeZdmr68kW37jz
QRH94e7RrR3SE4Kf7KF1EFAgEVepn79WJSsvnVwjfICStew4mQiInzUKA2nGsT9K
ToW6zOqNa/K3GTzxluRNWvLJE9dvulidXmbYzT4XZlyLHD4McVqmxS67Y/ZWai0M
BbFqpZ3GQo+4YsNHJTHUAPBsg59masJcTX2w9y8Rlhz6A+d/TV+zMNn4l33bnYXw
KwIDAQABo4IBYzCCAV8wCQYDVR0TBAIwADAtBglghkgBhvhCAQ0EIBYeRWFzeS1S
U0EgR2VuZXJhdGVkIENlcnRpZmljYXRlMB0GA1UdDgQWBBSwlWdlMLPgZjQvxbqo
fL6OKnTINTCB4QYDVR0jBIHZMIHWgBQSzWAE0qCAnnDtxpm4eyzGUv0ZoaGBsqSB
rzCBrDELMAkGA1UEBhMCVVMxCzAJBgNVBAgTAk9IMREwDwYDVQQHEwhDb2x1bWJ1
czESMBAGA1UEChMJVmlraW5nVlBOMR0wGwYDVQQLExRNeU9yZ2FuaXphdGlvbmFs
VW5pdDEVMBMGA1UEAxMMVmlraW5nVlBOIENBMRAwDgYDVQQpEwdFYXN5UlNBMSEw
HwYJKoZIhvcNAQkBFhJtZUBteWhvc3QubXlkb21haW6CCQDPNYXugL8qPjATBgNV
HSUEDDAKBggrBgEFBQcDAjALBgNVHQ8EBAMCB4AwDQYJKoZIhvcNAQELBQADggIB
ANn6apCW71bcRXU452LmqbTw6KpIeNcPVHQS2bMf7B2DanGbA5umEF2TYZyplJfF
tpXAV73vnUvuBEbjZwSQ+S3bV72fRq+dnybw0HQDSqnuTVsIUTEMIWDt53VoapzG
l3u1U6Lr6J+/Pgzj6I/IwalOZVfF0RBOcfJlO3FToORfzsNecBnivNgw5+P0J7Ze
OFgYV85X7KI0SeSeuukOVMqyJ17A4AFxEd7DuVya5/6vEFV58Yb4918BXTat9HGS
BiD1mhmHU2MwNxTvePnKD5CyO5RTHezeoiWQij6GTFMulOhV6/i+j6ZYoGmLWjMq
rTuJ3IyNfXBV5caFcdXIy92rmBDVA8huW5IJCrIwJcHD1pIsojtzF0mx08b8B9Ho
48Ii8aA7Sbs6Epi41jOU7UjfZHGepzxzy9MpsfnZGSd570ObKUvTk0Df6esmybPP
suGRP9E+/GSK0NsTCSMurG2rhiBK6yjdqEDnz5VfgewBzeIuAWsOt/a2s0SPas/p
uXvXSwhdxXehtZ7eF3JjxzSlXKoXJDf05zjrf2/60CMCEzbESk5cXk/u8RKl7h1+
/bupQe47/ZSMtcSsTybGT9b+DAx1mS1eLlY/hXqEJfovXgd4rP3ZOQBez8ClCbML
vfNwEqJxg0TiwNb/wgS2/Yrrp27YcUbxE2LNkW+fV0tM
-----END CERTIFICATE-----
