Certificate:
    Data:
        Version: 3 (0x2)
        Serial Number: 11628 (0x2d6c)
    Signature Algorithm: sha256WithRSAEncryption
        Issuer: C=US, ST=OH, L=Columbus, O=VikingVPN, OU=MyOrganizationalUnit, CN=VikingVPN CA/name=EasyRSA/emailAddress=me@myhost.mydomain
        Validity
            Not Before: Aug 26 03:30:00 2017 GMT
            Not After : Aug 24 03:30:00 2027 GMT
        Subject: CN=Client2991Cert1eaeb3
        Subject Public Key Info:
            Public Key Algorithm: rsaEncryption
                Public-Key: (4096 bit)
                Modulus:
                    00:fa:d0:c1:a9:bb:8d:cf:ad:2f:26:01:59:c4:ca:
                    19:61:2f:66:1b:c9:7d:f7:26:4a:66:d6:a0:2b:1f:
                    86:ab:ef:ee:8a:e0:a9:31:6f:4d:e5:e4:c3:af:c4:
                    6d:9e:2d:83:cf:98:2c:89:9c:4f:3b:e0:0f:81:6e:
                    9c:8a:07:e0:c3:07:ca:3b:42:02:3c:89:2e:93:f0:
                    e2:f5:45:15:f6:8d:3c:2d:99:04:de:da:9a:62:c1:
                    54:08:1c:eb:f2:41:90:9b:30:9b:b2:fe:aa:d8:34:
                    1c:75:12:08:03:37:5c:46:19:2e:d0:5e:80:ef:a5:
                    82:36:4f:17:e5:f3:ab:c7:14:49:e1:b7:35:e3:e6:
                    a7:5b:1c:2b:24:e4:08:e0:6e:ba:96:24:a6:f3:34:
                    3b:9b:33:04:ba:ae:c4:77:40:82:d5:ac:15:0f:6a:
                    85:84:7f:22:62:5b:39:1f:cd:d7:00:67:c2:fc:1c:
                    e9:6b:31:2d:a0:57:a3:29:ec:b7:8f:7d:54:16:13:
                    8f:9f:d6:f1:a0:38:3f:df:a6:d9:dd:7e:7c:6e:5d:
                    3e:be:33:b5:8b:f0:3c:d2:d4:90:0c:ee:04:2b:a4:
                    c1:93:ec:11:f9:20:f6:8c:c7:99:3e:f0:08:94:c0:
                    aa:7c:12:c7:16:5f:74:f5:bd:9c:65:79:d7:4a:44:
                    be:41:b9:fb:2f:33:a2:f5:47:61:90:c1:f0:4d:30:
                    b5:e3:cf:da:5e:3c:46:62:5e:b4:04:0c:14:89:f1:
                    96:89:84:58:02:7d:32:74:e6:31:d9:88:da:49:86:
                    d7:67:4f:5e:94:8e:bc:88:bb:c7:06:31:fc:6f:fe:
                    1f:53:b0:1e:80:f0:56:31:b6:d8:86:6c:4d:1d:f2:
                    11:ca:ce:85:29:03:c2:7c:55:c5:56:b2:da:e1:b0:
                    e1:b6:5c:57:5b:a1:b2:b6:45:2b:8f:72:2e:cc:5e:
                    f4:76:2b:a7:fe:24:1d:92:f5:97:31:fd:0d:19:fc:
                    4b:11:c5:c8:00:39:ea:cd:f5:7e:59:36:f0:71:a4:
                    75:a9:90:c5:6e:c4:22:a9:61:90:19:30:fe:3a:1e:
                    c8:3b:07:b3:b3:9c:34:68:af:52:5a:dc:2d:42:fd:
                    62:36:6b:7f:fe:9e:5e:82:13:ba:4a:e0:3c:d0:42:
                    be:40:b2:0e:99:34:a1:54:55:19:5f:fa:34:aa:6e:
                    d0:db:ea:00:a4:cc:59:c8:66:db:7e:78:dd:5d:1f:
                    71:59:3e:a8:8c:ad:08:1a:c8:75:91:66:85:46:86:
                    c0:8c:39:ad:14:ed:94:9a:74:83:64:1d:50:64:ae:
                    53:f4:13:00:e7:28:06:5b:32:aa:a9:bf:59:1a:b7:
                    d3:6d:db
                Exponent: 65537 (0x10001)
        X509v3 extensions:
            X509v3 Basic Constraints: 
                CA:FALSE
            Netscape Comment: 
                Easy-RSA Generated Certificate
            X509v3 Subject Key Identifier: 
                47:02:F7:C3:71:24:B4:55:DD:4F:E2:0B:6B:55:B8:C4:AE:D4:11:6D
            X509v3 Authority Key Identifier: 
                keyid:12:CD:60:04:D2:A0:80:9E:70:ED:C6:99:B8:7B:2C:C6:52:FD:19:A1
                DirName:/C=US/ST=OH/L=Columbus/O=VikingVPN/OU=MyOrganizationalUnit/CN=VikingVPN CA/name=EasyRSA/emailAddress=me@myhost.mydomain
                serial:CF:35:85:EE:80:BF:2A:3E

            X509v3 Extended Key Usage: 
                TLS Web Client Authentication
            X509v3 Key Usage: 
                Digital Signature
    Signature Algorithm: sha256WithRSAEncryption
         c9:df:f6:7a:ce:a3:bd:f7:0c:24:35:b3:80:94:a5:40:8e:2c:
         cb:9e:27:d8:c0:60:66:35:07:af:60:da:ca:a1:07:e7:f8:d6:
         27:5f:7b:91:e0:64:d3:f4:26:e0:a6:7b:97:dd:17:51:c2:19:
         29:aa:87:23:1d:d1:93:c4:3e:55:03:0d:f3:e2:95:84:d5:c1:
         98:06:09:b8:af:8f:36:b2:3e:81:a7:46:53:93:40:bd:83:ac:
         b7:2e:cf:5b:aa:6c:3f:df:dd:d0:eb:7e:61:f7:4a:c8:83:61:
         76:4d:2d:70:4f:7b:65:26:75:5a:a7:ff:ed:f9:c4:78:a9:bb:
         38:1f:7c:1e:52:42:47:bd:8d:25:3b:d2:a6:3b:5a:ed:85:db:
         ab:7f:69:98:94:6d:b8:37:91:3c:8f:4c:4d:02:a4:36:bb:04:
         94:2b:65:df:58:df:64:a1:6e:95:4f:5d:ed:07:e4:13:b6:76:
         96:78:85:92:be:6a:7b:e7:97:0f:9a:a1:f3:44:6a:8d:25:91:
         c3:da:f8:15:fa:3f:c4:69:bd:de:07:a9:ef:bb:3c:e7:3f:83:
         78:c1:11:4f:3a:55:43:d0:57:5f:c7:4d:0a:b8:07:38:1e:de:
         69:98:a6:99:c0:0d:16:4e:68:47:ec:81:de:46:b2:1f:9d:b9:
         33:4d:a6:77:34:44:39:df:13:40:9f:73:1f:35:2b:11:4e:16:
         53:48:c9:3d:23:95:38:8b:2a:7b:c9:50:ed:63:3c:47:b5:ab:
         06:28:5c:41:b3:d0:69:cc:10:55:c4:58:f5:f4:81:d3:c0:62:
         a9:2c:3a:d1:fc:f4:50:2c:e2:7b:43:80:81:fd:dd:2c:2f:74:
         e1:be:60:ee:78:34:44:07:be:75:2f:ab:cb:71:3d:93:07:ec:
         cb:dc:40:20:83:09:a9:36:29:82:10:3f:91:ac:99:63:7a:29:
         f5:de:41:7b:e2:3e:56:a5:6f:cb:5d:9e:51:33:78:45:76:ed:
         5b:a8:54:c7:86:4e:e6:17:0b:ae:b8:5d:5a:b4:8f:78:3c:09:
         e4:b3:01:4e:de:68:ff:d8:c2:e5:02:a0:79:32:4f:6f:39:fb:
         38:c8:d4:a4:be:4a:53:3c:de:c0:0e:9a:2a:6e:a6:4c:15:f2:
         47:a3:1c:91:44:ac:37:0e:f5:53:99:9b:58:c9:20:74:ce:7f:
         97:c7:5c:9f:c1:9b:95:e8:3a:5a:48:30:5f:7a:05:52:98:7b:
         76:c1:d7:ff:e4:dd:d7:30:77:e0:9b:84:9e:94:33:2e:f6:22:
         3a:dc:84:60:b9:59:d1:0d:fd:ac:32:5a:d2:59:1f:14:01:f2:
         7d:1f:4a:dd:06:6a:ed:47
-----BEGIN CERTIFICATE-----
MIIGrTCCBJWgAwIBAgICLWwwDQYJKoZIhvcNAQELBQAwgawxCzAJBgNVBAYTAlVT
MQswCQYDVQQIEwJPSDERMA8GA1UEBxMIQ29sdW1idXMxEjAQBgNVBAoTCVZpa2lu
Z1ZQTjEdMBsGA1UECxMUTXlPcmdhbml6YXRpb25hbFVuaXQxFTATBgNVBAMTDFZp
a2luZ1ZQTiBDQTEQMA4GA1UEKRMHRWFzeVJTQTEhMB8GCSqGSIb3DQEJARYSbWVA
bXlob3N0Lm15ZG9tYWluMB4XDTE3MDgyNjAzMzAwMFoXDTI3MDgyNDAzMzAwMFow
HzEdMBsGA1UEAxMUQ2xpZW50Mjk5MUNlcnQxZWFlYjMwggIiMA0GCSqGSIb3DQEB
AQUAA4ICDwAwggIKAoICAQD60MGpu43PrS8mAVnEyhlhL2YbyX33Jkpm1qArH4ar
7+6K4Kkxb03l5MOvxG2eLYPPmCyJnE874A+BbpyKB+DDB8o7QgI8iS6T8OL1RRX2
jTwtmQTe2ppiwVQIHOvyQZCbMJuy/qrYNBx1EggDN1xGGS7QXoDvpYI2Txfl86vH
FEnhtzXj5qdbHCsk5AjgbrqWJKbzNDubMwS6rsR3QILVrBUPaoWEfyJiWzkfzdcA
Z8L8HOlrMS2gV6Mp7LePfVQWE4+f1vGgOD/fptndfnxuXT6+M7WL8DzS1JAM7gQr
pMGT7BH5IPaMx5k+8AiUwKp8EscWX3T1vZxleddKRL5BufsvM6L1R2GQwfBNMLXj
z9pePEZiXrQEDBSJ8ZaJhFgCfTJ05jHZiNpJhtdnT16UjryIu8cGMfxv/h9TsB6A
8FYxttiGbE0d8hHKzoUpA8J8VcVWstrhsOG2XFdbobK2RSuPci7MXvR2K6f+JB2S
9Zcx/Q0Z/EsRxcgAOerN9X5ZNvBxpHWpkMVuxCKpYZAZMP46Hsg7B7OznDRor1Ja
3C1C/WI2a3/+nl6CE7pK4DzQQr5Asg6ZNKFUVRlf+jSqbtDb6gCkzFnIZtt+eN1d
H3FZPqiMrQgayHWRZoVGhsCMOa0U7ZSadINkHVBkrlP0EwDnKAZbMqqpv1kat9Nt
2wIDAQABo4IBYzCCAV8wCQYDVR0TBAIwADAtBglghkgBhvhCAQ0EIBYeRWFzeS1S
U0EgR2VuZXJhdGVkIENlcnRpZmljYXRlMB0GA1UdDgQWBBRHAvfDcSS0Vd1P4gtr
VbjErtQRbTCB4QYDVR0jBIHZMIHWgBQSzWAE0qCAnnDtxpm4eyzGUv0ZoaGBsqSB
rzCBrDELMAkGA1UEBhMCVVMxCzAJBgNVBAgTAk9IMREwDwYDVQQHEwhDb2x1bWJ1
czESMBAGA1UEChMJVmlraW5nVlBOMR0wGwYDVQQLExRNeU9yZ2FuaXphdGlvbmFs
VW5pdDEVMBMGA1UEAxMMVmlraW5nVlBOIENBMRAwDgYDVQQpEwdFYXN5UlNBMSEw
HwYJKoZIhvcNAQkBFhJtZUBteWhvc3QubXlkb21haW6CCQDPNYXugL8qPjATBgNV
HSUEDDAKBggrBgEFBQcDAjALBgNVHQ8EBAMCB4AwDQYJKoZIhvcNAQELBQADggIB
AMnf9nrOo733DCQ1s4CUpUCOLMueJ9jAYGY1B69g2sqhB+f41idfe5HgZNP0JuCm
e5fdF1HCGSmqhyMd0ZPEPlUDDfPilYTVwZgGCbivjzayPoGnRlOTQL2DrLcuz1uq
bD/f3dDrfmH3SsiDYXZNLXBPe2UmdVqn/+35xHipuzgffB5SQke9jSU70qY7Wu2F
26t/aZiUbbg3kTyPTE0CpDa7BJQrZd9Y32ShbpVPXe0H5BO2dpZ4hZK+anvnlw+a
ofNEao0lkcPa+BX6P8Rpvd4Hqe+7POc/g3jBEU86VUPQV1/HTQq4Bzge3mmYppnA
DRZOaEfsgd5Gsh+duTNNpnc0RDnfE0Cfcx81KxFOFlNIyT0jlTiLKnvJUO1jPEe1
qwYoXEGz0GnMEFXEWPX0gdPAYqksOtH89FAs4ntDgIH93SwvdOG+YO54NEQHvnUv
q8txPZMH7MvcQCCDCak2KYIQP5GsmWN6KfXeQXviPlalb8tdnlEzeEV27VuoVMeG
TuYXC664XVq0j3g8CeSzAU7eaP/YwuUCoHkyT285+zjI1KS+SlM83sAOmipupkwV
8kejHJFErDcO9VOZm1jJIHTOf5fHXJ/Bm5XoOlpIMF96BVKYe3bB1//k3dcwd+Cb
hJ6UMy72IjrchGC5WdEN/awyWtJZHxQB8n0fSt0Gau1H
-----END CERTIFICATE-----
