Certificate:
    Data:
        Version: 3 (0x2)
        Serial Number: 4697 (0x1259)
    Signature Algorithm: md5WithRSAEncryption
        Issuer: C=US, ST=OH, L=Columbus, O=VikingVPN, OU=MyOrganizationalUnit, CN=VikingVPN CA/name=EasyRSA/emailAddress=me@myhost.mydomain
        Validity
            Not Before: Mar  8 13:57:47 2015 GMT
            Not After : Mar  5 13:57:47 2025 GMT
        Subject: CN=Client1529Cert9a8e5d
        Subject Public Key Info:
            Public Key Algorithm: rsaEncryption
                Public-Key: (4096 bit)
                Modulus:
                    00:c3:0e:b3:e6:64:9d:65:10:8b:0d:42:ec:77:f3:
                    14:82:bf:81:88:32:2c:be:84:80:1a:40:c5:df:1d:
                    9c:ac:c5:2a:cb:6e:26:7d:37:42:0b:d4:77:78:74:
                    10:37:1a:fd:1f:f0:48:2c:2d:b6:2a:f5:47:b6:05:
                    57:bb:b1:6d:83:29:a0:dc:f9:e7:e9:d1:d0:6c:60:
                    5d:a2:c0:82:35:e3:1b:96:eb:da:44:75:84:12:54:
                    0f:5a:f8:1d:15:03:85:63:c5:e0:81:59:b0:90:ad:
                    08:fb:7b:1c:c4:02:16:5c:fc:df:5c:36:95:8d:02:
                    4c:b6:e2:ec:01:38:1e:52:cb:fe:13:6f:8b:99:16:
                    f1:75:a2:bb:88:ca:21:48:58:df:c5:3b:13:af:4b:
                    2f:ec:25:61:5d:f1:fe:db:1f:f5:20:ef:41:f8:a7:
                    0c:f5:8d:47:6c:ee:3c:a9:d4:02:09:51:2c:7a:c0:
                    0f:e1:eb:9f:04:6d:c6:69:42:1f:a1:bf:18:11:99:
                    8d:bf:40:5d:19:54:23:69:bb:80:98:97:f0:7e:7c:
                    95:21:9b:cc:9d:5b:d4:32:36:76:c0:2b:5b:09:5e:
                    a3:07:9e:a1:cf:d6:9f:69:18:2c:73:30:86:d9:f7:
                    f9:e3:52:15:b7:a1:4e:2c:42:5d:a3:f2:51:e0:07:
                    c4:4f:df:58:d9:63:27:96:c1:ec:0e:c0:a0:25:00:
                    f8:1e:13:d3:ff:d7:27:95:f7:86:f6:b6:23:da:1f:
                    c5:fd:b5:ad:ee:61:0c:0b:21:70:b2:16:30:fa:21:
                    c1:a8:1e:3d:e4:46:89:11:3c:8c:40:04:d9:f2:bd:
                    db:40:7a:87:b5:8c:87:0b:24:89:b9:bc:8f:d2:58:
                    5b:ee:c2:39:65:ad:6c:38:66:42:b8:e9:bd:dd:a4:
                    33:30:c9:52:31:d1:a2:03:c9:23:9d:75:87:ae:14:
                    ec:4e:a2:77:a2:e7:a0:47:b4:c0:d1:8a:d7:df:8b:
                    ce:c8:6a:80:4d:2e:8d:ca:9b:35:4c:52:1c:92:f3:
                    9f:2f:ed:db:06:f1:80:2e:48:77:95:9e:f0:ac:14:
                    22:47:c3:5a:16:d9:2e:95:04:18:e4:ae:bd:dc:b7:
                    d8:6e:80:25:ec:3b:6e:97:c2:6e:02:17:d6:b9:df:
                    d8:76:30:8b:cd:68:a1:3b:76:32:28:5a:65:b5:d5:
                    9c:9e:3f:d0:3d:38:2c:26:5d:9a:ee:7b:c9:50:e8:
                    61:28:f3:38:19:85:2e:94:7c:fb:81:18:ec:48:8c:
                    02:61:f4:e3:fc:a5:38:69:05:16:bd:3d:17:7f:52:
                    45:97:33:40:56:d8:6e:a9:45:86:62:06:30:c5:35:
                    dd:b1:09
                Exponent: 65537 (0x10001)
        X509v3 extensions:
            X509v3 Basic Constraints: 
                CA:FALSE
            Netscape Comment: 
                Easy-RSA Generated Certificate
            X509v3 Subject Key Identifier: 
                5B:22:05:71:0F:32:58:EC:5D:9F:11:30:82:25:35:B5:F9:E9:B9:5A
            X509v3 Authority Key Identifier: 
                keyid:12:CD:60:04:D2:A0:80:9E:70:ED:C6:99:B8:7B:2C:C6:52:FD:19:A1
                DirName:/C=US/ST=OH/L=Columbus/O=VikingVPN/OU=MyOrganizationalUnit/CN=VikingVPN CA/name=EasyRSA/emailAddress=me@myhost.mydomain
                serial:CF:35:85:EE:80:BF:2A:3E

            X509v3 Extended Key Usage: 
                TLS Web Client Authentication
            X509v3 Key Usage: 
                Digital Signature
    Signature Algorithm: md5WithRSAEncryption
         7e:12:2b:77:58:7a:84:73:ff:ff:e3:ec:39:35:c5:c6:b1:ea:
         4d:4e:0c:e8:21:85:20:a7:e5:49:c7:1c:b3:ea:46:e1:9d:d3:
         19:1e:1e:c7:7c:90:b7:26:41:18:ca:55:93:e3:de:b8:d1:a9:
         56:65:dd:57:16:ad:ec:15:eb:ab:2c:fa:fc:74:2e:25:7a:c5:
         87:49:54:bc:d9:cf:da:04:38:90:84:39:52:44:eb:e1:d1:a1:
         91:cb:f7:2c:20:3e:ff:f8:d6:1c:e9:44:3d:4e:bf:99:ea:2e:
         a4:ad:d7:c4:41:e4:91:07:45:28:f5:12:46:e2:12:a8:14:b7:
         93:e2:23:ff:18:1b:36:a7:02:b1:94:ad:70:2d:13:3e:31:02:
         3e:22:fd:98:70:c4:19:9a:c8:3a:31:4a:bc:55:c1:e3:ec:15:
         76:4d:43:1b:48:80:4a:2c:49:49:6a:3a:82:27:76:3a:f9:81:
         9d:00:c8:0a:ca:74:ec:a5:d6:14:ae:0d:b9:2f:6b:a0:87:5b:
         9e:46:ed:94:f2:4b:03:fb:71:e8:9d:78:1f:f7:57:0e:f5:8a:
         7c:73:1c:98:fa:34:ad:0b:67:3a:89:e8:29:fd:7b:53:b7:ac:
         15:89:0c:60:55:2e:83:d6:30:fc:7f:4e:a7:90:00:e7:72:61:
         d2:9d:88:b8:5e:bb:85:77:dd:52:9c:16:08:25:61:df:0a:d1:
         1d:86:1e:16:da:d2:3b:3d:65:25:09:7a:1f:58:0f:39:7e:fc:
         da:bb:4d:90:9e:cf:96:26:27:27:31:8b:0e:a4:bd:6f:ab:f5:
         3f:5a:c3:b3:b3:ed:0a:d3:0f:70:02:56:1d:e9:4d:da:fd:5a:
         5b:74:b4:0d:2b:87:11:2e:cd:5b:9d:98:1d:43:38:ed:fd:f4:
         e4:af:b8:35:18:d8:c2:59:ea:36:27:7e:c6:89:53:63:63:00:
         7a:f2:84:f0:4b:18:24:a8:0e:64:3a:29:8c:d8:f4:13:7f:9e:
         e3:96:51:4b:5a:44:de:5e:2e:e3:9c:db:4b:36:7a:29:4f:4c:
         f5:a3:f3:1e:e6:65:b3:7b:26:fd:79:e1:fa:2d:5f:8f:fb:79:
         36:0d:07:64:df:41:2b:c5:fc:02:e0:3c:6f:b7:59:39:e3:ee:
         fe:94:87:4c:28:16:cc:24:74:84:5c:ab:10:34:52:08:0d:2e:
         61:66:65:7e:cc:46:a2:0c:6a:ac:7e:84:7f:53:ef:74:37:3e:
         91:bf:c9:4c:c9:7d:a2:29:23:e3:df:10:7c:e4:a3:f2:41:92:
         a6:96:be:31:de:fc:ba:69:b7:4b:86:57:38:14:dd:1c:4d:0c:
         cf:92:4e:6c:cd:ff:c7:d1
-----BEGIN CERTIFICATE-----
MIIGrTCCBJWgAwIBAgICElkwDQYJKoZIhvcNAQEEBQAwgawxCzAJBgNVBAYTAlVT
MQswCQYDVQQIEwJPSDERMA8GA1UEBxMIQ29sdW1idXMxEjAQBgNVBAoTCVZpa2lu
Z1ZQTjEdMBsGA1UECxMUTXlPcmdhbml6YXRpb25hbFVuaXQxFTATBgNVBAMTDFZp
a2luZ1ZQTiBDQTEQMA4GA1UEKRMHRWFzeVJTQTEhMB8GCSqGSIb3DQEJARYSbWVA
bXlob3N0Lm15ZG9tYWluMB4XDTE1MDMwODEzNTc0N1oXDTI1MDMwNTEzNTc0N1ow
HzEdMBsGA1UEAxMUQ2xpZW50MTUyOUNlcnQ5YThlNWQwggIiMA0GCSqGSIb3DQEB
AQUAA4ICDwAwggIKAoICAQDDDrPmZJ1lEIsNQux38xSCv4GIMiy+hIAaQMXfHZys
xSrLbiZ9N0IL1Hd4dBA3Gv0f8EgsLbYq9Ue2BVe7sW2DKaDc+efp0dBsYF2iwII1
4xuW69pEdYQSVA9a+B0VA4VjxeCBWbCQrQj7exzEAhZc/N9cNpWNAky24uwBOB5S
y/4Tb4uZFvF1oruIyiFIWN/FOxOvSy/sJWFd8f7bH/Ug70H4pwz1jUds7jyp1AIJ
USx6wA/h658EbcZpQh+hvxgRmY2/QF0ZVCNpu4CYl/B+fJUhm8ydW9QyNnbAK1sJ
XqMHnqHP1p9pGCxzMIbZ9/njUhW3oU4sQl2j8lHgB8RP31jZYyeWwewOwKAlAPge
E9P/1yeV94b2tiPaH8X9ta3uYQwLIXCyFjD6IcGoHj3kRokRPIxABNnyvdtAeoe1
jIcLJIm5vI/SWFvuwjllrWw4ZkK46b3dpDMwyVIx0aIDySOddYeuFOxOonei56BH
tMDRitffi87IaoBNLo3KmzVMUhyS858v7dsG8YAuSHeVnvCsFCJHw1oW2S6VBBjk
rr3ct9hugCXsO26Xwm4CF9a539h2MIvNaKE7djIoWmW11ZyeP9A9OCwmXZrue8lQ
6GEo8zgZhS6UfPuBGOxIjAJh9OP8pThpBRa9PRd/UkWXM0BW2G6pRYZiBjDFNd2x
CQIDAQABo4IBYzCCAV8wCQYDVR0TBAIwADAtBglghkgBhvhCAQ0EIBYeRWFzeS1S
U0EgR2VuZXJhdGVkIENlcnRpZmljYXRlMB0GA1UdDgQWBBRbIgVxDzJY7F2fETCC
JTW1+em5WjCB4QYDVR0jBIHZMIHWgBQSzWAE0qCAnnDtxpm4eyzGUv0ZoaGBsqSB
rzCBrDELMAkGA1UEBhMCVVMxCzAJBgNVBAgTAk9IMREwDwYDVQQHEwhDb2x1bWJ1
czESMBAGA1UEChMJVmlraW5nVlBOMR0wGwYDVQQLExRNeU9yZ2FuaXphdGlvbmFs
VW5pdDEVMBMGA1UEAxMMVmlraW5nVlBOIENBMRAwDgYDVQQpEwdFYXN5UlNBMSEw
HwYJKoZIhvcNAQkBFhJtZUBteWhvc3QubXlkb21haW6CCQDPNYXugL8qPjATBgNV
HSUEDDAKBggrBgEFBQcDAjALBgNVHQ8EBAMCB4AwDQYJKoZIhvcNAQEEBQADggIB
AH4SK3dYeoRz///j7Dk1xcax6k1ODOghhSCn5UnHHLPqRuGd0xkeHsd8kLcmQRjK
VZPj3rjRqVZl3VcWrewV66ss+vx0LiV6xYdJVLzZz9oEOJCEOVJE6+HRoZHL9ywg
Pv/41hzpRD1Ov5nqLqSt18RB5JEHRSj1EkbiEqgUt5PiI/8YGzanArGUrXAtEz4x
Aj4i/ZhwxBmayDoxSrxVwePsFXZNQxtIgEosSUlqOoIndjr5gZ0AyArKdOyl1hSu
Dbkva6CHW55G7ZTySwP7ceideB/3Vw71inxzHJj6NK0LZzqJ6Cn9e1O3rBWJDGBV
LoPWMPx/TqeQAOdyYdKdiLheu4V33VKcFgglYd8K0R2GHhba0js9ZSUJeh9YDzl+
/Nq7TZCez5YmJycxiw6kvW+r9T9aw7Oz7QrTD3ACVh3pTdr9Wlt0tA0rhxEuzVud
mB1DOO399OSvuDUY2MJZ6jYnfsaJU2NjAHryhPBLGCSoDmQ6KYzY9BN/nuOWUUta
RN5eLuOc20s2eilPTPWj8x7mZbN7Jv154fotX4/7eTYNB2TfQSvF/ALgPG+3WTnj
7v6Uh0woFswkdIRcqxA0UggNLmFmZX7MRqIMaqx+hH9T73Q3PpG/yUzJfaIpI+Pf
EHzko/JBkqaWvjHe/Lppt0uGVzgU3RxNDM+STmzN/8fR
-----END CERTIFICATE-----
