Certificate:
    Data:
        Version: 3 (0x2)
        Serial Number: 12350 (0x303e)
    Signature Algorithm: sha256WithRSAEncryption
        Issuer: C=US, ST=OH, L=Columbus, O=VikingVPN, OU=MyOrganizationalUnit, CN=VikingVPN CA/name=EasyRSA/emailAddress=me@myhost.mydomain
        Validity
            Not Before: Jan  3 18:51:28 2018 GMT
            Not After : Jan  1 18:51:28 2028 GMT
        Subject: CN=Client1966Certb70930
        Subject Public Key Info:
            Public Key Algorithm: rsaEncryption
                Public-Key: (4096 bit)
                Modulus:
                    00:dc:d9:c0:6f:c8:d6:30:b5:11:f6:36:05:2f:d6:
                    e2:fe:55:70:02:d5:e0:45:ce:c3:f3:f4:c3:2c:ce:
                    f1:65:bf:83:b5:64:0b:3d:2c:48:98:50:2e:72:83:
                    0a:e9:7e:91:9f:55:fb:fb:af:ae:1e:0a:38:22:0b:
                    2f:0d:da:4e:81:39:3a:db:b3:a6:4d:f6:23:0c:ea:
                    f7:80:14:b6:9e:a1:ed:e5:9a:af:3d:08:cb:8f:04:
                    99:4b:26:05:81:29:b8:43:ab:e0:c5:a8:a2:7f:c8:
                    14:b7:22:51:43:85:47:ef:eb:f6:13:db:51:34:f6:
                    3d:80:f5:fc:4e:a6:2b:07:63:b2:e2:c1:41:ab:4a:
                    0e:cb:a5:a3:d2:e9:92:99:59:e3:72:e7:a1:27:98:
                    62:86:3b:e2:73:1d:b2:3d:50:e9:83:ff:f8:2c:77:
                    1f:26:12:39:d6:d1:a8:42:37:d8:b9:bc:4e:6b:dc:
                    b0:6e:eb:21:81:1a:07:69:6c:cf:4c:58:cd:7f:6a:
                    75:06:8b:2a:a9:0f:0e:2b:f9:82:c3:22:f2:03:88:
                    95:80:53:cc:31:11:93:aa:3e:38:36:3e:f8:a9:70:
                    36:7b:34:f1:70:1c:13:a9:52:46:b8:37:cd:23:95:
                    f1:97:4d:7f:c5:54:6b:cb:e9:3a:14:e5:72:e9:9b:
                    3f:14:ce:1c:91:65:a2:a1:74:72:97:39:c9:e9:ed:
                    6d:1e:9a:b7:66:45:14:9d:fd:1a:c2:6c:03:e7:cc:
                    8b:bd:d4:bd:1e:31:b7:e2:ab:f6:b3:f1:92:ae:dc:
                    36:ee:8a:f6:cf:ce:95:0c:59:4a:9c:72:3f:c0:ee:
                    b3:26:34:db:7e:89:83:30:7a:f9:43:98:f2:03:f7:
                    99:8d:9a:bf:95:6d:2b:09:e8:c8:2b:bf:03:8a:d1:
                    f5:6b:26:3a:18:28:24:af:8a:1b:74:a8:75:33:e4:
                    14:c9:1d:5e:37:71:30:31:ee:b0:b8:2d:dc:f0:7d:
                    52:12:76:0b:bc:c7:02:6e:fb:c9:03:60:78:ab:07:
                    d0:49:ea:35:be:4d:ba:91:49:73:a1:a7:39:24:c3:
                    fb:48:7a:4c:6c:a9:3f:7a:17:7e:66:da:ec:e3:28:
                    bb:0a:33:0e:5c:dd:13:30:79:12:f4:9e:43:e4:ea:
                    88:97:5b:c5:f0:ed:6f:9d:00:33:e9:55:8b:7a:4a:
                    4a:04:57:8c:1e:2b:d9:0c:03:2a:77:14:f2:b7:f2:
                    e6:ce:c8:eb:d7:52:63:c8:27:bb:12:c2:50:e2:a2:
                    09:af:cd:8e:05:cc:db:36:7c:b3:0f:e9:91:40:4a:
                    d6:b6:9f:aa:45:06:02:45:5a:83:d5:42:c9:31:d7:
                    2f:be:d1
                Exponent: 65537 (0x10001)
        X509v3 extensions:
            X509v3 Basic Constraints: 
                CA:FALSE
            Netscape Comment: 
                Easy-RSA Generated Certificate
            X509v3 Subject Key Identifier: 
                14:15:DD:3B:71:CD:A0:5A:E7:87:A4:8F:A5:F3:B9:40:66:75:54:EE
            X509v3 Authority Key Identifier: 
                keyid:12:CD:60:04:D2:A0:80:9E:70:ED:C6:99:B8:7B:2C:C6:52:FD:19:A1
                DirName:/C=US/ST=OH/L=Columbus/O=VikingVPN/OU=MyOrganizationalUnit/CN=VikingVPN CA/name=EasyRSA/emailAddress=me@myhost.mydomain
                serial:CF:35:85:EE:80:BF:2A:3E

            X509v3 Extended Key Usage: 
                TLS Web Client Authentication
            X509v3 Key Usage: 
                Digital Signature
    Signature Algorithm: sha256WithRSAEncryption
         b0:91:0c:11:08:75:67:76:cb:cc:99:f6:40:9f:d6:89:41:95:
         49:29:5e:7f:d5:74:63:2f:5b:71:8d:4f:d0:ca:47:dc:e4:a5:
         7f:4d:b5:ca:6c:6e:63:69:7d:98:ad:e4:64:3c:f9:bb:8c:e0:
         62:97:9a:68:49:47:3d:1f:28:44:c9:26:24:18:51:93:02:a6:
         af:35:26:7a:c3:9b:cf:7e:68:80:e6:e5:36:c8:76:ed:29:d6:
         c9:a7:71:f6:f9:3a:99:a4:4a:90:cf:82:7d:76:10:2e:b8:dc:
         7a:71:c5:b0:82:74:d7:09:93:2c:59:b6:fd:d6:99:7e:3c:b7:
         a6:2b:8d:b8:c6:ce:d4:2a:fc:95:f8:ad:9a:81:cb:43:09:07:
         67:23:83:29:5e:71:d0:11:d2:48:71:05:0c:10:68:d5:5a:c5:
         25:3c:f4:23:85:96:e8:61:b0:6c:3a:d6:1c:df:10:c8:09:8f:
         6a:e0:6d:e4:95:2b:51:9f:49:18:59:27:08:01:99:ab:d3:9f:
         cc:63:14:af:2d:47:66:3a:0c:6d:53:34:37:2d:9a:75:cd:fe:
         7e:44:f6:53:af:d1:0c:29:5c:ea:69:99:37:36:44:ca:a7:39:
         5b:21:e1:25:e3:f5:a0:61:4c:3d:78:be:58:c3:77:a2:7a:bf:
         ad:9a:1c:b6:c6:95:77:79:47:6c:ac:f0:63:d6:d2:17:ec:c2:
         e8:b6:c0:f9:53:d3:43:fa:23:fd:9a:16:79:13:94:d5:c4:40:
         70:a6:fa:2c:6e:bc:13:3d:f3:54:af:b8:d1:c5:84:3f:c6:08:
         9c:31:c0:18:17:26:ea:99:9c:26:0c:0b:b6:e5:60:95:83:61:
         67:08:5f:e5:c9:fd:aa:6b:b6:6e:20:5c:25:9e:23:04:a9:15:
         ba:e2:c0:f7:9c:ae:8e:ef:58:1d:c3:70:8c:30:ea:24:b6:1d:
         1e:7b:0f:28:8a:ab:69:2c:fa:aa:ae:06:be:47:37:a8:12:d0:
         b5:e7:ba:da:23:9c:77:8e:c5:3d:d6:bb:4d:98:df:f7:21:5e:
         90:e0:8d:3f:b4:a5:89:c6:a0:9e:c4:37:9b:e5:be:68:c3:ea:
         1f:49:9f:45:e7:8c:c8:59:a2:ad:e7:6d:4b:ce:97:ed:cf:36:
         1c:ef:c9:cf:27:fc:e1:88:fc:fc:95:d1:58:ea:ce:88:4b:5f:
         8e:53:00:7a:0a:7d:0c:bc:9c:dc:d1:98:13:02:12:a0:5c:c8:
         6b:02:d3:21:33:10:4f:c7:19:3c:05:2d:d1:2c:17:f1:5f:73:
         20:40:f3:1b:80:a4:45:81:19:c8:a0:c1:2a:1a:b3:6c:a4:5a:
         18:4e:57:51:17:87:a8:5f
-----BEGIN CERTIFICATE-----
MIIGrTCCBJWgAwIBAgICMD4wDQYJKoZIhvcNAQELBQAwgawxCzAJBgNVBAYTAlVT
MQswCQYDVQQIEwJPSDERMA8GA1UEBxMIQ29sdW1idXMxEjAQBgNVBAoTCVZpa2lu
Z1ZQTjEdMBsGA1UECxMUTXlPcmdhbml6YXRpb25hbFVuaXQxFTATBgNVBAMTDFZp
a2luZ1ZQTiBDQTEQMA4GA1UEKRMHRWFzeVJTQTEhMB8GCSqGSIb3DQEJARYSbWVA
bXlob3N0Lm15ZG9tYWluMB4XDTE4MDEwMzE4NTEyOFoXDTI4MDEwMTE4NTEyOFow
HzEdMBsGA1UEAxMUQ2xpZW50MTk2NkNlcnRiNzA5MzAwggIiMA0GCSqGSIb3DQEB
AQUAA4ICDwAwggIKAoICAQDc2cBvyNYwtRH2NgUv1uL+VXAC1eBFzsPz9MMszvFl
v4O1ZAs9LEiYUC5ygwrpfpGfVfv7r64eCjgiCy8N2k6BOTrbs6ZN9iMM6veAFLae
oe3lmq89CMuPBJlLJgWBKbhDq+DFqKJ/yBS3IlFDhUfv6/YT21E09j2A9fxOpisH
Y7LiwUGrSg7LpaPS6ZKZWeNy56EnmGKGO+JzHbI9UOmD//gsdx8mEjnW0ahCN9i5
vE5r3LBu6yGBGgdpbM9MWM1/anUGiyqpDw4r+YLDIvIDiJWAU8wxEZOqPjg2Pvip
cDZ7NPFwHBOpUka4N80jlfGXTX/FVGvL6ToU5XLpmz8UzhyRZaKhdHKXOcnp7W0e
mrdmRRSd/RrCbAPnzIu91L0eMbfiq/az8ZKu3DbuivbPzpUMWUqccj/A7rMmNNt+
iYMwevlDmPID95mNmr+VbSsJ6MgrvwOK0fVrJjoYKCSviht0qHUz5BTJHV43cTAx
7rC4LdzwfVISdgu8xwJu+8kDYHirB9BJ6jW+TbqRSXOhpzkkw/tIekxsqT96F35m
2uzjKLsKMw5c3RMweRL0nkPk6oiXW8Xw7W+dADPpVYt6SkoEV4weK9kMAyp3FPK3
8ubOyOvXUmPIJ7sSwlDiogmvzY4FzNs2fLMP6ZFASta2n6pFBgJFWoPVQskx1y++
0QIDAQABo4IBYzCCAV8wCQYDVR0TBAIwADAtBglghkgBhvhCAQ0EIBYeRWFzeS1S
U0EgR2VuZXJhdGVkIENlcnRpZmljYXRlMB0GA1UdDgQWBBQUFd07cc2gWueHpI+l
87lAZnVU7jCB4QYDVR0jBIHZMIHWgBQSzWAE0qCAnnDtxpm4eyzGUv0ZoaGBsqSB
rzCBrDELMAkGA1UEBhMCVVMxCzAJBgNVBAgTAk9IMREwDwYDVQQHEwhDb2x1bWJ1
czESMBAGA1UEChMJVmlraW5nVlBOMR0wGwYDVQQLExRNeU9yZ2FuaXphdGlvbmFs
VW5pdDEVMBMGA1UEAxMMVmlraW5nVlBOIENBMRAwDgYDVQQpEwdFYXN5UlNBMSEw
HwYJKoZIhvcNAQkBFhJtZUBteWhvc3QubXlkb21haW6CCQDPNYXugL8qPjATBgNV
HSUEDDAKBggrBgEFBQcDAjALBgNVHQ8EBAMCB4AwDQYJKoZIhvcNAQELBQADggIB
ALCRDBEIdWd2y8yZ9kCf1olBlUkpXn/VdGMvW3GNT9DKR9zkpX9NtcpsbmNpfZit
5GQ8+buM4GKXmmhJRz0fKETJJiQYUZMCpq81JnrDm89+aIDm5TbIdu0p1smncfb5
OpmkSpDPgn12EC643HpxxbCCdNcJkyxZtv3WmX48t6YrjbjGztQq/JX4rZqBy0MJ
B2cjgylecdAR0khxBQwQaNVaxSU89COFluhhsGw61hzfEMgJj2rgbeSVK1GfSRhZ
JwgBmavTn8xjFK8tR2Y6DG1TNDctmnXN/n5E9lOv0QwpXOppmTc2RMqnOVsh4SXj
9aBhTD14vljDd6J6v62aHLbGlXd5R2ys8GPW0hfswui2wPlT00P6I/2aFnkTlNXE
QHCm+ixuvBM981SvuNHFhD/GCJwxwBgXJuqZnCYMC7blYJWDYWcIX+XJ/aprtm4g
XCWeIwSpFbriwPecro7vWB3DcIww6iS2HR57DyiKq2ks+qquBr5HN6gS0LXnutoj
nHeOxT3Wu02Y3/chXpDgjT+0pYnGoJ7EN5vlvmjD6h9Jn0XnjMhZoq3nbUvOl+3P
Nhzvyc8n/OGI/PyV0VjqzohLX45TAHoKfQy8nNzRmBMCEqBcyGsC0yEzEE/HGTwF
LdEsF/FfcyBA8xuApEWBGcigwSoas2ykWhhOV1EXh6hf
-----END CERTIFICATE-----
