Certificate:
    Data:
        Version: 3 (0x2)
        Serial Number: 8337 (0x2091)
    Signature Algorithm: md5WithRSAEncryption
        Issuer: C=US, ST=OH, L=Columbus, O=VikingVPN, OU=MyOrganizationalUnit, CN=VikingVPN CA/name=EasyRSA/emailAddress=me@myhost.mydomain
        Validity
            Not Before: Jun 22 02:56:52 2016 GMT
            Not After : Jun 20 02:56:52 2026 GMT
        Subject: CN=Client2402Cert525e36
        Subject Public Key Info:
            Public Key Algorithm: rsaEncryption
                Public-Key: (4096 bit)
                Modulus:
                    00:d2:8f:8d:34:2e:89:70:19:99:7b:c6:4e:22:69:
                    32:9c:5e:ea:ea:20:bc:fd:df:3b:68:61:79:54:03:
                    75:fa:50:cc:09:cf:17:19:15:30:05:95:d5:25:b8:
                    5a:55:6a:ac:49:2d:08:a8:e1:50:aa:57:5e:9e:4d:
                    95:55:28:7d:7a:5c:bc:a2:89:3e:cd:69:5b:53:8c:
                    f1:e1:64:8a:91:c3:81:89:1d:10:7b:ef:bc:33:f5:
                    6c:6a:16:42:ef:19:45:71:26:bc:5f:c0:43:f1:be:
                    99:56:72:a7:e8:25:6f:e6:a2:1a:fd:cf:a1:59:9f:
                    25:d7:64:d2:eb:1c:63:19:cd:b4:1b:30:49:ef:6f:
                    28:7a:83:e6:1e:63:e5:61:cd:20:25:f2:ca:68:ae:
                    2b:27:ed:20:1a:c9:e2:f6:bc:ee:25:15:ad:09:36:
                    f6:5e:31:06:e0:21:12:2d:73:8d:de:95:39:7f:87:
                    64:c2:da:59:8a:97:0a:a3:a7:9a:1c:ed:be:49:7a:
                    6d:56:8d:28:0e:39:d9:8a:f4:da:db:f2:dc:a3:90:
                    b0:aa:69:da:1f:c5:db:1c:d1:b7:d8:2d:09:42:80:
                    77:53:3c:ba:08:27:3a:9f:86:59:a4:81:72:5b:03:
                    e0:2b:1d:3d:60:67:3b:8d:2c:8e:c0:62:b9:3a:4d:
                    30:72:f0:67:ca:15:0b:4a:09:a9:0c:48:29:ef:fe:
                    6a:aa:86:43:a0:08:0e:18:20:1c:1d:d9:7e:b4:80:
                    11:e1:ba:27:13:88:eb:ac:f6:f0:97:74:0a:5d:cf:
                    bf:44:12:7d:20:98:00:9b:5e:5f:2f:e3:c9:e4:57:
                    f0:23:94:ab:9f:df:d5:b6:82:98:b5:d8:d9:58:5e:
                    af:7a:62:a2:11:47:dd:97:aa:1e:ea:79:bf:9e:81:
                    99:14:44:58:cb:2b:70:a5:85:fc:64:3f:30:81:43:
                    66:9a:b2:2b:52:75:be:7f:60:42:8e:72:bd:d8:26:
                    67:44:e4:d1:14:fa:4a:2f:26:e1:c7:37:8a:ea:4b:
                    20:63:dd:f8:bc:1d:d4:15:0f:ec:6f:26:d7:6b:14:
                    ac:7d:c4:a0:2a:1f:47:ca:73:5a:fd:89:f7:ce:67:
                    19:45:ee:27:c7:ca:80:45:fe:92:86:b1:20:da:83:
                    4b:73:da:64:14:74:a2:74:58:76:fb:8a:0d:f5:8b:
                    44:6e:47:4a:7c:2c:59:3e:e9:0d:5c:00:a7:98:f3:
                    f6:10:d3:67:1f:7f:af:29:89:97:cd:99:d1:a7:ed:
                    2b:87:bc:d3:2e:df:33:c2:cd:34:a2:67:e4:98:d9:
                    85:a2:45:f8:58:14:6b:ed:88:c1:4d:2d:09:26:49:
                    d1:eb:b7
                Exponent: 65537 (0x10001)
        X509v3 extensions:
            X509v3 Basic Constraints: 
                CA:FALSE
            Netscape Comment: 
                Easy-RSA Generated Certificate
            X509v3 Subject Key Identifier: 
                F7:63:8B:6B:34:80:D3:99:18:70:A8:D7:FA:26:5E:15:60:A9:A5:8A
            X509v3 Authority Key Identifier: 
                keyid:12:CD:60:04:D2:A0:80:9E:70:ED:C6:99:B8:7B:2C:C6:52:FD:19:A1
                DirName:/C=US/ST=OH/L=Columbus/O=VikingVPN/OU=MyOrganizationalUnit/CN=VikingVPN CA/name=EasyRSA/emailAddress=me@myhost.mydomain
                serial:CF:35:85:EE:80:BF:2A:3E

            X509v3 Extended Key Usage: 
                TLS Web Client Authentication
            X509v3 Key Usage: 
                Digital Signature
    Signature Algorithm: md5WithRSAEncryption
         d2:b0:ce:57:5a:2a:6f:83:b7:81:37:b1:65:cf:fc:79:7e:c4:
         98:e9:7e:62:7e:09:13:f3:d8:46:77:65:64:9c:de:0d:bf:d2:
         c2:af:8f:9f:52:80:13:57:5c:b4:b7:c8:9c:f5:6f:7e:fc:6d:
         30:8d:bf:36:08:81:01:4f:3f:e6:ee:7f:c6:64:38:2e:91:bd:
         b7:ff:1d:d3:70:73:c8:a6:ac:16:84:31:66:71:3b:ff:e2:a8:
         2f:59:5c:c2:d6:8d:12:65:1a:44:4c:d0:ca:60:bf:7e:59:0b:
         d5:d5:80:9a:15:75:77:34:cb:b0:51:b3:7e:9e:f8:c8:d0:fe:
         3b:91:d8:57:d2:15:0e:0a:8c:e3:a7:a0:3f:24:1f:b3:35:f3:
         a4:b6:f5:35:59:0b:58:55:b2:93:26:1c:36:3e:0e:95:0d:5c:
         e0:0f:24:40:0f:81:63:31:c1:f3:72:b6:d5:14:86:2c:0c:e6:
         33:24:94:7e:14:59:53:26:76:58:e9:f6:bc:79:83:2d:36:92:
         84:a9:32:e5:9d:f0:7b:7f:c4:29:fa:48:26:97:f4:c4:e1:7a:
         82:1b:ed:97:31:7d:ce:1f:63:2f:67:8c:e7:67:39:d3:33:ec:
         c8:1a:05:1d:da:6e:72:43:a5:ac:6b:c1:96:9c:fa:b3:87:60:
         ec:6e:e7:89:23:1e:9d:14:cc:d9:08:cc:d3:eb:25:c1:30:2b:
         97:ba:14:17:35:d7:d3:d9:99:6d:6b:ec:5d:0c:46:e9:be:d6:
         5e:6b:f2:5c:26:9c:3b:51:aa:2e:b7:d4:cf:ec:1e:18:28:e8:
         67:8c:5b:f5:f9:81:6e:c8:90:8a:cf:42:3e:43:71:0f:5d:9a:
         51:12:02:6b:bf:3c:4c:eb:28:3f:cc:cf:41:b8:b1:ed:f2:f1:
         b8:39:80:c2:ee:25:3c:83:70:67:3b:8c:e2:75:02:50:24:30:
         83:0a:7b:9d:e3:d0:ec:96:d3:e0:48:56:65:b2:ce:03:ba:69:
         46:58:c6:ba:36:8b:68:bb:8a:46:90:2a:2c:bf:9e:8b:cd:e6:
         23:75:6b:2f:92:77:d6:3d:dc:f2:42:e8:c2:84:66:f4:a9:1b:
         e2:b8:c9:ee:ae:23:49:a3:33:fe:da:0d:3b:27:dc:65:89:7b:
         9b:0f:f8:79:93:ca:0d:0c:e2:27:a4:03:68:46:02:73:e5:75:
         d5:3a:51:10:54:5e:99:98:f4:23:9e:bb:db:b1:cc:05:3b:da:
         92:ab:63:17:c8:d7:7e:9f:d4:38:d0:6b:76:7c:ad:21:dd:6c:
         e0:0b:08:92:30:f6:2d:9f:09:cd:f3:3d:b4:7a:74:10:a8:e3:
         ae:1e:11:c8:f7:34:c5:ae
-----BEGIN CERTIFICATE-----
MIIGrTCCBJWgAwIBAgICIJEwDQYJKoZIhvcNAQEEBQAwgawxCzAJBgNVBAYTAlVT
MQswCQYDVQQIEwJPSDERMA8GA1UEBxMIQ29sdW1idXMxEjAQBgNVBAoTCVZpa2lu
Z1ZQTjEdMBsGA1UECxMUTXlPcmdhbml6YXRpb25hbFVuaXQxFTATBgNVBAMTDFZp
a2luZ1ZQTiBDQTEQMA4GA1UEKRMHRWFzeVJTQTEhMB8GCSqGSIb3DQEJARYSbWVA
bXlob3N0Lm15ZG9tYWluMB4XDTE2MDYyMjAyNTY1MloXDTI2MDYyMDAyNTY1Mlow
HzEdMBsGA1UEAxMUQ2xpZW50MjQwMkNlcnQ1MjVlMzYwggIiMA0GCSqGSIb3DQEB
AQUAA4ICDwAwggIKAoICAQDSj400LolwGZl7xk4iaTKcXurqILz93ztoYXlUA3X6
UMwJzxcZFTAFldUluFpVaqxJLQio4VCqV16eTZVVKH16XLyiiT7NaVtTjPHhZIqR
w4GJHRB777wz9WxqFkLvGUVxJrxfwEPxvplWcqfoJW/mohr9z6FZnyXXZNLrHGMZ
zbQbMEnvbyh6g+YeY+VhzSAl8sporisn7SAayeL2vO4lFa0JNvZeMQbgIRItc43e
lTl/h2TC2lmKlwqjp5oc7b5Jem1WjSgOOdmK9Nrb8tyjkLCqadofxdsc0bfYLQlC
gHdTPLoIJzqfhlmkgXJbA+ArHT1gZzuNLI7AYrk6TTBy8GfKFQtKCakMSCnv/mqq
hkOgCA4YIBwd2X60gBHhuicTiOus9vCXdApdz79EEn0gmACbXl8v48nkV/AjlKuf
39W2gpi12NlYXq96YqIRR92Xqh7qeb+egZkURFjLK3ClhfxkPzCBQ2aasitSdb5/
YEKOcr3YJmdE5NEU+kovJuHHN4rqSyBj3fi8HdQVD+xvJtdrFKx9xKAqH0fKc1r9
iffOZxlF7ifHyoBF/pKGsSDag0tz2mQUdKJ0WHb7ig31i0RuR0p8LFk+6Q1cAKeY
8/YQ02cff68piZfNmdGn7SuHvNMu3zPCzTSiZ+SY2YWiRfhYFGvtiMFNLQkmSdHr
twIDAQABo4IBYzCCAV8wCQYDVR0TBAIwADAtBglghkgBhvhCAQ0EIBYeRWFzeS1S
U0EgR2VuZXJhdGVkIENlcnRpZmljYXRlMB0GA1UdDgQWBBT3Y4trNIDTmRhwqNf6
Jl4VYKmlijCB4QYDVR0jBIHZMIHWgBQSzWAE0qCAnnDtxpm4eyzGUv0ZoaGBsqSB
rzCBrDELMAkGA1UEBhMCVVMxCzAJBgNVBAgTAk9IMREwDwYDVQQHEwhDb2x1bWJ1
czESMBAGA1UEChMJVmlraW5nVlBOMR0wGwYDVQQLExRNeU9yZ2FuaXphdGlvbmFs
VW5pdDEVMBMGA1UEAxMMVmlraW5nVlBOIENBMRAwDgYDVQQpEwdFYXN5UlNBMSEw
HwYJKoZIhvcNAQkBFhJtZUBteWhvc3QubXlkb21haW6CCQDPNYXugL8qPjATBgNV
HSUEDDAKBggrBgEFBQcDAjALBgNVHQ8EBAMCB4AwDQYJKoZIhvcNAQEEBQADggIB
ANKwzldaKm+Dt4E3sWXP/Hl+xJjpfmJ+CRPz2EZ3ZWSc3g2/0sKvj59SgBNXXLS3
yJz1b378bTCNvzYIgQFPP+buf8ZkOC6Rvbf/HdNwc8imrBaEMWZxO//iqC9ZXMLW
jRJlGkRM0Mpgv35ZC9XVgJoVdXc0y7BRs36e+MjQ/juR2FfSFQ4KjOOnoD8kH7M1
86S29TVZC1hVspMmHDY+DpUNXOAPJEAPgWMxwfNyttUUhiwM5jMklH4UWVMmdljp
9rx5gy02koSpMuWd8Ht/xCn6SCaX9MTheoIb7Zcxfc4fYy9njOdnOdMz7MgaBR3a
bnJDpaxrwZac+rOHYOxu54kjHp0UzNkIzNPrJcEwK5e6FBc119PZmW1r7F0MRum+
1l5r8lwmnDtRqi631M/sHhgo6GeMW/X5gW7IkIrPQj5DcQ9dmlESAmu/PEzrKD/M
z0G4se3y8bg5gMLuJTyDcGc7jOJ1AlAkMIMKe53j0OyW0+BIVmWyzgO6aUZYxro2
i2i7ikaQKiy/novN5iN1ay+Sd9Y93PJC6MKEZvSpG+K4ye6uI0mjM/7aDTsn3GWJ
e5sP+HmTyg0M4iekA2hGAnPlddU6URBUXpmY9COeu9uxzAU72pKrYxfI136f1DjQ
a3Z8rSHdbOALCJIw9i2fCc3zPbR6dBCo464eEcj3NMWu
-----END CERTIFICATE-----
