Certificate:
    Data:
        Version: 3 (0x2)
        Serial Number: 10964 (0x2ad4)
    Signature Algorithm: sha256WithRSAEncryption
        Issuer: C=US, ST=OH, L=Columbus, O=VikingVPN, OU=MyOrganizationalUnit, CN=VikingVPN CA/name=EasyRSA/emailAddress=me@myhost.mydomain
        Validity
            Not Before: May 18 13:23:27 2017 GMT
            Not After : May 16 13:23:27 2027 GMT
        Subject: CN=Client631Cert6a69fc
        Subject Public Key Info:
            Public Key Algorithm: rsaEncryption
                Public-Key: (4096 bit)
                Modulus:
                    00:98:c7:19:85:20:ef:4b:44:2f:d6:11:a1:78:e1:
                    e6:73:56:46:35:e1:c7:16:b8:9b:46:1a:39:20:68:
                    13:fc:4c:c4:54:76:c9:98:4b:e0:87:4c:c5:7c:6d:
                    d9:77:0d:82:14:4f:b1:cc:e4:f5:c8:0e:56:c0:6b:
                    3a:23:78:43:6f:60:15:63:6a:af:92:29:09:b1:ef:
                    fc:ee:f9:bc:eb:d5:6d:7a:11:96:46:4c:93:c5:2c:
                    d2:2b:1f:4c:e2:ac:a0:ae:c6:cc:78:d8:ce:f7:90:
                    27:7c:0b:05:4c:ec:c8:14:d4:2e:1e:c3:aa:6a:5a:
                    f9:70:7e:64:39:58:da:b2:91:5b:20:51:10:44:b8:
                    31:4d:d1:6c:ad:74:d1:c1:ec:ee:9a:56:88:02:39:
                    8a:38:0e:7b:ec:85:b7:5e:4c:ec:72:71:55:2e:bd:
                    6e:00:e0:30:67:45:36:f2:cb:31:d1:1c:02:97:88:
                    26:e0:16:11:02:f7:3c:54:2f:71:bb:1a:d0:27:2d:
                    a4:b5:d0:43:11:df:77:9d:6b:79:c6:34:16:de:ff:
                    64:6f:3b:03:0e:2e:3f:05:62:db:00:3f:9b:c1:32:
                    b9:fe:8d:19:0a:db:f9:ee:10:71:7f:9f:f5:e9:4e:
                    f6:c3:cd:66:24:22:b8:76:25:ee:f6:87:a4:df:9f:
                    8f:3f:0c:23:c8:29:a0:17:83:e3:9d:51:80:5f:42:
                    a5:2a:23:e9:75:58:ad:2c:5f:38:76:e1:14:f9:b4:
                    85:a1:02:cd:d7:f8:71:90:8c:42:9f:df:dc:9e:61:
                    47:94:c2:90:f2:33:7d:20:b5:67:b6:8b:e5:a0:c0:
                    2b:8b:be:a9:62:b5:7d:59:a5:3e:72:84:f8:a3:e9:
                    a4:90:cc:e0:b6:41:67:6c:44:fb:3e:a3:ea:36:f4:
                    39:75:33:b4:1a:47:93:02:54:2d:00:d3:67:83:7b:
                    ce:20:40:82:df:76:db:0a:28:36:b7:e7:04:36:36:
                    e1:53:ac:e7:21:11:54:8d:ef:2e:d4:89:8e:20:8d:
                    16:60:9a:ce:a5:9f:8a:10:2d:f8:d8:44:5a:69:1f:
                    55:c2:b7:9f:38:99:f2:2c:e7:c0:f3:1c:f0:13:bb:
                    c5:ad:b2:e6:d9:77:f3:3e:1e:3f:c1:95:1e:68:e2:
                    b9:bb:9f:a2:9f:68:fd:7d:8b:80:83:c2:11:f5:6d:
                    4a:14:e3:d4:6a:20:00:3e:4a:4c:a9:e0:b7:69:1e:
                    fa:7f:73:41:60:00:b3:0a:2f:43:cf:f8:88:e5:01:
                    d7:90:6a:74:18:69:28:bf:e9:ba:b4:f0:b0:70:49:
                    21:bf:9f:5d:24:76:a2:33:20:52:03:f4:c9:24:d4:
                    3c:23:e9
                Exponent: 65537 (0x10001)
        X509v3 extensions:
            X509v3 Basic Constraints: 
                CA:FALSE
            Netscape Comment: 
                Easy-RSA Generated Certificate
            X509v3 Subject Key Identifier: 
                DE:E8:14:4F:58:5C:44:A3:31:BB:44:ED:62:B0:31:A9:D8:02:09:AF
            X509v3 Authority Key Identifier: 
                keyid:12:CD:60:04:D2:A0:80:9E:70:ED:C6:99:B8:7B:2C:C6:52:FD:19:A1
                DirName:/C=US/ST=OH/L=Columbus/O=VikingVPN/OU=MyOrganizationalUnit/CN=VikingVPN CA/name=EasyRSA/emailAddress=me@myhost.mydomain
                serial:CF:35:85:EE:80:BF:2A:3E

            X509v3 Extended Key Usage: 
                TLS Web Client Authentication
            X509v3 Key Usage: 
                Digital Signature
    Signature Algorithm: sha256WithRSAEncryption
         6a:1c:4e:79:d5:a1:eb:0b:3c:51:ee:02:89:84:f2:ff:c9:df:
         72:66:44:4a:85:a7:02:ac:dd:54:c8:0e:5d:97:cd:18:d8:3a:
         4d:f3:af:4d:be:96:4d:aa:32:49:79:74:23:cb:af:ff:61:d0:
         b9:47:31:44:51:b4:43:49:1a:40:33:77:ea:76:3a:d2:4c:b1:
         eb:de:74:e4:29:7d:9b:05:09:b1:84:82:b1:6f:03:93:cd:1d:
         e1:2c:6b:f2:81:08:72:45:bf:8c:6e:c7:85:74:eb:af:0d:d9:
         a2:24:c8:cc:a9:9e:2f:d0:ed:2a:94:f1:b7:e5:21:af:55:8b:
         f0:8b:ed:9f:6d:78:da:1d:ce:51:74:e8:ac:08:bd:7d:d4:25:
         0f:a1:50:f4:5c:e6:45:4c:51:e6:1c:88:c2:e1:77:b3:d1:ed:
         4c:58:db:25:fd:66:ea:d3:52:5c:0a:dc:36:cd:30:54:f0:81:
         ab:66:e3:86:b6:5a:22:4a:e2:b4:a1:5a:b3:c0:d1:b1:4e:83:
         25:26:77:ff:58:85:55:7c:9f:05:3f:24:97:60:37:b3:e3:d2:
         a3:78:b6:ed:5a:2f:be:da:e7:c5:79:d6:32:b9:41:a8:fe:da:
         85:fc:52:fb:85:30:33:1f:33:a1:df:b3:db:8c:24:91:8f:d0:
         36:65:93:03:08:68:c7:d0:2b:86:1c:7d:7c:ce:e3:26:31:ab:
         74:26:b8:e4:f8:d2:4c:e8:cd:76:5f:32:c4:f1:59:17:78:30:
         11:ad:a6:7a:c0:91:44:46:30:1a:30:18:87:49:b4:e2:48:a1:
         ee:47:9a:f9:c3:4e:3d:05:5a:1f:22:e2:72:05:18:1f:33:33:
         73:0b:44:35:a0:26:eb:95:14:5d:f7:ca:7d:ae:0e:3f:38:c8:
         b5:e3:35:0d:da:85:4c:69:30:04:9e:32:68:12:d8:4d:b5:c6:
         78:44:d5:e4:6e:88:db:68:60:84:05:35:4b:f1:d8:32:b4:b8:
         2c:b1:86:c9:3d:eb:e7:f5:83:98:ae:ec:ed:0d:24:e3:58:0c:
         a1:37:bf:1e:cb:78:7b:ed:87:5c:90:c7:b8:9b:6d:31:c0:18:
         f2:aa:e0:04:4a:0c:42:99:27:a8:df:08:4d:29:05:98:f4:8f:
         5e:19:30:71:64:6b:27:b7:93:5d:49:62:1e:d4:5c:13:4c:8a:
         11:a4:33:39:5b:de:39:3b:57:93:3d:72:60:91:c6:0b:6f:72:
         8c:86:31:4f:23:e6:90:fd:12:db:a5:e0:89:96:89:62:44:c6:
         8a:50:0e:dd:35:fe:c2:3a:c8:fb:0d:6d:cc:2d:bd:bb:39:a9:
         c4:e3:46:2c:64:29:60:5c
-----BEGIN CERTIFICATE-----
MIIGrDCCBJSgAwIBAgICKtQwDQYJKoZIhvcNAQELBQAwgawxCzAJBgNVBAYTAlVT
MQswCQYDVQQIEwJPSDERMA8GA1UEBxMIQ29sdW1idXMxEjAQBgNVBAoTCVZpa2lu
Z1ZQTjEdMBsGA1UECxMUTXlPcmdhbml6YXRpb25hbFVuaXQxFTATBgNVBAMTDFZp
a2luZ1ZQTiBDQTEQMA4GA1UEKRMHRWFzeVJTQTEhMB8GCSqGSIb3DQEJARYSbWVA
bXlob3N0Lm15ZG9tYWluMB4XDTE3MDUxODEzMjMyN1oXDTI3MDUxNjEzMjMyN1ow
HjEcMBoGA1UEAxMTQ2xpZW50NjMxQ2VydDZhNjlmYzCCAiIwDQYJKoZIhvcNAQEB
BQADggIPADCCAgoCggIBAJjHGYUg70tEL9YRoXjh5nNWRjXhxxa4m0YaOSBoE/xM
xFR2yZhL4IdMxXxt2XcNghRPsczk9cgOVsBrOiN4Q29gFWNqr5IpCbHv/O75vOvV
bXoRlkZMk8Us0isfTOKsoK7GzHjYzveQJ3wLBUzsyBTULh7Dqmpa+XB+ZDlY2rKR
WyBREES4MU3RbK100cHs7ppWiAI5ijgOe+yFt15M7HJxVS69bgDgMGdFNvLLMdEc
ApeIJuAWEQL3PFQvcbsa0CctpLXQQxHfd51recY0Ft7/ZG87Aw4uPwVi2wA/m8Ey
uf6NGQrb+e4QcX+f9elO9sPNZiQiuHYl7vaHpN+fjz8MI8gpoBeD451RgF9CpSoj
6XVYrSxfOHbhFPm0haECzdf4cZCMQp/f3J5hR5TCkPIzfSC1Z7aL5aDAK4u+qWK1
fVmlPnKE+KPppJDM4LZBZ2xE+z6j6jb0OXUztBpHkwJULQDTZ4N7ziBAgt922woo
NrfnBDY24VOs5yERVI3vLtSJjiCNFmCazqWfihAt+NhEWmkfVcK3nziZ8iznwPMc
8BO7xa2y5tl38z4eP8GVHmjiubufop9o/X2LgIPCEfVtShTj1GogAD5KTKngt2ke
+n9zQWAAswovQ8/4iOUB15BqdBhpKL/purTwsHBJIb+fXSR2ojMgUgP0ySTUPCPp
AgMBAAGjggFjMIIBXzAJBgNVHRMEAjAAMC0GCWCGSAGG+EIBDQQgFh5FYXN5LVJT
QSBHZW5lcmF0ZWQgQ2VydGlmaWNhdGUwHQYDVR0OBBYEFN7oFE9YXESjMbtE7WKw
ManYAgmvMIHhBgNVHSMEgdkwgdaAFBLNYATSoICecO3Gmbh7LMZS/RmhoYGypIGv
MIGsMQswCQYDVQQGEwJVUzELMAkGA1UECBMCT0gxETAPBgNVBAcTCENvbHVtYnVz
MRIwEAYDVQQKEwlWaWtpbmdWUE4xHTAbBgNVBAsTFE15T3JnYW5pemF0aW9uYWxV
bml0MRUwEwYDVQQDEwxWaWtpbmdWUE4gQ0ExEDAOBgNVBCkTB0Vhc3lSU0ExITAf
BgkqhkiG9w0BCQEWEm1lQG15aG9zdC5teWRvbWFpboIJAM81he6Avyo+MBMGA1Ud
JQQMMAoGCCsGAQUFBwMCMAsGA1UdDwQEAwIHgDANBgkqhkiG9w0BAQsFAAOCAgEA
ahxOedWh6ws8Ue4CiYTy/8nfcmZESoWnAqzdVMgOXZfNGNg6TfOvTb6WTaoySXl0
I8uv/2HQuUcxRFG0Q0kaQDN36nY60kyx69505Cl9mwUJsYSCsW8Dk80d4Sxr8oEI
ckW/jG7HhXTrrw3ZoiTIzKmeL9DtKpTxt+Uhr1WL8Ivtn2142h3OUXTorAi9fdQl
D6FQ9FzmRUxR5hyIwuF3s9HtTFjbJf1m6tNSXArcNs0wVPCBq2bjhrZaIkritKFa
s8DRsU6DJSZ3/1iFVXyfBT8kl2A3s+PSo3i27VovvtrnxXnWMrlBqP7ahfxS+4Uw
Mx8zod+z24wkkY/QNmWTAwhox9Arhhx9fM7jJjGrdCa45PjSTOjNdl8yxPFZF3gw
Ea2mesCRREYwGjAYh0m04kih7kea+cNOPQVaHyLicgUYHzMzcwtENaAm65UUXffK
fa4OPzjIteM1DdqFTGkwBJ4yaBLYTbXGeETV5G6I22hghAU1S/HYMrS4LLGGyT3r
5/WDmK7s7Q0k41gMoTe/Hst4e+2HXJDHuJttMcAY8qrgBEoMQpknqN8ITSkFmPSP
XhkwcWRrJ7eTXUliHtRcE0yKEaQzOVveOTtXkz1yYJHGC29yjIYxTyPmkP0S26Xg
iZaJYkTGilAO3TX+wjrI+w1tzC29uzmpxONGLGQpYFw=
-----END CERTIFICATE-----
