Certificate:
    Data:
        Version: 3 (0x2)
        Serial Number: 2612 (0xa34)
    Signature Algorithm: md5WithRSAEncryption
        Issuer: C=US, ST=OH, L=Columbus, O=VikingVPN, OU=MyOrganizationalUnit, CN=VikingVPN CA/name=EasyRSA/emailAddress=me@myhost.mydomain
        Validity
            Not Before: Aug 19 03:38:57 2014 GMT
            Not After : Aug 16 03:38:57 2024 GMT
        Subject: CN=Client910Cert133aa0
        Subject Public Key Info:
            Public Key Algorithm: rsaEncryption
                Public-Key: (4096 bit)
                Modulus:
                    00:d9:f9:ab:fd:c5:09:aa:e9:9f:85:3d:97:29:36:
                    5d:e5:53:1b:73:72:5a:be:95:b0:43:3c:29:8b:e7:
                    bd:52:cc:60:87:ed:42:51:47:d1:18:60:d9:e3:6f:
                    1e:30:b3:34:2a:ca:80:38:c2:1e:85:ae:2b:d8:08:
                    a4:80:cb:80:60:0d:70:0f:a8:85:05:73:8b:e9:d1:
                    86:a0:bd:d4:00:05:0f:a6:27:29:1d:5f:1d:d8:b3:
                    a7:6d:7e:59:fb:86:4b:85:a5:6d:ac:d8:9c:a3:8a:
                    82:dc:b1:98:21:d1:21:13:2d:5e:4f:a3:38:3b:d5:
                    3d:d4:8e:d6:1a:6b:de:ed:bf:21:f3:ce:e1:95:45:
                    ff:26:8c:e7:a4:2d:d8:9a:ee:9f:a5:e2:06:88:48:
                    b1:57:9f:cd:ce:fe:dc:2b:52:56:97:d4:0f:09:86:
                    a4:c7:d3:2e:a4:13:f2:62:d9:3e:b3:9e:3d:9e:80:
                    8e:71:6d:8b:7c:d1:bf:1b:7f:02:70:18:4f:93:ad:
                    da:a2:c9:e8:6a:b1:b2:ed:ac:96:b2:0d:2b:da:28:
                    a5:6e:ba:11:45:10:80:6c:8d:1e:29:46:79:79:0d:
                    ec:d9:d1:e5:50:61:c6:ef:5d:08:8c:8f:6e:cc:ed:
                    7b:5c:a6:00:e3:2b:97:fb:04:9e:c0:07:1d:06:06:
                    44:5d:4f:40:54:69:69:cb:42:04:8b:ee:0d:d6:d3:
                    ba:d5:3e:d8:b0:ac:dc:a9:63:92:2f:3b:dc:8f:9a:
                    76:24:4f:36:8d:1f:aa:2e:4a:de:e1:09:ad:4b:4c:
                    9e:5c:a5:88:e5:65:0c:fc:5e:55:65:6c:42:d3:12:
                    e8:59:31:6f:88:40:a9:aa:eb:88:b3:c1:1f:3a:f7:
                    8d:99:2f:44:7d:a5:c0:a6:19:ca:46:60:3d:b4:7f:
                    c2:59:a2:2f:59:83:bb:0d:e6:4e:14:43:5e:d4:eb:
                    81:22:3b:08:ad:40:85:0c:71:92:51:8d:a1:00:1d:
                    32:62:e5:27:d6:86:00:e3:f9:61:aa:44:bd:ff:dd:
                    ce:23:9e:91:c7:7b:d4:d8:d2:7b:e8:0c:d1:40:e1:
                    04:7b:10:5c:69:f4:eb:b2:9c:51:a4:5b:d1:f7:d7:
                    db:f1:22:2e:d6:3c:40:a0:83:08:65:eb:f7:f2:4e:
                    d8:ab:e3:c6:ba:52:6f:65:72:05:0d:50:ca:18:57:
                    4e:2a:05:1f:9f:f0:56:9d:29:ac:e2:9e:ef:4c:4c:
                    4c:fb:c0:14:73:74:18:ef:22:40:f6:7a:27:32:17:
                    50:d4:55:28:e2:e2:63:0f:c3:14:a8:13:5c:31:0b:
                    f5:c9:96:7e:d3:00:47:d9:ab:9a:11:60:f0:7c:3b:
                    33:f9:91
                Exponent: 65537 (0x10001)
        X509v3 extensions:
            X509v3 Basic Constraints: 
                CA:FALSE
            Netscape Comment: 
                Easy-RSA Generated Certificate
            X509v3 Subject Key Identifier: 
                28:14:4A:33:C9:99:BC:2C:96:0A:A9:14:B5:13:AD:B9:F5:EA:8A:E5
            X509v3 Authority Key Identifier: 
                keyid:12:CD:60:04:D2:A0:80:9E:70:ED:C6:99:B8:7B:2C:C6:52:FD:19:A1
                DirName:/C=US/ST=OH/L=Columbus/O=VikingVPN/OU=MyOrganizationalUnit/CN=VikingVPN CA/name=EasyRSA/emailAddress=me@myhost.mydomain
                serial:CF:35:85:EE:80:BF:2A:3E

            X509v3 Extended Key Usage: 
                TLS Web Client Authentication
            X509v3 Key Usage: 
                Digital Signature
    Signature Algorithm: md5WithRSAEncryption
         21:f7:74:56:95:ef:3c:92:f3:81:be:cf:66:27:22:e9:8a:df:
         72:65:e3:07:c5:e2:16:22:35:42:d2:f8:09:46:bc:0c:ce:c9:
         4c:72:e3:10:1b:d4:95:62:1e:01:5b:82:12:96:04:08:ac:0f:
         d4:99:b2:57:60:b4:77:4e:9e:7d:d1:65:b7:bb:d9:10:ad:f2:
         15:ee:42:37:ee:4d:78:f5:09:1a:04:c2:f3:15:f4:23:47:c5:
         6b:53:05:36:64:99:1e:aa:e5:bc:f2:6f:ec:ed:c9:8c:8c:cd:
         c2:73:cc:c5:2c:09:cf:eb:0d:7f:08:d1:8e:20:82:c7:d0:ff:
         bd:ee:1a:9a:cf:61:fb:0d:d8:96:b8:20:0c:90:ed:da:85:68:
         c7:8a:fb:6d:e3:c6:11:fb:fa:b0:87:e5:b6:21:ee:d8:4f:28:
         ce:2d:9b:49:5c:79:28:57:9c:d1:62:82:ed:c1:35:b8:00:d4:
         96:0a:86:bf:d7:6b:a6:1b:32:cc:c0:00:84:14:49:42:a3:2f:
         3e:ed:21:fc:24:6b:59:56:a0:7a:4b:ca:8f:6d:5d:60:e6:95:
         b1:68:ac:49:02:a5:57:57:04:7d:09:46:e1:10:64:d8:e4:5f:
         6a:6d:aa:3a:ad:0c:f6:c7:8f:c8:fe:84:d6:13:09:90:52:b2:
         fb:24:44:f4:b4:b3:fe:27:5c:c1:0e:7b:6f:dd:5d:55:a3:ce:
         1f:d2:42:08:d5:82:c9:bd:c0:24:a0:77:0b:f0:d3:eb:e0:e8:
         da:df:6a:5e:e7:b8:45:92:7a:35:7f:dc:15:a1:3d:91:41:0d:
         85:ba:ab:d6:21:49:ed:c2:d1:41:bc:61:a1:01:7f:95:a7:e2:
         78:8e:03:2a:b5:44:19:12:58:aa:88:26:e0:dd:57:f3:52:7a:
         0e:bc:a4:7d:65:01:7a:81:cc:76:c7:ca:7d:01:2e:3c:93:9c:
         9b:53:94:83:04:a2:36:4e:15:51:c9:0c:b1:77:bf:e2:b3:94:
         64:78:e6:80:77:74:14:f0:34:a1:af:60:fa:86:09:f0:1e:48:
         2a:fb:f2:8a:de:64:b1:27:98:2b:4e:3c:c4:91:b1:33:b7:c2:
         4d:ec:31:c8:c2:56:0b:d1:11:d3:b2:9f:43:d9:48:93:d8:09:
         17:df:bb:63:d6:3e:55:90:f8:7e:5f:af:de:39:2d:c3:b6:f5:
         cc:82:ca:23:e2:88:41:23:59:fe:79:5b:35:5f:e1:3c:88:08:
         9a:8f:b7:bd:02:f5:d5:e5:a4:57:92:63:22:78:f1:54:5c:30:
         22:f1:dd:80:ea:70:35:6a:c9:98:9c:4e:92:a1:5f:e5:3f:11:
         ab:d2:c2:05:ac:03:60:4c
-----BEGIN CERTIFICATE-----
MIIGrDCCBJSgAwIBAgICCjQwDQYJKoZIhvcNAQEEBQAwgawxCzAJBgNVBAYTAlVT
MQswCQYDVQQIEwJPSDERMA8GA1UEBxMIQ29sdW1idXMxEjAQBgNVBAoTCVZpa2lu
Z1ZQTjEdMBsGA1UECxMUTXlPcmdhbml6YXRpb25hbFVuaXQxFTATBgNVBAMTDFZp
a2luZ1ZQTiBDQTEQMA4GA1UEKRMHRWFzeVJTQTEhMB8GCSqGSIb3DQEJARYSbWVA
bXlob3N0Lm15ZG9tYWluMB4XDTE0MDgxOTAzMzg1N1oXDTI0MDgxNjAzMzg1N1ow
HjEcMBoGA1UEAxMTQ2xpZW50OTEwQ2VydDEzM2FhMDCCAiIwDQYJKoZIhvcNAQEB
BQADggIPADCCAgoCggIBANn5q/3FCarpn4U9lyk2XeVTG3NyWr6VsEM8KYvnvVLM
YIftQlFH0Rhg2eNvHjCzNCrKgDjCHoWuK9gIpIDLgGANcA+ohQVzi+nRhqC91AAF
D6YnKR1fHdizp21+WfuGS4WlbazYnKOKgtyxmCHRIRMtXk+jODvVPdSO1hpr3u2/
IfPO4ZVF/yaM56Qt2Jrun6XiBohIsVefzc7+3CtSVpfUDwmGpMfTLqQT8mLZPrOe
PZ6AjnFti3zRvxt/AnAYT5Ot2qLJ6Gqxsu2slrINK9oopW66EUUQgGyNHilGeXkN
7NnR5VBhxu9dCIyPbszte1ymAOMrl/sEnsAHHQYGRF1PQFRpactCBIvuDdbTutU+
2LCs3Kljki873I+adiRPNo0fqi5K3uEJrUtMnlyliOVlDPxeVWVsQtMS6Fkxb4hA
qarriLPBHzr3jZkvRH2lwKYZykZgPbR/wlmiL1mDuw3mThRDXtTrgSI7CK1AhQxx
klGNoQAdMmLlJ9aGAOP5YapEvf/dziOekcd71NjSe+gM0UDhBHsQXGn067KcUaRb
0ffX2/EiLtY8QKCDCGXr9/JO2KvjxrpSb2VyBQ1QyhhXTioFH5/wVp0prOKe70xM
TPvAFHN0GO8iQPZ6JzIXUNRVKOLiYw/DFKgTXDEL9cmWftMAR9mrmhFg8Hw7M/mR
AgMBAAGjggFjMIIBXzAJBgNVHRMEAjAAMC0GCWCGSAGG+EIBDQQgFh5FYXN5LVJT
QSBHZW5lcmF0ZWQgQ2VydGlmaWNhdGUwHQYDVR0OBBYEFCgUSjPJmbwslgqpFLUT
rbn16orlMIHhBgNVHSMEgdkwgdaAFBLNYATSoICecO3Gmbh7LMZS/RmhoYGypIGv
MIGsMQswCQYDVQQGEwJVUzELMAkGA1UECBMCT0gxETAPBgNVBAcTCENvbHVtYnVz
MRIwEAYDVQQKEwlWaWtpbmdWUE4xHTAbBgNVBAsTFE15T3JnYW5pemF0aW9uYWxV
bml0MRUwEwYDVQQDEwxWaWtpbmdWUE4gQ0ExEDAOBgNVBCkTB0Vhc3lSU0ExITAf
BgkqhkiG9w0BCQEWEm1lQG15aG9zdC5teWRvbWFpboIJAM81he6Avyo+MBMGA1Ud
JQQMMAoGCCsGAQUFBwMCMAsGA1UdDwQEAwIHgDANBgkqhkiG9w0BAQQFAAOCAgEA
Ifd0VpXvPJLzgb7PZici6YrfcmXjB8XiFiI1QtL4CUa8DM7JTHLjEBvUlWIeAVuC
EpYECKwP1JmyV2C0d06efdFlt7vZEK3yFe5CN+5NePUJGgTC8xX0I0fFa1MFNmSZ
HqrlvPJv7O3JjIzNwnPMxSwJz+sNfwjRjiCCx9D/ve4ams9h+w3YlrggDJDt2oVo
x4r7bePGEfv6sIfltiHu2E8ozi2bSVx5KFec0WKC7cE1uADUlgqGv9drphsyzMAA
hBRJQqMvPu0h/CRrWVagekvKj21dYOaVsWisSQKlV1cEfQlG4RBk2ORfam2qOq0M
9sePyP6E1hMJkFKy+yRE9LSz/idcwQ57b91dVaPOH9JCCNWCyb3AJKB3C/DT6+Do
2t9qXue4RZJ6NX/cFaE9kUENhbqr1iFJ7cLRQbxhoQF/lafieI4DKrVEGRJYqogm
4N1X81J6DrykfWUBeoHMdsfKfQEuPJOcm1OUgwSiNk4VUckMsXe/4rOUZHjmgHd0
FPA0oa9g+oYJ8B5IKvvyit5ksSeYK048xJGxM7fCTewxyMJWC9ER07KfQ9lIk9gJ
F9+7Y9Y+VZD4fl+v3jktw7b1zILKI+KIQSNZ/nlbNV/hPIgImo+3vQL11eWkV5Jj
InjxVFwwIvHdgOpwNWrJmJxOkqFf5T8Rq9LCBawDYEw=
-----END CERTIFICATE-----
