Certificate:
    Data:
        Version: 3 (0x2)
        Serial Number: 3196 (0xc7c)
    Signature Algorithm: md5WithRSAEncryption
        Issuer: C=US, ST=OH, L=Columbus, O=VikingVPN, OU=MyOrganizationalUnit, CN=VikingVPN CA/name=EasyRSA/emailAddress=me@myhost.mydomain
        Validity
            Not Before: Oct 25 22:25:21 2014 GMT
            Not After : Oct 22 22:25:21 2024 GMT
        Subject: CN=Client1111Cert5cc40c
        Subject Public Key Info:
            Public Key Algorithm: rsaEncryption
                Public-Key: (4096 bit)
                Modulus:
                    00:e3:c9:25:43:27:39:0d:78:6a:7a:c7:36:be:57:
                    72:5c:48:53:c9:4a:b3:87:fe:25:59:62:36:4e:80:
                    0a:a3:fb:1f:06:82:ef:37:5c:3e:35:98:e9:bb:cf:
                    89:85:e3:c4:e2:fe:f6:65:25:bc:f7:b4:bb:48:7a:
                    1d:68:60:5a:2d:e2:21:f7:7b:20:d7:d1:63:bc:ad:
                    15:75:05:99:e0:cc:b5:5b:c5:57:9f:7e:f3:dc:ac:
                    9e:78:1f:cf:07:83:4e:83:9b:6f:12:93:11:b5:54:
                    b4:39:e4:f5:8d:aa:1e:12:6f:e3:ea:43:78:07:58:
                    a7:5a:3f:e8:52:07:3b:36:da:a9:61:f4:c4:21:09:
                    1d:0e:92:55:e9:8a:f6:cd:5e:13:42:0b:b9:a5:20:
                    c6:75:59:5c:af:4f:5c:7a:ba:04:20:b2:1b:59:87:
                    40:4e:8a:14:45:50:b1:11:9b:d2:35:4d:3c:fb:c5:
                    bf:26:98:0d:a0:ef:b1:42:00:26:10:f6:f0:f4:10:
                    0c:00:93:48:29:05:43:6e:c5:c2:a1:f7:33:1a:7a:
                    b1:f5:ca:c4:e7:88:67:87:b1:c6:5a:86:01:7d:ee:
                    a7:90:ec:94:14:3d:27:6c:c7:17:b6:e7:c6:77:37:
                    0a:37:90:0c:9a:f9:0e:fe:b4:af:8a:b1:62:55:9f:
                    f8:cf:a8:c7:32:b3:b6:90:ff:a4:40:21:88:96:2b:
                    fa:76:8c:01:fc:e6:ff:c3:71:19:90:d2:78:27:36:
                    91:53:9c:d7:7c:82:85:8c:fa:9d:03:ee:5a:b2:46:
                    69:e2:60:1d:fa:0d:64:e0:58:4f:46:3d:b4:9b:f5:
                    70:0e:68:eb:c8:e5:c5:49:d9:78:a1:2e:87:cd:67:
                    8d:1f:be:3d:ba:19:a4:9a:a4:9c:1f:9c:9d:5a:e1:
                    3c:c0:eb:70:f0:02:bd:9f:32:f2:dd:2e:46:16:1c:
                    c5:67:4b:9c:0a:c8:f0:07:ac:31:4d:23:88:e3:90:
                    c6:96:f1:bf:55:45:bb:44:cf:08:4d:fc:55:e1:25:
                    60:19:fb:a3:b0:6f:af:90:aa:a0:64:ce:aa:bc:84:
                    4c:c0:f6:f2:25:41:38:75:94:b7:12:d1:74:3e:28:
                    cd:96:78:43:a1:3c:82:fe:fc:ba:fd:a4:08:cf:74:
                    a5:63:85:4b:1f:22:57:39:3d:1c:a7:7e:5e:1f:f1:
                    dd:40:e0:57:54:62:19:ff:6e:d3:e0:58:cd:61:25:
                    8a:9a:96:eb:4f:78:0e:f1:02:16:92:46:c3:30:87:
                    73:15:3e:dd:7c:9c:e8:23:94:3a:e0:db:05:8f:ec:
                    8c:be:60:3c:76:b1:8e:89:58:ef:ac:4a:3b:15:6f:
                    2b:77:ed
                Exponent: 65537 (0x10001)
        X509v3 extensions:
            X509v3 Basic Constraints: 
                CA:FALSE
            Netscape Comment: 
                Easy-RSA Generated Certificate
            X509v3 Subject Key Identifier: 
                4A:25:6E:2E:0C:98:27:4D:E7:AD:00:5B:DC:74:44:A0:45:C8:35:EB
            X509v3 Authority Key Identifier: 
                keyid:12:CD:60:04:D2:A0:80:9E:70:ED:C6:99:B8:7B:2C:C6:52:FD:19:A1
                DirName:/C=US/ST=OH/L=Columbus/O=VikingVPN/OU=MyOrganizationalUnit/CN=VikingVPN CA/name=EasyRSA/emailAddress=me@myhost.mydomain
                serial:CF:35:85:EE:80:BF:2A:3E

            X509v3 Extended Key Usage: 
                TLS Web Client Authentication
            X509v3 Key Usage: 
                Digital Signature
    Signature Algorithm: md5WithRSAEncryption
         8f:cb:be:e2:d2:7e:b7:27:24:69:d6:f8:4e:29:f2:2f:a8:93:
         10:cc:fa:b3:9e:2b:ee:4c:18:ee:f1:bd:8c:d3:91:0e:6b:17:
         83:2f:98:71:20:44:e5:07:40:b7:6f:fb:a4:58:ed:ec:2a:88:
         f7:d7:34:d0:cb:24:37:b1:6f:35:fa:7f:70:92:89:40:7a:c0:
         58:41:1a:f1:8b:51:72:4c:bc:01:de:db:d3:35:df:65:14:b9:
         40:02:16:27:ee:3c:27:f1:e2:74:5c:73:ba:f8:5a:55:4e:4f:
         fd:f4:a1:7c:59:e2:bb:4d:0e:32:ee:9a:ed:08:02:7c:23:2d:
         78:89:3c:d4:d0:2e:1c:75:58:8d:90:f7:c1:bf:92:bb:fd:1d:
         a9:85:7d:4f:06:2a:da:15:13:40:86:dc:a2:f4:51:67:a1:50:
         70:d1:c6:10:9d:cc:3f:5e:08:01:e5:69:47:54:46:83:6a:9e:
         7d:a6:d1:96:8c:1e:c9:77:98:cd:fb:c8:41:a6:3c:49:33:97:
         c1:fd:87:77:ad:0d:c3:57:3e:2d:27:a5:32:d1:51:0f:3d:a2:
         c6:7c:b8:2d:ed:dc:2e:cb:40:2a:1c:63:11:82:6c:8a:ce:07:
         d6:0e:15:64:76:59:8a:06:4b:ab:1c:a2:a8:0f:69:3d:1b:57:
         cb:79:35:e2:0f:83:a1:ce:04:51:2b:bb:ee:64:32:20:11:8e:
         b4:f4:02:e4:98:c7:a0:c7:d4:bb:d0:b7:41:e7:ba:40:fa:9e:
         02:fa:34:9b:96:59:e3:b0:92:b6:e2:30:3b:6f:04:64:36:2f:
         4f:6d:99:f1:38:09:9b:4b:cb:ae:fc:09:17:4a:f3:53:a5:c3:
         1c:ab:d3:9b:cd:18:67:38:d1:5a:b2:74:6e:c9:97:20:ec:d8:
         74:81:26:5c:f0:7c:94:25:81:d0:ac:f0:44:b3:51:a1:25:a8:
         b7:6e:04:8b:f2:8a:33:29:b0:0b:71:5d:b0:0c:79:7f:af:79:
         de:c8:b2:ca:9b:e5:36:be:2e:58:d9:82:2d:dc:2d:9c:20:97:
         47:cb:c6:98:89:7b:ed:55:aa:09:b2:87:b9:c5:9f:81:f6:f1:
         b6:d3:9e:83:51:dd:39:2c:ce:b5:cd:95:12:2b:31:26:2c:69:
         92:bb:f8:3b:90:13:81:4a:a0:33:3b:10:b4:06:1e:e7:ad:08:
         ef:70:bc:80:8f:83:0b:ab:46:be:5b:d1:9b:a9:f2:30:2f:44:
         b2:97:8a:78:df:08:ed:dc:2f:48:65:6d:aa:46:cc:61:b4:ae:
         2b:ea:f4:51:5f:5e:06:1b:55:7e:87:93:b5:21:5c:81:d7:5b:
         e2:13:01:6d:c1:9d:8c:3d
-----BEGIN CERTIFICATE-----
MIIGrTCCBJWgAwIBAgICDHwwDQYJKoZIhvcNAQEEBQAwgawxCzAJBgNVBAYTAlVT
MQswCQYDVQQIEwJPSDERMA8GA1UEBxMIQ29sdW1idXMxEjAQBgNVBAoTCVZpa2lu
Z1ZQTjEdMBsGA1UECxMUTXlPcmdhbml6YXRpb25hbFVuaXQxFTATBgNVBAMTDFZp
a2luZ1ZQTiBDQTEQMA4GA1UEKRMHRWFzeVJTQTEhMB8GCSqGSIb3DQEJARYSbWVA
bXlob3N0Lm15ZG9tYWluMB4XDTE0MTAyNTIyMjUyMVoXDTI0MTAyMjIyMjUyMVow
HzEdMBsGA1UEAxMUQ2xpZW50MTExMUNlcnQ1Y2M0MGMwggIiMA0GCSqGSIb3DQEB
AQUAA4ICDwAwggIKAoICAQDjySVDJzkNeGp6xza+V3JcSFPJSrOH/iVZYjZOgAqj
+x8Ggu83XD41mOm7z4mF48Ti/vZlJbz3tLtIeh1oYFot4iH3eyDX0WO8rRV1BZng
zLVbxVeffvPcrJ54H88Hg06Dm28SkxG1VLQ55PWNqh4Sb+PqQ3gHWKdaP+hSBzs2
2qlh9MQhCR0OklXpivbNXhNCC7mlIMZ1WVyvT1x6ugQgshtZh0BOihRFULERm9I1
TTz7xb8mmA2g77FCACYQ9vD0EAwAk0gpBUNuxcKh9zMaerH1ysTniGeHscZahgF9
7qeQ7JQUPSdsxxe258Z3Nwo3kAya+Q7+tK+KsWJVn/jPqMcys7aQ/6RAIYiWK/p2
jAH85v/DcRmQ0ngnNpFTnNd8goWM+p0D7lqyRmniYB36DWTgWE9GPbSb9XAOaOvI
5cVJ2XihLofNZ40fvj26GaSapJwfnJ1a4TzA63DwAr2fMvLdLkYWHMVnS5wKyPAH
rDFNI4jjkMaW8b9VRbtEzwhN/FXhJWAZ+6Owb6+QqqBkzqq8hEzA9vIlQTh1lLcS
0XQ+KM2WeEOhPIL+/Lr9pAjPdKVjhUsfIlc5PRynfl4f8d1A4FdUYhn/btPgWM1h
JYqalutPeA7xAhaSRsMwh3MVPt18nOgjlDrg2wWP7Iy+YDx2sY6JWO+sSjsVbyt3
7QIDAQABo4IBYzCCAV8wCQYDVR0TBAIwADAtBglghkgBhvhCAQ0EIBYeRWFzeS1S
U0EgR2VuZXJhdGVkIENlcnRpZmljYXRlMB0GA1UdDgQWBBRKJW4uDJgnTeetAFvc
dESgRcg16zCB4QYDVR0jBIHZMIHWgBQSzWAE0qCAnnDtxpm4eyzGUv0ZoaGBsqSB
rzCBrDELMAkGA1UEBhMCVVMxCzAJBgNVBAgTAk9IMREwDwYDVQQHEwhDb2x1bWJ1
czESMBAGA1UEChMJVmlraW5nVlBOMR0wGwYDVQQLExRNeU9yZ2FuaXphdGlvbmFs
VW5pdDEVMBMGA1UEAxMMVmlraW5nVlBOIENBMRAwDgYDVQQpEwdFYXN5UlNBMSEw
HwYJKoZIhvcNAQkBFhJtZUBteWhvc3QubXlkb21haW6CCQDPNYXugL8qPjATBgNV
HSUEDDAKBggrBgEFBQcDAjALBgNVHQ8EBAMCB4AwDQYJKoZIhvcNAQEEBQADggIB
AI/LvuLSfrcnJGnW+E4p8i+okxDM+rOeK+5MGO7xvYzTkQ5rF4MvmHEgROUHQLdv
+6RY7ewqiPfXNNDLJDexbzX6f3CSiUB6wFhBGvGLUXJMvAHe29M132UUuUACFifu
PCfx4nRcc7r4WlVOT/30oXxZ4rtNDjLumu0IAnwjLXiJPNTQLhx1WI2Q98G/krv9
HamFfU8GKtoVE0CG3KL0UWehUHDRxhCdzD9eCAHlaUdURoNqnn2m0ZaMHsl3mM37
yEGmPEkzl8H9h3etDcNXPi0npTLRUQ89osZ8uC3t3C7LQCocYxGCbIrOB9YOFWR2
WYoGS6scoqgPaT0bV8t5NeIPg6HOBFEru+5kMiARjrT0AuSYx6DH1LvQt0HnukD6
ngL6NJuWWeOwkrbiMDtvBGQ2L09tmfE4CZtLy678CRdK81Olwxyr05vNGGc40Vqy
dG7JlyDs2HSBJlzwfJQlgdCs8ESzUaElqLduBIvyijMpsAtxXbAMeX+ved7Issqb
5Ta+LljZgi3cLZwgl0fLxpiJe+1Vqgmyh7nFn4H28bbTnoNR3TkszrXNlRIrMSYs
aZK7+DuQE4FKoDM7ELQGHuetCO9wvICPgwurRr5b0Zup8jAvRLKXinjfCO3cL0hl
bapGzGG0rivq9FFfXgYbVX6Hk7UhXIHXW+ITAW3BnYw9
-----END CERTIFICATE-----
