Certificate:
    Data:
        Version: 3 (0x2)
        Serial Number: 5700 (0x1644)
    Signature Algorithm: md5WithRSAEncryption
        Issuer: C=US, ST=OH, L=Columbus, O=VikingVPN, OU=MyOrganizationalUnit, CN=VikingVPN CA/name=EasyRSA/emailAddress=me@myhost.mydomain
        Validity
            Not Before: Jul  4 06:27:55 2015 GMT
            Not After : Jul  1 06:27:55 2025 GMT
        Subject: CN=Client1810Cert4e2336
        Subject Public Key Info:
            Public Key Algorithm: rsaEncryption
                Public-Key: (4096 bit)
                Modulus:
                    00:9f:08:1c:d1:95:87:df:da:dd:cf:75:06:bc:6a:
                    b6:bb:c0:4e:0a:c9:cd:3e:43:8d:f7:98:b7:fb:0e:
                    9c:8d:e2:52:e2:f4:ac:27:81:56:b5:f7:0b:03:f5:
                    0b:f8:7a:d6:ca:59:1f:93:ae:5d:cf:d8:1e:2d:29:
                    74:8e:28:9c:ce:69:94:56:76:d9:3b:36:02:91:4f:
                    e4:32:d1:ac:9d:94:9d:e4:5a:1d:56:a4:ea:7f:93:
                    15:08:93:5c:1c:df:eb:33:a1:8c:e5:95:cd:47:38:
                    6e:3d:d9:46:fe:cf:68:ac:8c:61:25:c8:8c:b6:a4:
                    81:83:16:57:8e:fe:71:9e:a6:23:5a:22:a5:94:7e:
                    ec:74:f5:be:88:69:01:0e:7e:b1:fa:45:91:91:10:
                    15:49:92:a7:cd:07:bf:64:2b:75:5b:07:95:3f:e5:
                    f9:c8:48:ff:12:97:78:68:32:83:8f:55:4c:09:3f:
                    b6:00:93:fa:79:54:2a:65:65:90:e5:48:fd:88:15:
                    2e:a2:40:76:a9:1a:36:63:7b:7f:4d:1b:38:e9:89:
                    de:a4:d9:4f:cc:26:60:40:49:61:e1:33:a6:29:d8:
                    f4:d9:d3:d0:53:30:36:ff:d6:14:2f:9e:63:3e:82:
                    79:bf:ce:f1:0a:9e:79:69:49:ca:c1:68:3c:83:65:
                    19:e3:7c:70:be:e2:d6:a3:eb:c2:fd:65:1b:b8:e1:
                    cd:22:ee:d8:ce:20:2b:59:4c:a3:10:41:c9:c0:cc:
                    0d:40:a6:d9:4d:90:8f:2e:b3:65:e5:7b:77:64:05:
                    1a:a8:78:ce:84:a3:ed:04:d9:26:16:23:da:cd:f6:
                    40:05:91:ae:e9:40:16:08:08:99:b4:6b:27:b8:4d:
                    6b:c9:c8:c0:32:97:95:72:09:47:72:7a:d9:65:d7:
                    de:83:16:58:fe:7d:b9:7a:9f:d0:c5:65:ae:2f:ee:
                    ac:56:c2:a2:d1:af:77:74:1f:8a:b2:6c:88:db:c1:
                    1c:03:60:ad:6c:7d:a5:44:30:ec:31:00:9a:40:47:
                    1a:df:df:cf:31:51:70:af:24:fa:9c:05:7b:d2:0d:
                    f7:90:b5:cc:13:a9:f4:3c:f0:35:09:85:91:cf:dc:
                    fb:de:1e:44:cd:8e:0d:5c:7a:83:17:d6:50:2c:bd:
                    d3:35:c6:c2:ec:48:27:0e:85:4a:2b:88:c0:33:64:
                    22:25:ec:7d:ab:22:c3:34:8e:85:a8:0d:c5:27:9f:
                    be:44:ac:d6:4e:df:d7:d0:c5:25:e7:89:3e:4c:48:
                    00:b4:4b:f9:f7:65:f1:94:81:bf:ff:cc:f7:88:41:
                    ee:fb:a2:4c:33:ac:73:a4:9a:c4:e8:8d:a4:95:5e:
                    77:2b:ef
                Exponent: 65537 (0x10001)
        X509v3 extensions:
            X509v3 Basic Constraints: 
                CA:FALSE
            Netscape Comment: 
                Easy-RSA Generated Certificate
            X509v3 Subject Key Identifier: 
                76:7B:B7:07:92:64:C2:79:3B:A1:BC:51:E3:E0:40:9C:05:96:60:F7
            X509v3 Authority Key Identifier: 
                keyid:12:CD:60:04:D2:A0:80:9E:70:ED:C6:99:B8:7B:2C:C6:52:FD:19:A1
                DirName:/C=US/ST=OH/L=Columbus/O=VikingVPN/OU=MyOrganizationalUnit/CN=VikingVPN CA/name=EasyRSA/emailAddress=me@myhost.mydomain
                serial:CF:35:85:EE:80:BF:2A:3E

            X509v3 Extended Key Usage: 
                TLS Web Client Authentication
            X509v3 Key Usage: 
                Digital Signature
    Signature Algorithm: md5WithRSAEncryption
         37:07:70:df:5e:62:49:6c:6d:a8:0d:2a:d3:df:44:1f:b3:50:
         93:9b:8a:16:44:09:46:2c:0e:ae:79:68:be:69:87:99:dd:36:
         6b:63:b4:51:18:49:a5:53:c4:1d:c0:5e:4e:2a:91:1b:3d:3e:
         fd:40:97:2b:96:54:b6:69:54:5f:db:23:93:c9:56:d1:cf:e5:
         8e:fa:a9:2e:88:ae:4f:44:bf:a5:b1:0c:4b:00:a9:4c:01:fc:
         0f:c0:b8:4c:19:2b:cd:f2:23:47:4f:46:de:e6:ac:d5:8a:8f:
         a3:80:55:81:70:13:3d:80:b9:21:ae:4a:4d:b1:2c:ff:42:3c:
         50:62:91:74:01:c4:0e:80:ea:7b:ec:10:75:eb:52:8c:17:41:
         24:2d:c4:64:07:85:0c:e0:f6:e6:09:3b:f8:d7:e4:32:ac:5c:
         d7:3b:84:1f:8f:f6:c2:0c:a6:f6:cc:ad:3f:bc:75:8e:ab:05:
         aa:52:3f:4e:74:f8:fa:d2:f6:6d:8a:38:21:f0:05:da:d8:e6:
         11:c3:1f:64:c1:bb:0e:e9:8e:62:08:cb:40:54:0c:d6:4c:fe:
         32:2f:6e:99:95:41:2c:a3:49:34:4d:a5:bc:4a:ba:79:ab:48:
         cf:33:93:8f:1b:ce:65:55:2c:eb:65:54:7f:b2:12:d3:4a:28:
         21:d2:68:55:7a:df:81:98:5e:b0:5d:1d:ce:a7:dd:b4:7c:ca:
         b2:db:88:33:63:36:2a:e0:a3:c9:ea:ef:d2:f6:00:5e:b7:b9:
         51:e4:38:0b:e7:f7:35:c8:df:d9:43:44:d9:94:5f:a4:00:1d:
         10:9e:af:70:a3:69:be:5b:6d:e3:06:43:cb:c2:fd:90:c3:e2:
         29:e5:8d:08:3c:ff:26:d3:3c:ed:7b:23:83:04:5c:20:10:8c:
         af:41:65:20:bf:6a:82:b3:13:73:2f:6e:d1:48:25:95:c7:ed:
         94:9e:c4:12:09:3d:15:da:e8:9d:66:15:df:8d:2d:3a:bc:3a:
         9b:c1:d7:41:fa:cc:04:e9:37:62:f4:36:f6:0b:cd:19:a1:0e:
         42:eb:25:51:81:45:2c:c9:09:b0:b9:6a:b7:43:df:99:66:05:
         58:14:da:a3:2a:61:d9:99:56:0e:fd:b1:0b:8b:4e:8e:83:bb:
         98:0a:83:8f:16:e4:0a:1e:08:f7:66:5f:a9:85:06:e7:9e:6d:
         42:50:36:1d:f6:d1:43:7e:38:a7:88:38:17:d3:90:d8:2a:af:
         f5:5f:9b:31:3c:5f:32:79:a6:fc:54:6e:6b:df:d5:45:55:d3:
         83:0e:9a:d3:e0:f9:93:38:5c:c7:1f:ca:a7:e4:19:83:b8:c2:
         92:f5:49:03:44:58:9e:f2
-----BEGIN CERTIFICATE-----
MIIGrTCCBJWgAwIBAgICFkQwDQYJKoZIhvcNAQEEBQAwgawxCzAJBgNVBAYTAlVT
MQswCQYDVQQIEwJPSDERMA8GA1UEBxMIQ29sdW1idXMxEjAQBgNVBAoTCVZpa2lu
Z1ZQTjEdMBsGA1UECxMUTXlPcmdhbml6YXRpb25hbFVuaXQxFTATBgNVBAMTDFZp
a2luZ1ZQTiBDQTEQMA4GA1UEKRMHRWFzeVJTQTEhMB8GCSqGSIb3DQEJARYSbWVA
bXlob3N0Lm15ZG9tYWluMB4XDTE1MDcwNDA2Mjc1NVoXDTI1MDcwMTA2Mjc1NVow
HzEdMBsGA1UEAxMUQ2xpZW50MTgxMENlcnQ0ZTIzMzYwggIiMA0GCSqGSIb3DQEB
AQUAA4ICDwAwggIKAoICAQCfCBzRlYff2t3PdQa8ara7wE4Kyc0+Q433mLf7DpyN
4lLi9KwngVa19wsD9Qv4etbKWR+Trl3P2B4tKXSOKJzOaZRWdtk7NgKRT+Qy0ayd
lJ3kWh1WpOp/kxUIk1wc3+szoYzllc1HOG492Ub+z2isjGElyIy2pIGDFleO/nGe
piNaIqWUfux09b6IaQEOfrH6RZGREBVJkqfNB79kK3VbB5U/5fnISP8Sl3hoMoOP
VUwJP7YAk/p5VCplZZDlSP2IFS6iQHapGjZje39NGzjpid6k2U/MJmBASWHhM6Yp
2PTZ09BTMDb/1hQvnmM+gnm/zvEKnnlpScrBaDyDZRnjfHC+4taj68L9ZRu44c0i
7tjOICtZTKMQQcnAzA1AptlNkI8us2Xle3dkBRqoeM6Eo+0E2SYWI9rN9kAFka7p
QBYICJm0aye4TWvJyMAyl5VyCUdyetll196DFlj+fbl6n9DFZa4v7qxWwqLRr3d0
H4qybIjbwRwDYK1sfaVEMOwxAJpARxrf388xUXCvJPqcBXvSDfeQtcwTqfQ88DUJ
hZHP3PveHkTNjg1ceoMX1lAsvdM1xsLsSCcOhUoriMAzZCIl7H2rIsM0joWoDcUn
n75ErNZO39fQxSXniT5MSAC0S/n3ZfGUgb//zPeIQe77okwzrHOkmsTojaSVXncr
7wIDAQABo4IBYzCCAV8wCQYDVR0TBAIwADAtBglghkgBhvhCAQ0EIBYeRWFzeS1S
U0EgR2VuZXJhdGVkIENlcnRpZmljYXRlMB0GA1UdDgQWBBR2e7cHkmTCeTuhvFHj
4ECcBZZg9zCB4QYDVR0jBIHZMIHWgBQSzWAE0qCAnnDtxpm4eyzGUv0ZoaGBsqSB
rzCBrDELMAkGA1UEBhMCVVMxCzAJBgNVBAgTAk9IMREwDwYDVQQHEwhDb2x1bWJ1
czESMBAGA1UEChMJVmlraW5nVlBOMR0wGwYDVQQLExRNeU9yZ2FuaXphdGlvbmFs
VW5pdDEVMBMGA1UEAxMMVmlraW5nVlBOIENBMRAwDgYDVQQpEwdFYXN5UlNBMSEw
HwYJKoZIhvcNAQkBFhJtZUBteWhvc3QubXlkb21haW6CCQDPNYXugL8qPjATBgNV
HSUEDDAKBggrBgEFBQcDAjALBgNVHQ8EBAMCB4AwDQYJKoZIhvcNAQEEBQADggIB
ADcHcN9eYklsbagNKtPfRB+zUJObihZECUYsDq55aL5ph5ndNmtjtFEYSaVTxB3A
Xk4qkRs9Pv1AlyuWVLZpVF/bI5PJVtHP5Y76qS6Irk9Ev6WxDEsAqUwB/A/AuEwZ
K83yI0dPRt7mrNWKj6OAVYFwEz2AuSGuSk2xLP9CPFBikXQBxA6A6nvsEHXrUowX
QSQtxGQHhQzg9uYJO/jX5DKsXNc7hB+P9sIMpvbMrT+8dY6rBapSP050+PrS9m2K
OCHwBdrY5hHDH2TBuw7pjmIIy0BUDNZM/jIvbpmVQSyjSTRNpbxKunmrSM8zk48b
zmVVLOtlVH+yEtNKKCHSaFV634GYXrBdHc6n3bR8yrLbiDNjNirgo8nq79L2AF63
uVHkOAvn9zXI39lDRNmUX6QAHRCer3Cjab5bbeMGQ8vC/ZDD4inljQg8/ybTPO17
I4MEXCAQjK9BZSC/aoKzE3MvbtFIJZXH7ZSexBIJPRXa6J1mFd+NLTq8OpvB10H6
zATpN2L0NvYLzRmhDkLrJVGBRSzJCbC5ardD35lmBVgU2qMqYdmZVg79sQuLTo6D
u5gKg48W5AoeCPdmX6mFBueebUJQNh320UN+OKeIOBfTkNgqr/VfmzE8XzJ5pvxU
bmvf1UVV04MOmtPg+ZM4XMcfyqfkGYO4wpL1SQNEWJ7y
-----END CERTIFICATE-----
