Certificate:
    Data:
        Version: 3 (0x2)
        Serial Number: 4189 (0x105d)
    Signature Algorithm: md5WithRSAEncryption
        Issuer: C=US, ST=OH, L=Columbus, O=VikingVPN, OU=MyOrganizationalUnit, CN=VikingVPN CA/name=EasyRSA/emailAddress=me@myhost.mydomain
        Validity
            Not Before: Jan 19 08:09:06 2015 GMT
            Not After : Jan 16 08:09:06 2025 GMT
        Subject: CN=Client1375Cert1487a7
        Subject Public Key Info:
            Public Key Algorithm: rsaEncryption
                Public-Key: (4096 bit)
                Modulus:
                    00:ee:a2:53:14:d1:53:79:09:c5:97:c9:3e:10:2a:
                    5b:ea:5e:f2:51:48:10:73:ad:a3:5e:ad:e0:84:c7:
                    b9:b4:31:5e:1a:4f:5b:ae:6b:60:93:70:e2:cd:54:
                    2e:07:e3:ac:b8:00:77:2c:75:df:a0:0d:c1:af:ca:
                    9e:fa:f4:5d:6f:25:d5:51:10:7f:7b:62:37:2c:97:
                    c5:39:94:ec:c8:ae:96:50:41:11:ca:ea:45:cb:6f:
                    d8:65:59:b1:f0:1a:94:46:c7:98:6a:b9:3c:07:e7:
                    9c:20:9f:c4:33:ae:1f:86:ab:d3:27:7b:32:06:7d:
                    ee:f2:63:d6:1a:e9:61:e9:38:e6:48:29:b8:b0:ef:
                    4a:7b:65:31:a6:d2:10:8f:14:ef:3e:9d:f7:bd:eb:
                    00:13:26:a2:7d:45:08:35:6e:e5:ba:01:b6:6b:8c:
                    ad:63:5b:ff:1f:19:f0:41:f2:58:71:88:b2:65:34:
                    d3:6b:46:a2:a5:77:51:60:7f:1a:b0:bf:c7:98:b3:
                    07:3f:40:f3:1f:c6:dc:06:32:37:28:dc:0e:59:1f:
                    00:76:d6:62:ca:f1:35:d3:b9:a2:74:13:67:4e:a2:
                    5a:98:1d:98:6b:8e:95:4e:e8:d5:1f:f0:85:e7:45:
                    8c:de:81:fd:8e:ae:5a:3e:fb:22:ff:5b:fd:0a:3b:
                    94:8a:fc:49:24:5d:6b:5c:15:d2:5e:43:93:1f:a3:
                    4e:54:fc:e4:f7:06:6f:c4:ce:70:e5:3c:e9:d0:b8:
                    7d:4d:bb:d1:39:ce:a4:51:8f:1c:72:15:1d:5b:f0:
                    5b:fd:72:fb:1b:3d:c7:74:24:a1:c4:92:54:6a:a8:
                    12:b7:c9:aa:84:e4:43:ed:fe:94:c6:48:42:89:b6:
                    3d:1b:8e:da:31:73:f6:6d:46:3a:85:e3:19:9f:f0:
                    b5:89:aa:de:f1:3a:a7:f0:90:8c:2e:5d:d6:61:ea:
                    7c:f4:54:aa:c1:ed:36:20:76:c6:77:de:1f:3d:46:
                    19:39:5f:a7:cc:61:13:20:31:ab:4e:3d:81:cf:86:
                    ad:67:33:13:75:6a:02:6e:5e:90:c5:38:1d:25:48:
                    32:71:79:b8:96:70:61:75:32:c9:dd:56:61:a2:47:
                    3c:99:93:b8:20:2d:ee:7d:ff:a9:6b:12:ad:07:eb:
                    c7:37:ff:c5:1b:e2:4a:c3:74:32:70:47:c8:38:e9:
                    b1:16:00:e7:38:6f:6d:d6:82:93:b2:fe:74:1e:fa:
                    72:1a:1b:aa:80:1c:51:05:1f:57:23:54:da:7c:47:
                    4e:e3:c8:a8:12:b8:4b:82:9d:ca:f1:65:1b:8c:f0:
                    c8:0e:cf:95:94:77:d5:b4:34:73:3c:8c:37:19:d6:
                    e5:de:b9
                Exponent: 65537 (0x10001)
        X509v3 extensions:
            X509v3 Basic Constraints: 
                CA:FALSE
            Netscape Comment: 
                Easy-RSA Generated Certificate
            X509v3 Subject Key Identifier: 
                88:E8:D6:6B:4B:A5:A4:1E:C4:CA:25:17:4A:20:6C:D1:23:1C:C5:CE
            X509v3 Authority Key Identifier: 
                keyid:12:CD:60:04:D2:A0:80:9E:70:ED:C6:99:B8:7B:2C:C6:52:FD:19:A1
                DirName:/C=US/ST=OH/L=Columbus/O=VikingVPN/OU=MyOrganizationalUnit/CN=VikingVPN CA/name=EasyRSA/emailAddress=me@myhost.mydomain
                serial:CF:35:85:EE:80:BF:2A:3E

            X509v3 Extended Key Usage: 
                TLS Web Client Authentication
            X509v3 Key Usage: 
                Digital Signature
    Signature Algorithm: md5WithRSAEncryption
         5b:13:5d:1c:04:3d:e1:87:fd:99:9b:0e:94:56:7b:13:80:17:
         38:ab:1e:af:39:23:70:d3:96:9b:54:1c:26:28:00:48:82:cc:
         f0:b0:1c:a1:1a:04:f2:b0:8a:c8:cc:08:fe:2c:81:36:c5:0e:
         bf:c7:39:22:8b:e5:49:00:36:52:e3:c5:97:99:17:fb:98:e2:
         51:5b:e4:2b:03:8b:36:e0:c8:f4:1b:8c:b4:ae:eb:d6:6b:06:
         f3:c4:a4:1c:c9:7f:4c:a0:6d:83:36:02:90:46:6a:6a:cf:51:
         7d:c8:6d:64:c3:ed:ba:5c:e2:5b:a8:eb:1d:89:c4:52:41:a7:
         7e:51:ce:ce:37:6c:28:8e:73:39:ff:a4:ad:fd:2a:ae:22:5b:
         05:fb:a9:58:06:59:41:59:1d:d2:b0:fc:4d:7f:f3:e6:24:c4:
         a9:1f:2c:c9:39:b8:95:c8:d6:a3:9c:ed:eb:ca:18:65:9e:0f:
         4b:cc:cb:98:df:c9:e0:b3:1a:66:ff:07:aa:f9:64:e1:49:ab:
         08:e5:45:b5:3e:5e:9a:68:59:2e:b4:be:e8:9e:34:8d:a0:93:
         e0:24:a9:3e:df:66:ce:71:3d:3f:fa:7c:3d:60:d8:ed:cb:fa:
         be:cb:b7:2b:03:82:b9:a7:8c:29:eb:12:24:d1:8a:e9:91:42:
         3f:9d:3c:bb:28:f2:3d:ce:d8:aa:1d:aa:a9:89:44:3f:ed:d6:
         e7:85:84:5f:e1:90:f8:79:79:7b:ea:51:29:b1:eb:ac:ca:1f:
         a1:7d:5e:dd:1e:4c:f9:b2:bd:f1:28:2d:af:88:48:94:11:6a:
         64:c3:f8:0e:eb:0d:b4:89:4e:fc:06:b2:fc:91:0a:cf:48:db:
         44:80:62:f3:31:e3:92:38:82:40:15:5a:54:2e:b9:49:a0:40:
         66:6b:b4:39:bd:68:11:e5:b4:16:ae:41:01:bc:04:7f:25:f5:
         0f:87:e2:85:e7:a1:c2:33:d0:9f:c7:1c:5b:13:9f:2b:8e:44:
         cf:d0:65:24:20:65:50:15:45:95:80:64:4c:d5:76:1f:84:48:
         3a:ad:cc:0c:98:aa:26:30:9e:86:31:1f:0d:34:01:07:c5:15:
         d1:1f:8e:99:ec:6a:f1:0a:81:56:ee:a9:f8:af:6e:cf:1d:e5:
         e3:ae:8a:33:43:d8:74:fc:f7:22:f8:d4:4e:4b:fb:19:08:99:
         45:9b:e3:2c:8d:48:49:10:c4:1e:d0:fb:5b:a3:23:f7:ec:31:
         18:27:e7:e4:e5:f0:ea:80:16:d6:ca:28:9c:37:1b:03:33:dd:
         61:78:60:10:4a:18:64:61:7d:ae:e5:20:f8:3f:ef:f3:d8:0f:
         14:3a:de:1f:a0:b4:fb:40
-----BEGIN CERTIFICATE-----
MIIGrTCCBJWgAwIBAgICEF0wDQYJKoZIhvcNAQEEBQAwgawxCzAJBgNVBAYTAlVT
MQswCQYDVQQIEwJPSDERMA8GA1UEBxMIQ29sdW1idXMxEjAQBgNVBAoTCVZpa2lu
Z1ZQTjEdMBsGA1UECxMUTXlPcmdhbml6YXRpb25hbFVuaXQxFTATBgNVBAMTDFZp
a2luZ1ZQTiBDQTEQMA4GA1UEKRMHRWFzeVJTQTEhMB8GCSqGSIb3DQEJARYSbWVA
bXlob3N0Lm15ZG9tYWluMB4XDTE1MDExOTA4MDkwNloXDTI1MDExNjA4MDkwNlow
HzEdMBsGA1UEAxMUQ2xpZW50MTM3NUNlcnQxNDg3YTcwggIiMA0GCSqGSIb3DQEB
AQUAA4ICDwAwggIKAoICAQDuolMU0VN5CcWXyT4QKlvqXvJRSBBzraNereCEx7m0
MV4aT1uua2CTcOLNVC4H46y4AHcsdd+gDcGvyp769F1vJdVREH97Yjcsl8U5lOzI
rpZQQRHK6kXLb9hlWbHwGpRGx5hquTwH55wgn8Qzrh+Gq9MnezIGfe7yY9Ya6WHp
OOZIKbiw70p7ZTGm0hCPFO8+nfe96wATJqJ9RQg1buW6AbZrjK1jW/8fGfBB8lhx
iLJlNNNrRqKld1Fgfxqwv8eYswc/QPMfxtwGMjco3A5ZHwB21mLK8TXTuaJ0E2dO
olqYHZhrjpVO6NUf8IXnRYzegf2Orlo++yL/W/0KO5SK/EkkXWtcFdJeQ5Mfo05U
/OT3Bm/EznDlPOnQuH1Nu9E5zqRRjxxyFR1b8Fv9cvsbPcd0JKHEklRqqBK3yaqE
5EPt/pTGSEKJtj0bjtoxc/ZtRjqF4xmf8LWJqt7xOqfwkIwuXdZh6nz0VKrB7TYg
dsZ33h89Rhk5X6fMYRMgMatOPYHPhq1nMxN1agJuXpDFOB0lSDJxebiWcGF1Msnd
VmGiRzyZk7ggLe59/6lrEq0H68c3/8Ub4krDdDJwR8g46bEWAOc4b23WgpOy/nQe
+nIaG6qAHFEFH1cjVNp8R07jyKgSuEuCncrxZRuM8MgOz5WUd9W0NHM8jDcZ1uXe
uQIDAQABo4IBYzCCAV8wCQYDVR0TBAIwADAtBglghkgBhvhCAQ0EIBYeRWFzeS1S
U0EgR2VuZXJhdGVkIENlcnRpZmljYXRlMB0GA1UdDgQWBBSI6NZrS6WkHsTKJRdK
IGzRIxzFzjCB4QYDVR0jBIHZMIHWgBQSzWAE0qCAnnDtxpm4eyzGUv0ZoaGBsqSB
rzCBrDELMAkGA1UEBhMCVVMxCzAJBgNVBAgTAk9IMREwDwYDVQQHEwhDb2x1bWJ1
czESMBAGA1UEChMJVmlraW5nVlBOMR0wGwYDVQQLExRNeU9yZ2FuaXphdGlvbmFs
VW5pdDEVMBMGA1UEAxMMVmlraW5nVlBOIENBMRAwDgYDVQQpEwdFYXN5UlNBMSEw
HwYJKoZIhvcNAQkBFhJtZUBteWhvc3QubXlkb21haW6CCQDPNYXugL8qPjATBgNV
HSUEDDAKBggrBgEFBQcDAjALBgNVHQ8EBAMCB4AwDQYJKoZIhvcNAQEEBQADggIB
AFsTXRwEPeGH/ZmbDpRWexOAFzirHq85I3DTlptUHCYoAEiCzPCwHKEaBPKwisjM
CP4sgTbFDr/HOSKL5UkANlLjxZeZF/uY4lFb5CsDizbgyPQbjLSu69ZrBvPEpBzJ
f0ygbYM2ApBGamrPUX3IbWTD7bpc4luo6x2JxFJBp35Rzs43bCiOczn/pK39Kq4i
WwX7qVgGWUFZHdKw/E1/8+YkxKkfLMk5uJXI1qOc7evKGGWeD0vMy5jfyeCzGmb/
B6r5ZOFJqwjlRbU+XppoWS60vuieNI2gk+AkqT7fZs5xPT/6fD1g2O3L+r7LtysD
grmnjCnrEiTRiumRQj+dPLso8j3O2KodqqmJRD/t1ueFhF/hkPh5eXvqUSmx66zK
H6F9Xt0eTPmyvfEoLa+ISJQRamTD+A7rDbSJTvwGsvyRCs9I20SAYvMx45I4gkAV
WlQuuUmgQGZrtDm9aBHltBauQQG8BH8l9Q+H4oXnocIz0J/HHFsTnyuORM/QZSQg
ZVAVRZWAZEzVdh+ESDqtzAyYqiYwnoYxHw00AQfFFdEfjpnsavEKgVbuqfivbs8d
5eOuijND2HT89yL41E5L+xkImUWb4yyNSEkQxB7Q+1ujI/fsMRgn5+Tl8OqAFtbK
KJw3GwMz3WF4YBBKGGRhfa7lIPg/7/PYDxQ63h+gtPtA
-----END CERTIFICATE-----
