Certificate:
    Data:
        Version: 3 (0x2)
        Serial Number: 5069 (0x13cd)
    Signature Algorithm: md5WithRSAEncryption
        Issuer: C=US, ST=OH, L=Columbus, O=VikingVPN, OU=MyOrganizationalUnit, CN=VikingVPN CA/name=EasyRSA/emailAddress=me@myhost.mydomain
        Validity
            Not Before: Apr 24 08:24:05 2015 GMT
            Not After : Apr 21 08:24:05 2025 GMT
        Subject: CN=Client1636Certf305af
        Subject Public Key Info:
            Public Key Algorithm: rsaEncryption
                Public-Key: (4096 bit)
                Modulus:
                    00:b1:43:08:03:22:20:a2:e4:38:f1:91:47:6f:1e:
                    27:31:df:7b:a9:43:cf:4e:47:70:ae:33:ba:67:10:
                    ce:be:9e:71:89:c4:f7:65:76:20:59:38:78:a4:37:
                    e8:1e:b6:22:d1:79:c5:78:8e:11:6c:eb:b9:5c:d1:
                    fb:1d:ab:d8:78:26:ff:d7:0f:cb:98:da:55:6b:43:
                    ef:28:7f:53:22:01:b4:8c:19:90:35:3e:6f:84:a6:
                    bf:b8:46:66:19:24:8a:97:f7:e0:3e:22:7f:a5:aa:
                    1d:07:23:83:d4:b5:05:c8:52:22:ac:ca:5a:a2:be:
                    2e:20:de:6d:f6:c8:ec:84:b7:2b:ef:a1:f6:7b:ea:
                    a9:09:db:bf:55:ed:36:ce:52:e1:ce:2d:31:eb:32:
                    ef:8e:52:9e:9f:05:66:ab:86:9b:3f:99:a3:5d:27:
                    d1:ea:34:6d:f3:43:2a:06:50:d8:fc:54:56:67:ad:
                    db:11:94:38:66:bc:15:39:79:a9:c8:51:30:e7:1e:
                    59:4d:0b:86:14:1c:9a:2c:01:b9:8f:a7:ae:28:60:
                    0e:d5:9d:9b:61:f0:71:9b:96:10:81:50:75:a9:69:
                    f1:c0:67:13:ca:26:41:bc:78:f4:41:28:de:37:5d:
                    10:68:2c:83:3e:f6:e6:e6:c3:19:a4:2e:d3:4c:8f:
                    f2:e4:6c:a2:21:7d:f4:64:79:2b:89:90:46:7e:ab:
                    cd:83:76:f4:c7:9f:2f:86:1d:27:41:f1:7d:2f:37:
                    19:ca:ad:a1:2b:5b:3a:94:f5:53:a8:1a:cd:01:10:
                    a1:7d:63:bd:91:24:c1:13:28:96:d2:7a:49:a6:6d:
                    43:ba:e2:43:65:1f:21:b4:a0:72:c3:f2:ad:e2:a2:
                    49:a6:6d:50:53:32:55:0c:ef:76:46:2e:c0:99:8b:
                    e8:21:8c:15:5b:ee:6b:84:1e:a3:fb:82:79:2a:03:
                    3b:f3:4a:94:e9:19:2b:fb:06:52:6d:c3:15:dd:a9:
                    a7:b6:7a:9b:4e:00:8f:10:35:5c:b4:e3:2e:89:b5:
                    58:99:7f:93:83:62:f8:54:e6:26:45:ff:d7:3a:02:
                    84:c8:d2:50:00:ac:68:78:84:82:9d:56:4a:a3:9d:
                    21:a1:34:7b:08:ce:96:75:6a:c4:96:6a:0e:05:21:
                    e2:34:a2:9d:f1:f7:aa:67:7f:05:8d:3d:02:d4:e5:
                    0b:01:af:57:d7:44:52:eb:da:8f:04:9e:2b:94:2b:
                    fd:e2:5c:a0:16:d6:0f:cc:05:95:31:da:bb:3d:a9:
                    17:d2:2e:1e:5e:8f:fc:14:ff:70:00:f5:a3:46:d9:
                    96:b0:d6:19:92:51:c6:f0:0a:c3:60:28:41:6d:04:
                    27:bb:03
                Exponent: 65537 (0x10001)
        X509v3 extensions:
            X509v3 Basic Constraints: 
                CA:FALSE
            Netscape Comment: 
                Easy-RSA Generated Certificate
            X509v3 Subject Key Identifier: 
                82:34:76:72:08:5C:6B:92:34:27:42:D8:C6:40:F5:FD:27:C8:EE:74
            X509v3 Authority Key Identifier: 
                keyid:12:CD:60:04:D2:A0:80:9E:70:ED:C6:99:B8:7B:2C:C6:52:FD:19:A1
                DirName:/C=US/ST=OH/L=Columbus/O=VikingVPN/OU=MyOrganizationalUnit/CN=VikingVPN CA/name=EasyRSA/emailAddress=me@myhost.mydomain
                serial:CF:35:85:EE:80:BF:2A:3E

            X509v3 Extended Key Usage: 
                TLS Web Client Authentication
            X509v3 Key Usage: 
                Digital Signature
    Signature Algorithm: md5WithRSAEncryption
         48:5d:f4:5b:81:4c:0b:25:0c:7d:42:78:8e:8a:32:46:48:e6:
         96:7c:ba:7f:39:6a:c4:2e:35:3f:80:6e:6b:ca:b6:3f:69:bd:
         f1:37:7b:53:0e:55:e8:8d:4d:87:35:3f:8d:3c:70:7e:3e:3d:
         7e:51:e1:5a:0a:6d:9a:3a:cc:fb:42:2c:a9:f9:ac:f7:56:dd:
         11:74:74:b8:f3:3e:2d:bb:b6:37:55:39:f9:75:33:de:3e:28:
         6d:90:5c:b4:54:d8:b8:ba:5a:02:ea:38:49:fc:9b:cf:e8:c7:
         05:af:50:5f:02:14:f9:9f:ad:d3:83:fe:d5:d5:19:3a:2f:98:
         33:1c:03:1e:19:22:d2:ae:3e:74:c9:83:1a:18:14:3d:54:68:
         e8:15:60:e2:5c:0c:49:79:ec:f8:d5:ec:b7:f9:e3:6c:0e:42:
         24:01:3a:91:ce:0c:f7:5d:9a:fa:e7:56:51:b9:72:8b:c4:7e:
         97:67:f3:7c:a3:45:f7:c6:a2:74:46:e4:0a:63:ce:04:65:82:
         68:55:69:63:47:f2:d8:9c:3f:a3:31:b1:e1:af:3e:b1:f3:0f:
         4e:b4:24:2b:eb:f0:81:66:48:18:8a:57:c1:48:4a:38:15:e6:
         f5:aa:2e:8d:0f:41:51:71:5c:18:73:78:7b:01:1e:34:a9:13:
         05:42:84:d5:21:bd:1f:d7:75:cb:34:68:f0:7d:3d:95:08:02:
         91:20:2e:1e:e9:6b:ec:2f:d1:2b:05:91:d0:14:0b:cf:ca:69:
         73:99:de:28:ca:4e:42:a3:51:bf:41:1e:ed:22:68:d2:8d:68:
         d8:51:ac:0e:c4:47:7d:fc:0d:83:fb:d0:13:ad:5c:6f:e4:c6:
         06:a3:9c:0b:bc:49:8f:31:a1:f3:da:94:bc:71:7e:48:5a:a8:
         8d:3b:fc:6e:b7:8b:59:e1:01:e9:cb:5f:1b:37:cd:5c:d9:45:
         ee:78:f2:ce:8b:ea:21:c3:cd:9d:ba:5e:a4:ab:12:7a:d9:65:
         e2:1c:0c:bb:b8:3d:dc:f0:8e:c0:22:ac:80:68:3c:4a:88:66:
         60:76:cf:e9:bf:92:1a:1b:0b:81:a2:8a:4b:43:51:db:85:67:
         9f:ea:af:94:25:f5:00:ba:34:fa:23:e8:69:da:2d:45:0a:02:
         a7:f6:f0:7b:82:bd:e2:08:6d:a3:cf:38:ab:5f:f3:45:b8:5a:
         b6:46:c1:c6:d3:cc:76:70:cc:27:1e:26:58:83:be:89:2d:e6:
         69:a5:95:61:35:0d:88:d1:b5:d4:ea:2c:43:2f:c1:7a:fc:d9:
         fb:8f:23:37:91:b0:f6:70:eb:f1:ab:e4:8c:7a:31:46:d7:e2:
         90:7c:5e:35:95:aa:ff:bc
-----BEGIN CERTIFICATE-----
MIIGrTCCBJWgAwIBAgICE80wDQYJKoZIhvcNAQEEBQAwgawxCzAJBgNVBAYTAlVT
MQswCQYDVQQIEwJPSDERMA8GA1UEBxMIQ29sdW1idXMxEjAQBgNVBAoTCVZpa2lu
Z1ZQTjEdMBsGA1UECxMUTXlPcmdhbml6YXRpb25hbFVuaXQxFTATBgNVBAMTDFZp
a2luZ1ZQTiBDQTEQMA4GA1UEKRMHRWFzeVJTQTEhMB8GCSqGSIb3DQEJARYSbWVA
bXlob3N0Lm15ZG9tYWluMB4XDTE1MDQyNDA4MjQwNVoXDTI1MDQyMTA4MjQwNVow
HzEdMBsGA1UEAxMUQ2xpZW50MTYzNkNlcnRmMzA1YWYwggIiMA0GCSqGSIb3DQEB
AQUAA4ICDwAwggIKAoICAQCxQwgDIiCi5DjxkUdvHicx33upQ89OR3CuM7pnEM6+
nnGJxPdldiBZOHikN+getiLRecV4jhFs67lc0fsdq9h4Jv/XD8uY2lVrQ+8of1Mi
AbSMGZA1Pm+Epr+4RmYZJIqX9+A+In+lqh0HI4PUtQXIUiKsylqivi4g3m32yOyE
tyvvofZ76qkJ279V7TbOUuHOLTHrMu+OUp6fBWarhps/maNdJ9HqNG3zQyoGUNj8
VFZnrdsRlDhmvBU5eanIUTDnHllNC4YUHJosAbmPp64oYA7VnZth8HGblhCBUHWp
afHAZxPKJkG8ePRBKN43XRBoLIM+9ubmwxmkLtNMj/LkbKIhffRkeSuJkEZ+q82D
dvTHny+GHSdB8X0vNxnKraErWzqU9VOoGs0BEKF9Y72RJMETKJbSekmmbUO64kNl
HyG0oHLD8q3iokmmbVBTMlUM73ZGLsCZi+ghjBVb7muEHqP7gnkqAzvzSpTpGSv7
BlJtwxXdqae2eptOAI8QNVy04y6JtViZf5ODYvhU5iZF/9c6AoTI0lAArGh4hIKd
VkqjnSGhNHsIzpZ1asSWag4FIeI0op3x96pnfwWNPQLU5QsBr1fXRFLr2o8EniuU
K/3iXKAW1g/MBZUx2rs9qRfSLh5ej/wU/3AA9aNG2Zaw1hmSUcbwCsNgKEFtBCe7
AwIDAQABo4IBYzCCAV8wCQYDVR0TBAIwADAtBglghkgBhvhCAQ0EIBYeRWFzeS1S
U0EgR2VuZXJhdGVkIENlcnRpZmljYXRlMB0GA1UdDgQWBBSCNHZyCFxrkjQnQtjG
QPX9J8judDCB4QYDVR0jBIHZMIHWgBQSzWAE0qCAnnDtxpm4eyzGUv0ZoaGBsqSB
rzCBrDELMAkGA1UEBhMCVVMxCzAJBgNVBAgTAk9IMREwDwYDVQQHEwhDb2x1bWJ1
czESMBAGA1UEChMJVmlraW5nVlBOMR0wGwYDVQQLExRNeU9yZ2FuaXphdGlvbmFs
VW5pdDEVMBMGA1UEAxMMVmlraW5nVlBOIENBMRAwDgYDVQQpEwdFYXN5UlNBMSEw
HwYJKoZIhvcNAQkBFhJtZUBteWhvc3QubXlkb21haW6CCQDPNYXugL8qPjATBgNV
HSUEDDAKBggrBgEFBQcDAjALBgNVHQ8EBAMCB4AwDQYJKoZIhvcNAQEEBQADggIB
AEhd9FuBTAslDH1CeI6KMkZI5pZ8un85asQuNT+AbmvKtj9pvfE3e1MOVeiNTYc1
P408cH4+PX5R4VoKbZo6zPtCLKn5rPdW3RF0dLjzPi27tjdVOfl1M94+KG2QXLRU
2Li6WgLqOEn8m8/oxwWvUF8CFPmfrdOD/tXVGTovmDMcAx4ZItKuPnTJgxoYFD1U
aOgVYOJcDEl57PjV7Lf542wOQiQBOpHODPddmvrnVlG5covEfpdn83yjRffGonRG
5ApjzgRlgmhVaWNH8ticP6MxseGvPrHzD060JCvr8IFmSBiKV8FISjgV5vWqLo0P
QVFxXBhzeHsBHjSpEwVChNUhvR/Xdcs0aPB9PZUIApEgLh7pa+wv0SsFkdAUC8/K
aXOZ3ijKTkKjUb9BHu0iaNKNaNhRrA7ER338DYP70BOtXG/kxgajnAu8SY8xofPa
lLxxfkhaqI07/G63i1nhAenLXxs3zVzZRe548s6L6iHDzZ26XqSrEnrZZeIcDLu4
PdzwjsAirIBoPEqIZmB2z+m/khobC4GiiktDUduFZ5/qr5Ql9QC6NPoj6GnaLUUK
Aqf28HuCveIIbaPPOKtf80W4WrZGwcbTzHZwzCceJliDvokt5mmllWE1DYjRtdTq
LEMvwXr82fuPIzeRsPZw6/Gr5Ix6MUbX4pB8XjWVqv+8
-----END CERTIFICATE-----
