Certificate:
    Data:
        Version: 3 (0x2)
        Serial Number: 1720 (0x6b8)
    Signature Algorithm: md5WithRSAEncryption
        Issuer: C=US, ST=OH, L=Columbus, O=VikingVPN, OU=MyOrganizationalUnit, CN=VikingVPN CA/name=EasyRSA/emailAddress=me@myhost.mydomain
        Validity
            Not Before: Apr 25 12:53:03 2014 GMT
            Not After : Apr 22 12:53:03 2024 GMT
        Subject: CN=Client380Cert3fa8d7
        Subject Public Key Info:
            Public Key Algorithm: rsaEncryption
                Public-Key: (4096 bit)
                Modulus:
                    00:b8:24:d3:a8:48:0a:c8:08:c1:32:b6:85:6c:88:
                    fb:ed:df:0e:2b:c5:d8:8d:f0:49:29:67:b5:e0:2f:
                    1a:9f:f0:b6:51:b5:5f:6c:4d:3f:8a:d2:79:cd:83:
                    f2:47:54:3f:df:0f:a6:7f:f0:c0:8f:52:b5:b4:71:
                    36:65:3a:f7:91:91:1f:c8:50:f5:e6:7b:79:fa:e0:
                    d3:83:2a:dc:36:c0:cd:22:65:3a:98:a2:5f:2a:fb:
                    02:cf:ab:94:1a:aa:21:e5:34:15:20:4e:a4:95:9f:
                    25:27:e3:52:22:3a:66:67:bb:50:85:f9:23:32:c6:
                    4e:ee:74:de:c7:3b:c0:f1:30:80:ec:4f:d8:d1:b2:
                    b1:e0:5e:62:ad:51:fc:bd:b0:59:fb:24:13:03:05:
                    57:1b:49:f5:71:07:42:26:6b:c1:8f:33:6c:f1:f5:
                    8a:47:6d:8a:da:74:45:e6:97:07:e9:a5:0b:37:a3:
                    ef:65:1a:ff:50:77:60:13:ac:61:78:de:09:01:d6:
                    03:91:e4:43:04:7b:ef:f5:dc:5e:2c:08:4e:b2:68:
                    06:ba:a2:54:6d:b8:d2:00:11:39:90:3c:13:cf:cb:
                    fb:e7:28:f2:fa:46:71:68:ed:6e:72:2b:70:26:fd:
                    5f:fa:30:27:5b:b4:d3:26:66:37:fd:ed:10:59:5b:
                    38:c9:45:c5:93:3b:a2:5f:11:53:49:40:f7:61:d4:
                    00:37:2c:5e:6e:4d:fb:6f:4d:0d:31:22:5f:74:76:
                    f6:76:32:2d:8c:9e:ae:7e:b8:b5:dc:a2:01:c1:0b:
                    05:13:2e:19:be:06:3f:67:34:9e:e4:50:99:82:03:
                    53:93:59:44:96:f6:c1:d1:31:fc:67:54:82:b3:28:
                    28:22:5d:3e:ff:59:cc:a1:26:c5:e7:ac:4f:82:6f:
                    86:e9:10:e5:34:5f:ce:44:04:49:96:fe:e8:64:49:
                    05:c6:a2:73:b0:a3:bc:e9:8b:85:d2:e7:d0:e8:66:
                    9f:63:9b:5f:bf:ea:0a:51:57:00:43:59:d5:55:ea:
                    45:a4:7a:5d:d9:44:b0:bc:3e:7a:55:e7:36:28:1f:
                    2a:b8:95:3e:35:ff:77:48:c4:9e:60:c4:57:08:7f:
                    50:13:d5:df:d3:58:65:38:c6:6a:af:48:cf:1b:ac:
                    92:84:ea:c3:d6:08:99:d6:a3:c8:05:37:14:4d:f3:
                    de:4a:ef:3d:65:3c:88:c8:06:3d:bd:6f:0e:31:fd:
                    01:60:5c:e2:72:d9:b7:23:87:3b:92:9d:d4:ac:55:
                    c2:f6:e9:01:5c:94:db:77:c8:72:2f:ef:22:42:64:
                    4d:41:51:85:22:2f:ee:c9:6f:c0:17:2e:4d:a0:89:
                    da:9d:75
                Exponent: 65537 (0x10001)
        X509v3 extensions:
            X509v3 Basic Constraints: 
                CA:FALSE
            Netscape Comment: 
                Easy-RSA Generated Certificate
            X509v3 Subject Key Identifier: 
                E8:08:F5:83:C8:8E:FE:62:C1:CE:AB:28:AD:92:DC:6C:39:12:66:40
            X509v3 Authority Key Identifier: 
                keyid:12:CD:60:04:D2:A0:80:9E:70:ED:C6:99:B8:7B:2C:C6:52:FD:19:A1
                DirName:/C=US/ST=OH/L=Columbus/O=VikingVPN/OU=MyOrganizationalUnit/CN=VikingVPN CA/name=EasyRSA/emailAddress=me@myhost.mydomain
                serial:CF:35:85:EE:80:BF:2A:3E

            X509v3 Extended Key Usage: 
                TLS Web Client Authentication
            X509v3 Key Usage: 
                Digital Signature
    Signature Algorithm: md5WithRSAEncryption
         d9:7d:7c:83:08:89:73:5d:e7:31:64:08:41:58:2b:5a:b1:1b:
         0d:a3:e8:4f:c5:e2:7a:19:d4:cf:17:18:17:ed:c1:f8:2a:82:
         f7:76:50:92:15:c4:07:5f:97:69:ee:b2:54:33:9c:4c:eb:3d:
         47:fc:b5:05:65:ab:c2:b1:53:1e:24:2c:07:5e:a7:df:c0:15:
         80:e4:61:ed:e5:41:bd:5b:22:37:3d:58:b2:cc:19:41:bc:63:
         24:a9:7c:b1:62:10:df:36:f0:b5:1f:5c:de:70:6f:22:ae:c1:
         0f:ca:6b:37:c4:81:d2:60:44:90:78:f0:ed:83:88:d9:d9:59:
         99:b6:1c:be:d7:fa:21:f9:ad:be:df:bc:ee:b2:ed:f1:5d:74:
         d5:11:a1:05:d3:6e:c1:93:4f:3b:6d:af:63:4a:62:79:12:d5:
         95:08:52:e8:3b:cd:28:fb:ba:03:11:64:c2:8c:13:f2:e0:4a:
         0a:f4:c0:7a:48:a1:cd:10:eb:73:7b:ed:f1:58:36:38:a2:de:
         e8:ed:e6:f5:7b:7c:06:e3:06:e4:fc:ed:24:65:f1:0f:61:01:
         cd:86:60:a5:eb:73:62:a6:af:33:1e:cf:a0:34:f1:82:e2:92:
         b6:37:29:18:86:8c:2d:d0:2a:50:86:cb:3d:01:19:c6:fc:e4:
         5c:4f:14:0e:90:56:c0:ab:dc:9d:df:fa:4a:9c:88:82:e4:61:
         6e:ea:39:9c:5d:5d:e7:6c:5b:66:97:48:61:77:67:3a:77:08:
         37:e1:4c:31:aa:e3:93:f1:91:fc:5f:e4:0c:17:d9:35:d9:ae:
         83:a0:a2:49:c1:57:02:54:bd:29:3d:22:de:7c:88:99:7c:d8:
         95:40:b2:22:40:c1:84:40:12:1f:e5:54:ea:03:fb:9a:42:a2:
         be:60:35:6a:28:bb:bf:81:67:2f:db:6f:51:21:fc:e8:50:f0:
         58:20:63:94:09:77:62:9a:f6:73:1e:2b:6a:f4:61:32:bb:04:
         a8:42:0f:a5:3b:06:f5:e3:1f:ee:1f:9e:a4:b6:83:2f:74:68:
         57:f7:f4:82:4e:6e:3b:cd:14:e1:81:1d:b5:e0:fd:67:57:7e:
         7d:bd:fa:42:6c:e6:32:20:ff:97:9e:a4:b6:3f:0a:8e:2d:eb:
         db:b7:ea:15:39:64:1f:6f:be:46:e8:89:fc:d1:9b:8a:e9:39:
         87:60:79:d8:e0:28:de:fc:59:f3:ba:16:ac:52:bb:ab:ea:ec:
         1d:8b:fb:15:2b:65:bc:ee:59:4a:b7:a0:99:c1:d3:aa:88:eb:
         c9:09:e6:17:58:ad:0a:9a:09:53:d4:ab:e7:1d:b8:a0:90:4b:
         d4:cd:ba:75:1f:f0:b2:4d
-----BEGIN CERTIFICATE-----
MIIGrDCCBJSgAwIBAgICBrgwDQYJKoZIhvcNAQEEBQAwgawxCzAJBgNVBAYTAlVT
MQswCQYDVQQIEwJPSDERMA8GA1UEBxMIQ29sdW1idXMxEjAQBgNVBAoTCVZpa2lu
Z1ZQTjEdMBsGA1UECxMUTXlPcmdhbml6YXRpb25hbFVuaXQxFTATBgNVBAMTDFZp
a2luZ1ZQTiBDQTEQMA4GA1UEKRMHRWFzeVJTQTEhMB8GCSqGSIb3DQEJARYSbWVA
bXlob3N0Lm15ZG9tYWluMB4XDTE0MDQyNTEyNTMwM1oXDTI0MDQyMjEyNTMwM1ow
HjEcMBoGA1UEAxMTQ2xpZW50MzgwQ2VydDNmYThkNzCCAiIwDQYJKoZIhvcNAQEB
BQADggIPADCCAgoCggIBALgk06hICsgIwTK2hWyI++3fDivF2I3wSSlnteAvGp/w
tlG1X2xNP4rSec2D8kdUP98Ppn/wwI9StbRxNmU695GRH8hQ9eZ7efrg04Mq3DbA
zSJlOpiiXyr7As+rlBqqIeU0FSBOpJWfJSfjUiI6Zme7UIX5IzLGTu503sc7wPEw
gOxP2NGyseBeYq1R/L2wWfskEwMFVxtJ9XEHQiZrwY8zbPH1ikdtitp0ReaXB+ml
Czej72Ua/1B3YBOsYXjeCQHWA5HkQwR77/XcXiwITrJoBrqiVG240gAROZA8E8/L
++co8vpGcWjtbnIrcCb9X/owJ1u00yZmN/3tEFlbOMlFxZM7ol8RU0lA92HUADcs
Xm5N+29NDTEiX3R29nYyLYyern64tdyiAcELBRMuGb4GP2c0nuRQmYIDU5NZRJb2
wdEx/GdUgrMoKCJdPv9ZzKEmxeesT4JvhukQ5TRfzkQESZb+6GRJBcaic7CjvOmL
hdLn0Ohmn2ObX7/qClFXAENZ1VXqRaR6XdlEsLw+elXnNigfKriVPjX/d0jEnmDE
Vwh/UBPV39NYZTjGaq9IzxuskoTqw9YImdajyAU3FE3z3krvPWU8iMgGPb1vDjH9
AWBc4nLZtyOHO5Kd1KxVwvbpAVyU23fIci/vIkJkTUFRhSIv7slvwBcuTaCJ2p11
AgMBAAGjggFjMIIBXzAJBgNVHRMEAjAAMC0GCWCGSAGG+EIBDQQgFh5FYXN5LVJT
QSBHZW5lcmF0ZWQgQ2VydGlmaWNhdGUwHQYDVR0OBBYEFOgI9YPIjv5iwc6rKK2S
3Gw5EmZAMIHhBgNVHSMEgdkwgdaAFBLNYATSoICecO3Gmbh7LMZS/RmhoYGypIGv
MIGsMQswCQYDVQQGEwJVUzELMAkGA1UECBMCT0gxETAPBgNVBAcTCENvbHVtYnVz
MRIwEAYDVQQKEwlWaWtpbmdWUE4xHTAbBgNVBAsTFE15T3JnYW5pemF0aW9uYWxV
bml0MRUwEwYDVQQDEwxWaWtpbmdWUE4gQ0ExEDAOBgNVBCkTB0Vhc3lSU0ExITAf
BgkqhkiG9w0BCQEWEm1lQG15aG9zdC5teWRvbWFpboIJAM81he6Avyo+MBMGA1Ud
JQQMMAoGCCsGAQUFBwMCMAsGA1UdDwQEAwIHgDANBgkqhkiG9w0BAQQFAAOCAgEA
2X18gwiJc13nMWQIQVgrWrEbDaPoT8XiehnUzxcYF+3B+CqC93ZQkhXEB1+Xae6y
VDOcTOs9R/y1BWWrwrFTHiQsB16n38AVgORh7eVBvVsiNz1YsswZQbxjJKl8sWIQ
3zbwtR9c3nBvIq7BD8prN8SB0mBEkHjw7YOI2dlZmbYcvtf6Ifmtvt+87rLt8V10
1RGhBdNuwZNPO22vY0pieRLVlQhS6DvNKPu6AxFkwowT8uBKCvTAekihzRDrc3vt
8Vg2OKLe6O3m9Xt8BuMG5PztJGXxD2EBzYZgpetzYqavMx7PoDTxguKStjcpGIaM
LdAqUIbLPQEZxvzkXE8UDpBWwKvcnd/6SpyIguRhbuo5nF1d52xbZpdIYXdnOncI
N+FMMarjk/GR/F/kDBfZNdmug6CiScFXAlS9KT0i3nyImXzYlUCyIkDBhEASH+VU
6gP7mkKivmA1aii7v4FnL9tvUSH86FDwWCBjlAl3Ypr2cx4ravRhMrsEqEIPpTsG
9eMf7h+epLaDL3RoV/f0gk5uO80U4YEdteD9Z1d+fb36QmzmMiD/l56ktj8Kji3r
27fqFTlkH2++RuiJ/NGbiuk5h2B52OAo3vxZ87oWrFK7q+rsHYv7FStlvO5ZSreg
mcHTqojryQnmF1itCpoJU9Sr5x24oJBL1M26dR/wsk0=
-----END CERTIFICATE-----
