Certificate:
    Data:
        Version: 3 (0x2)
        Serial Number: 450 (0x1c2)
    Signature Algorithm: md5WithRSAEncryption
        Issuer: C=US, ST=OH, L=Columbus, O=VikingVPN, OU=MyOrganizationalUnit, CN=VikingVPN CA/name=EasyRSA/emailAddress=me@myhost.mydomain
        Validity
            Not Before: Nov 23 16:56:49 2013 GMT
            Not After : Nov 21 16:56:49 2023 GMT
        Subject: CN=Client201Cert585fcc
        Subject Public Key Info:
            Public Key Algorithm: rsaEncryption
                Public-Key: (4096 bit)
                Modulus:
                    00:cd:4e:ac:a6:85:ce:57:31:6a:6a:28:82:27:e6:
                    8a:a2:6b:a5:a6:5b:7c:c1:bb:c9:64:17:6e:93:95:
                    a9:41:cf:e0:48:cb:01:35:73:89:ba:60:2e:d5:57:
                    00:5e:79:c4:f8:13:1a:89:15:86:a6:17:d2:d0:b2:
                    2f:57:86:fc:f8:87:0a:30:d2:4b:86:75:c1:8a:de:
                    4e:06:fe:5d:d2:c3:50:3f:3d:29:74:d9:eb:76:10:
                    13:f7:dc:0a:69:a1:f4:9a:39:6c:75:0f:c6:f3:84:
                    a3:d1:6b:62:b0:76:2f:52:5a:17:36:02:5e:29:f2:
                    8d:d3:61:67:f6:df:70:8e:c5:3d:9d:6d:40:bb:de:
                    b9:8e:61:f5:c6:f5:60:06:32:8a:c1:7a:da:0e:52:
                    cc:79:56:8b:e5:bc:41:08:e6:af:74:53:2f:91:55:
                    d3:f0:1f:51:08:a4:a1:17:85:95:f8:8e:d8:1f:cf:
                    17:5f:e1:bc:13:33:76:20:0c:88:25:30:b2:66:01:
                    2f:9a:ff:df:28:fc:f2:fe:d1:b2:57:ca:29:4c:ae:
                    1c:fa:29:35:93:83:37:16:4b:89:20:11:76:b8:d4:
                    9a:12:2f:10:3f:08:90:4e:c7:04:9c:0a:67:a5:5d:
                    08:7e:50:7e:b0:d8:b3:a5:94:84:d5:4d:ed:a9:e6:
                    f7:1e:5d:5a:45:1f:3d:fb:66:00:12:f0:1b:37:1d:
                    e6:9f:fe:c3:d3:14:ce:59:5a:d3:90:76:85:6a:45:
                    67:7a:9c:37:0c:7d:ec:69:f7:5b:e6:44:fc:98:ac:
                    3d:7d:51:a2:2f:d0:1c:7e:d3:17:f2:97:e1:f1:af:
                    cc:41:cd:e1:1d:a3:da:7e:85:18:35:30:59:5c:51:
                    2e:19:da:d0:92:f6:31:74:16:0a:d8:b9:67:1b:c2:
                    f4:46:e1:18:ec:93:09:00:33:17:41:27:f1:67:da:
                    e2:a8:c3:df:03:07:d4:01:d2:65:93:ec:f5:a5:c0:
                    23:65:95:f7:ec:30:c1:34:2c:24:5e:d2:0c:49:b6:
                    aa:24:1b:3a:6f:69:5c:f7:38:a9:e9:ef:43:f1:c8:
                    ff:e0:80:eb:8e:24:ae:fb:28:e3:64:49:2a:50:86:
                    0e:54:54:17:6a:03:1e:bd:eb:fb:1a:7d:d3:e2:26:
                    69:eb:6d:e6:b6:42:71:94:5c:41:18:47:b2:4b:8a:
                    48:09:63:7e:0f:0f:c9:c6:10:36:9d:a7:df:2b:8d:
                    a8:ab:92:9a:17:00:4d:bf:d0:a2:94:60:cf:73:f3:
                    ab:1c:20:88:68:5f:66:43:0b:13:60:8d:89:34:c9:
                    74:e2:c7:51:89:48:a8:38:27:78:e4:24:c9:28:14:
                    b7:38:af
                Exponent: 65537 (0x10001)
        X509v3 extensions:
            X509v3 Basic Constraints: 
                CA:FALSE
            Netscape Comment: 
                Easy-RSA Generated Certificate
            X509v3 Subject Key Identifier: 
                94:BE:FE:DE:A6:70:43:B9:BA:21:01:A4:AE:2F:11:CB:74:40:1E:5E
            X509v3 Authority Key Identifier: 
                keyid:12:CD:60:04:D2:A0:80:9E:70:ED:C6:99:B8:7B:2C:C6:52:FD:19:A1
                DirName:/C=US/ST=OH/L=Columbus/O=VikingVPN/OU=MyOrganizationalUnit/CN=VikingVPN CA/name=EasyRSA/emailAddress=me@myhost.mydomain
                serial:CF:35:85:EE:80:BF:2A:3E

            X509v3 Extended Key Usage: 
                TLS Web Client Authentication
            X509v3 Key Usage: 
                Digital Signature
    Signature Algorithm: md5WithRSAEncryption
         30:a0:ed:29:59:48:04:09:fa:57:71:3e:09:1f:e7:26:a7:49:
         76:08:e0:8c:e6:62:05:03:93:c6:86:c4:79:ca:04:a7:f0:79:
         c7:a3:bb:4c:b2:75:f7:e7:f3:a1:52:2b:aa:7d:a1:b7:0b:7c:
         72:be:d7:bf:40:bd:bc:4f:60:c8:55:2d:32:e1:8c:16:aa:17:
         75:53:bf:12:61:25:40:4d:c3:42:78:f2:a3:d2:c0:e9:c2:66:
         9b:a8:04:22:c4:ea:ad:9d:20:1f:7f:6d:11:7e:11:01:5c:42:
         64:30:e6:61:27:9e:20:5b:17:93:59:42:a9:bc:e7:35:e8:4a:
         33:07:c5:20:c7:65:31:90:2e:7f:36:6f:f1:4a:f0:ea:54:70:
         41:f5:1c:f1:1e:d1:a7:1c:3c:46:5b:b5:93:27:54:cf:35:7a:
         30:a3:38:8d:68:f1:fd:65:db:00:5b:40:49:2d:24:09:28:2a:
         a7:c1:aa:05:9e:37:dc:e4:b4:29:1c:cf:ec:df:cc:03:6d:d2:
         28:16:18:e0:d6:cb:a1:b5:63:16:47:46:8e:31:31:62:84:4e:
         b9:1e:c0:a5:d4:4d:ad:0a:98:2f:5b:08:32:19:6a:c1:c4:5c:
         2d:bb:41:16:56:5c:48:63:37:86:d7:ec:62:2d:05:47:01:dd:
         2a:32:a0:34:68:71:c4:ba:b8:6e:c4:a9:62:c0:cb:b9:95:63:
         ec:a0:b0:36:f9:6b:bf:18:2a:99:a0:87:85:41:a8:bd:82:37:
         97:0c:03:62:6e:87:dd:01:b5:6b:ed:35:02:5e:5d:f9:7e:ff:
         69:28:66:33:f9:db:0d:08:85:bd:b6:ba:98:77:62:c0:95:73:
         48:f7:a7:4a:fc:e3:84:19:a9:ae:c6:3b:f5:1e:9f:8c:7a:a6:
         6b:5a:51:87:c5:eb:8a:16:54:42:ea:f8:f2:6a:c4:f2:b7:14:
         38:e6:9c:e1:27:65:da:cf:a3:73:ec:0f:97:85:8b:c4:78:f2:
         27:e5:1f:dc:78:49:d9:31:7a:00:d8:a3:8d:56:27:d4:df:97:
         14:65:16:56:64:fc:c0:8a:47:77:b0:f4:8e:61:85:f8:95:17:
         1c:0b:96:35:84:e5:2d:68:43:33:74:97:6d:50:5d:8e:dc:dc:
         a0:35:60:5e:ee:64:fa:98:9b:a1:50:31:8f:4a:11:d4:38:23:
         a9:72:16:79:ac:67:84:32:6d:28:ec:a1:3a:03:ac:e4:d2:34:
         75:df:17:84:ba:b7:aa:63:e7:76:76:25:14:0a:22:67:03:fa:
         fe:e4:3a:58:37:50:61:90:d1:df:17:8e:2f:a1:c7:3f:79:b4:
         99:32:cd:f1:2c:a7:a8:d1
-----BEGIN CERTIFICATE-----
MIIGrDCCBJSgAwIBAgICAcIwDQYJKoZIhvcNAQEEBQAwgawxCzAJBgNVBAYTAlVT
MQswCQYDVQQIEwJPSDERMA8GA1UEBxMIQ29sdW1idXMxEjAQBgNVBAoTCVZpa2lu
Z1ZQTjEdMBsGA1UECxMUTXlPcmdhbml6YXRpb25hbFVuaXQxFTATBgNVBAMTDFZp
a2luZ1ZQTiBDQTEQMA4GA1UEKRMHRWFzeVJTQTEhMB8GCSqGSIb3DQEJARYSbWVA
bXlob3N0Lm15ZG9tYWluMB4XDTEzMTEyMzE2NTY0OVoXDTIzMTEyMTE2NTY0OVow
HjEcMBoGA1UEAxMTQ2xpZW50MjAxQ2VydDU4NWZjYzCCAiIwDQYJKoZIhvcNAQEB
BQADggIPADCCAgoCggIBAM1OrKaFzlcxamoogifmiqJrpaZbfMG7yWQXbpOVqUHP
4EjLATVzibpgLtVXAF55xPgTGokVhqYX0tCyL1eG/PiHCjDSS4Z1wYreTgb+XdLD
UD89KXTZ63YQE/fcCmmh9Jo5bHUPxvOEo9FrYrB2L1JaFzYCXinyjdNhZ/bfcI7F
PZ1tQLveuY5h9cb1YAYyisF62g5SzHlWi+W8QQjmr3RTL5FV0/AfUQikoReFlfiO
2B/PF1/hvBMzdiAMiCUwsmYBL5r/3yj88v7RslfKKUyuHPopNZODNxZLiSARdrjU
mhIvED8IkE7HBJwKZ6VdCH5QfrDYs6WUhNVN7anm9x5dWkUfPftmABLwGzcd5p/+
w9MUzlla05B2hWpFZ3qcNwx97Gn3W+ZE/JisPX1Roi/QHH7TF/KX4fGvzEHN4R2j
2n6FGDUwWVxRLhna0JL2MXQWCti5ZxvC9EbhGOyTCQAzF0En8Wfa4qjD3wMH1AHS
ZZPs9aXAI2WV9+wwwTQsJF7SDEm2qiQbOm9pXPc4qenvQ/HI/+CA644krvso42RJ
KlCGDlRUF2oDHr3r+xp90+Imaett5rZCcZRcQRhHskuKSAljfg8PycYQNp2n3yuN
qKuSmhcATb/QopRgz3PzqxwgiGhfZkMLE2CNiTTJdOLHUYlIqDgneOQkySgUtziv
AgMBAAGjggFjMIIBXzAJBgNVHRMEAjAAMC0GCWCGSAGG+EIBDQQgFh5FYXN5LVJT
QSBHZW5lcmF0ZWQgQ2VydGlmaWNhdGUwHQYDVR0OBBYEFJS+/t6mcEO5uiEBpK4v
Ect0QB5eMIHhBgNVHSMEgdkwgdaAFBLNYATSoICecO3Gmbh7LMZS/RmhoYGypIGv
MIGsMQswCQYDVQQGEwJVUzELMAkGA1UECBMCT0gxETAPBgNVBAcTCENvbHVtYnVz
MRIwEAYDVQQKEwlWaWtpbmdWUE4xHTAbBgNVBAsTFE15T3JnYW5pemF0aW9uYWxV
bml0MRUwEwYDVQQDEwxWaWtpbmdWUE4gQ0ExEDAOBgNVBCkTB0Vhc3lSU0ExITAf
BgkqhkiG9w0BCQEWEm1lQG15aG9zdC5teWRvbWFpboIJAM81he6Avyo+MBMGA1Ud
JQQMMAoGCCsGAQUFBwMCMAsGA1UdDwQEAwIHgDANBgkqhkiG9w0BAQQFAAOCAgEA
MKDtKVlIBAn6V3E+CR/nJqdJdgjgjOZiBQOTxobEecoEp/B5x6O7TLJ19+fzoVIr
qn2htwt8cr7Xv0C9vE9gyFUtMuGMFqoXdVO/EmElQE3DQnjyo9LA6cJmm6gEIsTq
rZ0gH39tEX4RAVxCZDDmYSeeIFsXk1lCqbznNehKMwfFIMdlMZAufzZv8Urw6lRw
QfUc8R7Rpxw8Rlu1kydUzzV6MKM4jWjx/WXbAFtASS0kCSgqp8GqBZ433OS0KRzP
7N/MA23SKBYY4NbLobVjFkdGjjExYoROuR7ApdRNrQqYL1sIMhlqwcRcLbtBFlZc
SGM3htfsYi0FRwHdKjKgNGhxxLq4bsSpYsDLuZVj7KCwNvlrvxgqmaCHhUGovYI3
lwwDYm6H3QG1a+01Al5d+X7/aShmM/nbDQiFvba6mHdiwJVzSPenSvzjhBmprsY7
9R6fjHqma1pRh8XrihZUQur48mrE8rcUOOac4Sdl2s+jc+wPl4WLxHjyJ+Uf3HhJ
2TF6ANijjVYn1N+XFGUWVmT8wIpHd7D0jmGF+JUXHAuWNYTlLWhDM3SXbVBdjtzc
oDVgXu5k+piboVAxj0oR1DgjqXIWeaxnhDJtKOyhOgOs5NI0dd8XhLq3qmPndnYl
FAoiZwP6/uQ6WDdQYZDR3xeOL6HHP3m0mTLN8SynqNE=
-----END CERTIFICATE-----
