Certificate:
    Data:
        Version: 3 (0x2)
        Serial Number: 9120 (0x23a0)
    Signature Algorithm: sha256WithRSAEncryption
        Issuer: C=US, ST=OH, L=Columbus, O=VikingVPN, OU=MyOrganizationalUnit, CN=VikingVPN CA/name=EasyRSA/emailAddress=me@myhost.mydomain
        Validity
            Not Before: Sep 30 13:26:49 2016 GMT
            Not After : Sep 28 13:26:49 2026 GMT
        Subject: CN=Client2296Certe90c31
        Subject Public Key Info:
            Public Key Algorithm: rsaEncryption
                Public-Key: (4096 bit)
                Modulus:
                    00:c0:7f:37:ed:8e:bc:1a:d3:1d:93:7c:1e:27:b2:
                    ee:3d:66:37:d3:7b:fb:6e:8a:19:25:70:ff:28:93:
                    89:85:b1:36:c8:7b:17:a5:39:45:05:05:7a:1b:1e:
                    5c:02:a0:11:ce:ae:07:f0:41:5b:05:3e:b8:27:e9:
                    ab:a8:c5:05:e3:76:9c:4a:fb:9d:77:99:0c:b3:90:
                    c2:b1:42:74:7d:8c:9b:f0:9b:58:65:f8:fd:6d:c0:
                    7b:ae:c7:52:49:24:cc:47:4a:c1:9c:76:5e:2f:7c:
                    25:89:8a:8b:6d:b2:04:b8:f5:25:46:19:39:b4:4f:
                    39:d8:64:6d:3e:31:18:5c:5a:96:7d:64:01:64:79:
                    22:64:30:d1:31:85:d9:6b:c0:2c:70:6c:10:c4:78:
                    85:4c:e7:cf:bc:e5:09:32:45:2c:fa:ce:e0:1a:1b:
                    28:8e:b8:17:25:86:d5:3f:4a:d6:4b:d0:2d:59:17:
                    6b:68:fc:cd:c0:7a:67:cf:eb:4e:54:61:52:eb:77:
                    7a:ea:8b:77:03:b1:77:e7:ac:d7:2d:53:23:d8:08:
                    5d:bf:ce:48:43:a5:db:af:d7:f6:ef:81:d4:02:b7:
                    9f:6d:a3:7f:65:0d:60:01:be:cf:d6:59:91:09:e2:
                    f7:51:6f:f4:76:56:8b:8a:96:c9:59:7f:36:60:e2:
                    7e:4a:47:52:f5:7c:06:88:17:7e:ea:44:7a:99:88:
                    80:7f:3d:82:cb:b6:8c:cb:59:c6:72:ef:7e:cc:56:
                    b3:26:a3:5e:0b:91:d9:b5:4c:f6:7b:7b:51:54:d3:
                    92:56:61:43:be:1e:14:df:26:2b:0f:db:2f:52:0a:
                    6a:f6:b4:f5:72:aa:92:4f:7d:55:72:a0:57:e3:af:
                    d9:3d:26:0d:9e:46:6e:0e:0f:4c:8a:e0:8e:a1:14:
                    66:b2:66:8a:83:a3:de:07:31:88:17:a6:ea:33:11:
                    a7:19:ef:04:f1:52:3c:f0:19:df:4b:d4:d2:fd:e7:
                    ca:d6:d5:5a:bf:2b:72:42:34:12:5a:cb:8a:c6:41:
                    69:f9:fb:7e:44:97:86:02:8d:d4:58:09:ce:75:17:
                    c4:40:46:0f:41:00:62:99:9b:f0:d4:9b:3a:48:3f:
                    61:cb:55:97:c3:ed:03:2b:7b:f3:48:53:73:fb:0b:
                    1f:0a:ec:e5:f3:f3:32:24:c3:e1:9e:4d:b0:6d:10:
                    13:cb:03:68:22:8a:d4:94:fe:e0:de:b5:67:86:c3:
                    14:74:14:1c:7a:eb:b2:e2:72:50:87:cd:ca:bc:65:
                    8a:38:69:79:c6:07:97:6f:cc:0e:c6:32:e9:ff:1c:
                    34:57:52:e1:3e:c6:4a:25:76:60:97:d4:d6:ac:c3:
                    72:aa:93
                Exponent: 65537 (0x10001)
        X509v3 extensions:
            X509v3 Basic Constraints: 
                CA:FALSE
            Netscape Comment: 
                Easy-RSA Generated Certificate
            X509v3 Subject Key Identifier: 
                58:1D:78:5F:FD:28:7F:3A:AB:D3:8D:40:D3:11:52:2C:92:43:2D:D5
            X509v3 Authority Key Identifier: 
                keyid:12:CD:60:04:D2:A0:80:9E:70:ED:C6:99:B8:7B:2C:C6:52:FD:19:A1
                DirName:/C=US/ST=OH/L=Columbus/O=VikingVPN/OU=MyOrganizationalUnit/CN=VikingVPN CA/name=EasyRSA/emailAddress=me@myhost.mydomain
                serial:CF:35:85:EE:80:BF:2A:3E

            X509v3 Extended Key Usage: 
                TLS Web Client Authentication
            X509v3 Key Usage: 
                Digital Signature
    Signature Algorithm: sha256WithRSAEncryption
         5c:a6:04:9a:02:24:f1:ea:18:71:dc:c3:9f:33:d8:34:0f:c9:
         f4:5c:8f:d2:67:e0:cd:8f:44:27:ca:5c:71:ad:27:be:26:e8:
         bf:2f:ed:9a:21:04:ed:fc:c1:bf:2b:34:bd:79:5d:ff:7c:95:
         31:23:17:f5:90:2f:c3:41:33:b0:6d:87:01:49:8e:51:fc:bb:
         54:69:e5:58:c0:57:61:db:d1:93:00:13:5b:ea:f2:ff:46:08:
         6e:ff:d1:22:2e:2e:ef:29:7d:ba:93:df:86:3e:92:ca:f1:be:
         eb:e3:a7:18:8b:61:6b:2e:2e:23:48:be:a9:b9:93:dc:b4:e1:
         78:26:74:fd:08:63:fa:03:a6:52:30:6d:f3:a4:d3:a2:64:fa:
         2b:43:ad:3a:32:05:ac:f4:01:db:2d:6d:75:46:e2:6e:0d:60:
         6a:76:ee:2a:57:4b:e8:d1:15:9f:af:bb:f0:89:05:6d:73:37:
         a4:31:7b:38:60:22:90:72:37:06:96:bc:55:52:fe:e4:8c:2e:
         20:82:4c:6c:1e:2e:d3:25:7b:7e:6a:27:e7:15:7c:a6:d4:fc:
         a3:c0:5a:ef:8a:f2:24:7a:84:12:84:b9:86:3a:5d:47:f4:b3:
         7f:d1:1d:73:11:2c:19:d7:9b:80:70:b1:60:9c:22:2e:7a:f4:
         8a:f0:85:9f:90:8e:9f:a5:79:0a:f6:b2:de:ad:3b:88:15:67:
         2b:29:da:8f:47:f0:94:5f:42:e8:bb:a3:f7:09:34:0c:8a:5b:
         a0:7b:2a:5c:b3:59:a3:9a:86:3f:84:59:f8:40:d5:3e:6e:aa:
         23:3d:f8:f1:1e:67:1b:f8:f0:75:d5:d1:df:48:2c:b9:6f:cc:
         26:45:fe:48:8a:70:e5:e2:ca:7a:d2:d6:4d:99:89:b8:dc:72:
         ec:70:e1:96:d6:d1:3b:1d:69:98:34:55:50:c6:99:96:cc:99:
         bc:f5:15:f8:4f:82:69:ea:11:d5:22:61:08:25:b3:1a:fd:35:
         0a:06:55:e8:26:32:f1:96:62:c3:39:1d:2f:cc:f3:2d:c1:17:
         85:a6:3e:2e:a6:35:49:12:0b:87:b7:c7:d9:b4:46:27:0e:95:
         ac:bf:1b:6f:15:97:35:6f:62:10:de:fb:57:49:4c:34:aa:57:
         e6:11:67:03:f4:5c:81:e3:fd:86:6d:4b:31:fe:5d:63:1a:61:
         f8:dc:81:e4:bd:ee:b9:2f:14:8b:06:b3:72:ca:42:77:94:8e:
         2c:93:5a:6c:dd:1e:33:11:dd:74:36:bb:88:40:a8:62:8c:70:
         61:ff:b3:85:d5:ab:a0:f5:57:ca:1c:ad:83:d2:aa:4c:0b:d8:
         c1:28:a0:48:3b:0f:b5:50
-----BEGIN CERTIFICATE-----
MIIGrTCCBJWgAwIBAgICI6AwDQYJKoZIhvcNAQELBQAwgawxCzAJBgNVBAYTAlVT
MQswCQYDVQQIEwJPSDERMA8GA1UEBxMIQ29sdW1idXMxEjAQBgNVBAoTCVZpa2lu
Z1ZQTjEdMBsGA1UECxMUTXlPcmdhbml6YXRpb25hbFVuaXQxFTATBgNVBAMTDFZp
a2luZ1ZQTiBDQTEQMA4GA1UEKRMHRWFzeVJTQTEhMB8GCSqGSIb3DQEJARYSbWVA
bXlob3N0Lm15ZG9tYWluMB4XDTE2MDkzMDEzMjY0OVoXDTI2MDkyODEzMjY0OVow
HzEdMBsGA1UEAxMUQ2xpZW50MjI5NkNlcnRlOTBjMzEwggIiMA0GCSqGSIb3DQEB
AQUAA4ICDwAwggIKAoICAQDAfzftjrwa0x2TfB4nsu49ZjfTe/tuihklcP8ok4mF
sTbIexelOUUFBXobHlwCoBHOrgfwQVsFPrgn6auoxQXjdpxK+513mQyzkMKxQnR9
jJvwm1hl+P1twHuux1JJJMxHSsGcdl4vfCWJiottsgS49SVGGTm0TznYZG0+MRhc
WpZ9ZAFkeSJkMNExhdlrwCxwbBDEeIVM58+85QkyRSz6zuAaGyiOuBclhtU/StZL
0C1ZF2to/M3AemfP605UYVLrd3rqi3cDsXfnrNctUyPYCF2/zkhDpduv1/bvgdQC
t59to39lDWABvs/WWZEJ4vdRb/R2VouKlslZfzZg4n5KR1L1fAaIF37qRHqZiIB/
PYLLtozLWcZy737MVrMmo14Lkdm1TPZ7e1FU05JWYUO+HhTfJisP2y9SCmr2tPVy
qpJPfVVyoFfjr9k9Jg2eRm4OD0yK4I6hFGayZoqDo94HMYgXpuozEacZ7wTxUjzw
Gd9L1NL958rW1Vq/K3JCNBJay4rGQWn5+35El4YCjdRYCc51F8RARg9BAGKZm/DU
mzpIP2HLVZfD7QMre/NIU3P7Cx8K7OXz8zIkw+GeTbBtEBPLA2giitSU/uDetWeG
wxR0FBx667LiclCHzcq8ZYo4aXnGB5dvzA7GMun/HDRXUuE+xkoldmCX1Nasw3Kq
kwIDAQABo4IBYzCCAV8wCQYDVR0TBAIwADAtBglghkgBhvhCAQ0EIBYeRWFzeS1S
U0EgR2VuZXJhdGVkIENlcnRpZmljYXRlMB0GA1UdDgQWBBRYHXhf/Sh/OqvTjUDT
EVIskkMt1TCB4QYDVR0jBIHZMIHWgBQSzWAE0qCAnnDtxpm4eyzGUv0ZoaGBsqSB
rzCBrDELMAkGA1UEBhMCVVMxCzAJBgNVBAgTAk9IMREwDwYDVQQHEwhDb2x1bWJ1
czESMBAGA1UEChMJVmlraW5nVlBOMR0wGwYDVQQLExRNeU9yZ2FuaXphdGlvbmFs
VW5pdDEVMBMGA1UEAxMMVmlraW5nVlBOIENBMRAwDgYDVQQpEwdFYXN5UlNBMSEw
HwYJKoZIhvcNAQkBFhJtZUBteWhvc3QubXlkb21haW6CCQDPNYXugL8qPjATBgNV
HSUEDDAKBggrBgEFBQcDAjALBgNVHQ8EBAMCB4AwDQYJKoZIhvcNAQELBQADggIB
AFymBJoCJPHqGHHcw58z2DQPyfRcj9Jn4M2PRCfKXHGtJ74m6L8v7ZohBO38wb8r
NL15Xf98lTEjF/WQL8NBM7BthwFJjlH8u1Rp5VjAV2Hb0ZMAE1vq8v9GCG7/0SIu
Lu8pfbqT34Y+ksrxvuvjpxiLYWsuLiNIvqm5k9y04XgmdP0IY/oDplIwbfOk06Jk
+itDrToyBaz0AdstbXVG4m4NYGp27ipXS+jRFZ+vu/CJBW1zN6QxezhgIpByNwaW
vFVS/uSMLiCCTGweLtMle35qJ+cVfKbU/KPAWu+K8iR6hBKEuYY6XUf0s3/RHXMR
LBnXm4BwsWCcIi569IrwhZ+Qjp+leQr2st6tO4gVZysp2o9H8JRfQui7o/cJNAyK
W6B7KlyzWaOahj+EWfhA1T5uqiM9+PEeZxv48HXV0d9ILLlvzCZF/kiKcOXiynrS
1k2Zibjccuxw4ZbW0TsdaZg0VVDGmZbMmbz1FfhPgmnqEdUiYQglsxr9NQoGVegm
MvGWYsM5HS/M8y3BF4WmPi6mNUkSC4e3x9m0RicOlay/G28VlzVvYhDe+1dJTDSq
V+YRZwP0XIHj/YZtSzH+XWMaYfjcgeS97rkvFIsGs3LKQneUjiyTWmzdHjMR3XQ2
u4hAqGKMcGH/s4XVq6D1V8ocrYPSqkwL2MEooEg7D7VQ
-----END CERTIFICATE-----
