Certificate:
    Data:
        Version: 3 (0x2)
        Serial Number: 7296 (0x1c80)
    Signature Algorithm: md5WithRSAEncryption
        Issuer: C=US, ST=OH, L=Columbus, O=VikingVPN, OU=MyOrganizationalUnit, CN=VikingVPN CA/name=EasyRSA/emailAddress=me@myhost.mydomain
        Validity
            Not Before: Feb 25 06:10:47 2016 GMT
            Not After : Feb 22 06:10:47 2026 GMT
        Subject: CN=Client879Certe018ff
        Subject Public Key Info:
            Public Key Algorithm: rsaEncryption
                Public-Key: (4096 bit)
                Modulus:
                    00:af:3a:bc:0b:1c:b0:02:a7:b1:ba:5e:43:3e:84:
                    92:74:ff:ea:41:b8:d8:91:d4:d7:c3:81:de:9f:e0:
                    3e:27:06:c0:61:34:e7:9c:35:aa:b5:45:ef:81:1a:
                    35:c8:24:9c:29:aa:58:c6:52:a3:6a:91:f7:a2:6a:
                    74:49:38:69:7c:aa:b0:d6:ba:cd:3d:36:a1:ca:c5:
                    81:b1:62:dd:f8:23:93:c1:49:e2:09:6c:c4:e7:ce:
                    58:80:16:b0:23:b1:e7:4f:a1:98:27:43:ab:1a:a3:
                    51:92:22:7e:68:bc:5b:9f:a4:6e:7f:67:62:95:ed:
                    b0:d9:2d:7d:bb:91:b6:0c:9c:3e:23:50:52:d5:0e:
                    1e:18:68:00:2d:f3:04:55:dd:50:b3:72:19:3c:5d:
                    71:4d:ed:2c:db:4a:62:14:96:34:7d:5e:35:cb:5d:
                    ee:5f:b6:fe:27:e8:0c:a5:99:d9:27:de:b6:78:7d:
                    a9:15:8e:06:a9:52:f7:45:d3:eb:c7:46:b4:74:35:
                    66:c5:9e:87:4f:7c:95:17:4b:51:ce:e4:5e:cd:f6:
                    fd:1c:e2:92:82:0e:31:e1:95:2a:73:3a:fd:e8:67:
                    b7:02:b8:af:c3:eb:b6:41:5b:97:88:af:e8:23:6a:
                    ea:eb:ae:e3:68:b9:ce:b6:da:bc:ec:81:21:32:62:
                    f6:64:fe:e7:c0:68:c2:32:97:e0:03:8e:33:2a:79:
                    a6:89:82:1d:3c:6a:04:8e:20:ce:a2:cb:fc:87:e9:
                    25:ef:74:98:5b:fd:2d:1c:3d:7a:1e:10:16:6c:a7:
                    f8:20:cd:46:c4:27:63:87:0a:76:14:75:6b:c5:c2:
                    a6:56:04:54:f9:79:f8:bd:27:86:11:88:c2:af:35:
                    4b:8f:02:83:06:39:93:38:5e:64:8f:c0:e9:3d:f4:
                    e5:c0:5c:3f:8e:d6:54:0c:d4:ea:13:49:49:2c:e2:
                    f4:f8:23:de:75:e8:fc:a7:e4:75:7e:9a:42:40:04:
                    61:da:cd:18:3f:f4:16:f1:79:2b:f9:8a:e1:fd:fa:
                    b7:02:41:5f:17:21:3e:91:22:24:c6:b2:a0:2e:1a:
                    57:0a:e1:80:f7:c8:4a:9c:20:44:81:54:50:86:f6:
                    df:6e:c0:01:f3:c0:0b:22:96:08:26:76:30:f5:4b:
                    60:b4:0a:b3:5d:ba:82:78:12:97:20:0b:6a:8a:97:
                    95:2b:79:d8:56:e2:34:16:31:a2:d2:a0:68:5b:fe:
                    07:4e:c7:4f:9a:a2:db:b8:1a:16:fe:c7:f2:87:b0:
                    b5:2e:52:42:b7:a8:7f:05:aa:bd:e3:4d:a8:68:13:
                    cf:15:f3:68:ec:12:43:dd:f6:ae:48:69:d1:64:b8:
                    50:f1:b7
                Exponent: 65537 (0x10001)
        X509v3 extensions:
            X509v3 Basic Constraints: 
                CA:FALSE
            Netscape Comment: 
                Easy-RSA Generated Certificate
            X509v3 Subject Key Identifier: 
                31:29:EE:11:19:62:F5:83:F8:09:A0:2E:5B:FA:22:DB:F2:5F:12:13
            X509v3 Authority Key Identifier: 
                keyid:12:CD:60:04:D2:A0:80:9E:70:ED:C6:99:B8:7B:2C:C6:52:FD:19:A1
                DirName:/C=US/ST=OH/L=Columbus/O=VikingVPN/OU=MyOrganizationalUnit/CN=VikingVPN CA/name=EasyRSA/emailAddress=me@myhost.mydomain
                serial:CF:35:85:EE:80:BF:2A:3E

            X509v3 Extended Key Usage: 
                TLS Web Client Authentication
            X509v3 Key Usage: 
                Digital Signature
    Signature Algorithm: md5WithRSAEncryption
         1f:97:aa:44:4f:a3:65:11:53:48:e3:bc:31:08:10:dd:4f:32:
         93:de:e6:ad:21:8a:5a:87:c9:6d:b2:d5:20:d8:35:d8:31:51:
         50:b2:cc:16:5f:bc:fd:35:21:42:b3:2e:a5:51:00:59:2e:08:
         d0:69:bd:9f:9f:e9:9b:db:65:c7:d8:ed:87:ba:52:4c:13:24:
         59:6f:79:a2:6c:3a:46:db:66:80:1b:1d:76:02:8d:3c:b6:a4:
         6e:c8:79:24:b6:78:96:44:39:4a:89:b3:74:96:f3:4a:16:83:
         59:c8:ef:96:65:1f:53:e9:ab:28:93:ae:0e:6b:45:24:c8:de:
         f4:9a:af:30:89:7a:8b:cb:64:88:c3:8e:cf:b8:08:9c:df:dd:
         b3:c4:ab:8b:b7:c2:5b:96:53:a1:c5:1a:8b:e6:ee:7a:37:08:
         ae:b2:84:75:17:00:b1:f1:66:10:75:9a:87:0a:db:d8:88:59:
         9a:b9:f2:c4:54:eb:a8:36:5d:6d:34:38:94:43:86:58:85:59:
         f6:9e:36:1b:ae:72:08:c1:a8:99:47:7c:3d:4e:65:e0:a6:86:
         58:8c:fd:ec:fc:f2:d8:44:05:5b:cf:12:84:d4:a4:5f:a3:d2:
         ac:36:08:2e:4b:54:0f:50:ba:e4:94:d7:42:65:81:40:ec:32:
         3c:1c:37:04:34:01:0c:e4:78:8b:20:5e:a0:50:a1:96:cf:b8:
         83:eb:20:41:f9:ab:ea:28:98:c5:ec:26:30:50:af:eb:60:7d:
         da:46:a5:6d:74:bc:a1:6b:7e:77:14:ea:f6:2c:3a:ee:e2:5f:
         f6:61:1f:ce:c2:d9:f6:69:e3:9c:f9:ed:cb:9c:71:68:65:b3:
         88:f0:b8:38:dd:37:86:5c:e2:00:34:4f:a3:b3:c5:ba:80:1e:
         03:9a:2f:56:8a:f2:fa:c5:aa:6a:38:ad:c7:6c:48:7b:51:07:
         60:03:f9:c8:04:d7:ca:ae:35:e3:e5:a8:e2:75:90:2a:d8:c0:
         62:ca:93:d2:8a:7f:11:04:61:8c:8e:16:59:15:88:6d:a7:26:
         f7:15:42:81:7c:b8:20:4e:78:32:de:b7:32:48:06:84:76:6e:
         7d:ca:68:61:26:40:d1:ab:48:c6:21:39:cf:06:2f:91:bb:80:
         c5:c5:19:77:89:87:27:c4:e1:8f:37:ac:22:8c:63:6e:d9:45:
         21:e8:05:e2:23:26:b5:32:1d:d5:d5:4e:f5:a7:72:8b:89:cb:
         d1:87:35:26:74:f8:d3:c3:a5:b4:c6:a5:4b:c2:cc:c0:f6:69:
         a4:f2:a2:40:41:50:7c:f4:0e:b8:ce:ca:0e:a7:74:e5:ae:82:
         ab:d1:28:cb:ff:00:36:81
-----BEGIN CERTIFICATE-----
MIIGrDCCBJSgAwIBAgICHIAwDQYJKoZIhvcNAQEEBQAwgawxCzAJBgNVBAYTAlVT
MQswCQYDVQQIEwJPSDERMA8GA1UEBxMIQ29sdW1idXMxEjAQBgNVBAoTCVZpa2lu
Z1ZQTjEdMBsGA1UECxMUTXlPcmdhbml6YXRpb25hbFVuaXQxFTATBgNVBAMTDFZp
a2luZ1ZQTiBDQTEQMA4GA1UEKRMHRWFzeVJTQTEhMB8GCSqGSIb3DQEJARYSbWVA
bXlob3N0Lm15ZG9tYWluMB4XDTE2MDIyNTA2MTA0N1oXDTI2MDIyMjA2MTA0N1ow
HjEcMBoGA1UEAxMTQ2xpZW50ODc5Q2VydGUwMThmZjCCAiIwDQYJKoZIhvcNAQEB
BQADggIPADCCAgoCggIBAK86vAscsAKnsbpeQz6EknT/6kG42JHU18OB3p/gPicG
wGE055w1qrVF74EaNcgknCmqWMZSo2qR96JqdEk4aXyqsNa6zT02ocrFgbFi3fgj
k8FJ4glsxOfOWIAWsCOx50+hmCdDqxqjUZIifmi8W5+kbn9nYpXtsNktfbuRtgyc
PiNQUtUOHhhoAC3zBFXdULNyGTxdcU3tLNtKYhSWNH1eNctd7l+2/ifoDKWZ2Sfe
tnh9qRWOBqlS90XT68dGtHQ1ZsWeh098lRdLUc7kXs32/RzikoIOMeGVKnM6/ehn
twK4r8PrtkFbl4iv6CNq6uuu42i5zrbavOyBITJi9mT+58BowjKX4AOOMyp5pomC
HTxqBI4gzqLL/IfpJe90mFv9LRw9eh4QFmyn+CDNRsQnY4cKdhR1a8XCplYEVPl5
+L0nhhGIwq81S48CgwY5kzheZI/A6T305cBcP47WVAzU6hNJSSzi9Pgj3nXo/Kfk
dX6aQkAEYdrNGD/0FvF5K/mK4f36twJBXxchPpEiJMayoC4aVwrhgPfISpwgRIFU
UIb2327AAfPACyKWCCZ2MPVLYLQKs126gngSlyALaoqXlSt52FbiNBYxotKgaFv+
B07HT5qi27gaFv7H8oewtS5SQreofwWqveNNqGgTzxXzaOwSQ932rkhp0WS4UPG3
AgMBAAGjggFjMIIBXzAJBgNVHRMEAjAAMC0GCWCGSAGG+EIBDQQgFh5FYXN5LVJT
QSBHZW5lcmF0ZWQgQ2VydGlmaWNhdGUwHQYDVR0OBBYEFDEp7hEZYvWD+AmgLlv6
ItvyXxITMIHhBgNVHSMEgdkwgdaAFBLNYATSoICecO3Gmbh7LMZS/RmhoYGypIGv
MIGsMQswCQYDVQQGEwJVUzELMAkGA1UECBMCT0gxETAPBgNVBAcTCENvbHVtYnVz
MRIwEAYDVQQKEwlWaWtpbmdWUE4xHTAbBgNVBAsTFE15T3JnYW5pemF0aW9uYWxV
bml0MRUwEwYDVQQDEwxWaWtpbmdWUE4gQ0ExEDAOBgNVBCkTB0Vhc3lSU0ExITAf
BgkqhkiG9w0BCQEWEm1lQG15aG9zdC5teWRvbWFpboIJAM81he6Avyo+MBMGA1Ud
JQQMMAoGCCsGAQUFBwMCMAsGA1UdDwQEAwIHgDANBgkqhkiG9w0BAQQFAAOCAgEA
H5eqRE+jZRFTSOO8MQgQ3U8yk97mrSGKWofJbbLVINg12DFRULLMFl+8/TUhQrMu
pVEAWS4I0Gm9n5/pm9tlx9jth7pSTBMkWW95omw6RttmgBsddgKNPLakbsh5JLZ4
lkQ5SomzdJbzShaDWcjvlmUfU+mrKJOuDmtFJMje9JqvMIl6i8tkiMOOz7gInN/d
s8Sri7fCW5ZTocUai+buejcIrrKEdRcAsfFmEHWahwrb2IhZmrnyxFTrqDZdbTQ4
lEOGWIVZ9p42G65yCMGomUd8PU5l4KaGWIz97Pzy2EQFW88ShNSkX6PSrDYILktU
D1C65JTXQmWBQOwyPBw3BDQBDOR4iyBeoFChls+4g+sgQfmr6iiYxewmMFCv62B9
2kalbXS8oWt+dxTq9iw67uJf9mEfzsLZ9mnjnPnty5xxaGWziPC4ON03hlziADRP
o7PFuoAeA5ovVory+sWqajitx2xIe1EHYAP5yATXyq414+Wo4nWQKtjAYsqT0op/
EQRhjI4WWRWIbacm9xVCgXy4IE54Mt63MkgGhHZufcpoYSZA0atIxiE5zwYvkbuA
xcUZd4mHJ8ThjzesIoxjbtlFIegF4iMmtTId1dVO9adyi4nL0Yc1JnT408OltMal
S8LMwPZppPKiQEFQfPQOuM7KDqd05a6Cq9Eoy/8ANoE=
-----END CERTIFICATE-----
