Certificate:
    Data:
        Version: 3 (0x2)
        Serial Number: 2463 (0x99f)
    Signature Algorithm: md5WithRSAEncryption
        Issuer: C=US, ST=OH, L=Columbus, O=VikingVPN, OU=MyOrganizationalUnit, CN=VikingVPN CA/name=EasyRSA/emailAddress=me@myhost.mydomain
        Validity
            Not Before: Aug  4 21:48:13 2014 GMT
            Not After : Aug  1 21:48:13 2024 GMT
        Subject: CN=Client344Certabf54f
        Subject Public Key Info:
            Public Key Algorithm: rsaEncryption
                Public-Key: (4096 bit)
                Modulus:
                    00:a9:0c:2b:fd:a8:a8:4b:3f:89:4f:bb:f4:82:b2:
                    6b:07:c1:8c:ec:be:65:db:5c:99:1a:e7:63:9d:43:
                    3f:20:b5:e4:40:e7:5c:07:bc:88:24:4d:46:6c:e1:
                    12:75:05:d8:e8:66:ec:b9:cb:ff:a5:5c:cf:2d:0f:
                    7c:60:e4:e9:92:ae:3b:57:d0:63:99:d7:12:7f:5b:
                    ae:39:2f:21:c1:ed:1b:ac:f8:68:8c:56:cc:20:88:
                    2b:cd:6c:39:be:63:a3:3d:a2:87:49:9d:2e:5f:e2:
                    3f:b2:c3:7c:ea:e5:2b:c7:bb:b7:eb:ed:32:c9:fb:
                    7d:d5:72:a4:1c:89:16:64:87:0b:c7:35:25:d8:ff:
                    8b:b1:4b:cf:4e:d3:22:c4:02:7d:f5:e2:f7:e7:f8:
                    4d:f7:06:12:e4:d4:77:ed:b2:ce:4f:51:33:68:e6:
                    1d:d7:78:fb:06:c5:c1:c4:09:0b:49:5b:76:d6:5a:
                    67:1f:89:3b:5d:37:bb:33:fe:84:18:73:d3:85:20:
                    a1:e0:09:35:4d:d0:9e:10:7b:4c:80:72:09:c2:42:
                    24:c4:fa:06:46:cc:73:ae:22:b5:06:15:83:63:23:
                    fd:69:07:74:ef:68:2f:65:8f:06:c2:11:8d:94:60:
                    bb:30:ca:db:9e:ff:7a:b2:fc:d3:26:cb:b4:af:b7:
                    99:10:ae:ce:66:a7:33:1b:3f:45:6f:5c:34:de:9e:
                    ef:7f:4e:76:1d:a5:e6:a7:84:e2:33:ba:56:ff:fa:
                    51:19:2b:21:bc:14:2c:ca:23:f3:14:87:cc:b7:bc:
                    41:b1:f4:db:f1:91:bd:b6:9f:dd:ed:e3:7d:9e:17:
                    9a:01:64:dc:3b:21:1f:27:49:44:83:de:59:00:4c:
                    fa:df:8f:5b:7b:37:b2:2a:3a:d0:ca:47:ab:6b:1c:
                    6f:f8:be:4d:3c:7d:d7:5b:3e:b5:ad:10:75:6c:38:
                    bb:1f:d8:de:4b:a8:1b:51:c7:45:28:17:43:1c:06:
                    69:81:a8:8e:8a:d4:76:3d:46:9b:a5:56:36:c0:0d:
                    0c:69:00:1e:fa:da:65:c4:fc:51:52:c2:19:5f:a9:
                    18:8d:fc:72:ef:8a:fe:25:ad:af:7d:ae:02:c1:5b:
                    45:0d:bd:59:8f:6b:ee:40:54:1f:e9:6a:e6:2c:f4:
                    9e:b9:ab:60:db:b0:95:f2:a6:3c:fb:6d:61:c1:23:
                    95:e9:d7:29:e7:e9:13:98:1f:d8:78:c4:23:77:92:
                    eb:c4:34:fa:e9:90:5c:d9:55:05:83:9e:77:31:9f:
                    dc:f3:77:de:7c:dc:23:2e:cd:15:44:ec:05:6d:1c:
                    06:e3:87:c2:00:24:bd:69:0d:bd:e1:bd:b3:ed:7f:
                    0e:b5:3b
                Exponent: 65537 (0x10001)
        X509v3 extensions:
            X509v3 Basic Constraints: 
                CA:FALSE
            Netscape Comment: 
                Easy-RSA Generated Certificate
            X509v3 Subject Key Identifier: 
                FD:CC:B2:DF:89:2C:76:53:A4:E4:5B:94:82:AE:1C:DC:72:2F:20:14
            X509v3 Authority Key Identifier: 
                keyid:12:CD:60:04:D2:A0:80:9E:70:ED:C6:99:B8:7B:2C:C6:52:FD:19:A1
                DirName:/C=US/ST=OH/L=Columbus/O=VikingVPN/OU=MyOrganizationalUnit/CN=VikingVPN CA/name=EasyRSA/emailAddress=me@myhost.mydomain
                serial:CF:35:85:EE:80:BF:2A:3E

            X509v3 Extended Key Usage: 
                TLS Web Client Authentication
            X509v3 Key Usage: 
                Digital Signature
    Signature Algorithm: md5WithRSAEncryption
         02:53:53:4e:6a:bc:7a:2c:06:15:f7:d8:6d:b8:0a:37:86:ec:
         29:51:5f:e0:ff:44:06:ac:47:ff:5a:40:49:99:8b:97:83:05:
         a9:9e:3c:b0:bf:d5:ec:c1:9a:ca:28:45:87:b9:50:9d:14:37:
         41:19:79:85:44:17:cd:ab:0d:55:c4:a9:55:a8:ce:a2:77:e9:
         65:17:c8:d3:44:e1:39:e1:04:3c:65:dd:bd:40:dc:df:31:97:
         f9:43:6d:6b:d8:0f:97:7c:b6:05:60:d9:5c:30:07:73:ce:0e:
         1b:e2:7b:87:76:71:a0:4e:e4:8e:8c:1d:17:ee:ab:df:6f:fd:
         db:68:d5:89:b4:3f:89:00:f9:b0:b9:e6:1c:0b:1b:5d:32:ff:
         8f:03:89:e8:33:3b:fa:60:ab:96:f1:63:41:64:dd:f6:0b:42:
         7f:56:57:d9:4c:4a:04:97:28:07:f6:29:40:f5:38:70:ee:d0:
         c5:85:e0:95:83:89:85:8e:7a:26:62:5f:ca:58:b4:a4:31:3f:
         f4:f4:81:ff:7d:93:1b:a8:08:3f:45:1d:72:0b:e1:13:d2:df:
         25:23:1f:28:34:9f:00:7c:2d:b4:7f:28:77:62:8d:98:35:c8:
         d4:5d:39:80:a2:f9:a5:d1:09:64:bb:96:63:ac:58:65:cc:4f:
         c6:ac:29:48:fe:6d:29:f1:df:f8:f2:4c:ea:32:64:2d:0f:91:
         ba:4d:45:6f:18:c4:3d:e9:2b:cb:fd:9a:53:bf:70:b0:23:b9:
         1c:d1:3d:6e:a5:e9:1b:b0:f1:93:96:8b:2a:88:02:a2:10:66:
         af:cd:82:c6:67:22:d0:d6:bd:8c:a9:54:dc:86:c2:9b:22:62:
         fb:5a:25:02:8b:59:74:31:56:91:41:83:39:32:47:8f:d3:50:
         f7:d8:dc:39:8d:e9:16:82:48:5a:11:8d:1a:69:84:8d:79:e3:
         2b:81:30:1e:96:21:bf:f6:f1:41:86:f1:cc:e6:5f:18:d1:17:
         50:ac:68:51:e9:33:cd:f9:f8:1f:91:5a:1c:da:c5:f0:dd:db:
         5b:08:4a:ad:99:78:b0:e4:87:91:cc:7a:d7:07:27:af:f0:3e:
         7d:2f:24:d0:60:1c:23:23:03:db:b1:b0:58:b6:00:e5:be:5f:
         39:f6:e4:99:dc:3b:b1:0b:10:83:35:ff:92:ca:18:5c:19:6e:
         a0:93:e9:93:26:d4:7e:37:48:61:84:88:dd:ca:c7:ba:39:6c:
         51:e3:ee:5c:b1:53:70:d0:dc:c3:51:d2:e4:3e:b1:ed:25:c1:
         b7:e3:f0:e6:5f:c3:57:ee:0d:95:b2:68:84:62:b8:3f:0c:25:
         d3:72:f0:5a:6f:21:03:f5
-----BEGIN CERTIFICATE-----
MIIGrDCCBJSgAwIBAgICCZ8wDQYJKoZIhvcNAQEEBQAwgawxCzAJBgNVBAYTAlVT
MQswCQYDVQQIEwJPSDERMA8GA1UEBxMIQ29sdW1idXMxEjAQBgNVBAoTCVZpa2lu
Z1ZQTjEdMBsGA1UECxMUTXlPcmdhbml6YXRpb25hbFVuaXQxFTATBgNVBAMTDFZp
a2luZ1ZQTiBDQTEQMA4GA1UEKRMHRWFzeVJTQTEhMB8GCSqGSIb3DQEJARYSbWVA
bXlob3N0Lm15ZG9tYWluMB4XDTE0MDgwNDIxNDgxM1oXDTI0MDgwMTIxNDgxM1ow
HjEcMBoGA1UEAxMTQ2xpZW50MzQ0Q2VydGFiZjU0ZjCCAiIwDQYJKoZIhvcNAQEB
BQADggIPADCCAgoCggIBAKkMK/2oqEs/iU+79IKyawfBjOy+ZdtcmRrnY51DPyC1
5EDnXAe8iCRNRmzhEnUF2Ohm7LnL/6Vczy0PfGDk6ZKuO1fQY5nXEn9brjkvIcHt
G6z4aIxWzCCIK81sOb5joz2ih0mdLl/iP7LDfOrlK8e7t+vtMsn7fdVypByJFmSH
C8c1Jdj/i7FLz07TIsQCffXi9+f4TfcGEuTUd+2yzk9RM2jmHdd4+wbFwcQJC0lb
dtZaZx+JO103uzP+hBhz04UgoeAJNU3QnhB7TIByCcJCJMT6BkbMc64itQYVg2Mj
/WkHdO9oL2WPBsIRjZRguzDK257/erL80ybLtK+3mRCuzmanMxs/RW9cNN6e739O
dh2l5qeE4jO6Vv/6URkrIbwULMoj8xSHzLe8QbH02/GRvbaf3e3jfZ4XmgFk3Dsh
HydJRIPeWQBM+t+PW3s3sio60MpHq2scb/i+TTx911s+ta0QdWw4ux/Y3kuoG1HH
RSgXQxwGaYGojorUdj1Gm6VWNsANDGkAHvraZcT8UVLCGV+pGI38cu+K/iWtr32u
AsFbRQ29WY9r7kBUH+lq5iz0nrmrYNuwlfKmPPttYcEjlenXKefpE5gf2HjEI3eS
68Q0+umQXNlVBYOedzGf3PN33nzcIy7NFUTsBW0cBuOHwgAkvWkNveG9s+1/DrU7
AgMBAAGjggFjMIIBXzAJBgNVHRMEAjAAMC0GCWCGSAGG+EIBDQQgFh5FYXN5LVJT
QSBHZW5lcmF0ZWQgQ2VydGlmaWNhdGUwHQYDVR0OBBYEFP3Mst+JLHZTpORblIKu
HNxyLyAUMIHhBgNVHSMEgdkwgdaAFBLNYATSoICecO3Gmbh7LMZS/RmhoYGypIGv
MIGsMQswCQYDVQQGEwJVUzELMAkGA1UECBMCT0gxETAPBgNVBAcTCENvbHVtYnVz
MRIwEAYDVQQKEwlWaWtpbmdWUE4xHTAbBgNVBAsTFE15T3JnYW5pemF0aW9uYWxV
bml0MRUwEwYDVQQDEwxWaWtpbmdWUE4gQ0ExEDAOBgNVBCkTB0Vhc3lSU0ExITAf
BgkqhkiG9w0BCQEWEm1lQG15aG9zdC5teWRvbWFpboIJAM81he6Avyo+MBMGA1Ud
JQQMMAoGCCsGAQUFBwMCMAsGA1UdDwQEAwIHgDANBgkqhkiG9w0BAQQFAAOCAgEA
AlNTTmq8eiwGFffYbbgKN4bsKVFf4P9EBqxH/1pASZmLl4MFqZ48sL/V7MGayihF
h7lQnRQ3QRl5hUQXzasNVcSpVajOonfpZRfI00ThOeEEPGXdvUDc3zGX+UNta9gP
l3y2BWDZXDAHc84OG+J7h3ZxoE7kjowdF+6r32/922jVibQ/iQD5sLnmHAsbXTL/
jwOJ6DM7+mCrlvFjQWTd9gtCf1ZX2UxKBJcoB/YpQPU4cO7QxYXglYOJhY56JmJf
yli0pDE/9PSB/32TG6gIP0UdcgvhE9LfJSMfKDSfAHwttH8od2KNmDXI1F05gKL5
pdEJZLuWY6xYZcxPxqwpSP5tKfHf+PJM6jJkLQ+Ruk1FbxjEPekry/2aU79wsCO5
HNE9bqXpG7Dxk5aLKogCohBmr82Cxmci0Na9jKlU3IbCmyJi+1olAotZdDFWkUGD
OTJHj9NQ99jcOY3pFoJIWhGNGmmEjXnjK4EwHpYhv/bxQYbxzOZfGNEXUKxoUekz
zfn4H5FaHNrF8N3bWwhKrZl4sOSHkcx61wcnr/A+fS8k0GAcIyMD27GwWLYA5b5f
Ofbkmdw7sQsQgzX/ksoYXBluoJPpkybUfjdIYYSI3crHujlsUePuXLFTcNDcw1HS
5D6x7SXBt+Pw5l/DV+4NlbJohGK4Pwwl03LwWm8hA/U=
-----END CERTIFICATE-----
