Certificate:
    Data:
        Version: 3 (0x2)
        Serial Number: 8253 (0x203d)
    Signature Algorithm: md5WithRSAEncryption
        Issuer: C=US, ST=OH, L=Columbus, O=VikingVPN, OU=MyOrganizationalUnit, CN=VikingVPN CA/name=EasyRSA/emailAddress=me@myhost.mydomain
        Validity
            Not Before: Jun 12 03:34:30 2016 GMT
            Not After : Jun 10 03:34:30 2026 GMT
        Subject: CN=Client2114Cert89c174
        Subject Public Key Info:
            Public Key Algorithm: rsaEncryption
                Public-Key: (4096 bit)
                Modulus:
                    00:d9:21:df:ae:80:31:95:6c:16:c1:67:77:34:32:
                    5b:ba:2f:8c:e8:18:29:16:cb:d0:47:1d:32:d1:fd:
                    ee:ed:a4:9d:ce:44:92:6f:90:39:04:58:d9:74:b0:
                    d3:31:eb:1f:43:55:c3:3c:b2:36:ed:30:f1:b0:26:
                    34:f3:80:76:e4:55:0b:08:aa:8c:3a:62:f8:9d:3b:
                    51:ca:5f:34:03:c2:b9:20:1a:d3:fd:38:60:39:91:
                    f0:7c:a9:ab:d8:e1:7d:88:96:03:3a:42:d6:d0:98:
                    c2:04:ff:71:ec:f5:85:18:39:88:a9:24:48:a7:d9:
                    ad:bd:71:95:01:c0:02:c8:d1:cc:5b:e8:ea:85:d1:
                    6d:09:d3:e9:6f:c3:f1:33:80:0d:56:7f:93:97:89:
                    ac:6a:8d:e0:d4:95:44:1c:ee:13:09:af:61:c4:8c:
                    2d:e1:2c:ad:1a:c3:7d:8a:c1:e7:a5:f7:60:6e:a8:
                    2f:09:a1:98:e0:eb:46:7e:d4:f3:67:ad:ff:4c:57:
                    a3:7e:52:c8:8f:83:f5:a7:5b:43:f8:70:0e:97:5d:
                    2b:8b:f0:bf:a3:76:98:7f:4c:77:7d:94:62:8e:17:
                    b5:de:c5:d9:a2:85:c4:0d:e1:a5:5f:f2:78:23:90:
                    2a:97:4a:04:09:b5:01:07:4b:34:51:8b:ba:ad:91:
                    e3:b3:51:6a:d9:4a:4f:97:e5:a8:20:c1:ea:83:ac:
                    d1:e3:3b:45:b9:c2:42:15:82:3b:b9:26:b4:ee:9f:
                    8c:3d:c8:38:cc:5d:c8:f1:95:db:76:89:31:05:65:
                    61:a6:a1:04:d8:2f:4d:66:5e:b0:b5:1a:29:42:c3:
                    47:4d:47:ff:7e:7b:fe:df:a3:c5:2e:56:96:6c:e4:
                    11:e6:23:f8:7c:f6:0b:60:8f:83:9a:39:cd:ec:04:
                    f2:69:fb:9d:bc:7d:3a:35:de:25:76:74:b4:4f:d8:
                    cd:71:71:7b:c6:e9:a6:57:43:8d:49:9c:59:1d:a1:
                    0c:62:be:c6:06:4b:76:8a:c5:87:02:9b:bd:f3:50:
                    bf:a0:0f:ed:b3:42:c3:24:89:f1:06:84:21:d7:23:
                    9e:68:74:7f:d7:cf:e9:78:05:42:63:d2:bb:17:65:
                    2a:f2:ce:5e:54:ec:8f:dd:f1:b9:48:b8:1d:41:0b:
                    86:ea:23:a1:29:dd:67:69:21:e5:63:3c:8b:de:37:
                    b3:2c:b1:8d:8d:46:6a:b7:50:a4:6a:9c:1e:8e:71:
                    d4:08:bf:9b:dd:76:23:33:1d:e3:44:c7:86:b8:10:
                    02:53:31:60:ef:a2:4f:1d:a4:9c:21:b6:ee:68:60:
                    da:55:8e:24:f6:d2:64:70:e0:1a:d1:84:30:44:dc:
                    2f:46:a9
                Exponent: 65537 (0x10001)
        X509v3 extensions:
            X509v3 Basic Constraints: 
                CA:FALSE
            Netscape Comment: 
                Easy-RSA Generated Certificate
            X509v3 Subject Key Identifier: 
                FF:91:AE:85:84:09:BD:0B:6C:3F:F3:C3:C8:8D:E8:7D:4B:C5:A5:EF
            X509v3 Authority Key Identifier: 
                keyid:12:CD:60:04:D2:A0:80:9E:70:ED:C6:99:B8:7B:2C:C6:52:FD:19:A1
                DirName:/C=US/ST=OH/L=Columbus/O=VikingVPN/OU=MyOrganizationalUnit/CN=VikingVPN CA/name=EasyRSA/emailAddress=me@myhost.mydomain
                serial:CF:35:85:EE:80:BF:2A:3E

            X509v3 Extended Key Usage: 
                TLS Web Client Authentication
            X509v3 Key Usage: 
                Digital Signature
    Signature Algorithm: md5WithRSAEncryption
         ba:d5:f6:3e:d0:a1:bc:70:39:2b:ad:72:39:78:21:80:8e:fe:
         3c:32:62:16:ab:32:90:89:dd:3b:72:89:59:fc:51:99:f4:ca:
         63:1d:da:93:4c:18:62:03:34:2d:89:e5:e4:26:27:c9:f6:1e:
         22:9e:94:58:42:01:4a:15:60:80:6f:2b:80:58:59:d3:50:11:
         e7:98:8a:93:3e:fd:1e:75:41:3a:55:83:64:ad:ce:11:72:09:
         dc:92:bc:7f:3a:1c:fc:28:28:36:35:27:62:ff:bc:25:9d:10:
         99:4e:14:0b:a1:dc:13:66:e6:9b:44:8e:e2:8d:26:3f:8b:ca:
         0a:c8:b3:2c:3d:9b:a6:cd:18:6c:57:53:35:01:b3:92:1f:0a:
         bf:8f:12:22:28:9f:59:20:c8:e9:a0:be:4f:5e:fc:7f:4e:c6:
         5c:e7:47:4a:3e:98:f6:9f:00:ab:94:e6:41:1d:5a:2f:61:75:
         5b:42:bf:5a:7f:19:d8:8c:a7:cb:73:c6:54:8c:71:36:17:76:
         bd:6a:51:91:d4:13:27:7d:7c:a0:86:b1:cd:c0:a2:8a:c2:60:
         c8:31:0a:77:d3:22:2d:e8:8b:3d:ad:c9:1a:61:9c:5d:0d:c7:
         54:b4:ed:26:71:cb:6e:77:03:bd:0b:d8:8d:73:16:88:e8:dc:
         1c:25:74:26:53:ad:ee:cd:0f:94:47:cd:61:90:28:a8:6d:85:
         38:65:2f:3e:fa:df:17:30:9c:82:ab:73:c8:18:ef:26:88:9a:
         0e:c1:d0:8d:e8:fa:77:ee:e9:27:ca:c5:7a:3e:59:2e:ac:b2:
         e7:04:36:5a:ca:c3:96:8e:e3:92:44:3e:31:da:c5:a8:58:53:
         fc:c4:0f:ee:a6:99:ac:38:df:6f:1a:87:9e:1c:d0:f4:3d:46:
         74:87:46:c1:29:2d:0f:09:d2:01:07:ca:ca:20:2a:f9:db:a6:
         32:96:40:c5:fc:d3:f1:83:98:3c:3c:06:bd:d4:26:de:8c:3a:
         8d:ab:e7:5c:74:cb:42:d0:d6:74:69:95:35:a2:90:93:a3:40:
         ba:1d:bc:b5:36:7f:56:0a:35:8e:85:b4:0e:3f:d9:32:55:5f:
         7c:50:e1:6d:13:23:e5:6c:d3:e2:9e:05:90:72:2b:01:b7:da:
         a7:5f:1b:07:dd:26:d3:2c:08:15:b8:fa:d4:76:0e:59:88:de:
         eb:96:08:5b:f3:7a:5d:16:6e:bf:d0:dd:2d:08:0e:bf:97:2b:
         f6:bf:e9:f4:52:0e:2c:4f:80:54:fd:4d:7a:9a:be:74:e9:54:
         cd:ba:8c:71:82:2f:1e:64:7d:96:a1:7f:55:76:f4:19:bf:d7:
         33:51:61:c7:d7:e7:7b:b1
-----BEGIN CERTIFICATE-----
MIIGrTCCBJWgAwIBAgICID0wDQYJKoZIhvcNAQEEBQAwgawxCzAJBgNVBAYTAlVT
MQswCQYDVQQIEwJPSDERMA8GA1UEBxMIQ29sdW1idXMxEjAQBgNVBAoTCVZpa2lu
Z1ZQTjEdMBsGA1UECxMUTXlPcmdhbml6YXRpb25hbFVuaXQxFTATBgNVBAMTDFZp
a2luZ1ZQTiBDQTEQMA4GA1UEKRMHRWFzeVJTQTEhMB8GCSqGSIb3DQEJARYSbWVA
bXlob3N0Lm15ZG9tYWluMB4XDTE2MDYxMjAzMzQzMFoXDTI2MDYxMDAzMzQzMFow
HzEdMBsGA1UEAxMUQ2xpZW50MjExNENlcnQ4OWMxNzQwggIiMA0GCSqGSIb3DQEB
AQUAA4ICDwAwggIKAoICAQDZId+ugDGVbBbBZ3c0Mlu6L4zoGCkWy9BHHTLR/e7t
pJ3ORJJvkDkEWNl0sNMx6x9DVcM8sjbtMPGwJjTzgHbkVQsIqow6YvidO1HKXzQD
wrkgGtP9OGA5kfB8qavY4X2IlgM6QtbQmMIE/3Hs9YUYOYipJEin2a29cZUBwALI
0cxb6OqF0W0J0+lvw/EzgA1Wf5OXiaxqjeDUlUQc7hMJr2HEjC3hLK0aw32Kweel
92BuqC8JoZjg60Z+1PNnrf9MV6N+UsiPg/WnW0P4cA6XXSuL8L+jdph/THd9lGKO
F7XexdmihcQN4aVf8ngjkCqXSgQJtQEHSzRRi7qtkeOzUWrZSk+X5aggweqDrNHj
O0W5wkIVgju5JrTun4w9yDjMXcjxldt2iTEFZWGmoQTYL01mXrC1GilCw0dNR/9+
e/7fo8UuVpZs5BHmI/h89gtgj4OaOc3sBPJp+528fTo13iV2dLRP2M1xcXvG6aZX
Q41JnFkdoQxivsYGS3aKxYcCm73zUL+gD+2zQsMkifEGhCHXI55odH/Xz+l4BUJj
0rsXZSryzl5U7I/d8blIuB1BC4bqI6Ep3WdpIeVjPIveN7MssY2NRmq3UKRqnB6O
cdQIv5vddiMzHeNEx4a4EAJTMWDvok8dpJwhtu5oYNpVjiT20mRw4BrRhDBE3C9G
qQIDAQABo4IBYzCCAV8wCQYDVR0TBAIwADAtBglghkgBhvhCAQ0EIBYeRWFzeS1S
U0EgR2VuZXJhdGVkIENlcnRpZmljYXRlMB0GA1UdDgQWBBT/ka6FhAm9C2w/88PI
jeh9S8Wl7zCB4QYDVR0jBIHZMIHWgBQSzWAE0qCAnnDtxpm4eyzGUv0ZoaGBsqSB
rzCBrDELMAkGA1UEBhMCVVMxCzAJBgNVBAgTAk9IMREwDwYDVQQHEwhDb2x1bWJ1
czESMBAGA1UEChMJVmlraW5nVlBOMR0wGwYDVQQLExRNeU9yZ2FuaXphdGlvbmFs
VW5pdDEVMBMGA1UEAxMMVmlraW5nVlBOIENBMRAwDgYDVQQpEwdFYXN5UlNBMSEw
HwYJKoZIhvcNAQkBFhJtZUBteWhvc3QubXlkb21haW6CCQDPNYXugL8qPjATBgNV
HSUEDDAKBggrBgEFBQcDAjALBgNVHQ8EBAMCB4AwDQYJKoZIhvcNAQEEBQADggIB
ALrV9j7QobxwOSutcjl4IYCO/jwyYharMpCJ3TtyiVn8UZn0ymMd2pNMGGIDNC2J
5eQmJ8n2HiKelFhCAUoVYIBvK4BYWdNQEeeYipM+/R51QTpVg2StzhFyCdySvH86
HPwoKDY1J2L/vCWdEJlOFAuh3BNm5ptEjuKNJj+LygrIsyw9m6bNGGxXUzUBs5If
Cr+PEiIon1kgyOmgvk9e/H9OxlznR0o+mPafAKuU5kEdWi9hdVtCv1p/GdiMp8tz
xlSMcTYXdr1qUZHUEyd9fKCGsc3AoorCYMgxCnfTIi3oiz2tyRphnF0Nx1S07SZx
y253A70L2I1zFojo3BwldCZTre7ND5RHzWGQKKhthThlLz763xcwnIKrc8gY7yaI
mg7B0I3o+nfu6SfKxXo+WS6ssucENlrKw5aO45JEPjHaxahYU/zED+6mmaw4328a
h54c0PQ9RnSHRsEpLQ8J0gEHysogKvnbpjKWQMX80/GDmDw8Br3UJt6MOo2r51x0
y0LQ1nRplTWikJOjQLodvLU2f1YKNY6FtA4/2TJVX3xQ4W0TI+Vs0+KeBZByKwG3
2qdfGwfdJtMsCBW4+tR2DlmI3uuWCFvzel0Wbr/Q3S0IDr+XK/a/6fRSDixPgFT9
TXqavnTpVM26jHGCLx5kfZahf1V29Bm/1zNRYcfX53ux
-----END CERTIFICATE-----
