Certificate:
    Data:
        Version: 3 (0x2)
        Serial Number: 9394 (0x24b2)
    Signature Algorithm: sha256WithRSAEncryption
        Issuer: C=US, ST=OH, L=Columbus, O=VikingVPN, OU=MyOrganizationalUnit, CN=VikingVPN CA/name=EasyRSA/emailAddress=me@myhost.mydomain
        Validity
            Not Before: Nov  4 13:31:14 2016 GMT
            Not After : Nov  2 13:31:14 2026 GMT
        Subject: CN=Client2573Cert8ff403
        Subject Public Key Info:
            Public Key Algorithm: rsaEncryption
                Public-Key: (4096 bit)
                Modulus:
                    00:d0:6c:6d:96:f0:e3:f4:fd:2c:2b:20:45:7a:9c:
                    02:64:bc:be:0e:52:9c:03:76:e9:6f:61:85:7c:f2:
                    eb:d9:85:ce:d8:b4:b8:7c:32:94:cc:f0:f0:e9:0b:
                    36:5d:f5:a2:33:59:5e:2d:6a:ed:e0:65:03:ce:51:
                    b2:96:21:0d:55:9b:eb:b3:03:75:5b:f9:0f:ff:e4:
                    0c:c8:d2:c3:fc:a0:00:79:b6:6f:e4:62:d9:23:f8:
                    fd:9e:a8:85:34:2b:83:26:cb:a7:f0:09:17:96:03:
                    d2:91:35:a2:3c:a5:69:63:8e:0a:11:cf:fe:cf:55:
                    28:b7:36:67:94:ce:1e:1a:06:17:40:ac:f1:aa:ab:
                    60:0c:1f:70:a6:8e:46:71:5d:7c:96:f6:bc:97:e7:
                    eb:50:75:d3:2b:a4:dc:46:90:08:32:a2:00:11:84:
                    a7:66:17:c1:26:a4:91:07:21:9e:fc:82:44:33:f6:
                    91:da:4f:11:15:59:bc:bd:b0:6a:bf:be:e6:cd:bf:
                    4e:38:40:80:97:49:b3:11:83:9a:4c:d7:d5:c5:67:
                    10:ae:31:d5:38:e9:4f:46:f4:20:8c:c8:d1:ee:5a:
                    52:cb:e1:7e:42:7b:c6:ac:f6:d0:68:fd:c6:e4:00:
                    16:2f:a1:38:fe:39:44:2e:87:e4:3d:89:91:24:b4:
                    9a:e0:bf:eb:fc:13:ad:8d:d0:31:20:96:3e:8f:35:
                    d3:b7:a2:39:7a:63:74:c9:a5:7a:1b:02:b7:47:66:
                    5f:47:82:9f:e8:e1:c7:36:b7:64:34:9e:db:7c:02:
                    c7:4a:50:86:f0:e1:99:2d:b9:af:31:a4:db:a0:62:
                    58:df:1c:f9:25:60:4a:a5:02:9f:2d:e9:89:22:2a:
                    f5:63:9d:cb:66:dc:be:fc:74:ee:94:78:07:5f:e0:
                    6c:c7:25:d4:ca:54:9d:c4:ad:3e:e1:74:90:a6:b0:
                    86:f2:74:57:1d:a4:4e:27:67:89:4e:85:df:b2:32:
                    e8:c8:de:af:1e:9f:b2:cd:d1:6b:1c:e3:a1:cb:0f:
                    93:43:dd:44:59:02:70:3b:06:cd:47:9d:fd:11:73:
                    a6:3b:43:1d:42:5b:02:e1:4a:89:1f:7c:f6:f4:e5:
                    7c:c5:91:82:db:e4:ba:e5:6f:44:88:fa:b4:17:e8:
                    21:11:04:74:1e:37:48:5a:1f:9a:f1:92:36:d0:21:
                    d5:c2:34:e6:51:c2:28:fd:53:d3:50:a7:26:38:b9:
                    cf:52:3c:c3:60:9d:6b:9f:b5:6f:8e:ee:a4:8c:95:
                    b8:04:22:b0:6b:23:e3:f9:a5:e2:54:bd:a3:87:37:
                    9e:1e:f8:3b:d3:77:f4:7a:30:53:31:a2:dd:98:4d:
                    c0:24:11
                Exponent: 65537 (0x10001)
        X509v3 extensions:
            X509v3 Basic Constraints: 
                CA:FALSE
            Netscape Comment: 
                Easy-RSA Generated Certificate
            X509v3 Subject Key Identifier: 
                0E:00:8B:44:AD:7F:E5:1C:0E:C7:EF:A5:CD:AB:F7:9A:74:CF:00:6C
            X509v3 Authority Key Identifier: 
                keyid:12:CD:60:04:D2:A0:80:9E:70:ED:C6:99:B8:7B:2C:C6:52:FD:19:A1
                DirName:/C=US/ST=OH/L=Columbus/O=VikingVPN/OU=MyOrganizationalUnit/CN=VikingVPN CA/name=EasyRSA/emailAddress=me@myhost.mydomain
                serial:CF:35:85:EE:80:BF:2A:3E

            X509v3 Extended Key Usage: 
                TLS Web Client Authentication
            X509v3 Key Usage: 
                Digital Signature
    Signature Algorithm: sha256WithRSAEncryption
         6f:c2:4f:af:9e:4e:60:05:33:c1:8a:42:93:5d:e4:de:79:dc:
         53:0c:dd:32:47:24:dc:7d:27:77:36:c0:97:fa:4a:90:1f:f9:
         7b:c2:23:e2:52:6d:4c:ce:88:e4:96:3e:94:32:38:38:82:eb:
         84:7c:f8:63:b6:a1:cc:f2:58:af:76:cf:11:21:47:05:43:5f:
         cc:cb:be:d2:56:50:ec:63:bb:5e:93:d5:74:05:6e:4f:41:f1:
         a2:a2:ab:4e:0e:f2:cf:3b:58:74:7d:e8:2c:b1:e5:32:ae:6b:
         5e:d2:b3:2d:e7:f7:05:bf:29:ec:64:11:ed:09:47:e4:38:a7:
         4c:71:6b:83:27:ac:73:be:86:fe:0b:df:5b:92:27:5a:70:9a:
         55:0a:7f:74:93:fa:0e:cd:04:28:b2:3b:5c:cb:20:0d:3f:2b:
         0a:08:4d:66:e0:4b:00:58:19:06:b4:7a:6b:d4:78:e0:1b:ec:
         b6:72:57:17:da:ef:66:9b:3c:5f:d2:8b:b8:e6:fa:a8:1e:6a:
         30:67:27:6f:2a:d9:1f:4a:40:14:71:60:f9:0a:f5:84:a6:a0:
         52:b9:d9:97:75:0e:3a:bb:0e:d6:b2:21:a1:42:60:a0:81:69:
         12:68:a8:46:15:b7:fa:2a:3f:00:9e:f2:76:57:e6:3b:c2:c5:
         e3:69:81:74:4b:88:c8:44:d0:4c:65:0c:61:89:cd:ae:4d:f3:
         3a:7b:65:12:37:d4:7e:ce:e8:09:aa:ae:5f:38:67:e0:18:44:
         a3:51:2d:9f:29:91:b6:d2:85:94:7a:ae:a7:fe:90:ab:ef:93:
         19:0a:99:2c:50:bd:1a:e7:19:35:c6:cf:e8:ea:98:fc:8f:30:
         94:87:58:9a:13:77:b1:ba:a0:9e:c7:7e:07:81:e6:a0:be:da:
         08:82:f0:b2:d4:cb:bc:02:9d:b3:73:8b:23:d0:dd:2e:da:1f:
         34:13:dd:94:04:0d:a0:e4:12:09:b4:8f:c8:18:b8:ac:ed:97:
         bc:e5:33:14:e3:46:4f:0e:1d:eb:30:7e:35:86:1e:91:30:00:
         de:a2:74:38:d4:53:bb:dd:85:52:9c:e3:6d:da:7c:f5:16:f2:
         1a:99:47:35:46:32:c6:19:ea:fc:90:95:ab:68:cc:6b:25:92:
         34:9d:58:61:14:ae:91:7d:9e:73:b0:96:9f:36:ae:08:ef:24:
         36:67:0c:0e:7f:bf:86:5d:d7:c2:6c:62:90:9d:66:77:61:e1:
         89:96:ed:78:55:5d:ae:f8:7d:30:70:54:14:02:70:29:fc:f2:
         8e:26:41:8c:86:9d:7b:4f:4a:bf:62:6f:b7:f2:a0:c3:3b:8f:
         90:11:83:96:9f:19:44:bf
-----BEGIN CERTIFICATE-----
MIIGrTCCBJWgAwIBAgICJLIwDQYJKoZIhvcNAQELBQAwgawxCzAJBgNVBAYTAlVT
MQswCQYDVQQIEwJPSDERMA8GA1UEBxMIQ29sdW1idXMxEjAQBgNVBAoTCVZpa2lu
Z1ZQTjEdMBsGA1UECxMUTXlPcmdhbml6YXRpb25hbFVuaXQxFTATBgNVBAMTDFZp
a2luZ1ZQTiBDQTEQMA4GA1UEKRMHRWFzeVJTQTEhMB8GCSqGSIb3DQEJARYSbWVA
bXlob3N0Lm15ZG9tYWluMB4XDTE2MTEwNDEzMzExNFoXDTI2MTEwMjEzMzExNFow
HzEdMBsGA1UEAxMUQ2xpZW50MjU3M0NlcnQ4ZmY0MDMwggIiMA0GCSqGSIb3DQEB
AQUAA4ICDwAwggIKAoICAQDQbG2W8OP0/SwrIEV6nAJkvL4OUpwDdulvYYV88uvZ
hc7YtLh8MpTM8PDpCzZd9aIzWV4tau3gZQPOUbKWIQ1Vm+uzA3Vb+Q//5AzI0sP8
oAB5tm/kYtkj+P2eqIU0K4Mmy6fwCReWA9KRNaI8pWljjgoRz/7PVSi3NmeUzh4a
BhdArPGqq2AMH3CmjkZxXXyW9ryX5+tQddMrpNxGkAgyogARhKdmF8EmpJEHIZ78
gkQz9pHaTxEVWby9sGq/vubNv044QICXSbMRg5pM19XFZxCuMdU46U9G9CCMyNHu
WlLL4X5Ce8as9tBo/cbkABYvoTj+OUQuh+Q9iZEktJrgv+v8E62N0DEglj6PNdO3
ojl6Y3TJpXobArdHZl9Hgp/o4cc2t2Q0ntt8AsdKUIbw4Zktua8xpNugYljfHPkl
YEqlAp8t6YkiKvVjnctm3L78dO6UeAdf4GzHJdTKVJ3ErT7hdJCmsIbydFcdpE4n
Z4lOhd+yMujI3q8en7LN0Wsc46HLD5ND3URZAnA7Bs1Hnf0Rc6Y7Qx1CWwLhSokf
fPb05XzFkYLb5Lrlb0SI+rQX6CERBHQeN0haH5rxkjbQIdXCNOZRwij9U9NQpyY4
uc9SPMNgnWuftW+O7qSMlbgEIrBrI+P5peJUvaOHN54e+DvTd/R6MFMxot2YTcAk
EQIDAQABo4IBYzCCAV8wCQYDVR0TBAIwADAtBglghkgBhvhCAQ0EIBYeRWFzeS1S
U0EgR2VuZXJhdGVkIENlcnRpZmljYXRlMB0GA1UdDgQWBBQOAItErX/lHA7H76XN
q/eadM8AbDCB4QYDVR0jBIHZMIHWgBQSzWAE0qCAnnDtxpm4eyzGUv0ZoaGBsqSB
rzCBrDELMAkGA1UEBhMCVVMxCzAJBgNVBAgTAk9IMREwDwYDVQQHEwhDb2x1bWJ1
czESMBAGA1UEChMJVmlraW5nVlBOMR0wGwYDVQQLExRNeU9yZ2FuaXphdGlvbmFs
VW5pdDEVMBMGA1UEAxMMVmlraW5nVlBOIENBMRAwDgYDVQQpEwdFYXN5UlNBMSEw
HwYJKoZIhvcNAQkBFhJtZUBteWhvc3QubXlkb21haW6CCQDPNYXugL8qPjATBgNV
HSUEDDAKBggrBgEFBQcDAjALBgNVHQ8EBAMCB4AwDQYJKoZIhvcNAQELBQADggIB
AG/CT6+eTmAFM8GKQpNd5N553FMM3TJHJNx9J3c2wJf6SpAf+XvCI+JSbUzOiOSW
PpQyODiC64R8+GO2oczyWK92zxEhRwVDX8zLvtJWUOxju16T1XQFbk9B8aKiq04O
8s87WHR96Cyx5TKua17Ssy3n9wW/KexkEe0JR+Q4p0xxa4MnrHO+hv4L31uSJ1pw
mlUKf3ST+g7NBCiyO1zLIA0/KwoITWbgSwBYGQa0emvUeOAb7LZyVxfa72abPF/S
i7jm+qgeajBnJ28q2R9KQBRxYPkK9YSmoFK52Zd1Djq7DtayIaFCYKCBaRJoqEYV
t/oqPwCe8nZX5jvCxeNpgXRLiMhE0ExlDGGJza5N8zp7ZRI31H7O6Amqrl84Z+AY
RKNRLZ8pkbbShZR6rqf+kKvvkxkKmSxQvRrnGTXGz+jqmPyPMJSHWJoTd7G6oJ7H
fgeB5qC+2giC8LLUy7wCnbNziyPQ3S7aHzQT3ZQEDaDkEgm0j8gYuKztl7zlMxTj
Rk8OHeswfjWGHpEwAN6idDjUU7vdhVKc423afPUW8hqZRzVGMsYZ6vyQlatozGsl
kjSdWGEUrpF9nnOwlp82rgjvJDZnDA5/v4Zd18JsYpCdZndh4YmW7XhVXa74fTBw
VBQCcCn88o4mQYyGnXtPSr9ib7fyoMM7j5ARg5afGUS/
-----END CERTIFICATE-----
