Certificate:
    Data:
        Version: 3 (0x2)
        Serial Number: 9502 (0x251e)
    Signature Algorithm: sha256WithRSAEncryption
        Issuer: C=US, ST=OH, L=Columbus, O=VikingVPN, OU=MyOrganizationalUnit, CN=VikingVPN CA/name=EasyRSA/emailAddress=me@myhost.mydomain
        Validity
            Not Before: Nov 20 13:09:24 2016 GMT
            Not After : Nov 18 13:09:24 2026 GMT
        Subject: CN=Client1702Cert70261c
        Subject Public Key Info:
            Public Key Algorithm: rsaEncryption
                Public-Key: (4096 bit)
                Modulus:
                    00:a1:4d:84:06:53:b7:7b:70:7d:14:cc:37:fc:95:
                    ed:93:0c:a2:d4:49:93:fb:46:47:c1:fc:55:23:57:
                    8d:19:32:e8:13:3c:bc:e3:82:da:7f:88:a6:53:68:
                    8b:b5:a7:0a:c1:4c:df:f3:50:96:0a:2e:d7:72:ab:
                    a2:3b:18:94:d1:8e:d2:78:f9:ba:88:00:b1:d1:e1:
                    6c:9f:f6:f1:2e:f9:a6:5b:c5:e5:cb:8f:f1:55:a2:
                    55:13:41:b1:9b:a0:2b:a3:f7:ef:b1:f8:29:c9:ee:
                    57:9a:0a:c2:4d:ea:9a:3e:fa:db:b5:65:e6:1c:4d:
                    9f:07:aa:25:59:fa:5a:e7:cc:e1:b9:ac:0e:cd:59:
                    27:8c:10:08:16:19:25:9d:aa:c9:8a:9c:8e:6d:f5:
                    25:af:d8:45:09:e1:a8:bd:63:80:37:0c:5b:c4:dc:
                    72:a6:fe:33:28:19:99:91:74:0a:e1:c6:64:06:c4:
                    6f:00:f5:21:86:22:f6:10:cc:a3:57:dd:f2:75:5f:
                    7d:30:db:e9:48:6c:67:32:3e:13:49:3d:a0:d1:90:
                    51:1d:ac:f8:14:a2:32:50:a5:d3:f5:0f:fc:cb:16:
                    be:44:cb:a4:f9:40:09:ff:7d:2c:15:92:ea:11:49:
                    ef:21:c3:a5:3e:15:d3:d1:58:18:1a:b9:10:a4:b0:
                    bd:2f:3f:ff:b4:f8:53:3e:18:1a:aa:cf:48:64:42:
                    5f:34:f7:e5:87:83:d1:0b:b0:c6:c8:4c:e3:72:b7:
                    dd:ca:3f:6d:97:78:3d:b4:3d:5e:3a:ca:96:f6:2a:
                    8d:84:06:a7:27:3c:eb:67:0d:33:5d:86:e0:0d:b3:
                    34:92:3c:45:cf:9b:a8:0f:e6:e0:4d:d5:f7:87:9d:
                    00:95:9f:1d:40:8b:49:c7:f5:dd:8a:7a:8e:53:a7:
                    57:49:03:c2:b7:3b:76:db:a9:bd:1d:b3:20:38:b1:
                    87:33:15:4d:e9:99:76:d3:57:93:81:b6:7f:90:07:
                    0b:9f:08:98:81:5d:f4:3d:8b:c9:cb:62:92:72:c4:
                    46:45:59:5a:56:94:83:35:dc:77:03:99:4e:3f:58:
                    8a:02:2c:87:ee:49:76:fc:b0:bb:c4:c1:a8:9d:5e:
                    54:55:10:5b:5f:f5:89:3b:ba:97:c0:46:1d:7e:f5:
                    dc:70:d7:55:c2:82:4e:1a:20:a7:da:e1:28:d3:52:
                    ba:9e:4b:25:7e:a3:5b:ff:2d:83:15:98:0f:58:f4:
                    39:77:97:11:c8:be:74:93:d7:63:08:66:29:70:75:
                    a6:dc:8a:ec:2a:8d:07:f8:4c:ca:26:e0:ec:de:d6:
                    f5:d2:30:26:26:ce:91:96:67:5a:a2:bc:54:c7:2e:
                    b8:3f:ab
                Exponent: 65537 (0x10001)
        X509v3 extensions:
            X509v3 Basic Constraints: 
                CA:FALSE
            Netscape Comment: 
                Easy-RSA Generated Certificate
            X509v3 Subject Key Identifier: 
                53:3D:B7:FB:C5:BE:31:92:A1:EF:10:72:5B:7F:FA:47:CB:1A:50:86
            X509v3 Authority Key Identifier: 
                keyid:12:CD:60:04:D2:A0:80:9E:70:ED:C6:99:B8:7B:2C:C6:52:FD:19:A1
                DirName:/C=US/ST=OH/L=Columbus/O=VikingVPN/OU=MyOrganizationalUnit/CN=VikingVPN CA/name=EasyRSA/emailAddress=me@myhost.mydomain
                serial:CF:35:85:EE:80:BF:2A:3E

            X509v3 Extended Key Usage: 
                TLS Web Client Authentication
            X509v3 Key Usage: 
                Digital Signature
    Signature Algorithm: sha256WithRSAEncryption
         a6:53:63:0d:35:b5:c7:b0:10:ef:f0:cb:e4:6f:82:7e:3e:61:
         46:fe:27:36:aa:2f:06:77:d3:f4:b3:fd:e9:f9:e0:ab:d9:52:
         78:ef:0c:23:da:8b:11:1c:66:fe:f2:b2:cd:a2:14:04:01:8d:
         10:d2:f2:9b:68:e7:bf:01:f8:74:ae:0e:c2:f8:1d:a2:fa:07:
         11:2f:3e:dd:d5:38:6d:54:b8:94:04:cf:9b:d2:f4:6f:75:f7:
         71:b1:9a:a8:a4:79:65:9a:a0:20:13:d3:64:9d:9f:15:b3:1c:
         b2:00:01:b2:7a:02:bf:b2:33:66:5a:a8:a8:59:dd:40:a4:a4:
         2b:14:8d:d3:30:bf:c9:3e:09:11:dc:07:50:44:6f:8f:0f:8e:
         3f:af:9b:9f:30:3c:75:f4:2b:97:ca:4e:f3:7b:b9:f8:39:75:
         82:fd:4f:2d:da:49:97:2c:e9:01:44:5b:14:8b:18:b7:4f:36:
         59:e1:70:89:39:51:04:8e:02:c2:54:14:7b:f5:15:36:5c:90:
         61:87:69:16:7a:9e:8b:6b:0a:08:7f:91:5b:94:5f:c1:ee:47:
         80:0a:8b:1d:0b:bf:e2:5e:12:1f:7a:c8:41:a5:13:1a:a8:aa:
         e9:5f:55:8a:99:1c:5d:fe:cc:74:8d:5d:c1:9a:28:00:80:95:
         74:b9:6e:03:ed:87:0e:ac:56:5d:ba:2b:ca:cd:01:22:33:e2:
         cb:7b:39:35:27:d2:a6:8a:3c:9b:c1:42:46:36:0f:f6:a2:fc:
         8a:91:ba:39:8b:4a:cc:0a:eb:b0:18:4e:79:77:db:09:28:98:
         3c:7a:73:31:a2:97:2f:c6:25:52:09:e0:12:9d:54:08:f7:fd:
         eb:60:3c:38:fe:a1:20:93:6f:75:0a:bd:c2:b9:58:24:ac:d8:
         2e:1e:26:2d:41:02:52:bc:dd:3f:c3:14:3b:44:53:bf:26:c6:
         ae:2f:7d:01:c9:5a:5c:06:75:62:07:4f:b2:ee:97:a6:d9:5b:
         d2:e3:ba:33:3c:2c:69:f1:fe:61:86:69:4a:4e:50:35:c1:b2:
         3f:a1:3e:66:ee:0b:6c:66:86:ff:6b:04:a3:34:de:48:d3:73:
         f1:f9:a6:69:32:56:76:50:b6:61:b7:1f:d2:93:df:15:a1:7b:
         e1:ac:6b:63:cb:6f:ac:c8:b9:33:2a:3e:18:2f:a2:38:26:92:
         d7:0c:53:80:70:e2:38:34:a9:d7:a8:10:08:d7:bb:e3:14:19:
         e4:6b:1f:e7:69:bc:ef:9b:dd:8d:47:60:fa:e6:34:30:bf:6d:
         a2:85:5e:d8:82:48:e9:f9:2b:4b:e9:07:b6:b6:11:63:22:d4:
         95:57:83:73:ee:24:47:c7
-----BEGIN CERTIFICATE-----
MIIGrTCCBJWgAwIBAgICJR4wDQYJKoZIhvcNAQELBQAwgawxCzAJBgNVBAYTAlVT
MQswCQYDVQQIEwJPSDERMA8GA1UEBxMIQ29sdW1idXMxEjAQBgNVBAoTCVZpa2lu
Z1ZQTjEdMBsGA1UECxMUTXlPcmdhbml6YXRpb25hbFVuaXQxFTATBgNVBAMTDFZp
a2luZ1ZQTiBDQTEQMA4GA1UEKRMHRWFzeVJTQTEhMB8GCSqGSIb3DQEJARYSbWVA
bXlob3N0Lm15ZG9tYWluMB4XDTE2MTEyMDEzMDkyNFoXDTI2MTExODEzMDkyNFow
HzEdMBsGA1UEAxMUQ2xpZW50MTcwMkNlcnQ3MDI2MWMwggIiMA0GCSqGSIb3DQEB
AQUAA4ICDwAwggIKAoICAQChTYQGU7d7cH0UzDf8le2TDKLUSZP7RkfB/FUjV40Z
MugTPLzjgtp/iKZTaIu1pwrBTN/zUJYKLtdyq6I7GJTRjtJ4+bqIALHR4Wyf9vEu
+aZbxeXLj/FVolUTQbGboCuj9++x+CnJ7leaCsJN6po++tu1ZeYcTZ8HqiVZ+lrn
zOG5rA7NWSeMEAgWGSWdqsmKnI5t9SWv2EUJ4ai9Y4A3DFvE3HKm/jMoGZmRdArh
xmQGxG8A9SGGIvYQzKNX3fJ1X30w2+lIbGcyPhNJPaDRkFEdrPgUojJQpdP1D/zL
Fr5Ey6T5QAn/fSwVkuoRSe8hw6U+FdPRWBgauRCksL0vP/+0+FM+GBqqz0hkQl80
9+WHg9ELsMbITONyt93KP22XeD20PV46ypb2Ko2EBqcnPOtnDTNdhuANszSSPEXP
m6gP5uBN1feHnQCVnx1Ai0nH9d2Keo5Tp1dJA8K3O3bbqb0dsyA4sYczFU3pmXbT
V5OBtn+QBwufCJiBXfQ9i8nLYpJyxEZFWVpWlIM13HcDmU4/WIoCLIfuSXb8sLvE
waidXlRVEFtf9Yk7upfARh1+9dxw11XCgk4aIKfa4SjTUrqeSyV+o1v/LYMVmA9Y
9Dl3lxHIvnST12MIZilwdabciuwqjQf4TMom4Oze1vXSMCYmzpGWZ1qivFTHLrg/
qwIDAQABo4IBYzCCAV8wCQYDVR0TBAIwADAtBglghkgBhvhCAQ0EIBYeRWFzeS1S
U0EgR2VuZXJhdGVkIENlcnRpZmljYXRlMB0GA1UdDgQWBBRTPbf7xb4xkqHvEHJb
f/pHyxpQhjCB4QYDVR0jBIHZMIHWgBQSzWAE0qCAnnDtxpm4eyzGUv0ZoaGBsqSB
rzCBrDELMAkGA1UEBhMCVVMxCzAJBgNVBAgTAk9IMREwDwYDVQQHEwhDb2x1bWJ1
czESMBAGA1UEChMJVmlraW5nVlBOMR0wGwYDVQQLExRNeU9yZ2FuaXphdGlvbmFs
VW5pdDEVMBMGA1UEAxMMVmlraW5nVlBOIENBMRAwDgYDVQQpEwdFYXN5UlNBMSEw
HwYJKoZIhvcNAQkBFhJtZUBteWhvc3QubXlkb21haW6CCQDPNYXugL8qPjATBgNV
HSUEDDAKBggrBgEFBQcDAjALBgNVHQ8EBAMCB4AwDQYJKoZIhvcNAQELBQADggIB
AKZTYw01tcewEO/wy+Rvgn4+YUb+JzaqLwZ30/Sz/en54KvZUnjvDCPaixEcZv7y
ss2iFAQBjRDS8pto578B+HSuDsL4HaL6BxEvPt3VOG1UuJQEz5vS9G9193Gxmqik
eWWaoCAT02SdnxWzHLIAAbJ6Ar+yM2ZaqKhZ3UCkpCsUjdMwv8k+CRHcB1BEb48P
jj+vm58wPHX0K5fKTvN7ufg5dYL9Ty3aSZcs6QFEWxSLGLdPNlnhcIk5UQSOAsJU
FHv1FTZckGGHaRZ6notrCgh/kVuUX8HuR4AKix0Lv+JeEh96yEGlExqoqulfVYqZ
HF3+zHSNXcGaKACAlXS5bgPthw6sVl26K8rNASIz4st7OTUn0qaKPJvBQkY2D/ai
/IqRujmLSswK67AYTnl32wkomDx6czGily/GJVIJ4BKdVAj3/etgPDj+oSCTb3UK
vcK5WCSs2C4eJi1BAlK83T/DFDtEU78mxq4vfQHJWlwGdWIHT7Lul6bZW9LjujM8
LGnx/mGGaUpOUDXBsj+hPmbuC2xmhv9rBKM03kjTc/H5pmkyVnZQtmG3H9KT3xWh
e+Gsa2PLb6zIuTMqPhgvojgmktcMU4Bw4jg0qdeoEAjXu+MUGeRrH+dpvO+b3Y1H
YPrmNDC/baKFXtiCSOn5K0vpB7a2EWMi1JVXg3PuJEfH
-----END CERTIFICATE-----
