Certificate:
    Data:
        Version: 3 (0x2)
        Serial Number: 9111 (0x2397)
    Signature Algorithm: sha256WithRSAEncryption
        Issuer: C=US, ST=OH, L=Columbus, O=VikingVPN, OU=MyOrganizationalUnit, CN=VikingVPN CA/name=EasyRSA/emailAddress=me@myhost.mydomain
        Validity
            Not Before: Sep 28 20:26:59 2016 GMT
            Not After : Sep 26 20:26:59 2026 GMT
        Subject: CN=Client2517Certd1b302
        Subject Public Key Info:
            Public Key Algorithm: rsaEncryption
                Public-Key: (4096 bit)
                Modulus:
                    00:df:db:6f:fe:a3:64:c8:b1:f9:8e:50:37:93:8c:
                    10:57:05:7d:0c:3d:3d:f3:00:08:fd:1e:42:4c:f0:
                    c9:8d:27:4f:b4:c2:76:f9:a2:6a:c5:92:13:40:68:
                    c7:20:34:d5:c9:8b:ad:56:fa:13:c9:5c:5a:3f:50:
                    96:2b:da:76:ad:63:3a:cc:b5:4e:f6:b8:af:e9:ce:
                    c2:38:78:80:b9:44:80:57:a6:4b:8d:f2:8c:4d:65:
                    cd:f0:62:1b:ec:71:81:58:37:76:19:8a:a6:6c:a6:
                    55:4d:69:d7:d5:9e:cf:f6:dd:cd:14:08:a8:e8:93:
                    7f:e7:7a:d8:36:af:23:21:4d:c8:4a:9f:25:9a:d3:
                    8b:c6:e6:da:2b:c8:77:45:35:85:3b:f3:b4:21:8c:
                    06:27:8e:0a:30:5c:c2:07:08:e4:c6:fb:27:ed:fd:
                    16:b4:61:90:f6:27:7a:10:46:7a:f9:4b:c3:08:c1:
                    29:cb:19:b3:ab:a2:d5:a8:a1:cd:07:9b:fc:49:d1:
                    2e:fb:3c:e6:e1:13:ae:f5:7e:1d:99:e3:47:1d:b1:
                    07:c4:52:3e:fd:19:89:dd:a8:d6:57:9a:ac:c2:c1:
                    4b:c7:73:3a:11:32:0f:08:d4:cd:45:12:08:65:5a:
                    3a:b7:40:3e:ec:97:aa:76:fd:76:94:d7:71:04:e1:
                    b7:d0:fe:5d:c7:d9:79:5c:1e:1d:aa:d4:6a:24:d0:
                    a3:73:d5:a8:dc:cd:07:38:74:dd:00:b3:18:88:3e:
                    14:82:3f:2a:03:f1:29:09:c7:c9:50:e0:f4:23:0c:
                    c6:fa:ee:35:db:fb:79:40:3d:d6:7e:94:30:e0:65:
                    8e:d3:39:f9:c6:a2:32:72:4e:71:2f:43:50:2b:b2:
                    1f:5a:0f:4e:5b:3e:38:5e:96:f4:71:f0:e3:a1:91:
                    c6:86:f3:3e:98:87:67:3a:c4:ec:72:95:57:37:6a:
                    04:76:e3:8f:f5:d6:25:ec:ce:02:83:8c:ef:5f:61:
                    ec:d9:c8:9a:e9:7b:4a:0c:6c:19:a4:e5:6b:4f:cb:
                    5f:d7:3b:a8:53:0c:90:6d:eb:b0:4f:6d:68:aa:f5:
                    5f:11:7f:17:d8:d6:db:1e:72:91:10:28:64:d4:7a:
                    1f:76:97:82:0d:a5:31:35:55:a4:86:ca:ee:9b:a5:
                    72:26:08:95:3b:c5:37:48:29:f9:c9:8d:c0:8a:08:
                    80:2c:ba:e0:ce:e2:44:14:a3:e5:43:f5:e8:f6:43:
                    63:2a:aa:07:fd:96:70:ea:fa:96:e6:7a:23:ae:bf:
                    3e:61:ba:1f:20:24:03:5f:be:15:eb:c1:96:6e:a8:
                    4e:cc:28:57:95:66:4f:58:2c:00:ab:4d:51:aa:bf:
                    c0:3a:23
                Exponent: 65537 (0x10001)
        X509v3 extensions:
            X509v3 Basic Constraints: 
                CA:FALSE
            Netscape Comment: 
                Easy-RSA Generated Certificate
            X509v3 Subject Key Identifier: 
                E8:1A:61:87:71:D6:69:51:A6:E1:EC:26:F1:C6:39:A5:3A:D5:F9:38
            X509v3 Authority Key Identifier: 
                keyid:12:CD:60:04:D2:A0:80:9E:70:ED:C6:99:B8:7B:2C:C6:52:FD:19:A1
                DirName:/C=US/ST=OH/L=Columbus/O=VikingVPN/OU=MyOrganizationalUnit/CN=VikingVPN CA/name=EasyRSA/emailAddress=me@myhost.mydomain
                serial:CF:35:85:EE:80:BF:2A:3E

            X509v3 Extended Key Usage: 
                TLS Web Client Authentication
            X509v3 Key Usage: 
                Digital Signature
    Signature Algorithm: sha256WithRSAEncryption
         8b:ed:ce:3c:91:71:cd:62:eb:6a:1e:15:d5:3f:60:f2:fe:2d:
         18:74:22:5e:ba:ed:b1:16:31:3a:a3:f4:6c:88:47:9c:77:ca:
         5f:51:07:32:c0:a4:7f:78:bd:19:57:8f:30:00:46:ba:5b:6b:
         cb:16:1e:36:90:f5:01:35:a2:40:04:e3:5b:44:e9:94:57:3c:
         d5:9f:b8:ae:61:1e:92:5a:a8:30:a4:89:2a:e9:be:a9:f7:1f:
         69:cb:5a:fb:61:9a:7c:fb:a8:53:4c:2d:16:ad:79:2d:4e:8a:
         73:57:7c:d6:23:51:3c:f0:ec:25:ca:2d:fa:c0:12:a1:4f:35:
         67:93:d6:ba:c1:d1:00:1c:cb:db:26:13:18:ed:be:df:b3:4e:
         b8:19:e6:24:bd:de:53:00:c9:62:3f:b5:ab:38:e9:08:9c:6d:
         cc:7b:82:78:94:09:d2:21:a8:ee:e3:b4:18:4b:23:8b:1e:6a:
         7d:20:74:27:79:8d:64:52:c6:4c:c1:a7:e5:74:0b:53:aa:89:
         fb:c6:1a:96:59:2b:03:4a:71:3a:f5:f2:76:e5:37:44:7a:30:
         e7:46:e2:79:dc:ee:70:71:1d:f2:75:35:d4:dd:07:e3:a5:c7:
         45:77:af:5e:67:1d:2e:3d:70:c4:76:2b:57:f9:0d:50:69:8f:
         fb:b9:80:91:8c:fa:0f:57:3a:e2:77:e1:de:7e:5d:5c:d4:8c:
         95:49:3a:ce:05:25:c0:17:04:24:96:2b:d6:62:5b:1d:7d:a9:
         73:c1:98:5e:6e:39:90:36:7d:de:23:59:d7:df:7e:ac:21:1e:
         1d:29:c8:a0:4e:8b:94:b8:7e:15:34:b3:64:4e:c2:43:29:c1:
         d7:97:25:bf:e7:eb:c0:e3:00:6d:1a:56:2d:e3:94:82:61:35:
         c5:ab:1f:0a:fc:4e:f0:de:8d:ee:68:c6:5f:19:8c:cd:60:07:
         5e:7c:aa:eb:19:b1:df:4b:10:86:f5:9e:9b:ec:b1:12:a9:9a:
         dc:5b:07:80:2c:1f:ba:aa:c6:bf:20:fa:a5:4b:f6:1e:05:c8:
         64:10:dc:36:3e:c8:cd:cb:7e:0c:f8:73:66:fb:eb:68:dc:1f:
         50:5e:0a:0c:de:2b:e3:fd:e9:ff:a6:a2:78:99:fa:69:40:d2:
         04:68:f4:bd:c4:de:92:d6:84:8e:74:b0:1f:b1:81:71:1e:ad:
         69:ab:b4:6f:df:39:33:98:2c:c1:37:17:63:59:5f:16:08:25:
         af:9c:57:0f:6d:a8:42:6b:ee:ce:c2:65:c0:60:e1:ed:05:88:
         5e:42:9d:b2:7d:0a:96:70:87:86:bd:83:9e:41:f1:bc:f5:0a:
         f8:b9:5f:38:a9:00:4b:8c
-----BEGIN CERTIFICATE-----
MIIGrTCCBJWgAwIBAgICI5cwDQYJKoZIhvcNAQELBQAwgawxCzAJBgNVBAYTAlVT
MQswCQYDVQQIEwJPSDERMA8GA1UEBxMIQ29sdW1idXMxEjAQBgNVBAoTCVZpa2lu
Z1ZQTjEdMBsGA1UECxMUTXlPcmdhbml6YXRpb25hbFVuaXQxFTATBgNVBAMTDFZp
a2luZ1ZQTiBDQTEQMA4GA1UEKRMHRWFzeVJTQTEhMB8GCSqGSIb3DQEJARYSbWVA
bXlob3N0Lm15ZG9tYWluMB4XDTE2MDkyODIwMjY1OVoXDTI2MDkyNjIwMjY1OVow
HzEdMBsGA1UEAxMUQ2xpZW50MjUxN0NlcnRkMWIzMDIwggIiMA0GCSqGSIb3DQEB
AQUAA4ICDwAwggIKAoICAQDf22/+o2TIsfmOUDeTjBBXBX0MPT3zAAj9HkJM8MmN
J0+0wnb5omrFkhNAaMcgNNXJi61W+hPJXFo/UJYr2natYzrMtU72uK/pzsI4eIC5
RIBXpkuN8oxNZc3wYhvscYFYN3YZiqZsplVNadfVns/23c0UCKjok3/netg2ryMh
TchKnyWa04vG5toryHdFNYU787QhjAYnjgowXMIHCOTG+yft/Ra0YZD2J3oQRnr5
S8MIwSnLGbOrotWooc0Hm/xJ0S77PObhE671fh2Z40cdsQfEUj79GYndqNZXmqzC
wUvHczoRMg8I1M1FEghlWjq3QD7sl6p2/XaU13EE4bfQ/l3H2XlcHh2q1Gok0KNz
1ajczQc4dN0AsxiIPhSCPyoD8SkJx8lQ4PQjDMb67jXb+3lAPdZ+lDDgZY7TOfnG
ojJyTnEvQ1Arsh9aD05bPjhelvRx8OOhkcaG8z6Yh2c6xOxylVc3agR244/11iXs
zgKDjO9fYezZyJrpe0oMbBmk5WtPy1/XO6hTDJBt67BPbWiq9V8RfxfY1tsecpEQ
KGTUeh92l4INpTE1VaSGyu6bpXImCJU7xTdIKfnJjcCKCIAsuuDO4kQUo+VD9ej2
Q2Mqqgf9lnDq+pbmeiOuvz5huh8gJANfvhXrwZZuqE7MKFeVZk9YLACrTVGqv8A6
IwIDAQABo4IBYzCCAV8wCQYDVR0TBAIwADAtBglghkgBhvhCAQ0EIBYeRWFzeS1S
U0EgR2VuZXJhdGVkIENlcnRpZmljYXRlMB0GA1UdDgQWBBToGmGHcdZpUabh7Cbx
xjmlOtX5ODCB4QYDVR0jBIHZMIHWgBQSzWAE0qCAnnDtxpm4eyzGUv0ZoaGBsqSB
rzCBrDELMAkGA1UEBhMCVVMxCzAJBgNVBAgTAk9IMREwDwYDVQQHEwhDb2x1bWJ1
czESMBAGA1UEChMJVmlraW5nVlBOMR0wGwYDVQQLExRNeU9yZ2FuaXphdGlvbmFs
VW5pdDEVMBMGA1UEAxMMVmlraW5nVlBOIENBMRAwDgYDVQQpEwdFYXN5UlNBMSEw
HwYJKoZIhvcNAQkBFhJtZUBteWhvc3QubXlkb21haW6CCQDPNYXugL8qPjATBgNV
HSUEDDAKBggrBgEFBQcDAjALBgNVHQ8EBAMCB4AwDQYJKoZIhvcNAQELBQADggIB
AIvtzjyRcc1i62oeFdU/YPL+LRh0Il667bEWMTqj9GyIR5x3yl9RBzLApH94vRlX
jzAARrpba8sWHjaQ9QE1okAE41tE6ZRXPNWfuK5hHpJaqDCkiSrpvqn3H2nLWvth
mnz7qFNMLRateS1OinNXfNYjUTzw7CXKLfrAEqFPNWeT1rrB0QAcy9smExjtvt+z
TrgZ5iS93lMAyWI/tas46Qicbcx7gniUCdIhqO7jtBhLI4sean0gdCd5jWRSxkzB
p+V0C1OqifvGGpZZKwNKcTr18nblN0R6MOdG4nnc7nBxHfJ1NdTdB+Olx0V3r15n
HS49cMR2K1f5DVBpj/u5gJGM+g9XOuJ34d5+XVzUjJVJOs4FJcAXBCSWK9ZiWx19
qXPBmF5uOZA2fd4jWdfffqwhHh0pyKBOi5S4fhU0s2ROwkMpwdeXJb/n68DjAG0a
Vi3jlIJhNcWrHwr8TvDeje5oxl8ZjM1gB158qusZsd9LEIb1npvssRKpmtxbB4As
H7qqxr8g+qVL9h4FyGQQ3DY+yM3Lfgz4c2b762jcH1BeCgzeK+P96f+moniZ+mlA
0gRo9L3E3pLWhI50sB+xgXEerWmrtG/fOTOYLME3F2NZXxYIJa+cVw9tqEJr7s7C
ZcBg4e0FiF5CnbJ9CpZwh4a9g55B8bz1Cvi5XzipAEuM
-----END CERTIFICATE-----
