Certificate:
    Data:
        Version: 3 (0x2)
        Serial Number: 12128 (0x2f60)
    Signature Algorithm: sha256WithRSAEncryption
        Issuer: C=US, ST=OH, L=Columbus, O=VikingVPN, OU=MyOrganizationalUnit, CN=VikingVPN CA/name=EasyRSA/emailAddress=me@myhost.mydomain
        Validity
            Not Before: Nov 21 18:30:49 2017 GMT
            Not After : Nov 19 18:30:49 2027 GMT
        Subject: CN=Client3158Cert58c819
        Subject Public Key Info:
            Public Key Algorithm: rsaEncryption
                Public-Key: (4096 bit)
                Modulus:
                    00:9e:3d:df:a9:67:78:8f:e2:44:88:a9:a9:60:a5:
                    1a:39:35:b3:68:f4:14:fc:59:0f:83:99:6a:6f:45:
                    5d:4e:a3:c2:1b:7a:30:a9:0f:d1:72:a8:e0:59:54:
                    77:2d:cb:2b:1f:31:e9:5d:40:16:8a:23:16:9d:1f:
                    a2:28:a9:83:db:70:21:08:dd:57:58:08:4d:ec:96:
                    bf:4c:62:f8:4d:1d:46:9d:d2:aa:8f:25:15:b8:bf:
                    9f:73:7a:29:86:11:3f:14:88:98:43:0a:d0:84:5b:
                    cb:45:83:a3:25:79:e2:88:cb:9c:d2:fd:44:08:69:
                    0e:94:49:0f:5a:ea:14:5d:87:55:89:6d:e9:11:11:
                    d6:54:4a:5f:17:54:5a:fc:78:2b:82:42:26:ec:de:
                    37:69:85:c2:fb:04:04:0f:e9:0a:aa:b5:c1:ff:eb:
                    52:5d:e1:bb:6d:59:00:88:cd:ac:e9:e6:e3:df:4d:
                    28:44:fd:3f:16:59:bb:bc:4b:1a:45:0d:7f:ae:47:
                    b2:03:6e:b6:e2:52:d6:73:bb:4c:b7:e2:61:3e:ad:
                    43:76:56:c9:4c:90:38:fa:8e:46:a5:21:71:aa:8b:
                    51:b0:25:8c:13:3d:ff:81:df:5c:ff:16:86:d6:39:
                    c4:51:cb:23:01:e7:d5:e4:70:4c:b8:93:0e:58:4b:
                    c0:1e:e5:6a:d5:ba:5a:fc:97:fc:88:03:f8:5b:bd:
                    14:9e:34:5a:a2:ab:28:8e:b5:21:1d:71:d9:14:4f:
                    8c:5d:67:3f:1e:90:33:21:d5:01:90:99:18:92:05:
                    e0:a8:69:37:e5:0f:99:1b:1c:d5:25:2a:88:ba:4d:
                    0b:1d:c5:a5:78:1e:33:0e:0c:1f:0d:16:60:36:e2:
                    54:10:a9:f4:8a:0e:91:c2:2b:b9:48:ea:f9:e4:e2:
                    32:89:dc:af:74:e7:e0:f7:9a:87:92:ba:a1:10:c9:
                    fc:1f:47:9e:46:28:73:25:27:2e:2b:2c:12:45:d8:
                    7e:d6:33:e7:1b:89:ea:7d:72:8e:25:7b:b0:61:85:
                    b9:40:b6:43:33:70:4f:6f:cd:59:fd:c4:95:42:3d:
                    1d:1b:86:ca:28:4d:a9:aa:3d:7b:0c:6c:c0:ce:ac:
                    a2:fb:c7:11:15:49:9a:37:90:8e:00:b2:95:20:a4:
                    05:bf:8d:0e:77:9b:0c:d7:01:c1:99:eb:37:41:6f:
                    92:cf:81:d0:65:2b:b6:9d:da:d2:19:16:0d:e0:02:
                    b4:dd:63:10:a6:78:2e:e1:ca:76:09:4a:be:82:34:
                    32:df:d1:2d:ac:cd:ee:0b:bf:e6:3b:6f:0b:6f:b4:
                    28:58:99:f5:79:d9:33:8e:36:1c:0e:4f:e0:44:c3:
                    f9:66:13
                Exponent: 65537 (0x10001)
        X509v3 extensions:
            X509v3 Basic Constraints: 
                CA:FALSE
            Netscape Comment: 
                Easy-RSA Generated Certificate
            X509v3 Subject Key Identifier: 
                1F:DE:64:C4:DD:17:C9:F7:51:3C:12:9C:DC:13:3F:21:02:67:4F:5B
            X509v3 Authority Key Identifier: 
                keyid:12:CD:60:04:D2:A0:80:9E:70:ED:C6:99:B8:7B:2C:C6:52:FD:19:A1
                DirName:/C=US/ST=OH/L=Columbus/O=VikingVPN/OU=MyOrganizationalUnit/CN=VikingVPN CA/name=EasyRSA/emailAddress=me@myhost.mydomain
                serial:CF:35:85:EE:80:BF:2A:3E

            X509v3 Extended Key Usage: 
                TLS Web Client Authentication
            X509v3 Key Usage: 
                Digital Signature
    Signature Algorithm: sha256WithRSAEncryption
         35:dc:66:97:09:2f:f2:5e:f6:8f:4d:66:45:26:6c:8d:29:a7:
         3f:c3:ef:b1:4a:15:0e:6f:7a:59:f4:03:af:10:fc:25:8a:d8:
         96:f9:e3:1e:e1:8e:07:d8:dc:25:a3:80:11:ba:9c:83:5f:a9:
         7c:ce:27:99:de:6e:be:df:53:5f:62:fd:00:f5:b1:0f:65:bb:
         64:27:31:79:ce:8c:8d:82:b0:e0:09:c4:d8:10:f8:42:c7:e3:
         6e:4b:a5:d7:50:b0:ce:63:b7:6a:5b:b6:05:0c:95:ee:47:79:
         84:58:39:7a:12:5b:64:94:fe:2a:db:81:f7:62:57:b6:b8:7e:
         dc:8b:1b:a2:e6:d7:29:be:7c:38:9b:f1:35:b8:3c:53:49:57:
         b8:7a:22:23:59:78:42:6e:4c:c9:a2:2e:6e:a2:00:65:c1:3f:
         ff:5f:89:18:9f:1b:64:05:2a:ab:b9:51:e6:e2:c5:ad:04:85:
         43:91:78:90:7f:89:75:65:9b:dc:5b:1c:4d:87:4c:85:fe:61:
         40:ed:47:6e:c6:98:8e:f5:0c:a1:25:ca:c4:57:37:11:93:2b:
         2e:a2:9a:70:1d:24:ee:af:7d:b6:67:ab:13:ae:e3:54:bb:16:
         7c:26:92:e3:34:2c:1a:c9:cb:e4:78:ce:05:39:6a:78:8b:d7:
         75:af:d2:ec:e2:9e:2f:dc:d0:51:e0:33:ed:02:d0:73:99:a9:
         3a:7b:0c:e5:82:9c:c2:46:1b:85:62:b7:59:74:ed:ef:1e:f4:
         9b:6c:ba:aa:c7:8c:42:5e:46:31:59:cb:82:aa:e8:d6:c3:73:
         a4:32:a7:70:54:f5:69:af:17:de:a7:1b:85:f7:a8:c6:18:88:
         ce:b4:00:88:75:a6:4d:ab:e5:e7:0f:9f:ec:74:16:f6:c6:06:
         6d:2c:bc:fa:62:0d:93:c8:bc:86:42:6c:f0:0d:05:b7:3c:83:
         29:eb:da:e9:50:48:77:fa:b7:5d:9d:be:c5:c2:8d:95:c4:1f:
         b2:09:df:f4:f5:bc:a4:3e:b3:b8:82:fc:4d:d7:d4:1e:d3:f6:
         58:d7:be:fb:43:4b:25:b2:ff:7c:b4:3e:44:8c:25:1c:c2:24:
         82:60:98:66:30:67:20:3e:aa:5e:0e:e4:18:c2:2d:1d:85:48:
         49:f0:ec:dc:f5:85:38:91:e4:81:6b:d5:0e:5a:4e:97:4c:f1:
         9d:17:25:dc:87:ef:29:f7:67:7b:bb:b3:79:46:35:e8:41:45:
         a7:44:be:e4:ac:5f:d2:0d:75:0a:48:26:ff:0c:d9:58:02:fb:
         0b:a9:23:27:4f:16:e6:75:ff:c4:1d:51:25:83:61:cd:d5:04:
         6a:66:b4:6f:28:4b:3a:c3
-----BEGIN CERTIFICATE-----
MIIGrTCCBJWgAwIBAgICL2AwDQYJKoZIhvcNAQELBQAwgawxCzAJBgNVBAYTAlVT
MQswCQYDVQQIEwJPSDERMA8GA1UEBxMIQ29sdW1idXMxEjAQBgNVBAoTCVZpa2lu
Z1ZQTjEdMBsGA1UECxMUTXlPcmdhbml6YXRpb25hbFVuaXQxFTATBgNVBAMTDFZp
a2luZ1ZQTiBDQTEQMA4GA1UEKRMHRWFzeVJTQTEhMB8GCSqGSIb3DQEJARYSbWVA
bXlob3N0Lm15ZG9tYWluMB4XDTE3MTEyMTE4MzA0OVoXDTI3MTExOTE4MzA0OVow
HzEdMBsGA1UEAxMUQ2xpZW50MzE1OENlcnQ1OGM4MTkwggIiMA0GCSqGSIb3DQEB
AQUAA4ICDwAwggIKAoICAQCePd+pZ3iP4kSIqalgpRo5NbNo9BT8WQ+DmWpvRV1O
o8IbejCpD9FyqOBZVHctyysfMeldQBaKIxadH6IoqYPbcCEI3VdYCE3slr9MYvhN
HUad0qqPJRW4v59zeimGET8UiJhDCtCEW8tFg6MleeKIy5zS/UQIaQ6USQ9a6hRd
h1WJbekREdZUSl8XVFr8eCuCQibs3jdphcL7BAQP6QqqtcH/61Jd4bttWQCIzazp
5uPfTShE/T8WWbu8SxpFDX+uR7IDbrbiUtZzu0y34mE+rUN2VslMkDj6jkalIXGq
i1GwJYwTPf+B31z/FobWOcRRyyMB59XkcEy4kw5YS8Ae5WrVulr8l/yIA/hbvRSe
NFqiqyiOtSEdcdkUT4xdZz8ekDMh1QGQmRiSBeCoaTflD5kbHNUlKoi6TQsdxaV4
HjMODB8NFmA24lQQqfSKDpHCK7lI6vnk4jKJ3K905+D3moeSuqEQyfwfR55GKHMl
Jy4rLBJF2H7WM+cbiep9co4le7BhhblAtkMzcE9vzVn9xJVCPR0bhsooTamqPXsM
bMDOrKL7xxEVSZo3kI4AspUgpAW/jQ53mwzXAcGZ6zdBb5LPgdBlK7ad2tIZFg3g
ArTdYxCmeC7hynYJSr6CNDLf0S2sze4Lv+Y7bwtvtChYmfV52TOONhwOT+BEw/lm
EwIDAQABo4IBYzCCAV8wCQYDVR0TBAIwADAtBglghkgBhvhCAQ0EIBYeRWFzeS1S
U0EgR2VuZXJhdGVkIENlcnRpZmljYXRlMB0GA1UdDgQWBBQf3mTE3RfJ91E8Epzc
Ez8hAmdPWzCB4QYDVR0jBIHZMIHWgBQSzWAE0qCAnnDtxpm4eyzGUv0ZoaGBsqSB
rzCBrDELMAkGA1UEBhMCVVMxCzAJBgNVBAgTAk9IMREwDwYDVQQHEwhDb2x1bWJ1
czESMBAGA1UEChMJVmlraW5nVlBOMR0wGwYDVQQLExRNeU9yZ2FuaXphdGlvbmFs
VW5pdDEVMBMGA1UEAxMMVmlraW5nVlBOIENBMRAwDgYDVQQpEwdFYXN5UlNBMSEw
HwYJKoZIhvcNAQkBFhJtZUBteWhvc3QubXlkb21haW6CCQDPNYXugL8qPjATBgNV
HSUEDDAKBggrBgEFBQcDAjALBgNVHQ8EBAMCB4AwDQYJKoZIhvcNAQELBQADggIB
ADXcZpcJL/Je9o9NZkUmbI0ppz/D77FKFQ5veln0A68Q/CWK2Jb54x7hjgfY3CWj
gBG6nINfqXzOJ5nebr7fU19i/QD1sQ9lu2QnMXnOjI2CsOAJxNgQ+ELH425LpddQ
sM5jt2pbtgUMle5HeYRYOXoSW2SU/irbgfdiV7a4ftyLG6Lm1ym+fDib8TW4PFNJ
V7h6IiNZeEJuTMmiLm6iAGXBP/9fiRifG2QFKqu5Uebixa0EhUOReJB/iXVlm9xb
HE2HTIX+YUDtR27GmI71DKElysRXNxGTKy6imnAdJO6vfbZnqxOu41S7FnwmkuM0
LBrJy+R4zgU5aniL13Wv0uzini/c0FHgM+0C0HOZqTp7DOWCnMJGG4Vit1l07e8e
9JtsuqrHjEJeRjFZy4Kq6NbDc6Qyp3BU9WmvF96nG4X3qMYYiM60AIh1pk2r5ecP
n+x0FvbGBm0svPpiDZPIvIZCbPANBbc8gynr2ulQSHf6t12dvsXCjZXEH7IJ3/T1
vKQ+s7iC/E3X1B7T9ljXvvtDSyWy/3y0PkSMJRzCJIJgmGYwZyA+ql4O5BjCLR2F
SEnw7Nz1hTiR5IFr1Q5aTpdM8Z0XJdyH7yn3Z3u7s3lGNehBRadEvuSsX9INdQpI
Jv8M2VgC+wupIydPFuZ1/8QdUSWDYc3VBGpmtG8oSzrD
-----END CERTIFICATE-----
