Certificate:
    Data:
        Version: 3 (0x2)
        Serial Number: 6947 (0x1b23)
    Signature Algorithm: md5WithRSAEncryption
        Issuer: C=US, ST=OH, L=Columbus, O=VikingVPN, OU=MyOrganizationalUnit, CN=VikingVPN CA/name=EasyRSA/emailAddress=me@myhost.mydomain
        Validity
            Not Before: Dec 24 17:58:46 2015 GMT
            Not After : Dec 21 17:58:46 2025 GMT
        Subject: CN=Client1592Certa09eb6
        Subject Public Key Info:
            Public Key Algorithm: rsaEncryption
                Public-Key: (4096 bit)
                Modulus:
                    00:c5:d4:c7:19:23:92:bc:49:e1:17:fc:76:6c:52:
                    2e:58:1d:04:6a:63:79:f9:de:5f:95:ea:de:09:18:
                    3d:04:9c:c3:95:96:70:76:96:6b:8b:0a:25:01:95:
                    6b:1a:63:d3:6c:96:0c:87:ce:59:49:11:51:87:dd:
                    09:69:a5:68:4a:2c:64:24:c8:7c:9a:1a:cf:4a:3a:
                    91:a1:2a:8c:bf:19:71:b2:ff:66:67:8d:69:6d:23:
                    e0:de:c2:ca:9a:87:89:b7:c6:a1:1d:c0:e9:aa:30:
                    65:00:b5:71:5b:56:6a:b4:17:fa:de:f1:2c:dd:b0:
                    de:2b:58:54:6d:bc:82:63:48:28:5a:1d:77:34:19:
                    5b:4f:0d:66:8f:3b:24:fd:f2:9b:20:b7:9f:5b:f7:
                    aa:6b:58:40:78:b5:25:7c:20:0c:66:ef:34:44:39:
                    81:8d:28:b4:dc:f9:76:e3:9b:5a:a4:3f:9a:ba:9d:
                    a0:55:3e:dd:82:d2:41:72:63:07:4c:eb:e3:05:53:
                    4a:97:0f:bb:4e:08:da:2a:17:a9:cb:57:cc:85:6f:
                    fd:65:ee:af:91:36:de:d1:46:10:b9:90:84:c8:4a:
                    91:90:e7:6e:16:1e:05:23:c6:17:84:14:9e:a9:8e:
                    f1:18:cf:32:99:c5:9f:8d:b9:1a:1e:75:b4:66:4f:
                    b0:89:7a:e9:8e:97:06:46:81:d2:e9:c5:24:c7:55:
                    a4:53:69:94:c8:be:c6:79:d4:0d:eb:b6:a1:c7:0c:
                    90:34:f9:13:55:a3:bd:d7:19:28:da:e3:c9:2d:b8:
                    06:b1:2a:c4:f6:00:f7:5c:dd:11:60:0f:92:58:26:
                    0c:2b:04:dc:0e:88:2d:62:c4:e8:3c:3f:08:a2:13:
                    81:bb:55:0d:b3:a1:be:a5:e5:a6:b3:a0:22:a4:39:
                    76:f3:04:2f:87:09:65:1b:53:71:97:be:37:2c:02:
                    e5:81:9e:09:e2:bc:ed:97:91:40:89:61:fb:d8:02:
                    12:2c:eb:9d:f1:b2:d4:21:f0:7b:7c:c1:eb:f8:19:
                    cc:ef:47:16:e9:e0:29:ac:8d:ae:9c:e6:85:54:18:
                    94:9f:ac:b9:d8:a4:16:6d:db:36:d4:11:f2:e2:52:
                    39:c0:81:0b:b6:71:19:a4:61:59:5e:14:8b:d3:55:
                    5b:69:f9:21:ba:92:66:eb:f8:90:16:57:49:2b:0d:
                    77:de:6a:c8:fd:b7:8b:4d:f6:f2:a2:0e:d1:5e:32:
                    30:fc:25:4e:88:60:bf:b5:9f:d3:a2:c6:df:95:21:
                    18:7a:0a:24:a8:54:f0:3e:23:18:41:5b:38:2e:58:
                    44:1b:89:90:14:1f:4e:91:30:25:22:50:fb:da:85:
                    b7:7d:b1
                Exponent: 65537 (0x10001)
        X509v3 extensions:
            X509v3 Basic Constraints: 
                CA:FALSE
            Netscape Comment: 
                Easy-RSA Generated Certificate
            X509v3 Subject Key Identifier: 
                7F:DA:1F:F3:D1:64:AB:0B:D2:DD:25:23:21:D9:62:E4:04:A1:CF:15
            X509v3 Authority Key Identifier: 
                keyid:12:CD:60:04:D2:A0:80:9E:70:ED:C6:99:B8:7B:2C:C6:52:FD:19:A1
                DirName:/C=US/ST=OH/L=Columbus/O=VikingVPN/OU=MyOrganizationalUnit/CN=VikingVPN CA/name=EasyRSA/emailAddress=me@myhost.mydomain
                serial:CF:35:85:EE:80:BF:2A:3E

            X509v3 Extended Key Usage: 
                TLS Web Client Authentication
            X509v3 Key Usage: 
                Digital Signature
    Signature Algorithm: md5WithRSAEncryption
         37:c3:4f:0b:19:a4:b9:3a:b5:e2:6c:00:06:89:48:5c:8b:d2:
         94:3b:b3:86:00:d5:cd:2c:75:f7:7e:22:b2:6c:1d:9f:fe:95:
         e9:22:73:13:f5:fe:ac:a3:7f:3e:6f:1a:04:4f:97:2f:de:da:
         26:d4:31:c4:a7:8e:2d:5f:90:e2:48:96:6e:75:4b:c8:2e:82:
         3b:94:56:68:b4:cf:40:1a:88:c0:fd:c3:c9:4b:bb:b5:81:fe:
         d3:34:00:a4:66:0d:cb:79:1f:4f:62:3a:0a:07:77:0a:0b:6f:
         10:ff:09:57:7e:33:6f:17:63:2c:41:b2:77:a8:07:8a:77:16:
         e7:0e:a0:fe:cd:83:aa:56:23:dd:2e:fe:70:5b:2f:93:a1:1d:
         1f:b5:f1:eb:28:a5:ff:4b:6b:19:1e:ad:a6:c3:89:9e:78:07:
         da:19:16:41:18:ec:9b:bc:c9:45:a4:36:88:45:4b:50:2a:95:
         9e:08:38:09:88:9b:b3:b7:32:08:cc:fd:de:c5:65:5e:54:65:
         f4:44:15:8d:e3:a5:07:94:2b:3b:af:f4:8c:db:4e:cf:07:b5:
         70:ed:ef:29:f2:ba:1c:33:f1:07:26:ab:09:26:fd:71:44:3d:
         5c:60:c8:26:94:6d:65:e1:2f:a6:8a:88:a4:22:df:65:76:ea:
         e8:dd:c0:72:2e:3d:d9:8d:79:a3:34:d7:dc:dd:d5:3f:2e:0e:
         05:d9:26:25:1d:db:a4:73:44:08:5e:6f:e0:9b:57:24:a9:54:
         35:a2:83:ae:42:f1:9b:e9:cf:fe:c2:35:03:4a:e5:c3:10:16:
         64:38:81:4f:09:aa:46:26:c6:28:0f:b3:94:69:69:5f:68:17:
         6d:58:ff:5e:2b:6f:68:58:f2:02:00:05:8d:53:d2:02:40:83:
         af:49:63:fd:b1:87:20:e7:6f:04:45:19:ac:e8:fd:24:b5:c1:
         18:fb:24:e8:60:0c:e9:42:62:b7:17:d9:44:c9:96:c5:68:97:
         e1:df:3d:de:8f:8f:a2:92:f9:5f:d8:79:89:fb:fe:f9:fd:70:
         42:13:c2:ef:d0:84:59:ae:c3:33:29:80:93:71:8f:8a:4a:ba:
         68:a9:1c:d0:fd:61:24:1d:71:3d:22:a7:5c:1f:1e:90:71:0c:
         a7:a9:ec:71:04:9f:b2:1e:f1:d6:29:94:df:5b:ed:36:ad:ae:
         31:e5:aa:27:9a:ec:c5:43:47:d8:c8:1d:2f:0b:bb:37:5b:de:
         7f:63:94:72:39:ee:e8:73:a0:a8:9d:2e:fd:cf:08:63:8e:af:
         4d:c6:7a:33:4f:4c:72:e7:ec:e4:ee:b6:e9:a9:c2:2b:33:85:
         c3:29:93:20:bf:46:3b:1c
-----BEGIN CERTIFICATE-----
MIIGrTCCBJWgAwIBAgICGyMwDQYJKoZIhvcNAQEEBQAwgawxCzAJBgNVBAYTAlVT
MQswCQYDVQQIEwJPSDERMA8GA1UEBxMIQ29sdW1idXMxEjAQBgNVBAoTCVZpa2lu
Z1ZQTjEdMBsGA1UECxMUTXlPcmdhbml6YXRpb25hbFVuaXQxFTATBgNVBAMTDFZp
a2luZ1ZQTiBDQTEQMA4GA1UEKRMHRWFzeVJTQTEhMB8GCSqGSIb3DQEJARYSbWVA
bXlob3N0Lm15ZG9tYWluMB4XDTE1MTIyNDE3NTg0NloXDTI1MTIyMTE3NTg0Nlow
HzEdMBsGA1UEAxMUQ2xpZW50MTU5MkNlcnRhMDllYjYwggIiMA0GCSqGSIb3DQEB
AQUAA4ICDwAwggIKAoICAQDF1McZI5K8SeEX/HZsUi5YHQRqY3n53l+V6t4JGD0E
nMOVlnB2lmuLCiUBlWsaY9NslgyHzllJEVGH3QlppWhKLGQkyHyaGs9KOpGhKoy/
GXGy/2ZnjWltI+Dewsqah4m3xqEdwOmqMGUAtXFbVmq0F/re8SzdsN4rWFRtvIJj
SChaHXc0GVtPDWaPOyT98psgt59b96prWEB4tSV8IAxm7zREOYGNKLTc+Xbjm1qk
P5q6naBVPt2C0kFyYwdM6+MFU0qXD7tOCNoqF6nLV8yFb/1l7q+RNt7RRhC5kITI
SpGQ524WHgUjxheEFJ6pjvEYzzKZxZ+NuRoedbRmT7CJeumOlwZGgdLpxSTHVaRT
aZTIvsZ51A3rtqHHDJA0+RNVo73XGSja48ktuAaxKsT2APdc3RFgD5JYJgwrBNwO
iC1ixOg8PwiiE4G7VQ2zob6l5aazoCKkOXbzBC+HCWUbU3GXvjcsAuWBngnivO2X
kUCJYfvYAhIs653xstQh8Ht8wev4GczvRxbp4Cmsja6c5oVUGJSfrLnYpBZt2zbU
EfLiUjnAgQu2cRmkYVleFIvTVVtp+SG6kmbr+JAWV0krDXfeasj9t4tN9vKiDtFe
MjD8JU6IYL+1n9Oixt+VIRh6CiSoVPA+IxhBWzguWEQbiZAUH06RMCUiUPvahbd9
sQIDAQABo4IBYzCCAV8wCQYDVR0TBAIwADAtBglghkgBhvhCAQ0EIBYeRWFzeS1S
U0EgR2VuZXJhdGVkIENlcnRpZmljYXRlMB0GA1UdDgQWBBR/2h/z0WSrC9LdJSMh
2WLkBKHPFTCB4QYDVR0jBIHZMIHWgBQSzWAE0qCAnnDtxpm4eyzGUv0ZoaGBsqSB
rzCBrDELMAkGA1UEBhMCVVMxCzAJBgNVBAgTAk9IMREwDwYDVQQHEwhDb2x1bWJ1
czESMBAGA1UEChMJVmlraW5nVlBOMR0wGwYDVQQLExRNeU9yZ2FuaXphdGlvbmFs
VW5pdDEVMBMGA1UEAxMMVmlraW5nVlBOIENBMRAwDgYDVQQpEwdFYXN5UlNBMSEw
HwYJKoZIhvcNAQkBFhJtZUBteWhvc3QubXlkb21haW6CCQDPNYXugL8qPjATBgNV
HSUEDDAKBggrBgEFBQcDAjALBgNVHQ8EBAMCB4AwDQYJKoZIhvcNAQEEBQADggIB
ADfDTwsZpLk6teJsAAaJSFyL0pQ7s4YA1c0sdfd+IrJsHZ/+lekicxP1/qyjfz5v
GgRPly/e2ibUMcSnji1fkOJIlm51S8gugjuUVmi0z0AaiMD9w8lLu7WB/tM0AKRm
Dct5H09iOgoHdwoLbxD/CVd+M28XYyxBsneoB4p3FucOoP7Ng6pWI90u/nBbL5Oh
HR+18esopf9LaxkerabDiZ54B9oZFkEY7Ju8yUWkNohFS1AqlZ4IOAmIm7O3MgjM
/d7FZV5UZfREFY3jpQeUKzuv9IzbTs8HtXDt7ynyuhwz8Qcmqwkm/XFEPVxgyCaU
bWXhL6aKiKQi32V26ujdwHIuPdmNeaM019zd1T8uDgXZJiUd26RzRAheb+CbVySp
VDWig65C8Zvpz/7CNQNK5cMQFmQ4gU8JqkYmxigPs5RpaV9oF21Y/14rb2hY8gIA
BY1T0gJAg69JY/2xhyDnbwRFGazo/SS1wRj7JOhgDOlCYrcX2UTJlsVol+HfPd6P
j6KS+V/YeYn7/vn9cEITwu/QhFmuwzMpgJNxj4pKumipHND9YSQdcT0ip1wfHpBx
DKep7HEEn7Ie8dYplN9b7TatrjHlqiea7MVDR9jIHS8Luzdb3n9jlHI57uhzoKid
Lv3PCGOOr03GejNPTHLn7OTutumpwiszhcMpkyC/Rjsc
-----END CERTIFICATE-----
