Certificate:
    Data:
        Version: 3 (0x2)
        Serial Number: 1134 (0x46e)
    Signature Algorithm: md5WithRSAEncryption
        Issuer: C=US, ST=OH, L=Columbus, O=VikingVPN, OU=MyOrganizationalUnit, CN=VikingVPN CA/name=EasyRSA/emailAddress=me@myhost.mydomain
        Validity
            Not Before: Feb 23 12:01:03 2014 GMT
            Not After : Feb 21 12:01:03 2024 GMT
        Subject: CN=Client414Certbdd493
        Subject Public Key Info:
            Public Key Algorithm: rsaEncryption
                Public-Key: (4096 bit)
                Modulus:
                    00:ab:0b:f0:ba:57:50:61:df:cb:2f:56:95:c3:06:
                    06:e0:23:25:2a:09:a7:4b:46:5d:35:85:47:ec:1f:
                    27:d9:01:df:ca:a9:f9:32:43:8b:57:75:64:f7:d3:
                    78:31:46:44:d7:b4:5f:30:ed:39:99:4d:1f:c8:98:
                    d2:cb:a8:c5:f6:78:c5:12:c6:9d:8a:ad:39:d0:83:
                    22:b1:4d:ab:eb:51:26:c9:f6:de:cb:27:1b:96:15:
                    3c:0d:b1:e5:ed:f0:e4:61:d9:41:27:ef:f8:bc:c0:
                    95:46:81:61:6f:73:89:38:6b:01:96:53:67:2e:18:
                    7d:33:27:ba:85:f3:00:60:92:d7:96:a6:4f:70:4c:
                    53:8b:19:c8:49:ff:77:cd:46:b9:49:ba:65:7d:55:
                    2b:ca:f0:78:78:13:12:ac:f6:16:ad:40:ec:77:ac:
                    7e:2d:6b:1b:cf:3a:f7:20:ab:2a:92:fb:a1:6e:2f:
                    c8:05:79:c4:29:01:9a:42:62:ea:6f:85:7b:98:c8:
                    08:35:81:f1:12:df:74:2a:55:18:58:cc:b7:b6:bd:
                    8c:c4:7a:18:09:99:cf:b2:03:b9:a0:17:34:24:cc:
                    fd:ec:05:48:9c:52:88:89:44:7f:df:e7:28:7c:0a:
                    e1:94:fb:69:71:c9:cb:aa:07:a7:39:b9:f6:88:aa:
                    58:6e:3a:ea:2d:93:a7:51:23:59:b7:32:db:45:fa:
                    df:29:ae:0f:27:f0:46:f5:01:03:ab:db:88:a1:5d:
                    25:b9:0a:2d:4f:54:c7:4b:90:23:4f:8b:8e:bd:d6:
                    c6:16:ee:9e:97:07:1c:6b:1a:ad:5b:5f:ae:4a:ab:
                    8c:9d:5c:a9:2c:31:19:29:71:04:63:bc:b3:00:93:
                    a0:ba:b8:80:42:d0:e5:10:fc:8b:f0:7a:c4:ea:ef:
                    61:d6:4a:10:c5:9e:94:b8:82:3e:13:5b:52:ac:ad:
                    6b:8c:09:b3:51:6c:4d:ac:53:2a:45:ec:36:94:7e:
                    11:f9:ac:49:f7:4d:02:8a:a9:0b:4b:de:53:17:3c:
                    5d:c9:09:d4:f8:d8:b9:87:6c:07:8e:78:97:a9:fd:
                    0d:98:5a:0f:15:47:fe:e9:17:91:3a:56:70:9e:26:
                    48:f4:b1:b5:00:fc:d5:9b:7c:66:f2:a6:06:0b:9c:
                    cb:75:ca:2f:5e:53:e2:7a:0a:eb:3b:0e:78:c6:5b:
                    e6:9e:d2:04:60:d4:3c:24:fc:35:c3:1a:ed:7c:06:
                    a2:65:e8:83:6c:db:a5:18:67:c6:6e:35:60:e5:2d:
                    7f:d7:21:f1:04:80:62:78:42:d1:9b:ae:ae:7d:f8:
                    42:34:a7:f0:1d:81:1c:5a:cc:29:85:9c:be:56:03:
                    62:be:75
                Exponent: 65537 (0x10001)
        X509v3 extensions:
            X509v3 Basic Constraints: 
                CA:FALSE
            Netscape Comment: 
                Easy-RSA Generated Certificate
            X509v3 Subject Key Identifier: 
                DA:56:DE:CF:7E:17:07:51:CA:A1:36:BE:21:63:81:89:5A:6F:6B:90
            X509v3 Authority Key Identifier: 
                keyid:12:CD:60:04:D2:A0:80:9E:70:ED:C6:99:B8:7B:2C:C6:52:FD:19:A1
                DirName:/C=US/ST=OH/L=Columbus/O=VikingVPN/OU=MyOrganizationalUnit/CN=VikingVPN CA/name=EasyRSA/emailAddress=me@myhost.mydomain
                serial:CF:35:85:EE:80:BF:2A:3E

            X509v3 Extended Key Usage: 
                TLS Web Client Authentication
            X509v3 Key Usage: 
                Digital Signature
    Signature Algorithm: md5WithRSAEncryption
         5c:98:29:5c:32:8d:8a:7a:cc:5e:c5:68:16:3b:c9:7b:44:73:
         9a:b2:6e:b7:a6:79:c5:e7:b5:10:2c:6d:96:e5:52:a3:06:aa:
         45:fe:a1:2c:84:a6:71:41:2c:dd:34:07:4a:52:34:c3:d3:05:
         e5:c9:1a:1f:5d:a5:bd:89:90:45:cf:40:8a:69:cd:95:9c:d5:
         02:df:c3:36:78:07:4d:52:39:9b:7d:70:34:4c:b1:d4:76:30:
         7b:f6:cf:7c:98:3f:ae:b2:f5:a1:9e:30:08:4a:be:56:cd:36:
         fb:23:96:6a:fd:45:90:22:31:8b:fb:39:e6:73:a1:be:d6:5b:
         31:3d:b2:cc:3c:c5:1c:bd:1f:a0:eb:68:97:ac:23:82:34:3e:
         52:a9:6f:dd:17:0b:d2:e8:98:b7:b9:b4:43:88:39:10:fa:8a:
         9b:4d:32:9e:b3:b7:60:11:42:e7:66:72:e4:bd:34:f4:bf:e9:
         19:b2:53:fb:4d:94:56:dc:1d:c4:c3:ff:f3:f0:3e:18:c6:0e:
         c2:48:35:eb:db:a6:c4:7c:db:37:db:29:0e:cc:fb:ff:dd:88:
         8f:ab:1d:3f:8f:3c:40:9c:eb:de:9b:ad:97:f7:ab:a0:14:d8:
         a7:7f:09:b3:e3:4d:42:b4:db:e6:06:83:85:71:4d:64:47:73:
         27:e4:06:fe:34:6d:ad:81:fe:61:4f:1e:1d:85:93:13:a4:5e:
         8c:f3:e2:95:f5:94:c1:ce:4b:6c:57:52:a9:dc:d5:69:4a:0f:
         c3:0d:a6:4d:f1:b3:ad:15:92:ee:81:d8:c9:5d:d9:7f:4b:f9:
         49:0c:c6:3c:c6:36:f0:3d:46:0d:ac:22:11:f2:cb:52:76:93:
         47:f0:07:8c:0f:0e:0d:7e:0d:f4:37:e6:f3:39:3b:9b:e7:61:
         2d:b7:ee:8b:29:f5:e1:9a:83:4a:ee:ea:b3:da:e3:21:ac:b2:
         68:f4:52:46:b5:bc:b4:40:21:9c:70:3b:f6:8f:d7:14:cb:37:
         e3:28:99:91:9d:53:f9:1c:4c:a8:60:43:0d:94:d8:82:b1:73:
         0e:eb:0d:8c:7e:86:c2:ee:65:24:d9:a8:74:01:67:79:05:2f:
         d2:4b:89:ea:fd:86:d9:bd:42:7b:1e:47:24:9d:09:bc:4e:27:
         ce:05:16:fc:76:57:1e:70:46:26:f6:c0:58:98:05:50:aa:c0:
         8d:32:50:f5:c9:df:9f:6f:f3:d0:1d:9f:61:ed:74:ed:7d:7d:
         bf:e6:0d:2d:df:6b:f2:35:e3:a1:4f:76:fa:32:e9:77:27:1f:
         4c:f8:97:a8:4a:5c:5f:a9:3e:c5:23:97:42:56:66:e7:39:4c:
         f0:c6:2e:90:a6:3f:e7:6e
-----BEGIN CERTIFICATE-----
MIIGrDCCBJSgAwIBAgICBG4wDQYJKoZIhvcNAQEEBQAwgawxCzAJBgNVBAYTAlVT
MQswCQYDVQQIEwJPSDERMA8GA1UEBxMIQ29sdW1idXMxEjAQBgNVBAoTCVZpa2lu
Z1ZQTjEdMBsGA1UECxMUTXlPcmdhbml6YXRpb25hbFVuaXQxFTATBgNVBAMTDFZp
a2luZ1ZQTiBDQTEQMA4GA1UEKRMHRWFzeVJTQTEhMB8GCSqGSIb3DQEJARYSbWVA
bXlob3N0Lm15ZG9tYWluMB4XDTE0MDIyMzEyMDEwM1oXDTI0MDIyMTEyMDEwM1ow
HjEcMBoGA1UEAxMTQ2xpZW50NDE0Q2VydGJkZDQ5MzCCAiIwDQYJKoZIhvcNAQEB
BQADggIPADCCAgoCggIBAKsL8LpXUGHfyy9WlcMGBuAjJSoJp0tGXTWFR+wfJ9kB
38qp+TJDi1d1ZPfTeDFGRNe0XzDtOZlNH8iY0suoxfZ4xRLGnYqtOdCDIrFNq+tR
Jsn23ssnG5YVPA2x5e3w5GHZQSfv+LzAlUaBYW9ziThrAZZTZy4YfTMnuoXzAGCS
15amT3BMU4sZyEn/d81GuUm6ZX1VK8rweHgTEqz2Fq1A7Hesfi1rG8869yCrKpL7
oW4vyAV5xCkBmkJi6m+Fe5jICDWB8RLfdCpVGFjMt7a9jMR6GAmZz7IDuaAXNCTM
/ewFSJxSiIlEf9/nKHwK4ZT7aXHJy6oHpzm59oiqWG466i2Tp1EjWbcy20X63ymu
DyfwRvUBA6vbiKFdJbkKLU9Ux0uQI0+Ljr3WxhbunpcHHGsarVtfrkqrjJ1cqSwx
GSlxBGO8swCToLq4gELQ5RD8i/B6xOrvYdZKEMWelLiCPhNbUqyta4wJs1FsTaxT
KkXsNpR+EfmsSfdNAoqpC0veUxc8XckJ1PjYuYdsB454l6n9DZhaDxVH/ukXkTpW
cJ4mSPSxtQD81Zt8ZvKmBgucy3XKL15T4noK6zsOeMZb5p7SBGDUPCT8NcMa7XwG
omXog2zbpRhnxm41YOUtf9ch8QSAYnhC0Zuurn34QjSn8B2BHFrMKYWcvlYDYr51
AgMBAAGjggFjMIIBXzAJBgNVHRMEAjAAMC0GCWCGSAGG+EIBDQQgFh5FYXN5LVJT
QSBHZW5lcmF0ZWQgQ2VydGlmaWNhdGUwHQYDVR0OBBYEFNpW3s9+FwdRyqE2viFj
gYlab2uQMIHhBgNVHSMEgdkwgdaAFBLNYATSoICecO3Gmbh7LMZS/RmhoYGypIGv
MIGsMQswCQYDVQQGEwJVUzELMAkGA1UECBMCT0gxETAPBgNVBAcTCENvbHVtYnVz
MRIwEAYDVQQKEwlWaWtpbmdWUE4xHTAbBgNVBAsTFE15T3JnYW5pemF0aW9uYWxV
bml0MRUwEwYDVQQDEwxWaWtpbmdWUE4gQ0ExEDAOBgNVBCkTB0Vhc3lSU0ExITAf
BgkqhkiG9w0BCQEWEm1lQG15aG9zdC5teWRvbWFpboIJAM81he6Avyo+MBMGA1Ud
JQQMMAoGCCsGAQUFBwMCMAsGA1UdDwQEAwIHgDANBgkqhkiG9w0BAQQFAAOCAgEA
XJgpXDKNinrMXsVoFjvJe0RzmrJut6Z5xee1ECxtluVSowaqRf6hLISmcUEs3TQH
SlI0w9MF5ckaH12lvYmQRc9AimnNlZzVAt/DNngHTVI5m31wNEyx1HYwe/bPfJg/
rrL1oZ4wCEq+Vs02+yOWav1FkCIxi/s55nOhvtZbMT2yzDzFHL0foOtol6wjgjQ+
Uqlv3RcL0uiYt7m0Q4g5EPqKm00ynrO3YBFC52Zy5L009L/pGbJT+02UVtwdxMP/
8/A+GMYOwkg169umxHzbN9spDsz7/92Ij6sdP488QJzr3putl/eroBTYp38Js+NN
QrTb5gaDhXFNZEdzJ+QG/jRtrYH+YU8eHYWTE6RejPPilfWUwc5LbFdSqdzVaUoP
ww2mTfGzrRWS7oHYyV3Zf0v5SQzGPMY28D1GDawiEfLLUnaTR/AHjA8ODX4N9Dfm
8zk7m+dhLbfuiyn14ZqDSu7qs9rjIayyaPRSRrW8tEAhnHA79o/XFMs34yiZkZ1T
+RxMqGBDDZTYgrFzDusNjH6Gwu5lJNmodAFneQUv0kuJ6v2G2b1Cex5HJJ0JvE4n
zgUW/HZXHnBGJvbAWJgFUKrAjTJQ9cnfn2/z0B2fYe107X19v+YNLd9r8jXjoU92
+jLpdycfTPiXqEpcX6k+xSOXQlZm5zlM8MYukKY/524=
-----END CERTIFICATE-----
