Certificate:
    Data:
        Version: 3 (0x2)
        Serial Number: 9082 (0x237a)
    Signature Algorithm: sha256WithRSAEncryption
        Issuer: C=US, ST=OH, L=Columbus, O=VikingVPN, OU=MyOrganizationalUnit, CN=VikingVPN CA/name=EasyRSA/emailAddress=me@myhost.mydomain
        Validity
            Not Before: Sep 22 11:31:53 2016 GMT
            Not After : Sep 20 11:31:53 2026 GMT
        Subject: CN=Client2510Cert51e9ad
        Subject Public Key Info:
            Public Key Algorithm: rsaEncryption
                Public-Key: (4096 bit)
                Modulus:
                    00:9d:66:25:4f:ec:a4:8f:a3:70:8a:21:92:69:93:
                    1a:8c:94:71:03:b5:25:ae:01:c2:52:b9:c5:79:49:
                    c2:a9:93:18:ac:16:5c:31:bf:c8:ba:a9:31:7b:e6:
                    47:9e:cd:aa:b9:86:54:28:ed:bf:87:92:34:94:53:
                    ae:05:c5:df:75:f6:27:3d:17:29:02:d6:2e:6a:c8:
                    5e:9c:fa:0d:58:ad:ca:bc:68:22:e6:94:9f:4a:76:
                    e0:6a:4d:8b:32:88:58:5b:fd:1f:85:d4:2b:d0:0f:
                    e7:a2:42:7a:ed:cd:45:b8:68:c1:8b:33:b6:65:7b:
                    29:37:6d:90:47:e8:83:7a:6a:24:02:54:31:c4:71:
                    b1:1f:56:d1:48:cc:a6:d9:18:b7:50:61:bc:44:cc:
                    41:6c:e8:2e:c1:f1:11:70:70:da:58:e0:9e:9b:07:
                    03:5c:74:80:b6:f5:d9:fb:f9:43:cf:91:6b:3e:75:
                    66:31:06:c1:83:0c:cf:77:d3:ff:c3:00:0b:2d:55:
                    00:d1:23:dd:30:af:74:f6:11:bd:f1:ed:cd:75:5f:
                    79:22:29:af:f2:f9:ef:1a:43:9c:93:87:99:1c:21:
                    a2:51:68:f8:c4:dd:71:e2:f8:eb:4c:ab:40:4e:45:
                    4c:c5:93:66:bb:78:cb:2c:cf:10:7d:47:d6:6f:95:
                    92:cf:15:e2:65:7d:ff:45:4e:a0:6b:0e:00:4a:49:
                    75:a0:8b:e1:1c:b2:38:48:1e:c4:91:a5:25:38:46:
                    c3:eb:02:b5:13:d5:1f:02:98:f1:26:c9:c9:ca:9d:
                    d3:5f:ea:21:6b:01:20:90:a5:69:ac:c7:ba:04:8b:
                    7c:bc:11:ba:61:5a:69:b1:9f:04:ac:61:f6:a2:f2:
                    8c:4e:81:68:20:a7:8d:01:44:87:fb:36:e7:3e:e2:
                    8d:bb:37:81:9f:37:1e:da:24:9c:6c:64:b0:16:56:
                    cf:fd:aa:ae:77:a7:de:42:31:38:cd:61:c0:58:e5:
                    a1:7b:c4:3e:63:7e:f1:5e:37:98:51:11:54:16:90:
                    86:a7:24:c1:82:6f:40:dc:89:54:98:2d:28:da:a4:
                    27:9f:2f:1d:32:79:fe:c1:e2:e1:56:26:7e:bb:4f:
                    35:62:3d:39:22:0e:e3:cf:16:e7:86:e7:c6:60:39:
                    2d:d9:89:6f:3a:30:c5:76:38:6e:47:87:c0:77:9b:
                    37:2c:da:88:fc:cc:1f:e1:6e:35:fb:c9:81:be:a5:
                    42:e0:c6:b2:2e:c3:ee:96:f7:96:18:74:2a:c5:0e:
                    b1:e2:74:ed:17:68:ec:d7:03:dc:1f:ac:07:d7:bc:
                    b8:23:e1:4d:0f:02:c1:81:1e:26:b2:3f:f1:7f:93:
                    fe:36:01
                Exponent: 65537 (0x10001)
        X509v3 extensions:
            X509v3 Basic Constraints: 
                CA:FALSE
            Netscape Comment: 
                Easy-RSA Generated Certificate
            X509v3 Subject Key Identifier: 
                63:AE:73:0C:B5:05:F0:96:F6:59:64:5F:62:78:1C:D1:2C:30:79:A6
            X509v3 Authority Key Identifier: 
                keyid:12:CD:60:04:D2:A0:80:9E:70:ED:C6:99:B8:7B:2C:C6:52:FD:19:A1
                DirName:/C=US/ST=OH/L=Columbus/O=VikingVPN/OU=MyOrganizationalUnit/CN=VikingVPN CA/name=EasyRSA/emailAddress=me@myhost.mydomain
                serial:CF:35:85:EE:80:BF:2A:3E

            X509v3 Extended Key Usage: 
                TLS Web Client Authentication
            X509v3 Key Usage: 
                Digital Signature
    Signature Algorithm: sha256WithRSAEncryption
         18:14:c5:b5:4f:c6:93:ed:bc:1f:7d:46:16:18:bb:6b:9c:ff:
         e1:39:2c:85:77:8c:9c:56:5b:ed:44:b0:e7:c2:07:80:db:01:
         ce:93:78:cb:e0:9d:db:b1:8c:fb:a3:01:32:81:54:eb:39:ac:
         40:03:a6:95:63:4b:d5:04:e3:f2:61:77:34:3d:3c:ab:5f:11:
         1a:3c:1d:de:b6:b7:4e:6b:1e:10:66:2e:ec:8e:3e:e4:a0:d5:
         eb:31:18:c4:04:00:22:91:10:c7:80:05:48:be:d7:7f:fb:e0:
         73:b1:9a:5c:5a:9d:cc:27:3a:6d:20:be:95:aa:22:a3:15:10:
         6d:6e:09:5f:e6:f7:d6:24:31:00:0c:cd:57:a3:49:3b:81:4b:
         e3:f0:74:a4:7c:6e:e4:a6:14:a4:f0:5f:24:0f:eb:bc:44:98:
         17:ab:3a:35:e1:e4:0c:b2:1b:89:2c:4d:e1:aa:f9:e2:df:48:
         33:6b:50:51:be:b3:4e:d7:6c:0a:b0:ee:ce:0c:7f:d8:e9:62:
         34:18:d6:ca:68:0d:6d:88:6c:c7:0b:30:24:22:c1:f1:a0:d3:
         ce:b6:87:6e:87:73:91:95:08:8d:ba:d8:df:8f:b7:28:20:0c:
         05:cc:fc:bd:58:7d:65:86:ae:40:6f:8a:74:36:2f:0c:c6:53:
         b5:20:d3:3c:fb:13:6b:bb:80:8a:99:e2:2b:3d:c1:0e:80:24:
         cd:82:8b:ce:fc:25:b2:22:09:9b:8a:70:ad:72:37:a3:19:62:
         f4:5d:64:10:df:f1:87:80:a8:c5:c5:e6:ee:14:27:78:29:14:
         74:bf:49:99:6e:99:3b:bf:b2:f1:9d:12:06:0b:db:a8:1f:53:
         58:50:3d:e7:2e:c0:41:6f:a9:fa:1f:61:02:ae:1f:af:81:cc:
         09:f8:de:5a:68:86:87:c9:81:a3:74:27:83:1d:6d:32:52:c6:
         3a:07:f1:8d:b7:87:62:b6:d8:97:2b:b1:81:d1:be:9c:46:cb:
         58:9e:d8:bb:3a:9b:70:0b:cf:63:b5:54:10:c3:ac:05:84:2c:
         65:8a:c6:4e:4c:75:5d:c3:48:f8:f3:e5:44:3a:12:d2:2a:9b:
         fd:b8:ed:c4:77:8f:84:4f:f9:8e:36:76:65:65:20:df:6d:0b:
         2f:b2:de:0b:37:5b:ad:97:d4:44:b7:b8:42:8d:47:da:0c:c5:
         11:3b:96:fe:74:7a:43:60:f8:09:cb:1a:b9:46:d5:bf:56:fe:
         6a:07:94:b6:f0:df:80:ec:03:a9:e8:65:19:72:3a:eb:02:07:
         f7:95:c9:93:80:41:db:0c:c6:89:8a:59:0e:33:bb:08:73:90:
         31:f4:06:10:bd:f9:06:7c
-----BEGIN CERTIFICATE-----
MIIGrTCCBJWgAwIBAgICI3owDQYJKoZIhvcNAQELBQAwgawxCzAJBgNVBAYTAlVT
MQswCQYDVQQIEwJPSDERMA8GA1UEBxMIQ29sdW1idXMxEjAQBgNVBAoTCVZpa2lu
Z1ZQTjEdMBsGA1UECxMUTXlPcmdhbml6YXRpb25hbFVuaXQxFTATBgNVBAMTDFZp
a2luZ1ZQTiBDQTEQMA4GA1UEKRMHRWFzeVJTQTEhMB8GCSqGSIb3DQEJARYSbWVA
bXlob3N0Lm15ZG9tYWluMB4XDTE2MDkyMjExMzE1M1oXDTI2MDkyMDExMzE1M1ow
HzEdMBsGA1UEAxMUQ2xpZW50MjUxMENlcnQ1MWU5YWQwggIiMA0GCSqGSIb3DQEB
AQUAA4ICDwAwggIKAoICAQCdZiVP7KSPo3CKIZJpkxqMlHEDtSWuAcJSucV5ScKp
kxisFlwxv8i6qTF75keezaq5hlQo7b+HkjSUU64Fxd919ic9FykC1i5qyF6c+g1Y
rcq8aCLmlJ9KduBqTYsyiFhb/R+F1CvQD+eiQnrtzUW4aMGLM7Zleyk3bZBH6IN6
aiQCVDHEcbEfVtFIzKbZGLdQYbxEzEFs6C7B8RFwcNpY4J6bBwNcdIC29dn7+UPP
kWs+dWYxBsGDDM930//DAAstVQDRI90wr3T2Eb3x7c11X3kiKa/y+e8aQ5yTh5kc
IaJRaPjE3XHi+OtMq0BORUzFk2a7eMsszxB9R9ZvlZLPFeJlff9FTqBrDgBKSXWg
i+EcsjhIHsSRpSU4RsPrArUT1R8CmPEmycnKndNf6iFrASCQpWmsx7oEi3y8Ebph
WmmxnwSsYfai8oxOgWggp40BRIf7Nuc+4o27N4GfNx7aJJxsZLAWVs/9qq53p95C
MTjNYcBY5aF7xD5jfvFeN5hREVQWkIanJMGCb0DciVSYLSjapCefLx0yef7B4uFW
Jn67TzViPTkiDuPPFueG58ZgOS3ZiW86MMV2OG5Hh8B3mzcs2oj8zB/hbjX7yYG+
pULgxrIuw+6W95YYdCrFDrHidO0XaOzXA9wfrAfXvLgj4U0PAsGBHiayP/F/k/42
AQIDAQABo4IBYzCCAV8wCQYDVR0TBAIwADAtBglghkgBhvhCAQ0EIBYeRWFzeS1S
U0EgR2VuZXJhdGVkIENlcnRpZmljYXRlMB0GA1UdDgQWBBRjrnMMtQXwlvZZZF9i
eBzRLDB5pjCB4QYDVR0jBIHZMIHWgBQSzWAE0qCAnnDtxpm4eyzGUv0ZoaGBsqSB
rzCBrDELMAkGA1UEBhMCVVMxCzAJBgNVBAgTAk9IMREwDwYDVQQHEwhDb2x1bWJ1
czESMBAGA1UEChMJVmlraW5nVlBOMR0wGwYDVQQLExRNeU9yZ2FuaXphdGlvbmFs
VW5pdDEVMBMGA1UEAxMMVmlraW5nVlBOIENBMRAwDgYDVQQpEwdFYXN5UlNBMSEw
HwYJKoZIhvcNAQkBFhJtZUBteWhvc3QubXlkb21haW6CCQDPNYXugL8qPjATBgNV
HSUEDDAKBggrBgEFBQcDAjALBgNVHQ8EBAMCB4AwDQYJKoZIhvcNAQELBQADggIB
ABgUxbVPxpPtvB99RhYYu2uc/+E5LIV3jJxWW+1EsOfCB4DbAc6TeMvgnduxjPuj
ATKBVOs5rEADppVjS9UE4/JhdzQ9PKtfERo8Hd62t05rHhBmLuyOPuSg1esxGMQE
ACKREMeABUi+13/74HOxmlxancwnOm0gvpWqIqMVEG1uCV/m99YkMQAMzVejSTuB
S+PwdKR8buSmFKTwXyQP67xEmBerOjXh5AyyG4ksTeGq+eLfSDNrUFG+s07XbAqw
7s4Mf9jpYjQY1spoDW2IbMcLMCQiwfGg0862h26Hc5GVCI262N+PtyggDAXM/L1Y
fWWGrkBvinQ2LwzGU7Ug0zz7E2u7gIqZ4is9wQ6AJM2Ci878JbIiCZuKcK1yN6MZ
YvRdZBDf8YeAqMXF5u4UJ3gpFHS/SZlumTu/svGdEgYL26gfU1hQPecuwEFvqfof
YQKuH6+BzAn43lpohofJgaN0J4MdbTJSxjoH8Y23h2K22JcrsYHRvpxGy1ie2Ls6
m3ALz2O1VBDDrAWELGWKxk5MdV3DSPjz5UQ6EtIqm/247cR3j4RP+Y42dmVlIN9t
Cy+y3gs3W62X1ES3uEKNR9oMxRE7lv50ekNg+AnLGrlG1b9W/moHlLbw34DsA6no
ZRlyOusCB/eVyZOAQdsMxomKWQ4zuwhzkDH0BhC9+QZ8
-----END CERTIFICATE-----
