Certificate:
    Data:
        Version: 3 (0x2)
        Serial Number: 360 (0x168)
    Signature Algorithm: md5WithRSAEncryption
        Issuer: C=US, ST=OH, L=Columbus, O=VikingVPN, OU=MyOrganizationalUnit, CN=VikingVPN CA/name=EasyRSA/emailAddress=me@myhost.mydomain
        Validity
            Not Before: Oct 30 09:24:03 2013 GMT
            Not After : Oct 28 09:24:03 2023 GMT
        Subject: CN=Client158Cert97f2cc
        Subject Public Key Info:
            Public Key Algorithm: rsaEncryption
                Public-Key: (4096 bit)
                Modulus:
                    00:dc:73:b9:46:8a:6b:8e:6d:05:5f:26:9a:83:5b:
                    41:2b:b5:dc:be:66:c4:72:dd:7a:a0:7b:4e:fd:61:
                    a6:82:4a:97:d1:18:6e:1e:61:8c:06:c4:8a:82:34:
                    a1:3c:90:ba:4e:c9:90:a4:29:ed:59:ed:0d:d4:5c:
                    7d:c8:3d:c0:02:bc:62:a1:ea:6a:f9:00:8c:08:7c:
                    8e:48:aa:04:bf:d3:8d:f8:71:5a:57:17:ab:bf:d9:
                    97:ad:b7:bd:1e:42:26:64:68:f4:e6:93:f3:43:34:
                    96:65:0b:ed:f9:ec:44:f9:47:56:ae:36:56:ec:c9:
                    af:20:dc:3a:6c:89:e5:f4:3c:5d:e0:af:a8:72:d1:
                    47:e6:c7:40:b9:94:df:29:7f:a6:96:9d:1f:b1:c6:
                    d0:ac:05:59:e8:12:f0:f7:97:d4:b4:80:4b:b6:11:
                    bf:bb:6d:1b:43:b1:2f:de:d1:67:8f:56:bf:d9:a6:
                    7e:4f:25:84:3f:47:c4:d9:26:a4:5f:fa:ba:b7:e7:
                    d2:2b:9c:95:ac:3a:52:a1:68:3a:f1:de:34:05:af:
                    73:2e:20:2b:25:c5:84:86:1a:06:49:34:f3:92:7e:
                    f9:a2:c2:d2:8c:0b:16:ed:24:83:e2:1e:d6:2b:75:
                    7b:63:ac:aa:46:0d:f5:d1:be:e4:eb:b0:bc:0c:9c:
                    28:1e:d4:9f:8b:4d:c8:c0:48:dc:68:f4:71:aa:be:
                    fe:f1:79:86:7c:97:13:07:48:1a:e7:df:c5:d9:fb:
                    aa:3c:0a:7f:f6:4b:0a:5e:51:23:32:0e:36:dd:47:
                    8d:f6:8e:db:0f:d1:16:2a:50:9e:5a:35:60:67:4e:
                    c6:a6:a5:65:12:a9:b2:04:b1:ac:7b:16:85:40:71:
                    9b:93:02:7b:77:2a:f3:47:52:54:06:be:54:d6:2b:
                    68:c1:f2:4d:90:71:6a:bf:04:32:d4:f4:0f:ad:c8:
                    6c:e9:13:66:45:0f:72:47:b9:bd:40:7f:9c:84:12:
                    ed:f0:2a:49:d5:2e:2b:d6:d7:e6:4d:fb:5d:97:3c:
                    0b:6d:37:53:f6:53:7e:df:5a:95:21:f3:60:62:c9:
                    a8:fe:f8:e6:8f:3b:04:1a:65:91:87:43:d8:0f:7f:
                    bd:c7:3a:b1:04:a9:ff:d7:e6:ff:39:d1:4b:d9:00:
                    c4:73:42:8f:99:55:0f:66:fd:81:f1:91:c3:ef:b2:
                    ce:8c:b4:8a:e6:9b:40:09:9a:21:26:85:5e:d9:10:
                    58:ac:8a:52:5c:fa:b9:1d:81:51:43:e9:0f:c7:06:
                    13:bf:d5:44:a3:38:d1:ac:39:e3:f4:4b:54:30:6f:
                    60:c9:67:6d:23:f3:6d:f3:86:8e:c0:bc:22:5f:17:
                    02:91:d3
                Exponent: 65537 (0x10001)
        X509v3 extensions:
            X509v3 Basic Constraints: 
                CA:FALSE
            Netscape Comment: 
                Easy-RSA Generated Certificate
            X509v3 Subject Key Identifier: 
                A3:08:93:9E:80:4E:FE:9D:57:0E:28:28:06:A5:BE:20:60:13:1D:B7
            X509v3 Authority Key Identifier: 
                keyid:12:CD:60:04:D2:A0:80:9E:70:ED:C6:99:B8:7B:2C:C6:52:FD:19:A1
                DirName:/C=US/ST=OH/L=Columbus/O=VikingVPN/OU=MyOrganizationalUnit/CN=VikingVPN CA/name=EasyRSA/emailAddress=me@myhost.mydomain
                serial:CF:35:85:EE:80:BF:2A:3E

            X509v3 Extended Key Usage: 
                TLS Web Client Authentication
            X509v3 Key Usage: 
                Digital Signature
    Signature Algorithm: md5WithRSAEncryption
         d1:7d:93:51:33:27:06:14:50:73:92:36:b2:e1:a6:00:a2:f4:
         e4:b3:75:be:52:fb:81:b7:16:46:01:80:12:00:fd:b3:94:e8:
         a1:8f:7d:0e:b2:29:f9:6b:ac:67:84:b2:15:f9:4d:46:ad:c8:
         ea:99:78:ab:47:54:5c:f7:cc:ff:36:47:6b:6b:7e:71:01:66:
         1a:82:34:bf:65:07:47:b9:82:b6:9a:8b:9e:cc:17:85:c3:8b:
         e7:c1:1e:4b:3b:0e:23:9b:7a:8a:5f:a1:ae:8c:04:a7:2f:01:
         cf:01:77:e8:45:dc:17:83:d3:8d:24:83:85:22:97:fc:ec:c4:
         39:bd:de:cc:fa:41:b1:3a:b1:75:9d:c7:02:1a:b0:78:6f:d3:
         19:b2:ca:f9:2c:a2:4a:ac:87:4d:59:c0:2c:bc:ab:21:87:70:
         6b:9c:be:94:44:1c:72:51:5f:dc:f2:d3:14:6b:0b:c0:8a:c9:
         c7:d7:3a:ce:29:3c:55:a2:d0:19:3c:b8:d4:a1:35:25:d4:7b:
         14:fe:76:32:03:52:4c:be:51:81:11:d6:05:c7:a4:92:87:19:
         27:34:3c:6a:03:e2:f5:12:b6:c9:63:c7:e7:f8:37:63:b5:aa:
         86:3c:7a:e2:63:f5:2c:ad:2b:8d:e4:84:9c:70:7f:a3:5e:d8:
         cb:76:6b:99:2b:04:ff:d8:16:4c:2b:20:9b:e3:eb:dc:7f:8e:
         3d:7e:ac:13:e6:13:4d:a3:6e:9d:04:08:a2:68:f6:c4:d3:ec:
         cb:39:37:cc:94:a5:97:af:03:1f:41:18:50:08:f0:c1:b8:c0:
         0d:82:58:30:d5:e1:5f:1c:3e:98:d0:fc:f8:ca:a1:5c:4e:f3:
         18:4e:d5:a9:8a:c3:33:d0:1a:61:e6:90:14:c0:79:11:55:0a:
         a3:92:f5:b3:48:f7:3a:84:b6:cf:e6:ad:a3:bc:e1:91:dc:7b:
         e0:82:28:1f:cb:30:1f:d5:96:01:8d:06:da:3c:04:ff:6d:3a:
         5c:95:49:15:8d:6f:3f:53:87:5e:5d:66:2a:76:4c:f9:41:de:
         b8:83:df:30:38:c7:0e:d2:f6:4a:61:c0:2f:da:62:27:ac:85:
         f7:9c:08:f3:dc:b3:a3:57:3b:68:c7:c7:5f:78:90:c3:cb:f4:
         62:17:03:af:df:c7:cd:07:6f:7b:74:5f:af:92:8f:1c:e6:9b:
         dc:f0:38:38:cd:6a:38:11:0f:1e:c4:92:0e:79:b2:45:54:15:
         ca:af:7f:75:0e:e1:ed:2c:f5:1a:85:c3:17:82:d6:d3:43:cb:
         fa:c9:54:31:58:fe:49:d0:aa:7a:f5:ad:b0:3c:ad:fa:16:f0:
         87:dc:76:02:2a:26:41:1c
-----BEGIN CERTIFICATE-----
MIIGrDCCBJSgAwIBAgICAWgwDQYJKoZIhvcNAQEEBQAwgawxCzAJBgNVBAYTAlVT
MQswCQYDVQQIEwJPSDERMA8GA1UEBxMIQ29sdW1idXMxEjAQBgNVBAoTCVZpa2lu
Z1ZQTjEdMBsGA1UECxMUTXlPcmdhbml6YXRpb25hbFVuaXQxFTATBgNVBAMTDFZp
a2luZ1ZQTiBDQTEQMA4GA1UEKRMHRWFzeVJTQTEhMB8GCSqGSIb3DQEJARYSbWVA
bXlob3N0Lm15ZG9tYWluMB4XDTEzMTAzMDA5MjQwM1oXDTIzMTAyODA5MjQwM1ow
HjEcMBoGA1UEAxMTQ2xpZW50MTU4Q2VydDk3ZjJjYzCCAiIwDQYJKoZIhvcNAQEB
BQADggIPADCCAgoCggIBANxzuUaKa45tBV8mmoNbQSu13L5mxHLdeqB7Tv1hpoJK
l9EYbh5hjAbEioI0oTyQuk7JkKQp7VntDdRcfcg9wAK8YqHqavkAjAh8jkiqBL/T
jfhxWlcXq7/Zl623vR5CJmRo9OaT80M0lmUL7fnsRPlHVq42VuzJryDcOmyJ5fQ8
XeCvqHLRR+bHQLmU3yl/ppadH7HG0KwFWegS8PeX1LSAS7YRv7ttG0OxL97RZ49W
v9mmfk8lhD9HxNkmpF/6urfn0iuclaw6UqFoOvHeNAWvcy4gKyXFhIYaBkk085J+
+aLC0owLFu0kg+Ie1it1e2OsqkYN9dG+5OuwvAycKB7Un4tNyMBI3Gj0caq+/vF5
hnyXEwdIGuffxdn7qjwKf/ZLCl5RIzIONt1HjfaO2w/RFipQnlo1YGdOxqalZRKp
sgSxrHsWhUBxm5MCe3cq80dSVAa+VNYraMHyTZBxar8EMtT0D63IbOkTZkUPcke5
vUB/nIQS7fAqSdUuK9bX5k37XZc8C203U/ZTft9alSHzYGLJqP745o87BBplkYdD
2A9/vcc6sQSp/9fm/znRS9kAxHNCj5lVD2b9gfGRw++yzoy0iuabQAmaISaFXtkQ
WKyKUlz6uR2BUUPpD8cGE7/VRKM40aw54/RLVDBvYMlnbSPzbfOGjsC8Il8XApHT
AgMBAAGjggFjMIIBXzAJBgNVHRMEAjAAMC0GCWCGSAGG+EIBDQQgFh5FYXN5LVJT
QSBHZW5lcmF0ZWQgQ2VydGlmaWNhdGUwHQYDVR0OBBYEFKMIk56ATv6dVw4oKAal
viBgEx23MIHhBgNVHSMEgdkwgdaAFBLNYATSoICecO3Gmbh7LMZS/RmhoYGypIGv
MIGsMQswCQYDVQQGEwJVUzELMAkGA1UECBMCT0gxETAPBgNVBAcTCENvbHVtYnVz
MRIwEAYDVQQKEwlWaWtpbmdWUE4xHTAbBgNVBAsTFE15T3JnYW5pemF0aW9uYWxV
bml0MRUwEwYDVQQDEwxWaWtpbmdWUE4gQ0ExEDAOBgNVBCkTB0Vhc3lSU0ExITAf
BgkqhkiG9w0BCQEWEm1lQG15aG9zdC5teWRvbWFpboIJAM81he6Avyo+MBMGA1Ud
JQQMMAoGCCsGAQUFBwMCMAsGA1UdDwQEAwIHgDANBgkqhkiG9w0BAQQFAAOCAgEA
0X2TUTMnBhRQc5I2suGmAKL05LN1vlL7gbcWRgGAEgD9s5TooY99DrIp+WusZ4Sy
FflNRq3I6pl4q0dUXPfM/zZHa2t+cQFmGoI0v2UHR7mCtpqLnswXhcOL58EeSzsO
I5t6il+hrowEpy8BzwF36EXcF4PTjSSDhSKX/OzEOb3ezPpBsTqxdZ3HAhqweG/T
GbLK+SyiSqyHTVnALLyrIYdwa5y+lEQcclFf3PLTFGsLwIrJx9c6zik8VaLQGTy4
1KE1JdR7FP52MgNSTL5RgRHWBcekkocZJzQ8agPi9RK2yWPH5/g3Y7Wqhjx64mP1
LK0rjeSEnHB/o17Yy3ZrmSsE/9gWTCsgm+Pr3H+OPX6sE+YTTaNunQQIomj2xNPs
yzk3zJSll68DH0EYUAjwwbjADYJYMNXhXxw+mND8+MqhXE7zGE7VqYrDM9AaYeaQ
FMB5EVUKo5L1s0j3OoS2z+ato7zhkdx74IIoH8swH9WWAY0G2jwE/206XJVJFY1v
P1OHXl1mKnZM+UHeuIPfMDjHDtL2SmHAL9piJ6yF95wI89yzo1c7aMfHX3iQw8v0
YhcDr9/HzQdve3Rfr5KPHOab3PA4OM1qOBEPHsSSDnmyRVQVyq9/dQ7h7Sz1GoXD
F4LW00PL+slUMVj+SdCqevWtsDyt+hbwh9x2AiomQRw=
-----END CERTIFICATE-----
