Certificate:
    Data:
        Version: 3 (0x2)
        Serial Number: 12172 (0x2f8c)
    Signature Algorithm: sha256WithRSAEncryption
        Issuer: C=US, ST=OH, L=Columbus, O=VikingVPN, OU=MyOrganizationalUnit, CN=VikingVPN CA/name=EasyRSA/emailAddress=me@myhost.mydomain
        Validity
            Not Before: Nov 27 22:36:15 2017 GMT
            Not After : Nov 25 22:36:15 2027 GMT
        Subject: CN=Client3162Certd87b86
        Subject Public Key Info:
            Public Key Algorithm: rsaEncryption
                Public-Key: (4096 bit)
                Modulus:
                    00:9f:d7:df:87:7a:5e:e0:d4:be:e5:d1:bf:32:93:
                    fc:54:91:a3:09:5f:3e:5a:83:ca:8c:54:e4:0b:20:
                    93:4d:c6:1e:0b:ac:43:80:58:2c:c6:74:6b:ab:c0:
                    5f:fc:d3:f6:0d:45:d1:7a:48:76:81:56:87:c9:95:
                    22:4d:ad:82:a0:4f:b4:3b:cf:3d:6f:92:c3:1c:dd:
                    2d:fc:d4:5a:06:2a:f5:80:89:d1:47:52:bd:a5:c4:
                    a5:d5:7d:ac:8c:f9:39:0e:b8:93:97:72:64:50:d8:
                    7f:10:7d:0e:1c:04:85:3e:cb:8e:8d:19:b6:44:e8:
                    5b:7e:8a:ac:6a:c5:59:bb:88:82:b8:15:63:a9:6d:
                    82:cb:59:00:41:fe:3a:9a:a1:8a:61:95:07:28:e9:
                    5a:4f:a1:34:19:37:0f:d7:eb:b2:2a:0f:46:11:c8:
                    c1:43:44:a7:e4:61:4a:6e:dd:3a:d4:18:68:d9:c9:
                    7a:4a:50:ea:ec:71:4e:d5:f6:f7:08:aa:ec:49:a0:
                    15:09:33:62:46:28:b6:f8:f6:18:91:e2:73:5a:f3:
                    aa:8c:cd:2d:74:70:42:9e:c5:fc:f6:5a:b5:4e:9b:
                    6d:72:71:59:59:fe:08:fd:1a:71:20:e5:b5:55:4d:
                    b1:4c:6d:ec:02:b8:78:ae:26:e3:11:54:5d:4c:cf:
                    cb:ac:ba:7e:09:02:3d:a9:6c:18:c0:ce:10:2e:ee:
                    1e:57:32:2f:06:18:88:e7:51:17:a3:49:51:5b:b1:
                    b6:30:72:04:1c:2c:c8:11:26:bb:4f:59:11:dc:92:
                    b3:8b:e1:08:84:f5:23:73:ba:b4:49:24:39:fd:70:
                    a2:56:42:54:2f:bd:47:69:2b:51:38:4a:19:b9:de:
                    43:d6:da:bc:a8:54:fc:35:8d:ab:60:7f:3f:32:57:
                    c2:18:6d:b4:62:07:d4:d4:42:70:8e:90:4c:43:2a:
                    15:0d:67:04:f1:7d:19:c3:61:57:3d:29:c8:92:3b:
                    a6:1d:ac:e8:12:2f:b7:e1:ce:e5:e9:98:32:b7:94:
                    24:c8:16:16:3b:a7:51:03:1e:ee:10:41:9d:6b:e9:
                    41:66:81:a8:3d:a3:23:b2:c2:f5:3f:92:4c:e9:4e:
                    2c:f5:1a:2b:81:9b:97:8a:22:76:03:44:50:75:f6:
                    ce:4c:e4:6e:f9:58:f7:ae:28:d5:75:6f:a0:51:30:
                    39:81:0c:4f:3a:e0:6d:b8:ad:a7:0a:63:d9:89:50:
                    d7:4d:26:3b:06:ed:39:a0:65:b2:c9:48:b1:cd:b6:
                    a0:30:d6:53:9d:c1:10:40:ca:46:d9:97:6b:da:2c:
                    2b:cd:a4:e3:14:3e:27:50:0a:5a:53:b9:6b:34:7f:
                    7f:d3:01
                Exponent: 65537 (0x10001)
        X509v3 extensions:
            X509v3 Basic Constraints: 
                CA:FALSE
            Netscape Comment: 
                Easy-RSA Generated Certificate
            X509v3 Subject Key Identifier: 
                97:33:9E:E1:ED:07:54:E4:7D:20:D8:97:03:66:A1:65:B6:0C:42:C6
            X509v3 Authority Key Identifier: 
                keyid:12:CD:60:04:D2:A0:80:9E:70:ED:C6:99:B8:7B:2C:C6:52:FD:19:A1
                DirName:/C=US/ST=OH/L=Columbus/O=VikingVPN/OU=MyOrganizationalUnit/CN=VikingVPN CA/name=EasyRSA/emailAddress=me@myhost.mydomain
                serial:CF:35:85:EE:80:BF:2A:3E

            X509v3 Extended Key Usage: 
                TLS Web Client Authentication
            X509v3 Key Usage: 
                Digital Signature
    Signature Algorithm: sha256WithRSAEncryption
         e8:12:16:fe:49:21:27:11:03:ec:c8:a5:27:e1:47:51:32:35:
         9e:92:3a:5d:d1:17:b6:31:db:86:f7:8d:49:57:80:35:53:dd:
         aa:8b:51:93:70:1b:04:90:f6:6d:16:6d:84:e6:93:ff:13:70:
         b1:74:82:f3:33:09:e5:91:98:d0:eb:95:66:18:9c:a3:e8:e5:
         84:25:dd:6c:c0:37:e3:7a:2b:c3:6d:c5:bd:db:f4:97:60:ec:
         1f:56:10:df:5b:e8:a1:18:62:d9:cb:00:65:1e:0c:ba:df:e1:
         25:4b:a8:0c:c6:df:f3:70:e7:f5:a7:a5:ea:ec:ee:3c:36:66:
         29:99:b8:37:4b:54:76:f6:0d:b4:b0:f8:22:3a:db:c9:1a:c6:
         18:d4:dc:8a:8a:e8:7a:09:4a:19:86:3e:67:fb:8b:50:1d:ea:
         4a:a4:d3:57:ef:a7:54:16:8e:e4:31:0c:fa:e1:39:ae:cf:af:
         97:ec:6a:30:49:aa:64:88:f7:01:35:a0:b6:ee:47:64:7c:80:
         05:4a:58:3e:58:9b:44:99:c7:9e:75:1d:ed:e1:1b:68:a4:65:
         10:e8:ce:94:41:db:ea:1f:b3:bb:63:1a:0f:6d:a9:b0:bf:73:
         3f:c5:5b:ed:dd:6c:90:05:a6:d8:ad:23:9b:f9:b5:a8:b4:7e:
         64:6c:48:db:70:a6:4b:38:c1:41:42:28:df:9c:49:76:84:c8:
         7d:49:66:d4:e2:f7:6a:f9:23:70:7a:33:d3:9b:90:8a:e7:5c:
         ab:bb:fd:7d:aa:1a:1f:13:85:ce:2e:48:23:12:fe:81:af:24:
         ce:33:27:ad:cf:6c:1c:67:13:2c:6e:0c:36:10:d7:1b:4a:f9:
         1a:d7:55:30:b0:6a:dd:fd:ab:f9:d2:86:66:1b:4f:82:9e:a4:
         fd:b9:6f:00:cd:37:ad:7b:f3:be:22:f2:3f:a5:b0:03:41:93:
         e1:e7:32:05:78:cf:a3:b3:d5:a3:6b:e0:0e:30:c3:79:0d:08:
         f8:d8:c4:49:e8:20:20:46:fe:19:9d:86:4c:32:b1:43:75:2c:
         04:6c:41:68:52:f0:a6:2f:ab:6d:ee:e1:3f:42:76:11:9f:a9:
         fa:de:13:79:57:b4:01:a2:5c:5d:97:89:c6:b0:eb:ef:cb:4e:
         d9:a2:41:f6:f8:cf:17:42:6a:cc:b5:76:ba:52:b0:cf:e3:6a:
         9c:90:84:33:9d:95:70:87:16:35:0b:23:ce:04:80:03:a1:76:
         be:1c:05:96:8a:88:20:ee:67:62:03:d1:37:95:eb:5f:55:78:
         0e:4c:44:ca:7c:99:ac:94:d5:80:a6:e4:b2:aa:ae:4c:ba:59:
         79:53:33:36:30:5e:98:78
-----BEGIN CERTIFICATE-----
MIIGrTCCBJWgAwIBAgICL4wwDQYJKoZIhvcNAQELBQAwgawxCzAJBgNVBAYTAlVT
MQswCQYDVQQIEwJPSDERMA8GA1UEBxMIQ29sdW1idXMxEjAQBgNVBAoTCVZpa2lu
Z1ZQTjEdMBsGA1UECxMUTXlPcmdhbml6YXRpb25hbFVuaXQxFTATBgNVBAMTDFZp
a2luZ1ZQTiBDQTEQMA4GA1UEKRMHRWFzeVJTQTEhMB8GCSqGSIb3DQEJARYSbWVA
bXlob3N0Lm15ZG9tYWluMB4XDTE3MTEyNzIyMzYxNVoXDTI3MTEyNTIyMzYxNVow
HzEdMBsGA1UEAxMUQ2xpZW50MzE2MkNlcnRkODdiODYwggIiMA0GCSqGSIb3DQEB
AQUAA4ICDwAwggIKAoICAQCf19+Hel7g1L7l0b8yk/xUkaMJXz5ag8qMVOQLIJNN
xh4LrEOAWCzGdGurwF/80/YNRdF6SHaBVofJlSJNrYKgT7Q7zz1vksMc3S381FoG
KvWAidFHUr2lxKXVfayM+TkOuJOXcmRQ2H8QfQ4cBIU+y46NGbZE6Ft+iqxqxVm7
iIK4FWOpbYLLWQBB/jqaoYphlQco6VpPoTQZNw/X67IqD0YRyMFDRKfkYUpu3TrU
GGjZyXpKUOrscU7V9vcIquxJoBUJM2JGKLb49hiR4nNa86qMzS10cEKexfz2WrVO
m21ycVlZ/gj9GnEg5bVVTbFMbewCuHiuJuMRVF1Mz8usun4JAj2pbBjAzhAu7h5X
Mi8GGIjnURejSVFbsbYwcgQcLMgRJrtPWRHckrOL4QiE9SNzurRJJDn9cKJWQlQv
vUdpK1E4Shm53kPW2ryoVPw1jatgfz8yV8IYbbRiB9TUQnCOkExDKhUNZwTxfRnD
YVc9KciSO6YdrOgSL7fhzuXpmDK3lCTIFhY7p1EDHu4QQZ1r6UFmgag9oyOywvU/
kkzpTiz1GiuBm5eKInYDRFB19s5M5G75WPeuKNV1b6BRMDmBDE864G24racKY9mJ
UNdNJjsG7TmgZbLJSLHNtqAw1lOdwRBAykbZl2vaLCvNpOMUPidQClpTuWs0f3/T
AQIDAQABo4IBYzCCAV8wCQYDVR0TBAIwADAtBglghkgBhvhCAQ0EIBYeRWFzeS1S
U0EgR2VuZXJhdGVkIENlcnRpZmljYXRlMB0GA1UdDgQWBBSXM57h7QdU5H0g2JcD
ZqFltgxCxjCB4QYDVR0jBIHZMIHWgBQSzWAE0qCAnnDtxpm4eyzGUv0ZoaGBsqSB
rzCBrDELMAkGA1UEBhMCVVMxCzAJBgNVBAgTAk9IMREwDwYDVQQHEwhDb2x1bWJ1
czESMBAGA1UEChMJVmlraW5nVlBOMR0wGwYDVQQLExRNeU9yZ2FuaXphdGlvbmFs
VW5pdDEVMBMGA1UEAxMMVmlraW5nVlBOIENBMRAwDgYDVQQpEwdFYXN5UlNBMSEw
HwYJKoZIhvcNAQkBFhJtZUBteWhvc3QubXlkb21haW6CCQDPNYXugL8qPjATBgNV
HSUEDDAKBggrBgEFBQcDAjALBgNVHQ8EBAMCB4AwDQYJKoZIhvcNAQELBQADggIB
AOgSFv5JIScRA+zIpSfhR1EyNZ6SOl3RF7Yx24b3jUlXgDVT3aqLUZNwGwSQ9m0W
bYTmk/8TcLF0gvMzCeWRmNDrlWYYnKPo5YQl3WzAN+N6K8Ntxb3b9Jdg7B9WEN9b
6KEYYtnLAGUeDLrf4SVLqAzG3/Nw5/Wnpers7jw2ZimZuDdLVHb2DbSw+CI628ka
xhjU3IqK6HoJShmGPmf7i1Ad6kqk01fvp1QWjuQxDPrhOa7Pr5fsajBJqmSI9wE1
oLbuR2R8gAVKWD5Ym0SZx551He3hG2ikZRDozpRB2+ofs7tjGg9tqbC/cz/FW+3d
bJAFptitI5v5tai0fmRsSNtwpks4wUFCKN+cSXaEyH1JZtTi92r5I3B6M9ObkIrn
XKu7/X2qGh8Thc4uSCMS/oGvJM4zJ63PbBxnEyxuDDYQ1xtK+RrXVTCwat39q/nS
hmYbT4KepP25bwDNN617874i8j+lsANBk+HnMgV4z6Oz1aNr4A4ww3kNCPjYxEno
ICBG/hmdhkwysUN1LARsQWhS8KYvq23u4T9CdhGfqfreE3lXtAGiXF2Xicaw6+/L
TtmiQfb4zxdCasy1drpSsM/japyQhDOdlXCHFjULI84EgAOhdr4cBZaKiCDuZ2ID
0TeV619VeA5MRMp8mayU1YCm5LKqrky6WXlTMzYwXph4
-----END CERTIFICATE-----
