Certificate:
    Data:
        Version: 3 (0x2)
        Serial Number: 7675 (0x1dfb)
    Signature Algorithm: md5WithRSAEncryption
        Issuer: C=US, ST=OH, L=Columbus, O=VikingVPN, OU=MyOrganizationalUnit, CN=VikingVPN CA/name=EasyRSA/emailAddress=me@myhost.mydomain
        Validity
            Not Before: Apr  5 08:30:58 2016 GMT
            Not After : Apr  3 08:30:58 2026 GMT
        Subject: CN=Client2248Certeee58b
        Subject Public Key Info:
            Public Key Algorithm: rsaEncryption
                Public-Key: (4096 bit)
                Modulus:
                    00:d2:11:f0:5b:a3:8b:6d:d6:c5:98:af:b8:ea:57:
                    a2:4a:2d:e0:37:55:c6:c4:7c:52:15:bf:b7:ec:6e:
                    97:ef:c8:e8:7b:9b:0c:04:79:d3:b6:1b:59:1e:20:
                    c6:94:41:8f:a5:2f:c5:66:5d:00:da:45:7b:11:1c:
                    94:e7:45:97:8e:9b:c6:44:2e:b3:72:88:d3:c8:40:
                    58:5e:6d:45:38:f6:22:f4:d6:b6:dd:59:f5:da:82:
                    18:34:d6:78:e0:b5:b3:d1:d9:db:58:7b:4d:fa:7f:
                    74:40:ed:6f:6a:72:1a:fa:a9:b1:f0:e4:46:84:26:
                    84:1c:1b:f7:d1:ac:e1:a7:02:e1:1e:5f:1e:a3:de:
                    d5:a1:fb:62:8a:ab:24:f7:49:e5:f9:69:c4:1e:6e:
                    a3:25:4d:09:ba:80:e8:87:51:e7:95:d5:bc:ff:fe:
                    11:9c:47:b4:d9:74:45:4e:37:14:03:a4:8e:da:e1:
                    c1:b1:59:c6:57:01:a6:e4:1d:72:12:52:69:7c:ae:
                    98:23:24:ca:78:91:30:7c:fa:b3:8b:db:6e:73:20:
                    1f:52:30:cd:05:af:33:91:68:59:d1:b0:53:da:f8:
                    6a:50:20:87:32:4c:3d:48:7f:16:0d:50:3b:1b:a9:
                    06:bd:5b:80:e4:d5:ab:ce:9f:f4:8d:cd:18:eb:ca:
                    7a:11:79:b1:f2:4a:4f:23:4b:c8:18:a0:89:a4:38:
                    62:55:3d:95:4e:ce:12:5a:f7:97:db:54:65:95:38:
                    f4:07:88:ae:a6:2b:ca:c8:78:6a:ac:1d:3f:8d:75:
                    b8:95:90:8d:3c:9f:7c:15:1f:68:90:98:08:e6:1c:
                    e1:9a:07:5d:9d:9e:20:1a:80:98:a0:f3:ae:84:7a:
                    33:f8:15:dc:7c:17:88:7d:2a:91:80:d6:de:98:02:
                    0a:6a:78:a7:02:e2:1a:34:34:f4:59:4a:81:47:09:
                    fe:88:f3:bf:df:39:c2:bb:65:3c:d2:e9:7b:f7:c8:
                    83:f7:23:04:49:8e:0d:97:2b:90:ab:4a:a1:a3:91:
                    23:dc:ae:61:00:a5:2c:7c:5c:b0:73:6d:17:af:e4:
                    64:55:53:7d:31:de:11:a6:5a:ea:94:4e:ac:60:fc:
                    13:dd:44:5b:cf:9c:db:85:47:55:1c:22:8d:ff:58:
                    11:2c:18:fe:65:99:ec:32:e5:4c:f4:85:17:2c:83:
                    8c:47:1e:be:12:8c:28:4a:e7:64:f5:d5:c4:8c:a9:
                    b7:8c:5e:6a:ca:ca:66:2a:49:b5:89:09:46:74:35:
                    ca:5a:9b:30:ac:7d:ae:d5:24:e6:65:9c:0d:6a:a7:
                    83:81:88:08:8e:cd:0c:9f:56:90:d4:46:ad:35:88:
                    88:cc:93
                Exponent: 65537 (0x10001)
        X509v3 extensions:
            X509v3 Basic Constraints: 
                CA:FALSE
            Netscape Comment: 
                Easy-RSA Generated Certificate
            X509v3 Subject Key Identifier: 
                AC:69:98:7A:22:34:72:7A:7C:0F:AD:AE:31:16:1A:1F:43:38:B5:55
            X509v3 Authority Key Identifier: 
                keyid:12:CD:60:04:D2:A0:80:9E:70:ED:C6:99:B8:7B:2C:C6:52:FD:19:A1
                DirName:/C=US/ST=OH/L=Columbus/O=VikingVPN/OU=MyOrganizationalUnit/CN=VikingVPN CA/name=EasyRSA/emailAddress=me@myhost.mydomain
                serial:CF:35:85:EE:80:BF:2A:3E

            X509v3 Extended Key Usage: 
                TLS Web Client Authentication
            X509v3 Key Usage: 
                Digital Signature
    Signature Algorithm: md5WithRSAEncryption
         ae:31:17:8a:ae:dc:91:3a:84:d9:1e:db:ff:f2:f7:89:03:8c:
         eb:41:8a:69:7a:66:83:81:06:ef:37:54:7d:4c:69:37:5c:54:
         5f:22:5b:a1:08:bf:f5:73:ab:b6:2a:28:40:05:be:5d:a5:9f:
         6f:37:e1:09:b9:2a:97:e7:c2:7f:9c:20:30:36:5c:35:ee:83:
         af:e0:64:c3:7a:75:cd:95:96:7b:58:ca:e0:31:d8:f8:d1:52:
         af:06:3a:c2:b8:af:69:2f:8a:a4:1e:d2:32:e9:9c:d5:38:c4:
         d8:4e:14:87:b3:4e:fb:41:b6:b4:cd:62:ec:e9:32:d0:f0:e4:
         2e:3a:bc:f1:7e:7c:0b:ef:68:6f:13:f5:7e:c8:81:26:09:02:
         a2:2d:e0:3c:e4:b4:07:96:86:72:e6:c7:0b:57:00:37:fa:7a:
         be:23:47:a3:9a:0a:3d:ba:33:1f:89:5b:2e:df:6c:36:40:81:
         93:26:82:63:55:ad:54:df:61:dc:5c:29:87:9a:e3:41:7d:2c:
         50:31:f5:c9:92:33:b7:ef:de:98:a4:e0:e9:05:2f:ac:7a:44:
         f2:94:ec:6d:31:0a:52:74:1e:ca:e1:54:f6:cc:88:f1:e4:0a:
         41:cd:3b:e1:89:a2:14:6a:46:23:41:37:28:21:2b:94:26:b1:
         ff:95:b9:86:7c:4a:27:22:8a:c8:71:28:50:ac:f6:7a:a0:33:
         22:05:9e:f9:98:72:cd:88:64:d9:d6:a1:96:61:71:90:56:de:
         59:1b:2a:1c:2b:03:c0:cb:c6:87:2c:b0:5a:e1:43:8b:c2:59:
         e5:75:6c:f1:b0:a8:2d:13:42:99:87:d1:82:51:0c:65:14:0a:
         dd:62:b9:c8:ba:80:96:56:3f:62:78:81:f6:69:bf:88:63:d7:
         ea:0f:a6:9c:2e:f9:84:ac:c6:7e:9b:7f:a9:09:23:21:59:69:
         1a:99:ed:cb:29:5c:6f:e1:4f:f7:a4:56:bd:46:2d:a0:e0:65:
         03:06:68:80:8e:bf:44:3b:d7:30:37:55:23:20:90:40:69:a1:
         de:3e:43:e0:73:80:25:43:04:23:d3:85:74:de:45:aa:17:2e:
         d3:8d:34:99:f2:b4:e6:6d:93:d5:f5:a4:ea:47:28:6e:8c:36:
         47:f8:2b:7b:b1:6f:fd:9c:3a:e2:a2:27:c5:19:e7:d2:6c:fe:
         7a:b9:5f:3b:ef:25:72:5e:40:e8:b1:a5:7f:82:c3:10:34:e1:
         97:9c:36:b8:03:6c:d7:ef:8f:01:ef:5c:20:60:14:73:63:c6:
         6d:cd:a5:36:b8:b8:a7:8b:9c:6a:f1:8e:37:56:32:27:39:9a:
         e6:3f:4e:8d:67:af:39:6f
-----BEGIN CERTIFICATE-----
MIIGrTCCBJWgAwIBAgICHfswDQYJKoZIhvcNAQEEBQAwgawxCzAJBgNVBAYTAlVT
MQswCQYDVQQIEwJPSDERMA8GA1UEBxMIQ29sdW1idXMxEjAQBgNVBAoTCVZpa2lu
Z1ZQTjEdMBsGA1UECxMUTXlPcmdhbml6YXRpb25hbFVuaXQxFTATBgNVBAMTDFZp
a2luZ1ZQTiBDQTEQMA4GA1UEKRMHRWFzeVJTQTEhMB8GCSqGSIb3DQEJARYSbWVA
bXlob3N0Lm15ZG9tYWluMB4XDTE2MDQwNTA4MzA1OFoXDTI2MDQwMzA4MzA1OFow
HzEdMBsGA1UEAxMUQ2xpZW50MjI0OENlcnRlZWU1OGIwggIiMA0GCSqGSIb3DQEB
AQUAA4ICDwAwggIKAoICAQDSEfBbo4tt1sWYr7jqV6JKLeA3VcbEfFIVv7fsbpfv
yOh7mwwEedO2G1keIMaUQY+lL8VmXQDaRXsRHJTnRZeOm8ZELrNyiNPIQFhebUU4
9iL01rbdWfXaghg01njgtbPR2dtYe036f3RA7W9qchr6qbHw5EaEJoQcG/fRrOGn
AuEeXx6j3tWh+2KKqyT3SeX5acQebqMlTQm6gOiHUeeV1bz//hGcR7TZdEVONxQD
pI7a4cGxWcZXAabkHXISUml8rpgjJMp4kTB8+rOL225zIB9SMM0FrzORaFnRsFPa
+GpQIIcyTD1IfxYNUDsbqQa9W4Dk1avOn/SNzRjrynoRebHySk8jS8gYoImkOGJV
PZVOzhJa95fbVGWVOPQHiK6mK8rIeGqsHT+NdbiVkI08n3wVH2iQmAjmHOGaB12d
niAagJig866EejP4Fdx8F4h9KpGA1t6YAgpqeKcC4ho0NPRZSoFHCf6I87/fOcK7
ZTzS6Xv3yIP3IwRJjg2XK5CrSqGjkSPcrmEApSx8XLBzbRev5GRVU30x3hGmWuqU
Tqxg/BPdRFvPnNuFR1UcIo3/WBEsGP5lmewy5Uz0hRcsg4xHHr4SjChK52T11cSM
qbeMXmrKymYqSbWJCUZ0NcpamzCsfa7VJOZlnA1qp4OBiAiOzQyfVpDURq01iIjM
kwIDAQABo4IBYzCCAV8wCQYDVR0TBAIwADAtBglghkgBhvhCAQ0EIBYeRWFzeS1S
U0EgR2VuZXJhdGVkIENlcnRpZmljYXRlMB0GA1UdDgQWBBSsaZh6IjRyenwPra4x
FhofQzi1VTCB4QYDVR0jBIHZMIHWgBQSzWAE0qCAnnDtxpm4eyzGUv0ZoaGBsqSB
rzCBrDELMAkGA1UEBhMCVVMxCzAJBgNVBAgTAk9IMREwDwYDVQQHEwhDb2x1bWJ1
czESMBAGA1UEChMJVmlraW5nVlBOMR0wGwYDVQQLExRNeU9yZ2FuaXphdGlvbmFs
VW5pdDEVMBMGA1UEAxMMVmlraW5nVlBOIENBMRAwDgYDVQQpEwdFYXN5UlNBMSEw
HwYJKoZIhvcNAQkBFhJtZUBteWhvc3QubXlkb21haW6CCQDPNYXugL8qPjATBgNV
HSUEDDAKBggrBgEFBQcDAjALBgNVHQ8EBAMCB4AwDQYJKoZIhvcNAQEEBQADggIB
AK4xF4qu3JE6hNke2//y94kDjOtBiml6ZoOBBu83VH1MaTdcVF8iW6EIv/Vzq7Yq
KEAFvl2ln2834Qm5Kpfnwn+cIDA2XDXug6/gZMN6dc2VlntYyuAx2PjRUq8GOsK4
r2kviqQe0jLpnNU4xNhOFIezTvtBtrTNYuzpMtDw5C46vPF+fAvvaG8T9X7IgSYJ
AqIt4DzktAeWhnLmxwtXADf6er4jR6OaCj26Mx+JWy7fbDZAgZMmgmNVrVTfYdxc
KYea40F9LFAx9cmSM7fv3pik4OkFL6x6RPKU7G0xClJ0HsrhVPbMiPHkCkHNO+GJ
ohRqRiNBNyghK5Qmsf+VuYZ8SiciishxKFCs9nqgMyIFnvmYcs2IZNnWoZZhcZBW
3lkbKhwrA8DLxocssFrhQ4vCWeV1bPGwqC0TQpmH0YJRDGUUCt1iuci6gJZWP2J4
gfZpv4hj1+oPppwu+YSsxn6bf6kJIyFZaRqZ7cspXG/hT/ekVr1GLaDgZQMGaICO
v0Q71zA3VSMgkEBpod4+Q+BzgCVDBCPThXTeRaoXLtONNJnytOZtk9X1pOpHKG6M
Nkf4K3uxb/2cOuKiJ8UZ59Js/nq5XzvvJXJeQOixpX+CwxA04ZecNrgDbNfvjwHv
XCBgFHNjxm3NpTa4uKeLnGrxjjdWMic5muY/To1nrzlv
-----END CERTIFICATE-----
