Certificate:
    Data:
        Version: 3 (0x2)
        Serial Number: 10784 (0x2a20)
    Signature Algorithm: sha256WithRSAEncryption
        Issuer: C=US, ST=OH, L=Columbus, O=VikingVPN, OU=MyOrganizationalUnit, CN=VikingVPN CA/name=EasyRSA/emailAddress=me@myhost.mydomain
        Validity
            Not Before: Apr 24 20:24:49 2017 GMT
            Not After : Apr 22 20:24:49 2027 GMT
        Subject: CN=Client2879Cert50a310
        Subject Public Key Info:
            Public Key Algorithm: rsaEncryption
                Public-Key: (4096 bit)
                Modulus:
                    00:c5:14:e0:ab:45:0d:37:85:82:34:22:7a:1c:3b:
                    54:12:e9:2e:2c:c7:07:93:84:1d:f3:01:6c:98:73:
                    b7:63:38:db:3a:80:7a:fe:10:5c:e5:e7:3a:ec:35:
                    ee:91:56:f9:f1:a4:f8:d2:21:37:51:6a:f4:03:e8:
                    1d:0d:04:73:73:b1:4b:ee:15:60:bb:e7:0f:a2:ac:
                    e6:f6:91:de:5d:54:60:86:1f:34:4a:a2:63:0e:62:
                    e7:08:8f:84:9a:e1:d2:e3:da:1c:a1:87:69:3a:e2:
                    5b:9a:b4:05:7f:e3:16:ee:22:07:15:7c:92:fa:c4:
                    79:e1:ae:bd:37:20:2c:a5:90:1d:ea:9c:4c:73:19:
                    75:7e:c0:ea:8f:5b:ff:38:7a:15:11:38:05:15:8d:
                    0c:a5:e7:e8:09:41:96:71:60:89:a8:ad:4c:7a:6f:
                    fa:54:62:ff:00:20:2a:c6:5b:87:2f:15:d5:cb:6f:
                    ed:0f:95:30:d1:21:b4:89:fe:8b:15:f8:e9:ae:09:
                    83:a9:8f:05:6e:dd:68:93:a2:5c:9a:54:a4:d7:8d:
                    39:48:a7:76:c3:1d:a5:05:fd:70:3f:34:30:3c:ad:
                    eb:17:b1:f9:3d:e8:cc:32:56:96:cc:b1:e3:3b:fa:
                    89:f3:1d:71:8f:cb:d2:a3:e3:a1:3b:94:fc:ed:7a:
                    5f:57:0e:71:5a:e6:bd:79:57:74:5d:2f:26:6e:a3:
                    a8:dd:6b:75:72:8f:a5:c3:b2:eb:26:e2:99:26:21:
                    4f:a6:b7:ea:37:bc:4a:fe:77:a3:c7:70:6d:56:bc:
                    e5:52:2d:9e:bc:2e:a6:eb:a2:aa:23:4c:ef:b1:d1:
                    16:76:40:a3:b2:92:ca:f0:c8:d8:4c:b7:39:5a:2b:
                    c4:cf:e4:10:8c:92:a3:d0:a0:90:38:b2:3e:bf:80:
                    6f:ba:96:4f:79:d4:7b:ff:16:0f:68:d5:bc:8d:53:
                    66:13:9b:c0:8e:eb:ad:18:a4:76:39:f4:e4:c5:b0:
                    13:8d:bb:b8:0c:97:a5:af:04:2b:26:bc:9e:18:3c:
                    49:09:29:c2:bd:e4:42:f2:5f:85:74:f1:6e:e5:64:
                    80:d0:6f:e5:6f:24:54:5a:b2:95:6a:95:46:2c:8d:
                    a3:33:01:37:06:ee:5a:59:97:af:e7:ee:6a:c7:88:
                    ae:45:28:fe:53:10:32:72:76:02:84:82:c7:ae:8c:
                    f2:1f:fe:fa:fe:02:dd:0f:a5:97:04:d4:16:65:a9:
                    4e:67:28:7f:3d:cd:d0:3e:fd:28:dc:4c:62:d9:bd:
                    ad:21:de:1e:65:fe:dd:dd:e7:f2:71:63:ff:bd:06:
                    f9:51:0d:fe:e2:d8:75:e0:ae:e9:58:53:3e:a2:c8:
                    d2:1a:43
                Exponent: 65537 (0x10001)
        X509v3 extensions:
            X509v3 Basic Constraints: 
                CA:FALSE
            Netscape Comment: 
                Easy-RSA Generated Certificate
            X509v3 Subject Key Identifier: 
                C3:02:2A:C9:A7:83:23:20:C4:4F:B8:6B:F4:8D:3C:19:8B:73:8B:98
            X509v3 Authority Key Identifier: 
                keyid:12:CD:60:04:D2:A0:80:9E:70:ED:C6:99:B8:7B:2C:C6:52:FD:19:A1
                DirName:/C=US/ST=OH/L=Columbus/O=VikingVPN/OU=MyOrganizationalUnit/CN=VikingVPN CA/name=EasyRSA/emailAddress=me@myhost.mydomain
                serial:CF:35:85:EE:80:BF:2A:3E

            X509v3 Extended Key Usage: 
                TLS Web Client Authentication
            X509v3 Key Usage: 
                Digital Signature
    Signature Algorithm: sha256WithRSAEncryption
         4a:d9:4e:d9:cc:09:a5:88:d8:c0:4d:67:95:8d:90:79:29:d4:
         54:4d:10:d2:3e:82:c7:5e:87:87:fc:9c:e9:fc:01:79:16:fa:
         cf:60:3c:27:96:68:b5:36:f5:4a:c6:27:ae:3e:5e:6f:04:0b:
         81:ee:5d:7e:e5:9b:62:3b:a1:02:84:c9:35:51:e1:e4:90:d3:
         67:3a:d2:7a:91:27:97:6e:aa:7d:6c:8b:ce:54:1a:fd:f5:92:
         71:cb:84:37:bc:3c:22:b7:d9:bc:58:fd:f6:03:2f:50:dd:c2:
         fc:7c:28:bc:24:aa:df:64:46:03:3e:a9:33:73:4c:bf:ff:d0:
         fe:e6:70:43:f0:32:45:1c:52:26:bd:66:40:5b:7a:bf:53:f2:
         d5:f0:dc:cb:fc:a1:d7:b3:72:59:d9:32:52:e1:20:bc:89:a1:
         1c:3a:8d:24:00:3a:56:be:75:dc:de:69:09:88:04:54:ab:bb:
         51:aa:0a:d5:23:8b:b7:04:4c:5d:35:81:59:a7:98:f1:02:a0:
         d7:dc:be:e8:9e:9b:b0:a7:6d:97:e3:17:cc:d4:b7:e3:f8:75:
         1a:46:f7:d5:45:d3:27:b8:c5:4d:09:1a:06:fa:4a:68:ed:0d:
         af:3b:2c:2f:b6:a5:06:6c:da:a6:2d:74:8f:fd:f6:4a:f6:57:
         68:f4:97:08:99:de:96:62:ac:82:56:32:91:1e:5a:f4:26:2d:
         e4:ba:5e:61:d4:68:28:a9:39:6d:89:56:54:23:ce:77:9b:fd:
         08:17:b9:e1:1d:b6:64:57:44:f3:2f:0c:0f:48:2c:e1:e8:8e:
         3a:c2:60:fe:e9:18:da:2c:8f:91:07:52:e8:6a:74:3d:33:17:
         4a:a9:62:d5:87:12:cb:00:85:92:48:b3:be:be:22:12:06:35:
         e8:de:af:f7:bf:8b:49:d9:32:54:e7:8e:4c:2a:25:5b:24:4a:
         c3:33:ee:43:d2:69:8e:1d:5b:d6:ac:21:c6:f5:48:45:1c:0a:
         12:cb:d0:ec:fd:29:3c:ad:16:77:23:87:37:3b:8e:97:7c:c2:
         27:3e:32:b1:65:ab:a9:89:3d:b7:5a:e7:36:f8:e7:5c:6b:de:
         bd:fa:aa:8c:db:e0:73:02:ca:31:ce:6d:99:d0:72:bd:45:44:
         90:70:39:fb:7e:95:86:58:14:72:c0:f2:58:cb:1d:bf:7f:d4:
         70:3a:58:1e:cf:df:af:f4:23:28:f0:37:9e:7c:db:13:0a:2c:
         d3:4a:18:95:92:e0:ab:9a:e0:ee:1c:4a:b1:ea:f0:24:d3:ff:
         13:7c:89:32:c7:32:c4:7e:e3:ba:38:96:5b:1c:3c:c3:c1:5e:
         a0:81:1f:03:f5:02:2b:57
-----BEGIN CERTIFICATE-----
MIIGrTCCBJWgAwIBAgICKiAwDQYJKoZIhvcNAQELBQAwgawxCzAJBgNVBAYTAlVT
MQswCQYDVQQIEwJPSDERMA8GA1UEBxMIQ29sdW1idXMxEjAQBgNVBAoTCVZpa2lu
Z1ZQTjEdMBsGA1UECxMUTXlPcmdhbml6YXRpb25hbFVuaXQxFTATBgNVBAMTDFZp
a2luZ1ZQTiBDQTEQMA4GA1UEKRMHRWFzeVJTQTEhMB8GCSqGSIb3DQEJARYSbWVA
bXlob3N0Lm15ZG9tYWluMB4XDTE3MDQyNDIwMjQ0OVoXDTI3MDQyMjIwMjQ0OVow
HzEdMBsGA1UEAxMUQ2xpZW50Mjg3OUNlcnQ1MGEzMTAwggIiMA0GCSqGSIb3DQEB
AQUAA4ICDwAwggIKAoICAQDFFOCrRQ03hYI0InocO1QS6S4sxweThB3zAWyYc7dj
ONs6gHr+EFzl5zrsNe6RVvnxpPjSITdRavQD6B0NBHNzsUvuFWC75w+irOb2kd5d
VGCGHzRKomMOYucIj4Sa4dLj2hyhh2k64luatAV/4xbuIgcVfJL6xHnhrr03ICyl
kB3qnExzGXV+wOqPW/84ehUROAUVjQyl5+gJQZZxYImorUx6b/pUYv8AICrGW4cv
FdXLb+0PlTDRIbSJ/osV+OmuCYOpjwVu3WiTolyaVKTXjTlIp3bDHaUF/XA/NDA8
resXsfk96MwyVpbMseM7+onzHXGPy9Kj46E7lPztel9XDnFa5r15V3RdLyZuo6jd
a3Vyj6XDsusm4pkmIU+mt+o3vEr+d6PHcG1WvOVSLZ68LqbroqojTO+x0RZ2QKOy
ksrwyNhMtzlaK8TP5BCMkqPQoJA4sj6/gG+6lk951Hv/Fg9o1byNU2YTm8CO660Y
pHY59OTFsBONu7gMl6WvBCsmvJ4YPEkJKcK95ELyX4V08W7lZIDQb+VvJFRaspVq
lUYsjaMzATcG7lpZl6/n7mrHiK5FKP5TEDJydgKEgseujPIf/vr+At0PpZcE1BZl
qU5nKH89zdA+/SjcTGLZva0h3h5l/t3d5/JxY/+9BvlRDf7i2HXgrulYUz6iyNIa
QwIDAQABo4IBYzCCAV8wCQYDVR0TBAIwADAtBglghkgBhvhCAQ0EIBYeRWFzeS1S
U0EgR2VuZXJhdGVkIENlcnRpZmljYXRlMB0GA1UdDgQWBBTDAirJp4MjIMRPuGv0
jTwZi3OLmDCB4QYDVR0jBIHZMIHWgBQSzWAE0qCAnnDtxpm4eyzGUv0ZoaGBsqSB
rzCBrDELMAkGA1UEBhMCVVMxCzAJBgNVBAgTAk9IMREwDwYDVQQHEwhDb2x1bWJ1
czESMBAGA1UEChMJVmlraW5nVlBOMR0wGwYDVQQLExRNeU9yZ2FuaXphdGlvbmFs
VW5pdDEVMBMGA1UEAxMMVmlraW5nVlBOIENBMRAwDgYDVQQpEwdFYXN5UlNBMSEw
HwYJKoZIhvcNAQkBFhJtZUBteWhvc3QubXlkb21haW6CCQDPNYXugL8qPjATBgNV
HSUEDDAKBggrBgEFBQcDAjALBgNVHQ8EBAMCB4AwDQYJKoZIhvcNAQELBQADggIB
AErZTtnMCaWI2MBNZ5WNkHkp1FRNENI+gsdeh4f8nOn8AXkW+s9gPCeWaLU29UrG
J64+Xm8EC4HuXX7lm2I7oQKEyTVR4eSQ02c60nqRJ5duqn1si85UGv31knHLhDe8
PCK32bxY/fYDL1Ddwvx8KLwkqt9kRgM+qTNzTL//0P7mcEPwMkUcUia9ZkBber9T
8tXw3Mv8odezclnZMlLhILyJoRw6jSQAOla+ddzeaQmIBFSru1GqCtUji7cETF01
gVmnmPECoNfcvuiem7CnbZfjF8zUt+P4dRpG99VF0ye4xU0JGgb6SmjtDa87LC+2
pQZs2qYtdI/99kr2V2j0lwiZ3pZirIJWMpEeWvQmLeS6XmHUaCipOW2JVlQjzneb
/QgXueEdtmRXRPMvDA9ILOHojjrCYP7pGNosj5EHUuhqdD0zF0qpYtWHEssAhZJI
s76+IhIGNejer/e/i0nZMlTnjkwqJVskSsMz7kPSaY4dW9asIcb1SEUcChLL0Oz9
KTytFncjhzc7jpd8wic+MrFlq6mJPbda5zb451xr3r36qozb4HMCyjHObZnQcr1F
RJBwOft+lYZYFHLA8ljLHb9/1HA6WB7P36/0IyjwN5582xMKLNNKGJWS4Kua4O4c
SrHq8CTT/xN8iTLHMsR+47o4llscPMPBXqCBHwP1AitX
-----END CERTIFICATE-----
