Certificate:
    Data:
        Version: 3 (0x2)
        Serial Number: 10750 (0x29fe)
    Signature Algorithm: sha256WithRSAEncryption
        Issuer: C=US, ST=OH, L=Columbus, O=VikingVPN, OU=MyOrganizationalUnit, CN=VikingVPN CA/name=EasyRSA/emailAddress=me@myhost.mydomain
        Validity
            Not Before: Apr 21 06:32:06 2017 GMT
            Not After : Apr 19 06:32:06 2027 GMT
        Subject: CN=Client2620Cert5f7613
        Subject Public Key Info:
            Public Key Algorithm: rsaEncryption
                Public-Key: (4096 bit)
                Modulus:
                    00:af:ed:ef:fe:96:1e:99:45:4d:49:77:c3:68:b1:
                    2e:b9:26:0c:85:ee:c6:d2:77:b4:5a:5b:15:94:43:
                    d2:8d:74:de:56:0a:9b:29:ef:71:16:b3:b3:0e:50:
                    e1:17:e2:96:52:c6:ac:ae:6b:84:ee:30:76:09:89:
                    4f:0f:84:2c:e0:6e:31:f0:a7:b7:7b:32:7d:98:eb:
                    88:8e:c5:d5:57:15:73:0c:bb:43:82:3e:de:cc:4a:
                    b3:0a:82:11:ad:ae:95:80:08:02:d9:8f:29:3d:27:
                    d7:94:8f:53:0d:25:df:25:42:75:5c:05:cc:70:b1:
                    c9:3d:1c:bd:da:01:d4:7d:b9:99:51:da:dc:40:fa:
                    51:b6:bf:f2:af:a5:0c:c3:9e:ed:02:f8:7b:21:3c:
                    46:bd:e2:e8:c9:b1:36:7a:92:d3:da:e2:f3:69:58:
                    7e:81:ab:10:47:84:e9:f3:87:f1:19:48:ff:a3:77:
                    d0:27:97:92:68:9e:e4:11:e4:3e:e8:82:07:49:6c:
                    37:02:03:4f:7b:75:b4:19:79:66:05:a0:40:14:fb:
                    33:9e:d2:6e:32:80:b8:63:ab:c0:12:87:5f:e0:3a:
                    85:02:aa:a5:e7:37:fc:3f:3f:a3:61:82:09:c2:31:
                    2a:c0:33:c9:64:d5:55:e5:48:07:29:09:57:07:e4:
                    49:7e:4b:a6:d1:7c:f9:fc:3b:33:53:9a:a0:47:33:
                    ac:10:04:a8:9e:e5:b5:d2:d5:c7:19:91:63:e6:b2:
                    7a:14:33:5e:11:42:28:d5:97:cd:8c:9e:20:34:e3:
                    9e:f9:2b:88:f9:ea:99:d9:a5:93:54:0b:6d:3d:d9:
                    90:d3:dc:61:66:97:de:c5:d0:69:37:8b:5b:0f:63:
                    99:3a:dd:93:d3:db:bd:b3:88:f7:a5:1b:d1:43:15:
                    dc:f1:b5:a8:d6:fc:85:bc:2c:5e:a3:61:c3:f8:06:
                    b7:4f:9a:99:0c:1b:89:51:d7:4b:81:09:6a:73:71:
                    c9:13:54:f3:3d:b0:26:46:d9:71:14:1a:17:e7:c3:
                    42:17:44:85:d6:ae:ba:68:5d:3a:c2:66:23:44:ba:
                    4f:ae:b8:a5:ec:41:82:b9:43:97:66:57:8d:71:65:
                    bd:71:f2:ed:73:e0:3c:28:48:d2:5c:65:6d:6e:ee:
                    eb:d2:56:2c:8e:a5:e5:1a:c6:c4:00:a0:8e:73:76:
                    03:a4:b6:ed:57:32:29:a6:12:3c:ce:26:33:63:2e:
                    6b:8e:41:a6:75:9d:20:92:39:4d:6f:ab:17:f1:2f:
                    86:d2:21:f0:78:2b:a9:f5:15:6a:de:5b:1a:f5:e1:
                    07:a3:4e:13:0e:11:a3:65:1d:f0:25:f8:12:38:a3:
                    6e:59:67
                Exponent: 65537 (0x10001)
        X509v3 extensions:
            X509v3 Basic Constraints: 
                CA:FALSE
            Netscape Comment: 
                Easy-RSA Generated Certificate
            X509v3 Subject Key Identifier: 
                76:C3:E5:52:FC:58:D0:5A:96:F7:D1:E1:64:91:CC:78:A6:78:30:0D
            X509v3 Authority Key Identifier: 
                keyid:12:CD:60:04:D2:A0:80:9E:70:ED:C6:99:B8:7B:2C:C6:52:FD:19:A1
                DirName:/C=US/ST=OH/L=Columbus/O=VikingVPN/OU=MyOrganizationalUnit/CN=VikingVPN CA/name=EasyRSA/emailAddress=me@myhost.mydomain
                serial:CF:35:85:EE:80:BF:2A:3E

            X509v3 Extended Key Usage: 
                TLS Web Client Authentication
            X509v3 Key Usage: 
                Digital Signature
    Signature Algorithm: sha256WithRSAEncryption
         69:ae:b6:cd:82:8a:b3:c5:09:59:56:e4:82:4a:c9:80:9d:9f:
         7b:35:75:35:47:50:68:6b:7d:f8:4c:a1:05:81:cb:bd:04:dd:
         99:90:1e:d3:0c:a0:f8:08:f3:fe:ee:ed:23:01:6c:97:d0:5a:
         41:31:8c:38:6f:e3:ca:5b:30:b7:83:37:81:fb:ad:b7:95:a8:
         8c:ef:0e:26:11:87:96:70:31:fc:b0:9c:57:0e:d6:df:bd:37:
         d2:0a:e1:cd:c2:48:d3:0c:92:1f:b0:9e:53:60:85:37:40:2c:
         4a:2e:59:a0:5c:33:41:a9:41:6c:b6:73:c4:ff:ba:f2:c8:7c:
         e1:f4:e1:95:62:c9:98:f4:e7:95:90:1e:a5:8f:f4:f9:44:30:
         94:7c:eb:21:55:c2:91:fc:b6:37:0b:df:aa:53:76:06:3a:d0:
         e8:2b:f9:83:4b:57:b7:a5:9b:99:4f:cf:86:54:a2:c9:84:6e:
         2e:cd:9f:24:f4:22:10:0b:57:a9:0f:06:48:de:7b:cb:06:72:
         9e:d3:1f:d7:63:39:c3:3b:0e:d6:9b:c2:f8:10:a9:1c:4d:ad:
         87:bb:ab:6a:16:f5:07:26:4a:a0:ba:bd:a1:73:b1:a5:22:eb:
         58:d3:1f:cd:4b:ef:05:66:45:dc:55:6a:9d:7b:1c:eb:2b:7c:
         64:ba:a7:b1:66:87:70:a7:65:f3:7e:3a:07:fd:c3:c5:76:07:
         80:66:2d:ed:52:c8:a2:42:9d:3b:a9:7c:54:cd:0d:e6:3d:2e:
         dd:fc:fc:07:28:1e:6a:9f:4c:a7:81:07:c6:8c:07:e1:58:ca:
         a4:10:38:e3:ab:8f:07:84:a7:57:c1:cf:51:d1:cd:3e:1c:6d:
         f5:8d:f5:5e:6b:0c:d9:d7:0a:c8:5e:e5:50:17:36:70:9d:60:
         e2:fd:9b:3f:b0:fe:f4:f2:41:2a:15:67:92:66:63:39:e5:90:
         51:e8:e4:2c:20:9c:08:95:52:76:86:43:32:11:44:74:13:b3:
         47:46:bd:7b:c6:35:58:4c:70:df:5c:f2:c1:3a:bc:e5:5a:0b:
         46:46:6b:3e:05:d9:34:13:f9:63:eb:c1:e5:df:24:24:c0:15:
         45:3a:14:fb:91:bc:29:4f:86:9c:ae:7d:40:a0:a7:db:3e:e0:
         c4:eb:0a:6d:ea:0b:90:c6:11:fe:7e:c2:04:b1:3a:3b:4a:3e:
         eb:ff:bc:d4:b1:5f:7a:56:91:90:35:8c:57:06:f4:e2:5a:7a:
         89:ef:68:68:1e:4e:b8:12:55:29:b5:04:93:9e:f4:05:a7:82:
         24:3d:f5:ce:ec:99:81:15:5c:f3:c1:cc:fc:0b:bc:bd:39:a7:
         7c:ad:af:90:1d:3c:00:cf
-----BEGIN CERTIFICATE-----
MIIGrTCCBJWgAwIBAgICKf4wDQYJKoZIhvcNAQELBQAwgawxCzAJBgNVBAYTAlVT
MQswCQYDVQQIEwJPSDERMA8GA1UEBxMIQ29sdW1idXMxEjAQBgNVBAoTCVZpa2lu
Z1ZQTjEdMBsGA1UECxMUTXlPcmdhbml6YXRpb25hbFVuaXQxFTATBgNVBAMTDFZp
a2luZ1ZQTiBDQTEQMA4GA1UEKRMHRWFzeVJTQTEhMB8GCSqGSIb3DQEJARYSbWVA
bXlob3N0Lm15ZG9tYWluMB4XDTE3MDQyMTA2MzIwNloXDTI3MDQxOTA2MzIwNlow
HzEdMBsGA1UEAxMUQ2xpZW50MjYyMENlcnQ1Zjc2MTMwggIiMA0GCSqGSIb3DQEB
AQUAA4ICDwAwggIKAoICAQCv7e/+lh6ZRU1Jd8NosS65JgyF7sbSd7RaWxWUQ9KN
dN5WCpsp73EWs7MOUOEX4pZSxqyua4TuMHYJiU8PhCzgbjHwp7d7Mn2Y64iOxdVX
FXMMu0OCPt7MSrMKghGtrpWACALZjyk9J9eUj1MNJd8lQnVcBcxwsck9HL3aAdR9
uZlR2txA+lG2v/KvpQzDnu0C+HshPEa94ujJsTZ6ktPa4vNpWH6BqxBHhOnzh/EZ
SP+jd9Anl5JonuQR5D7oggdJbDcCA097dbQZeWYFoEAU+zOe0m4ygLhjq8ASh1/g
OoUCqqXnN/w/P6NhggnCMSrAM8lk1VXlSAcpCVcH5El+S6bRfPn8OzNTmqBHM6wQ
BKie5bXS1ccZkWPmsnoUM14RQijVl82MniA04575K4j56pnZpZNUC2092ZDT3GFm
l97F0Gk3i1sPY5k63ZPT272ziPelG9FDFdzxtajW/IW8LF6jYcP4BrdPmpkMG4lR
10uBCWpzcckTVPM9sCZG2XEUGhfnw0IXRIXWrrpoXTrCZiNEuk+uuKXsQYK5Q5dm
V41xZb1x8u1z4DwoSNJcZW1u7uvSViyOpeUaxsQAoI5zdgOktu1XMimmEjzOJjNj
LmuOQaZ1nSCSOU1vqxfxL4bSIfB4K6n1FWreWxr14QejThMOEaNlHfAl+BI4o25Z
ZwIDAQABo4IBYzCCAV8wCQYDVR0TBAIwADAtBglghkgBhvhCAQ0EIBYeRWFzeS1S
U0EgR2VuZXJhdGVkIENlcnRpZmljYXRlMB0GA1UdDgQWBBR2w+VS/FjQWpb30eFk
kcx4pngwDTCB4QYDVR0jBIHZMIHWgBQSzWAE0qCAnnDtxpm4eyzGUv0ZoaGBsqSB
rzCBrDELMAkGA1UEBhMCVVMxCzAJBgNVBAgTAk9IMREwDwYDVQQHEwhDb2x1bWJ1
czESMBAGA1UEChMJVmlraW5nVlBOMR0wGwYDVQQLExRNeU9yZ2FuaXphdGlvbmFs
VW5pdDEVMBMGA1UEAxMMVmlraW5nVlBOIENBMRAwDgYDVQQpEwdFYXN5UlNBMSEw
HwYJKoZIhvcNAQkBFhJtZUBteWhvc3QubXlkb21haW6CCQDPNYXugL8qPjATBgNV
HSUEDDAKBggrBgEFBQcDAjALBgNVHQ8EBAMCB4AwDQYJKoZIhvcNAQELBQADggIB
AGmuts2CirPFCVlW5IJKyYCdn3s1dTVHUGhrffhMoQWBy70E3ZmQHtMMoPgI8/7u
7SMBbJfQWkExjDhv48pbMLeDN4H7rbeVqIzvDiYRh5ZwMfywnFcO1t+9N9IK4c3C
SNMMkh+wnlNghTdALEouWaBcM0GpQWy2c8T/uvLIfOH04ZViyZj055WQHqWP9PlE
MJR86yFVwpH8tjcL36pTdgY60Ogr+YNLV7elm5lPz4ZUosmEbi7NnyT0IhALV6kP
Bkjee8sGcp7TH9djOcM7DtabwvgQqRxNrYe7q2oW9QcmSqC6vaFzsaUi61jTH81L
7wVmRdxVap17HOsrfGS6p7Fmh3CnZfN+Ogf9w8V2B4BmLe1SyKJCnTupfFTNDeY9
Lt38/AcoHmqfTKeBB8aMB+FYyqQQOOOrjweEp1fBz1HRzT4cbfWN9V5rDNnXCshe
5VAXNnCdYOL9mz+w/vTyQSoVZ5JmYznlkFHo5CwgnAiVUnaGQzIRRHQTs0dGvXvG
NVhMcN9c8sE6vOVaC0ZGaz4F2TQT+WPrweXfJCTAFUU6FPuRvClPhpyufUCgp9s+
4MTrCm3qC5DGEf5+wgSxOjtKPuv/vNSxX3pWkZA1jFcG9OJaeonvaGgeTrgSVSm1
BJOe9AWngiQ99c7smYEVXPPBzPwLvL05p3ytr5AdPADP
-----END CERTIFICATE-----
