Certificate:
    Data:
        Version: 3 (0x2)
        Serial Number: 4753 (0x1291)
    Signature Algorithm: md5WithRSAEncryption
        Issuer: C=US, ST=OH, L=Columbus, O=VikingVPN, OU=MyOrganizationalUnit, CN=VikingVPN CA/name=EasyRSA/emailAddress=me@myhost.mydomain
        Validity
            Not Before: Mar 19 14:54:53 2015 GMT
            Not After : Mar 16 14:54:53 2025 GMT
        Subject: CN=Client1126Certbf59d0
        Subject Public Key Info:
            Public Key Algorithm: rsaEncryption
                Public-Key: (4096 bit)
                Modulus:
                    00:c2:b6:af:9e:12:cd:f1:13:09:78:bc:ac:6f:b9:
                    de:e1:27:44:be:88:a2:8a:14:67:0c:dd:32:75:30:
                    15:4f:a1:10:e0:0a:e7:35:66:5d:2e:34:b7:6e:17:
                    cf:05:f3:d4:4e:79:31:ac:1e:58:c4:00:95:43:39:
                    1a:dc:53:6a:fb:86:fe:ca:a2:91:04:cc:4c:b7:4d:
                    9f:51:99:ed:a9:18:50:c0:95:9a:2b:e9:fc:d9:5d:
                    ac:c9:46:3c:0c:5f:84:a8:61:7b:01:61:0c:9f:4b:
                    21:85:d8:01:46:68:da:ce:80:e9:60:2d:d5:fb:70:
                    24:5e:c2:bb:a8:56:e7:1b:84:e1:4f:68:17:18:59:
                    25:d4:fc:1a:39:dc:a8:f1:ce:06:c7:ce:12:a6:54:
                    2f:4d:ef:b2:de:fc:69:a2:95:35:2a:e3:ce:97:aa:
                    ae:dd:42:7c:b6:0c:f1:86:7c:8c:95:2d:9b:01:4c:
                    2a:21:28:7b:8e:20:a9:d3:68:3f:a8:9d:49:91:d9:
                    d6:93:ed:f4:b0:07:37:31:09:40:32:08:14:37:40:
                    b4:8d:c5:af:d3:2d:c1:51:7a:ff:97:7c:0c:d1:3f:
                    77:91:bc:32:fa:d8:3b:26:74:9e:c8:df:fc:43:28:
                    14:2f:2d:b4:6e:6c:57:59:63:07:49:e0:16:69:b0:
                    ac:3f:f6:ae:95:31:31:d8:a7:6c:9a:d8:06:f6:6f:
                    23:d6:89:c2:c5:87:98:52:a9:42:3e:23:61:c1:b9:
                    6f:39:3b:ff:d7:ea:5f:f6:a8:15:eb:53:3e:d9:be:
                    63:7f:73:6c:54:2a:70:98:3f:f5:7c:8c:1a:ef:29:
                    c5:42:2e:c7:7c:33:d4:8f:63:32:3c:47:24:f9:a0:
                    11:66:c0:bf:7a:37:f0:d8:4c:6c:56:13:3b:f0:08:
                    05:4e:f8:32:3d:93:7a:46:e0:04:f0:c0:03:c2:f7:
                    ad:07:e7:e3:6f:38:ae:66:db:f1:93:5a:5d:0f:5e:
                    23:08:04:e5:3f:be:a6:ee:e0:db:a6:94:c7:87:63:
                    70:ad:d0:2f:6c:a5:13:1b:72:8a:ec:59:1a:77:f9:
                    fa:03:86:c8:f6:84:05:d5:2b:29:01:31:42:8b:17:
                    24:4d:7e:35:15:1d:85:c2:a9:ad:23:11:9b:5f:16:
                    15:63:49:fd:6b:7a:a2:69:f8:60:07:82:a7:c2:70:
                    0f:2f:3a:26:c3:6c:9c:d6:59:c9:c4:38:77:63:b9:
                    db:ef:9f:6e:f1:f5:ab:a2:28:38:b2:30:d1:22:93:
                    46:42:09:44:3f:41:1c:70:40:e0:c6:b3:bb:6d:a5:
                    26:db:7b:b3:22:bc:6a:69:0f:30:21:b6:44:90:bc:
                    c3:6d:93
                Exponent: 65537 (0x10001)
        X509v3 extensions:
            X509v3 Basic Constraints: 
                CA:FALSE
            Netscape Comment: 
                Easy-RSA Generated Certificate
            X509v3 Subject Key Identifier: 
                C6:9C:C8:22:EB:CA:59:16:EF:CE:F4:84:A8:CA:76:EC:39:EF:F6:20
            X509v3 Authority Key Identifier: 
                keyid:12:CD:60:04:D2:A0:80:9E:70:ED:C6:99:B8:7B:2C:C6:52:FD:19:A1
                DirName:/C=US/ST=OH/L=Columbus/O=VikingVPN/OU=MyOrganizationalUnit/CN=VikingVPN CA/name=EasyRSA/emailAddress=me@myhost.mydomain
                serial:CF:35:85:EE:80:BF:2A:3E

            X509v3 Extended Key Usage: 
                TLS Web Client Authentication
            X509v3 Key Usage: 
                Digital Signature
    Signature Algorithm: md5WithRSAEncryption
         41:6e:1f:b6:df:35:6b:53:2c:72:d9:53:d5:36:dc:ec:17:78:
         57:09:63:4a:89:fc:50:c4:69:70:a9:a7:f0:d9:d9:b5:8a:6d:
         a1:fb:36:6f:09:0d:33:2f:9b:2a:15:2b:b5:f9:88:44:23:97:
         92:7f:7e:61:92:07:5d:38:38:d1:63:96:ee:b6:0d:19:0f:f5:
         88:c7:1b:4f:d7:3c:ed:99:06:f5:4b:87:b4:40:89:ea:cd:24:
         ef:4e:51:7a:b1:61:91:25:fc:ee:3c:cb:bf:68:23:80:7e:a6:
         7a:82:ab:fb:6e:73:d7:3c:4e:f3:ae:a0:1f:2b:9b:e8:43:05:
         97:8b:72:07:78:2f:17:03:97:97:a3:3f:c5:79:07:82:a7:fb:
         4f:ec:af:df:2b:02:00:ea:bd:7f:f0:0e:22:01:5b:ca:34:91:
         3d:c2:97:e4:7a:20:ce:c6:e8:2d:87:23:38:48:2b:88:91:be:
         32:52:a9:27:26:d3:d3:67:29:fd:52:16:fc:d1:da:d7:fa:eb:
         2d:2c:82:7c:db:43:06:e5:fb:5b:d1:6c:84:23:fa:8b:d6:98:
         5b:fe:e9:46:2c:07:21:4e:f4:c5:3c:0f:4f:2e:ff:91:11:15:
         ac:cb:1b:c1:00:e4:1d:ad:e3:54:e3:7e:ec:07:c4:b1:cf:41:
         bc:6a:ed:66:e8:b8:8a:93:7a:08:8a:86:66:33:13:1d:45:6a:
         e5:13:fb:2b:49:8d:29:26:53:b9:e5:0a:8d:45:93:19:42:b9:
         28:58:84:49:42:04:d7:b0:0a:bd:1e:63:aa:bf:9a:86:cc:5a:
         a4:33:86:f3:82:00:a6:7c:a7:bf:6b:2d:f0:ee:cf:57:2e:29:
         a3:1c:4f:0e:ab:b1:ef:03:72:b4:86:85:61:76:cb:20:f9:f0:
         54:d0:1c:77:4e:68:ce:c7:0b:51:30:dd:96:02:a3:2f:b4:0f:
         f8:26:06:11:1a:a8:3e:43:de:52:a2:33:74:89:48:cf:18:75:
         b8:56:91:ba:4d:14:2f:5d:cb:ba:c7:f8:2c:14:c5:45:ea:ae:
         9b:ce:c7:a6:ac:6f:3b:af:58:fe:7e:73:b9:ba:b7:73:3f:5f:
         91:e9:62:eb:43:1d:4d:a8:40:d1:b5:52:e9:7e:5d:83:4b:fd:
         df:05:35:f0:71:d9:6e:55:94:53:1a:3c:12:77:a3:cf:0e:31:
         32:aa:9e:4f:47:72:cf:7a:9e:c4:98:a8:74:47:2f:46:d6:51:
         d3:cb:a1:f8:f3:48:dd:78:53:ef:a2:13:4d:3c:0c:c8:e5:78:
         18:35:d8:2c:7a:9d:d8:aa:80:1b:3a:04:b0:d2:90:64:34:94:
         98:31:13:ee:f7:9c:1f:22
-----BEGIN CERTIFICATE-----
MIIGrTCCBJWgAwIBAgICEpEwDQYJKoZIhvcNAQEEBQAwgawxCzAJBgNVBAYTAlVT
MQswCQYDVQQIEwJPSDERMA8GA1UEBxMIQ29sdW1idXMxEjAQBgNVBAoTCVZpa2lu
Z1ZQTjEdMBsGA1UECxMUTXlPcmdhbml6YXRpb25hbFVuaXQxFTATBgNVBAMTDFZp
a2luZ1ZQTiBDQTEQMA4GA1UEKRMHRWFzeVJTQTEhMB8GCSqGSIb3DQEJARYSbWVA
bXlob3N0Lm15ZG9tYWluMB4XDTE1MDMxOTE0NTQ1M1oXDTI1MDMxNjE0NTQ1M1ow
HzEdMBsGA1UEAxMUQ2xpZW50MTEyNkNlcnRiZjU5ZDAwggIiMA0GCSqGSIb3DQEB
AQUAA4ICDwAwggIKAoICAQDCtq+eEs3xEwl4vKxvud7hJ0S+iKKKFGcM3TJ1MBVP
oRDgCuc1Zl0uNLduF88F89ROeTGsHljEAJVDORrcU2r7hv7KopEEzEy3TZ9Rme2p
GFDAlZor6fzZXazJRjwMX4SoYXsBYQyfSyGF2AFGaNrOgOlgLdX7cCRewruoVucb
hOFPaBcYWSXU/Bo53KjxzgbHzhKmVC9N77Le/GmilTUq486Xqq7dQny2DPGGfIyV
LZsBTCohKHuOIKnTaD+onUmR2daT7fSwBzcxCUAyCBQ3QLSNxa/TLcFRev+XfAzR
P3eRvDL62DsmdJ7I3/xDKBQvLbRubFdZYwdJ4BZpsKw/9q6VMTHYp2ya2Ab2byPW
icLFh5hSqUI+I2HBuW85O//X6l/2qBXrUz7ZvmN/c2xUKnCYP/V8jBrvKcVCLsd8
M9SPYzI8RyT5oBFmwL96N/DYTGxWEzvwCAVO+DI9k3pG4ATwwAPC960H5+NvOK5m
2/GTWl0PXiMIBOU/vqbu4NumlMeHY3Ct0C9spRMbcorsWRp3+foDhsj2hAXVKykB
MUKLFyRNfjUVHYXCqa0jEZtfFhVjSf1reqJp+GAHgqfCcA8vOibDbJzWWcnEOHdj
udvvn27x9auiKDiyMNEik0ZCCUQ/QRxwQODGs7ttpSbbe7MivGppDzAhtkSQvMNt
kwIDAQABo4IBYzCCAV8wCQYDVR0TBAIwADAtBglghkgBhvhCAQ0EIBYeRWFzeS1S
U0EgR2VuZXJhdGVkIENlcnRpZmljYXRlMB0GA1UdDgQWBBTGnMgi68pZFu/O9ISo
ynbsOe/2IDCB4QYDVR0jBIHZMIHWgBQSzWAE0qCAnnDtxpm4eyzGUv0ZoaGBsqSB
rzCBrDELMAkGA1UEBhMCVVMxCzAJBgNVBAgTAk9IMREwDwYDVQQHEwhDb2x1bWJ1
czESMBAGA1UEChMJVmlraW5nVlBOMR0wGwYDVQQLExRNeU9yZ2FuaXphdGlvbmFs
VW5pdDEVMBMGA1UEAxMMVmlraW5nVlBOIENBMRAwDgYDVQQpEwdFYXN5UlNBMSEw
HwYJKoZIhvcNAQkBFhJtZUBteWhvc3QubXlkb21haW6CCQDPNYXugL8qPjATBgNV
HSUEDDAKBggrBgEFBQcDAjALBgNVHQ8EBAMCB4AwDQYJKoZIhvcNAQEEBQADggIB
AEFuH7bfNWtTLHLZU9U23OwXeFcJY0qJ/FDEaXCpp/DZ2bWKbaH7Nm8JDTMvmyoV
K7X5iEQjl5J/fmGSB104ONFjlu62DRkP9YjHG0/XPO2ZBvVLh7RAierNJO9OUXqx
YZEl/O48y79oI4B+pnqCq/tuc9c8TvOuoB8rm+hDBZeLcgd4LxcDl5ejP8V5B4Kn
+0/sr98rAgDqvX/wDiIBW8o0kT3Cl+R6IM7G6C2HIzhIK4iRvjJSqScm09NnKf1S
FvzR2tf66y0sgnzbQwbl+1vRbIQj+ovWmFv+6UYsByFO9MU8D08u/5ERFazLG8EA
5B2t41TjfuwHxLHPQbxq7WbouIqTegiKhmYzEx1FauUT+ytJjSkmU7nlCo1FkxlC
uShYhElCBNewCr0eY6q/mobMWqQzhvOCAKZ8p79rLfDuz1cuKaMcTw6rse8DcrSG
hWF2yyD58FTQHHdOaM7HC1Ew3ZYCoy+0D/gmBhEaqD5D3lKiM3SJSM8YdbhWkbpN
FC9dy7rH+CwUxUXqrpvOx6asbzuvWP5+c7m6t3M/X5HpYutDHU2oQNG1Uul+XYNL
/d8FNfBx2W5VlFMaPBJ3o88OMTKqnk9Hcs96nsSYqHRHL0bWUdPLofjzSN14U++i
E008DMjleBg12Cx6ndiqgBs6BLDSkGQ0lJgxE+73nB8i
-----END CERTIFICATE-----
