Certificate:
    Data:
        Version: 3 (0x2)
        Serial Number: 396 (0x18c)
    Signature Algorithm: md5WithRSAEncryption
        Issuer: C=US, ST=OH, L=Columbus, O=VikingVPN, OU=MyOrganizationalUnit, CN=VikingVPN CA/name=EasyRSA/emailAddress=me@myhost.mydomain
        Validity
            Not Before: Nov 10 23:07:27 2013 GMT
            Not After : Nov  8 23:07:27 2023 GMT
        Subject: CN=Client149Cert84ed77
        Subject Public Key Info:
            Public Key Algorithm: rsaEncryption
                Public-Key: (4096 bit)
                Modulus:
                    00:a5:64:30:86:c3:4a:3c:41:e8:48:40:3d:24:ca:
                    95:db:60:2a:af:f7:24:5b:89:05:4e:e7:95:1a:14:
                    96:0c:ce:5a:78:02:46:af:24:59:1f:fd:6a:38:8d:
                    02:83:df:22:59:22:e6:f2:8b:bf:4d:42:0f:31:46:
                    71:12:2b:ae:ce:fc:99:da:26:b1:cc:c6:bb:05:0c:
                    3f:bc:dc:a8:df:9c:94:51:f7:df:29:6f:8d:82:56:
                    b8:33:7c:78:5a:67:29:80:84:a6:3a:7a:a2:43:a9:
                    77:8c:98:3e:a1:4d:1c:85:55:c7:69:6e:84:59:d6:
                    5c:b1:73:85:ef:69:c9:76:f1:cf:cb:17:f1:85:c6:
                    de:05:3b:cc:7b:ff:3a:05:0d:2c:fd:d3:b6:5c:d7:
                    44:07:df:ee:90:5a:6e:e1:69:2f:af:a1:21:8c:ae:
                    ef:f9:68:d7:93:ff:12:86:6c:f6:96:4f:9a:3e:c0:
                    44:5e:a2:a7:bc:e4:87:f9:21:a5:a4:d2:19:fa:ba:
                    9a:fc:02:1f:77:64:ee:6c:43:d0:8b:07:e0:d0:b0:
                    69:f9:58:e7:25:55:a1:05:7d:4a:14:c1:eb:91:90:
                    2c:bd:c6:8f:ed:cf:9d:93:ec:c0:f8:2f:23:27:b3:
                    c4:cb:1d:f1:9c:68:51:d0:c0:f9:b4:98:05:81:1c:
                    9e:81:68:c9:cf:37:da:bd:bf:c5:89:11:a6:36:1d:
                    d9:6e:42:08:93:98:04:1e:74:de:fb:54:c7:30:43:
                    5c:62:c8:52:ee:66:19:7f:d9:f5:7e:34:8c:77:01:
                    57:98:8e:f4:0e:91:e6:01:cb:3f:29:f3:43:ca:85:
                    dc:95:a3:3f:51:67:cf:e4:e3:c7:c9:45:c5:41:23:
                    c1:92:bd:c9:e8:1c:f1:04:82:d6:0c:19:0d:44:11:
                    97:d9:b9:55:d4:3c:7c:f6:9e:b7:96:f4:dc:48:04:
                    f6:60:9c:2f:8e:3e:df:04:bf:4d:93:b3:22:49:1d:
                    a8:2c:ef:5c:40:85:2a:84:3a:77:67:75:41:6b:8e:
                    73:51:17:f8:56:f2:c8:9f:df:88:6d:52:dc:4d:fa:
                    98:0a:4c:62:11:53:be:7a:c0:f8:3a:46:60:39:5e:
                    5a:db:4c:61:57:a2:5b:45:23:a9:cc:68:7d:94:f5:
                    9b:66:d8:10:f1:c5:61:39:e2:34:8b:b8:61:68:b2:
                    08:bc:0b:c8:89:4d:57:da:7b:e8:de:6a:83:94:40:
                    bb:db:07:23:fb:f0:f0:f8:a6:62:53:ea:e3:b4:94:
                    51:ff:e1:40:e8:f0:b6:22:36:d6:ed:5c:01:6a:96:
                    02:b7:98:56:a2:82:f0:33:db:d0:18:6f:ea:6c:91:
                    b6:d1:af
                Exponent: 65537 (0x10001)
        X509v3 extensions:
            X509v3 Basic Constraints: 
                CA:FALSE
            Netscape Comment: 
                Easy-RSA Generated Certificate
            X509v3 Subject Key Identifier: 
                3C:5D:A0:B1:D3:CF:0F:15:13:F4:AE:76:9F:B1:2B:E5:FF:70:9B:EC
            X509v3 Authority Key Identifier: 
                keyid:12:CD:60:04:D2:A0:80:9E:70:ED:C6:99:B8:7B:2C:C6:52:FD:19:A1
                DirName:/C=US/ST=OH/L=Columbus/O=VikingVPN/OU=MyOrganizationalUnit/CN=VikingVPN CA/name=EasyRSA/emailAddress=me@myhost.mydomain
                serial:CF:35:85:EE:80:BF:2A:3E

            X509v3 Extended Key Usage: 
                TLS Web Client Authentication
            X509v3 Key Usage: 
                Digital Signature
    Signature Algorithm: md5WithRSAEncryption
         bf:a9:03:2a:ac:46:dc:33:a8:32:dd:b9:bb:78:9e:8d:8f:42:
         d5:9e:9d:6e:64:8f:ae:6e:40:32:cd:de:a6:ce:58:c0:62:51:
         ea:8f:6d:96:0b:5f:8b:f9:22:66:46:7e:56:b7:57:47:7a:76:
         f6:cd:99:54:d6:ce:d6:9f:36:ca:c1:49:25:98:9c:68:7f:2a:
         40:50:29:9d:8f:19:e7:79:fb:5e:c0:10:b8:b9:80:75:54:b9:
         f1:4b:f9:c0:c1:0d:c5:a4:c7:d3:b1:b9:2f:cb:5f:86:dd:f9:
         68:05:f8:88:d2:8b:70:06:b3:a8:5e:94:35:73:1f:2e:64:51:
         5c:88:3e:b1:83:8b:a9:96:60:76:70:fe:40:59:53:7f:b2:e2:
         e6:cd:c8:dd:e7:f0:b7:6f:60:fc:ba:d6:4b:6d:b0:79:5f:57:
         ff:24:22:84:65:62:68:3c:43:73:fe:ad:ae:b8:87:42:83:a9:
         10:be:dc:49:2d:61:51:e9:2a:d0:26:8c:6c:22:e1:92:96:1b:
         eb:3a:f6:e3:73:3f:ab:e6:75:12:e9:47:f6:13:50:21:ad:68:
         a4:02:81:65:35:60:ae:fa:71:b8:a9:ff:74:64:71:a6:ab:e3:
         02:06:a6:2c:71:65:49:7f:64:4f:29:37:1c:06:16:87:f8:10:
         05:80:90:01:86:37:50:35:c2:db:fd:00:84:1f:79:92:6c:07:
         ec:2c:d1:38:14:45:99:e8:19:d0:bd:1d:b0:8c:c6:5a:b6:38:
         13:1f:01:cc:be:83:56:a9:ce:49:9d:fa:6d:3e:59:23:8c:38:
         5e:57:90:a0:98:74:d0:1f:7c:78:4e:c0:95:b7:f8:21:cb:b2:
         9b:d5:a8:cf:c3:db:b4:63:a1:09:61:7d:ce:5e:c6:14:9a:f7:
         5c:65:78:d2:d5:f4:ea:17:71:dc:bb:6c:bd:56:62:35:80:b8:
         a7:a2:fa:45:23:c7:f5:aa:a6:40:ac:03:08:ad:84:df:39:66:
         00:d8:bb:c4:31:a6:ee:87:02:c0:a4:04:7c:34:e2:31:8c:88:
         05:05:4a:de:a7:fc:b4:47:58:03:dc:36:7a:33:0b:8a:b1:f9:
         8b:88:cc:d3:3e:0a:93:80:af:0b:c7:9e:b0:81:75:7b:1f:cd:
         2a:a8:bf:62:32:a9:1f:68:ec:47:3a:00:c7:29:f9:00:ed:86:
         e8:68:e6:fe:02:e0:1b:96:10:ac:c2:ad:33:32:2b:97:cd:69:
         c8:ef:78:54:d8:b2:d6:f6:34:1e:96:24:b4:39:98:29:5e:93:
         30:be:ae:93:c0:22:b8:be:41:dc:37:b4:58:ee:10:c2:63:03:
         c3:e6:78:28:14:1d:f6:6c
-----BEGIN CERTIFICATE-----
MIIGrDCCBJSgAwIBAgICAYwwDQYJKoZIhvcNAQEEBQAwgawxCzAJBgNVBAYTAlVT
MQswCQYDVQQIEwJPSDERMA8GA1UEBxMIQ29sdW1idXMxEjAQBgNVBAoTCVZpa2lu
Z1ZQTjEdMBsGA1UECxMUTXlPcmdhbml6YXRpb25hbFVuaXQxFTATBgNVBAMTDFZp
a2luZ1ZQTiBDQTEQMA4GA1UEKRMHRWFzeVJTQTEhMB8GCSqGSIb3DQEJARYSbWVA
bXlob3N0Lm15ZG9tYWluMB4XDTEzMTExMDIzMDcyN1oXDTIzMTEwODIzMDcyN1ow
HjEcMBoGA1UEAxMTQ2xpZW50MTQ5Q2VydDg0ZWQ3NzCCAiIwDQYJKoZIhvcNAQEB
BQADggIPADCCAgoCggIBAKVkMIbDSjxB6EhAPSTKldtgKq/3JFuJBU7nlRoUlgzO
WngCRq8kWR/9ajiNAoPfIlki5vKLv01CDzFGcRIrrs78mdomsczGuwUMP7zcqN+c
lFH33ylvjYJWuDN8eFpnKYCEpjp6okOpd4yYPqFNHIVVx2luhFnWXLFzhe9pyXbx
z8sX8YXG3gU7zHv/OgUNLP3TtlzXRAff7pBabuFpL6+hIYyu7/lo15P/EoZs9pZP
mj7ARF6ip7zkh/khpaTSGfq6mvwCH3dk7mxD0IsH4NCwaflY5yVVoQV9ShTB65GQ
LL3Gj+3PnZPswPgvIyezxMsd8ZxoUdDA+bSYBYEcnoFoyc832r2/xYkRpjYd2W5C
CJOYBB503vtUxzBDXGLIUu5mGX/Z9X40jHcBV5iO9A6R5gHLPynzQ8qF3JWjP1Fn
z+Tjx8lFxUEjwZK9yegc8QSC1gwZDUQRl9m5VdQ8fPaet5b03EgE9mCcL44+3wS/
TZOzIkkdqCzvXECFKoQ6d2d1QWuOc1EX+FbyyJ/fiG1S3E36mApMYhFTvnrA+DpG
YDleWttMYVeiW0UjqcxofZT1m2bYEPHFYTniNIu4YWiyCLwLyIlNV9p76N5qg5RA
u9sHI/vw8PimYlPq47SUUf/hQOjwtiI21u1cAWqWAreYVqKC8DPb0Bhv6myRttGv
AgMBAAGjggFjMIIBXzAJBgNVHRMEAjAAMC0GCWCGSAGG+EIBDQQgFh5FYXN5LVJT
QSBHZW5lcmF0ZWQgQ2VydGlmaWNhdGUwHQYDVR0OBBYEFDxdoLHTzw8VE/Sudp+x
K+X/cJvsMIHhBgNVHSMEgdkwgdaAFBLNYATSoICecO3Gmbh7LMZS/RmhoYGypIGv
MIGsMQswCQYDVQQGEwJVUzELMAkGA1UECBMCT0gxETAPBgNVBAcTCENvbHVtYnVz
MRIwEAYDVQQKEwlWaWtpbmdWUE4xHTAbBgNVBAsTFE15T3JnYW5pemF0aW9uYWxV
bml0MRUwEwYDVQQDEwxWaWtpbmdWUE4gQ0ExEDAOBgNVBCkTB0Vhc3lSU0ExITAf
BgkqhkiG9w0BCQEWEm1lQG15aG9zdC5teWRvbWFpboIJAM81he6Avyo+MBMGA1Ud
JQQMMAoGCCsGAQUFBwMCMAsGA1UdDwQEAwIHgDANBgkqhkiG9w0BAQQFAAOCAgEA
v6kDKqxG3DOoMt25u3iejY9C1Z6dbmSPrm5AMs3eps5YwGJR6o9tlgtfi/kiZkZ+
VrdXR3p29s2ZVNbO1p82ysFJJZicaH8qQFApnY8Z53n7XsAQuLmAdVS58Uv5wMEN
xaTH07G5L8tfht35aAX4iNKLcAazqF6UNXMfLmRRXIg+sYOLqZZgdnD+QFlTf7Li
5s3I3efwt29g/LrWS22weV9X/yQihGViaDxDc/6trriHQoOpEL7cSS1hUekq0CaM
bCLhkpYb6zr243M/q+Z1EulH9hNQIa1opAKBZTVgrvpxuKn/dGRxpqvjAgamLHFl
SX9kTyk3HAYWh/gQBYCQAYY3UDXC2/0AhB95kmwH7CzROBRFmegZ0L0dsIzGWrY4
Ex8BzL6DVqnOSZ36bT5ZI4w4XleQoJh00B98eE7Albf4Icuym9Woz8PbtGOhCWF9
zl7GFJr3XGV40tX06hdx3LtsvVZiNYC4p6L6RSPH9aqmQKwDCK2E3zlmANi7xDGm
7ocCwKQEfDTiMYyIBQVK3qf8tEdYA9w2ejMLirH5i4jM0z4Kk4CvC8eesIF1ex/N
Kqi/YjKpH2jsRzoAxyn5AO2G6Gjm/gLgG5YQrMKtMzIrl81pyO94VNiy1vY0HpYk
tDmYKV6TML6uk8AiuL5B3De0WO4QwmMDw+Z4KBQd9mw=
-----END CERTIFICATE-----
