Certificate:
    Data:
        Version: 3 (0x2)
        Serial Number: 6098 (0x17d2)
    Signature Algorithm: md5WithRSAEncryption
        Issuer: C=US, ST=OH, L=Columbus, O=VikingVPN, OU=MyOrganizationalUnit, CN=VikingVPN CA/name=EasyRSA/emailAddress=me@myhost.mydomain
        Validity
            Not Before: Aug 20 19:49:40 2015 GMT
            Not After : Aug 17 19:49:40 2025 GMT
        Subject: CN=Client548Cert2fba73
        Subject Public Key Info:
            Public Key Algorithm: rsaEncryption
                Public-Key: (4096 bit)
                Modulus:
                    00:fc:6b:99:71:d9:f9:98:f8:c2:e0:5a:10:f9:a2:
                    2e:a7:90:bf:95:f5:8a:b3:f5:f3:1b:2b:42:8a:b0:
                    ba:1d:4b:b5:cd:9f:0a:df:81:1d:19:8b:77:d3:8e:
                    15:a4:9f:40:fb:1c:ca:05:a9:06:74:86:c3:3b:2d:
                    37:6f:e9:1b:8b:09:56:af:67:e0:11:b0:5d:39:d9:
                    19:b7:3c:17:2e:fc:25:e6:9d:5a:96:c6:01:b3:fe:
                    fb:28:5c:81:03:ae:35:96:69:33:bf:86:40:84:0d:
                    b4:19:99:21:18:59:c0:e2:87:4b:9e:ed:8c:2b:31:
                    94:00:2d:9c:49:3a:6b:9d:e6:57:f9:be:58:1c:51:
                    a5:99:c1:c0:83:75:49:34:28:99:b0:85:91:5e:e7:
                    4c:bf:f4:2a:88:09:dc:35:7d:bc:08:63:83:7c:9d:
                    bc:78:d0:97:2b:14:7c:4c:83:62:7b:a4:56:ed:11:
                    dc:6f:f2:8d:4a:ce:95:27:56:9e:00:3b:c6:38:ba:
                    9b:9e:4e:9b:51:55:ab:36:87:dc:a3:3a:1c:f4:fd:
                    81:e0:cc:de:3e:84:38:90:b9:7f:91:ab:11:b0:a5:
                    e2:d7:2a:b6:b8:33:e1:42:ac:b1:bc:52:51:b3:0d:
                    5c:06:8b:28:be:64:d6:3f:ea:a5:37:c8:96:dc:1c:
                    b9:d0:a8:d6:a4:83:06:ab:e3:5f:bc:23:ec:42:d8:
                    5f:58:22:63:4f:93:f7:87:a3:8b:88:66:a0:e0:38:
                    f3:fd:db:31:40:4d:04:d3:a9:a7:f4:12:8f:0b:a4:
                    2c:fb:b5:11:7b:19:f0:26:69:61:88:15:82:4c:c4:
                    23:ee:5c:7a:89:26:92:b9:54:3a:4d:92:8a:89:11:
                    6f:95:8a:e7:69:fa:5e:6f:f7:92:1a:54:ab:94:cb:
                    ff:5e:62:77:36:80:b5:23:2c:3b:dd:6a:6a:a1:5e:
                    65:b9:f2:da:be:1f:a5:78:ff:0a:23:fb:ef:c0:e6:
                    b3:9d:64:42:cf:92:cb:c8:56:4a:d0:11:3f:d9:e1:
                    ce:2e:f0:db:99:f9:ab:e2:55:da:cc:ab:6c:e1:79:
                    dc:b0:29:82:97:f0:e3:06:94:51:3f:e6:76:70:96:
                    1e:4d:73:f5:40:a3:d6:e3:b6:ce:54:67:d3:52:4c:
                    d6:87:4d:e7:0e:3a:bf:5f:8d:d5:d8:5a:da:29:23:
                    08:a8:39:83:fd:62:44:b6:87:6f:f6:f2:09:63:2d:
                    a7:09:f5:8d:9a:96:b9:be:09:bc:bd:ef:cb:69:f3:
                    78:c6:4d:64:e0:41:97:61:4f:e7:cb:29:16:81:93:
                    40:3c:25:64:49:16:42:5b:56:b8:d6:49:77:0d:77:
                    65:b3:e3
                Exponent: 65537 (0x10001)
        X509v3 extensions:
            X509v3 Basic Constraints: 
                CA:FALSE
            Netscape Comment: 
                Easy-RSA Generated Certificate
            X509v3 Subject Key Identifier: 
                38:BF:FD:F0:B4:E6:1A:DE:C2:95:BC:B7:85:FE:1A:93:78:5C:46:38
            X509v3 Authority Key Identifier: 
                keyid:12:CD:60:04:D2:A0:80:9E:70:ED:C6:99:B8:7B:2C:C6:52:FD:19:A1
                DirName:/C=US/ST=OH/L=Columbus/O=VikingVPN/OU=MyOrganizationalUnit/CN=VikingVPN CA/name=EasyRSA/emailAddress=me@myhost.mydomain
                serial:CF:35:85:EE:80:BF:2A:3E

            X509v3 Extended Key Usage: 
                TLS Web Client Authentication
            X509v3 Key Usage: 
                Digital Signature
    Signature Algorithm: md5WithRSAEncryption
         a9:fa:39:d6:3e:43:0a:c4:6e:e7:1b:c0:bd:e2:b2:9f:4a:35:
         ff:b4:8d:8c:6c:9f:c6:d9:1b:3e:c8:58:ea:a2:75:a9:54:37:
         7a:c7:28:80:e9:21:f4:83:ce:85:0f:35:3a:c8:91:bd:af:34:
         f6:a8:58:f5:d8:f0:c8:33:4a:53:39:d6:f3:d2:35:9d:65:5d:
         9b:37:af:b3:b0:3c:5e:52:3f:29:6d:8a:c8:c3:bf:f0:23:85:
         a1:8d:68:de:0d:d9:74:b6:85:69:f8:76:10:36:ca:5b:c0:54:
         c0:e8:9b:74:c9:71:7d:7c:f7:f7:ef:26:3f:9f:ff:8b:2b:a6:
         24:5f:d2:fb:39:2a:4f:2c:0b:0e:02:4e:58:2d:b7:13:0d:8c:
         fe:99:10:b1:0d:b6:ad:49:a6:01:7a:35:a7:37:4d:b1:de:60:
         24:88:8e:84:47:3b:59:f4:56:cb:7d:01:f5:aa:49:59:cc:5a:
         36:f3:d0:1c:3b:35:82:cd:13:94:79:e7:1d:13:b4:56:b9:3c:
         d3:42:8f:57:f4:55:dd:6a:d0:2e:0d:d2:b5:52:a3:98:45:3e:
         50:65:72:4b:49:33:8f:3c:2e:bd:6b:9e:cc:f1:ea:3d:15:13:
         7a:8d:17:ad:fd:3f:6f:ed:d8:0e:ee:28:b7:8b:90:2d:82:01:
         3b:41:4d:82:65:fd:91:c3:dd:d6:77:64:76:1e:7f:c7:ea:41:
         b6:14:b1:b7:53:07:70:79:c6:7a:e4:10:c6:c3:44:88:38:99:
         e2:6c:26:cb:20:26:46:00:e0:c4:1c:c6:1a:2c:f7:19:d8:a5:
         5f:f8:cc:56:d1:f9:ca:45:16:f9:03:00:6a:98:71:4b:94:da:
         3d:2d:a5:ee:aa:f8:3e:f8:fc:80:c5:f5:8b:f5:b8:ef:81:67:
         00:53:34:21:78:46:52:64:ce:00:82:df:5c:7a:55:4e:e2:0f:
         97:46:d8:14:2a:da:6b:28:4e:ba:27:63:a4:7c:54:cd:66:c0:
         95:dc:ba:3a:2c:24:e7:df:42:66:9b:0b:ad:8f:f1:37:2a:0b:
         68:ba:18:61:f6:e6:59:b7:cb:a9:da:77:83:5d:76:4a:1b:b4:
         03:a3:47:ae:fe:19:df:af:b4:68:d4:a3:37:28:7d:a9:7e:c8:
         bf:e8:6a:e8:2d:c9:9a:bc:d8:c8:fd:68:cb:e6:24:fb:07:fa:
         52:03:5f:2d:c1:44:21:91:ee:31:a4:fc:5c:82:80:1c:a8:0e:
         8b:d4:cc:60:bf:32:c2:19:48:62:37:f4:b4:23:24:24:41:67:
         ec:46:f4:3f:fc:c7:a2:78:33:4a:1a:c9:b7:69:ce:82:d2:2b:
         49:bf:3a:3b:46:a8:f1:fb
-----BEGIN CERTIFICATE-----
MIIGrDCCBJSgAwIBAgICF9IwDQYJKoZIhvcNAQEEBQAwgawxCzAJBgNVBAYTAlVT
MQswCQYDVQQIEwJPSDERMA8GA1UEBxMIQ29sdW1idXMxEjAQBgNVBAoTCVZpa2lu
Z1ZQTjEdMBsGA1UECxMUTXlPcmdhbml6YXRpb25hbFVuaXQxFTATBgNVBAMTDFZp
a2luZ1ZQTiBDQTEQMA4GA1UEKRMHRWFzeVJTQTEhMB8GCSqGSIb3DQEJARYSbWVA
bXlob3N0Lm15ZG9tYWluMB4XDTE1MDgyMDE5NDk0MFoXDTI1MDgxNzE5NDk0MFow
HjEcMBoGA1UEAxMTQ2xpZW50NTQ4Q2VydDJmYmE3MzCCAiIwDQYJKoZIhvcNAQEB
BQADggIPADCCAgoCggIBAPxrmXHZ+Zj4wuBaEPmiLqeQv5X1irP18xsrQoqwuh1L
tc2fCt+BHRmLd9OOFaSfQPscygWpBnSGwzstN2/pG4sJVq9n4BGwXTnZGbc8Fy78
JeadWpbGAbP++yhcgQOuNZZpM7+GQIQNtBmZIRhZwOKHS57tjCsxlAAtnEk6a53m
V/m+WBxRpZnBwIN1STQombCFkV7nTL/0KogJ3DV9vAhjg3ydvHjQlysUfEyDYnuk
Vu0R3G/yjUrOlSdWngA7xji6m55Om1FVqzaH3KM6HPT9geDM3j6EOJC5f5GrEbCl
4tcqtrgz4UKssbxSUbMNXAaLKL5k1j/qpTfIltwcudCo1qSDBqvjX7wj7ELYX1gi
Y0+T94eji4hmoOA48/3bMUBNBNOpp/QSjwukLPu1EXsZ8CZpYYgVgkzEI+5ceokm
krlUOk2SiokRb5WK52n6Xm/3khpUq5TL/15idzaAtSMsO91qaqFeZbny2r4fpXj/
CiP778Dms51kQs+Sy8hWStARP9nhzi7w25n5q+JV2syrbOF53LApgpfw4waUUT/m
dnCWHk1z9UCj1uO2zlRn01JM1odN5w46v1+N1dha2ikjCKg5g/1iRLaHb/byCWMt
pwn1jZqWub4JvL3vy2nzeMZNZOBBl2FP58spFoGTQDwlZEkWQltWuNZJdw13ZbPj
AgMBAAGjggFjMIIBXzAJBgNVHRMEAjAAMC0GCWCGSAGG+EIBDQQgFh5FYXN5LVJT
QSBHZW5lcmF0ZWQgQ2VydGlmaWNhdGUwHQYDVR0OBBYEFDi//fC05hrewpW8t4X+
GpN4XEY4MIHhBgNVHSMEgdkwgdaAFBLNYATSoICecO3Gmbh7LMZS/RmhoYGypIGv
MIGsMQswCQYDVQQGEwJVUzELMAkGA1UECBMCT0gxETAPBgNVBAcTCENvbHVtYnVz
MRIwEAYDVQQKEwlWaWtpbmdWUE4xHTAbBgNVBAsTFE15T3JnYW5pemF0aW9uYWxV
bml0MRUwEwYDVQQDEwxWaWtpbmdWUE4gQ0ExEDAOBgNVBCkTB0Vhc3lSU0ExITAf
BgkqhkiG9w0BCQEWEm1lQG15aG9zdC5teWRvbWFpboIJAM81he6Avyo+MBMGA1Ud
JQQMMAoGCCsGAQUFBwMCMAsGA1UdDwQEAwIHgDANBgkqhkiG9w0BAQQFAAOCAgEA
qfo51j5DCsRu5xvAveKyn0o1/7SNjGyfxtkbPshY6qJ1qVQ3escogOkh9IPOhQ81
OsiRva809qhY9djwyDNKUznW89I1nWVdmzevs7A8XlI/KW2KyMO/8COFoY1o3g3Z
dLaFafh2EDbKW8BUwOibdMlxfXz39+8mP5//iyumJF/S+zkqTywLDgJOWC23Ew2M
/pkQsQ22rUmmAXo1pzdNsd5gJIiOhEc7WfRWy30B9apJWcxaNvPQHDs1gs0TlHnn
HRO0Vrk800KPV/RV3WrQLg3StVKjmEU+UGVyS0kzjzwuvWuezPHqPRUTeo0Xrf0/
b+3YDu4ot4uQLYIBO0FNgmX9kcPd1ndkdh5/x+pBthSxt1MHcHnGeuQQxsNEiDiZ
4mwmyyAmRgDgxBzGGiz3GdilX/jMVtH5ykUW+QMAaphxS5TaPS2l7qr4Pvj8gMX1
i/W474FnAFM0IXhGUmTOAILfXHpVTuIPl0bYFCraayhOuidjpHxUzWbAldy6Oiwk
599CZpsLrY/xNyoLaLoYYfbmWbfLqdp3g112Shu0A6NHrv4Z36+0aNSjNyh9qX7I
v+hq6C3JmrzYyP1oy+Yk+wf6UgNfLcFEIZHuMaT8XIKAHKgOi9TMYL8ywhlIYjf0
tCMkJEFn7Eb0P/zHongzShrJt2nOgtIrSb86O0ao8fs=
-----END CERTIFICATE-----
