Certificate:
    Data:
        Version: 3 (0x2)
        Serial Number: 7361 (0x1cc1)
    Signature Algorithm: md5WithRSAEncryption
        Issuer: C=US, ST=OH, L=Columbus, O=VikingVPN, OU=MyOrganizationalUnit, CN=VikingVPN CA/name=EasyRSA/emailAddress=me@myhost.mydomain
        Validity
            Not Before: Mar  1 07:02:30 2016 GMT
            Not After : Feb 27 07:02:30 2026 GMT
        Subject: CN=Client2206Cert2be415
        Subject Public Key Info:
            Public Key Algorithm: rsaEncryption
                Public-Key: (4096 bit)
                Modulus:
                    00:c4:dc:90:3e:e0:4d:de:8e:04:63:d9:ef:f9:d0:
                    21:47:27:9b:8a:17:3f:53:5a:77:42:9a:6d:82:f8:
                    fb:64:b8:e6:57:29:4d:6e:d8:60:7c:85:3c:38:36:
                    19:a9:ba:fb:d2:52:e5:51:d9:bd:72:55:57:61:dc:
                    3b:f2:c8:ae:a9:6d:cf:9a:43:83:8f:3d:3c:0d:cf:
                    ef:49:3b:a1:aa:d0:3d:fc:57:9a:a6:88:2b:0e:a4:
                    3a:57:74:e4:51:c4:3f:80:24:f7:a9:34:69:3a:84:
                    0d:63:b5:61:f2:69:29:30:ff:88:71:75:9b:35:e6:
                    a9:2e:44:5a:34:97:bc:29:75:23:9f:55:82:10:8d:
                    1d:93:dd:02:ad:b1:78:30:cb:97:cd:29:19:c8:9f:
                    66:5a:7c:77:7b:6e:1a:19:f6:84:87:2c:9f:ec:51:
                    6c:65:67:3a:c5:5f:b3:cf:50:8e:2a:14:a5:b0:da:
                    8c:8f:dc:86:dd:47:46:00:17:8f:ad:65:2a:ba:bf:
                    8e:54:c6:0d:93:8d:31:f6:62:7b:24:03:3f:59:4e:
                    41:65:9c:7d:e8:13:e7:ad:a1:bf:b0:8a:51:04:df:
                    8e:c4:64:7f:0e:9e:4c:30:ff:e2:79:78:94:aa:27:
                    07:a7:67:1a:d7:82:90:8d:6a:9d:49:2f:8d:8a:df:
                    5c:3e:95:cc:32:c4:55:d2:fa:ea:9d:6b:05:c1:fb:
                    4d:0d:f0:a7:56:9a:61:7a:12:79:e5:5b:70:3b:aa:
                    99:b2:38:e8:88:03:f5:d0:d5:a4:0a:5a:23:af:c9:
                    35:d4:aa:f1:0c:a0:43:1a:5a:15:f0:39:9e:ac:e1:
                    cb:17:02:e5:aa:ff:b1:47:58:68:22:e4:c2:5b:18:
                    d4:4b:15:80:4a:12:1b:31:8d:df:9e:71:84:31:a6:
                    48:eb:98:c0:19:92:80:79:f7:56:39:ff:1c:b6:3b:
                    aa:07:72:55:ea:0f:5c:dc:d8:3d:f3:bb:d4:81:45:
                    18:04:65:1a:88:fc:9f:ff:7b:92:83:50:d5:68:ca:
                    ad:a4:30:24:85:c9:ed:58:28:e2:33:6d:a8:a0:c5:
                    17:80:59:3f:33:f3:2d:ae:4c:e2:f4:96:03:5e:31:
                    58:17:0d:7e:18:c2:e1:f0:b0:d1:16:50:0f:9a:91:
                    76:fc:54:8b:6c:5b:bf:51:b2:e5:74:e7:c7:09:22:
                    38:1f:f0:68:09:50:50:6f:58:18:76:38:d0:fb:90:
                    18:c5:70:6d:b4:48:90:f2:e4:21:63:ee:4b:85:f8:
                    16:e8:c1:70:af:d9:d7:f0:83:82:ad:e1:57:fd:75:
                    e3:84:8d:9f:d4:cc:d5:49:40:b9:88:1f:e5:88:72:
                    d2:5e:13
                Exponent: 65537 (0x10001)
        X509v3 extensions:
            X509v3 Basic Constraints: 
                CA:FALSE
            Netscape Comment: 
                Easy-RSA Generated Certificate
            X509v3 Subject Key Identifier: 
                59:9F:D9:C9:4B:06:A4:95:7B:1B:9C:10:3E:3F:35:66:28:66:87:3D
            X509v3 Authority Key Identifier: 
                keyid:12:CD:60:04:D2:A0:80:9E:70:ED:C6:99:B8:7B:2C:C6:52:FD:19:A1
                DirName:/C=US/ST=OH/L=Columbus/O=VikingVPN/OU=MyOrganizationalUnit/CN=VikingVPN CA/name=EasyRSA/emailAddress=me@myhost.mydomain
                serial:CF:35:85:EE:80:BF:2A:3E

            X509v3 Extended Key Usage: 
                TLS Web Client Authentication
            X509v3 Key Usage: 
                Digital Signature
    Signature Algorithm: md5WithRSAEncryption
         89:a0:8f:0a:4d:5f:16:55:3e:93:44:48:55:67:be:3a:58:dc:
         64:5e:d4:2f:c1:71:96:7d:32:ea:4a:a2:70:a1:f4:26:15:e8:
         a0:b9:27:9e:af:e2:05:ad:23:e3:d0:d6:b6:f9:66:a4:5c:1e:
         a1:5e:03:37:af:cc:16:f9:71:8f:c0:d8:b3:34:4e:11:5a:37:
         f7:82:11:f9:fb:6d:4f:c7:f5:0c:39:17:47:a1:ff:45:b3:06:
         8f:80:53:6a:b2:70:8e:18:d2:94:4f:98:d9:71:4f:ce:f2:ee:
         03:f5:46:6e:2f:6b:b9:e5:26:9e:1a:b7:5f:49:f8:03:e8:94:
         3d:d1:e4:55:94:51:cb:dd:b9:06:88:e2:2d:91:97:d9:a0:b0:
         dd:ae:3d:85:74:10:e8:96:a5:90:fc:ed:ac:c9:02:c0:4b:63:
         ad:7e:92:95:81:ca:ff:51:c6:96:39:b1:5f:60:25:11:c7:42:
         96:08:57:65:16:44:11:ee:b3:84:b0:f6:9c:27:de:0d:04:22:
         17:27:c7:23:76:bd:02:91:15:83:a9:56:21:bf:a0:9f:30:a6:
         d8:44:1b:3a:2c:c4:92:51:e1:07:51:7e:7a:c0:17:3b:a9:22:
         28:c0:c1:42:14:00:87:1a:79:59:0c:73:e0:bc:8b:ce:6f:c1:
         ee:5f:b4:3b:84:ab:0a:b3:10:32:3c:91:d5:60:a6:1a:81:4b:
         23:1f:12:d5:02:e2:55:7d:29:41:3b:4a:75:8c:55:36:9d:82:
         c2:86:4f:0c:8e:09:69:8d:2d:a1:4a:0b:cf:b2:62:fb:41:0b:
         2a:cf:b0:81:ce:88:25:8f:0f:93:b3:8f:da:30:d3:6f:53:c0:
         d3:6b:32:f3:25:65:11:b8:e7:ba:06:57:b8:7c:f5:ca:be:ad:
         4a:94:22:17:55:5d:62:5a:00:fa:cc:e9:1e:e0:05:74:7a:3f:
         41:89:2c:2d:2d:42:70:bf:94:19:5d:b1:06:a2:64:42:dd:64:
         ad:14:4c:4c:96:27:74:00:69:92:51:26:1c:4b:80:f7:f0:4a:
         96:c4:2f:9a:2b:d0:28:46:28:1c:78:07:65:90:03:d9:94:94:
         70:fb:63:a5:0c:cc:fb:c7:20:e0:70:cc:8a:bd:8c:df:3d:cb:
         f0:d9:6e:66:13:d1:8a:01:34:64:04:7a:13:eb:dd:69:4a:e9:
         c5:d5:66:2a:f3:32:d1:06:7d:7b:76:4f:d9:c8:bb:f3:7d:66:
         e4:05:e2:ca:8c:8d:7a:43:5e:98:84:e8:84:ac:26:09:b5:f9:
         70:8f:90:46:5c:0f:79:96:3b:57:a0:a6:f1:d1:84:e2:60:2e:
         21:58:01:dc:26:95:2a:db
-----BEGIN CERTIFICATE-----
MIIGrTCCBJWgAwIBAgICHMEwDQYJKoZIhvcNAQEEBQAwgawxCzAJBgNVBAYTAlVT
MQswCQYDVQQIEwJPSDERMA8GA1UEBxMIQ29sdW1idXMxEjAQBgNVBAoTCVZpa2lu
Z1ZQTjEdMBsGA1UECxMUTXlPcmdhbml6YXRpb25hbFVuaXQxFTATBgNVBAMTDFZp
a2luZ1ZQTiBDQTEQMA4GA1UEKRMHRWFzeVJTQTEhMB8GCSqGSIb3DQEJARYSbWVA
bXlob3N0Lm15ZG9tYWluMB4XDTE2MDMwMTA3MDIzMFoXDTI2MDIyNzA3MDIzMFow
HzEdMBsGA1UEAxMUQ2xpZW50MjIwNkNlcnQyYmU0MTUwggIiMA0GCSqGSIb3DQEB
AQUAA4ICDwAwggIKAoICAQDE3JA+4E3ejgRj2e/50CFHJ5uKFz9TWndCmm2C+Ptk
uOZXKU1u2GB8hTw4NhmpuvvSUuVR2b1yVVdh3DvyyK6pbc+aQ4OPPTwNz+9JO6Gq
0D38V5qmiCsOpDpXdORRxD+AJPepNGk6hA1jtWHyaSkw/4hxdZs15qkuRFo0l7wp
dSOfVYIQjR2T3QKtsXgwy5fNKRnIn2ZafHd7bhoZ9oSHLJ/sUWxlZzrFX7PPUI4q
FKWw2oyP3IbdR0YAF4+tZSq6v45Uxg2TjTH2YnskAz9ZTkFlnH3oE+etob+wilEE
347EZH8Onkww/+J5eJSqJwenZxrXgpCNap1JL42K31w+lcwyxFXS+uqdawXB+00N
8KdWmmF6EnnlW3A7qpmyOOiIA/XQ1aQKWiOvyTXUqvEMoEMaWhXwOZ6s4csXAuWq
/7FHWGgi5MJbGNRLFYBKEhsxjd+ecYQxpkjrmMAZkoB591Y5/xy2O6oHclXqD1zc
2D3zu9SBRRgEZRqI/J//e5KDUNVoyq2kMCSFye1YKOIzbaigxReAWT8z8y2uTOL0
lgNeMVgXDX4YwuHwsNEWUA+akXb8VItsW79RsuV058cJIjgf8GgJUFBvWBh2OND7
kBjFcG20SJDy5CFj7kuF+BbowXCv2dfwg4Kt4Vf9deOEjZ/UzNVJQLmIH+WIctJe
EwIDAQABo4IBYzCCAV8wCQYDVR0TBAIwADAtBglghkgBhvhCAQ0EIBYeRWFzeS1S
U0EgR2VuZXJhdGVkIENlcnRpZmljYXRlMB0GA1UdDgQWBBRZn9nJSwaklXsbnBA+
PzVmKGaHPTCB4QYDVR0jBIHZMIHWgBQSzWAE0qCAnnDtxpm4eyzGUv0ZoaGBsqSB
rzCBrDELMAkGA1UEBhMCVVMxCzAJBgNVBAgTAk9IMREwDwYDVQQHEwhDb2x1bWJ1
czESMBAGA1UEChMJVmlraW5nVlBOMR0wGwYDVQQLExRNeU9yZ2FuaXphdGlvbmFs
VW5pdDEVMBMGA1UEAxMMVmlraW5nVlBOIENBMRAwDgYDVQQpEwdFYXN5UlNBMSEw
HwYJKoZIhvcNAQkBFhJtZUBteWhvc3QubXlkb21haW6CCQDPNYXugL8qPjATBgNV
HSUEDDAKBggrBgEFBQcDAjALBgNVHQ8EBAMCB4AwDQYJKoZIhvcNAQEEBQADggIB
AImgjwpNXxZVPpNESFVnvjpY3GRe1C/BcZZ9MupKonCh9CYV6KC5J56v4gWtI+PQ
1rb5ZqRcHqFeAzevzBb5cY/A2LM0ThFaN/eCEfn7bU/H9Qw5F0eh/0WzBo+AU2qy
cI4Y0pRPmNlxT87y7gP1Rm4va7nlJp4at19J+APolD3R5FWUUcvduQaI4i2Rl9mg
sN2uPYV0EOiWpZD87azJAsBLY61+kpWByv9RxpY5sV9gJRHHQpYIV2UWRBHus4Sw
9pwn3g0EIhcnxyN2vQKRFYOpViG/oJ8wpthEGzosxJJR4QdRfnrAFzupIijAwUIU
AIcaeVkMc+C8i85vwe5ftDuEqwqzEDI8kdVgphqBSyMfEtUC4lV9KUE7SnWMVTad
gsKGTwyOCWmNLaFKC8+yYvtBCyrPsIHOiCWPD5Ozj9ow029TwNNrMvMlZRG457oG
V7h89cq+rUqUIhdVXWJaAPrM6R7gBXR6P0GJLC0tQnC/lBldsQaiZELdZK0UTEyW
J3QAaZJRJhxLgPfwSpbEL5or0ChGKBx4B2WQA9mUlHD7Y6UMzPvHIOBwzIq9jN89
y/DZbmYT0YoBNGQEehPr3WlK6cXVZirzMtEGfXt2T9nIu/N9ZuQF4sqMjXpDXpiE
6ISsJgm1+XCPkEZcD3mWO1egpvHRhOJgLiFYAdwmlSrb
-----END CERTIFICATE-----
