Certificate:
    Data:
        Version: 3 (0x2)
        Serial Number: 12878 (0x324e)
    Signature Algorithm: sha256WithRSAEncryption
        Issuer: C=US, ST=OH, L=Columbus, O=VikingVPN, OU=MyOrganizationalUnit, CN=VikingVPN CA/name=EasyRSA/emailAddress=me@myhost.mydomain
        Validity
            Not Before: Apr  2 14:57:10 2018 GMT
            Not After : Mar 30 14:57:10 2028 GMT
        Subject: CN=Client3129Cert46ec8c
        Subject Public Key Info:
            Public Key Algorithm: rsaEncryption
                Public-Key: (4096 bit)
                Modulus:
                    00:ac:58:d6:d7:61:99:e4:2f:30:88:43:56:79:a8:
                    8e:97:ef:ee:b9:d9:75:a1:41:2e:e8:49:27:52:90:
                    ae:76:2c:2d:09:e1:7b:b1:ca:14:6a:d9:c9:39:52:
                    a1:20:43:8b:b9:5f:f9:90:d2:59:97:47:4e:f6:5d:
                    13:54:a8:9d:e9:c4:65:78:95:4d:9f:16:9d:01:95:
                    0c:ab:1f:2a:11:05:b1:b4:0c:5c:4d:db:b7:97:ec:
                    17:d0:71:0e:71:60:8a:b6:41:21:69:8d:a9:e5:6e:
                    9e:a9:97:4a:8e:16:e4:68:05:ee:c6:e3:f3:65:a6:
                    d4:c4:26:bf:20:95:1d:24:ea:70:49:5a:15:7c:19:
                    7c:2d:9b:d1:22:94:a0:e8:2a:da:2d:d1:07:f1:70:
                    d6:2d:04:1b:9d:17:cb:e8:c6:d7:d7:64:55:08:f9:
                    2f:89:14:5f:af:86:6d:86:86:dd:fe:9d:89:ef:8e:
                    17:33:8e:5f:0d:c1:4f:9e:69:d3:9d:2a:50:db:93:
                    9c:c9:4d:19:ba:b7:23:ea:94:60:e8:63:1b:fe:ca:
                    9a:9b:1b:9a:9c:2b:08:a8:9d:e6:25:95:f7:cd:ae:
                    fb:e5:41:3f:33:42:fc:68:12:66:41:94:34:dd:a2:
                    33:1d:0f:af:03:4c:52:eb:e8:a4:f8:4a:53:7e:97:
                    cd:74:a3:63:52:08:15:75:60:89:cc:3e:91:a1:20:
                    cf:c2:67:81:90:6a:1f:f4:5d:21:d1:df:48:8d:e4:
                    e0:30:b4:18:53:ed:71:de:2e:19:6d:95:e9:bb:01:
                    19:ef:da:a4:43:68:38:49:a1:fa:64:08:1b:27:ad:
                    4d:92:71:22:fe:e1:43:a2:fd:fd:0e:f3:34:38:0f:
                    07:7c:5e:da:35:40:17:79:0f:d7:ac:e0:11:e9:35:
                    9e:3a:05:a6:c0:89:ee:bf:b9:fa:27:c4:38:a7:be:
                    d5:4b:e3:ff:93:21:fd:84:6d:e4:75:be:2b:06:2c:
                    4c:97:de:c3:1d:11:f0:e4:75:04:e4:9c:e2:6a:fe:
                    eb:99:10:ae:d0:25:dd:ad:39:6e:50:98:5f:dd:96:
                    11:59:ff:e5:ce:a7:07:51:d9:9b:61:11:19:b9:41:
                    1c:20:87:1c:91:f1:b4:a7:08:ed:24:f2:93:42:57:
                    53:a2:6c:d0:23:d8:d6:2f:54:62:0f:85:0c:a1:e2:
                    9c:c4:55:9f:c4:42:80:1b:3e:e0:18:1d:6c:e2:35:
                    70:8a:df:6d:39:e2:fe:df:0a:4b:7b:46:22:91:17:
                    18:7c:60:5d:53:15:c9:72:c6:d9:7e:7d:78:87:77:
                    99:35:4a:d4:7a:3e:de:5c:ce:58:41:65:d2:81:fe:
                    79:72:e1
                Exponent: 65537 (0x10001)
        X509v3 extensions:
            X509v3 Basic Constraints: 
                CA:FALSE
            Netscape Comment: 
                Easy-RSA Generated Certificate
            X509v3 Subject Key Identifier: 
                CF:5E:B4:C4:55:7E:5C:21:0A:44:5D:01:37:BF:D6:59:F3:61:D0:49
            X509v3 Authority Key Identifier: 
                keyid:12:CD:60:04:D2:A0:80:9E:70:ED:C6:99:B8:7B:2C:C6:52:FD:19:A1
                DirName:/C=US/ST=OH/L=Columbus/O=VikingVPN/OU=MyOrganizationalUnit/CN=VikingVPN CA/name=EasyRSA/emailAddress=me@myhost.mydomain
                serial:CF:35:85:EE:80:BF:2A:3E

            X509v3 Extended Key Usage: 
                TLS Web Client Authentication
            X509v3 Key Usage: 
                Digital Signature
    Signature Algorithm: sha256WithRSAEncryption
         bc:0f:4f:92:94:09:15:56:15:ce:cb:97:5e:97:0f:fd:19:5f:
         f9:c6:a0:b8:d2:e5:bd:0d:c1:cd:0a:35:20:34:7b:70:a3:3f:
         5a:ad:5f:21:53:4f:c9:14:c3:db:56:60:22:84:fe:ea:7a:17:
         e5:52:6c:bb:81:d2:b7:23:f8:08:b2:a7:94:66:f0:3d:03:f1:
         03:94:e2:fc:03:19:d8:67:90:ae:c1:83:9d:1a:ce:64:ee:63:
         1b:33:41:75:8b:97:88:c3:70:5f:56:49:fe:67:90:d6:3a:c2:
         84:ef:b9:e7:39:08:e4:78:b9:d0:6d:21:c8:9d:73:bc:5b:bb:
         16:b9:1a:0d:28:aa:f9:55:08:34:f0:d2:fb:e6:3e:f5:f9:e8:
         b4:b8:3f:5b:7e:6b:d7:1e:fa:d8:06:e3:3e:54:dd:05:5a:6c:
         eb:04:0b:a8:28:b9:89:67:a6:e3:5e:ca:66:5d:f8:a6:7c:13:
         c4:f5:ca:8f:dd:29:9d:28:14:d5:b0:1f:8d:ae:c2:e7:d7:41:
         03:1c:4a:62:27:ef:82:4b:9b:58:04:1b:17:26:82:17:e8:21:
         b5:af:fd:19:87:ad:fc:f0:13:a5:2e:ac:f2:9f:17:e7:6c:2f:
         b0:c6:a8:26:df:44:0f:48:fd:3c:bc:a8:cd:40:ae:5c:3f:7b:
         da:47:ff:09:22:e5:d5:38:95:89:cb:19:93:f5:8d:6d:74:29:
         f1:74:77:e3:2f:69:7a:85:39:94:95:8e:75:04:ed:19:c6:47:
         8e:f7:d2:a9:77:17:19:40:0b:a1:cc:af:9b:5d:56:c6:7b:85:
         9a:b1:e7:e0:1c:32:04:fc:9d:b7:3d:a2:97:61:2a:d3:a2:72:
         be:5d:05:a4:c5:31:48:df:05:b9:81:11:dd:f3:6a:ad:a0:48:
         65:99:a8:6b:63:83:ad:29:08:bc:b1:54:1b:b0:f2:2c:29:a1:
         9c:34:82:bf:47:fb:d1:00:3e:af:ed:48:4c:41:e5:6b:14:22:
         ef:75:68:ef:79:e4:d6:56:0c:b8:19:50:ba:df:f1:5b:bb:ec:
         99:aa:17:a1:ae:d9:03:54:9a:81:37:ec:e1:27:1d:a4:71:23:
         6c:56:c7:65:c1:d1:3b:25:e1:f8:8a:87:6b:60:f8:f0:64:45:
         3d:92:47:9e:5b:f9:53:43:f5:dd:c8:8b:78:69:68:f6:fb:bc:
         d4:5a:55:3f:54:63:b9:6d:ce:b5:96:32:ce:fa:94:b3:b5:94:
         03:4c:d0:12:bd:1b:db:75:01:d7:66:c1:db:a7:67:5f:94:40:
         13:4b:83:05:a5:e8:cb:f7:67:46:e0:68:b0:e9:ac:cf:e7:3e:
         81:81:63:39:cc:71:ad:c1
-----BEGIN CERTIFICATE-----
MIIGrTCCBJWgAwIBAgICMk4wDQYJKoZIhvcNAQELBQAwgawxCzAJBgNVBAYTAlVT
MQswCQYDVQQIEwJPSDERMA8GA1UEBxMIQ29sdW1idXMxEjAQBgNVBAoTCVZpa2lu
Z1ZQTjEdMBsGA1UECxMUTXlPcmdhbml6YXRpb25hbFVuaXQxFTATBgNVBAMTDFZp
a2luZ1ZQTiBDQTEQMA4GA1UEKRMHRWFzeVJTQTEhMB8GCSqGSIb3DQEJARYSbWVA
bXlob3N0Lm15ZG9tYWluMB4XDTE4MDQwMjE0NTcxMFoXDTI4MDMzMDE0NTcxMFow
HzEdMBsGA1UEAxMUQ2xpZW50MzEyOUNlcnQ0NmVjOGMwggIiMA0GCSqGSIb3DQEB
AQUAA4ICDwAwggIKAoICAQCsWNbXYZnkLzCIQ1Z5qI6X7+652XWhQS7oSSdSkK52
LC0J4XuxyhRq2ck5UqEgQ4u5X/mQ0lmXR072XRNUqJ3pxGV4lU2fFp0BlQyrHyoR
BbG0DFxN27eX7BfQcQ5xYIq2QSFpjanlbp6pl0qOFuRoBe7G4/NlptTEJr8glR0k
6nBJWhV8GXwtm9EilKDoKtot0QfxcNYtBBudF8voxtfXZFUI+S+JFF+vhm2Ght3+
nYnvjhczjl8NwU+eadOdKlDbk5zJTRm6tyPqlGDoYxv+ypqbG5qcKwioneYllffN
rvvlQT8zQvxoEmZBlDTdojMdD68DTFLr6KT4SlN+l810o2NSCBV1YInMPpGhIM/C
Z4GQah/0XSHR30iN5OAwtBhT7XHeLhltlem7ARnv2qRDaDhJofpkCBsnrU2ScSL+
4UOi/f0O8zQ4Dwd8Xto1QBd5D9es4BHpNZ46BabAie6/ufonxDinvtVL4/+TIf2E
beR1visGLEyX3sMdEfDkdQTknOJq/uuZEK7QJd2tOW5QmF/dlhFZ/+XOpwdR2Zth
ERm5QRwghxyR8bSnCO0k8pNCV1OibNAj2NYvVGIPhQyh4pzEVZ/EQoAbPuAYHWzi
NXCK32054v7fCkt7RiKRFxh8YF1TFclyxtl+fXiHd5k1StR6Pt5czlhBZdKB/nly
4QIDAQABo4IBYzCCAV8wCQYDVR0TBAIwADAtBglghkgBhvhCAQ0EIBYeRWFzeS1S
U0EgR2VuZXJhdGVkIENlcnRpZmljYXRlMB0GA1UdDgQWBBTPXrTEVX5cIQpEXQE3
v9ZZ82HQSTCB4QYDVR0jBIHZMIHWgBQSzWAE0qCAnnDtxpm4eyzGUv0ZoaGBsqSB
rzCBrDELMAkGA1UEBhMCVVMxCzAJBgNVBAgTAk9IMREwDwYDVQQHEwhDb2x1bWJ1
czESMBAGA1UEChMJVmlraW5nVlBOMR0wGwYDVQQLExRNeU9yZ2FuaXphdGlvbmFs
VW5pdDEVMBMGA1UEAxMMVmlraW5nVlBOIENBMRAwDgYDVQQpEwdFYXN5UlNBMSEw
HwYJKoZIhvcNAQkBFhJtZUBteWhvc3QubXlkb21haW6CCQDPNYXugL8qPjATBgNV
HSUEDDAKBggrBgEFBQcDAjALBgNVHQ8EBAMCB4AwDQYJKoZIhvcNAQELBQADggIB
ALwPT5KUCRVWFc7Ll16XD/0ZX/nGoLjS5b0Nwc0KNSA0e3CjP1qtXyFTT8kUw9tW
YCKE/up6F+VSbLuB0rcj+Aiyp5Rm8D0D8QOU4vwDGdhnkK7Bg50azmTuYxszQXWL
l4jDcF9WSf5nkNY6woTvuec5COR4udBtIcidc7xbuxa5Gg0oqvlVCDTw0vvmPvX5
6LS4P1t+a9ce+tgG4z5U3QVabOsEC6gouYlnpuNeymZd+KZ8E8T1yo/dKZ0oFNWw
H42uwufXQQMcSmIn74JLm1gEGxcmghfoIbWv/RmHrfzwE6UurPKfF+dsL7DGqCbf
RA9I/Ty8qM1Arlw/e9pH/wki5dU4lYnLGZP1jW10KfF0d+MvaXqFOZSVjnUE7RnG
R4730ql3FxlAC6HMr5tdVsZ7hZqx5+AcMgT8nbc9opdhKtOicr5dBaTFMUjfBbmB
Ed3zaq2gSGWZqGtjg60pCLyxVBuw8iwpoZw0gr9H+9EAPq/tSExB5WsUIu91aO95
5NZWDLgZULrf8Vu77JmqF6Gu2QNUmoE37OEnHaRxI2xWx2XB0Tsl4fiKh2tg+PBk
RT2SR55b+VND9d3Ii3hpaPb7vNRaVT9UY7ltzrWWMs76lLO1lANM0BK9G9t1Addm
wdunZ1+UQBNLgwWl6Mv3Z0bgaLDprM/nPoGBYznMca3B
-----END CERTIFICATE-----
