Certificate:
    Data:
        Version: 3 (0x2)
        Serial Number: 2287 (0x8ef)
    Signature Algorithm: md5WithRSAEncryption
        Issuer: C=US, ST=OH, L=Columbus, O=VikingVPN, OU=MyOrganizationalUnit, CN=VikingVPN CA/name=EasyRSA/emailAddress=me@myhost.mydomain
        Validity
            Not Before: Jul 16 01:31:14 2014 GMT
            Not After : Jul 13 01:31:14 2024 GMT
        Subject: CN=Client807Cert52e2d6
        Subject Public Key Info:
            Public Key Algorithm: rsaEncryption
                Public-Key: (4096 bit)
                Modulus:
                    00:d5:8e:c9:76:fc:be:51:30:03:d9:2c:72:90:01:
                    49:69:f0:27:fc:74:57:95:1a:84:01:08:a5:a2:c0:
                    5c:61:a5:36:d1:c0:76:95:68:e0:84:c2:29:a2:6e:
                    06:2c:f8:3a:dc:2c:2b:12:35:c5:87:5f:15:79:5b:
                    af:7e:17:67:e7:ad:27:39:7f:94:dd:3e:fe:86:6e:
                    7a:e4:61:dd:99:55:16:09:89:12:17:2b:6e:5b:10:
                    4f:a4:ce:b4:db:90:96:e4:4e:b2:d8:ca:b9:2a:10:
                    0d:b0:35:89:e6:70:12:8e:55:71:67:8a:0d:c2:09:
                    5e:f9:6b:b7:4c:7c:f5:2a:34:10:07:40:e0:33:ac:
                    6d:c5:40:a5:0e:39:0e:d2:3d:c2:d5:16:ef:27:1d:
                    d6:ad:ba:f6:ce:cd:47:6b:91:52:75:f7:8a:66:28:
                    82:de:ff:0e:ab:ec:4a:e7:e5:f8:20:1f:a2:fa:65:
                    67:9b:f0:3a:f2:ba:a0:d8:d4:bc:8d:cd:8d:66:2e:
                    d3:a4:89:ff:c1:06:e5:7c:c9:a5:8e:9c:8f:f7:98:
                    c4:1c:6e:d3:63:5b:9b:90:d5:b4:3a:61:ba:e0:07:
                    e5:70:fb:0f:94:0d:5d:ba:c0:cf:c3:aa:05:08:d1:
                    d5:73:b7:39:c0:0a:0e:84:42:37:ab:b1:79:4b:c8:
                    c1:fd:44:4e:46:00:7f:2e:57:4f:25:32:86:e2:d3:
                    a7:4f:37:38:d7:9c:77:cb:68:a9:0c:f5:04:c1:e2:
                    65:1c:f9:db:d2:79:63:cc:af:d8:da:9d:0d:d6:74:
                    9d:5b:12:3d:6c:3c:6a:4a:22:5a:3f:f1:9f:98:eb:
                    bb:82:cf:0d:ee:9b:62:f4:45:2e:f3:5b:95:cb:7e:
                    39:48:b7:c9:2d:34:9b:40:3e:0b:22:09:df:3c:49:
                    91:a0:a3:85:bb:d8:14:15:4c:27:56:9b:db:95:78:
                    ea:cf:62:e2:f4:cb:83:37:f9:96:84:cd:d1:18:be:
                    76:9f:85:d2:87:38:71:d9:d2:ce:e5:3e:4c:36:63:
                    59:9f:21:75:10:7b:42:d9:ca:d1:e8:84:ea:ad:80:
                    89:38:dc:0c:d0:29:c4:9d:d5:ad:5c:8b:fc:a3:d3:
                    60:25:af:18:b5:99:8c:e4:5d:5c:64:55:1f:8c:4f:
                    b6:48:d8:24:b4:79:ae:47:31:58:eb:b7:72:bd:f9:
                    e5:e3:4f:29:c7:f3:61:42:7e:49:fd:06:85:0e:ba:
                    c0:a3:fd:0b:8f:32:7a:74:fc:a5:a5:8c:48:c6:c8:
                    df:56:58:19:0a:76:d7:2e:32:3e:47:fd:c9:ad:14:
                    f1:67:17:03:11:29:68:3e:cf:c5:3a:c7:69:ef:a7:
                    9f:4c:27
                Exponent: 65537 (0x10001)
        X509v3 extensions:
            X509v3 Basic Constraints: 
                CA:FALSE
            Netscape Comment: 
                Easy-RSA Generated Certificate
            X509v3 Subject Key Identifier: 
                D5:5F:86:2D:7E:EC:3D:D7:95:E4:F7:FB:64:31:E2:0C:5F:20:7C:36
            X509v3 Authority Key Identifier: 
                keyid:12:CD:60:04:D2:A0:80:9E:70:ED:C6:99:B8:7B:2C:C6:52:FD:19:A1
                DirName:/C=US/ST=OH/L=Columbus/O=VikingVPN/OU=MyOrganizationalUnit/CN=VikingVPN CA/name=EasyRSA/emailAddress=me@myhost.mydomain
                serial:CF:35:85:EE:80:BF:2A:3E

            X509v3 Extended Key Usage: 
                TLS Web Client Authentication
            X509v3 Key Usage: 
                Digital Signature
    Signature Algorithm: md5WithRSAEncryption
         95:ca:d7:de:f0:b2:d3:93:a3:47:f1:3c:77:fa:11:31:08:94:
         5d:9b:38:7d:12:91:cc:02:34:5f:b6:c1:0c:20:11:be:d3:18:
         c9:e1:56:9b:51:37:ef:24:e4:9e:57:cb:9b:f6:6b:82:9b:00:
         6a:96:fe:2a:37:05:97:93:f8:47:9f:c0:aa:bf:ee:cf:80:90:
         eb:fc:87:f8:d9:b0:9c:24:24:b4:3a:e2:2c:51:fc:5d:94:1b:
         bb:4e:23:d8:48:e1:0a:0a:f4:75:3f:1b:b1:fd:f5:20:ae:77:
         b7:9a:fa:63:21:cd:b0:5a:f1:c6:be:56:bb:19:ac:c1:e5:7c:
         45:8c:a3:14:af:5c:c2:88:92:3f:1b:a0:3f:bb:81:6f:89:cf:
         5d:de:9e:37:6d:37:97:59:9b:4b:f8:c7:cb:3a:99:2d:51:e6:
         6b:ff:6b:c8:21:7d:6b:17:49:59:76:97:1d:47:2d:1f:68:c0:
         d6:da:5b:14:71:fe:9c:f1:3a:78:f3:7f:ac:aa:67:3b:17:74:
         5a:6a:df:90:3a:f5:6d:bd:47:60:f1:54:22:f0:88:a7:8e:06:
         a3:9f:b5:2e:5c:b6:01:e3:b9:34:17:d8:b6:40:32:06:ae:b4:
         e1:6b:d9:2a:8d:c2:9b:f3:01:18:2b:75:4e:b9:2e:d3:f5:2b:
         6b:4b:4d:69:3f:12:5e:be:21:68:da:ea:e6:b1:44:9a:3f:55:
         a8:3b:37:b9:17:32:bb:a2:d8:21:69:b1:7e:5e:eb:bc:e1:d2:
         b7:6a:3d:b3:5a:9c:42:0f:93:4d:2f:27:51:00:6c:b1:57:74:
         c4:92:93:12:52:6b:41:e9:cf:97:d4:64:0a:fa:b4:a9:d2:05:
         10:34:90:72:f3:50:61:d7:98:e9:c8:80:95:56:b0:e3:d9:3b:
         d6:93:64:1a:b3:af:8c:45:a6:76:52:fa:2d:47:0d:21:43:84:
         c5:87:82:d4:1d:fa:dc:91:3f:af:18:b9:98:a1:75:1d:ef:89:
         85:73:4f:d4:e6:90:6c:15:dc:cd:6d:77:ca:ea:7a:ca:e8:3f:
         60:54:73:8f:d8:95:a6:d7:a4:37:02:3c:8d:eb:74:ca:ff:ab:
         13:c3:b0:f6:45:10:7c:31:8a:1e:49:4c:f1:ff:bb:f8:df:25:
         e8:43:27:90:9d:7b:94:ea:8f:6f:7c:a6:03:5a:77:b0:22:a0:
         de:11:59:ce:bc:d8:c5:a6:9a:2d:61:88:2e:07:02:27:d1:ca:
         7b:c2:ab:c3:61:97:84:86:b2:2b:9a:6a:b4:3b:fd:cd:46:d4:
         c0:e1:52:82:c8:8b:d3:92:55:50:85:22:cc:0f:76:93:05:ba:
         4f:f2:af:66:33:fc:e1:72
-----BEGIN CERTIFICATE-----
MIIGrDCCBJSgAwIBAgICCO8wDQYJKoZIhvcNAQEEBQAwgawxCzAJBgNVBAYTAlVT
MQswCQYDVQQIEwJPSDERMA8GA1UEBxMIQ29sdW1idXMxEjAQBgNVBAoTCVZpa2lu
Z1ZQTjEdMBsGA1UECxMUTXlPcmdhbml6YXRpb25hbFVuaXQxFTATBgNVBAMTDFZp
a2luZ1ZQTiBDQTEQMA4GA1UEKRMHRWFzeVJTQTEhMB8GCSqGSIb3DQEJARYSbWVA
bXlob3N0Lm15ZG9tYWluMB4XDTE0MDcxNjAxMzExNFoXDTI0MDcxMzAxMzExNFow
HjEcMBoGA1UEAxMTQ2xpZW50ODA3Q2VydDUyZTJkNjCCAiIwDQYJKoZIhvcNAQEB
BQADggIPADCCAgoCggIBANWOyXb8vlEwA9kscpABSWnwJ/x0V5UahAEIpaLAXGGl
NtHAdpVo4ITCKaJuBiz4OtwsKxI1xYdfFXlbr34XZ+etJzl/lN0+/oZueuRh3ZlV
FgmJEhcrblsQT6TOtNuQluROstjKuSoQDbA1ieZwEo5VcWeKDcIJXvlrt0x89So0
EAdA4DOsbcVApQ45DtI9wtUW7ycd1q269s7NR2uRUnX3imYogt7/DqvsSufl+CAf
ovplZ5vwOvK6oNjUvI3NjWYu06SJ/8EG5XzJpY6cj/eYxBxu02Nbm5DVtDphuuAH
5XD7D5QNXbrAz8OqBQjR1XO3OcAKDoRCN6uxeUvIwf1ETkYAfy5XTyUyhuLTp083
ONecd8toqQz1BMHiZRz529J5Y8yv2NqdDdZ0nVsSPWw8akoiWj/xn5jru4LPDe6b
YvRFLvNblct+OUi3yS00m0A+CyIJ3zxJkaCjhbvYFBVMJ1ab25V46s9i4vTLgzf5
loTN0Ri+dp+F0oc4cdnSzuU+TDZjWZ8hdRB7QtnK0eiE6q2AiTjcDNApxJ3VrVyL
/KPTYCWvGLWZjORdXGRVH4xPtkjYJLR5rkcxWOu3cr355eNPKcfzYUJ+Sf0GhQ66
wKP9C48yenT8paWMSMbI31ZYGQp21y4yPkf9ya0U8WcXAxEpaD7PxTrHae+nn0wn
AgMBAAGjggFjMIIBXzAJBgNVHRMEAjAAMC0GCWCGSAGG+EIBDQQgFh5FYXN5LVJT
QSBHZW5lcmF0ZWQgQ2VydGlmaWNhdGUwHQYDVR0OBBYEFNVfhi1+7D3XleT3+2Qx
4gxfIHw2MIHhBgNVHSMEgdkwgdaAFBLNYATSoICecO3Gmbh7LMZS/RmhoYGypIGv
MIGsMQswCQYDVQQGEwJVUzELMAkGA1UECBMCT0gxETAPBgNVBAcTCENvbHVtYnVz
MRIwEAYDVQQKEwlWaWtpbmdWUE4xHTAbBgNVBAsTFE15T3JnYW5pemF0aW9uYWxV
bml0MRUwEwYDVQQDEwxWaWtpbmdWUE4gQ0ExEDAOBgNVBCkTB0Vhc3lSU0ExITAf
BgkqhkiG9w0BCQEWEm1lQG15aG9zdC5teWRvbWFpboIJAM81he6Avyo+MBMGA1Ud
JQQMMAoGCCsGAQUFBwMCMAsGA1UdDwQEAwIHgDANBgkqhkiG9w0BAQQFAAOCAgEA
lcrX3vCy05OjR/E8d/oRMQiUXZs4fRKRzAI0X7bBDCARvtMYyeFWm1E37yTknlfL
m/ZrgpsAapb+KjcFl5P4R5/Aqr/uz4CQ6/yH+NmwnCQktDriLFH8XZQbu04j2Ejh
Cgr0dT8bsf31IK53t5r6YyHNsFrxxr5WuxmsweV8RYyjFK9cwoiSPxugP7uBb4nP
Xd6eN203l1mbS/jHyzqZLVHma/9ryCF9axdJWXaXHUctH2jA1tpbFHH+nPE6ePN/
rKpnOxd0WmrfkDr1bb1HYPFUIvCIp44Go5+1Lly2AeO5NBfYtkAyBq604WvZKo3C
m/MBGCt1Trku0/Ura0tNaT8SXr4haNrq5rFEmj9VqDs3uRcyu6LYIWmxfl7rvOHS
t2o9s1qcQg+TTS8nUQBssVd0xJKTElJrQenPl9RkCvq0qdIFEDSQcvNQYdeY6ciA
lVaw49k71pNkGrOvjEWmdlL6LUcNIUOExYeC1B363JE/rxi5mKF1He+JhXNP1OaQ
bBXczW13yup6yug/YFRzj9iVptekNwI8jet0yv+rE8Ow9kUQfDGKHklM8f+7+N8l
6EMnkJ17lOqPb3ymA1p3sCKg3hFZzrzYxaaaLWGILgcCJ9HKe8Krw2GXhIayK5pq
tDv9zUbUwOFSgsiL05JVUIUizA92kwW6T/KvZjP84XI=
-----END CERTIFICATE-----
