Certificate:
    Data:
        Version: 3 (0x2)
        Serial Number: 380 (0x17c)
    Signature Algorithm: md5WithRSAEncryption
        Issuer: C=US, ST=OH, L=Columbus, O=VikingVPN, OU=MyOrganizationalUnit, CN=VikingVPN CA/name=EasyRSA/emailAddress=me@myhost.mydomain
        Validity
            Not Before: Nov  7 00:36:08 2013 GMT
            Not After : Nov  5 00:36:08 2023 GMT
        Subject: CN=Client168Cert3406ed
        Subject Public Key Info:
            Public Key Algorithm: rsaEncryption
                Public-Key: (4096 bit)
                Modulus:
                    00:ce:14:06:09:25:4d:23:30:13:87:3c:c6:a7:33:
                    05:8f:c8:09:06:e1:c8:b1:74:b2:9f:4f:54:b3:aa:
                    d8:9f:dc:93:17:89:7d:42:e3:92:2f:78:e7:e7:18:
                    39:3e:c7:76:ca:e4:72:33:07:38:7f:a3:64:38:e1:
                    3c:a9:22:5c:d0:91:52:08:36:81:08:74:5f:f9:a9:
                    84:55:85:ed:d8:30:ab:5d:10:14:95:8a:5e:c8:08:
                    0e:7b:ff:dc:a4:be:e0:87:1a:b6:d5:e9:f4:d8:fb:
                    b8:30:aa:e0:47:3c:ac:8d:9b:46:07:f9:6e:fd:a7:
                    48:84:0a:9b:82:2f:ca:5c:ee:94:7e:c4:fe:c3:f2:
                    8f:ee:c0:32:a0:14:12:bc:d5:9c:81:f4:40:97:b4:
                    0c:e0:45:20:6a:8c:c3:7a:07:df:cb:d8:96:2c:d9:
                    77:e4:ad:c3:3f:61:11:f3:e9:37:0d:9e:b3:78:07:
                    ae:ae:66:7d:71:01:ae:10:89:dc:a3:56:82:bd:05:
                    2a:06:a5:cd:01:43:6f:ec:9b:19:e3:8c:40:28:59:
                    37:3f:c5:db:78:05:f1:16:27:c5:36:3c:2c:d1:0e:
                    24:59:0b:ed:f0:65:5e:55:fb:81:dc:b2:97:75:f8:
                    1c:a6:26:50:eb:9c:0f:f2:60:5e:48:27:a6:78:a7:
                    09:a4:d1:24:ab:93:1b:55:39:5e:37:41:ff:2b:98:
                    bc:f1:de:c5:c7:2c:eb:29:b8:12:5f:ad:29:af:e1:
                    f6:78:02:86:c6:cb:37:ef:7e:60:7a:87:41:ba:78:
                    de:60:f4:f1:27:0f:75:14:1f:b8:60:5f:d3:10:b0:
                    47:e4:1d:f9:9e:dd:2d:15:0c:72:4b:aa:c8:25:b3:
                    37:5d:98:f5:95:84:83:56:be:8e:19:d6:bf:eb:e3:
                    bc:38:98:2d:56:79:6c:26:dc:a6:19:fc:96:83:cc:
                    af:77:81:20:30:07:cb:ae:62:56:df:b1:75:93:85:
                    c2:53:9f:72:3e:3e:32:db:39:e0:0e:28:a9:49:32:
                    0d:46:7e:2c:b4:5b:d6:84:ec:ae:0f:b8:bc:a0:e5:
                    0f:3a:d9:42:4d:5a:c7:51:74:a9:4a:24:1e:f5:3e:
                    9e:69:1b:15:ee:29:be:27:20:27:df:83:f9:16:93:
                    2e:e7:26:15:21:7f:e4:47:46:f1:5b:dd:a2:d2:cd:
                    a1:4c:bd:23:f6:dc:d4:79:f8:2f:ec:06:e1:ae:c9:
                    be:3e:8b:35:b2:0b:79:71:a5:88:bb:c3:8a:20:5f:
                    bc:46:18:15:36:33:2d:c8:1b:0c:82:a2:5e:84:4d:
                    ed:1d:a7:3e:19:b9:f7:54:e3:3a:c5:77:f2:3e:25:
                    18:3e:51
                Exponent: 65537 (0x10001)
        X509v3 extensions:
            X509v3 Basic Constraints: 
                CA:FALSE
            Netscape Comment: 
                Easy-RSA Generated Certificate
            X509v3 Subject Key Identifier: 
                07:87:DC:70:81:F7:6F:4D:62:3C:8B:9B:09:38:53:EB:3C:12:BA:2A
            X509v3 Authority Key Identifier: 
                keyid:12:CD:60:04:D2:A0:80:9E:70:ED:C6:99:B8:7B:2C:C6:52:FD:19:A1
                DirName:/C=US/ST=OH/L=Columbus/O=VikingVPN/OU=MyOrganizationalUnit/CN=VikingVPN CA/name=EasyRSA/emailAddress=me@myhost.mydomain
                serial:CF:35:85:EE:80:BF:2A:3E

            X509v3 Extended Key Usage: 
                TLS Web Client Authentication
            X509v3 Key Usage: 
                Digital Signature
    Signature Algorithm: md5WithRSAEncryption
         de:b4:db:6f:fa:69:70:e5:c8:29:6b:30:2b:a5:10:81:1a:60:
         2e:d3:77:6e:c8:1c:25:2c:5b:ee:38:ce:4b:f0:3f:37:d7:98:
         67:b7:32:40:e2:ce:47:6d:6c:cc:6e:01:e5:88:d5:3a:05:0a:
         e9:bb:3e:30:f0:be:f6:43:4a:31:39:c6:b9:3c:19:7b:b6:11:
         2c:02:2e:71:6a:5e:f9:73:93:fd:82:63:40:54:29:e3:42:6f:
         b9:ae:18:cf:09:df:ee:e5:fc:a7:20:0a:2f:94:a8:81:7f:e0:
         d3:93:11:ff:65:00:4d:34:dd:ef:b3:b3:09:72:9d:68:ff:b6:
         b0:b1:57:12:67:2e:fe:e0:40:eb:f6:f7:af:c5:ff:d1:83:20:
         99:a0:cf:55:55:af:e2:91:15:a0:e0:6e:fe:16:c3:45:65:c7:
         77:e2:fb:f4:42:88:b0:cd:6a:6c:1a:0a:ab:18:fe:83:a9:f5:
         3a:19:9c:32:b3:00:6a:c9:27:b6:15:b6:ee:20:74:4c:af:b9:
         c2:c2:f6:31:01:5d:00:b4:85:e5:81:59:81:53:14:7d:b1:25:
         6c:e1:ad:36:4f:9a:db:a2:b0:6c:1e:1d:60:47:c2:71:46:a5:
         3d:2d:15:fe:7b:78:59:3a:77:cd:d8:ea:b0:2a:a3:63:2a:52:
         db:b1:8c:d5:e0:99:0b:e3:6e:0e:5f:f9:42:cd:1a:3d:ce:76:
         d3:05:ba:65:c7:d6:e0:07:58:02:4a:94:c7:e2:93:57:16:eb:
         82:84:0c:14:8d:c0:db:91:ad:eb:0a:03:67:70:d9:f6:fb:86:
         7d:49:76:bf:ff:e3:d5:1f:2c:95:2d:06:e9:68:2e:3e:58:fe:
         73:a7:9b:50:fd:16:8a:3e:6e:b9:8f:41:18:78:3d:53:79:c7:
         6e:26:82:f1:2d:dc:9c:2f:bf:bd:04:d2:1f:1a:25:0f:36:a0:
         8c:fb:12:0c:21:14:ae:05:cd:8b:93:de:58:7e:5c:fa:81:a7:
         92:3c:f2:41:c9:96:25:91:46:b4:37:37:dd:9d:59:f6:c8:38:
         70:f4:bd:f9:7d:3c:f0:8b:3c:a6:46:9c:63:da:08:f1:a1:d5:
         a2:c9:22:3a:4e:14:6b:6d:9a:51:44:2d:1a:70:65:e2:a6:52:
         e1:00:10:ba:84:45:36:83:74:1b:05:0b:de:69:62:06:93:9b:
         91:2f:b0:00:92:9b:73:3f:ec:d3:85:be:8f:43:dc:3d:8c:ad:
         aa:73:fb:e3:b0:01:01:0a:fd:89:82:7d:3b:ef:01:ea:c3:88:
         b8:03:75:06:d0:7d:05:d7:ac:27:1d:5d:5f:02:d5:90:30:e8:
         40:a4:df:3d:3e:95:68:1c
-----BEGIN CERTIFICATE-----
MIIGrDCCBJSgAwIBAgICAXwwDQYJKoZIhvcNAQEEBQAwgawxCzAJBgNVBAYTAlVT
MQswCQYDVQQIEwJPSDERMA8GA1UEBxMIQ29sdW1idXMxEjAQBgNVBAoTCVZpa2lu
Z1ZQTjEdMBsGA1UECxMUTXlPcmdhbml6YXRpb25hbFVuaXQxFTATBgNVBAMTDFZp
a2luZ1ZQTiBDQTEQMA4GA1UEKRMHRWFzeVJTQTEhMB8GCSqGSIb3DQEJARYSbWVA
bXlob3N0Lm15ZG9tYWluMB4XDTEzMTEwNzAwMzYwOFoXDTIzMTEwNTAwMzYwOFow
HjEcMBoGA1UEAxMTQ2xpZW50MTY4Q2VydDM0MDZlZDCCAiIwDQYJKoZIhvcNAQEB
BQADggIPADCCAgoCggIBAM4UBgklTSMwE4c8xqczBY/ICQbhyLF0sp9PVLOq2J/c
kxeJfULjki945+cYOT7HdsrkcjMHOH+jZDjhPKkiXNCRUgg2gQh0X/mphFWF7dgw
q10QFJWKXsgIDnv/3KS+4IcattXp9Nj7uDCq4Ec8rI2bRgf5bv2nSIQKm4Ivylzu
lH7E/sPyj+7AMqAUErzVnIH0QJe0DOBFIGqMw3oH38vYlizZd+Stwz9hEfPpNw2e
s3gHrq5mfXEBrhCJ3KNWgr0FKgalzQFDb+ybGeOMQChZNz/F23gF8RYnxTY8LNEO
JFkL7fBlXlX7gdyyl3X4HKYmUOucD/JgXkgnpninCaTRJKuTG1U5XjdB/yuYvPHe
xccs6ym4El+tKa/h9ngChsbLN+9+YHqHQbp43mD08ScPdRQfuGBf0xCwR+Qd+Z7d
LRUMckuqyCWzN12Y9ZWEg1a+jhnWv+vjvDiYLVZ5bCbcphn8loPMr3eBIDAHy65i
Vt+xdZOFwlOfcj4+Mts54A4oqUkyDUZ+LLRb1oTsrg+4vKDlDzrZQk1ax1F0qUok
HvU+nmkbFe4pvicgJ9+D+RaTLucmFSF/5EdG8VvdotLNoUy9I/bc1Hn4L+wG4a7J
vj6LNbILeXGliLvDiiBfvEYYFTYzLcgbDIKiXoRN7R2nPhm591TjOsV38j4lGD5R
AgMBAAGjggFjMIIBXzAJBgNVHRMEAjAAMC0GCWCGSAGG+EIBDQQgFh5FYXN5LVJT
QSBHZW5lcmF0ZWQgQ2VydGlmaWNhdGUwHQYDVR0OBBYEFAeH3HCB929NYjyLmwk4
U+s8EroqMIHhBgNVHSMEgdkwgdaAFBLNYATSoICecO3Gmbh7LMZS/RmhoYGypIGv
MIGsMQswCQYDVQQGEwJVUzELMAkGA1UECBMCT0gxETAPBgNVBAcTCENvbHVtYnVz
MRIwEAYDVQQKEwlWaWtpbmdWUE4xHTAbBgNVBAsTFE15T3JnYW5pemF0aW9uYWxV
bml0MRUwEwYDVQQDEwxWaWtpbmdWUE4gQ0ExEDAOBgNVBCkTB0Vhc3lSU0ExITAf
BgkqhkiG9w0BCQEWEm1lQG15aG9zdC5teWRvbWFpboIJAM81he6Avyo+MBMGA1Ud
JQQMMAoGCCsGAQUFBwMCMAsGA1UdDwQEAwIHgDANBgkqhkiG9w0BAQQFAAOCAgEA
3rTbb/ppcOXIKWswK6UQgRpgLtN3bsgcJSxb7jjOS/A/N9eYZ7cyQOLOR21szG4B
5YjVOgUK6bs+MPC+9kNKMTnGuTwZe7YRLAIucWpe+XOT/YJjQFQp40Jvua4Yzwnf
7uX8pyAKL5SogX/g05MR/2UATTTd77OzCXKdaP+2sLFXEmcu/uBA6/b3r8X/0YMg
maDPVVWv4pEVoOBu/hbDRWXHd+L79EKIsM1qbBoKqxj+g6n1OhmcMrMAasknthW2
7iB0TK+5wsL2MQFdALSF5YFZgVMUfbElbOGtNk+a26KwbB4dYEfCcUalPS0V/nt4
WTp3zdjqsCqjYypS27GM1eCZC+NuDl/5Qs0aPc520wW6ZcfW4AdYAkqUx+KTVxbr
goQMFI3A25Gt6woDZ3DZ9vuGfUl2v//j1R8slS0G6WguPlj+c6ebUP0Wij5uuY9B
GHg9U3nHbiaC8S3cnC+/vQTSHxolDzagjPsSDCEUrgXNi5PeWH5c+oGnkjzyQcmW
JZFGtDc33Z1Z9sg4cPS9+X088Is8pkacY9oI8aHVoskiOk4Ua22aUUQtGnBl4qZS
4QAQuoRFNoN0GwUL3mliBpObkS+wAJKbcz/s04W+j0PcPYytqnP747ABAQr9iYJ9
O+8B6sOIuAN1BtB9BdesJx1dXwLVkDDoQKTfPT6VaBw=
-----END CERTIFICATE-----
