Certificate:
    Data:
        Version: 3 (0x2)
        Serial Number: 5764 (0x1684)
    Signature Algorithm: md5WithRSAEncryption
        Issuer: C=US, ST=OH, L=Columbus, O=VikingVPN, OU=MyOrganizationalUnit, CN=VikingVPN CA/name=EasyRSA/emailAddress=me@myhost.mydomain
        Validity
            Not Before: Jul 10 15:36:07 2015 GMT
            Not After : Jul  7 15:36:07 2025 GMT
        Subject: CN=Client1803Certfdd58d
        Subject Public Key Info:
            Public Key Algorithm: rsaEncryption
                Public-Key: (4096 bit)
                Modulus:
                    00:c5:f9:a4:b0:e5:98:ea:f4:9c:73:97:a3:3c:3f:
                    02:d7:1b:c8:19:ed:04:17:07:71:e2:87:98:58:6b:
                    ac:01:82:a2:57:13:39:74:84:51:34:96:7d:25:74:
                    40:b9:87:e2:f4:4e:f4:60:1d:cc:c5:f0:07:12:3e:
                    4a:e5:22:d0:ab:a3:6a:2b:32:d0:8d:0e:ae:bb:e0:
                    16:db:56:60:87:45:a9:e1:11:de:d3:56:82:2b:45:
                    68:a6:78:c2:d5:19:c9:ff:98:fe:6b:50:d7:2f:64:
                    b7:70:97:fa:e2:09:0b:1b:47:69:68:3b:63:1a:c5:
                    3d:73:d9:ad:6d:ac:84:1c:d1:20:78:3d:ef:06:7c:
                    66:d7:8f:4f:59:f8:5b:2c:58:e8:75:52:19:d0:10:
                    a8:9b:f1:95:86:d8:9b:ee:c7:14:8d:18:f5:84:dd:
                    29:cd:a2:2b:ce:c7:63:bf:07:42:ae:21:8a:89:5a:
                    3a:a9:3e:4c:96:0e:6d:64:f6:da:b9:fa:eb:5e:e0:
                    58:3b:54:1b:e1:12:62:3e:af:9a:30:12:d8:cb:84:
                    e5:c6:50:6a:fb:3c:0f:a9:7d:5a:fd:cf:01:87:05:
                    31:6b:c0:8e:a7:2b:0d:f7:49:82:d3:cd:5c:82:ba:
                    43:c3:56:f2:59:ce:46:6b:ec:0c:6c:5c:c3:20:f0:
                    ea:10:e5:98:57:d7:52:6f:ec:69:17:4f:20:e0:3b:
                    ae:05:71:6c:37:1b:fb:2d:d9:cb:a9:f2:e7:71:43:
                    7b:8a:ef:03:af:e4:b9:77:56:fd:2c:39:80:db:65:
                    c9:d9:fc:c5:7a:86:57:bf:1a:db:a3:21:ee:ea:3f:
                    1c:f1:b2:3b:9a:70:41:b0:b4:04:2f:74:f1:6c:79:
                    46:66:ca:0b:1a:9f:84:d9:f1:52:fc:df:f0:eb:66:
                    04:4a:57:5a:c2:02:d1:83:b3:2d:df:1d:11:39:12:
                    df:09:86:9e:62:4f:cb:b9:d2:1f:85:79:20:1c:35:
                    77:51:bf:f8:25:c8:f2:8b:3b:02:f4:c9:6c:27:74:
                    0f:67:db:bf:f1:27:6c:5d:f3:f3:7a:2a:00:40:a4:
                    fc:90:f2:55:79:99:e2:a6:b5:2b:84:54:98:bf:23:
                    ca:df:9a:0b:e3:aa:3a:68:43:ac:fe:d3:96:ad:8a:
                    df:99:c3:9f:0c:95:a1:2e:c6:f8:11:1d:83:75:60:
                    ee:8f:93:07:ad:ba:e9:26:fc:f7:65:38:1b:dc:1c:
                    db:08:38:a3:1c:70:df:fc:87:be:65:5b:16:bd:3f:
                    ff:8d:5f:c5:67:16:a2:20:47:fc:51:11:ec:9e:53:
                    df:7b:8e:fd:84:0b:4a:bd:a7:f5:e6:44:96:bd:62:
                    7e:ed:49
                Exponent: 65537 (0x10001)
        X509v3 extensions:
            X509v3 Basic Constraints: 
                CA:FALSE
            Netscape Comment: 
                Easy-RSA Generated Certificate
            X509v3 Subject Key Identifier: 
                7F:BA:23:9E:5B:5B:CB:4C:13:66:AE:2C:8B:2B:FD:8F:00:A1:0F:1A
            X509v3 Authority Key Identifier: 
                keyid:12:CD:60:04:D2:A0:80:9E:70:ED:C6:99:B8:7B:2C:C6:52:FD:19:A1
                DirName:/C=US/ST=OH/L=Columbus/O=VikingVPN/OU=MyOrganizationalUnit/CN=VikingVPN CA/name=EasyRSA/emailAddress=me@myhost.mydomain
                serial:CF:35:85:EE:80:BF:2A:3E

            X509v3 Extended Key Usage: 
                TLS Web Client Authentication
            X509v3 Key Usage: 
                Digital Signature
    Signature Algorithm: md5WithRSAEncryption
         37:a4:bb:22:07:81:2a:c9:a7:34:73:23:0b:4d:bd:b3:23:44:
         69:2a:62:e6:48:bc:d0:e9:fa:80:11:62:72:78:f1:6e:97:45:
         e3:42:9d:4a:03:cd:7e:03:c5:6d:ad:4d:03:52:a2:a4:24:30:
         c8:ef:2f:b6:51:f5:ef:ed:79:06:b7:ee:bc:68:92:bc:15:ef:
         70:6a:db:60:53:04:de:86:4a:2e:0f:63:c6:5e:2f:3d:83:9b:
         76:21:44:41:03:fe:c9:02:bf:47:73:ff:10:44:b4:17:bd:69:
         2f:21:45:1d:8a:a8:4c:a6:f8:0c:64:d3:50:b0:a7:20:09:3d:
         fe:e0:f0:02:b5:d5:2b:54:5f:76:31:85:83:d5:a9:94:fb:dc:
         76:e7:12:1a:55:56:83:c8:47:85:21:1e:93:54:9f:35:e5:ca:
         1c:15:35:f6:74:4c:24:ac:68:fa:09:ff:9e:15:96:cd:c9:85:
         7e:cf:e3:74:e7:8c:1c:cd:f0:05:73:6f:4b:ef:5a:fc:aa:3a:
         9f:12:4e:bc:16:c4:e9:cb:7e:67:10:8a:a0:8e:31:a0:ce:53:
         60:e0:ca:d2:f7:f7:ed:61:64:91:1f:d7:93:9f:56:55:ef:d2:
         16:aa:b6:61:03:81:a0:2c:1b:4b:a7:b4:dc:e3:45:b1:39:1d:
         3d:31:6f:c6:11:22:0c:29:37:f7:74:f5:c3:f9:1f:63:87:b1:
         b3:58:47:ce:29:f4:cd:65:ef:ee:79:b5:8c:a0:06:83:84:71:
         23:8e:4d:ff:fe:9e:32:e2:b1:23:b3:3e:aa:2f:56:83:3f:de:
         6a:15:23:8f:4e:48:95:6c:6d:b5:19:65:8e:05:34:d3:33:59:
         80:82:11:12:1f:80:2a:46:56:0d:61:1f:28:d7:65:eb:09:9c:
         06:bc:02:9f:dc:d0:b9:20:54:be:ff:1c:47:19:56:c4:7c:ec:
         53:ed:53:be:09:c8:a0:65:4e:a0:d0:8c:dc:92:97:04:2d:84:
         36:b6:48:b2:74:e4:1f:c5:78:13:46:64:bf:2b:ec:2a:d0:3c:
         5c:d9:6b:16:3d:23:46:9d:af:8b:e8:28:ba:de:d2:5a:f0:6d:
         d7:7e:91:10:e9:29:4b:74:69:f9:78:56:8b:2e:03:f8:5b:8e:
         98:17:4d:7b:8c:5c:51:c7:97:1d:32:7f:9f:4e:02:78:2d:d4:
         da:ec:84:35:87:cc:d9:e4:d8:7e:17:6b:4a:04:68:7b:7b:d3:
         c6:a5:55:82:b5:14:58:de:01:57:09:35:fe:e7:43:49:84:93:
         2f:76:19:8b:5f:09:21:59:d9:a2:0c:b7:02:03:01:5d:d2:ca:
         0b:05:4e:1b:1f:f9:2e:63
-----BEGIN CERTIFICATE-----
MIIGrTCCBJWgAwIBAgICFoQwDQYJKoZIhvcNAQEEBQAwgawxCzAJBgNVBAYTAlVT
MQswCQYDVQQIEwJPSDERMA8GA1UEBxMIQ29sdW1idXMxEjAQBgNVBAoTCVZpa2lu
Z1ZQTjEdMBsGA1UECxMUTXlPcmdhbml6YXRpb25hbFVuaXQxFTATBgNVBAMTDFZp
a2luZ1ZQTiBDQTEQMA4GA1UEKRMHRWFzeVJTQTEhMB8GCSqGSIb3DQEJARYSbWVA
bXlob3N0Lm15ZG9tYWluMB4XDTE1MDcxMDE1MzYwN1oXDTI1MDcwNzE1MzYwN1ow
HzEdMBsGA1UEAxMUQ2xpZW50MTgwM0NlcnRmZGQ1OGQwggIiMA0GCSqGSIb3DQEB
AQUAA4ICDwAwggIKAoICAQDF+aSw5Zjq9Jxzl6M8PwLXG8gZ7QQXB3Hih5hYa6wB
gqJXEzl0hFE0ln0ldEC5h+L0TvRgHczF8AcSPkrlItCro2orMtCNDq674BbbVmCH
RanhEd7TVoIrRWimeMLVGcn/mP5rUNcvZLdwl/riCQsbR2loO2MaxT1z2a1trIQc
0SB4Pe8GfGbXj09Z+FssWOh1UhnQEKib8ZWG2JvuxxSNGPWE3SnNoivOx2O/B0Ku
IYqJWjqpPkyWDm1k9tq5+ute4Fg7VBvhEmI+r5owEtjLhOXGUGr7PA+pfVr9zwGH
BTFrwI6nKw33SYLTzVyCukPDVvJZzkZr7AxsXMMg8OoQ5ZhX11Jv7GkXTyDgO64F
cWw3G/st2cup8udxQ3uK7wOv5Ll3Vv0sOYDbZcnZ/MV6hle/GtujIe7qPxzxsjua
cEGwtAQvdPFseUZmygsan4TZ8VL83/DrZgRKV1rCAtGDsy3fHRE5Et8Jhp5iT8u5
0h+FeSAcNXdRv/glyPKLOwL0yWwndA9n27/xJ2xd8/N6KgBApPyQ8lV5meKmtSuE
VJi/I8rfmgvjqjpoQ6z+05atit+Zw58MlaEuxvgRHYN1YO6Pkwetuukm/PdlOBvc
HNsIOKMccN/8h75lWxa9P/+NX8VnFqIgR/xREeyeU997jv2EC0q9p/XmRJa9Yn7t
SQIDAQABo4IBYzCCAV8wCQYDVR0TBAIwADAtBglghkgBhvhCAQ0EIBYeRWFzeS1S
U0EgR2VuZXJhdGVkIENlcnRpZmljYXRlMB0GA1UdDgQWBBR/uiOeW1vLTBNmriyL
K/2PAKEPGjCB4QYDVR0jBIHZMIHWgBQSzWAE0qCAnnDtxpm4eyzGUv0ZoaGBsqSB
rzCBrDELMAkGA1UEBhMCVVMxCzAJBgNVBAgTAk9IMREwDwYDVQQHEwhDb2x1bWJ1
czESMBAGA1UEChMJVmlraW5nVlBOMR0wGwYDVQQLExRNeU9yZ2FuaXphdGlvbmFs
VW5pdDEVMBMGA1UEAxMMVmlraW5nVlBOIENBMRAwDgYDVQQpEwdFYXN5UlNBMSEw
HwYJKoZIhvcNAQkBFhJtZUBteWhvc3QubXlkb21haW6CCQDPNYXugL8qPjATBgNV
HSUEDDAKBggrBgEFBQcDAjALBgNVHQ8EBAMCB4AwDQYJKoZIhvcNAQEEBQADggIB
ADekuyIHgSrJpzRzIwtNvbMjRGkqYuZIvNDp+oARYnJ48W6XReNCnUoDzX4DxW2t
TQNSoqQkMMjvL7ZR9e/teQa37rxokrwV73Bq22BTBN6GSi4PY8ZeLz2Dm3YhREED
/skCv0dz/xBEtBe9aS8hRR2KqEym+Axk01CwpyAJPf7g8AK11StUX3YxhYPVqZT7
3HbnEhpVVoPIR4UhHpNUnzXlyhwVNfZ0TCSsaPoJ/54Vls3JhX7P43TnjBzN8AVz
b0vvWvyqOp8STrwWxOnLfmcQiqCOMaDOU2DgytL39+1hZJEf15OfVlXv0haqtmED
gaAsG0untNzjRbE5HT0xb8YRIgwpN/d09cP5H2OHsbNYR84p9M1l7+55tYygBoOE
cSOOTf/+njLisSOzPqovVoM/3moVI49OSJVsbbUZZY4FNNMzWYCCERIfgCpGVg1h
HyjXZesJnAa8Ap/c0LkgVL7/HEcZVsR87FPtU74JyKBlTqDQjNySlwQthDa2SLJ0
5B/FeBNGZL8r7CrQPFzZaxY9I0adr4voKLre0lrwbdd+kRDpKUt0afl4VosuA/hb
jpgXTXuMXFHHlx0yf59OAngt1NrshDWHzNnk2H4Xa0oEaHt708alVYK1FFjeAVcJ
Nf7nQ0mEky92GYtfCSFZ2aIMtwIDAV3SygsFThsf+S5j
-----END CERTIFICATE-----
