Certificate:
    Data:
        Version: 3 (0x2)
        Serial Number: 9467 (0x24fb)
    Signature Algorithm: sha256WithRSAEncryption
        Issuer: C=US, ST=OH, L=Columbus, O=VikingVPN, OU=MyOrganizationalUnit, CN=VikingVPN CA/name=EasyRSA/emailAddress=me@myhost.mydomain
        Validity
            Not Before: Nov 16 22:23:27 2016 GMT
            Not After : Nov 14 22:23:27 2026 GMT
        Subject: CN=Client2589Cert717658
        Subject Public Key Info:
            Public Key Algorithm: rsaEncryption
                Public-Key: (4096 bit)
                Modulus:
                    00:d5:d3:6c:94:1f:eb:6e:93:05:0a:59:52:6d:71:
                    ba:4f:49:b1:66:92:4e:06:aa:d7:4a:71:e9:21:55:
                    58:ed:7e:ec:95:f4:79:d7:e9:0b:13:75:f6:45:af:
                    88:59:45:36:83:43:9b:4a:2b:3e:5f:bd:9f:c0:32:
                    3d:6c:b5:0b:1d:e6:86:60:60:5a:29:17:23:52:62:
                    a2:16:94:be:3f:0f:e4:10:ae:62:3b:92:5c:31:20:
                    b2:4a:8e:5a:5a:61:56:34:52:f7:e3:43:94:08:c4:
                    d0:93:46:f3:a4:33:25:6f:0b:64:73:37:bf:5e:58:
                    93:56:9b:54:71:2f:8a:43:54:e6:80:1c:4c:17:65:
                    2f:1a:4b:ce:ac:15:11:3e:37:2a:ae:3d:2d:4f:4a:
                    8e:8d:6d:40:d7:f3:91:dc:71:e4:18:5e:ba:b0:04:
                    fa:c8:a2:26:44:6f:8d:da:5c:66:5d:ff:c6:cd:08:
                    46:98:e3:dd:45:82:bc:ab:6f:b9:86:87:dd:9a:af:
                    9f:33:c4:f3:60:5e:c3:f9:fe:28:fa:1e:8f:a5:3d:
                    1e:0f:16:55:8a:42:48:1c:42:03:b6:01:4b:bc:d6:
                    44:c3:97:2b:83:6c:14:ea:cc:63:61:27:e7:3e:78:
                    9c:20:0a:d5:70:f5:20:27:68:a3:4c:6c:fd:30:04:
                    f7:05:61:36:be:0d:aa:28:b7:d8:3d:e1:e7:66:32:
                    fa:af:d8:67:05:b3:54:20:b2:50:71:fc:dd:de:bc:
                    d4:91:e5:e6:ba:a3:b7:b5:2b:b2:5c:6f:e2:c3:9e:
                    93:7b:25:1d:d9:9f:bc:2c:7b:00:52:65:70:64:29:
                    0f:b4:47:78:49:52:78:81:62:c6:a2:50:c5:cd:9a:
                    74:34:9b:26:0e:0e:46:5f:cb:ff:95:d9:cb:de:fc:
                    4f:d8:0c:c6:5b:b0:0a:fb:a9:2d:b8:ce:c5:42:78:
                    cf:48:f6:aa:9b:e4:e2:d3:dd:01:2f:e7:94:43:62:
                    61:f6:f0:ca:33:f6:b5:d9:d3:9b:d7:c9:d7:5b:1a:
                    54:66:7b:9f:a3:f5:c4:f3:40:c1:bc:8d:94:7b:c6:
                    69:5a:2b:8d:5f:ad:f6:d9:e1:24:d1:03:16:d3:d8:
                    e2:48:f3:ad:5f:13:1d:9f:86:71:5d:89:88:b3:b2:
                    a9:92:4f:e5:ea:78:ce:6d:5b:ae:cb:b2:19:e5:b7:
                    f3:4e:c3:b8:50:b6:35:ab:82:5e:cb:d3:41:14:9c:
                    5a:9c:df:24:df:0e:7c:7f:61:50:ca:71:7a:26:af:
                    c9:a6:77:34:00:46:b4:a2:2d:56:41:08:77:b9:f5:
                    a3:ef:27:4d:d6:33:39:75:cf:5a:90:42:f9:25:98:
                    d0:09:93
                Exponent: 65537 (0x10001)
        X509v3 extensions:
            X509v3 Basic Constraints: 
                CA:FALSE
            Netscape Comment: 
                Easy-RSA Generated Certificate
            X509v3 Subject Key Identifier: 
                AE:A9:28:38:ED:29:F4:CF:75:34:68:E0:57:94:EB:44:3E:64:20:A0
            X509v3 Authority Key Identifier: 
                keyid:12:CD:60:04:D2:A0:80:9E:70:ED:C6:99:B8:7B:2C:C6:52:FD:19:A1
                DirName:/C=US/ST=OH/L=Columbus/O=VikingVPN/OU=MyOrganizationalUnit/CN=VikingVPN CA/name=EasyRSA/emailAddress=me@myhost.mydomain
                serial:CF:35:85:EE:80:BF:2A:3E

            X509v3 Extended Key Usage: 
                TLS Web Client Authentication
            X509v3 Key Usage: 
                Digital Signature
    Signature Algorithm: sha256WithRSAEncryption
         2c:7f:2a:11:9b:53:46:63:48:50:da:3b:29:3f:b4:7b:6d:e9:
         46:7a:92:5a:d5:7d:69:91:bf:fd:2d:6d:57:c8:95:b7:65:46:
         12:dd:27:1a:70:01:f6:5b:31:93:21:72:1a:79:30:3a:5b:af:
         80:85:d4:22:da:05:eb:5e:00:8a:cb:38:b8:56:97:24:2c:0e:
         27:f6:f5:1c:c6:23:20:83:4a:4c:50:37:67:66:c4:d6:9f:97:
         7b:e1:df:4d:cd:3e:9c:82:4c:ac:80:b1:66:35:ff:6e:08:69:
         b1:08:73:32:fd:67:43:a2:3b:69:3d:a8:f8:2d:86:85:a6:de:
         14:06:62:71:d7:04:f5:83:82:ae:5b:d7:ef:62:d5:6b:91:1d:
         1e:e3:30:8a:f2:d4:41:4e:8d:c1:c9:98:d4:55:90:9c:87:7e:
         d9:10:83:d3:d4:73:09:c0:a9:8f:d4:c1:1b:f4:79:3c:22:57:
         40:9c:54:eb:8b:82:23:47:88:b8:cb:00:ad:b4:0d:bd:03:e3:
         28:f5:5b:f3:2f:85:c2:d9:f9:7a:f0:e9:3d:95:9f:ec:bf:46:
         db:90:10:f4:0c:14:b7:b4:16:fc:c5:2d:e8:05:51:bd:d0:12:
         a9:64:71:3e:70:16:f2:ea:89:6b:1a:11:96:b8:4c:97:c7:e2:
         b9:65:9c:36:c9:4a:c0:34:c2:31:07:2f:2b:11:81:d4:11:7a:
         6b:8f:c2:72:6f:d1:e5:eb:e7:80:dd:99:c6:15:76:66:85:06:
         b3:ec:86:d6:84:83:1c:7b:60:b9:ba:7b:35:b1:bc:53:4e:16:
         26:2d:52:90:5c:e2:1f:16:67:e0:6f:1b:f5:26:33:7a:08:3b:
         b1:69:10:e7:12:0f:66:e6:5c:8e:67:dd:50:32:3e:6a:b3:d0:
         d2:c3:8b:10:c3:08:24:df:11:1e:9a:58:7b:7b:a1:b3:7a:21:
         3c:18:78:72:62:ff:01:bc:83:38:18:68:fc:44:74:67:ab:91:
         51:cf:b1:96:72:7e:38:5a:86:50:88:29:8d:0a:65:ef:32:30:
         bf:ae:44:f5:ec:b8:a2:2e:b0:bd:40:be:f9:29:9c:87:98:fb:
         30:b4:71:20:bb:ad:1d:93:3a:6f:2c:db:29:63:33:70:4a:dc:
         e7:fc:43:5f:10:d6:8d:f8:3c:a6:75:74:10:77:88:47:79:b8:
         19:52:4f:f9:90:2a:92:be:f6:ff:8b:e6:93:6f:5b:f9:d7:e2:
         7d:c2:1e:b2:70:a9:0b:04:ce:97:07:90:0b:fd:d5:36:10:0a:
         d5:a9:46:09:be:35:46:ce:7b:d2:87:a6:3b:e5:f9:03:c2:ae:
         35:77:79:fe:9b:ce:1b:17
-----BEGIN CERTIFICATE-----
MIIGrTCCBJWgAwIBAgICJPswDQYJKoZIhvcNAQELBQAwgawxCzAJBgNVBAYTAlVT
MQswCQYDVQQIEwJPSDERMA8GA1UEBxMIQ29sdW1idXMxEjAQBgNVBAoTCVZpa2lu
Z1ZQTjEdMBsGA1UECxMUTXlPcmdhbml6YXRpb25hbFVuaXQxFTATBgNVBAMTDFZp
a2luZ1ZQTiBDQTEQMA4GA1UEKRMHRWFzeVJTQTEhMB8GCSqGSIb3DQEJARYSbWVA
bXlob3N0Lm15ZG9tYWluMB4XDTE2MTExNjIyMjMyN1oXDTI2MTExNDIyMjMyN1ow
HzEdMBsGA1UEAxMUQ2xpZW50MjU4OUNlcnQ3MTc2NTgwggIiMA0GCSqGSIb3DQEB
AQUAA4ICDwAwggIKAoICAQDV02yUH+tukwUKWVJtcbpPSbFmkk4GqtdKcekhVVjt
fuyV9HnX6QsTdfZFr4hZRTaDQ5tKKz5fvZ/AMj1stQsd5oZgYFopFyNSYqIWlL4/
D+QQrmI7klwxILJKjlpaYVY0UvfjQ5QIxNCTRvOkMyVvC2RzN79eWJNWm1RxL4pD
VOaAHEwXZS8aS86sFRE+NyquPS1PSo6NbUDX85HcceQYXrqwBPrIoiZEb43aXGZd
/8bNCEaY491Fgryrb7mGh92ar58zxPNgXsP5/ij6Ho+lPR4PFlWKQkgcQgO2AUu8
1kTDlyuDbBTqzGNhJ+c+eJwgCtVw9SAnaKNMbP0wBPcFYTa+Daoot9g94edmMvqv
2GcFs1QgslBx/N3evNSR5ea6o7e1K7Jcb+LDnpN7JR3Zn7wsewBSZXBkKQ+0R3hJ
UniBYsaiUMXNmnQ0myYODkZfy/+V2cve/E/YDMZbsAr7qS24zsVCeM9I9qqb5OLT
3QEv55RDYmH28Moz9rXZ05vXyddbGlRme5+j9cTzQMG8jZR7xmlaK41frfbZ4STR
AxbT2OJI861fEx2fhnFdiYizsqmST+XqeM5tW67Lshnlt/NOw7hQtjWrgl7L00EU
nFqc3yTfDnx/YVDKcXomr8mmdzQARrSiLVZBCHe59aPvJ03WMzl1z1qQQvklmNAJ
kwIDAQABo4IBYzCCAV8wCQYDVR0TBAIwADAtBglghkgBhvhCAQ0EIBYeRWFzeS1S
U0EgR2VuZXJhdGVkIENlcnRpZmljYXRlMB0GA1UdDgQWBBSuqSg47Sn0z3U0aOBX
lOtEPmQgoDCB4QYDVR0jBIHZMIHWgBQSzWAE0qCAnnDtxpm4eyzGUv0ZoaGBsqSB
rzCBrDELMAkGA1UEBhMCVVMxCzAJBgNVBAgTAk9IMREwDwYDVQQHEwhDb2x1bWJ1
czESMBAGA1UEChMJVmlraW5nVlBOMR0wGwYDVQQLExRNeU9yZ2FuaXphdGlvbmFs
VW5pdDEVMBMGA1UEAxMMVmlraW5nVlBOIENBMRAwDgYDVQQpEwdFYXN5UlNBMSEw
HwYJKoZIhvcNAQkBFhJtZUBteWhvc3QubXlkb21haW6CCQDPNYXugL8qPjATBgNV
HSUEDDAKBggrBgEFBQcDAjALBgNVHQ8EBAMCB4AwDQYJKoZIhvcNAQELBQADggIB
ACx/KhGbU0ZjSFDaOyk/tHtt6UZ6klrVfWmRv/0tbVfIlbdlRhLdJxpwAfZbMZMh
chp5MDpbr4CF1CLaBeteAIrLOLhWlyQsDif29RzGIyCDSkxQN2dmxNafl3vh303N
PpyCTKyAsWY1/24IabEIczL9Z0OiO2k9qPgthoWm3hQGYnHXBPWDgq5b1+9i1WuR
HR7jMIry1EFOjcHJmNRVkJyHftkQg9PUcwnAqY/UwRv0eTwiV0CcVOuLgiNHiLjL
AK20Db0D4yj1W/MvhcLZ+Xrw6T2Vn+y/RtuQEPQMFLe0FvzFLegFUb3QEqlkcT5w
FvLqiWsaEZa4TJfH4rllnDbJSsA0wjEHLysRgdQRemuPwnJv0eXr54DdmcYVdmaF
BrPshtaEgxx7YLm6ezWxvFNOFiYtUpBc4h8WZ+BvG/UmM3oIO7FpEOcSD2bmXI5n
3VAyPmqz0NLDixDDCCTfER6aWHt7obN6ITwYeHJi/wG8gzgYaPxEdGerkVHPsZZy
fjhahlCIKY0KZe8yML+uRPXsuKIusL1AvvkpnIeY+zC0cSC7rR2TOm8s2yljM3BK
3Of8Q18Q1o34PKZ1dBB3iEd5uBlST/mQKpK+9v+L5pNvW/nX4n3CHrJwqQsEzpcH
kAv91TYQCtWpRgm+NUbOe9KHpjvl+QPCrjV3ef6bzhsX
-----END CERTIFICATE-----
