Certificate:
    Data:
        Version: 3 (0x2)
        Serial Number: 5746 (0x1672)
    Signature Algorithm: md5WithRSAEncryption
        Issuer: C=US, ST=OH, L=Columbus, O=VikingVPN, OU=MyOrganizationalUnit, CN=VikingVPN CA/name=EasyRSA/emailAddress=me@myhost.mydomain
        Validity
            Not Before: Jul  9 01:38:17 2015 GMT
            Not After : Jul  6 01:38:17 2025 GMT
        Subject: CN=Client1821Certc02d3a
        Subject Public Key Info:
            Public Key Algorithm: rsaEncryption
                Public-Key: (4096 bit)
                Modulus:
                    00:aa:54:9a:45:69:55:02:0f:25:9f:16:fb:24:74:
                    4a:0f:78:96:45:30:51:f3:20:80:2b:bd:5e:1e:82:
                    a8:64:50:76:49:87:55:a5:45:68:36:d6:d1:71:08:
                    62:36:b5:4c:f7:c5:81:80:28:4a:0e:62:48:d9:d3:
                    21:77:10:ea:31:0e:46:0b:6e:fd:44:39:9e:10:9f:
                    bb:a1:72:f3:f3:8c:59:04:09:62:02:b2:69:a6:e6:
                    f9:65:81:c6:82:a0:e5:2d:ea:78:cb:a7:da:8d:5c:
                    aa:74:e1:47:c3:03:9b:df:57:0c:d3:e8:14:c9:d2:
                    66:84:39:64:9a:49:5d:5d:f9:ae:ef:d4:09:65:15:
                    b9:d9:2e:b5:8d:33:71:cf:4a:b3:e2:4c:47:64:30:
                    ca:6b:97:f3:c8:90:4d:2f:05:5f:33:46:9f:56:15:
                    14:e6:84:1e:11:fa:14:22:c9:e5:09:2b:e0:dd:23:
                    d8:c4:53:8a:32:6c:ff:4e:56:6f:f3:f4:82:2a:60:
                    5a:a7:de:83:ef:8a:77:fd:bd:96:e2:b8:cd:46:3c:
                    ae:5e:eb:8c:b1:cf:cf:17:cb:39:fe:b9:3f:f8:bd:
                    6d:f3:b1:1a:b2:f9:1b:fd:ab:b8:2d:5e:1a:8a:d9:
                    99:29:55:8f:cb:ba:87:8b:bc:0a:15:b0:02:2e:0d:
                    40:36:f3:98:58:fd:fd:d6:ea:06:e1:cb:46:2a:aa:
                    87:75:4d:46:57:ab:7c:0f:12:5d:59:0c:99:50:48:
                    55:94:c6:de:b8:b2:0d:1f:09:ac:08:63:a5:a9:69:
                    a8:61:65:4d:74:0c:34:d5:05:02:b2:99:21:1a:c2:
                    43:6c:c8:78:ef:8d:fe:cc:fa:01:16:1a:19:d0:73:
                    ee:56:d5:ae:56:1b:ce:d1:fc:57:ac:a1:4c:c3:15:
                    22:13:99:ed:c8:6a:a8:68:ac:34:92:d4:62:d1:d9:
                    a5:09:7a:93:8b:18:fa:f7:ec:1a:d4:2d:11:64:44:
                    98:99:91:89:9d:4f:c6:21:56:e5:e9:0a:5a:99:05:
                    2a:00:ea:db:03:54:27:97:4d:e1:53:57:c5:3b:e1:
                    ee:70:25:e2:b3:5a:78:d9:d4:11:84:7f:1e:cb:d7:
                    c1:db:5f:1b:05:60:d6:c2:02:90:45:18:bd:9b:0c:
                    d5:db:07:05:88:f8:0d:20:5b:6e:7d:2d:a2:15:c0:
                    99:bb:bd:68:9a:a5:b1:cc:0f:a1:f4:d2:92:bc:3f:
                    d7:ed:0a:66:e9:10:2f:88:f0:b4:c1:cc:e5:d7:1e:
                    b4:9d:42:bf:04:1a:0c:79:b1:e8:64:ee:51:9c:97:
                    fa:47:23:b2:12:15:87:b9:0a:9b:20:39:46:e3:a1:
                    65:c8:a3
                Exponent: 65537 (0x10001)
        X509v3 extensions:
            X509v3 Basic Constraints: 
                CA:FALSE
            Netscape Comment: 
                Easy-RSA Generated Certificate
            X509v3 Subject Key Identifier: 
                DD:C4:99:6B:F8:72:27:30:03:D5:1C:B8:40:EA:5B:D0:94:CE:EB:8F
            X509v3 Authority Key Identifier: 
                keyid:12:CD:60:04:D2:A0:80:9E:70:ED:C6:99:B8:7B:2C:C6:52:FD:19:A1
                DirName:/C=US/ST=OH/L=Columbus/O=VikingVPN/OU=MyOrganizationalUnit/CN=VikingVPN CA/name=EasyRSA/emailAddress=me@myhost.mydomain
                serial:CF:35:85:EE:80:BF:2A:3E

            X509v3 Extended Key Usage: 
                TLS Web Client Authentication
            X509v3 Key Usage: 
                Digital Signature
    Signature Algorithm: md5WithRSAEncryption
         42:2e:72:27:57:31:1d:cf:40:07:14:ba:27:2b:98:21:da:10:
         37:69:b9:8a:5d:a0:56:90:7f:e4:2f:bd:d7:8c:f2:83:74:34:
         c4:a6:77:f8:56:e1:f9:b0:c5:41:41:03:d3:e9:0d:61:9f:30:
         c7:ff:d2:66:bf:41:76:8c:68:3b:07:02:a5:59:c9:82:c0:cf:
         e8:bb:65:c1:55:c7:7d:05:5c:ac:cb:1e:f2:71:40:ff:02:a9:
         78:4a:ae:d5:5d:2e:f0:8b:95:8a:b6:d3:18:c8:96:89:61:a1:
         cc:48:85:81:a7:d1:93:ad:b6:58:8a:ce:52:1c:19:6b:a0:10:
         24:47:98:5f:78:5b:e0:ab:e6:a5:ce:da:18:4b:59:a7:9e:f6:
         69:33:a6:86:75:04:57:d6:e6:58:a2:06:74:47:b5:3c:15:4b:
         f9:e3:af:57:93:7e:db:72:fe:7d:ab:c6:13:ca:ed:0b:3b:83:
         e1:60:2f:cd:f7:13:93:0a:f8:5b:d7:ca:e8:64:a2:d0:4e:cb:
         8e:7d:a1:92:c7:a3:be:91:37:76:1b:4e:98:67:3b:62:8c:50:
         ee:ff:49:2a:83:cd:3f:f0:00:a0:78:75:ce:d7:21:c3:b2:a4:
         59:85:61:9f:b0:b8:7c:8e:60:c4:a4:6c:e7:27:dd:b5:87:26:
         2e:7a:19:95:11:97:1a:b6:32:4f:0c:1f:68:00:cf:e0:fc:85:
         76:9c:64:32:2a:f7:0e:f2:54:03:bb:3f:c5:e4:8c:90:cc:d9:
         cb:e5:6a:fd:c7:ca:de:c5:a3:32:76:3b:e9:b6:90:0e:33:3d:
         3b:17:47:eb:75:b2:ed:eb:97:37:24:1d:c4:a7:aa:56:a4:a9:
         4f:d1:6a:3c:61:6b:3c:45:f6:9f:c7:24:54:8e:6f:99:ef:7d:
         c2:89:a3:9a:62:76:0b:d9:12:54:08:03:f4:a0:cc:fb:f1:7e:
         1e:78:6a:3c:b9:e3:9a:4d:a2:fe:e1:73:47:c3:a3:85:97:07:
         01:f3:c9:63:00:75:31:61:55:14:ee:15:dd:1f:a1:43:64:db:
         10:15:50:0a:85:12:04:9b:76:97:cd:31:90:77:93:fc:b6:f5:
         07:05:52:47:e3:13:55:f0:3a:5f:a2:53:3b:f4:0e:9b:8e:df:
         d2:99:32:af:eb:41:93:01:e3:83:da:69:ba:e5:46:68:f2:aa:
         80:32:c8:5f:24:ec:1e:04:83:ec:83:1c:7b:14:c9:73:be:b2:
         fa:f7:f5:8d:8a:95:60:9e:3f:f1:ab:f1:4c:05:f8:73:a1:0f:
         09:b2:36:34:13:71:73:4d:b6:07:e0:83:45:d7:07:24:27:49:
         9a:34:78:c0:9b:91:6a:72
-----BEGIN CERTIFICATE-----
MIIGrTCCBJWgAwIBAgICFnIwDQYJKoZIhvcNAQEEBQAwgawxCzAJBgNVBAYTAlVT
MQswCQYDVQQIEwJPSDERMA8GA1UEBxMIQ29sdW1idXMxEjAQBgNVBAoTCVZpa2lu
Z1ZQTjEdMBsGA1UECxMUTXlPcmdhbml6YXRpb25hbFVuaXQxFTATBgNVBAMTDFZp
a2luZ1ZQTiBDQTEQMA4GA1UEKRMHRWFzeVJTQTEhMB8GCSqGSIb3DQEJARYSbWVA
bXlob3N0Lm15ZG9tYWluMB4XDTE1MDcwOTAxMzgxN1oXDTI1MDcwNjAxMzgxN1ow
HzEdMBsGA1UEAxMUQ2xpZW50MTgyMUNlcnRjMDJkM2EwggIiMA0GCSqGSIb3DQEB
AQUAA4ICDwAwggIKAoICAQCqVJpFaVUCDyWfFvskdEoPeJZFMFHzIIArvV4egqhk
UHZJh1WlRWg21tFxCGI2tUz3xYGAKEoOYkjZ0yF3EOoxDkYLbv1EOZ4Qn7uhcvPz
jFkECWICsmmm5vllgcaCoOUt6njLp9qNXKp04UfDA5vfVwzT6BTJ0maEOWSaSV1d
+a7v1AllFbnZLrWNM3HPSrPiTEdkMMprl/PIkE0vBV8zRp9WFRTmhB4R+hQiyeUJ
K+DdI9jEU4oybP9OVm/z9IIqYFqn3oPvinf9vZbiuM1GPK5e64yxz88Xyzn+uT/4
vW3zsRqy+Rv9q7gtXhqK2ZkpVY/LuoeLvAoVsAIuDUA285hY/f3W6gbhy0Yqqod1
TUZXq3wPEl1ZDJlQSFWUxt64sg0fCawIY6WpaahhZU10DDTVBQKymSEawkNsyHjv
jf7M+gEWGhnQc+5W1a5WG87R/FesoUzDFSITme3IaqhorDSS1GLR2aUJepOLGPr3
7BrULRFkRJiZkYmdT8YhVuXpClqZBSoA6tsDVCeXTeFTV8U74e5wJeKzWnjZ1BGE
fx7L18HbXxsFYNbCApBFGL2bDNXbBwWI+A0gW259LaIVwJm7vWiapbHMD6H00pK8
P9ftCmbpEC+I8LTBzOXXHrSdQr8EGgx5sehk7lGcl/pHI7ISFYe5CpsgOUbjoWXI
owIDAQABo4IBYzCCAV8wCQYDVR0TBAIwADAtBglghkgBhvhCAQ0EIBYeRWFzeS1S
U0EgR2VuZXJhdGVkIENlcnRpZmljYXRlMB0GA1UdDgQWBBTdxJlr+HInMAPVHLhA
6lvQlM7rjzCB4QYDVR0jBIHZMIHWgBQSzWAE0qCAnnDtxpm4eyzGUv0ZoaGBsqSB
rzCBrDELMAkGA1UEBhMCVVMxCzAJBgNVBAgTAk9IMREwDwYDVQQHEwhDb2x1bWJ1
czESMBAGA1UEChMJVmlraW5nVlBOMR0wGwYDVQQLExRNeU9yZ2FuaXphdGlvbmFs
VW5pdDEVMBMGA1UEAxMMVmlraW5nVlBOIENBMRAwDgYDVQQpEwdFYXN5UlNBMSEw
HwYJKoZIhvcNAQkBFhJtZUBteWhvc3QubXlkb21haW6CCQDPNYXugL8qPjATBgNV
HSUEDDAKBggrBgEFBQcDAjALBgNVHQ8EBAMCB4AwDQYJKoZIhvcNAQEEBQADggIB
AEIucidXMR3PQAcUuicrmCHaEDdpuYpdoFaQf+QvvdeM8oN0NMSmd/hW4fmwxUFB
A9PpDWGfMMf/0ma/QXaMaDsHAqVZyYLAz+i7ZcFVx30FXKzLHvJxQP8CqXhKrtVd
LvCLlYq20xjIlolhocxIhYGn0ZOttliKzlIcGWugECRHmF94W+Cr5qXO2hhLWaee
9mkzpoZ1BFfW5liiBnRHtTwVS/njr1eTftty/n2rxhPK7Qs7g+FgL833E5MK+FvX
yuhkotBOy459oZLHo76RN3YbTphnO2KMUO7/SSqDzT/wAKB4dc7XIcOypFmFYZ+w
uHyOYMSkbOcn3bWHJi56GZURlxq2Mk8MH2gAz+D8hXacZDIq9w7yVAO7P8XkjJDM
2cvlav3Hyt7FozJ2O+m2kA4zPTsXR+t1su3rlzckHcSnqlakqU/RajxhazxF9p/H
JFSOb5nvfcKJo5pidgvZElQIA/SgzPvxfh54ajy545pNov7hc0fDo4WXBwHzyWMA
dTFhVRTuFd0foUNk2xAVUAqFEgSbdpfNMZB3k/y29QcFUkfjE1XwOl+iUzv0DpuO
39KZMq/rQZMB44PaabrlRmjyqoAyyF8k7B4Eg+yDHHsUyXO+svr39Y2KlWCeP/Gr
8UwF+HOhDwmyNjQTcXNNtgfgg0XXByQnSZo0eMCbkWpy
-----END CERTIFICATE-----
