Certificate:
    Data:
        Version: 3 (0x2)
        Serial Number: 2049 (0x801)
    Signature Algorithm: md5WithRSAEncryption
        Issuer: C=US, ST=OH, L=Columbus, O=VikingVPN, OU=MyOrganizationalUnit, CN=VikingVPN CA/name=EasyRSA/emailAddress=me@myhost.mydomain
        Validity
            Not Before: Jun  7 04:51:30 2014 GMT
            Not After : Jun  4 04:51:30 2024 GMT
        Subject: CN=Client470Cert619e28
        Subject Public Key Info:
            Public Key Algorithm: rsaEncryption
                Public-Key: (4096 bit)
                Modulus:
                    00:b2:89:b5:f6:01:83:c6:60:ea:0c:fd:ef:8a:68:
                    6d:f5:25:8b:68:86:db:bc:17:90:92:53:a7:b2:ba:
                    c5:75:f0:78:be:a3:39:54:63:a2:54:c4:78:97:88:
                    95:8e:7d:21:e6:ae:fa:cf:06:2a:fa:33:05:30:23:
                    86:b2:1b:58:95:4b:5e:53:91:3b:6b:6b:45:ff:d5:
                    99:3a:80:6b:da:02:9e:a7:ae:c3:d2:04:00:10:ba:
                    8f:4d:f8:02:9c:b1:6b:8f:8e:fd:40:e3:ba:44:05:
                    af:5b:a0:c2:2c:d2:01:b4:21:30:d1:2f:11:85:10:
                    13:76:c5:63:dc:ac:8a:24:20:dd:52:41:71:5d:84:
                    12:37:5b:8d:73:5f:26:ed:dc:ef:2e:f3:6d:d2:5c:
                    b5:5c:46:5f:f8:c5:be:17:5c:98:3f:be:26:55:a1:
                    86:c9:26:9a:0a:3f:21:ea:29:90:a2:78:03:42:dd:
                    ca:d0:87:c6:8a:61:14:18:c3:7d:bd:9b:bd:09:33:
                    0e:15:4c:f2:a2:d0:c0:57:15:33:cc:f0:2e:2f:ae:
                    de:a6:81:8f:81:a7:ab:c4:02:3e:ca:77:6f:1a:6f:
                    a6:a9:74:81:5b:b6:bb:62:0f:52:ac:96:16:40:44:
                    28:1f:34:06:65:13:7a:5f:09:31:da:df:85:a7:5b:
                    05:52:3c:65:d3:a0:7d:bf:68:e7:6f:3f:2f:56:31:
                    c4:fe:0c:9c:74:22:dd:81:1c:de:9b:41:a3:08:51:
                    b6:a5:90:4d:56:7a:9e:24:71:b3:cc:b8:58:1f:5e:
                    09:f3:4c:40:f5:dd:c8:2d:43:bf:40:3d:ea:6e:c5:
                    da:30:04:b2:58:74:17:d9:1d:d6:60:fb:86:f9:42:
                    0d:72:84:1f:c5:7d:36:11:87:e1:e1:4d:bd:a7:32:
                    18:ad:ca:ac:3b:88:96:16:39:53:a7:24:e0:be:13:
                    a4:9a:81:63:c7:e0:c1:9b:51:83:09:07:bd:ed:d6:
                    f6:1e:75:0b:69:58:87:ff:94:b8:e4:06:a2:8f:16:
                    fb:97:f6:4c:c9:ed:29:32:3c:bd:ab:f0:48:28:e9:
                    e9:4b:74:eb:ef:32:43:45:f5:d7:92:bf:87:32:d8:
                    9e:1b:a8:be:9c:d2:45:5a:c3:a7:a1:93:71:21:02:
                    3b:f0:49:b2:33:91:b2:9a:b0:18:e5:e9:a5:5f:4c:
                    e4:cc:5f:ac:96:6e:41:35:59:83:fb:a5:f5:05:12:
                    30:57:9d:5e:54:b1:b3:b4:8c:ff:8c:c6:e9:04:55:
                    e4:75:8c:d3:f1:f6:2c:fe:b4:42:69:e4:84:98:b1:
                    9d:13:0a:ce:c4:0b:1a:db:ce:23:fa:12:1c:da:69:
                    9e:31:99
                Exponent: 65537 (0x10001)
        X509v3 extensions:
            X509v3 Basic Constraints: 
                CA:FALSE
            Netscape Comment: 
                Easy-RSA Generated Certificate
            X509v3 Subject Key Identifier: 
                8A:26:33:8C:AF:7E:FB:E3:2C:E2:EC:7B:AC:AA:58:53:64:87:32:9D
            X509v3 Authority Key Identifier: 
                keyid:12:CD:60:04:D2:A0:80:9E:70:ED:C6:99:B8:7B:2C:C6:52:FD:19:A1
                DirName:/C=US/ST=OH/L=Columbus/O=VikingVPN/OU=MyOrganizationalUnit/CN=VikingVPN CA/name=EasyRSA/emailAddress=me@myhost.mydomain
                serial:CF:35:85:EE:80:BF:2A:3E

            X509v3 Extended Key Usage: 
                TLS Web Client Authentication
            X509v3 Key Usage: 
                Digital Signature
    Signature Algorithm: md5WithRSAEncryption
         84:16:b5:50:25:8f:ac:e6:2b:b8:87:d5:fd:2e:18:74:e4:81:
         47:cd:e1:3b:7d:3b:69:09:04:9f:06:8e:4a:c3:71:75:b4:02:
         c5:14:eb:cf:fb:46:e1:d5:18:f3:55:c4:4a:7e:3a:22:8c:93:
         db:af:ce:2f:bd:07:29:a3:0c:ec:81:91:d5:c6:4c:da:d7:02:
         4f:5f:13:ac:49:1d:a3:b3:00:5e:34:95:8f:86:59:ea:20:1c:
         95:e4:57:42:64:49:80:dc:8d:f5:13:8b:dd:a1:22:f2:ae:96:
         a0:d9:51:f1:9e:66:2d:7d:f5:bb:41:56:5c:99:08:fe:20:e4:
         a8:06:32:16:70:1e:14:36:31:d8:b2:39:67:5d:64:25:a6:ad:
         34:25:18:8c:63:63:af:9c:9d:c8:6c:94:ec:79:f4:07:9e:33:
         bb:06:bd:a6:10:67:9f:95:a6:51:96:fd:3d:40:fd:d4:10:e6:
         7b:cb:77:d7:de:4d:4c:60:7c:ef:c7:ae:a5:06:30:06:ae:8b:
         bc:03:4d:de:aa:7a:97:8b:13:0d:33:5f:d5:8b:97:45:b4:69:
         b3:ed:9c:9e:66:2e:7d:00:d2:9f:ec:3b:ef:a8:04:22:62:23:
         1c:10:83:62:ea:86:8e:e2:6d:f0:d5:2e:39:55:c0:00:22:13:
         32:e7:dc:37:3d:79:5e:3e:40:8c:a8:75:50:52:23:23:1f:4c:
         0f:0c:60:17:cf:53:5f:af:f7:dd:1e:32:93:b6:f5:72:7d:48:
         71:4f:5b:72:d4:b3:2f:12:27:bb:2b:52:9e:cb:63:99:66:9f:
         01:3e:75:01:a2:e1:d0:1d:3a:e9:c6:9c:14:a8:8f:13:27:5c:
         c9:6b:c6:4d:a4:d3:91:fd:76:49:e6:31:10:45:83:e8:21:76:
         7b:f9:e4:6d:c2:7b:b5:1a:1f:ba:9a:69:cf:46:2d:df:15:71:
         b8:fa:34:9a:70:07:25:a9:b1:10:a0:15:02:6c:9f:36:e2:f2:
         a0:c6:35:4e:bd:49:3a:97:52:b9:0c:39:dc:85:ce:1c:a2:1f:
         20:68:70:1f:79:8f:73:b6:36:46:74:3e:a2:e4:ae:c9:c3:0a:
         84:2c:f1:90:b1:02:09:3e:e5:2a:44:35:9b:5a:e9:f3:e8:1b:
         1f:d6:0a:2f:24:e4:1c:91:27:11:4a:59:e6:67:79:a6:e3:70:
         f9:b1:dc:78:10:52:8e:f2:79:30:7d:58:c3:37:c7:20:c5:fc:
         a7:fe:f3:c0:5c:10:3c:bf:8f:94:ef:1e:2f:ee:8e:c6:8b:df:
         87:e2:cf:d6:cd:c9:65:13:b4:d1:d6:a9:75:d1:5b:98:72:93:
         5e:b7:4d:c4:96:94:ee:50
-----BEGIN CERTIFICATE-----
MIIGrDCCBJSgAwIBAgICCAEwDQYJKoZIhvcNAQEEBQAwgawxCzAJBgNVBAYTAlVT
MQswCQYDVQQIEwJPSDERMA8GA1UEBxMIQ29sdW1idXMxEjAQBgNVBAoTCVZpa2lu
Z1ZQTjEdMBsGA1UECxMUTXlPcmdhbml6YXRpb25hbFVuaXQxFTATBgNVBAMTDFZp
a2luZ1ZQTiBDQTEQMA4GA1UEKRMHRWFzeVJTQTEhMB8GCSqGSIb3DQEJARYSbWVA
bXlob3N0Lm15ZG9tYWluMB4XDTE0MDYwNzA0NTEzMFoXDTI0MDYwNDA0NTEzMFow
HjEcMBoGA1UEAxMTQ2xpZW50NDcwQ2VydDYxOWUyODCCAiIwDQYJKoZIhvcNAQEB
BQADggIPADCCAgoCggIBALKJtfYBg8Zg6gz974pobfUli2iG27wXkJJTp7K6xXXw
eL6jOVRjolTEeJeIlY59Ieau+s8GKvozBTAjhrIbWJVLXlORO2trRf/VmTqAa9oC
nqeuw9IEABC6j034Apyxa4+O/UDjukQFr1ugwizSAbQhMNEvEYUQE3bFY9ysiiQg
3VJBcV2EEjdbjXNfJu3c7y7zbdJctVxGX/jFvhdcmD++JlWhhskmmgo/IeopkKJ4
A0LdytCHxophFBjDfb2bvQkzDhVM8qLQwFcVM8zwLi+u3qaBj4Gnq8QCPsp3bxpv
pql0gVu2u2IPUqyWFkBEKB80BmUTel8JMdrfhadbBVI8ZdOgfb9o528/L1YxxP4M
nHQi3YEc3ptBowhRtqWQTVZ6niRxs8y4WB9eCfNMQPXdyC1Dv0A96m7F2jAEslh0
F9kd1mD7hvlCDXKEH8V9NhGH4eFNvacyGK3KrDuIlhY5U6ck4L4TpJqBY8fgwZtR
gwkHve3W9h51C2lYh/+UuOQGoo8W+5f2TMntKTI8vavwSCjp6Ut06+8yQ0X115K/
hzLYnhuovpzSRVrDp6GTcSECO/BJsjORspqwGOXppV9M5MxfrJZuQTVZg/ul9QUS
MFedXlSxs7SM/4zG6QRV5HWM0/H2LP60QmnkhJixnRMKzsQLGtvOI/oSHNppnjGZ
AgMBAAGjggFjMIIBXzAJBgNVHRMEAjAAMC0GCWCGSAGG+EIBDQQgFh5FYXN5LVJT
QSBHZW5lcmF0ZWQgQ2VydGlmaWNhdGUwHQYDVR0OBBYEFIomM4yvfvvjLOLse6yq
WFNkhzKdMIHhBgNVHSMEgdkwgdaAFBLNYATSoICecO3Gmbh7LMZS/RmhoYGypIGv
MIGsMQswCQYDVQQGEwJVUzELMAkGA1UECBMCT0gxETAPBgNVBAcTCENvbHVtYnVz
MRIwEAYDVQQKEwlWaWtpbmdWUE4xHTAbBgNVBAsTFE15T3JnYW5pemF0aW9uYWxV
bml0MRUwEwYDVQQDEwxWaWtpbmdWUE4gQ0ExEDAOBgNVBCkTB0Vhc3lSU0ExITAf
BgkqhkiG9w0BCQEWEm1lQG15aG9zdC5teWRvbWFpboIJAM81he6Avyo+MBMGA1Ud
JQQMMAoGCCsGAQUFBwMCMAsGA1UdDwQEAwIHgDANBgkqhkiG9w0BAQQFAAOCAgEA
hBa1UCWPrOYruIfV/S4YdOSBR83hO307aQkEnwaOSsNxdbQCxRTrz/tG4dUY81XE
Sn46IoyT26/OL70HKaMM7IGR1cZM2tcCT18TrEkdo7MAXjSVj4ZZ6iAcleRXQmRJ
gNyN9ROL3aEi8q6WoNlR8Z5mLX31u0FWXJkI/iDkqAYyFnAeFDYx2LI5Z11kJaat
NCUYjGNjr5ydyGyU7Hn0B54zuwa9phBnn5WmUZb9PUD91BDme8t3195NTGB878eu
pQYwBq6LvANN3qp6l4sTDTNf1YuXRbRps+2cnmYufQDSn+w776gEImIjHBCDYuqG
juJt8NUuOVXAACITMufcNz15Xj5AjKh1UFIjIx9MDwxgF89TX6/33R4yk7b1cn1I
cU9bctSzLxInuytSnstjmWafAT51AaLh0B066cacFKiPEydcyWvGTaTTkf12SeYx
EEWD6CF2e/nkbcJ7tRofupppz0Yt3xVxuPo0mnAHJamxEKAVAmyfNuLyoMY1Tr1J
OpdSuQw53IXOHKIfIGhwH3mPc7Y2RnQ+ouSuycMKhCzxkLECCT7lKkQ1m1rp8+gb
H9YKLyTkHJEnEUpZ5md5puNw+bHceBBSjvJ5MH1YwzfHIMX8p/7zwFwQPL+PlO8e
L+6Oxovfh+LP1s3JZRO00dapddFbmHKTXrdNxJaU7lA=
-----END CERTIFICATE-----
