Certificate:
    Data:
        Version: 3 (0x2)
        Serial Number: 5913 (0x1719)
    Signature Algorithm: md5WithRSAEncryption
        Issuer: C=US, ST=OH, L=Columbus, O=VikingVPN, OU=MyOrganizationalUnit, CN=VikingVPN CA/name=EasyRSA/emailAddress=me@myhost.mydomain
        Validity
            Not Before: Jul 24 21:53:20 2015 GMT
            Not After : Jul 21 21:53:20 2025 GMT
        Subject: CN=Client3Certc0dd41
        Subject Public Key Info:
            Public Key Algorithm: rsaEncryption
                Public-Key: (4096 bit)
                Modulus:
                    00:e2:45:61:d1:fa:17:37:ca:6f:ab:9d:11:b3:5d:
                    f7:45:49:6a:13:e8:7c:2f:1f:29:81:69:04:c4:ab:
                    6c:da:b9:0d:fe:a3:9f:d7:3e:42:22:1e:84:8c:36:
                    d7:54:48:e9:4e:0f:68:63:30:e7:2f:88:1c:14:42:
                    93:55:8e:61:c6:6c:17:12:51:62:2e:62:60:e5:71:
                    ac:73:17:ff:4a:24:69:73:d8:83:fc:c4:0f:ab:5a:
                    fd:68:0b:d2:73:76:3e:21:d2:11:0c:c7:ba:38:18:
                    0f:1f:6e:19:3d:88:76:d7:e7:49:cb:3c:52:a6:53:
                    6c:13:4a:5e:9e:4d:f8:86:cb:99:e2:7a:cf:13:ff:
                    b5:82:1a:27:31:16:7b:75:9c:d7:0d:a4:90:bc:fc:
                    d7:39:95:7f:e0:d0:58:1a:38:8d:d0:37:c5:84:a9:
                    0b:0e:40:5d:bd:cb:46:51:01:8f:6b:28:05:27:3a:
                    c4:09:10:45:31:a8:92:55:91:99:0e:ad:21:4d:a0:
                    6a:67:14:79:ae:e4:57:d6:85:04:00:f0:61:eb:c5:
                    30:eb:1c:e2:c4:ac:92:d0:47:38:da:32:d0:07:27:
                    8e:e4:a5:1b:a5:4e:1e:aa:97:21:67:5c:81:e9:32:
                    82:ab:d0:28:18:82:a2:73:d9:28:c3:44:82:8b:cd:
                    b9:36:ec:19:a6:0b:64:b6:9c:f6:8b:d3:ae:69:11:
                    11:78:67:99:a1:26:90:4d:c6:a5:b2:f1:24:11:f9:
                    e8:0b:55:37:66:26:15:f8:07:6b:91:de:01:68:7e:
                    d5:ae:6a:3c:61:ad:8f:36:33:90:c1:19:fa:d6:c6:
                    c4:64:1a:61:91:e5:90:e2:cc:4e:a0:95:e0:c8:e4:
                    93:f8:a7:b3:82:d7:bc:cc:1a:b4:1b:2f:30:d9:47:
                    71:65:17:de:fe:44:eb:83:14:81:b8:b1:02:53:f9:
                    b1:d8:1b:c4:e6:aa:ec:9f:8e:ca:17:86:17:6a:b5:
                    5d:17:5c:32:89:6a:de:6e:ab:2d:20:7b:07:00:bb:
                    e8:b3:2d:f7:6c:d3:19:f6:a2:f5:1e:09:03:26:35:
                    09:00:e1:0e:5b:70:bb:4e:7d:32:c5:d7:32:f1:b0:
                    f0:85:0e:f0:cf:35:6d:85:66:a1:58:72:dd:26:89:
                    f6:df:e6:6a:42:c6:74:68:3d:bb:43:6a:9d:63:3a:
                    fc:1f:ca:2c:2d:9d:fa:8f:73:f2:1e:95:02:c3:8e:
                    50:50:29:c9:28:20:ed:24:6f:d9:ea:b8:f7:ac:a9:
                    b6:d0:ae:c2:d1:78:50:36:87:d4:36:90:fb:f3:94:
                    ec:2e:c4:b5:24:40:32:81:5c:c9:18:cd:d7:f9:51:
                    93:63:87
                Exponent: 65537 (0x10001)
        X509v3 extensions:
            X509v3 Basic Constraints: 
                CA:FALSE
            Netscape Comment: 
                Easy-RSA Generated Certificate
            X509v3 Subject Key Identifier: 
                0A:DA:E8:AE:25:14:18:EA:20:69:97:71:61:3E:D4:2C:99:4E:A4:18
            X509v3 Authority Key Identifier: 
                keyid:12:CD:60:04:D2:A0:80:9E:70:ED:C6:99:B8:7B:2C:C6:52:FD:19:A1
                DirName:/C=US/ST=OH/L=Columbus/O=VikingVPN/OU=MyOrganizationalUnit/CN=VikingVPN CA/name=EasyRSA/emailAddress=me@myhost.mydomain
                serial:CF:35:85:EE:80:BF:2A:3E

            X509v3 Extended Key Usage: 
                TLS Web Client Authentication
            X509v3 Key Usage: 
                Digital Signature
    Signature Algorithm: md5WithRSAEncryption
         87:4e:8f:c5:3e:d2:cc:5b:9e:51:8d:2e:b7:ce:ee:50:21:22:
         ad:69:82:b0:7a:be:39:77:8d:ed:2a:41:4c:65:e1:cd:33:77:
         47:56:fd:d9:89:d7:7e:05:f1:04:14:04:40:e9:43:50:9d:27:
         02:d9:d2:6b:fe:dc:30:54:2e:52:26:48:9e:f3:3e:84:b3:22:
         1e:ad:71:8a:28:5e:c2:b3:dc:ce:62:bc:2b:4f:47:3d:4b:fe:
         ea:43:29:44:a4:80:1c:bf:b7:f2:f2:a8:a4:30:64:e0:ae:8b:
         e4:90:e1:78:06:27:c6:8d:33:c7:3c:5c:e3:49:fa:5f:41:45:
         5f:eb:cf:e7:ae:db:83:20:77:98:19:ad:66:40:95:48:d6:fa:
         87:2b:9c:5b:27:7a:f9:f5:97:31:e0:a9:24:05:2a:83:a2:6b:
         f3:87:1b:37:ca:0f:db:67:53:a8:aa:08:5d:9e:83:d7:09:c7:
         a7:62:42:72:35:d6:39:b3:16:7a:31:d7:61:fc:0b:8d:f2:db:
         e9:a9:24:1b:83:1d:46:58:93:c0:6a:55:77:29:97:eb:a2:a4:
         f1:8e:f8:a2:ee:9d:fd:7f:1e:1c:56:1b:73:b8:8d:03:f9:7a:
         8f:3d:3a:9f:2f:b3:2f:9d:be:fe:1b:2a:89:3d:4a:7e:cd:5a:
         97:ed:75:ac:92:80:d9:53:9b:7f:97:e7:9c:6b:16:35:2d:61:
         bc:74:2c:d4:c2:22:74:e2:58:06:f0:1a:c6:f3:71:75:6a:71:
         64:81:8b:6a:a8:36:36:a6:e8:2e:8b:9c:ab:e1:32:a3:77:72:
         66:5a:f4:21:f1:af:8e:5c:eb:ac:1c:95:06:54:a3:b7:e5:73:
         23:57:11:ce:cf:1a:94:ed:89:be:58:18:e0:d1:8c:40:1a:55:
         05:f2:93:68:b3:be:fc:0c:23:e4:43:9f:28:7c:0d:69:26:26:
         14:e8:15:15:76:7e:89:6a:0f:61:1d:85:47:47:fb:dc:8b:43:
         f7:fe:cf:f8:3a:9d:4f:12:07:fc:2f:54:d9:13:69:1f:0e:71:
         d8:15:c5:36:31:12:dd:d0:88:9e:7d:32:d1:a6:a3:a7:0f:be:
         7e:c4:24:76:cf:1a:0f:b5:6f:33:a0:e9:43:09:6a:55:6c:07:
         12:f8:51:7a:c8:48:c4:98:70:32:1c:ac:73:e9:43:e2:45:32:
         4d:21:64:4d:c2:05:68:f9:e2:87:f9:f8:00:2f:13:48:08:59:
         82:85:ac:7a:f1:ba:f8:01:44:8f:80:96:ea:ae:96:99:4b:fe:
         12:e1:13:ea:f9:2a:38:87:03:2a:81:5d:c9:dd:60:1a:56:1a:
         af:03:41:c3:e3:c9:e0:af
-----BEGIN CERTIFICATE-----
MIIGqjCCBJKgAwIBAgICFxkwDQYJKoZIhvcNAQEEBQAwgawxCzAJBgNVBAYTAlVT
MQswCQYDVQQIEwJPSDERMA8GA1UEBxMIQ29sdW1idXMxEjAQBgNVBAoTCVZpa2lu
Z1ZQTjEdMBsGA1UECxMUTXlPcmdhbml6YXRpb25hbFVuaXQxFTATBgNVBAMTDFZp
a2luZ1ZQTiBDQTEQMA4GA1UEKRMHRWFzeVJTQTEhMB8GCSqGSIb3DQEJARYSbWVA
bXlob3N0Lm15ZG9tYWluMB4XDTE1MDcyNDIxNTMyMFoXDTI1MDcyMTIxNTMyMFow
HDEaMBgGA1UEAxMRQ2xpZW50M0NlcnRjMGRkNDEwggIiMA0GCSqGSIb3DQEBAQUA
A4ICDwAwggIKAoICAQDiRWHR+hc3ym+rnRGzXfdFSWoT6HwvHymBaQTEq2zauQ3+
o5/XPkIiHoSMNtdUSOlOD2hjMOcviBwUQpNVjmHGbBcSUWIuYmDlcaxzF/9KJGlz
2IP8xA+rWv1oC9Jzdj4h0hEMx7o4GA8fbhk9iHbX50nLPFKmU2wTSl6eTfiGy5ni
es8T/7WCGicxFnt1nNcNpJC8/Nc5lX/g0FgaOI3QN8WEqQsOQF29y0ZRAY9rKAUn
OsQJEEUxqJJVkZkOrSFNoGpnFHmu5FfWhQQA8GHrxTDrHOLErJLQRzjaMtAHJ47k
pRulTh6qlyFnXIHpMoKr0CgYgqJz2SjDRIKLzbk27BmmC2S2nPaL065pERF4Z5mh
JpBNxqWy8SQR+egLVTdmJhX4B2uR3gFoftWuajxhrY82M5DBGfrWxsRkGmGR5ZDi
zE6gleDI5JP4p7OC17zMGrQbLzDZR3FlF97+ROuDFIG4sQJT+bHYG8TmquyfjsoX
hhdqtV0XXDKJat5uqy0gewcAu+izLfds0xn2ovUeCQMmNQkA4Q5bcLtOfTLF1zLx
sPCFDvDPNW2FZqFYct0mifbf5mpCxnRoPbtDap1jOvwfyiwtnfqPc/IelQLDjlBQ
KckoIO0kb9nquPesqbbQrsLReFA2h9Q2kPvzlOwuxLUkQDKBXMkYzdf5UZNjhwID
AQABo4IBYzCCAV8wCQYDVR0TBAIwADAtBglghkgBhvhCAQ0EIBYeRWFzeS1SU0Eg
R2VuZXJhdGVkIENlcnRpZmljYXRlMB0GA1UdDgQWBBQK2uiuJRQY6iBpl3FhPtQs
mU6kGDCB4QYDVR0jBIHZMIHWgBQSzWAE0qCAnnDtxpm4eyzGUv0ZoaGBsqSBrzCB
rDELMAkGA1UEBhMCVVMxCzAJBgNVBAgTAk9IMREwDwYDVQQHEwhDb2x1bWJ1czES
MBAGA1UEChMJVmlraW5nVlBOMR0wGwYDVQQLExRNeU9yZ2FuaXphdGlvbmFsVW5p
dDEVMBMGA1UEAxMMVmlraW5nVlBOIENBMRAwDgYDVQQpEwdFYXN5UlNBMSEwHwYJ
KoZIhvcNAQkBFhJtZUBteWhvc3QubXlkb21haW6CCQDPNYXugL8qPjATBgNVHSUE
DDAKBggrBgEFBQcDAjALBgNVHQ8EBAMCB4AwDQYJKoZIhvcNAQEEBQADggIBAIdO
j8U+0sxbnlGNLrfO7lAhIq1pgrB6vjl3je0qQUxl4c0zd0dW/dmJ134F8QQUBEDp
Q1CdJwLZ0mv+3DBULlImSJ7zPoSzIh6tcYooXsKz3M5ivCtPRz1L/upDKUSkgBy/
t/LyqKQwZOCui+SQ4XgGJ8aNM8c8XONJ+l9BRV/rz+eu24Mgd5gZrWZAlUjW+ocr
nFsnevn1lzHgqSQFKoOia/OHGzfKD9tnU6iqCF2eg9cJx6diQnI11jmzFnox12H8
C43y2+mpJBuDHUZYk8BqVXcpl+uipPGO+KLunf1/HhxWG3O4jQP5eo89Op8vsy+d
vv4bKok9Sn7NWpftdaySgNlTm3+X55xrFjUtYbx0LNTCInTiWAbwGsbzcXVqcWSB
i2qoNjam6C6LnKvhMqN3cmZa9CHxr45c66wclQZUo7flcyNXEc7PGpTtib5YGODR
jEAaVQXyk2izvvwMI+RDnyh8DWkmJhToFRV2folqD2EdhUdH+9yLQ/f+z/g6nU8S
B/wvVNkTaR8OcdgVxTYxEt3QiJ59MtGmo6cPvn7EJHbPGg+1bzOg6UMJalVsBxL4
UXrISMSYcDIcrHPpQ+JFMk0hZE3CBWj54of5+AAvE0gIWYKFrHrxuvgBRI+Aluqu
lplL/hLhE+r5KjiHAyqBXcndYBpWGq8DQcPjyeCv
-----END CERTIFICATE-----
