Certificate:
    Data:
        Version: 3 (0x2)
        Serial Number: 8197 (0x2005)
    Signature Algorithm: md5WithRSAEncryption
        Issuer: C=US, ST=OH, L=Columbus, O=VikingVPN, OU=MyOrganizationalUnit, CN=VikingVPN CA/name=EasyRSA/emailAddress=me@myhost.mydomain
        Validity
            Not Before: Jun  7 01:24:17 2016 GMT
            Not After : Jun  5 01:24:17 2026 GMT
        Subject: CN=Client2379Certafaa7b
        Subject Public Key Info:
            Public Key Algorithm: rsaEncryption
                Public-Key: (4096 bit)
                Modulus:
                    00:c6:d8:a1:5f:5c:4d:c2:4b:21:88:f2:0c:4f:c3:
                    4f:9f:e2:ae:7d:a7:fd:bc:fa:d6:29:cf:56:24:ca:
                    d2:09:b2:be:a2:b4:05:ba:9f:0e:40:be:b8:53:f7:
                    86:bb:4e:63:88:00:a6:6b:0a:ad:5f:2e:d0:fe:a6:
                    46:c9:47:ae:f2:76:36:e9:2b:5e:a3:58:be:eb:e4:
                    7e:1d:ae:ee:bc:de:0b:eb:10:f3:5d:d0:ff:98:12:
                    11:fe:4f:bd:36:84:51:07:4f:10:f8:4a:7c:ca:98:
                    e6:e3:cb:89:49:e2:41:c8:78:84:a6:4c:f1:fb:89:
                    e2:0b:20:99:4e:57:78:f9:35:c1:82:8f:6d:cc:4e:
                    a9:4f:a9:34:5f:1a:10:e4:8b:67:0e:16:f5:ef:2e:
                    4e:af:d8:77:66:77:e8:4f:5c:7e:31:4f:f7:70:67:
                    3b:a3:83:0f:b1:dd:f7:6f:cc:7f:a4:f9:4f:3f:e4:
                    08:e8:3b:13:a9:70:73:5f:42:84:67:79:2f:77:34:
                    c6:52:bd:e8:96:be:10:eb:0a:51:6f:a4:97:95:08:
                    31:97:ce:19:5c:22:03:3e:88:af:57:5e:80:20:c2:
                    f9:42:38:5c:a1:08:83:2c:99:c3:c6:79:8f:a1:42:
                    0d:78:a9:89:87:0b:0c:42:29:1e:94:b6:52:7e:38:
                    61:1c:db:50:3d:f7:33:98:00:12:aa:b5:ca:1e:cd:
                    02:fb:1b:54:c9:4a:e6:f8:2e:cc:20:95:af:1a:70:
                    b2:08:53:e8:a3:42:e1:aa:f6:8d:fd:9f:1f:58:c5:
                    bd:09:4c:90:b6:c1:24:43:fa:0c:67:4f:d5:13:f1:
                    6c:b4:7c:57:f0:ba:37:47:a7:d1:e2:84:bd:e2:87:
                    20:72:e2:17:73:b6:37:4a:7a:b5:9f:77:ef:aa:10:
                    86:40:dd:0b:cb:13:64:54:15:d8:31:0a:3d:bb:1f:
                    ab:31:e5:09:e4:f8:f2:f5:2f:25:54:6d:e1:51:3c:
                    dc:e2:0c:94:d3:41:bd:7d:06:b4:02:76:fa:52:47:
                    2e:7d:97:ea:d0:48:c4:fc:81:ad:d2:0f:71:ea:5b:
                    2f:6f:18:de:21:86:a0:fb:33:d3:a7:44:a8:0b:55:
                    0e:dc:ba:56:6e:10:fb:22:b1:e1:08:38:71:e7:85:
                    fc:ce:dd:17:7c:2b:2b:07:28:b4:23:86:e0:da:4a:
                    ab:25:9c:13:3a:75:ef:98:37:d1:88:04:fc:b7:68:
                    37:6c:56:dd:44:16:f2:ab:41:12:e5:39:82:5a:32:
                    3b:25:5c:4e:28:2b:52:5f:6d:4d:64:32:f3:8b:86:
                    44:ae:25:8d:05:af:82:f1:df:58:b9:eb:e3:9d:5e:
                    e9:8b:d1
                Exponent: 65537 (0x10001)
        X509v3 extensions:
            X509v3 Basic Constraints: 
                CA:FALSE
            Netscape Comment: 
                Easy-RSA Generated Certificate
            X509v3 Subject Key Identifier: 
                E6:4E:79:3D:8C:F2:38:E4:97:D3:E6:11:CA:D2:85:BE:CD:B8:85:ED
            X509v3 Authority Key Identifier: 
                keyid:12:CD:60:04:D2:A0:80:9E:70:ED:C6:99:B8:7B:2C:C6:52:FD:19:A1
                DirName:/C=US/ST=OH/L=Columbus/O=VikingVPN/OU=MyOrganizationalUnit/CN=VikingVPN CA/name=EasyRSA/emailAddress=me@myhost.mydomain
                serial:CF:35:85:EE:80:BF:2A:3E

            X509v3 Extended Key Usage: 
                TLS Web Client Authentication
            X509v3 Key Usage: 
                Digital Signature
    Signature Algorithm: md5WithRSAEncryption
         4d:f9:6c:ef:e4:a5:f7:a9:06:24:90:08:e6:30:0a:15:26:11:
         fd:cf:a6:c5:17:e3:82:e4:17:89:cb:67:55:8d:b6:25:a9:5f:
         76:17:27:23:f1:a8:f5:ca:bd:ad:91:e0:a9:68:f7:c2:a2:5d:
         50:b2:9e:f7:5e:3e:b1:f9:e7:e2:d5:c6:60:5a:76:a2:f5:54:
         21:81:d1:d5:47:5a:7c:32:bf:50:de:ac:d3:f6:5d:a6:72:9c:
         cb:46:fe:91:0f:ff:e9:5e:58:0f:d3:58:35:8d:73:72:ee:83:
         22:4e:99:15:dd:b3:ca:a0:61:a4:96:94:ce:76:16:86:6a:c6:
         da:10:8c:de:26:c5:b8:0a:aa:98:6b:e9:57:78:26:dc:aa:87:
         04:a2:5e:86:4c:96:3f:0b:b7:87:76:bb:63:c2:44:8c:34:f7:
         7f:79:ea:4b:60:a4:fd:21:76:1a:82:1b:ed:95:28:95:90:d2:
         af:2d:1b:ad:18:8f:57:b8:76:8b:9d:66:99:57:32:e1:bd:68:
         c1:b5:03:98:6c:ac:59:d8:79:47:cf:20:17:cc:9d:84:07:7f:
         4e:2f:0a:4b:7d:3e:6b:13:d9:e9:d4:ba:24:1b:4e:44:fe:3a:
         6e:5b:2b:0c:78:9a:09:be:d4:42:13:53:d7:4a:87:54:d6:ba:
         00:58:61:91:2f:fb:b8:9c:cd:e7:7f:be:e4:76:43:52:b4:4e:
         40:a0:62:7a:30:bc:f0:cd:fc:31:ce:4b:91:cf:ce:ae:cc:3c:
         c9:d6:4c:67:89:1c:5c:19:e8:4f:bb:ff:e9:2a:98:1a:82:2d:
         fe:1d:13:56:48:c4:32:11:09:14:94:06:c9:79:af:cb:c2:6c:
         3f:4b:a6:26:07:c3:35:13:a1:86:b4:0d:74:af:91:bc:c5:46:
         5a:5f:8d:e1:df:57:70:46:88:b4:94:3e:34:2f:da:a9:00:57:
         62:30:49:c6:b3:3a:e0:ad:ca:c2:8b:f4:85:b1:f0:1c:b1:2a:
         2a:68:46:b3:51:17:bb:a5:a6:be:f6:6f:d7:07:f0:30:6f:cf:
         70:e2:08:15:64:68:55:74:5a:43:51:52:db:78:15:1e:08:67:
         f0:01:e6:c7:c1:f0:bb:07:e5:5b:ba:2c:e5:86:8d:d2:61:a6:
         78:b2:0e:9b:d6:cc:da:36:c3:47:46:0c:d2:66:f6:55:92:76:
         e0:77:2c:ac:69:a0:16:0f:e4:e4:8f:71:b3:a8:b0:5a:71:30:
         a7:1e:63:13:f6:77:82:50:fa:6b:1b:7b:d6:21:56:65:ab:30:
         b4:d0:02:ad:25:f4:d9:b0:a4:f4:44:f3:08:6b:0b:5e:4a:99:
         b2:df:4c:f4:38:52:97:ca
-----BEGIN CERTIFICATE-----
MIIGrTCCBJWgAwIBAgICIAUwDQYJKoZIhvcNAQEEBQAwgawxCzAJBgNVBAYTAlVT
MQswCQYDVQQIEwJPSDERMA8GA1UEBxMIQ29sdW1idXMxEjAQBgNVBAoTCVZpa2lu
Z1ZQTjEdMBsGA1UECxMUTXlPcmdhbml6YXRpb25hbFVuaXQxFTATBgNVBAMTDFZp
a2luZ1ZQTiBDQTEQMA4GA1UEKRMHRWFzeVJTQTEhMB8GCSqGSIb3DQEJARYSbWVA
bXlob3N0Lm15ZG9tYWluMB4XDTE2MDYwNzAxMjQxN1oXDTI2MDYwNTAxMjQxN1ow
HzEdMBsGA1UEAxMUQ2xpZW50MjM3OUNlcnRhZmFhN2IwggIiMA0GCSqGSIb3DQEB
AQUAA4ICDwAwggIKAoICAQDG2KFfXE3CSyGI8gxPw0+f4q59p/28+tYpz1YkytIJ
sr6itAW6nw5AvrhT94a7TmOIAKZrCq1fLtD+pkbJR67ydjbpK16jWL7r5H4dru68
3gvrEPNd0P+YEhH+T702hFEHTxD4SnzKmObjy4lJ4kHIeISmTPH7ieILIJlOV3j5
NcGCj23MTqlPqTRfGhDki2cOFvXvLk6v2Hdmd+hPXH4xT/dwZzujgw+x3fdvzH+k
+U8/5AjoOxOpcHNfQoRneS93NMZSveiWvhDrClFvpJeVCDGXzhlcIgM+iK9XXoAg
wvlCOFyhCIMsmcPGeY+hQg14qYmHCwxCKR6UtlJ+OGEc21A99zOYABKqtcoezQL7
G1TJSub4Lswgla8acLIIU+ijQuGq9o39nx9Yxb0JTJC2wSRD+gxnT9UT8Wy0fFfw
ujdHp9HihL3ihyBy4hdztjdKerWfd++qEIZA3QvLE2RUFdgxCj27H6sx5Qnk+PL1
LyVUbeFRPNziDJTTQb19BrQCdvpSRy59l+rQSMT8ga3SD3HqWy9vGN4hhqD7M9On
RKgLVQ7culZuEPsiseEIOHHnhfzO3Rd8KysHKLQjhuDaSqslnBM6de+YN9GIBPy3
aDdsVt1EFvKrQRLlOYJaMjslXE4oK1JfbU1kMvOLhkSuJY0Fr4Lx31i56+OdXumL
0QIDAQABo4IBYzCCAV8wCQYDVR0TBAIwADAtBglghkgBhvhCAQ0EIBYeRWFzeS1S
U0EgR2VuZXJhdGVkIENlcnRpZmljYXRlMB0GA1UdDgQWBBTmTnk9jPI45JfT5hHK
0oW+zbiF7TCB4QYDVR0jBIHZMIHWgBQSzWAE0qCAnnDtxpm4eyzGUv0ZoaGBsqSB
rzCBrDELMAkGA1UEBhMCVVMxCzAJBgNVBAgTAk9IMREwDwYDVQQHEwhDb2x1bWJ1
czESMBAGA1UEChMJVmlraW5nVlBOMR0wGwYDVQQLExRNeU9yZ2FuaXphdGlvbmFs
VW5pdDEVMBMGA1UEAxMMVmlraW5nVlBOIENBMRAwDgYDVQQpEwdFYXN5UlNBMSEw
HwYJKoZIhvcNAQkBFhJtZUBteWhvc3QubXlkb21haW6CCQDPNYXugL8qPjATBgNV
HSUEDDAKBggrBgEFBQcDAjALBgNVHQ8EBAMCB4AwDQYJKoZIhvcNAQEEBQADggIB
AE35bO/kpfepBiSQCOYwChUmEf3PpsUX44LkF4nLZ1WNtiWpX3YXJyPxqPXKva2R
4Klo98KiXVCynvdePrH55+LVxmBadqL1VCGB0dVHWnwyv1DerNP2XaZynMtG/pEP
/+leWA/TWDWNc3LugyJOmRXds8qgYaSWlM52FoZqxtoQjN4mxbgKqphr6Vd4Jtyq
hwSiXoZMlj8Lt4d2u2PCRIw093956ktgpP0hdhqCG+2VKJWQ0q8tG60Yj1e4doud
ZplXMuG9aMG1A5hsrFnYeUfPIBfMnYQHf04vCkt9PmsT2enUuiQbTkT+Om5bKwx4
mgm+1EITU9dKh1TWugBYYZEv+7iczed/vuR2Q1K0TkCgYnowvPDN/DHOS5HPzq7M
PMnWTGeJHFwZ6E+7/+kqmBqCLf4dE1ZIxDIRCRSUBsl5r8vCbD9LpiYHwzUToYa0
DXSvkbzFRlpfjeHfV3BGiLSUPjQv2qkAV2IwScazOuCtysKL9IWx8ByxKipoRrNR
F7ulpr72b9cH8DBvz3DiCBVkaFV0WkNRUtt4FR4IZ/AB5sfB8LsH5Vu6LOWGjdJh
pniyDpvWzNo2w0dGDNJm9lWSduB3LKxpoBYP5OSPcbOosFpxMKceYxP2d4JQ+msb
e9YhVmWrMLTQAq0l9NmwpPRE8whrC15KmbLfTPQ4UpfK
-----END CERTIFICATE-----
