Certificate:
    Data:
        Version: 3 (0x2)
        Serial Number: 9457 (0x24f1)
    Signature Algorithm: sha256WithRSAEncryption
        Issuer: C=US, ST=OH, L=Columbus, O=VikingVPN, OU=MyOrganizationalUnit, CN=VikingVPN CA/name=EasyRSA/emailAddress=me@myhost.mydomain
        Validity
            Not Before: Nov 14 23:41:47 2016 GMT
            Not After : Nov 12 23:41:47 2026 GMT
        Subject: CN=Client1944Cert2a2c19
        Subject Public Key Info:
            Public Key Algorithm: rsaEncryption
                Public-Key: (4096 bit)
                Modulus:
                    00:b2:d9:d4:50:7c:88:51:2d:19:cf:fb:65:a3:1a:
                    09:c2:bc:93:1c:93:d0:ce:aa:d1:5d:bf:86:ca:d7:
                    3a:00:5d:87:77:55:bd:e9:58:3e:ea:b9:8c:50:6e:
                    8f:17:1b:c1:0d:c7:3c:c1:2e:ca:4d:03:1a:c7:06:
                    a2:f6:74:c2:a8:22:90:82:3b:c4:e3:4d:5e:7c:09:
                    2c:8a:60:00:42:18:e9:3a:f4:07:a3:6a:fb:fe:82:
                    6a:32:7d:4a:f3:4b:56:d7:1a:7d:70:95:12:9a:cf:
                    09:e1:99:3b:6e:90:36:ef:12:82:de:31:48:3d:b1:
                    e3:7f:c2:bc:9c:98:9e:e8:00:1b:80:e5:32:f9:a5:
                    79:78:d3:a6:52:fc:ea:79:d7:16:24:b0:e6:99:a6:
                    5e:2b:5c:81:8d:62:95:46:ec:18:bf:90:16:03:e1:
                    a6:89:95:55:7f:4d:75:59:a0:dc:53:7e:a2:1f:44:
                    18:41:56:af:a7:2a:80:c7:5d:67:58:12:ac:12:5c:
                    ed:ff:54:55:2f:c7:50:53:fb:4e:7a:ef:fa:14:2f:
                    63:da:64:06:16:2e:21:a3:51:80:b5:03:31:39:93:
                    29:12:d4:17:e6:4c:31:7f:7e:45:ba:a4:03:e3:af:
                    0f:5a:b2:20:03:8b:0a:4e:f3:b6:44:7a:f7:16:4a:
                    41:6b:72:20:12:d7:d4:e4:ae:f9:d9:45:dc:dc:6d:
                    90:3e:9a:7c:f5:df:eb:29:80:9f:a9:79:74:5c:ea:
                    4e:dc:aa:0b:cb:be:e8:34:e0:45:3e:d7:86:75:71:
                    3e:0b:b1:4d:01:89:61:5c:b2:e9:05:37:f2:ad:5d:
                    05:bc:5e:c5:be:5b:3f:31:d3:d5:0b:9b:79:b3:d8:
                    82:c8:19:49:15:49:a0:65:c3:06:6e:83:1a:21:20:
                    9f:82:f9:54:63:50:51:71:69:38:e6:1e:43:f0:3b:
                    71:ff:75:d9:f7:b4:c5:48:80:f8:fe:4a:2e:94:87:
                    63:97:2a:bc:9d:80:34:5f:27:0c:7a:21:f7:45:e1:
                    e6:5c:7f:f1:98:e6:0c:42:35:2f:0c:a4:06:00:65:
                    85:ca:b1:3b:87:8d:36:e0:70:f3:3f:8c:d7:c4:d9:
                    7f:87:29:96:dd:3b:55:de:f2:57:77:51:46:86:13:
                    6e:a1:d4:7a:b8:e1:8a:7b:5a:62:dc:2d:1a:f5:1f:
                    e9:ec:80:dd:ee:71:83:8b:5f:7b:33:a3:1b:5d:91:
                    30:7f:8e:03:92:72:a6:09:64:52:a8:29:60:14:47:
                    eb:f3:80:42:60:d1:20:b0:cb:35:2e:c5:8d:1a:19:
                    61:7a:1d:33:01:c2:8f:a5:77:e3:e0:6e:4a:14:a5:
                    ae:77:ef
                Exponent: 65537 (0x10001)
        X509v3 extensions:
            X509v3 Basic Constraints: 
                CA:FALSE
            Netscape Comment: 
                Easy-RSA Generated Certificate
            X509v3 Subject Key Identifier: 
                8C:C9:81:1C:5A:F2:43:3D:6C:E3:14:CD:E3:1B:59:CB:93:4D:7C:82
            X509v3 Authority Key Identifier: 
                keyid:12:CD:60:04:D2:A0:80:9E:70:ED:C6:99:B8:7B:2C:C6:52:FD:19:A1
                DirName:/C=US/ST=OH/L=Columbus/O=VikingVPN/OU=MyOrganizationalUnit/CN=VikingVPN CA/name=EasyRSA/emailAddress=me@myhost.mydomain
                serial:CF:35:85:EE:80:BF:2A:3E

            X509v3 Extended Key Usage: 
                TLS Web Client Authentication
            X509v3 Key Usage: 
                Digital Signature
    Signature Algorithm: sha256WithRSAEncryption
         64:90:82:4a:1d:8c:3f:32:ca:bb:6f:fb:ab:48:9e:e9:0f:aa:
         de:68:bd:88:51:7f:e6:b5:38:31:4f:81:40:ef:33:bc:c1:39:
         28:b6:d9:4a:39:f0:a4:bf:0e:c1:b4:49:a4:03:29:a6:69:be:
         47:53:1d:59:e4:03:fa:8a:26:c3:68:3e:9a:79:6b:42:97:8c:
         d6:83:99:0f:f1:84:7f:04:53:df:a6:34:a6:e6:cd:f9:88:ad:
         a2:26:85:da:d6:da:33:a6:50:ec:03:7b:47:4a:ad:0d:65:77:
         6c:f2:55:a9:f6:48:4f:70:97:65:a2:49:3f:fa:26:a0:c7:c7:
         21:f5:f5:c3:66:b2:11:72:d4:40:70:ff:ca:ee:17:70:ed:72:
         55:9b:51:11:7b:cc:a0:d0:93:a6:e3:f4:a8:89:83:02:b2:b1:
         45:17:20:fb:e4:e3:10:0e:26:a9:af:f6:c1:8e:a2:be:8d:6e:
         36:60:d1:24:d8:bb:f2:d3:e2:0b:c0:31:4f:15:90:60:23:ad:
         bd:41:7c:ee:94:39:fd:f2:ec:e5:8a:6a:2c:f7:52:f3:65:0a:
         c1:c5:55:1d:ff:de:3a:07:68:04:28:5a:1d:ab:dd:af:ff:f3:
         28:4c:91:81:0c:a8:ec:0a:94:c2:e6:12:ba:18:fc:b5:21:18:
         74:f7:fe:79:1a:8d:71:d7:60:94:70:f9:e2:ab:1a:3e:01:59:
         58:1c:c4:46:d6:63:c4:a1:da:88:5d:3e:bc:9d:7f:3e:d9:68:
         bb:28:da:dc:e0:52:b1:1c:b4:9d:a0:d6:5c:cc:64:73:b6:22:
         e7:91:e1:f4:b0:3f:cd:4e:ac:70:df:5a:05:fd:66:7c:50:12:
         b3:af:d3:2a:12:0d:01:0d:c8:11:35:d4:92:63:6d:75:8d:46:
         a5:78:d7:97:8d:56:d6:49:37:f4:bb:b9:12:48:c7:a1:24:60:
         9f:91:fc:de:99:81:07:4f:7c:b9:11:77:84:aa:f5:5d:85:78:
         fb:ba:10:34:f3:6c:9b:d9:7f:27:31:2b:f9:e9:39:89:11:d4:
         9a:cf:b9:52:94:89:16:4c:8f:28:bf:65:41:01:20:c6:73:8c:
         79:c8:64:ba:30:c4:5e:d9:14:7e:4c:db:2b:3f:4c:d7:32:2a:
         94:03:31:85:5b:d1:59:54:e2:ff:b7:49:62:23:13:c5:ff:04:
         ad:30:99:df:3f:bd:27:9f:3b:f2:6f:41:1b:47:a8:bf:e8:e1:
         e4:9e:eb:ca:8b:9b:f4:a3:9a:ba:83:15:98:b2:f9:d3:20:18:
         cd:c7:a8:f5:15:91:b2:e1:b7:1a:f2:27:b3:10:41:a9:b0:f2:
         0a:3f:5a:bc:b5:d0:fa:33
-----BEGIN CERTIFICATE-----
MIIGrTCCBJWgAwIBAgICJPEwDQYJKoZIhvcNAQELBQAwgawxCzAJBgNVBAYTAlVT
MQswCQYDVQQIEwJPSDERMA8GA1UEBxMIQ29sdW1idXMxEjAQBgNVBAoTCVZpa2lu
Z1ZQTjEdMBsGA1UECxMUTXlPcmdhbml6YXRpb25hbFVuaXQxFTATBgNVBAMTDFZp
a2luZ1ZQTiBDQTEQMA4GA1UEKRMHRWFzeVJTQTEhMB8GCSqGSIb3DQEJARYSbWVA
bXlob3N0Lm15ZG9tYWluMB4XDTE2MTExNDIzNDE0N1oXDTI2MTExMjIzNDE0N1ow
HzEdMBsGA1UEAxMUQ2xpZW50MTk0NENlcnQyYTJjMTkwggIiMA0GCSqGSIb3DQEB
AQUAA4ICDwAwggIKAoICAQCy2dRQfIhRLRnP+2WjGgnCvJMck9DOqtFdv4bK1zoA
XYd3Vb3pWD7quYxQbo8XG8ENxzzBLspNAxrHBqL2dMKoIpCCO8TjTV58CSyKYABC
GOk69Aejavv+gmoyfUrzS1bXGn1wlRKazwnhmTtukDbvEoLeMUg9seN/wrycmJ7o
ABuA5TL5pXl406ZS/Op51xYksOaZpl4rXIGNYpVG7Bi/kBYD4aaJlVV/TXVZoNxT
fqIfRBhBVq+nKoDHXWdYEqwSXO3/VFUvx1BT+0567/oUL2PaZAYWLiGjUYC1AzE5
kykS1BfmTDF/fkW6pAPjrw9asiADiwpO87ZEevcWSkFrciAS19TkrvnZRdzcbZA+
mnz13+spgJ+peXRc6k7cqgvLvug04EU+14Z1cT4LsU0BiWFcsukFN/KtXQW8XsW+
Wz8x09ULm3mz2ILIGUkVSaBlwwZugxohIJ+C+VRjUFFxaTjmHkPwO3H/ddn3tMVI
gPj+Si6Uh2OXKrydgDRfJwx6IfdF4eZcf/GY5gxCNS8MpAYAZYXKsTuHjTbgcPM/
jNfE2X+HKZbdO1Xe8ld3UUaGE26h1Hq44Yp7WmLcLRr1H+nsgN3ucYOLX3szoxtd
kTB/jgOScqYJZFKoKWAUR+vzgEJg0SCwyzUuxY0aGWF6HTMBwo+ld+PgbkoUpa53
7wIDAQABo4IBYzCCAV8wCQYDVR0TBAIwADAtBglghkgBhvhCAQ0EIBYeRWFzeS1S
U0EgR2VuZXJhdGVkIENlcnRpZmljYXRlMB0GA1UdDgQWBBSMyYEcWvJDPWzjFM3j
G1nLk018gjCB4QYDVR0jBIHZMIHWgBQSzWAE0qCAnnDtxpm4eyzGUv0ZoaGBsqSB
rzCBrDELMAkGA1UEBhMCVVMxCzAJBgNVBAgTAk9IMREwDwYDVQQHEwhDb2x1bWJ1
czESMBAGA1UEChMJVmlraW5nVlBOMR0wGwYDVQQLExRNeU9yZ2FuaXphdGlvbmFs
VW5pdDEVMBMGA1UEAxMMVmlraW5nVlBOIENBMRAwDgYDVQQpEwdFYXN5UlNBMSEw
HwYJKoZIhvcNAQkBFhJtZUBteWhvc3QubXlkb21haW6CCQDPNYXugL8qPjATBgNV
HSUEDDAKBggrBgEFBQcDAjALBgNVHQ8EBAMCB4AwDQYJKoZIhvcNAQELBQADggIB
AGSQgkodjD8yyrtv+6tInukPqt5ovYhRf+a1ODFPgUDvM7zBOSi22Uo58KS/DsG0
SaQDKaZpvkdTHVnkA/qKJsNoPpp5a0KXjNaDmQ/xhH8EU9+mNKbmzfmIraImhdrW
2jOmUOwDe0dKrQ1ld2zyVan2SE9wl2WiST/6JqDHxyH19cNmshFy1EBw/8ruF3Dt
clWbURF7zKDQk6bj9KiJgwKysUUXIPvk4xAOJqmv9sGOor6NbjZg0STYu/LT4gvA
MU8VkGAjrb1BfO6UOf3y7OWKaiz3UvNlCsHFVR3/3joHaAQoWh2r3a//8yhMkYEM
qOwKlMLmEroY/LUhGHT3/nkajXHXYJRw+eKrGj4BWVgcxEbWY8Sh2ohdPrydfz7Z
aLso2tzgUrEctJ2g1lzMZHO2IueR4fSwP81OrHDfWgX9ZnxQErOv0yoSDQENyBE1
1JJjbXWNRqV415eNVtZJN/S7uRJIx6EkYJ+R/N6ZgQdPfLkRd4Sq9V2FePu6EDTz
bJvZfycxK/npOYkR1JrPuVKUiRZMjyi/ZUEBIMZzjHnIZLowxF7ZFH5M2ys/TNcy
KpQDMYVb0VlU4v+3SWIjE8X/BK0wmd8/vSefO/JvQRtHqL/o4eSe68qLm/SjmrqD
FZiy+dMgGM3HqPUVkbLhtxryJ7MQQamw8go/Wry10Poz
-----END CERTIFICATE-----
