Certificate:
    Data:
        Version: 3 (0x2)
        Serial Number: 2591 (0xa1f)
    Signature Algorithm: md5WithRSAEncryption
        Issuer: C=US, ST=OH, L=Columbus, O=VikingVPN, OU=MyOrganizationalUnit, CN=VikingVPN CA/name=EasyRSA/emailAddress=me@myhost.mydomain
        Validity
            Not Before: Aug 15 22:47:29 2014 GMT
            Not After : Aug 12 22:47:29 2024 GMT
        Subject: CN=Client895Cert3c2d50
        Subject Public Key Info:
            Public Key Algorithm: rsaEncryption
                Public-Key: (4096 bit)
                Modulus:
                    00:bd:68:af:dd:a8:45:99:c2:87:2e:3b:d1:ce:b6:
                    fb:4f:28:a2:ca:96:fd:70:cc:e9:f9:65:19:55:86:
                    1c:4b:fa:be:f4:89:71:a4:a4:29:9c:52:63:a3:86:
                    37:c6:02:6d:04:8d:ae:e3:c6:da:55:8e:02:0a:c4:
                    76:be:93:80:fc:a2:e6:c9:16:04:60:7d:dc:ee:89:
                    d0:a6:60:57:e4:5b:28:5d:1a:aa:21:b7:24:18:30:
                    92:fd:d9:c2:40:dc:d8:92:15:a6:ac:42:f5:4c:7f:
                    11:db:db:68:63:70:b2:0a:de:fc:1f:4c:1a:1e:9e:
                    42:3c:fa:71:14:df:52:3a:bd:73:5e:bc:d4:45:79:
                    33:79:30:ba:db:a2:cc:09:79:7e:c7:5e:9d:e2:03:
                    bf:fc:8a:6e:47:1c:8b:49:56:22:6b:44:62:04:df:
                    8e:2b:9e:a6:b0:8d:1d:38:a3:9f:94:f8:9c:52:11:
                    ad:a5:75:15:b9:fc:ad:19:bd:52:98:9b:1b:02:66:
                    38:ba:84:ba:ea:e8:df:f4:43:e0:4a:1d:88:6f:ad:
                    e7:f4:0d:66:c2:bb:05:c5:af:8a:bb:96:08:35:82:
                    70:cb:32:f2:7d:1f:db:69:ca:31:52:4a:35:94:f4:
                    29:df:cf:5c:53:ee:ca:5d:0e:05:20:2c:ab:56:48:
                    49:1f:5f:74:81:58:65:1a:df:9a:d7:37:e5:30:4f:
                    cf:6c:b9:43:98:77:a8:85:e1:b5:3c:05:7a:95:62:
                    22:08:01:dc:ab:bf:4f:1f:25:11:b1:03:9c:63:f1:
                    96:61:8f:1c:25:1e:a1:b1:e2:05:3e:16:d7:9c:fd:
                    d9:ce:21:dc:a9:9c:5f:d3:6a:1d:ce:bf:32:67:3d:
                    c6:71:b9:66:12:09:1e:a6:fc:18:f9:9a:fe:0f:ba:
                    7a:a5:fe:45:e5:91:f2:3d:3d:bf:ce:26:7b:07:57:
                    9d:86:64:cf:61:ac:71:35:9c:16:81:70:20:42:89:
                    bc:f3:5d:7a:90:a3:c7:c6:a6:67:d2:41:60:b6:d6:
                    94:e2:11:cd:8e:3c:46:00:ea:c3:65:43:cf:83:36:
                    f0:4a:4d:04:d6:6b:da:bf:53:34:11:5c:d5:c4:78:
                    b1:e1:34:1c:aa:88:e4:f5:eb:92:3c:8c:06:e4:a1:
                    e0:d3:07:01:57:02:ba:a9:b3:fd:a2:54:04:28:28:
                    a1:65:16:9d:0d:ab:d7:72:ca:a0:d4:e6:13:72:5e:
                    cf:9a:d5:1e:41:73:e7:42:0c:77:94:51:e0:c8:94:
                    6a:47:47:b0:fc:88:a8:2e:ab:79:4a:c0:51:76:d2:
                    f7:97:76:f5:b3:cf:3c:a3:ab:ac:53:24:4d:0d:6e:
                    e0:41:9d
                Exponent: 65537 (0x10001)
        X509v3 extensions:
            X509v3 Basic Constraints: 
                CA:FALSE
            Netscape Comment: 
                Easy-RSA Generated Certificate
            X509v3 Subject Key Identifier: 
                DA:81:87:44:AD:D1:E1:CB:D3:51:E4:D3:35:15:E2:B4:13:E8:0A:7A
            X509v3 Authority Key Identifier: 
                keyid:12:CD:60:04:D2:A0:80:9E:70:ED:C6:99:B8:7B:2C:C6:52:FD:19:A1
                DirName:/C=US/ST=OH/L=Columbus/O=VikingVPN/OU=MyOrganizationalUnit/CN=VikingVPN CA/name=EasyRSA/emailAddress=me@myhost.mydomain
                serial:CF:35:85:EE:80:BF:2A:3E

            X509v3 Extended Key Usage: 
                TLS Web Client Authentication
            X509v3 Key Usage: 
                Digital Signature
    Signature Algorithm: md5WithRSAEncryption
         c3:4f:50:61:74:9e:67:f8:a5:5b:13:8e:d8:3f:e2:3f:34:9c:
         b9:01:be:4f:f9:e6:e5:4e:fb:d2:16:1e:74:a7:b2:ff:42:cd:
         97:32:1b:f9:c6:bc:f7:f9:69:18:81:a5:6a:da:29:54:97:31:
         12:44:fd:25:0c:22:5a:51:fe:70:c6:6c:81:44:00:49:e8:59:
         93:1c:7e:18:43:3e:fc:4b:48:9e:09:89:32:90:12:87:bd:39:
         86:27:78:e9:5a:bb:66:61:d9:e4:c3:e1:21:23:ee:fd:80:7c:
         09:df:7a:01:33:45:7d:c9:1d:78:48:a5:42:4a:39:38:64:64:
         46:6d:cf:c4:b1:39:e0:f9:d8:0d:fe:44:eb:7c:05:73:a6:bc:
         0e:92:32:72:6c:7c:f0:e8:d0:04:e1:c5:a5:c8:00:9c:9c:82:
         0d:24:55:c0:61:93:36:46:c0:01:fb:40:f0:dd:76:64:f7:73:
         62:59:53:f0:da:6e:07:8e:f2:76:2f:f5:8e:89:2a:bd:6c:38:
         d3:96:75:30:93:9e:79:86:9b:63:e7:92:2c:d5:5a:eb:25:a7:
         15:82:2d:b7:e4:0e:59:fd:1f:3c:a3:1c:0f:e8:10:db:63:b3:
         f2:ce:c7:b1:f5:5c:af:a8:f3:7b:b7:07:3d:7b:dd:2e:55:b3:
         e2:51:65:58:d3:7e:21:98:29:bb:e9:86:9e:b1:0b:77:e8:39:
         0b:a7:ea:d6:71:d6:6a:c2:93:33:ef:73:44:a8:d4:5a:d8:30:
         c2:93:01:f2:26:04:e3:f4:46:71:ae:4f:64:93:70:90:99:6e:
         a5:34:63:d9:ed:af:4c:ea:ef:74:c2:7b:78:d0:c1:15:d8:c3:
         19:e8:cb:54:c2:59:e2:51:fe:c1:9f:05:d4:1a:8e:f3:19:27:
         19:5a:9f:3b:0d:d4:71:e2:2d:84:f6:78:86:90:08:6c:6f:35:
         37:2b:ee:f3:55:88:a5:2b:51:3f:06:2b:54:fb:23:bb:83:d6:
         1c:a2:9b:74:e1:ad:80:2b:35:e5:f6:ca:88:93:2d:32:99:9a:
         4e:8d:e9:1c:ba:36:de:77:f9:2d:5f:2b:1d:92:45:c2:69:36:
         47:2f:45:ed:34:cd:a2:5a:2b:b3:d8:1e:c6:0d:8b:e9:2c:78:
         75:08:73:25:45:a1:a2:9f:0a:24:4a:4b:5e:ed:59:0a:ac:40:
         02:cb:c0:c8:eb:de:aa:c3:2a:50:5e:1f:ef:7d:52:ac:29:28:
         4f:47:71:3a:d6:d1:47:ac:df:3a:58:6e:b5:9c:24:97:80:22:
         ea:1c:b2:e6:34:85:37:96:4b:85:f4:14:fd:65:6a:73:ff:95:
         0b:91:80:f3:4a:92:68:61
-----BEGIN CERTIFICATE-----
MIIGrDCCBJSgAwIBAgICCh8wDQYJKoZIhvcNAQEEBQAwgawxCzAJBgNVBAYTAlVT
MQswCQYDVQQIEwJPSDERMA8GA1UEBxMIQ29sdW1idXMxEjAQBgNVBAoTCVZpa2lu
Z1ZQTjEdMBsGA1UECxMUTXlPcmdhbml6YXRpb25hbFVuaXQxFTATBgNVBAMTDFZp
a2luZ1ZQTiBDQTEQMA4GA1UEKRMHRWFzeVJTQTEhMB8GCSqGSIb3DQEJARYSbWVA
bXlob3N0Lm15ZG9tYWluMB4XDTE0MDgxNTIyNDcyOVoXDTI0MDgxMjIyNDcyOVow
HjEcMBoGA1UEAxMTQ2xpZW50ODk1Q2VydDNjMmQ1MDCCAiIwDQYJKoZIhvcNAQEB
BQADggIPADCCAgoCggIBAL1or92oRZnChy470c62+08oosqW/XDM6fllGVWGHEv6
vvSJcaSkKZxSY6OGN8YCbQSNruPG2lWOAgrEdr6TgPyi5skWBGB93O6J0KZgV+Rb
KF0aqiG3JBgwkv3ZwkDc2JIVpqxC9Ux/EdvbaGNwsgre/B9MGh6eQjz6cRTfUjq9
c1681EV5M3kwutuizAl5fsdeneIDv/yKbkcci0lWImtEYgTfjiueprCNHTijn5T4
nFIRraV1Fbn8rRm9UpibGwJmOLqEuuro3/RD4EodiG+t5/QNZsK7BcWviruWCDWC
cMsy8n0f22nKMVJKNZT0Kd/PXFPuyl0OBSAsq1ZISR9fdIFYZRrfmtc35TBPz2y5
Q5h3qIXhtTwFepViIggB3Ku/Tx8lEbEDnGPxlmGPHCUeobHiBT4W15z92c4h3Kmc
X9NqHc6/Mmc9xnG5ZhIJHqb8GPma/g+6eqX+ReWR8j09v84mewdXnYZkz2GscTWc
FoFwIEKJvPNdepCjx8amZ9JBYLbWlOIRzY48RgDqw2VDz4M28EpNBNZr2r9TNBFc
1cR4seE0HKqI5PXrkjyMBuSh4NMHAVcCuqmz/aJUBCgooWUWnQ2r13LKoNTmE3Je
z5rVHkFz50IMd5RR4MiUakdHsPyIqC6reUrAUXbS95d29bPPPKOrrFMkTQ1u4EGd
AgMBAAGjggFjMIIBXzAJBgNVHRMEAjAAMC0GCWCGSAGG+EIBDQQgFh5FYXN5LVJT
QSBHZW5lcmF0ZWQgQ2VydGlmaWNhdGUwHQYDVR0OBBYEFNqBh0St0eHL01Hk0zUV
4rQT6Ap6MIHhBgNVHSMEgdkwgdaAFBLNYATSoICecO3Gmbh7LMZS/RmhoYGypIGv
MIGsMQswCQYDVQQGEwJVUzELMAkGA1UECBMCT0gxETAPBgNVBAcTCENvbHVtYnVz
MRIwEAYDVQQKEwlWaWtpbmdWUE4xHTAbBgNVBAsTFE15T3JnYW5pemF0aW9uYWxV
bml0MRUwEwYDVQQDEwxWaWtpbmdWUE4gQ0ExEDAOBgNVBCkTB0Vhc3lSU0ExITAf
BgkqhkiG9w0BCQEWEm1lQG15aG9zdC5teWRvbWFpboIJAM81he6Avyo+MBMGA1Ud
JQQMMAoGCCsGAQUFBwMCMAsGA1UdDwQEAwIHgDANBgkqhkiG9w0BAQQFAAOCAgEA
w09QYXSeZ/ilWxOO2D/iPzScuQG+T/nm5U770hYedKey/0LNlzIb+ca89/lpGIGl
atopVJcxEkT9JQwiWlH+cMZsgUQASehZkxx+GEM+/EtIngmJMpASh705hid46Vq7
ZmHZ5MPhISPu/YB8Cd96ATNFfckdeEilQko5OGRkRm3PxLE54PnYDf5E63wFc6a8
DpIycmx88OjQBOHFpcgAnJyCDSRVwGGTNkbAAftA8N12ZPdzYllT8NpuB47ydi/1
jokqvWw405Z1MJOeeYabY+eSLNVa6yWnFYItt+QOWf0fPKMcD+gQ22Oz8s7HsfVc
r6jze7cHPXvdLlWz4lFlWNN+IZgpu+mGnrELd+g5C6fq1nHWasKTM+9zRKjUWtgw
wpMB8iYE4/RGca5PZJNwkJlupTRj2e2vTOrvdMJ7eNDBFdjDGejLVMJZ4lH+wZ8F
1BqO8xknGVqfOw3UceIthPZ4hpAIbG81Nyvu81WIpStRPwYrVPsju4PWHKKbdOGt
gCs15fbKiJMtMpmaTo3pHLo23nf5LV8rHZJFwmk2Ry9F7TTNolors9gexg2L6Sx4
dQhzJUWhop8KJEpLXu1ZCqxAAsvAyOveqsMqUF4f731SrCkoT0dxOtbRR6zfOlhu
tZwkl4Ai6hyy5jSFN5ZLhfQU/WVqc/+VC5GA80qSaGE=
-----END CERTIFICATE-----
