Certificate:
    Data:
        Version: 3 (0x2)
        Serial Number: 7408 (0x1cf0)
    Signature Algorithm: md5WithRSAEncryption
        Issuer: C=US, ST=OH, L=Columbus, O=VikingVPN, OU=MyOrganizationalUnit, CN=VikingVPN CA/name=EasyRSA/emailAddress=me@myhost.mydomain
        Validity
            Not Before: Mar  4 11:08:40 2016 GMT
            Not After : Mar  2 11:08:40 2026 GMT
        Subject: CN=Client1398Certa4ffbd
        Subject Public Key Info:
            Public Key Algorithm: rsaEncryption
                Public-Key: (4096 bit)
                Modulus:
                    00:bc:d8:80:99:01:72:3c:77:77:a7:2e:01:4d:5d:
                    e5:71:aa:f5:bd:00:bf:e5:8f:ee:95:9c:45:08:a2:
                    ba:bd:7b:d5:0d:d4:4f:61:a4:5c:ae:35:bf:5b:f6:
                    b8:47:aa:5c:70:93:fe:71:8a:70:1e:3d:38:6a:a0:
                    71:73:0f:47:6a:ed:dc:57:ef:8c:b8:c2:06:80:db:
                    b1:1f:cb:56:ee:2f:09:bb:2e:ca:2b:de:33:19:3f:
                    2e:94:dd:57:96:28:1e:ec:99:9f:fc:be:38:0d:d2:
                    d2:d0:74:31:30:9f:24:5a:bd:18:7f:8f:c9:b9:ca:
                    9d:31:71:5e:6f:6d:d2:55:64:34:dc:07:43:ff:28:
                    c7:91:fa:66:e8:53:75:3a:7f:70:34:54:0f:86:c2:
                    a8:52:4d:fe:5c:6d:3a:4b:1e:df:79:e1:fe:9c:15:
                    5a:fb:a0:4f:f0:0a:f9:cc:76:e3:b2:d5:a0:07:20:
                    84:db:f1:a4:e7:cb:f1:e9:4c:a6:f3:cc:cf:24:9a:
                    50:48:f5:8d:dd:23:f5:b1:bb:de:80:fd:09:74:24:
                    94:d5:38:4b:1a:f2:4a:58:b9:41:f5:a8:b5:a2:aa:
                    eb:0f:49:5e:a6:39:36:54:1c:af:d1:7d:08:95:a7:
                    e1:99:30:0c:e1:46:74:f6:6e:f5:44:67:e0:08:e0:
                    2a:45:db:98:e8:42:d4:37:33:b6:dc:7f:de:a6:22:
                    89:69:32:c6:1b:94:9b:45:7d:55:ef:01:cc:59:8d:
                    0f:ea:df:ea:12:ea:56:53:5a:f6:28:65:fb:10:7a:
                    1f:80:a6:c7:34:2c:15:6f:e3:28:20:88:ed:ca:39:
                    de:f1:96:28:be:a2:d5:a3:59:b9:2b:03:d3:cd:c1:
                    06:78:fe:e6:e2:66:61:1a:91:6e:03:c1:73:cd:5c:
                    6a:de:69:20:ce:5b:18:cd:48:99:83:ab:15:bc:73:
                    da:66:dc:1c:f6:e3:d9:9f:e1:e1:40:04:12:ee:7f:
                    5b:57:b8:69:a1:8c:38:a4:1d:86:27:e2:6c:0d:82:
                    fa:16:e4:de:a6:19:48:26:a3:49:9e:5e:21:b1:ab:
                    8c:15:c7:82:2d:1b:19:dd:0c:fd:3b:68:9b:52:b4:
                    4e:83:ab:97:db:b1:f3:f3:f6:36:6f:b6:ab:37:2d:
                    12:0b:1f:58:9d:fa:4c:93:ed:eb:14:f0:37:12:03:
                    61:0e:f0:98:d2:77:7e:36:a4:4c:0d:71:8e:80:b7:
                    24:d0:b5:93:d6:d3:bd:45:d6:96:0d:ec:d7:09:98:
                    12:6f:fb:48:ff:25:d5:40:e0:87:29:2d:1c:f7:45:
                    9e:e6:fb:b4:16:3d:3e:7c:bc:b8:ae:da:ed:22:ee:
                    82:87:c1
                Exponent: 65537 (0x10001)
        X509v3 extensions:
            X509v3 Basic Constraints: 
                CA:FALSE
            Netscape Comment: 
                Easy-RSA Generated Certificate
            X509v3 Subject Key Identifier: 
                FA:7B:1A:93:16:7C:71:C1:77:75:AE:50:00:5B:92:0E:75:B7:2D:61
            X509v3 Authority Key Identifier: 
                keyid:12:CD:60:04:D2:A0:80:9E:70:ED:C6:99:B8:7B:2C:C6:52:FD:19:A1
                DirName:/C=US/ST=OH/L=Columbus/O=VikingVPN/OU=MyOrganizationalUnit/CN=VikingVPN CA/name=EasyRSA/emailAddress=me@myhost.mydomain
                serial:CF:35:85:EE:80:BF:2A:3E

            X509v3 Extended Key Usage: 
                TLS Web Client Authentication
            X509v3 Key Usage: 
                Digital Signature
    Signature Algorithm: md5WithRSAEncryption
         d3:cc:c3:b7:0b:d2:a0:b1:98:ae:9f:b4:5e:a1:21:74:80:36:
         11:3f:30:a2:67:f3:42:98:b3:9b:bc:03:59:6a:cc:cd:10:5e:
         58:f8:de:1c:70:59:e4:40:2d:9e:74:86:61:55:04:3f:54:01:
         52:e4:03:74:26:04:5a:7f:00:57:b1:06:be:b6:0c:45:f1:e7:
         18:e5:61:52:76:94:66:2b:fb:fb:4c:29:d8:94:b7:f8:99:62:
         0e:36:0d:ff:2d:df:f4:c0:78:ee:ae:ae:b4:f6:a1:89:2d:ed:
         c7:7d:74:6a:02:5e:3b:13:81:11:f2:85:6c:82:c7:e6:84:7c:
         15:55:60:53:14:fd:6f:01:81:07:94:9e:29:28:a7:52:6e:42:
         74:d8:b2:d0:2c:72:22:8f:73:96:49:d6:d7:57:26:b7:5f:98:
         fd:66:c9:0e:26:06:94:50:3b:e7:08:64:0f:0c:08:e5:7c:80:
         74:62:78:8b:2e:93:7c:31:8d:87:1b:d0:45:24:75:4b:47:cc:
         b0:c5:d4:29:33:fd:08:e9:9b:cf:f3:98:6b:43:fa:72:1f:0d:
         83:e0:78:a2:ed:df:49:9c:24:03:03:3e:fd:6a:3c:33:cd:d8:
         e9:15:43:39:16:2f:c1:3e:e5:57:53:e8:de:9c:af:5b:b7:97:
         56:76:f4:42:4e:99:40:6e:19:00:61:81:c7:88:f5:f0:a1:35:
         a6:f8:1d:19:06:41:38:7b:14:da:19:9b:27:34:18:36:ea:e6:
         ad:47:c3:0c:16:01:51:97:7b:aa:c0:8f:1c:eb:8d:45:13:39:
         a8:42:b4:55:2b:50:ed:98:99:af:20:a2:9f:fe:bf:60:25:1e:
         34:dc:ff:04:30:7e:a9:8c:bf:9b:88:a7:83:6e:89:26:9f:86:
         61:76:af:ca:82:f8:59:ba:19:4d:92:c2:b3:e6:11:b3:2b:b2:
         27:49:a7:c7:9a:00:4c:49:ce:86:ec:ef:16:e4:26:d3:33:29:
         2c:15:a0:bf:96:45:08:ae:19:f0:a1:71:2e:8e:ca:bb:71:17:
         57:5f:d0:94:f9:cc:af:e7:b3:37:b9:cf:a9:94:4a:c4:32:65:
         84:ae:05:5c:11:99:da:7b:db:16:5c:78:96:1c:2a:d1:8a:68:
         37:c9:83:20:94:1a:59:57:72:1c:fd:a5:7a:06:6a:93:91:d4:
         80:d5:88:43:f0:cf:bd:38:a4:14:8c:06:bb:b5:cf:0b:e6:74:
         9e:28:3d:ff:b2:e9:6e:90:3f:2a:e0:e9:61:d5:ee:00:f5:e1:
         07:08:82:fc:da:c9:6e:0c:20:b4:af:e9:29:e0:a5:ec:51:12:
         a2:48:01:27:cc:6c:32:25
-----BEGIN CERTIFICATE-----
MIIGrTCCBJWgAwIBAgICHPAwDQYJKoZIhvcNAQEEBQAwgawxCzAJBgNVBAYTAlVT
MQswCQYDVQQIEwJPSDERMA8GA1UEBxMIQ29sdW1idXMxEjAQBgNVBAoTCVZpa2lu
Z1ZQTjEdMBsGA1UECxMUTXlPcmdhbml6YXRpb25hbFVuaXQxFTATBgNVBAMTDFZp
a2luZ1ZQTiBDQTEQMA4GA1UEKRMHRWFzeVJTQTEhMB8GCSqGSIb3DQEJARYSbWVA
bXlob3N0Lm15ZG9tYWluMB4XDTE2MDMwNDExMDg0MFoXDTI2MDMwMjExMDg0MFow
HzEdMBsGA1UEAxMUQ2xpZW50MTM5OENlcnRhNGZmYmQwggIiMA0GCSqGSIb3DQEB
AQUAA4ICDwAwggIKAoICAQC82ICZAXI8d3enLgFNXeVxqvW9AL/lj+6VnEUIorq9
e9UN1E9hpFyuNb9b9rhHqlxwk/5xinAePThqoHFzD0dq7dxX74y4wgaA27Efy1bu
Lwm7Lsor3jMZPy6U3VeWKB7smZ/8vjgN0tLQdDEwnyRavRh/j8m5yp0xcV5vbdJV
ZDTcB0P/KMeR+mboU3U6f3A0VA+GwqhSTf5cbTpLHt954f6cFVr7oE/wCvnMduOy
1aAHIITb8aTny/HpTKbzzM8kmlBI9Y3dI/Wxu96A/Ql0JJTVOEsa8kpYuUH1qLWi
qusPSV6mOTZUHK/RfQiVp+GZMAzhRnT2bvVEZ+AI4CpF25joQtQ3M7bcf96mIolp
MsYblJtFfVXvAcxZjQ/q3+oS6lZTWvYoZfsQeh+Apsc0LBVv4yggiO3KOd7xlii+
otWjWbkrA9PNwQZ4/ubiZmEakW4DwXPNXGreaSDOWxjNSJmDqxW8c9pm3Bz249mf
4eFABBLuf1tXuGmhjDikHYYn4mwNgvoW5N6mGUgmo0meXiGxq4wVx4ItGxndDP07
aJtStE6Dq5fbsfPz9jZvtqs3LRILH1id+kyT7esU8DcSA2EO8JjSd342pEwNcY6A
tyTQtZPW071F1pYN7NcJmBJv+0j/JdVA4IcpLRz3RZ7m+7QWPT58vLiu2u0i7oKH
wQIDAQABo4IBYzCCAV8wCQYDVR0TBAIwADAtBglghkgBhvhCAQ0EIBYeRWFzeS1S
U0EgR2VuZXJhdGVkIENlcnRpZmljYXRlMB0GA1UdDgQWBBT6exqTFnxxwXd1rlAA
W5IOdbctYTCB4QYDVR0jBIHZMIHWgBQSzWAE0qCAnnDtxpm4eyzGUv0ZoaGBsqSB
rzCBrDELMAkGA1UEBhMCVVMxCzAJBgNVBAgTAk9IMREwDwYDVQQHEwhDb2x1bWJ1
czESMBAGA1UEChMJVmlraW5nVlBOMR0wGwYDVQQLExRNeU9yZ2FuaXphdGlvbmFs
VW5pdDEVMBMGA1UEAxMMVmlraW5nVlBOIENBMRAwDgYDVQQpEwdFYXN5UlNBMSEw
HwYJKoZIhvcNAQkBFhJtZUBteWhvc3QubXlkb21haW6CCQDPNYXugL8qPjATBgNV
HSUEDDAKBggrBgEFBQcDAjALBgNVHQ8EBAMCB4AwDQYJKoZIhvcNAQEEBQADggIB
ANPMw7cL0qCxmK6ftF6hIXSANhE/MKJn80KYs5u8A1lqzM0QXlj43hxwWeRALZ50
hmFVBD9UAVLkA3QmBFp/AFexBr62DEXx5xjlYVJ2lGYr+/tMKdiUt/iZYg42Df8t
3/TAeO6urrT2oYkt7cd9dGoCXjsTgRHyhWyCx+aEfBVVYFMU/W8BgQeUnikop1Ju
QnTYstAsciKPc5ZJ1tdXJrdfmP1myQ4mBpRQO+cIZA8MCOV8gHRieIsuk3wxjYcb
0EUkdUtHzLDF1Ckz/Qjpm8/zmGtD+nIfDYPgeKLt30mcJAMDPv1qPDPN2OkVQzkW
L8E+5VdT6N6cr1u3l1Z29EJOmUBuGQBhgceI9fChNab4HRkGQTh7FNoZmyc0GDbq
5q1HwwwWAVGXe6rAjxzrjUUTOahCtFUrUO2Yma8gop/+v2AlHjTc/wQwfqmMv5uI
p4NuiSafhmF2r8qC+Fm6GU2SwrPmEbMrsidJp8eaAExJzobs7xbkJtMzKSwVoL+W
RQiuGfChcS6OyrtxF1df0JT5zK/nsze5z6mUSsQyZYSuBVwRmdp72xZceJYcKtGK
aDfJgyCUGllXchz9pXoGapOR1IDViEPwz704pBSMBru1zwvmdJ4oPf+y6W6QPyrg
6WHV7gD14QcIgvzayW4MILSv6SngpexREqJIASfMbDIl
-----END CERTIFICATE-----
