Certificate:
    Data:
        Version: 3 (0x2)
        Serial Number: 10280 (0x2828)
    Signature Algorithm: sha256WithRSAEncryption
        Issuer: C=US, ST=OH, L=Columbus, O=VikingVPN, OU=MyOrganizationalUnit, CN=VikingVPN CA/name=EasyRSA/emailAddress=me@myhost.mydomain
        Validity
            Not Before: Mar 11 17:09:13 2017 GMT
            Not After : Mar  9 17:09:13 2027 GMT
        Subject: CN=Client2079Cert969fbf
        Subject Public Key Info:
            Public Key Algorithm: rsaEncryption
                Public-Key: (4096 bit)
                Modulus:
                    00:bc:51:19:b5:89:50:cf:c0:4f:41:b1:f5:6d:41:
                    82:29:83:c0:06:d3:10:ab:e2:f7:f1:81:2c:18:6c:
                    7c:f1:02:2a:fb:c0:36:cb:54:b4:98:e5:d2:a1:34:
                    6b:f1:f6:ee:63:8b:3d:f1:ef:15:33:f4:ad:50:15:
                    d4:60:c9:95:94:36:26:89:a7:1c:61:12:b0:33:3e:
                    32:32:32:cc:07:f9:ee:f6:d0:69:04:a8:81:9c:e8:
                    af:d1:2c:1a:13:bb:1a:ba:c9:d0:a4:9c:ce:f7:f5:
                    25:f6:51:3a:f3:d5:fc:a8:fe:ed:30:86:ca:aa:6f:
                    24:fd:de:70:ca:f5:f5:aa:1f:7f:89:90:b3:a3:85:
                    30:95:52:df:80:71:b1:4d:4b:6b:7d:31:d5:92:96:
                    1b:ec:9d:0b:c2:f4:9f:fa:48:59:70:18:42:6a:1d:
                    65:66:31:90:80:97:7f:22:9c:d4:c2:b1:da:8b:b3:
                    8d:91:01:d4:21:c6:1e:c8:80:48:8a:e8:5c:07:f6:
                    e4:bc:bb:ed:7d:14:f7:33:a9:3d:ed:b4:62:79:ad:
                    ac:a2:07:58:a7:05:72:4d:bb:3a:9a:0a:98:57:e7:
                    2d:8e:f8:f2:6a:9f:a2:b1:5e:07:3a:03:e8:52:90:
                    c2:f6:8a:c7:b2:45:71:64:50:a8:23:ca:8b:a8:8d:
                    4c:58:80:f8:8a:60:5b:80:ea:53:fd:97:56:8c:44:
                    80:4b:56:e4:01:a9:5e:9f:32:74:13:4f:5b:c2:c6:
                    51:69:9f:09:fe:db:4a:7b:b3:f2:c4:41:3b:79:7f:
                    03:a3:0f:c1:d4:0b:d9:f3:4e:f8:81:ec:62:18:52:
                    15:61:bf:72:0d:ae:70:42:7a:82:55:32:c3:d2:50:
                    1b:2a:12:ed:23:77:5e:dc:fa:43:ce:5b:da:04:2b:
                    3b:45:50:9a:88:ef:05:a8:51:4d:31:38:76:8d:d0:
                    7d:00:2e:cd:1d:77:00:75:c1:64:77:d9:ff:74:23:
                    0f:f2:8e:c7:68:7b:b0:0c:0f:1f:a7:f5:31:3f:d6:
                    fe:3b:c5:75:02:85:4c:e9:b5:3c:df:73:79:ba:02:
                    9c:21:bd:35:bf:de:de:6d:c0:bd:31:0a:0b:44:4f:
                    3e:5d:34:61:55:ad:d8:c9:bd:73:be:8c:eb:89:40:
                    ae:05:4b:c5:e3:45:45:8f:0b:33:6f:66:47:d3:ed:
                    9e:ee:67:c1:5d:31:64:cc:01:17:f2:7c:25:8c:c8:
                    ce:54:20:f4:66:11:ed:cf:07:f4:a2:45:63:92:67:
                    65:2a:bb:40:0f:cf:ca:f3:f2:6c:72:02:9b:57:e0:
                    2a:a7:5d:d1:4a:db:ee:31:cc:d3:66:53:58:06:d1:
                    18:6e:63
                Exponent: 65537 (0x10001)
        X509v3 extensions:
            X509v3 Basic Constraints: 
                CA:FALSE
            Netscape Comment: 
                Easy-RSA Generated Certificate
            X509v3 Subject Key Identifier: 
                BB:CF:DC:82:98:82:65:C2:CC:56:BF:C3:50:4C:3E:6E:D8:BB:88:9B
            X509v3 Authority Key Identifier: 
                keyid:12:CD:60:04:D2:A0:80:9E:70:ED:C6:99:B8:7B:2C:C6:52:FD:19:A1
                DirName:/C=US/ST=OH/L=Columbus/O=VikingVPN/OU=MyOrganizationalUnit/CN=VikingVPN CA/name=EasyRSA/emailAddress=me@myhost.mydomain
                serial:CF:35:85:EE:80:BF:2A:3E

            X509v3 Extended Key Usage: 
                TLS Web Client Authentication
            X509v3 Key Usage: 
                Digital Signature
    Signature Algorithm: sha256WithRSAEncryption
         3d:c9:ee:cb:34:2d:80:2e:02:bf:23:7f:20:76:c5:39:6b:84:
         75:f3:c4:4f:e0:52:ff:b1:66:07:9b:48:3c:df:35:01:58:b7:
         33:2d:c3:48:a4:a5:5b:a3:53:a6:a0:27:26:25:ed:66:2a:03:
         12:7b:2e:b2:a0:30:b7:24:b8:49:93:e2:cb:dc:b9:8a:43:0d:
         e5:b3:7c:29:df:ec:28:aa:99:be:74:68:4a:b4:61:6e:9b:6c:
         74:1b:a6:4c:33:60:e1:85:33:b9:15:d7:69:0a:6c:2a:ce:54:
         a7:04:03:49:25:2d:f1:3e:45:46:02:ba:51:40:c0:55:0f:b3:
         80:09:3a:8a:2d:86:1e:0b:b7:55:97:1e:2a:93:2b:82:d2:24:
         e7:42:f6:11:c5:b3:a0:80:ef:37:9f:47:7f:1d:3f:0c:03:a1:
         04:78:6d:0b:e4:54:99:a2:a0:6d:c8:ba:a7:98:4c:ba:0a:aa:
         35:d1:b9:52:d9:1e:02:86:26:1b:48:6d:e2:dc:5a:a8:8d:d5:
         96:e7:80:20:8a:3e:7a:ea:b0:02:fb:c6:e1:90:c9:b8:2b:4d:
         1f:1a:d4:aa:8e:06:cc:13:2c:a4:13:7f:67:9a:e4:0d:29:55:
         14:66:09:c9:b8:77:54:34:ad:a1:9d:9f:fb:c1:7b:56:c1:0b:
         e6:c1:a7:ed:84:41:95:32:c9:5d:a6:7c:7a:17:8b:bf:36:ce:
         62:76:82:45:aa:c5:ba:00:cb:08:c4:a8:71:e2:ee:5a:61:08:
         3a:cb:18:bf:e6:eb:6a:c1:79:b3:9f:b5:ac:4a:80:92:ce:88:
         3a:e8:ee:36:88:71:79:47:f7:ed:35:3b:87:9f:e6:2a:e7:36:
         bf:db:b9:1f:22:64:69:96:ae:94:d2:82:e5:ae:2d:d2:e1:41:
         2e:9e:f1:1d:44:13:05:92:37:cb:42:d7:7e:04:6e:1d:11:6e:
         32:5a:d0:3a:7d:04:56:f8:5b:57:5b:91:62:77:33:ba:cb:08:
         cc:75:dd:3b:29:34:89:6f:cd:37:95:70:b4:e3:3e:7d:86:06:
         7c:b7:70:ad:15:9c:c9:4a:09:e3:71:75:aa:43:11:ff:f4:03:
         5e:53:ee:43:4d:7f:5f:ea:e7:11:cd:76:ff:4f:12:2c:da:7c:
         03:8d:d7:90:cd:58:95:72:19:0f:40:38:e2:ca:0e:da:24:b0:
         7e:2f:0a:87:03:71:03:46:7b:58:8d:0f:6c:71:d7:ce:41:29:
         58:cc:9e:35:b9:2a:05:bd:64:f7:ec:d6:e0:95:d4:09:5b:05:
         60:3c:d7:db:20:30:c1:cd:c4:9d:30:80:4f:0a:f2:21:25:d2:
         8d:d4:27:46:1e:63:63:3b
-----BEGIN CERTIFICATE-----
MIIGrTCCBJWgAwIBAgICKCgwDQYJKoZIhvcNAQELBQAwgawxCzAJBgNVBAYTAlVT
MQswCQYDVQQIEwJPSDERMA8GA1UEBxMIQ29sdW1idXMxEjAQBgNVBAoTCVZpa2lu
Z1ZQTjEdMBsGA1UECxMUTXlPcmdhbml6YXRpb25hbFVuaXQxFTATBgNVBAMTDFZp
a2luZ1ZQTiBDQTEQMA4GA1UEKRMHRWFzeVJTQTEhMB8GCSqGSIb3DQEJARYSbWVA
bXlob3N0Lm15ZG9tYWluMB4XDTE3MDMxMTE3MDkxM1oXDTI3MDMwOTE3MDkxM1ow
HzEdMBsGA1UEAxMUQ2xpZW50MjA3OUNlcnQ5NjlmYmYwggIiMA0GCSqGSIb3DQEB
AQUAA4ICDwAwggIKAoICAQC8URm1iVDPwE9BsfVtQYIpg8AG0xCr4vfxgSwYbHzx
Air7wDbLVLSY5dKhNGvx9u5jiz3x7xUz9K1QFdRgyZWUNiaJpxxhErAzPjIyMswH
+e720GkEqIGc6K/RLBoTuxq6ydCknM739SX2UTrz1fyo/u0whsqqbyT93nDK9fWq
H3+JkLOjhTCVUt+AcbFNS2t9MdWSlhvsnQvC9J/6SFlwGEJqHWVmMZCAl38inNTC
sdqLs42RAdQhxh7IgEiK6FwH9uS8u+19FPczqT3ttGJ5rayiB1inBXJNuzqaCphX
5y2O+PJqn6KxXgc6A+hSkML2iseyRXFkUKgjyouojUxYgPiKYFuA6lP9l1aMRIBL
VuQBqV6fMnQTT1vCxlFpnwn+20p7s/LEQTt5fwOjD8HUC9nzTviB7GIYUhVhv3IN
rnBCeoJVMsPSUBsqEu0jd17c+kPOW9oEKztFUJqI7wWoUU0xOHaN0H0ALs0ddwB1
wWR32f90Iw/yjsdoe7AMDx+n9TE/1v47xXUChUzptTzfc3m6ApwhvTW/3t5twL0x
CgtETz5dNGFVrdjJvXO+jOuJQK4FS8XjRUWPCzNvZkfT7Z7uZ8FdMWTMARfyfCWM
yM5UIPRmEe3PB/SiRWOSZ2Uqu0APz8rz8mxyAptX4CqnXdFK2+4xzNNmU1gG0Rhu
YwIDAQABo4IBYzCCAV8wCQYDVR0TBAIwADAtBglghkgBhvhCAQ0EIBYeRWFzeS1S
U0EgR2VuZXJhdGVkIENlcnRpZmljYXRlMB0GA1UdDgQWBBS7z9yCmIJlwsxWv8NQ
TD5u2LuImzCB4QYDVR0jBIHZMIHWgBQSzWAE0qCAnnDtxpm4eyzGUv0ZoaGBsqSB
rzCBrDELMAkGA1UEBhMCVVMxCzAJBgNVBAgTAk9IMREwDwYDVQQHEwhDb2x1bWJ1
czESMBAGA1UEChMJVmlraW5nVlBOMR0wGwYDVQQLExRNeU9yZ2FuaXphdGlvbmFs
VW5pdDEVMBMGA1UEAxMMVmlraW5nVlBOIENBMRAwDgYDVQQpEwdFYXN5UlNBMSEw
HwYJKoZIhvcNAQkBFhJtZUBteWhvc3QubXlkb21haW6CCQDPNYXugL8qPjATBgNV
HSUEDDAKBggrBgEFBQcDAjALBgNVHQ8EBAMCB4AwDQYJKoZIhvcNAQELBQADggIB
AD3J7ss0LYAuAr8jfyB2xTlrhHXzxE/gUv+xZgebSDzfNQFYtzMtw0ikpVujU6ag
JyYl7WYqAxJ7LrKgMLckuEmT4svcuYpDDeWzfCnf7Ciqmb50aEq0YW6bbHQbpkwz
YOGFM7kV12kKbCrOVKcEA0klLfE+RUYCulFAwFUPs4AJOoothh4Lt1WXHiqTK4LS
JOdC9hHFs6CA7zefR38dPwwDoQR4bQvkVJmioG3IuqeYTLoKqjXRuVLZHgKGJhtI
beLcWqiN1ZbngCCKPnrqsAL7xuGQybgrTR8a1KqOBswTLKQTf2ea5A0pVRRmCcm4
d1Q0raGdn/vBe1bBC+bBp+2EQZUyyV2mfHoXi782zmJ2gkWqxboAywjEqHHi7lph
CDrLGL/m62rBebOftaxKgJLOiDro7jaIcXlH9+01O4ef5irnNr/buR8iZGmWrpTS
guWuLdLhQS6e8R1EEwWSN8tC134Ebh0RbjJa0Dp9BFb4W1dbkWJ3M7rLCMx13Tsp
NIlvzTeVcLTjPn2GBny3cK0VnMlKCeNxdapDEf/0A15T7kNNf1/q5xHNdv9PEiza
fAON15DNWJVyGQ9AOOLKDtoksH4vCocDcQNGe1iND2xx185BKVjMnjW5KgW9ZPfs
1uCV1AlbBWA819sgMMHNxJ0wgE8K8iEl0o3UJ0YeY2M7
-----END CERTIFICATE-----
