Certificate:
    Data:
        Version: 3 (0x2)
        Serial Number: 4992 (0x1380)
    Signature Algorithm: md5WithRSAEncryption
        Issuer: C=US, ST=OH, L=Columbus, O=VikingVPN, OU=MyOrganizationalUnit, CN=VikingVPN CA/name=EasyRSA/emailAddress=me@myhost.mydomain
        Validity
            Not Before: Apr 18 11:22:05 2015 GMT
            Not After : Apr 15 11:22:05 2025 GMT
        Subject: CN=Client1626Certcc8fad
        Subject Public Key Info:
            Public Key Algorithm: rsaEncryption
                Public-Key: (4096 bit)
                Modulus:
                    00:ca:ce:eb:71:5f:de:fd:e5:0b:ef:50:f7:55:e1:
                    d3:71:0f:d9:42:e9:db:b5:ab:c9:a6:ba:1d:5d:03:
                    1b:09:c8:0c:43:98:28:06:d8:01:ae:7a:01:4c:af:
                    ee:a2:d4:59:ab:b6:bd:ff:11:dc:09:3d:13:f0:b1:
                    07:b7:4c:f4:4f:9f:54:5f:bb:30:50:e0:61:53:0c:
                    8f:17:87:bb:9b:9c:3c:c0:7d:97:f8:33:66:54:46:
                    55:e1:3c:f7:8b:7a:2d:75:76:b3:23:4c:7f:b2:2c:
                    4a:71:73:69:60:30:1c:20:53:fb:4c:88:9b:d4:4f:
                    1e:5b:ee:09:a4:05:6d:69:73:5c:a8:b3:d2:61:2a:
                    85:fb:84:a8:4d:53:ff:c7:66:31:b1:d7:2f:c2:1c:
                    c0:ff:53:50:44:2d:3e:2a:59:72:bc:d5:83:ca:36:
                    13:4e:95:be:6e:78:99:d1:d9:d8:d3:71:c3:7f:d0:
                    f8:fc:f1:5e:e9:42:e1:16:7c:ac:21:4c:61:d9:2a:
                    28:81:d4:59:b5:6e:f0:74:3a:ed:cb:2b:af:e1:a2:
                    8e:da:db:6e:43:67:0b:b1:ca:a5:dc:04:87:7a:53:
                    be:f2:fb:5c:cd:03:8f:60:79:cb:65:d9:b1:47:7a:
                    a9:fc:52:88:d3:2c:3f:9b:bb:19:d2:8b:b7:90:c3:
                    a6:1f:41:21:eb:05:ef:bf:7a:7c:41:b3:77:85:35:
                    ef:58:6c:27:80:20:1a:e1:fa:5b:3b:9d:c4:9d:11:
                    d1:36:98:07:a8:15:46:02:e9:67:5e:85:16:1e:41:
                    97:69:46:b9:c3:c5:80:c4:5e:39:8c:61:f2:c6:3d:
                    92:a1:bc:3a:8f:14:53:bd:b2:9f:c3:18:4c:20:5b:
                    91:98:6e:98:c8:83:32:27:0d:0c:0e:94:a5:20:2d:
                    85:20:d7:5c:0a:a6:12:35:ee:ee:ba:bf:2d:87:7d:
                    71:1d:29:d2:1e:f7:38:15:44:86:25:23:16:ca:27:
                    40:69:87:9f:1f:32:20:2a:a5:ca:97:4b:22:1d:81:
                    35:93:4f:59:ae:30:55:cc:78:e4:46:24:6d:0e:de:
                    82:2e:31:f9:11:57:96:81:81:f4:0f:73:31:58:4f:
                    49:e5:55:d1:2b:a9:77:84:42:a3:58:3d:c4:f8:21:
                    4a:95:88:8a:fc:70:48:c5:18:a4:e6:a7:a3:3b:2b:
                    6b:62:04:7a:1f:2f:fc:03:97:cf:01:d8:9e:c6:72:
                    6b:80:44:fb:33:ab:b2:15:41:cb:53:d5:b4:6c:3c:
                    da:55:62:7b:61:9c:3c:3e:c6:b0:e1:13:f7:ad:f2:
                    f1:66:8e:6c:cc:e0:3a:6a:3b:3e:38:93:70:d3:f2:
                    43:0f:df
                Exponent: 65537 (0x10001)
        X509v3 extensions:
            X509v3 Basic Constraints: 
                CA:FALSE
            Netscape Comment: 
                Easy-RSA Generated Certificate
            X509v3 Subject Key Identifier: 
                5F:9E:9D:AB:35:CD:F3:B4:F1:E5:8A:CA:46:A1:79:C9:F7:83:29:17
            X509v3 Authority Key Identifier: 
                keyid:12:CD:60:04:D2:A0:80:9E:70:ED:C6:99:B8:7B:2C:C6:52:FD:19:A1
                DirName:/C=US/ST=OH/L=Columbus/O=VikingVPN/OU=MyOrganizationalUnit/CN=VikingVPN CA/name=EasyRSA/emailAddress=me@myhost.mydomain
                serial:CF:35:85:EE:80:BF:2A:3E

            X509v3 Extended Key Usage: 
                TLS Web Client Authentication
            X509v3 Key Usage: 
                Digital Signature
    Signature Algorithm: md5WithRSAEncryption
         eb:ec:be:7c:bb:d1:3b:14:8b:26:0f:c2:bb:d7:42:07:98:4a:
         c0:09:05:8d:41:1e:fc:ae:d0:e8:1b:05:ab:99:dc:f0:7e:76:
         e9:f3:60:13:64:1b:4f:15:fa:4a:0e:71:96:b8:72:af:e4:91:
         06:1e:98:b1:58:82:e9:38:48:83:9d:6e:d9:8c:86:12:85:08:
         aa:a2:1b:18:ff:e8:bb:25:d6:76:10:f9:a7:b4:a5:d8:52:0b:
         95:dd:af:b4:fc:e9:69:fe:00:34:a2:a4:f1:db:e9:91:14:03:
         ff:1c:7f:38:95:a8:dd:57:fc:5b:b8:4a:6e:c0:ea:76:36:1f:
         cd:c3:86:37:47:be:8a:0d:ef:9f:cd:14:f5:64:5c:dc:bb:4d:
         25:6a:d0:ef:9e:aa:27:2f:29:41:8c:b6:0b:81:1e:56:f4:ae:
         68:42:68:3f:1a:4c:ed:d1:d9:ee:f7:24:33:d4:81:c5:ae:df:
         10:08:41:f8:76:e5:d7:c6:9d:6f:93:1e:c9:9c:e2:95:b6:03:
         25:5b:1d:20:64:99:27:8e:d5:17:52:d0:b7:7d:21:fb:27:63:
         16:93:a7:73:19:c5:cd:c8:01:04:c1:5c:c9:55:74:1c:18:ed:
         dc:fa:73:0d:bf:63:97:00:5a:70:a0:ad:26:2e:69:35:fb:16:
         c2:eb:22:34:81:61:aa:3a:2b:82:52:43:54:8e:31:40:0d:03:
         e3:50:06:0b:61:b0:fb:59:e3:6d:e3:ab:f9:69:13:de:09:02:
         32:dc:66:f2:86:2a:93:a0:c7:b2:13:61:99:85:83:1c:fe:80:
         6f:db:8c:5d:38:a1:71:b0:99:13:c1:6f:f7:95:82:3f:eb:e7:
         15:20:ad:47:6c:29:2b:08:9d:1f:98:00:c9:54:31:a1:5c:ab:
         b2:b4:5d:8e:e9:1e:9c:a5:58:2b:6f:c3:52:5e:6e:44:f1:46:
         3d:5d:f6:5e:f5:0a:14:14:54:0d:36:3a:a1:e5:e2:2e:9f:5d:
         18:28:40:6f:9f:14:71:fa:6c:c0:d5:44:0c:fa:21:76:35:04:
         09:87:e2:09:47:46:5f:6f:35:c5:b7:0b:89:60:28:4d:bf:e2:
         ea:3a:3c:4a:97:84:8a:4a:82:30:65:38:8d:c4:cc:0d:d6:3c:
         c5:8a:25:08:75:a6:53:20:c2:db:12:8d:ab:d2:f9:9c:d4:bc:
         d2:57:7c:04:46:96:fc:99:ff:15:39:bd:b6:ac:53:cf:0d:32:
         0a:6f:04:58:59:81:28:0e:b8:89:6b:66:93:c5:04:78:c3:c5:
         f1:c8:97:7e:b4:ec:b7:2c:48:46:7c:ad:d6:05:19:d9:4e:26:
         48:3d:05:85:3e:a9:3b:38
-----BEGIN CERTIFICATE-----
MIIGrTCCBJWgAwIBAgICE4AwDQYJKoZIhvcNAQEEBQAwgawxCzAJBgNVBAYTAlVT
MQswCQYDVQQIEwJPSDERMA8GA1UEBxMIQ29sdW1idXMxEjAQBgNVBAoTCVZpa2lu
Z1ZQTjEdMBsGA1UECxMUTXlPcmdhbml6YXRpb25hbFVuaXQxFTATBgNVBAMTDFZp
a2luZ1ZQTiBDQTEQMA4GA1UEKRMHRWFzeVJTQTEhMB8GCSqGSIb3DQEJARYSbWVA
bXlob3N0Lm15ZG9tYWluMB4XDTE1MDQxODExMjIwNVoXDTI1MDQxNTExMjIwNVow
HzEdMBsGA1UEAxMUQ2xpZW50MTYyNkNlcnRjYzhmYWQwggIiMA0GCSqGSIb3DQEB
AQUAA4ICDwAwggIKAoICAQDKzutxX9795QvvUPdV4dNxD9lC6du1q8mmuh1dAxsJ
yAxDmCgG2AGuegFMr+6i1Fmrtr3/EdwJPRPwsQe3TPRPn1RfuzBQ4GFTDI8Xh7ub
nDzAfZf4M2ZURlXhPPeLei11drMjTH+yLEpxc2lgMBwgU/tMiJvUTx5b7gmkBW1p
c1yos9JhKoX7hKhNU//HZjGx1y/CHMD/U1BELT4qWXK81YPKNhNOlb5ueJnR2djT
ccN/0Pj88V7pQuEWfKwhTGHZKiiB1Fm1bvB0Ou3LK6/hoo7a225DZwuxyqXcBId6
U77y+1zNA49gectl2bFHeqn8UojTLD+buxnSi7eQw6YfQSHrBe+/enxBs3eFNe9Y
bCeAIBrh+ls7ncSdEdE2mAeoFUYC6WdehRYeQZdpRrnDxYDEXjmMYfLGPZKhvDqP
FFO9sp/DGEwgW5GYbpjIgzInDQwOlKUgLYUg11wKphI17u66vy2HfXEdKdIe9zgV
RIYlIxbKJ0Bph58fMiAqpcqXSyIdgTWTT1muMFXMeORGJG0O3oIuMfkRV5aBgfQP
czFYT0nlVdErqXeEQqNYPcT4IUqViIr8cEjFGKTmp6M7K2tiBHofL/wDl88B2J7G
cmuARPszq7IVQctT1bRsPNpVYnthnDw+xrDhE/et8vFmjmzM4DpqOz44k3DT8kMP
3wIDAQABo4IBYzCCAV8wCQYDVR0TBAIwADAtBglghkgBhvhCAQ0EIBYeRWFzeS1S
U0EgR2VuZXJhdGVkIENlcnRpZmljYXRlMB0GA1UdDgQWBBRfnp2rNc3ztPHlispG
oXnJ94MpFzCB4QYDVR0jBIHZMIHWgBQSzWAE0qCAnnDtxpm4eyzGUv0ZoaGBsqSB
rzCBrDELMAkGA1UEBhMCVVMxCzAJBgNVBAgTAk9IMREwDwYDVQQHEwhDb2x1bWJ1
czESMBAGA1UEChMJVmlraW5nVlBOMR0wGwYDVQQLExRNeU9yZ2FuaXphdGlvbmFs
VW5pdDEVMBMGA1UEAxMMVmlraW5nVlBOIENBMRAwDgYDVQQpEwdFYXN5UlNBMSEw
HwYJKoZIhvcNAQkBFhJtZUBteWhvc3QubXlkb21haW6CCQDPNYXugL8qPjATBgNV
HSUEDDAKBggrBgEFBQcDAjALBgNVHQ8EBAMCB4AwDQYJKoZIhvcNAQEEBQADggIB
AOvsvny70TsUiyYPwrvXQgeYSsAJBY1BHvyu0OgbBauZ3PB+dunzYBNkG08V+koO
cZa4cq/kkQYemLFYguk4SIOdbtmMhhKFCKqiGxj/6Lsl1nYQ+ae0pdhSC5Xdr7T8
6Wn+ADSipPHb6ZEUA/8cfziVqN1X/Fu4Sm7A6nY2H83DhjdHvooN75/NFPVkXNy7
TSVq0O+eqicvKUGMtguBHlb0rmhCaD8aTO3R2e73JDPUgcWu3xAIQfh25dfGnW+T
Hsmc4pW2AyVbHSBkmSeO1RdS0Ld9IfsnYxaTp3MZxc3IAQTBXMlVdBwY7dz6cw2/
Y5cAWnCgrSYuaTX7FsLrIjSBYao6K4JSQ1SOMUANA+NQBgthsPtZ423jq/lpE94J
AjLcZvKGKpOgx7ITYZmFgxz+gG/bjF04oXGwmRPBb/eVgj/r5xUgrUdsKSsInR+Y
AMlUMaFcq7K0XY7pHpylWCtvw1JebkTxRj1d9l71ChQUVA02OqHl4i6fXRgoQG+f
FHH6bMDVRAz6IXY1BAmH4glHRl9vNcW3C4lgKE2/4uo6PEqXhIpKgjBlOI3EzA3W
PMWKJQh1plMgwtsSjavS+ZzUvNJXfARGlvyZ/xU5vbasU88NMgpvBFhZgSgOuIlr
ZpPFBHjDxfHIl3607LcsSEZ8rdYFGdlOJkg9BYU+qTs4
-----END CERTIFICATE-----
