Certificate:
    Data:
        Version: 3 (0x2)
        Serial Number: 3178 (0xc6a)
    Signature Algorithm: md5WithRSAEncryption
        Issuer: C=US, ST=OH, L=Columbus, O=VikingVPN, OU=MyOrganizationalUnit, CN=VikingVPN CA/name=EasyRSA/emailAddress=me@myhost.mydomain
        Validity
            Not Before: Oct 23 03:19:31 2014 GMT
            Not After : Oct 20 03:19:31 2024 GMT
        Subject: CN=Client1099Cert14f59a
        Subject Public Key Info:
            Public Key Algorithm: rsaEncryption
                Public-Key: (4096 bit)
                Modulus:
                    00:a5:4b:13:d8:4d:52:c5:4f:e2:d8:7c:a4:e2:76:
                    28:65:65:fe:be:11:0a:fa:e5:32:f5:b6:7b:7f:73:
                    46:f4:a4:d0:1c:6a:82:e0:3c:85:27:b6:4f:35:bf:
                    5c:64:88:2f:f1:bb:eb:21:64:80:e6:98:e8:f8:ac:
                    f4:ca:66:d4:09:62:03:a5:c8:33:31:19:41:84:fb:
                    80:cc:8b:ce:b5:cb:3b:d7:c6:4e:ac:12:a9:6e:25:
                    6f:ae:6c:c5:42:1a:d0:ac:6b:80:26:66:68:87:aa:
                    10:37:7b:af:06:56:af:bc:bc:f6:0e:35:6b:ef:dd:
                    af:e2:fb:b5:a7:cb:6e:04:2f:2c:ac:86:fa:8b:d1:
                    6d:12:12:a2:7a:cf:05:9f:54:25:fd:b3:64:6a:17:
                    cb:d2:e7:56:1e:6b:e1:d8:e7:4d:f6:70:c9:39:1b:
                    33:e7:31:f0:4e:0a:5d:44:5c:fe:c6:f1:ff:1b:34:
                    fa:b4:a2:93:07:99:63:00:66:2b:e9:db:ae:3c:3d:
                    9c:23:44:0d:e5:69:be:a5:72:0b:6a:20:6b:58:84:
                    55:b8:bd:ec:3a:a8:1b:86:7d:41:06:f3:b1:03:cf:
                    a0:e5:ae:14:28:64:da:23:b0:85:a5:b3:3f:fc:3d:
                    01:e8:ef:65:70:60:ba:79:7d:fc:db:72:9b:bb:50:
                    bc:c3:f3:83:55:a9:c9:94:52:c9:eb:df:f9:69:57:
                    d8:1d:1a:91:99:06:d4:bb:04:be:25:49:ed:d5:de:
                    a1:bb:48:c9:f6:53:ba:c1:b6:47:cf:ea:ce:b7:59:
                    02:4d:c1:54:42:65:cc:f8:4c:c3:47:45:b2:66:3b:
                    02:3b:68:6c:36:ad:ef:53:50:bc:2c:47:e3:d7:55:
                    a9:3b:d3:5e:54:17:a7:c9:5c:5b:51:f5:87:2f:a5:
                    66:21:42:24:f3:00:3a:88:21:af:b8:6f:ad:fb:b5:
                    b9:0d:42:3b:34:e2:46:e0:62:65:50:9f:80:d7:cb:
                    6c:a2:83:f3:ed:cb:bd:de:23:45:f5:40:cd:23:34:
                    a5:7c:72:39:3e:66:b9:c0:12:71:d8:04:ab:ce:44:
                    df:30:7b:48:08:e3:12:a3:b4:aa:3e:8e:03:6d:4d:
                    61:32:3d:89:9f:df:d9:04:6e:3b:32:4b:af:7d:1f:
                    ec:fc:90:d1:d1:13:93:ae:d6:6f:c5:38:37:ec:02:
                    63:4f:f5:f9:45:cd:ef:7e:79:09:aa:3e:be:ef:90:
                    42:aa:25:66:4c:2a:30:2a:11:cd:b1:d5:05:07:c8:
                    07:f8:30:da:36:c5:91:2d:fc:bd:54:f6:31:02:25:
                    37:ca:cf:9a:74:f9:34:f5:52:0e:6e:06:6c:64:3a:
                    6b:6b:bf
                Exponent: 65537 (0x10001)
        X509v3 extensions:
            X509v3 Basic Constraints: 
                CA:FALSE
            Netscape Comment: 
                Easy-RSA Generated Certificate
            X509v3 Subject Key Identifier: 
                6F:48:03:C6:D8:47:7F:AB:9A:E0:9E:1D:11:88:9A:27:52:19:97:A3
            X509v3 Authority Key Identifier: 
                keyid:12:CD:60:04:D2:A0:80:9E:70:ED:C6:99:B8:7B:2C:C6:52:FD:19:A1
                DirName:/C=US/ST=OH/L=Columbus/O=VikingVPN/OU=MyOrganizationalUnit/CN=VikingVPN CA/name=EasyRSA/emailAddress=me@myhost.mydomain
                serial:CF:35:85:EE:80:BF:2A:3E

            X509v3 Extended Key Usage: 
                TLS Web Client Authentication
            X509v3 Key Usage: 
                Digital Signature
    Signature Algorithm: md5WithRSAEncryption
         e4:41:98:2f:e6:7b:48:8d:e1:fa:85:7f:cd:13:26:36:a6:89:
         4c:18:dc:05:f7:23:eb:4c:90:af:c2:61:43:bf:ed:c2:c8:dc:
         7e:31:40:c9:37:f8:e3:55:d2:67:6d:06:f1:ce:89:0c:d8:2b:
         be:fb:de:e3:e7:64:aa:55:c7:42:b8:dc:57:b9:b8:69:32:92:
         73:c3:7e:d7:51:b6:7e:04:89:cf:11:4c:48:b5:aa:ab:f3:bc:
         7f:eb:e0:6f:67:ff:10:4a:a3:5f:d5:43:9d:72:fb:04:dc:62:
         28:0f:27:d6:12:02:d6:3e:4c:64:ed:79:f3:ef:f3:64:54:3e:
         3b:b9:3c:79:f5:cc:f1:85:c9:7d:a9:0b:75:21:5d:81:33:62:
         d4:e9:20:b7:b0:78:e4:37:fc:89:37:24:69:53:6d:25:79:d7:
         00:e2:e6:26:96:c2:48:16:39:7c:21:c2:fd:73:44:e4:ca:2a:
         8a:37:cc:ee:dc:21:b2:dd:7d:06:bd:a7:ad:8c:f1:dc:76:f8:
         37:2f:9e:db:ea:eb:bc:f6:49:21:b8:1b:17:df:20:38:fd:c9:
         4e:6c:34:a0:a2:87:8c:d3:b9:6e:f3:10:c1:51:a8:09:02:2b:
         a9:32:26:f4:33:1a:30:7e:8c:b9:5a:f5:85:04:7d:8b:c8:88:
         b0:b2:6c:e4:42:64:1c:38:1a:9d:e1:50:f1:94:0d:63:c4:65:
         f8:4f:4a:1b:51:11:bd:a2:37:0c:c3:05:32:77:0f:55:43:3a:
         0e:f2:80:3f:ce:ab:02:1a:e8:02:68:87:aa:79:7a:67:2c:55:
         dc:c5:72:db:dd:3b:5e:1e:be:f8:cc:06:c5:eb:b3:66:ca:27:
         80:1e:f8:42:4e:c6:56:0e:a5:67:2e:e6:93:40:57:a6:eb:6f:
         b0:06:24:24:0c:4c:80:c4:2f:64:12:54:0e:a3:aa:fe:73:97:
         9d:52:b5:3b:4f:b9:52:90:3e:66:19:99:4f:01:8f:e7:1c:1e:
         61:98:4b:af:07:ef:39:f8:36:e8:0a:cd:16:40:ae:e5:4d:bf:
         06:99:eb:bd:46:54:cf:9b:6b:b8:8a:db:55:7b:b2:ac:7a:44:
         b3:36:5d:65:a4:89:92:e8:d9:df:7e:d3:02:9a:e1:95:12:2f:
         1e:74:cc:7e:26:74:f0:c5:1c:1b:ee:8f:9f:eb:7a:54:81:94:
         84:36:73:e9:b5:2a:51:87:b0:6b:94:11:8e:7d:22:17:2e:18:
         5b:60:1b:bc:c6:e4:78:b9:4d:cc:42:e7:84:49:21:72:bb:d6:
         ea:6b:e5:be:38:16:d8:20:49:11:3a:c5:15:f7:16:46:ce:a0:
         cf:cd:5e:22:b1:c6:df:0f
-----BEGIN CERTIFICATE-----
MIIGrTCCBJWgAwIBAgICDGowDQYJKoZIhvcNAQEEBQAwgawxCzAJBgNVBAYTAlVT
MQswCQYDVQQIEwJPSDERMA8GA1UEBxMIQ29sdW1idXMxEjAQBgNVBAoTCVZpa2lu
Z1ZQTjEdMBsGA1UECxMUTXlPcmdhbml6YXRpb25hbFVuaXQxFTATBgNVBAMTDFZp
a2luZ1ZQTiBDQTEQMA4GA1UEKRMHRWFzeVJTQTEhMB8GCSqGSIb3DQEJARYSbWVA
bXlob3N0Lm15ZG9tYWluMB4XDTE0MTAyMzAzMTkzMVoXDTI0MTAyMDAzMTkzMVow
HzEdMBsGA1UEAxMUQ2xpZW50MTA5OUNlcnQxNGY1OWEwggIiMA0GCSqGSIb3DQEB
AQUAA4ICDwAwggIKAoICAQClSxPYTVLFT+LYfKTidihlZf6+EQr65TL1tnt/c0b0
pNAcaoLgPIUntk81v1xkiC/xu+shZIDmmOj4rPTKZtQJYgOlyDMxGUGE+4DMi861
yzvXxk6sEqluJW+ubMVCGtCsa4AmZmiHqhA3e68GVq+8vPYONWvv3a/i+7Wny24E
LyyshvqL0W0SEqJ6zwWfVCX9s2RqF8vS51Yea+HY5032cMk5GzPnMfBOCl1EXP7G
8f8bNPq0opMHmWMAZivp2648PZwjRA3lab6lcgtqIGtYhFW4vew6qBuGfUEG87ED
z6DlrhQoZNojsIWlsz/8PQHo72VwYLp5ffzbcpu7ULzD84NVqcmUUsnr3/lpV9gd
GpGZBtS7BL4lSe3V3qG7SMn2U7rBtkfP6s63WQJNwVRCZcz4TMNHRbJmOwI7aGw2
re9TULwsR+PXVak7015UF6fJXFtR9YcvpWYhQiTzADqIIa+4b637tbkNQjs04kbg
YmVQn4DXy2yig/Pty73eI0X1QM0jNKV8cjk+ZrnAEnHYBKvORN8we0gI4xKjtKo+
jgNtTWEyPYmf39kEbjsyS699H+z8kNHRE5Ou1m/FODfsAmNP9flFze9+eQmqPr7v
kEKqJWZMKjAqEc2x1QUHyAf4MNo2xZEt/L1U9jECJTfKz5p0+TT1Ug5uBmxkOmtr
vwIDAQABo4IBYzCCAV8wCQYDVR0TBAIwADAtBglghkgBhvhCAQ0EIBYeRWFzeS1S
U0EgR2VuZXJhdGVkIENlcnRpZmljYXRlMB0GA1UdDgQWBBRvSAPG2Ed/q5rgnh0R
iJonUhmXozCB4QYDVR0jBIHZMIHWgBQSzWAE0qCAnnDtxpm4eyzGUv0ZoaGBsqSB
rzCBrDELMAkGA1UEBhMCVVMxCzAJBgNVBAgTAk9IMREwDwYDVQQHEwhDb2x1bWJ1
czESMBAGA1UEChMJVmlraW5nVlBOMR0wGwYDVQQLExRNeU9yZ2FuaXphdGlvbmFs
VW5pdDEVMBMGA1UEAxMMVmlraW5nVlBOIENBMRAwDgYDVQQpEwdFYXN5UlNBMSEw
HwYJKoZIhvcNAQkBFhJtZUBteWhvc3QubXlkb21haW6CCQDPNYXugL8qPjATBgNV
HSUEDDAKBggrBgEFBQcDAjALBgNVHQ8EBAMCB4AwDQYJKoZIhvcNAQEEBQADggIB
AORBmC/me0iN4fqFf80TJjamiUwY3AX3I+tMkK/CYUO/7cLI3H4xQMk3+ONV0mdt
BvHOiQzYK7773uPnZKpVx0K43Fe5uGkyknPDftdRtn4Eic8RTEi1qqvzvH/r4G9n
/xBKo1/VQ51y+wTcYigPJ9YSAtY+TGTtefPv82RUPju5PHn1zPGFyX2pC3UhXYEz
YtTpILeweOQ3/Ik3JGlTbSV51wDi5iaWwkgWOXwhwv1zROTKKoo3zO7cIbLdfQa9
p62M8dx2+Dcvntvq67z2SSG4GxffIDj9yU5sNKCih4zTuW7zEMFRqAkCK6kyJvQz
GjB+jLla9YUEfYvIiLCybORCZBw4Gp3hUPGUDWPEZfhPShtREb2iNwzDBTJ3D1VD
Og7ygD/OqwIa6AJoh6p5emcsVdzFctvdO14evvjMBsXrs2bKJ4Ae+EJOxlYOpWcu
5pNAV6brb7AGJCQMTIDEL2QSVA6jqv5zl51StTtPuVKQPmYZmU8Bj+ccHmGYS68H
7zn4NugKzRZAruVNvwaZ671GVM+ba7iK21V7sqx6RLM2XWWkiZLo2d9+0wKa4ZUS
Lx50zH4mdPDFHBvuj5/relSBlIQ2c+m1KlGHsGuUEY59IhcuGFtgG7zG5Hi5TcxC
54RJIXK71upr5b44FtggSRE6xRX3FkbOoM/NXiKxxt8P
-----END CERTIFICATE-----
