Certificate:
    Data:
        Version: 3 (0x2)
        Serial Number: 8834 (0x2282)
    Signature Algorithm: sha256WithRSAEncryption
        Issuer: C=US, ST=OH, L=Columbus, O=VikingVPN, OU=MyOrganizationalUnit, CN=VikingVPN CA/name=EasyRSA/emailAddress=me@myhost.mydomain
        Validity
            Not Before: Aug 17 21:14:03 2016 GMT
            Not After : Aug 15 21:14:03 2026 GMT
        Subject: CN=Client2464Cert0e2e4b
        Subject Public Key Info:
            Public Key Algorithm: rsaEncryption
                Public-Key: (4096 bit)
                Modulus:
                    00:95:61:67:2a:49:1b:a2:bd:62:11:1d:f8:ea:5a:
                    2d:c0:51:ad:8d:95:d1:f5:b9:27:0b:77:67:92:db:
                    33:80:4e:4a:47:87:f4:f2:c7:3c:2e:66:7e:2a:70:
                    62:e1:e9:73:6f:d6:27:d0:a6:04:93:eb:36:6f:be:
                    a6:bb:9b:04:32:7d:94:fe:9e:31:49:de:ef:07:c3:
                    d9:40:05:f6:db:e5:dc:5b:3a:00:cd:37:f7:cb:1e:
                    78:d8:4c:d0:80:ad:68:de:bd:1a:d2:d6:9d:48:ab:
                    6c:c7:fd:75:d6:36:d2:3e:ec:e9:b8:57:61:49:f9:
                    38:cd:3e:f6:29:67:60:62:8e:27:00:61:c5:a4:e5:
                    78:c0:0c:8e:29:8d:86:8b:ab:44:03:d2:3a:ec:5c:
                    41:5d:fd:93:b7:67:aa:96:a5:aa:4d:df:d2:f3:9f:
                    00:2c:aa:a5:20:67:45:a2:fa:89:31:2e:4d:b3:f0:
                    fc:df:ef:d3:78:0f:46:ca:a9:aa:2f:69:25:cd:da:
                    58:15:8e:ec:67:29:5d:34:70:ef:ab:07:1d:53:99:
                    e4:d2:54:36:3a:db:5b:1d:67:8b:ad:ec:58:a7:69:
                    3e:8b:0f:ae:24:e4:6a:d5:48:8d:d3:de:c9:0d:a9:
                    13:ff:7e:d9:30:b2:d4:d2:23:9d:01:5f:65:e0:bd:
                    ea:89:7f:fb:76:6e:fa:ca:c6:cc:72:a5:67:49:2a:
                    b5:af:22:df:ad:5c:ed:e2:04:ea:d6:61:ae:a0:aa:
                    cd:d0:1b:06:79:f0:f7:45:d2:3a:52:16:f0:a4:39:
                    a3:1c:ab:f2:c8:60:5a:5d:c4:c9:9d:a7:3a:ac:46:
                    60:c2:29:53:4d:da:07:7b:98:92:cd:b9:9f:47:5d:
                    ae:12:45:69:7a:52:2a:13:79:18:7b:e0:04:e5:cb:
                    bb:ca:ea:0f:52:5e:16:f0:7c:5c:61:16:7c:dc:21:
                    35:20:e8:d3:3c:d7:38:d0:7d:b8:81:63:01:71:c4:
                    14:4e:1a:ed:88:10:e8:bd:84:25:87:36:a9:c5:d9:
                    ea:ce:d7:bb:34:81:5f:ab:c2:0a:04:2a:ad:d3:d6:
                    ba:d4:f7:b3:74:a4:78:92:63:eb:4c:c2:ab:e6:02:
                    80:93:3c:a9:2b:3f:04:d3:ce:40:49:8f:55:85:b1:
                    cb:36:59:bb:9a:58:86:56:e3:64:9c:a1:f8:4e:a5:
                    cd:94:6a:f2:1e:40:a5:f1:b9:9b:a0:6f:e0:66:ff:
                    5c:a0:a1:9b:20:83:c5:01:90:90:ce:06:34:14:33:
                    97:24:63:43:de:fc:52:94:55:9e:e6:cb:18:36:57:
                    63:ef:76:ec:8f:e0:58:f2:eb:4b:69:85:0e:94:0c:
                    21:40:37
                Exponent: 65537 (0x10001)
        X509v3 extensions:
            X509v3 Basic Constraints: 
                CA:FALSE
            Netscape Comment: 
                Easy-RSA Generated Certificate
            X509v3 Subject Key Identifier: 
                7C:42:C3:9D:AF:31:6B:46:84:44:F8:9F:AC:01:F7:0E:A6:E0:9E:6F
            X509v3 Authority Key Identifier: 
                keyid:12:CD:60:04:D2:A0:80:9E:70:ED:C6:99:B8:7B:2C:C6:52:FD:19:A1
                DirName:/C=US/ST=OH/L=Columbus/O=VikingVPN/OU=MyOrganizationalUnit/CN=VikingVPN CA/name=EasyRSA/emailAddress=me@myhost.mydomain
                serial:CF:35:85:EE:80:BF:2A:3E

            X509v3 Extended Key Usage: 
                TLS Web Client Authentication
            X509v3 Key Usage: 
                Digital Signature
    Signature Algorithm: sha256WithRSAEncryption
         42:d4:45:d9:c2:9a:1a:3b:ac:ac:52:f8:db:6f:f0:08:e2:a4:
         5c:dd:5b:b9:fc:aa:c2:f9:0c:a2:34:91:36:49:bf:88:3c:5b:
         36:bf:bc:48:93:8d:7d:59:13:37:85:66:a0:e0:50:2e:61:4d:
         17:f5:de:90:b2:b2:ee:92:e7:99:ee:e4:13:15:96:3d:dd:69:
         90:ad:19:4f:08:c2:6b:96:1a:a5:76:40:69:ae:1a:bc:92:c0:
         2c:ae:2b:20:ce:6e:f0:cc:80:07:48:52:98:fd:d4:ef:f9:22:
         40:13:31:7b:d6:f2:61:b9:1f:8d:0e:fe:e0:61:32:0a:95:cc:
         08:56:4e:77:15:d2:ee:30:68:df:2a:30:cb:78:ac:c3:9b:51:
         b2:c3:77:ac:5c:00:91:51:5b:41:8b:fc:bb:0d:2e:30:7b:d2:
         b5:c5:5e:9b:3e:49:81:dd:ab:c2:c7:53:30:10:9c:6e:9e:b4:
         99:3a:e7:46:2b:48:32:9c:23:17:9b:b6:a4:79:64:c0:7e:25:
         c0:80:b3:84:50:f8:29:d1:4d:6f:0f:31:89:18:57:a7:f8:b2:
         a0:a9:07:48:c9:13:3e:de:42:7a:3a:8b:38:a2:34:fb:8d:eb:
         0c:ea:59:b5:3b:ee:b7:b1:dc:b5:e7:98:40:17:6a:2c:5a:48:
         6b:64:14:4a:00:0b:f9:1e:14:68:98:d3:57:c9:3f:16:8d:2e:
         eb:f7:90:30:64:74:7f:77:5d:2d:37:72:c3:42:7a:22:ed:89:
         fd:23:dd:76:ce:f6:8e:79:50:53:bf:ba:a6:c7:96:24:ca:a3:
         8c:df:37:4d:11:a1:e5:eb:2f:82:6d:b6:75:30:5f:a2:55:9a:
         72:b1:69:13:b1:6e:8e:93:38:3d:75:38:d0:d2:92:a0:46:67:
         51:20:18:c0:bc:10:cf:4f:5e:f3:36:8e:78:a1:85:02:af:17:
         0e:5b:1e:f0:1d:05:ba:c3:54:a8:b1:d3:35:84:eb:2b:5e:17:
         a5:7a:f2:7d:25:5c:70:3f:ca:55:0b:e1:5e:50:4d:ec:ef:1d:
         a6:f5:2b:3e:76:99:da:66:cb:71:b8:d2:29:38:22:20:d2:64:
         1e:75:e0:f4:6a:1d:cb:c6:b5:cb:e7:b9:90:8f:bb:7d:ca:69:
         3b:11:19:9c:e0:fd:61:a5:15:a6:8e:bd:ea:2e:16:f7:0f:e5:
         d9:3e:43:1d:22:1b:eb:cb:74:d4:d9:ba:df:2d:ac:7a:91:16:
         5f:0b:55:0a:83:3b:ec:15:90:d8:e6:7c:cf:3e:49:f4:ff:58:
         53:8b:e7:f7:ad:c6:f2:57:a1:af:13:35:e1:bd:a8:bb:9e:51:
         0e:8d:92:df:56:6a:d8:30
-----BEGIN CERTIFICATE-----
MIIGrTCCBJWgAwIBAgICIoIwDQYJKoZIhvcNAQELBQAwgawxCzAJBgNVBAYTAlVT
MQswCQYDVQQIEwJPSDERMA8GA1UEBxMIQ29sdW1idXMxEjAQBgNVBAoTCVZpa2lu
Z1ZQTjEdMBsGA1UECxMUTXlPcmdhbml6YXRpb25hbFVuaXQxFTATBgNVBAMTDFZp
a2luZ1ZQTiBDQTEQMA4GA1UEKRMHRWFzeVJTQTEhMB8GCSqGSIb3DQEJARYSbWVA
bXlob3N0Lm15ZG9tYWluMB4XDTE2MDgxNzIxMTQwM1oXDTI2MDgxNTIxMTQwM1ow
HzEdMBsGA1UEAxMUQ2xpZW50MjQ2NENlcnQwZTJlNGIwggIiMA0GCSqGSIb3DQEB
AQUAA4ICDwAwggIKAoICAQCVYWcqSRuivWIRHfjqWi3AUa2NldH1uScLd2eS2zOA
TkpHh/TyxzwuZn4qcGLh6XNv1ifQpgST6zZvvqa7mwQyfZT+njFJ3u8Hw9lABfbb
5dxbOgDNN/fLHnjYTNCArWjevRrS1p1Iq2zH/XXWNtI+7Om4V2FJ+TjNPvYpZ2Bi
jicAYcWk5XjADI4pjYaLq0QD0jrsXEFd/ZO3Z6qWpapN39LznwAsqqUgZ0Wi+okx
Lk2z8Pzf79N4D0bKqaovaSXN2lgVjuxnKV00cO+rBx1TmeTSVDY621sdZ4ut7Fin
aT6LD64k5GrVSI3T3skNqRP/ftkwstTSI50BX2XgveqJf/t2bvrKxsxypWdJKrWv
It+tXO3iBOrWYa6gqs3QGwZ58PdF0jpSFvCkOaMcq/LIYFpdxMmdpzqsRmDCKVNN
2gd7mJLNuZ9HXa4SRWl6UioTeRh74ATly7vK6g9SXhbwfFxhFnzcITUg6NM81zjQ
fbiBYwFxxBROGu2IEOi9hCWHNqnF2erO17s0gV+rwgoEKq3T1rrU97N0pHiSY+tM
wqvmAoCTPKkrPwTTzkBJj1WFscs2WbuaWIZW42ScofhOpc2UavIeQKXxuZugb+Bm
/1ygoZsgg8UBkJDOBjQUM5ckY0Pe/FKUVZ7myxg2V2PvduyP4Fjy60tphQ6UDCFA
NwIDAQABo4IBYzCCAV8wCQYDVR0TBAIwADAtBglghkgBhvhCAQ0EIBYeRWFzeS1S
U0EgR2VuZXJhdGVkIENlcnRpZmljYXRlMB0GA1UdDgQWBBR8QsOdrzFrRoRE+J+s
AfcOpuCebzCB4QYDVR0jBIHZMIHWgBQSzWAE0qCAnnDtxpm4eyzGUv0ZoaGBsqSB
rzCBrDELMAkGA1UEBhMCVVMxCzAJBgNVBAgTAk9IMREwDwYDVQQHEwhDb2x1bWJ1
czESMBAGA1UEChMJVmlraW5nVlBOMR0wGwYDVQQLExRNeU9yZ2FuaXphdGlvbmFs
VW5pdDEVMBMGA1UEAxMMVmlraW5nVlBOIENBMRAwDgYDVQQpEwdFYXN5UlNBMSEw
HwYJKoZIhvcNAQkBFhJtZUBteWhvc3QubXlkb21haW6CCQDPNYXugL8qPjATBgNV
HSUEDDAKBggrBgEFBQcDAjALBgNVHQ8EBAMCB4AwDQYJKoZIhvcNAQELBQADggIB
AELURdnCmho7rKxS+Ntv8AjipFzdW7n8qsL5DKI0kTZJv4g8Wza/vEiTjX1ZEzeF
ZqDgUC5hTRf13pCysu6S55nu5BMVlj3daZCtGU8IwmuWGqV2QGmuGrySwCyuKyDO
bvDMgAdIUpj91O/5IkATMXvW8mG5H40O/uBhMgqVzAhWTncV0u4waN8qMMt4rMOb
UbLDd6xcAJFRW0GL/LsNLjB70rXFXps+SYHdq8LHUzAQnG6etJk650YrSDKcIxeb
tqR5ZMB+JcCAs4RQ+CnRTW8PMYkYV6f4sqCpB0jJEz7eQno6iziiNPuN6wzqWbU7
7rex3LXnmEAXaixaSGtkFEoAC/keFGiY01fJPxaNLuv3kDBkdH93XS03csNCeiLt
if0j3XbO9o55UFO/uqbHliTKo4zfN00RoeXrL4JttnUwX6JVmnKxaROxbo6TOD11
ONDSkqBGZ1EgGMC8EM9PXvM2jnihhQKvFw5bHvAdBbrDVKix0zWE6yteF6V68n0l
XHA/ylUL4V5QTezvHab1Kz52mdpmy3G40ik4IiDSZB514PRqHcvGtcvnuZCPu33K
aTsRGZzg/WGlFaaOveouFvcP5dk+Qx0iG+vLdNTZut8trHqRFl8LVQqDO+wVkNjm
fM8+SfT/WFOL5/etxvJXoa8TNeG9qLueUQ6Nkt9Watgw
-----END CERTIFICATE-----
