Certificate:
    Data:
        Version: 3 (0x2)
        Serial Number: 9366 (0x2496)
    Signature Algorithm: sha256WithRSAEncryption
        Issuer: C=US, ST=OH, L=Columbus, O=VikingVPN, OU=MyOrganizationalUnit, CN=VikingVPN CA/name=EasyRSA/emailAddress=me@myhost.mydomain
        Validity
            Not Before: Nov  1 07:01:23 2016 GMT
            Not After : Oct 30 07:01:23 2026 GMT
        Subject: CN=Client2567Cert52ff84
        Subject Public Key Info:
            Public Key Algorithm: rsaEncryption
                Public-Key: (4096 bit)
                Modulus:
                    00:e5:39:78:c0:bd:c7:5b:8a:aa:66:48:42:43:4e:
                    b3:eb:18:df:bc:22:a8:88:9c:95:2b:7f:ed:ce:56:
                    8d:f4:a6:65:e6:3d:84:28:05:b4:62:1c:b5:b9:d0:
                    5a:48:e8:5c:fb:fe:67:f0:68:64:b0:67:74:fc:1c:
                    e0:67:a1:16:9a:78:4a:a2:8a:08:9c:3c:f0:49:73:
                    31:74:34:7f:73:f9:48:97:b1:81:db:e6:84:be:86:
                    d1:53:4d:be:f5:6b:c4:61:2e:f3:95:1e:23:39:53:
                    6d:73:5b:af:4d:56:ed:d1:61:a4:96:e3:a9:11:1b:
                    bc:57:6b:c1:da:ec:86:95:53:02:30:c0:a0:c9:79:
                    1c:c8:52:bb:18:8c:a7:40:67:b2:2a:ec:33:67:9f:
                    d6:0c:a2:48:d8:fb:6c:fc:d8:20:2a:81:35:79:4a:
                    c9:5c:fb:07:09:9b:3d:40:30:98:ec:69:0e:5c:cf:
                    78:cf:a4:8c:e6:37:69:81:3e:b6:db:50:85:21:41:
                    2b:fd:57:9e:a1:f3:b1:cd:71:82:20:94:d0:34:06:
                    6e:ab:13:20:24:28:2a:e2:ef:16:e5:a0:2a:d3:d5:
                    c8:e3:bb:e3:e6:46:08:bf:3f:67:db:14:0c:30:6c:
                    7d:c3:c8:d0:15:af:ba:b1:ef:47:96:7e:90:45:42:
                    e6:b6:c2:f8:1a:36:51:b0:fc:ca:90:a0:e3:b1:d7:
                    00:8a:87:28:1e:17:b6:41:d4:ec:c7:c2:1d:cf:d4:
                    50:2d:42:b3:47:dc:0f:5d:ab:49:b4:c6:7b:9a:94:
                    5c:45:6b:c5:33:52:16:2c:67:24:c8:46:a0:61:26:
                    d4:11:bd:71:8e:2a:50:54:56:f6:80:be:1e:ba:4a:
                    d1:67:bd:5b:81:05:9b:86:ca:4c:c7:31:c0:df:2b:
                    ba:b2:5a:73:7e:30:4a:c4:37:08:6f:63:a4:b6:db:
                    70:a7:83:2a:86:24:a6:f0:b1:4d:0a:bf:dc:86:66:
                    39:34:7d:ab:05:fc:4b:b8:e4:c9:95:38:93:44:9f:
                    3d:e4:18:77:5e:5d:15:8f:03:b0:97:3a:ef:e6:ac:
                    d6:7e:8c:64:76:5a:2a:da:ef:08:7c:6c:05:07:22:
                    56:b5:a6:dc:7e:cb:8f:fb:c8:31:5e:7f:7a:32:0a:
                    47:44:ef:4c:95:9e:1a:26:90:02:f8:4d:a9:3b:90:
                    ea:46:d2:38:fb:83:4e:f1:42:32:7f:54:42:17:43:
                    ed:e8:93:95:c4:d1:c3:2e:9d:8b:9d:c8:20:bc:e5:
                    a5:c9:0e:f6:e7:56:bf:b0:79:5c:ec:6b:6e:42:75:
                    1b:8e:e9:ac:1e:af:28:18:d7:da:40:52:dd:44:82:
                    0b:bc:f9
                Exponent: 65537 (0x10001)
        X509v3 extensions:
            X509v3 Basic Constraints: 
                CA:FALSE
            Netscape Comment: 
                Easy-RSA Generated Certificate
            X509v3 Subject Key Identifier: 
                FF:2A:AA:14:AD:49:59:7A:3F:BF:A9:11:FE:0F:F0:37:E0:4D:60:C2
            X509v3 Authority Key Identifier: 
                keyid:12:CD:60:04:D2:A0:80:9E:70:ED:C6:99:B8:7B:2C:C6:52:FD:19:A1
                DirName:/C=US/ST=OH/L=Columbus/O=VikingVPN/OU=MyOrganizationalUnit/CN=VikingVPN CA/name=EasyRSA/emailAddress=me@myhost.mydomain
                serial:CF:35:85:EE:80:BF:2A:3E

            X509v3 Extended Key Usage: 
                TLS Web Client Authentication
            X509v3 Key Usage: 
                Digital Signature
    Signature Algorithm: sha256WithRSAEncryption
         be:4d:01:30:82:3e:6a:c2:81:e7:32:6e:ea:b6:4f:64:0b:e8:
         0e:d6:6d:4c:53:88:1c:d9:99:22:e3:39:0e:a1:ba:f4:b3:11:
         40:86:73:e6:27:92:cf:3e:7a:ab:d5:47:c0:23:4f:2f:53:b9:
         06:cf:34:e2:69:62:fe:5e:b7:73:c2:81:54:48:0a:58:31:b2:
         fc:11:8c:c9:f2:31:71:f1:8b:f9:3f:5e:9b:90:8f:ac:a2:ce:
         3b:f8:c3:d0:fe:60:8b:92:33:72:10:4e:d5:27:42:7c:4c:5c:
         9c:d8:57:8b:a7:9a:4c:0b:df:07:d8:ec:c6:42:db:71:7a:ab:
         87:f9:c9:fb:e5:bc:52:a7:7f:d2:0e:46:bf:fe:14:71:95:75:
         8a:ac:67:9c:b6:d4:22:08:ff:83:69:18:f1:d9:25:91:ad:0a:
         f4:71:27:05:e4:4a:da:a8:68:e3:66:45:e1:78:af:f9:1e:54:
         13:9a:f9:f9:fc:b4:67:fe:7a:5b:53:fd:18:e7:79:df:bf:80:
         5f:56:b9:82:68:8b:8b:a0:a6:4e:fe:0a:92:db:69:e6:2d:99:
         5f:1e:da:ff:ea:be:48:5d:4f:0d:9e:a5:b7:03:27:a8:e3:44:
         8d:73:cd:71:3f:05:e0:20:2e:1b:7b:b0:d7:10:9f:b1:ef:cd:
         fd:a2:04:cc:be:40:cc:47:11:55:b9:20:e6:47:e3:9d:70:1e:
         ed:78:b2:69:42:99:e1:4f:d1:73:a7:7b:23:5a:00:81:dc:7b:
         9c:30:fb:51:b5:07:f8:e2:f5:b5:82:9e:7e:07:6e:e2:45:4d:
         80:d0:e2:36:c1:57:c8:56:ba:a6:c8:6b:ad:55:68:d2:de:b6:
         23:36:7d:7c:a6:7d:b5:af:54:8b:1f:a5:fa:24:dc:9e:78:ee:
         5a:9d:04:76:2a:bb:df:f8:d0:4d:fe:9e:d1:b6:3b:1d:ac:82:
         b5:fc:a2:72:61:be:fc:dc:13:b3:f2:04:82:1c:f1:36:8e:f0:
         98:e2:42:34:9f:73:8a:e0:ba:76:17:a6:c3:23:7d:70:88:c7:
         a8:e6:d6:ff:d8:a7:f5:27:06:2e:33:71:18:34:cb:01:28:48:
         78:c7:3f:1c:57:8c:71:ae:b1:b9:0d:06:28:43:50:c8:93:82:
         c1:84:92:bd:c1:c2:60:79:63:45:6c:52:cf:e7:8d:c2:f6:cc:
         00:0c:54:80:97:4c:7e:35:e3:06:e2:61:b5:4f:d9:78:6f:d4:
         e8:33:59:20:ab:83:77:ae:7a:e2:ef:56:d5:45:87:2d:06:5a:
         cc:75:6e:3b:19:22:5d:9d:1c:e6:f8:a9:9a:9f:76:73:e0:27:
         42:16:2f:15:93:98:2b:84
-----BEGIN CERTIFICATE-----
MIIGrTCCBJWgAwIBAgICJJYwDQYJKoZIhvcNAQELBQAwgawxCzAJBgNVBAYTAlVT
MQswCQYDVQQIEwJPSDERMA8GA1UEBxMIQ29sdW1idXMxEjAQBgNVBAoTCVZpa2lu
Z1ZQTjEdMBsGA1UECxMUTXlPcmdhbml6YXRpb25hbFVuaXQxFTATBgNVBAMTDFZp
a2luZ1ZQTiBDQTEQMA4GA1UEKRMHRWFzeVJTQTEhMB8GCSqGSIb3DQEJARYSbWVA
bXlob3N0Lm15ZG9tYWluMB4XDTE2MTEwMTA3MDEyM1oXDTI2MTAzMDA3MDEyM1ow
HzEdMBsGA1UEAxMUQ2xpZW50MjU2N0NlcnQ1MmZmODQwggIiMA0GCSqGSIb3DQEB
AQUAA4ICDwAwggIKAoICAQDlOXjAvcdbiqpmSEJDTrPrGN+8IqiInJUrf+3OVo30
pmXmPYQoBbRiHLW50FpI6Fz7/mfwaGSwZ3T8HOBnoRaaeEqiigicPPBJczF0NH9z
+UiXsYHb5oS+htFTTb71a8RhLvOVHiM5U21zW69NVu3RYaSW46kRG7xXa8Ha7IaV
UwIwwKDJeRzIUrsYjKdAZ7Iq7DNnn9YMokjY+2z82CAqgTV5Sslc+wcJmz1AMJjs
aQ5cz3jPpIzmN2mBPrbbUIUhQSv9V56h87HNcYIglNA0Bm6rEyAkKCri7xbloCrT
1cjju+PmRgi/P2fbFAwwbH3DyNAVr7qx70eWfpBFQua2wvgaNlGw/MqQoOOx1wCK
hygeF7ZB1OzHwh3P1FAtQrNH3A9dq0m0xnualFxFa8UzUhYsZyTIRqBhJtQRvXGO
KlBUVvaAvh66StFnvVuBBZuGykzHMcDfK7qyWnN+MErENwhvY6S223CngyqGJKbw
sU0Kv9yGZjk0fasF/Eu45MmVOJNEnz3kGHdeXRWPA7CXOu/mrNZ+jGR2Wira7wh8
bAUHIla1ptx+y4/7yDFef3oyCkdE70yVnhomkAL4Tak7kOpG0jj7g07xQjJ/VEIX
Q+3ok5XE0cMunYudyCC85aXJDvbnVr+weVzsa25CdRuO6awerygY19pAUt1Eggu8
+QIDAQABo4IBYzCCAV8wCQYDVR0TBAIwADAtBglghkgBhvhCAQ0EIBYeRWFzeS1S
U0EgR2VuZXJhdGVkIENlcnRpZmljYXRlMB0GA1UdDgQWBBT/KqoUrUlZej+/qRH+
D/A34E1gwjCB4QYDVR0jBIHZMIHWgBQSzWAE0qCAnnDtxpm4eyzGUv0ZoaGBsqSB
rzCBrDELMAkGA1UEBhMCVVMxCzAJBgNVBAgTAk9IMREwDwYDVQQHEwhDb2x1bWJ1
czESMBAGA1UEChMJVmlraW5nVlBOMR0wGwYDVQQLExRNeU9yZ2FuaXphdGlvbmFs
VW5pdDEVMBMGA1UEAxMMVmlraW5nVlBOIENBMRAwDgYDVQQpEwdFYXN5UlNBMSEw
HwYJKoZIhvcNAQkBFhJtZUBteWhvc3QubXlkb21haW6CCQDPNYXugL8qPjATBgNV
HSUEDDAKBggrBgEFBQcDAjALBgNVHQ8EBAMCB4AwDQYJKoZIhvcNAQELBQADggIB
AL5NATCCPmrCgecybuq2T2QL6A7WbUxTiBzZmSLjOQ6huvSzEUCGc+Ynks8+eqvV
R8AjTy9TuQbPNOJpYv5et3PCgVRIClgxsvwRjMnyMXHxi/k/XpuQj6yizjv4w9D+
YIuSM3IQTtUnQnxMXJzYV4unmkwL3wfY7MZC23F6q4f5yfvlvFKnf9IORr/+FHGV
dYqsZ5y21CII/4NpGPHZJZGtCvRxJwXkStqoaONmReF4r/keVBOa+fn8tGf+eltT
/Rjned+/gF9WuYJoi4ugpk7+CpLbaeYtmV8e2v/qvkhdTw2epbcDJ6jjRI1zzXE/
BeAgLht7sNcQn7Hvzf2iBMy+QMxHEVW5IOZH451wHu14smlCmeFP0XOneyNaAIHc
e5ww+1G1B/ji9bWCnn4HbuJFTYDQ4jbBV8hWuqbIa61VaNLetiM2fXymfbWvVIsf
pfok3J547lqdBHYqu9/40E3+ntG2Ox2sgrX8onJhvvzcE7PyBIIc8TaO8JjiQjSf
c4rgunYXpsMjfXCIx6jm1v/Yp/UnBi4zcRg0ywEoSHjHPxxXjHGusbkNBihDUMiT
gsGEkr3BwmB5Y0VsUs/njcL2zAAMVICXTH414wbiYbVP2Xhv1OgzWSCrg3eueuLv
VtVFhy0GWsx1bjsZIl2dHOb4qZqfdnPgJ0IWLxWTmCuE
-----END CERTIFICATE-----
