Certificate:
    Data:
        Version: 3 (0x2)
        Serial Number: 13034 (0x32ea)
    Signature Algorithm: sha256WithRSAEncryption
        Issuer: C=US, ST=OH, L=Columbus, O=VikingVPN, OU=MyOrganizationalUnit, CN=VikingVPN CA/name=EasyRSA/emailAddress=me@myhost.mydomain
        Validity
            Not Before: Apr 26 02:24:25 2018 GMT
            Not After : Apr 23 02:24:25 2028 GMT
        Subject: CN=Client3286Cert6259b0
        Subject Public Key Info:
            Public Key Algorithm: rsaEncryption
                Public-Key: (4096 bit)
                Modulus:
                    00:b3:4b:cb:28:6b:2e:67:d8:c0:c4:aa:6d:3b:53:
                    55:c0:4c:72:ad:60:e4:69:d8:3c:9b:e7:ce:80:7c:
                    58:c5:ae:d4:6b:da:9c:d1:79:e1:fd:cf:d7:32:a7:
                    ac:dc:e5:ab:df:6f:e1:cb:66:cd:57:75:0e:19:30:
                    77:cc:23:fe:74:2c:06:28:19:ac:ac:5d:cd:70:cc:
                    04:f3:06:4f:2b:20:1c:b4:4e:0a:5b:fa:45:61:36:
                    3c:d2:15:64:b3:c1:25:f9:b8:b4:e1:74:91:2b:61:
                    43:e3:31:cd:f8:f7:27:14:08:83:22:4d:b8:3e:27:
                    fb:af:4b:01:fc:73:ee:c5:b9:90:53:f1:5b:3d:02:
                    61:fb:4e:94:08:5f:0e:ce:cf:95:f7:ca:f0:94:e4:
                    69:35:21:65:72:8c:66:eb:cf:b2:ca:11:a4:da:d2:
                    03:bc:e0:55:89:35:8a:1a:56:79:f0:f0:1a:bd:71:
                    bf:63:e3:11:bc:b6:81:a6:a1:d2:bd:60:6c:3a:61:
                    8a:ea:dc:d5:93:55:91:87:e3:30:b1:66:44:a7:4b:
                    32:5b:ff:45:64:13:9c:00:ad:e7:46:be:07:c9:5c:
                    db:6c:9c:a6:89:32:37:ab:7f:ac:d0:c7:c4:76:20:
                    cb:18:93:16:20:81:22:25:c1:11:54:27:8e:52:44:
                    45:bd:10:b2:10:61:65:d5:4e:a7:70:38:7a:84:a3:
                    d5:bf:0e:72:f6:c6:89:8e:71:b1:52:5c:eb:db:90:
                    77:b3:d0:57:3e:6f:42:77:22:56:4c:93:ce:a8:71:
                    8a:68:36:08:28:a9:b0:ff:66:99:1d:f0:32:0f:4c:
                    52:d0:83:80:93:96:f4:b1:6d:a7:f7:52:b6:c3:ba:
                    38:b6:20:29:06:3e:53:20:cd:9f:21:75:c4:d8:e3:
                    6b:59:0b:4a:57:bc:63:ea:bf:94:c0:7e:c6:54:d9:
                    82:4e:19:b1:8e:4d:9e:6d:35:20:8f:68:57:e9:61:
                    55:6b:55:c5:29:0e:9f:5f:76:b5:e7:4a:b3:1a:7e:
                    09:e5:fe:e0:d9:60:42:11:f6:8e:32:ee:2b:ea:9e:
                    b0:ad:75:6a:75:3e:68:3f:ef:02:c1:74:9a:bb:9c:
                    10:cf:86:f8:df:3c:97:cb:64:c8:16:c5:02:70:67:
                    dc:b9:90:eb:6d:2a:a9:43:f9:8d:1f:e6:6d:a1:3a:
                    e7:30:c8:ad:d3:5c:f1:6e:6c:70:fd:bf:97:0e:dd:
                    32:b1:b3:1b:2d:76:e0:a2:be:7d:b2:fb:2d:4e:95:
                    e2:64:05:b0:dd:5c:80:c4:5f:cf:21:d0:36:43:d2:
                    de:a5:a8:a9:dc:46:0f:33:59:c8:6a:32:bb:2e:63:
                    04:08:9d
                Exponent: 65537 (0x10001)
        X509v3 extensions:
            X509v3 Basic Constraints: 
                CA:FALSE
            Netscape Comment: 
                Easy-RSA Generated Certificate
            X509v3 Subject Key Identifier: 
                36:EA:19:DE:08:B5:47:5E:2A:E2:12:E8:84:5E:0F:7A:82:B4:5B:A7
            X509v3 Authority Key Identifier: 
                keyid:12:CD:60:04:D2:A0:80:9E:70:ED:C6:99:B8:7B:2C:C6:52:FD:19:A1
                DirName:/C=US/ST=OH/L=Columbus/O=VikingVPN/OU=MyOrganizationalUnit/CN=VikingVPN CA/name=EasyRSA/emailAddress=me@myhost.mydomain
                serial:CF:35:85:EE:80:BF:2A:3E

            X509v3 Extended Key Usage: 
                TLS Web Client Authentication
            X509v3 Key Usage: 
                Digital Signature
    Signature Algorithm: sha256WithRSAEncryption
         e1:3c:68:49:a9:2a:1f:e0:3a:b9:94:87:68:53:1d:0d:95:af:
         9f:8e:24:c5:25:e2:51:44:cf:29:57:d1:1a:25:5b:af:68:fd:
         5b:e1:bb:c5:64:7d:ac:19:9c:54:4c:40:cc:c4:31:d8:46:4c:
         1a:73:ba:31:12:6a:e2:0f:c9:34:3c:d0:97:d7:ad:e6:8f:96:
         bc:c0:f8:05:68:cf:42:da:a7:a3:59:36:11:b9:3a:7b:a8:af:
         e5:77:af:13:59:19:99:17:66:ca:32:ce:33:b4:c8:cf:81:62:
         3b:73:c8:47:5b:b6:2a:64:c9:5b:68:64:5e:04:eb:cd:40:25:
         33:41:73:6d:ab:3e:82:a8:5f:d6:19:0d:f7:33:bc:86:a6:db:
         f9:49:9b:8c:fb:55:65:86:7e:06:bd:16:9c:a9:b6:39:8b:a5:
         53:87:4a:1a:74:55:21:1f:a3:4c:67:94:df:92:24:a5:24:f6:
         60:b8:37:ff:67:24:56:f8:fd:9a:a8:f1:4d:73:1e:c1:e2:aa:
         3d:59:c4:8a:9c:64:3f:23:10:f2:de:80:6c:7e:0f:93:ff:95:
         bc:f0:b7:7d:ea:d1:c5:a6:89:2e:f4:81:f9:15:ca:d1:6c:10:
         0a:4d:32:e0:a6:28:63:31:cf:43:23:8d:7d:d4:de:41:78:b4:
         d9:45:86:65:50:24:b9:6c:d9:6d:55:73:71:fe:b2:2e:f5:44:
         6c:67:16:eb:3c:e1:98:ab:cb:d3:7a:f1:db:df:df:b5:dd:0d:
         dd:e8:87:9b:77:a2:70:1c:d9:08:c3:b3:7e:0d:bc:dc:dc:24:
         12:ef:9e:3d:b2:a4:49:aa:43:06:42:11:f8:ea:10:5e:8b:59:
         d6:9f:66:27:bb:ad:ee:10:5d:8f:8b:c8:45:03:ea:21:1f:27:
         89:11:f6:61:53:a8:48:8e:87:79:7a:98:c0:02:30:eb:0b:a0:
         5a:16:9a:bc:e8:68:8d:a8:cd:e6:e0:83:17:6c:b1:ed:ce:77:
         ce:e8:cf:c5:99:c0:5a:d8:d2:f4:10:2e:2f:ea:76:da:c7:d5:
         59:1a:51:fa:6c:8e:df:16:72:1a:78:a8:df:d4:34:e8:08:72:
         a2:9d:ef:d9:32:f5:bc:1d:37:bf:b2:ad:9f:3e:c6:98:95:78:
         85:8a:5b:ff:93:81:90:d2:1b:cd:51:b3:b5:e5:13:60:52:a7:
         e9:82:52:e2:86:74:d7:43:fa:60:24:86:7b:4a:da:dc:f9:b5:
         fb:7b:b5:eb:6c:e3:37:61:e4:49:7e:a0:fd:18:e8:ec:13:4c:
         c7:0d:b6:bc:88:87:25:6c:ec:50:8b:46:a7:52:41:9f:b7:f3:
         8a:17:64:c4:27:b6:a1:48
-----BEGIN CERTIFICATE-----
MIIGrTCCBJWgAwIBAgICMuowDQYJKoZIhvcNAQELBQAwgawxCzAJBgNVBAYTAlVT
MQswCQYDVQQIEwJPSDERMA8GA1UEBxMIQ29sdW1idXMxEjAQBgNVBAoTCVZpa2lu
Z1ZQTjEdMBsGA1UECxMUTXlPcmdhbml6YXRpb25hbFVuaXQxFTATBgNVBAMTDFZp
a2luZ1ZQTiBDQTEQMA4GA1UEKRMHRWFzeVJTQTEhMB8GCSqGSIb3DQEJARYSbWVA
bXlob3N0Lm15ZG9tYWluMB4XDTE4MDQyNjAyMjQyNVoXDTI4MDQyMzAyMjQyNVow
HzEdMBsGA1UEAxMUQ2xpZW50MzI4NkNlcnQ2MjU5YjAwggIiMA0GCSqGSIb3DQEB
AQUAA4ICDwAwggIKAoICAQCzS8soay5n2MDEqm07U1XATHKtYORp2Dyb586AfFjF
rtRr2pzReeH9z9cyp6zc5avfb+HLZs1XdQ4ZMHfMI/50LAYoGaysXc1wzATzBk8r
IBy0Tgpb+kVhNjzSFWSzwSX5uLThdJErYUPjMc349ycUCIMiTbg+J/uvSwH8c+7F
uZBT8Vs9AmH7TpQIXw7Oz5X3yvCU5Gk1IWVyjGbrz7LKEaTa0gO84FWJNYoaVnnw
8Bq9cb9j4xG8toGmodK9YGw6YYrq3NWTVZGH4zCxZkSnSzJb/0VkE5wAredGvgfJ
XNtsnKaJMjerf6zQx8R2IMsYkxYggSIlwRFUJ45SREW9ELIQYWXVTqdwOHqEo9W/
DnL2xomOcbFSXOvbkHez0Fc+b0J3IlZMk86ocYpoNggoqbD/Zpkd8DIPTFLQg4CT
lvSxbaf3UrbDuji2ICkGPlMgzZ8hdcTY42tZC0pXvGPqv5TAfsZU2YJOGbGOTZ5t
NSCPaFfpYVVrVcUpDp9fdrXnSrMafgnl/uDZYEIR9o4y7ivqnrCtdWp1Pmg/7wLB
dJq7nBDPhvjfPJfLZMgWxQJwZ9y5kOttKqlD+Y0f5m2hOucwyK3TXPFubHD9v5cO
3TKxsxstduCivn2y+y1OleJkBbDdXIDEX88h0DZD0t6lqKncRg8zWchqMrsuYwQI
nQIDAQABo4IBYzCCAV8wCQYDVR0TBAIwADAtBglghkgBhvhCAQ0EIBYeRWFzeS1S
U0EgR2VuZXJhdGVkIENlcnRpZmljYXRlMB0GA1UdDgQWBBQ26hneCLVHXiriEuiE
Xg96grRbpzCB4QYDVR0jBIHZMIHWgBQSzWAE0qCAnnDtxpm4eyzGUv0ZoaGBsqSB
rzCBrDELMAkGA1UEBhMCVVMxCzAJBgNVBAgTAk9IMREwDwYDVQQHEwhDb2x1bWJ1
czESMBAGA1UEChMJVmlraW5nVlBOMR0wGwYDVQQLExRNeU9yZ2FuaXphdGlvbmFs
VW5pdDEVMBMGA1UEAxMMVmlraW5nVlBOIENBMRAwDgYDVQQpEwdFYXN5UlNBMSEw
HwYJKoZIhvcNAQkBFhJtZUBteWhvc3QubXlkb21haW6CCQDPNYXugL8qPjATBgNV
HSUEDDAKBggrBgEFBQcDAjALBgNVHQ8EBAMCB4AwDQYJKoZIhvcNAQELBQADggIB
AOE8aEmpKh/gOrmUh2hTHQ2Vr5+OJMUl4lFEzylX0RolW69o/Vvhu8VkfawZnFRM
QMzEMdhGTBpzujESauIPyTQ80JfXreaPlrzA+AVoz0Lap6NZNhG5Onuor+V3rxNZ
GZkXZsoyzjO0yM+BYjtzyEdbtipkyVtoZF4E681AJTNBc22rPoKoX9YZDfczvIam
2/lJm4z7VWWGfga9FpyptjmLpVOHShp0VSEfo0xnlN+SJKUk9mC4N/9nJFb4/Zqo
8U1zHsHiqj1ZxIqcZD8jEPLegGx+D5P/lbzwt33q0cWmiS70gfkVytFsEApNMuCm
KGMxz0MjjX3U3kF4tNlFhmVQJLls2W1Vc3H+si71RGxnFus84Ziry9N68dvf37Xd
Dd3oh5t3onAc2QjDs34NvNzcJBLvnj2ypEmqQwZCEfjqEF6LWdafZie7re4QXY+L
yEUD6iEfJ4kR9mFTqEiOh3l6mMACMOsLoFoWmrzoaI2ozebggxdsse3Od87oz8WZ
wFrY0vQQLi/qdtrH1VkaUfpsjt8Wchp4qN/UNOgIcqKd79ky9bwdN7+yrZ8+xpiV
eIWKW/+TgZDSG81Rs7XlE2BSp+mCUuKGdNdD+mAkhntK2tz5tft7tets4zdh5El+
oP0Y6OwTTMcNtryIhyVs7FCLRqdSQZ+384oXZMQntqFI
-----END CERTIFICATE-----
