Certificate:
    Data:
        Version: 3 (0x2)
        Serial Number: 5246 (0x147e)
    Signature Algorithm: md5WithRSAEncryption
        Issuer: C=US, ST=OH, L=Columbus, O=VikingVPN, OU=MyOrganizationalUnit, CN=VikingVPN CA/name=EasyRSA/emailAddress=me@myhost.mydomain
        Validity
            Not Before: May 13 06:54:51 2015 GMT
            Not After : May 10 06:54:51 2025 GMT
        Subject: CN=Client1679Cert91d30f
        Subject Public Key Info:
            Public Key Algorithm: rsaEncryption
                Public-Key: (4096 bit)
                Modulus:
                    00:b7:ad:1d:f1:b7:4c:22:cc:da:aa:07:f4:04:10:
                    32:9b:7d:84:9a:0b:26:08:54:ad:11:70:95:fd:ae:
                    49:03:b1:7d:b4:0f:51:0e:46:ca:6c:ef:4f:58:ed:
                    06:e8:63:44:47:1c:da:af:22:54:b6:46:8d:f2:bc:
                    3d:cf:3c:15:ac:cf:68:52:1d:35:74:85:ae:dd:1b:
                    bc:77:df:40:c8:f6:b8:96:6c:f3:67:c4:4d:56:03:
                    15:07:ad:7f:40:67:8b:86:3c:5d:a6:a9:0d:d3:38:
                    c4:b7:2d:ff:a6:08:c5:f9:18:43:b0:98:a9:b6:27:
                    bb:47:1b:b3:d6:00:f3:a2:a1:71:93:f9:84:37:8c:
                    b6:76:56:c4:52:0b:13:f6:99:af:b4:f5:43:30:95:
                    74:37:ad:05:6e:58:77:11:5e:c7:b0:65:a4:63:6d:
                    72:db:08:1a:9e:61:ac:f2:42:89:82:a6:87:0b:b4:
                    69:64:34:52:36:a3:44:f6:2f:5d:50:53:f9:d0:00:
                    b1:77:cc:c5:78:15:93:c4:0b:59:24:85:18:c0:af:
                    ea:47:d0:cc:d0:71:30:b6:c6:53:8d:d9:d6:cd:86:
                    36:16:7b:73:9d:a1:a9:97:8a:91:e6:5a:55:4f:a7:
                    44:e7:f0:84:bf:8b:a3:70:81:4d:16:9f:2b:5a:a2:
                    91:fc:29:2d:90:72:f6:fb:b7:03:61:08:9e:49:ee:
                    a7:06:42:2f:73:c9:f2:e3:8f:5c:79:b6:44:de:ee:
                    ac:6b:8b:f3:b7:8c:96:00:33:4b:4d:cf:a5:cf:fb:
                    92:d8:32:08:77:67:0c:33:10:6f:ca:af:f0:a5:e7:
                    63:08:e8:c1:f1:bb:4e:0f:df:8e:03:de:f6:b1:6d:
                    fa:1f:96:cc:ac:48:fb:5d:c8:06:96:84:c3:88:15:
                    06:e3:f2:a3:71:6d:c8:b1:5f:ab:f9:1a:f1:fd:46:
                    7d:e3:0f:d5:d2:cc:4d:f7:71:f8:ed:7c:86:1b:0a:
                    92:96:a9:f5:24:bb:12:fa:b1:bc:ea:e8:ff:e3:3a:
                    f4:1c:f7:0a:6a:77:12:ad:6c:75:68:78:a7:1b:54:
                    c4:64:24:d1:e9:26:a2:81:fc:fb:4d:c7:2c:a2:31:
                    98:47:10:e5:a4:47:f6:1c:c6:60:eb:88:69:99:a7:
                    1c:cd:ca:29:93:81:d7:3b:79:04:1e:28:ef:e1:17:
                    19:ad:3f:d7:52:32:2e:7a:b6:b3:6c:ce:b9:ec:e8:
                    d5:06:14:2b:91:97:1f:57:10:63:d1:fc:8c:d2:e1:
                    ad:d7:29:aa:0a:df:54:76:06:83:21:b1:71:54:87:
                    96:de:5e:4a:74:fa:d5:4f:b9:9f:2e:73:0c:95:b4:
                    c5:d9:c3
                Exponent: 65537 (0x10001)
        X509v3 extensions:
            X509v3 Basic Constraints: 
                CA:FALSE
            Netscape Comment: 
                Easy-RSA Generated Certificate
            X509v3 Subject Key Identifier: 
                44:1B:51:7A:92:D3:EF:C5:BB:19:27:C4:64:AB:6E:71:4B:74:42:DB
            X509v3 Authority Key Identifier: 
                keyid:12:CD:60:04:D2:A0:80:9E:70:ED:C6:99:B8:7B:2C:C6:52:FD:19:A1
                DirName:/C=US/ST=OH/L=Columbus/O=VikingVPN/OU=MyOrganizationalUnit/CN=VikingVPN CA/name=EasyRSA/emailAddress=me@myhost.mydomain
                serial:CF:35:85:EE:80:BF:2A:3E

            X509v3 Extended Key Usage: 
                TLS Web Client Authentication
            X509v3 Key Usage: 
                Digital Signature
    Signature Algorithm: md5WithRSAEncryption
         53:15:6c:bc:6b:da:4c:f9:42:d4:ba:6c:16:90:11:a1:a0:b2:
         23:b3:63:1b:a9:51:80:94:56:9d:ad:a2:fc:ae:57:7f:bc:5f:
         8f:78:c0:06:4b:30:55:be:7a:ab:20:e9:04:e0:e6:c3:fb:e1:
         29:5b:64:ee:f8:e1:09:f8:ea:a1:40:1d:0c:26:0a:e2:44:15:
         b5:95:0e:fd:a2:a3:2d:65:63:15:69:2b:b7:d7:ef:6c:31:ae:
         2b:d7:5c:87:75:e5:cf:c4:94:f1:e8:08:31:8a:88:6b:31:0a:
         92:ec:64:ad:e3:84:f2:39:05:96:2b:ab:5f:02:53:58:67:56:
         c2:4d:78:b0:42:ec:81:17:9a:48:72:e8:84:de:f0:ab:7a:a5:
         1a:33:0d:09:7c:56:de:97:86:5c:5f:06:1b:d0:af:c0:d6:57:
         e4:0e:65:9f:93:5b:5c:b3:7b:bb:09:27:52:fb:0d:d5:37:85:
         34:08:29:30:a6:c1:bb:0c:a9:88:75:94:e6:3e:0c:db:28:c8:
         12:91:4d:22:65:70:40:f0:5f:29:d5:26:02:71:e3:df:4b:94:
         ac:40:e0:57:cc:4a:1a:7e:21:53:99:83:0c:c5:10:39:10:71:
         a6:b9:16:d4:b6:d6:11:33:5a:02:f0:6f:9e:a3:3b:df:26:b6:
         dc:91:27:7f:11:dd:db:60:e6:90:87:07:63:20:66:1b:6e:7e:
         22:ac:78:84:42:5e:9f:27:91:98:ed:42:75:bf:9c:90:b3:a4:
         76:9f:9b:07:4d:f5:db:55:f7:0f:bc:67:89:06:90:31:dd:eb:
         7e:e0:b7:ac:85:e6:2d:f1:80:a5:10:f2:e2:46:15:cf:50:4a:
         95:ee:34:b9:f8:25:da:b3:c6:4d:ef:61:2c:06:2f:c3:f2:47:
         b1:d2:89:c7:b4:68:64:57:9e:5f:59:91:21:9d:07:e1:c4:d8:
         bd:9a:52:cc:0b:54:1f:14:32:ad:19:f4:44:72:5f:97:7c:06:
         18:40:52:36:46:ca:36:75:31:08:f5:ee:0f:21:e6:8b:23:05:
         67:21:60:51:68:da:86:34:35:12:ed:69:f3:02:26:e5:49:fa:
         75:90:de:7f:46:41:90:8a:a1:ad:aa:ef:87:b7:dd:8f:26:14:
         bf:5c:36:3b:38:36:e9:e6:8b:b8:2e:9c:5a:d0:e6:d9:57:5c:
         19:72:1c:21:51:01:5d:3e:f8:45:da:8b:b9:b7:19:18:1a:ab:
         b4:ed:cf:db:9f:13:7d:be:db:bc:e2:78:cd:e6:0f:c0:cc:7d:
         17:8a:01:7d:48:66:17:11:aa:bb:c0:0d:a7:ed:88:e3:7a:6e:
         c6:19:64:36:58:78:90:29
-----BEGIN CERTIFICATE-----
MIIGrTCCBJWgAwIBAgICFH4wDQYJKoZIhvcNAQEEBQAwgawxCzAJBgNVBAYTAlVT
MQswCQYDVQQIEwJPSDERMA8GA1UEBxMIQ29sdW1idXMxEjAQBgNVBAoTCVZpa2lu
Z1ZQTjEdMBsGA1UECxMUTXlPcmdhbml6YXRpb25hbFVuaXQxFTATBgNVBAMTDFZp
a2luZ1ZQTiBDQTEQMA4GA1UEKRMHRWFzeVJTQTEhMB8GCSqGSIb3DQEJARYSbWVA
bXlob3N0Lm15ZG9tYWluMB4XDTE1MDUxMzA2NTQ1MVoXDTI1MDUxMDA2NTQ1MVow
HzEdMBsGA1UEAxMUQ2xpZW50MTY3OUNlcnQ5MWQzMGYwggIiMA0GCSqGSIb3DQEB
AQUAA4ICDwAwggIKAoICAQC3rR3xt0wizNqqB/QEEDKbfYSaCyYIVK0RcJX9rkkD
sX20D1EORsps709Y7QboY0RHHNqvIlS2Ro3yvD3PPBWsz2hSHTV0ha7dG7x330DI
9riWbPNnxE1WAxUHrX9AZ4uGPF2mqQ3TOMS3Lf+mCMX5GEOwmKm2J7tHG7PWAPOi
oXGT+YQ3jLZ2VsRSCxP2ma+09UMwlXQ3rQVuWHcRXsewZaRjbXLbCBqeYazyQomC
pocLtGlkNFI2o0T2L11QU/nQALF3zMV4FZPEC1kkhRjAr+pH0MzQcTC2xlON2dbN
hjYWe3OdoamXipHmWlVPp0Tn8IS/i6NwgU0WnytaopH8KS2Qcvb7twNhCJ5J7qcG
Qi9zyfLjj1x5tkTe7qxri/O3jJYAM0tNz6XP+5LYMgh3ZwwzEG/Kr/Cl52MI6MHx
u04P344D3vaxbfoflsysSPtdyAaWhMOIFQbj8qNxbcixX6v5GvH9Rn3jD9XSzE33
cfjtfIYbCpKWqfUkuxL6sbzq6P/jOvQc9wpqdxKtbHVoeKcbVMRkJNHpJqKB/PtN
xyyiMZhHEOWkR/YcxmDriGmZpxzNyimTgdc7eQQeKO/hFxmtP9dSMi56trNszrns
6NUGFCuRlx9XEGPR/IzS4a3XKaoK31R2BoMhsXFUh5beXkp0+tVPuZ8ucwyVtMXZ
wwIDAQABo4IBYzCCAV8wCQYDVR0TBAIwADAtBglghkgBhvhCAQ0EIBYeRWFzeS1S
U0EgR2VuZXJhdGVkIENlcnRpZmljYXRlMB0GA1UdDgQWBBREG1F6ktPvxbsZJ8Rk
q25xS3RC2zCB4QYDVR0jBIHZMIHWgBQSzWAE0qCAnnDtxpm4eyzGUv0ZoaGBsqSB
rzCBrDELMAkGA1UEBhMCVVMxCzAJBgNVBAgTAk9IMREwDwYDVQQHEwhDb2x1bWJ1
czESMBAGA1UEChMJVmlraW5nVlBOMR0wGwYDVQQLExRNeU9yZ2FuaXphdGlvbmFs
VW5pdDEVMBMGA1UEAxMMVmlraW5nVlBOIENBMRAwDgYDVQQpEwdFYXN5UlNBMSEw
HwYJKoZIhvcNAQkBFhJtZUBteWhvc3QubXlkb21haW6CCQDPNYXugL8qPjATBgNV
HSUEDDAKBggrBgEFBQcDAjALBgNVHQ8EBAMCB4AwDQYJKoZIhvcNAQEEBQADggIB
AFMVbLxr2kz5QtS6bBaQEaGgsiOzYxupUYCUVp2tovyuV3+8X494wAZLMFW+eqsg
6QTg5sP74SlbZO744Qn46qFAHQwmCuJEFbWVDv2ioy1lYxVpK7fX72wxrivXXId1
5c/ElPHoCDGKiGsxCpLsZK3jhPI5BZYrq18CU1hnVsJNeLBC7IEXmkhy6ITe8Kt6
pRozDQl8Vt6XhlxfBhvQr8DWV+QOZZ+TW1yze7sJJ1L7DdU3hTQIKTCmwbsMqYh1
lOY+DNsoyBKRTSJlcEDwXynVJgJx499LlKxA4FfMShp+IVOZgwzFEDkQcaa5FtS2
1hEzWgLwb56jO98mttyRJ38R3dtg5pCHB2MgZhtufiKseIRCXp8nkZjtQnW/nJCz
pHafmwdN9dtV9w+8Z4kGkDHd637gt6yF5i3xgKUQ8uJGFc9QSpXuNLn4Jdqzxk3v
YSwGL8PyR7HSice0aGRXnl9ZkSGdB+HE2L2aUswLVB8UMq0Z9ERyX5d8BhhAUjZG
yjZ1MQj17g8h5osjBWchYFFo2oY0NRLtafMCJuVJ+nWQ3n9GQZCKoa2q74e33Y8m
FL9cNjs4Nunmi7gunFrQ5tlXXBlyHCFRAV0++EXai7m3GRgaq7Ttz9ufE32+27zi
eM3mD8DMfReKAX1IZhcRqrvADaftiON6bsYZZDZYeJAp
-----END CERTIFICATE-----
