Certificate:
    Data:
        Version: 3 (0x2)
        Serial Number: 6316 (0x18ac)
    Signature Algorithm: md5WithRSAEncryption
        Issuer: C=US, ST=OH, L=Columbus, O=VikingVPN, OU=MyOrganizationalUnit, CN=VikingVPN CA/name=EasyRSA/emailAddress=me@myhost.mydomain
        Validity
            Not Before: Sep 20 05:29:56 2015 GMT
            Not After : Sep 17 05:29:56 2025 GMT
        Subject: CN=Client1056Certa4a543
        Subject Public Key Info:
            Public Key Algorithm: rsaEncryption
                Public-Key: (4096 bit)
                Modulus:
                    00:c1:9e:16:2f:72:d1:4d:35:c6:6a:b2:0f:a4:89:
                    8f:d9:f1:9e:15:19:8c:e9:34:60:10:7d:dc:47:68:
                    6f:41:3a:4d:4b:2e:74:c5:9b:1f:0d:c5:a0:94:db:
                    6b:31:16:0e:22:62:2e:a3:ed:fd:3b:ce:7b:24:08:
                    1f:65:a8:f8:68:3d:83:8b:56:4d:22:0d:bd:04:7e:
                    75:ef:70:b6:9f:03:27:f9:8c:23:21:e0:9e:8c:a2:
                    89:27:a5:8b:f1:32:c0:ea:ea:30:f4:39:ef:cf:cf:
                    26:a1:74:94:aa:77:6f:27:fe:76:be:df:cb:a2:ec:
                    ea:ac:5f:ae:9f:82:a2:7c:a7:01:04:69:9d:fb:2c:
                    47:e9:e6:ad:99:67:ea:85:f8:cd:35:1b:37:c8:e3:
                    ca:af:c5:94:1b:c4:28:e5:ca:f9:93:16:8b:fa:d0:
                    f3:0a:90:6d:d7:94:92:1f:0f:14:30:40:8f:3d:1e:
                    28:eb:8b:aa:31:64:9d:4f:88:10:b8:65:5d:a8:55:
                    69:45:eb:c0:f9:3f:3e:c5:5c:68:9e:0e:0f:3f:9f:
                    a2:56:3b:e5:fe:9f:e7:e7:9b:90:be:56:49:93:b7:
                    82:54:69:59:b0:ad:b8:85:32:3f:df:3f:38:7b:11:
                    cd:7d:94:52:9d:8d:6d:cc:e6:10:bd:86:8c:9b:5d:
                    a8:42:c7:09:ad:2a:f2:e9:57:c6:3c:84:dc:7f:19:
                    f1:aa:f3:3b:ec:cc:b9:8b:79:2f:f6:ef:6e:ec:33:
                    e8:96:47:37:a8:36:fa:d4:86:ac:4c:88:a2:36:a9:
                    9c:16:3f:b5:2c:2d:c3:61:b0:05:5e:fe:ed:02:2b:
                    a4:e2:cd:bc:bc:cf:c7:26:e3:5c:a4:26:3f:fe:17:
                    2b:4c:8a:0b:cb:79:89:4f:8a:8a:6d:4e:6f:d7:2b:
                    83:e7:99:1a:35:4c:3b:86:f4:9f:2a:93:84:21:de:
                    0c:32:84:0a:b2:44:0e:90:f2:6d:88:9f:4c:67:a9:
                    5c:77:b9:2b:92:f4:9f:8f:5c:7d:ca:8a:b1:20:d1:
                    31:38:d9:cd:40:aa:c8:aa:1f:05:fb:37:d6:bd:f3:
                    81:2f:fa:5f:33:fb:a1:84:5d:33:16:50:9e:ce:02:
                    10:b5:0b:61:7e:d9:b9:30:2c:c1:55:c8:7d:0d:4b:
                    25:7f:33:cf:c8:69:d9:ce:63:af:74:8c:4b:6d:dc:
                    2b:c6:6a:1b:13:8f:0a:06:e2:c1:92:55:0e:e9:5c:
                    cc:f5:cc:0f:2f:b5:63:69:fa:71:ec:b1:8f:7b:c7:
                    a6:ad:4b:0b:0d:89:96:1b:c7:61:62:a9:87:7b:85:
                    82:9e:77:82:b8:90:eb:73:8a:af:30:c5:35:21:11:
                    86:cf:23
                Exponent: 65537 (0x10001)
        X509v3 extensions:
            X509v3 Basic Constraints: 
                CA:FALSE
            Netscape Comment: 
                Easy-RSA Generated Certificate
            X509v3 Subject Key Identifier: 
                01:48:28:B5:E5:9B:94:6C:82:07:FE:F6:85:18:57:B9:5B:24:27:5B
            X509v3 Authority Key Identifier: 
                keyid:12:CD:60:04:D2:A0:80:9E:70:ED:C6:99:B8:7B:2C:C6:52:FD:19:A1
                DirName:/C=US/ST=OH/L=Columbus/O=VikingVPN/OU=MyOrganizationalUnit/CN=VikingVPN CA/name=EasyRSA/emailAddress=me@myhost.mydomain
                serial:CF:35:85:EE:80:BF:2A:3E

            X509v3 Extended Key Usage: 
                TLS Web Client Authentication
            X509v3 Key Usage: 
                Digital Signature
    Signature Algorithm: md5WithRSAEncryption
         25:bf:1f:71:d4:00:07:70:21:d1:83:10:4b:e2:28:8e:18:66:
         73:50:17:d1:2b:ae:f7:24:f4:70:5c:3f:08:35:3a:bf:31:10:
         77:d5:8a:a8:6c:03:f0:d0:81:d1:44:4d:01:46:08:f7:76:cb:
         f3:45:a4:ef:6e:6a:ec:48:e0:9d:12:c2:7a:34:e5:8c:62:cc:
         ed:b1:75:e8:01:2c:c8:b8:56:4d:69:59:fb:b2:6b:da:e3:d5:
         25:44:c0:6c:42:f0:5d:25:f6:9d:0c:8f:55:2c:00:d5:07:15:
         22:fd:d9:b1:60:d5:d2:ec:d0:c1:aa:9f:e8:b5:51:ab:08:a9:
         c7:42:bb:ba:16:46:6c:3b:ef:73:87:71:77:4d:1d:c9:81:c0:
         90:4b:8b:d2:7f:ef:e2:29:ad:e6:cc:53:5b:13:c1:ee:de:5d:
         b7:1e:0b:1f:b8:d0:9c:44:70:04:1b:c5:87:49:d8:38:d9:27:
         42:43:b2:fe:a1:06:71:fc:03:3b:1d:06:87:b3:b4:38:e4:90:
         b0:6d:14:54:51:40:f3:77:c4:97:2c:c7:d6:e2:de:79:4b:01:
         68:28:0d:52:0d:aa:ab:84:bf:ee:4e:ac:fd:b4:e8:f2:5b:b5:
         b5:4a:be:d2:61:4c:9b:fb:77:b2:d6:7b:4b:d7:b1:d8:6b:be:
         b6:7b:96:35:07:35:87:76:30:c0:66:d2:ac:1c:10:9c:1d:8e:
         d8:be:7c:38:64:fc:5a:c1:21:5c:92:08:ca:d8:09:ba:03:e9:
         a3:76:38:0e:25:3f:95:f5:64:83:be:25:9d:8c:5a:8e:8d:48:
         11:4c:61:21:0a:fc:a3:50:06:11:f8:08:af:33:f3:20:27:da:
         0e:10:7d:d8:c4:ec:a6:bb:2c:37:8e:12:94:58:fd:76:10:66:
         e5:56:b0:de:75:fa:e7:58:59:f9:24:b3:f3:67:8d:11:92:6f:
         f8:09:23:37:64:4a:34:39:43:8e:84:f6:6c:75:22:db:3e:8c:
         d9:25:01:d0:ea:b2:9a:e9:47:65:56:9b:30:a9:1f:ea:27:ac:
         34:6a:df:c2:71:7b:f6:6b:67:96:b7:ab:77:24:be:7a:4a:62:
         af:10:82:67:6c:6a:0b:e0:f0:23:38:8a:ee:a2:ee:3d:d6:81:
         0c:ee:ca:84:35:92:c3:bc:23:1c:6e:2f:2a:60:91:f8:a9:59:
         0a:87:0d:a7:20:dd:5c:a0:77:eb:78:4a:cd:8a:53:3f:49:af:
         13:33:ce:45:2b:7e:f2:51:7e:b9:07:c8:a9:8e:54:12:08:60:
         da:0a:ad:ee:6e:36:5a:c7:e1:9e:61:68:21:8c:95:4a:95:1e:
         65:b0:f4:4d:45:57:0b:7c
-----BEGIN CERTIFICATE-----
MIIGrTCCBJWgAwIBAgICGKwwDQYJKoZIhvcNAQEEBQAwgawxCzAJBgNVBAYTAlVT
MQswCQYDVQQIEwJPSDERMA8GA1UEBxMIQ29sdW1idXMxEjAQBgNVBAoTCVZpa2lu
Z1ZQTjEdMBsGA1UECxMUTXlPcmdhbml6YXRpb25hbFVuaXQxFTATBgNVBAMTDFZp
a2luZ1ZQTiBDQTEQMA4GA1UEKRMHRWFzeVJTQTEhMB8GCSqGSIb3DQEJARYSbWVA
bXlob3N0Lm15ZG9tYWluMB4XDTE1MDkyMDA1Mjk1NloXDTI1MDkxNzA1Mjk1Nlow
HzEdMBsGA1UEAxMUQ2xpZW50MTA1NkNlcnRhNGE1NDMwggIiMA0GCSqGSIb3DQEB
AQUAA4ICDwAwggIKAoICAQDBnhYvctFNNcZqsg+kiY/Z8Z4VGYzpNGAQfdxHaG9B
Ok1LLnTFmx8NxaCU22sxFg4iYi6j7f07znskCB9lqPhoPYOLVk0iDb0EfnXvcLaf
Ayf5jCMh4J6MooknpYvxMsDq6jD0Oe/PzyahdJSqd28n/na+38ui7OqsX66fgqJ8
pwEEaZ37LEfp5q2ZZ+qF+M01GzfI48qvxZQbxCjlyvmTFov60PMKkG3XlJIfDxQw
QI89Hijri6oxZJ1PiBC4ZV2oVWlF68D5Pz7FXGieDg8/n6JWO+X+n+fnm5C+VkmT
t4JUaVmwrbiFMj/fPzh7Ec19lFKdjW3M5hC9hoybXahCxwmtKvLpV8Y8hNx/GfGq
8zvszLmLeS/2727sM+iWRzeoNvrUhqxMiKI2qZwWP7UsLcNhsAVe/u0CK6Tizby8
z8cm41ykJj/+FytMigvLeYlPioptTm/XK4PnmRo1TDuG9J8qk4Qh3gwyhAqyRA6Q
8m2In0xnqVx3uSuS9J+PXH3KirEg0TE42c1AqsiqHwX7N9a984Ev+l8z+6GEXTMW
UJ7OAhC1C2F+2bkwLMFVyH0NSyV/M8/IadnOY690jEtt3CvGahsTjwoG4sGSVQ7p
XMz1zA8vtWNp+nHssY97x6atSwsNiZYbx2FiqYd7hYKed4K4kOtziq8wxTUhEYbP
IwIDAQABo4IBYzCCAV8wCQYDVR0TBAIwADAtBglghkgBhvhCAQ0EIBYeRWFzeS1S
U0EgR2VuZXJhdGVkIENlcnRpZmljYXRlMB0GA1UdDgQWBBQBSCi15ZuUbIIH/vaF
GFe5WyQnWzCB4QYDVR0jBIHZMIHWgBQSzWAE0qCAnnDtxpm4eyzGUv0ZoaGBsqSB
rzCBrDELMAkGA1UEBhMCVVMxCzAJBgNVBAgTAk9IMREwDwYDVQQHEwhDb2x1bWJ1
czESMBAGA1UEChMJVmlraW5nVlBOMR0wGwYDVQQLExRNeU9yZ2FuaXphdGlvbmFs
VW5pdDEVMBMGA1UEAxMMVmlraW5nVlBOIENBMRAwDgYDVQQpEwdFYXN5UlNBMSEw
HwYJKoZIhvcNAQkBFhJtZUBteWhvc3QubXlkb21haW6CCQDPNYXugL8qPjATBgNV
HSUEDDAKBggrBgEFBQcDAjALBgNVHQ8EBAMCB4AwDQYJKoZIhvcNAQEEBQADggIB
ACW/H3HUAAdwIdGDEEviKI4YZnNQF9Errvck9HBcPwg1Or8xEHfViqhsA/DQgdFE
TQFGCPd2y/NFpO9uauxI4J0Swno05YxizO2xdegBLMi4Vk1pWfuya9rj1SVEwGxC
8F0l9p0Mj1UsANUHFSL92bFg1dLs0MGqn+i1UasIqcdCu7oWRmw773OHcXdNHcmB
wJBLi9J/7+IprebMU1sTwe7eXbceCx+40JxEcAQbxYdJ2DjZJ0JDsv6hBnH8Azsd
BoeztDjkkLBtFFRRQPN3xJcsx9bi3nlLAWgoDVINqquEv+5OrP206PJbtbVKvtJh
TJv7d7LWe0vXsdhrvrZ7ljUHNYd2MMBm0qwcEJwdjti+fDhk/FrBIVySCMrYCboD
6aN2OA4lP5X1ZIO+JZ2MWo6NSBFMYSEK/KNQBhH4CK8z8yAn2g4QfdjE7Ka7LDeO
EpRY/XYQZuVWsN51+udYWfkks/NnjRGSb/gJIzdkSjQ5Q46E9mx1Its+jNklAdDq
sprpR2VWmzCpH+onrDRq38Jxe/ZrZ5a3q3ckvnpKYq8Qgmdsagvg8CM4iu6i7j3W
gQzuyoQ1ksO8IxxuLypgkfipWQqHDacg3Vygd+t4Ss2KUz9JrxMzzkUrfvJRfrkH
yKmOVBIIYNoKre5uNlrH4Z5haCGMlUqVHmWw9E1FVwt8
-----END CERTIFICATE-----
