Certificate:
    Data:
        Version: 3 (0x2)
        Serial Number: 6375 (0x18e7)
    Signature Algorithm: md5WithRSAEncryption
        Issuer: C=US, ST=OH, L=Columbus, O=VikingVPN, OU=MyOrganizationalUnit, CN=VikingVPN CA/name=EasyRSA/emailAddress=me@myhost.mydomain
        Validity
            Not Before: Oct  2 16:28:11 2015 GMT
            Not After : Sep 29 16:28:11 2025 GMT
        Subject: CN=Client1982Cert2b207f
        Subject Public Key Info:
            Public Key Algorithm: rsaEncryption
                Public-Key: (4096 bit)
                Modulus:
                    00:c2:2d:32:c3:28:72:dc:fb:59:90:18:b7:50:a2:
                    ce:b2:05:d5:d2:91:4e:be:ae:6f:17:ba:d0:00:80:
                    1b:5f:e2:86:93:57:b9:ca:d2:d6:77:2a:ca:b2:66:
                    e1:e1:96:cb:8e:cc:1e:e5:82:46:60:db:84:09:cd:
                    34:45:e5:1a:95:5b:53:0f:d6:93:7b:c0:a6:ad:57:
                    35:fb:9e:e6:04:52:30:8f:18:4e:37:83:ad:2a:ab:
                    43:eb:25:c1:6f:5f:77:22:e8:e3:5f:74:b5:e5:94:
                    02:b4:e0:74:bd:cd:75:51:8d:79:6e:2b:b6:02:1d:
                    a3:75:4c:21:87:16:2a:48:db:aa:5d:5d:9e:ef:8f:
                    9f:c4:f6:0b:b5:e4:e0:b8:c5:18:8e:f5:7f:64:2e:
                    eb:8e:3f:f1:58:bf:fb:df:70:5a:e7:22:af:fe:35:
                    20:6f:d0:66:7b:be:06:42:cf:09:41:fc:82:c8:f1:
                    4b:49:04:a6:bf:0f:8f:85:fa:4b:7d:7a:70:42:6e:
                    39:78:c3:ca:c1:10:5f:fd:56:7e:d9:7b:74:4b:09:
                    95:0b:b2:e4:ee:67:6f:82:fe:55:8f:e9:06:da:04:
                    88:0e:74:3b:68:d5:05:89:fc:24:b9:47:3d:d9:a0:
                    dd:79:35:3e:a8:a7:8c:27:e3:4d:7c:f1:cc:80:7f:
                    8d:4b:aa:29:fa:83:b3:a6:10:ef:23:ba:7f:ad:98:
                    6b:84:6e:f6:31:be:35:dc:2b:a0:75:c0:c5:7e:22:
                    63:90:c4:b6:29:8c:b1:ee:bb:16:c9:ca:a2:11:3b:
                    81:04:e9:e6:f1:a5:ff:48:c0:80:40:35:57:43:0e:
                    d7:62:8c:c5:54:e0:c1:69:32:b3:5a:e4:5e:84:0b:
                    dc:9d:8a:83:97:3d:1a:0a:a7:5a:04:39:42:ff:87:
                    16:a3:3e:ee:e6:f8:5c:ac:b9:99:f0:8a:ad:39:79:
                    e6:b6:7a:4c:37:32:65:61:e6:64:94:53:ab:fa:ea:
                    ed:fd:11:c0:be:a3:59:87:7a:4f:74:98:ad:a1:07:
                    5d:63:2a:94:e1:13:1b:34:15:42:dd:64:46:c0:67:
                    6f:55:8c:6c:70:18:56:76:e6:27:cc:9e:6a:db:6e:
                    f5:e2:62:67:eb:09:10:a5:df:50:9b:84:fe:3d:9d:
                    95:3e:9c:7e:64:32:94:f8:bd:27:9b:db:3f:88:2a:
                    cd:bb:ed:ab:88:94:b9:8b:d7:32:18:f3:56:ea:ed:
                    b8:8b:eb:a8:eb:3d:6f:47:21:77:df:0a:dc:4b:71:
                    bd:d0:bf:f0:94:52:5d:d7:9b:b6:98:03:77:36:4d:
                    3b:a6:e8:1a:6a:5f:9b:9d:fa:0c:24:64:4b:5f:a5:
                    76:50:ed
                Exponent: 65537 (0x10001)
        X509v3 extensions:
            X509v3 Basic Constraints: 
                CA:FALSE
            Netscape Comment: 
                Easy-RSA Generated Certificate
            X509v3 Subject Key Identifier: 
                3E:99:89:68:89:A8:A1:DD:6E:97:4A:58:F0:A1:27:00:7A:52:BF:49
            X509v3 Authority Key Identifier: 
                keyid:12:CD:60:04:D2:A0:80:9E:70:ED:C6:99:B8:7B:2C:C6:52:FD:19:A1
                DirName:/C=US/ST=OH/L=Columbus/O=VikingVPN/OU=MyOrganizationalUnit/CN=VikingVPN CA/name=EasyRSA/emailAddress=me@myhost.mydomain
                serial:CF:35:85:EE:80:BF:2A:3E

            X509v3 Extended Key Usage: 
                TLS Web Client Authentication
            X509v3 Key Usage: 
                Digital Signature
    Signature Algorithm: md5WithRSAEncryption
         81:ad:43:73:e5:35:e5:49:f4:dc:23:e0:ee:75:63:4f:36:ce:
         77:2f:f0:cc:a0:66:2b:21:19:ee:5a:91:65:ce:58:f1:01:dd:
         d2:3d:44:5b:d9:68:6d:a8:4f:d2:24:1d:02:da:9e:0a:af:9d:
         ba:2a:8e:bb:9d:09:01:4b:72:06:75:85:fb:93:89:68:98:cc:
         02:6b:4c:a0:53:4a:6d:88:59:64:06:d4:db:f1:4f:22:64:2c:
         d6:9c:f9:2e:73:b0:62:95:a0:95:26:b2:6c:c5:6b:5f:82:99:
         2e:0d:be:1b:e4:bb:a3:3d:e3:89:61:f2:98:fe:7e:17:52:9e:
         f1:27:c5:b0:6f:53:27:fe:7d:7f:5e:44:af:07:8a:f7:24:b6:
         a9:aa:b3:97:50:ed:ad:2e:28:c3:b6:aa:3a:74:a4:ee:c1:cb:
         36:43:bd:1d:a4:85:1d:f9:d9:8e:62:83:fb:8d:fa:3a:c2:6c:
         85:ed:3a:b2:93:2c:6b:ae:e9:02:8a:70:46:1f:44:6b:74:31:
         b6:13:19:2e:f9:a7:cf:e1:b7:6a:e2:b6:c2:7c:be:27:1e:67:
         a7:e6:54:88:cd:85:c7:a0:3e:c2:b2:32:cf:7d:3b:46:cf:c6:
         b5:7c:56:1f:c1:8f:b2:62:a1:26:43:4d:b1:91:a5:c9:1d:6d:
         72:27:5f:78:4a:6b:58:7e:47:cd:4c:b0:42:a6:6d:f7:4e:18:
         a0:53:36:3b:82:6f:40:b4:e4:87:2f:6f:7b:13:a1:9b:2a:b0:
         f7:2d:f5:81:24:d2:fc:d6:29:0d:d4:0c:b3:cf:3f:a7:fe:ea:
         d4:19:7a:8b:8a:5b:a6:d0:2a:1e:6c:66:f4:46:8a:dc:a9:da:
         47:bc:21:5e:7c:3b:53:ce:28:83:32:87:2c:48:e5:53:7e:20:
         fb:7c:81:5e:1c:44:b1:58:ac:77:4a:ff:66:d9:fa:f5:0a:fc:
         b2:fa:38:cc:9b:3e:66:af:4d:a0:fb:1b:d8:ad:2f:b3:63:0a:
         e5:81:3c:62:8d:e5:54:7a:00:e0:21:a4:73:6d:f8:a7:2c:e8:
         60:74:fa:cd:7d:9f:e9:72:76:f8:18:78:6d:f7:2d:df:7b:c6:
         9e:3a:28:19:fc:e3:50:2c:48:4a:32:55:17:91:cd:09:42:72:
         a4:1e:c1:28:eb:63:e7:5d:84:2c:90:4b:86:73:f8:49:e7:ac:
         ab:52:45:11:c9:03:3c:27:05:98:a7:15:31:b0:b9:ae:64:aa:
         e2:c1:a8:5f:8d:a2:1d:2e:4a:f8:1f:90:42:56:c8:6e:85:f4:
         2e:fb:3c:ba:ba:bd:53:92:03:54:49:0e:93:f6:84:c8:78:2a:
         33:54:40:aa:49:fc:d2:7d
-----BEGIN CERTIFICATE-----
MIIGrTCCBJWgAwIBAgICGOcwDQYJKoZIhvcNAQEEBQAwgawxCzAJBgNVBAYTAlVT
MQswCQYDVQQIEwJPSDERMA8GA1UEBxMIQ29sdW1idXMxEjAQBgNVBAoTCVZpa2lu
Z1ZQTjEdMBsGA1UECxMUTXlPcmdhbml6YXRpb25hbFVuaXQxFTATBgNVBAMTDFZp
a2luZ1ZQTiBDQTEQMA4GA1UEKRMHRWFzeVJTQTEhMB8GCSqGSIb3DQEJARYSbWVA
bXlob3N0Lm15ZG9tYWluMB4XDTE1MTAwMjE2MjgxMVoXDTI1MDkyOTE2MjgxMVow
HzEdMBsGA1UEAxMUQ2xpZW50MTk4MkNlcnQyYjIwN2YwggIiMA0GCSqGSIb3DQEB
AQUAA4ICDwAwggIKAoICAQDCLTLDKHLc+1mQGLdQos6yBdXSkU6+rm8XutAAgBtf
4oaTV7nK0tZ3KsqyZuHhlsuOzB7lgkZg24QJzTRF5RqVW1MP1pN7wKatVzX7nuYE
UjCPGE43g60qq0PrJcFvX3ci6ONfdLXllAK04HS9zXVRjXluK7YCHaN1TCGHFipI
26pdXZ7vj5/E9gu15OC4xRiO9X9kLuuOP/FYv/vfcFrnIq/+NSBv0GZ7vgZCzwlB
/ILI8UtJBKa/D4+F+kt9enBCbjl4w8rBEF/9Vn7Ze3RLCZULsuTuZ2+C/lWP6Qba
BIgOdDto1QWJ/CS5Rz3ZoN15NT6op4wn40188cyAf41Lqin6g7OmEO8jun+tmGuE
bvYxvjXcK6B1wMV+ImOQxLYpjLHuuxbJyqIRO4EE6ebxpf9IwIBANVdDDtdijMVU
4MFpMrNa5F6EC9ydioOXPRoKp1oEOUL/hxajPu7m+FysuZnwiq05eea2ekw3MmVh
5mSUU6v66u39EcC+o1mHek90mK2hB11jKpThExs0FULdZEbAZ29VjGxwGFZ25ifM
nmrbbvXiYmfrCRCl31CbhP49nZU+nH5kMpT4vSeb2z+IKs277auIlLmL1zIY81bq
7biL66jrPW9HIXffCtxLcb3Qv/CUUl3Xm7aYA3c2TTum6BpqX5ud+gwkZEtfpXZQ
7QIDAQABo4IBYzCCAV8wCQYDVR0TBAIwADAtBglghkgBhvhCAQ0EIBYeRWFzeS1S
U0EgR2VuZXJhdGVkIENlcnRpZmljYXRlMB0GA1UdDgQWBBQ+mYloiaih3W6XSljw
oScAelK/STCB4QYDVR0jBIHZMIHWgBQSzWAE0qCAnnDtxpm4eyzGUv0ZoaGBsqSB
rzCBrDELMAkGA1UEBhMCVVMxCzAJBgNVBAgTAk9IMREwDwYDVQQHEwhDb2x1bWJ1
czESMBAGA1UEChMJVmlraW5nVlBOMR0wGwYDVQQLExRNeU9yZ2FuaXphdGlvbmFs
VW5pdDEVMBMGA1UEAxMMVmlraW5nVlBOIENBMRAwDgYDVQQpEwdFYXN5UlNBMSEw
HwYJKoZIhvcNAQkBFhJtZUBteWhvc3QubXlkb21haW6CCQDPNYXugL8qPjATBgNV
HSUEDDAKBggrBgEFBQcDAjALBgNVHQ8EBAMCB4AwDQYJKoZIhvcNAQEEBQADggIB
AIGtQ3PlNeVJ9Nwj4O51Y082zncv8MygZishGe5akWXOWPEB3dI9RFvZaG2oT9Ik
HQLangqvnboqjrudCQFLcgZ1hfuTiWiYzAJrTKBTSm2IWWQG1NvxTyJkLNac+S5z
sGKVoJUmsmzFa1+CmS4Nvhvku6M944lh8pj+fhdSnvEnxbBvUyf+fX9eRK8Hivck
tqmqs5dQ7a0uKMO2qjp0pO7ByzZDvR2khR352Y5ig/uN+jrCbIXtOrKTLGuu6QKK
cEYfRGt0MbYTGS75p8/ht2ritsJ8viceZ6fmVIjNhcegPsKyMs99O0bPxrV8Vh/B
j7JioSZDTbGRpckdbXInX3hKa1h+R81MsEKmbfdOGKBTNjuCb0C05Icvb3sToZsq
sPct9YEk0vzWKQ3UDLPPP6f+6tQZeouKW6bQKh5sZvRGityp2ke8IV58O1POKIMy
hyxI5VN+IPt8gV4cRLFYrHdK/2bZ+vUK/LL6OMybPmavTaD7G9itL7NjCuWBPGKN
5VR6AOAhpHNt+Kcs6GB0+s19n+lydvgYeG33Ld97xp46KBn841AsSEoyVReRzQlC
cqQewSjrY+ddhCyQS4Zz+EnnrKtSRRHJAzwnBZinFTGwua5kquLBqF+Noh0uSvgf
kEJWyG6F9C77PLq6vVOSA1RJDpP2hMh4KjNUQKpJ/NJ9
-----END CERTIFICATE-----
