Certificate:
    Data:
        Version: 3 (0x2)
        Serial Number: 11712 (0x2dc0)
    Signature Algorithm: sha256WithRSAEncryption
        Issuer: C=US, ST=OH, L=Columbus, O=VikingVPN, OU=MyOrganizationalUnit, CN=VikingVPN CA/name=EasyRSA/emailAddress=me@myhost.mydomain
        Validity
            Not Before: Aug 28 13:17:55 2017 GMT
            Not After : Aug 26 13:17:55 2027 GMT
        Subject: CN=Client3043Certa4c848
        Subject Public Key Info:
            Public Key Algorithm: rsaEncryption
                Public-Key: (4096 bit)
                Modulus:
                    00:c4:b6:3a:2f:30:41:65:4a:1e:b9:9b:0b:2f:be:
                    c0:3e:38:ca:3f:d0:fa:cd:bb:47:79:7c:df:ef:c9:
                    ea:6d:b6:b6:d3:21:85:c5:b4:ff:33:73:41:a9:9b:
                    35:59:a4:36:73:1e:14:39:eb:e1:2d:1b:76:50:d1:
                    11:0f:8a:41:f0:28:82:48:bf:04:f2:e7:dd:9f:5c:
                    89:ba:ee:f5:b5:58:01:ed:85:a8:cc:45:c7:40:79:
                    73:37:c8:e1:c0:b2:a6:90:d1:b9:4c:ec:1c:c1:ec:
                    79:88:ff:8c:d5:aa:61:8a:2d:be:1a:dc:1f:9d:55:
                    a8:26:da:86:fd:84:9a:fc:e8:5c:e1:63:35:a2:cb:
                    2b:e6:0d:d8:b6:d7:50:59:8c:ba:04:ba:43:91:ea:
                    ea:84:38:93:da:e5:b4:1d:f3:8e:42:57:6d:31:fe:
                    61:4b:a5:e1:8e:b8:8e:04:84:5b:8f:35:1f:f2:0a:
                    d8:2c:50:12:e9:c3:6c:bb:c5:c1:7d:cf:a3:14:b4:
                    97:dc:b7:50:59:0a:b6:0d:74:8d:c7:a9:4f:a1:92:
                    be:38:05:c6:1a:00:f3:74:91:23:ea:cb:c0:ba:5e:
                    ed:6c:da:7e:fa:02:f8:f8:f2:da:bb:6f:dd:94:e8:
                    9c:e4:08:50:06:09:d0:ba:39:b7:2d:6e:63:72:21:
                    88:b3:0c:b5:40:dc:7a:22:e9:ed:cc:63:dd:ea:97:
                    2b:d3:3c:47:9b:b6:dd:26:e9:0a:1b:fa:5a:5f:4f:
                    b8:28:33:ce:07:4e:04:38:97:a0:5b:ef:30:95:25:
                    53:95:2d:2e:70:4d:93:eb:ea:cf:41:a3:8b:be:d3:
                    d5:87:46:15:c0:d8:05:57:15:7c:43:eb:ff:8a:ba:
                    96:61:4f:18:47:ce:3d:47:24:2c:38:ee:ba:70:af:
                    32:73:fe:91:1d:d0:88:38:44:7c:e0:96:83:02:cc:
                    31:28:79:44:23:87:c7:8b:fd:7a:b2:78:0a:61:89:
                    f0:1f:76:ea:ef:39:e6:be:92:aa:cf:70:02:23:b6:
                    af:6a:65:b8:7a:5f:a1:c0:82:b9:d6:c7:50:ce:38:
                    fe:43:8c:7f:9d:f2:1e:2c:e8:bf:50:54:48:3b:ff:
                    b4:dc:1c:73:19:67:b3:1a:60:3a:b7:fe:36:58:01:
                    57:98:00:92:00:50:56:85:8d:92:95:84:bf:20:3a:
                    89:1a:4f:77:f8:15:9c:e1:6a:1c:c0:1f:c2:3b:fc:
                    0b:3a:17:34:13:da:fd:32:63:24:87:1d:68:fe:0a:
                    1d:a6:12:d8:59:06:b9:a6:33:a3:9b:9d:b9:27:53:
                    69:3d:4a:37:58:dd:c7:c0:d7:84:53:11:cd:0a:dc:
                    1a:e0:1f
                Exponent: 65537 (0x10001)
        X509v3 extensions:
            X509v3 Basic Constraints: 
                CA:FALSE
            Netscape Comment: 
                Easy-RSA Generated Certificate
            X509v3 Subject Key Identifier: 
                E8:98:04:57:6C:23:36:5E:2F:88:15:5D:85:23:E0:E4:3A:40:E3:C0
            X509v3 Authority Key Identifier: 
                keyid:12:CD:60:04:D2:A0:80:9E:70:ED:C6:99:B8:7B:2C:C6:52:FD:19:A1
                DirName:/C=US/ST=OH/L=Columbus/O=VikingVPN/OU=MyOrganizationalUnit/CN=VikingVPN CA/name=EasyRSA/emailAddress=me@myhost.mydomain
                serial:CF:35:85:EE:80:BF:2A:3E

            X509v3 Extended Key Usage: 
                TLS Web Client Authentication
            X509v3 Key Usage: 
                Digital Signature
    Signature Algorithm: sha256WithRSAEncryption
         e9:61:a1:c1:df:42:8c:07:46:1a:60:21:e4:ca:5f:4d:2a:5c:
         b7:1d:96:6e:d8:5c:62:92:bc:6f:e4:96:3a:3f:4c:52:88:f5:
         e6:89:87:11:61:2c:ed:e1:a3:89:cd:8e:1e:d5:19:d9:45:1b:
         d6:6a:64:98:38:e7:1e:4d:57:e8:ea:13:ae:6b:9e:2a:4b:59:
         d2:11:7b:22:de:60:5b:68:40:48:8e:7c:32:80:57:8f:d0:d0:
         51:01:89:55:22:53:e0:d3:83:a0:3c:66:45:02:29:68:0b:2e:
         ae:91:db:0e:ac:8a:b1:0a:5a:54:c8:d2:bb:e4:4c:cc:c7:a8:
         ae:8b:f4:30:ca:a6:6e:2a:61:0a:22:f9:03:a8:12:71:7e:92:
         d7:fb:a8:bb:f2:49:09:b2:78:e3:2c:a2:4a:a8:65:82:bc:85:
         bf:35:00:49:df:8f:32:32:01:17:fa:97:14:25:a3:c8:f6:0a:
         12:62:e4:26:cc:b9:25:3f:29:a9:5a:ec:a0:a2:51:77:5c:1a:
         d1:64:6f:44:38:4e:0f:bd:ec:34:c6:f1:eb:34:23:46:7b:d9:
         dd:43:4c:3e:0e:4f:8f:0e:81:ba:5b:40:3c:79:f3:74:70:e0:
         da:c7:9e:51:c8:78:59:a8:49:7f:c8:97:a9:97:8c:e4:8e:dd:
         ed:48:23:ef:7e:31:e0:79:ff:92:fa:de:d9:07:5e:c1:e4:8a:
         10:9d:fd:36:cf:97:20:e4:2d:f1:10:99:a3:d1:fb:59:37:6e:
         6b:8e:e5:c4:49:9e:30:8b:fe:56:3f:28:59:e4:ff:b6:dd:d3:
         6a:4d:ec:59:e6:cc:e4:04:c2:a7:22:66:85:c4:43:7c:d4:2f:
         77:d4:44:25:01:86:e1:f2:3d:81:74:24:4c:0e:00:dd:45:49:
         03:1f:1f:e4:f5:0b:31:4d:a1:59:f7:2a:1b:65:ec:74:d4:14:
         16:8d:05:15:1d:1d:6a:4a:31:e2:73:57:c2:6d:ae:b2:c3:d6:
         c3:ad:88:d2:c3:5a:f5:89:68:ef:ed:61:23:0e:83:69:cc:ce:
         69:ef:81:c1:26:3d:ae:be:5b:32:a5:0d:40:34:99:00:88:32:
         c7:3f:d2:d5:13:b2:57:8c:05:e9:60:d0:0c:d6:d2:18:9d:d9:
         3c:72:b9:26:69:92:00:7f:10:36:fd:06:6e:e5:42:ed:75:16:
         6d:aa:c1:25:07:5e:fa:0d:27:20:69:e5:27:42:21:11:aa:74:
         6d:a1:1b:d1:32:72:6a:b5:b5:22:b8:3a:a7:e1:5f:ff:c4:80:
         d9:bb:6b:56:f8:bf:85:a6:b4:13:9b:26:06:2d:5c:9e:ef:82:
         17:aa:b6:70:78:80:57:6c
-----BEGIN CERTIFICATE-----
MIIGrTCCBJWgAwIBAgICLcAwDQYJKoZIhvcNAQELBQAwgawxCzAJBgNVBAYTAlVT
MQswCQYDVQQIEwJPSDERMA8GA1UEBxMIQ29sdW1idXMxEjAQBgNVBAoTCVZpa2lu
Z1ZQTjEdMBsGA1UECxMUTXlPcmdhbml6YXRpb25hbFVuaXQxFTATBgNVBAMTDFZp
a2luZ1ZQTiBDQTEQMA4GA1UEKRMHRWFzeVJTQTEhMB8GCSqGSIb3DQEJARYSbWVA
bXlob3N0Lm15ZG9tYWluMB4XDTE3MDgyODEzMTc1NVoXDTI3MDgyNjEzMTc1NVow
HzEdMBsGA1UEAxMUQ2xpZW50MzA0M0NlcnRhNGM4NDgwggIiMA0GCSqGSIb3DQEB
AQUAA4ICDwAwggIKAoICAQDEtjovMEFlSh65mwsvvsA+OMo/0PrNu0d5fN/vyept
trbTIYXFtP8zc0GpmzVZpDZzHhQ56+EtG3ZQ0REPikHwKIJIvwTy592fXIm67vW1
WAHthajMRcdAeXM3yOHAsqaQ0blM7BzB7HmI/4zVqmGKLb4a3B+dVagm2ob9hJr8
6FzhYzWiyyvmDdi211BZjLoEukOR6uqEOJPa5bQd845CV20x/mFLpeGOuI4EhFuP
NR/yCtgsUBLpw2y7xcF9z6MUtJfct1BZCrYNdI3HqU+hkr44BcYaAPN0kSPqy8C6
Xu1s2n76Avj48tq7b92U6JzkCFAGCdC6ObctbmNyIYizDLVA3Hoi6e3MY93qlyvT
PEebtt0m6Qob+lpfT7goM84HTgQ4l6Bb7zCVJVOVLS5wTZPr6s9Bo4u+09WHRhXA
2AVXFXxD6/+KupZhTxhHzj1HJCw47rpwrzJz/pEd0Ig4RHzgloMCzDEoeUQjh8eL
/XqyeAphifAfdurvOea+kqrPcAIjtq9qZbh6X6HAgrnWx1DOOP5DjH+d8h4s6L9Q
VEg7/7TcHHMZZ7MaYDq3/jZYAVeYAJIAUFaFjZKVhL8gOokaT3f4FZzhahzAH8I7
/As6FzQT2v0yYySHHWj+Ch2mEthZBrmmM6ObnbknU2k9SjdY3cfA14RTEc0K3Brg
HwIDAQABo4IBYzCCAV8wCQYDVR0TBAIwADAtBglghkgBhvhCAQ0EIBYeRWFzeS1S
U0EgR2VuZXJhdGVkIENlcnRpZmljYXRlMB0GA1UdDgQWBBTomARXbCM2Xi+IFV2F
I+DkOkDjwDCB4QYDVR0jBIHZMIHWgBQSzWAE0qCAnnDtxpm4eyzGUv0ZoaGBsqSB
rzCBrDELMAkGA1UEBhMCVVMxCzAJBgNVBAgTAk9IMREwDwYDVQQHEwhDb2x1bWJ1
czESMBAGA1UEChMJVmlraW5nVlBOMR0wGwYDVQQLExRNeU9yZ2FuaXphdGlvbmFs
VW5pdDEVMBMGA1UEAxMMVmlraW5nVlBOIENBMRAwDgYDVQQpEwdFYXN5UlNBMSEw
HwYJKoZIhvcNAQkBFhJtZUBteWhvc3QubXlkb21haW6CCQDPNYXugL8qPjATBgNV
HSUEDDAKBggrBgEFBQcDAjALBgNVHQ8EBAMCB4AwDQYJKoZIhvcNAQELBQADggIB
AOlhocHfQowHRhpgIeTKX00qXLcdlm7YXGKSvG/kljo/TFKI9eaJhxFhLO3ho4nN
jh7VGdlFG9ZqZJg45x5NV+jqE65rnipLWdIReyLeYFtoQEiOfDKAV4/Q0FEBiVUi
U+DTg6A8ZkUCKWgLLq6R2w6sirEKWlTI0rvkTMzHqK6L9DDKpm4qYQoi+QOoEnF+
ktf7qLvySQmyeOMsokqoZYK8hb81AEnfjzIyARf6lxQlo8j2ChJi5CbMuSU/Kala
7KCiUXdcGtFkb0Q4Tg+97DTG8es0I0Z72d1DTD4OT48OgbpbQDx583Rw4NrHnlHI
eFmoSX/Il6mXjOSO3e1II+9+MeB5/5L63tkHXsHkihCd/TbPlyDkLfEQmaPR+1k3
bmuO5cRJnjCL/lY/KFnk/7bd02pN7FnmzOQEwqciZoXEQ3zUL3fURCUBhuHyPYF0
JEwOAN1FSQMfH+T1CzFNoVn3Khtl7HTUFBaNBRUdHWpKMeJzV8JtrrLD1sOtiNLD
WvWJaO/tYSMOg2nMzmnvgcEmPa6+WzKlDUA0mQCIMsc/0tUTsleMBelg0AzW0hid
2TxyuSZpkgB/EDb9Bm7lQu11Fm2qwSUHXvoNJyBp5SdCIRGqdG2hG9Eycmq1tSK4
OqfhX//EgNm7a1b4v4WmtBObJgYtXJ7vgheqtnB4gFds
-----END CERTIFICATE-----
