Certificate:
    Data:
        Version: 3 (0x2)
        Serial Number: 12782 (0x31ee)
    Signature Algorithm: sha256WithRSAEncryption
        Issuer: C=US, ST=OH, L=Columbus, O=VikingVPN, OU=MyOrganizationalUnit, CN=VikingVPN CA/name=EasyRSA/emailAddress=me@myhost.mydomain
        Validity
            Not Before: Mar 22 23:20:43 2018 GMT
            Not After : Mar 19 23:20:43 2028 GMT
        Subject: CN=Client3236Certb8ec41
        Subject Public Key Info:
            Public Key Algorithm: rsaEncryption
                Public-Key: (4096 bit)
                Modulus:
                    00:df:75:91:d2:16:5c:e7:af:ba:5d:a8:28:14:49:
                    0e:c6:36:a1:55:37:a1:20:f7:b7:71:d9:ce:fc:31:
                    21:20:eb:6e:84:57:eb:75:3c:58:a0:57:fb:0d:93:
                    15:7e:f3:a1:6a:8e:8a:9f:04:60:1b:6d:e5:0b:92:
                    a6:66:04:a7:61:3a:ba:00:cb:33:04:a0:91:e8:2f:
                    ef:ec:5b:8c:f2:80:3e:fa:0e:c1:fa:29:6b:03:db:
                    c9:81:93:1f:07:c3:de:53:14:a5:f3:05:1a:46:ef:
                    4b:84:5f:db:7e:24:f1:f3:5c:77:d2:4b:6f:b2:bc:
                    a5:71:ff:ce:8a:42:e8:cb:e2:ee:d5:2d:40:5f:ea:
                    9a:f1:6e:6b:59:85:62:c2:b7:ed:58:f1:0e:85:33:
                    4e:9e:41:5e:14:33:ef:6f:38:ba:ce:18:a3:29:11:
                    2a:4d:3a:e9:02:a2:46:52:78:29:bd:e7:e3:2b:26:
                    6e:fc:f4:3d:af:6a:35:eb:5b:bc:8d:e9:ca:d8:ee:
                    22:06:e8:ca:44:88:d2:9f:46:b5:06:38:28:48:11:
                    ae:69:2f:e6:17:ae:51:09:4c:9a:ce:29:b4:23:41:
                    e3:01:ab:3a:03:d3:ac:20:80:93:c8:5d:00:bd:02:
                    c0:64:4c:32:13:5f:f1:fb:a8:35:d9:c1:89:d0:8e:
                    2e:bb:a4:b8:b4:a5:b4:8d:94:ad:94:9c:c5:3d:75:
                    22:b8:1f:2f:c1:6e:7d:51:47:36:a0:b4:d3:d9:a5:
                    47:4d:39:1b:86:b5:c5:68:0e:59:f6:e3:78:46:bf:
                    7f:0c:78:2e:62:9e:91:3a:49:4b:5b:74:46:35:42:
                    5c:d2:62:59:79:7d:35:15:7f:f8:b2:66:6f:2a:c1:
                    18:ce:a4:40:88:d3:0f:3b:52:96:77:50:b4:96:86:
                    3c:5f:bd:02:3f:53:04:a6:9c:2b:eb:d8:e2:38:61:
                    0d:65:66:fe:d5:be:6a:81:31:66:e2:3c:41:7d:9e:
                    d8:82:4e:4c:29:4b:a1:9c:94:79:14:55:63:60:18:
                    4b:79:d3:72:53:6f:b6:12:da:34:48:1c:45:ca:1a:
                    c0:97:52:f4:f0:e7:04:1f:80:3d:fc:63:d7:27:e6:
                    e8:cb:f2:db:2c:af:07:6a:51:30:74:9d:ba:1f:b8:
                    30:da:36:c5:1b:f5:49:9f:e7:66:ed:e7:dd:53:23:
                    2c:7a:c4:f4:ee:b2:e2:5f:2a:84:71:38:c6:11:34:
                    bd:1f:9b:68:fe:35:c4:3d:24:27:2a:58:47:02:f4:
                    ca:d8:66:f0:61:d4:c9:f7:58:4e:56:44:d5:4a:a5:
                    a8:a9:54:e3:d7:1b:f1:c2:28:c8:c0:dc:b7:c2:fb:
                    9a:b6:1b
                Exponent: 65537 (0x10001)
        X509v3 extensions:
            X509v3 Basic Constraints: 
                CA:FALSE
            Netscape Comment: 
                Easy-RSA Generated Certificate
            X509v3 Subject Key Identifier: 
                5B:62:25:25:5A:E9:44:DE:EA:CA:0E:91:AF:52:23:20:DA:E7:61:A0
            X509v3 Authority Key Identifier: 
                keyid:12:CD:60:04:D2:A0:80:9E:70:ED:C6:99:B8:7B:2C:C6:52:FD:19:A1
                DirName:/C=US/ST=OH/L=Columbus/O=VikingVPN/OU=MyOrganizationalUnit/CN=VikingVPN CA/name=EasyRSA/emailAddress=me@myhost.mydomain
                serial:CF:35:85:EE:80:BF:2A:3E

            X509v3 Extended Key Usage: 
                TLS Web Client Authentication
            X509v3 Key Usage: 
                Digital Signature
    Signature Algorithm: sha256WithRSAEncryption
         c3:c4:ac:8a:43:82:06:41:e1:76:ad:71:2e:58:16:2c:af:3e:
         4a:bb:3d:74:be:ea:80:90:18:b7:ef:95:15:77:2c:b7:ed:a4:
         30:49:be:80:e2:45:38:ba:e6:78:07:fb:c7:c3:35:5a:22:80:
         c2:55:7c:28:22:ff:d2:bb:78:11:60:75:47:09:53:e8:c5:91:
         0f:f9:a0:3c:44:b6:d6:07:2f:cb:93:6b:61:bc:e2:5f:aa:1e:
         27:e1:90:f0:eb:8d:80:ac:db:ab:2e:68:71:74:98:c6:24:80:
         14:35:6f:ab:83:58:a5:6a:ae:75:11:e9:37:d9:2a:fd:fc:e9:
         58:3e:53:e5:cf:ac:6c:3e:7c:95:d9:f9:55:b6:54:d2:aa:87:
         d7:cd:6d:7f:13:73:e5:ab:d3:2d:ca:a3:7e:dd:91:3d:f2:d8:
         5a:84:40:ff:9a:a0:81:7e:8e:e5:8d:73:8d:24:ac:71:60:47:
         27:08:fa:65:d4:ca:5a:f5:a7:18:81:15:08:dd:12:3c:02:39:
         d0:73:b4:78:1e:94:02:f0:6c:55:78:57:02:cd:e1:d8:49:74:
         f5:d8:2f:f6:95:d5:3c:e2:43:0e:28:bf:49:f2:43:cd:d1:a7:
         d0:39:14:f5:3e:4c:64:6b:13:ed:b6:92:a7:81:18:34:1a:8c:
         49:9a:eb:0b:c3:4a:8c:70:45:ca:09:9a:77:d0:54:0a:26:b7:
         ae:b5:e0:20:50:7b:01:dd:48:30:0e:27:f1:70:f4:3a:5c:03:
         84:6a:6e:43:54:60:bb:de:3d:93:80:bc:5b:6e:be:60:36:f7:
         7c:0b:8f:9f:d5:ac:0e:16:c4:ec:09:44:ec:67:01:ca:3b:d2:
         89:b7:5d:f1:ea:fb:8c:f4:14:44:ab:10:89:25:d3:f0:a3:fb:
         44:3e:b3:e1:7b:5f:7d:e1:48:2c:6c:a3:83:ae:19:8a:d2:28:
         42:81:bf:b1:9e:b1:eb:7e:0a:b2:ca:8c:2a:46:55:6d:15:dd:
         14:59:b0:22:30:dc:a0:44:45:5f:82:70:c3:4b:81:a3:e0:83:
         52:9a:ad:55:21:72:28:7e:56:31:ad:23:dc:41:b5:6b:ae:8b:
         0b:72:ef:41:5e:84:8e:04:e1:c2:a3:e5:e1:81:36:26:c2:2d:
         89:55:92:29:de:03:82:7d:0c:10:76:4e:94:a5:7c:46:ad:ac:
         01:6c:be:46:ec:51:9e:9f:52:c6:2a:7d:ce:1d:a5:aa:e1:f5:
         ea:ba:99:e2:f8:c8:c4:6d:45:13:8b:55:9e:49:0e:3e:2b:24:
         90:76:1f:63:23:b1:dd:be:f8:4a:4c:1a:5c:1a:39:09:cf:6d:
         89:c5:b7:ba:4d:8e:89:ff
-----BEGIN CERTIFICATE-----
MIIGrTCCBJWgAwIBAgICMe4wDQYJKoZIhvcNAQELBQAwgawxCzAJBgNVBAYTAlVT
MQswCQYDVQQIEwJPSDERMA8GA1UEBxMIQ29sdW1idXMxEjAQBgNVBAoTCVZpa2lu
Z1ZQTjEdMBsGA1UECxMUTXlPcmdhbml6YXRpb25hbFVuaXQxFTATBgNVBAMTDFZp
a2luZ1ZQTiBDQTEQMA4GA1UEKRMHRWFzeVJTQTEhMB8GCSqGSIb3DQEJARYSbWVA
bXlob3N0Lm15ZG9tYWluMB4XDTE4MDMyMjIzMjA0M1oXDTI4MDMxOTIzMjA0M1ow
HzEdMBsGA1UEAxMUQ2xpZW50MzIzNkNlcnRiOGVjNDEwggIiMA0GCSqGSIb3DQEB
AQUAA4ICDwAwggIKAoICAQDfdZHSFlznr7pdqCgUSQ7GNqFVN6Eg97dx2c78MSEg
626EV+t1PFigV/sNkxV+86FqjoqfBGAbbeULkqZmBKdhOroAyzMEoJHoL+/sW4zy
gD76DsH6KWsD28mBkx8Hw95TFKXzBRpG70uEX9t+JPHzXHfSS2+yvKVx/86KQujL
4u7VLUBf6prxbmtZhWLCt+1Y8Q6FM06eQV4UM+9vOLrOGKMpESpNOukCokZSeCm9
5+MrJm789D2vajXrW7yN6crY7iIG6MpEiNKfRrUGOChIEa5pL+YXrlEJTJrOKbQj
QeMBqzoD06wggJPIXQC9AsBkTDITX/H7qDXZwYnQji67pLi0pbSNlK2UnMU9dSK4
Hy/Bbn1RRzagtNPZpUdNORuGtcVoDln243hGv38MeC5inpE6SUtbdEY1QlzSYll5
fTUVf/iyZm8qwRjOpECI0w87UpZ3ULSWhjxfvQI/UwSmnCvr2OI4YQ1lZv7VvmqB
MWbiPEF9ntiCTkwpS6GclHkUVWNgGEt503JTb7YS2jRIHEXKGsCXUvTw5wQfgD38
Y9cn5ujL8tssrwdqUTB0nbofuDDaNsUb9Umf52bt591TIyx6xPTusuJfKoRxOMYR
NL0fm2j+NcQ9JCcqWEcC9MrYZvBh1Mn3WE5WRNVKpaipVOPXG/HCKMjA3LfC+5q2
GwIDAQABo4IBYzCCAV8wCQYDVR0TBAIwADAtBglghkgBhvhCAQ0EIBYeRWFzeS1S
U0EgR2VuZXJhdGVkIENlcnRpZmljYXRlMB0GA1UdDgQWBBRbYiUlWulE3urKDpGv
UiMg2udhoDCB4QYDVR0jBIHZMIHWgBQSzWAE0qCAnnDtxpm4eyzGUv0ZoaGBsqSB
rzCBrDELMAkGA1UEBhMCVVMxCzAJBgNVBAgTAk9IMREwDwYDVQQHEwhDb2x1bWJ1
czESMBAGA1UEChMJVmlraW5nVlBOMR0wGwYDVQQLExRNeU9yZ2FuaXphdGlvbmFs
VW5pdDEVMBMGA1UEAxMMVmlraW5nVlBOIENBMRAwDgYDVQQpEwdFYXN5UlNBMSEw
HwYJKoZIhvcNAQkBFhJtZUBteWhvc3QubXlkb21haW6CCQDPNYXugL8qPjATBgNV
HSUEDDAKBggrBgEFBQcDAjALBgNVHQ8EBAMCB4AwDQYJKoZIhvcNAQELBQADggIB
AMPErIpDggZB4XatcS5YFiyvPkq7PXS+6oCQGLfvlRV3LLftpDBJvoDiRTi65ngH
+8fDNVoigMJVfCgi/9K7eBFgdUcJU+jFkQ/5oDxEttYHL8uTa2G84l+qHifhkPDr
jYCs26suaHF0mMYkgBQ1b6uDWKVqrnUR6TfZKv386Vg+U+XPrGw+fJXZ+VW2VNKq
h9fNbX8Tc+Wr0y3Ko37dkT3y2FqEQP+aoIF+juWNc40krHFgRycI+mXUylr1pxiB
FQjdEjwCOdBztHgelALwbFV4VwLN4dhJdPXYL/aV1TziQw4ov0nyQ83Rp9A5FPU+
TGRrE+22kqeBGDQajEma6wvDSoxwRcoJmnfQVAomt6614CBQewHdSDAOJ/Fw9Dpc
A4RqbkNUYLvePZOAvFtuvmA293wLj5/VrA4WxOwJROxnAco70om3XfHq+4z0FESr
EIkl0/Cj+0Q+s+F7X33hSCxso4OuGYrSKEKBv7Geset+CrLKjCpGVW0V3RRZsCIw
3KBERV+CcMNLgaPgg1KarVUhcih+VjGtI9xBtWuuiwty70FehI4E4cKj5eGBNibC
LYlVkineA4J9DBB2TpSlfEatrAFsvkbsUZ6fUsYqfc4dparh9eq6meL4yMRtRROL
VZ5JDj4rJJB2H2Mjsd2++EpMGlwaOQnPbYnFt7pNjon/
-----END CERTIFICATE-----
