Certificate:
    Data:
        Version: 3 (0x2)
        Serial Number: 6925 (0x1b0d)
    Signature Algorithm: md5WithRSAEncryption
        Issuer: C=US, ST=OH, L=Columbus, O=VikingVPN, OU=MyOrganizationalUnit, CN=VikingVPN CA/name=EasyRSA/emailAddress=me@myhost.mydomain
        Validity
            Not Before: Dec 19 00:04:36 2015 GMT
            Not After : Dec 16 00:04:36 2025 GMT
        Subject: CN=Client2104Certa47a71
        Subject Public Key Info:
            Public Key Algorithm: rsaEncryption
                Public-Key: (4096 bit)
                Modulus:
                    00:af:1f:e2:2d:2a:ab:23:d7:a2:11:b8:33:89:95:
                    30:6a:4e:48:cf:90:80:9c:01:16:03:d9:9f:69:87:
                    ae:6e:e5:0e:f6:93:24:38:a3:ad:b5:28:98:c4:36:
                    18:57:36:7e:0e:2b:2a:54:50:7d:d0:10:74:84:3f:
                    54:d7:e6:7d:22:54:66:a3:db:b5:f0:18:06:3a:ec:
                    93:ae:45:da:73:ca:0e:48:c2:12:ed:3f:0e:e0:b2:
                    f8:51:09:8a:ec:da:99:c9:99:6c:c0:1d:7c:d7:c7:
                    ef:0d:68:48:d8:9d:27:8f:0a:72:4f:2f:52:bd:7a:
                    b8:0b:d6:a1:28:8e:81:6d:d7:b8:23:39:e7:3e:3f:
                    f5:72:5f:e5:0e:89:d3:9d:21:98:24:f2:67:f2:44:
                    42:9c:70:66:b0:cf:3c:e4:12:26:40:9f:30:42:a6:
                    a7:18:fb:3b:cb:8d:c7:87:d8:42:6f:1e:ae:c0:0c:
                    21:67:26:c7:d5:b5:5d:9f:85:3c:83:c6:b4:e5:12:
                    e9:fd:09:75:ae:92:1c:7a:38:17:b3:25:a5:bf:97:
                    33:29:5d:61:7c:b7:0e:e7:7a:2d:a1:76:b9:48:49:
                    d4:81:9e:97:ff:62:b2:81:e9:18:7a:95:b3:01:7b:
                    6b:6a:65:3f:74:cd:82:6a:7f:9a:23:d5:7f:76:ea:
                    8b:6e:ba:d5:39:08:41:33:fa:c5:5b:27:0c:1c:40:
                    6c:b1:e1:58:f0:32:a3:f7:e6:4a:8d:e5:a0:d2:8f:
                    8d:c2:12:da:46:13:56:4d:b3:47:ce:e6:69:38:54:
                    12:38:e4:c1:54:48:4b:89:a8:ce:93:8e:75:7a:e5:
                    9a:a3:6f:eb:84:4b:aa:f0:50:e5:9c:e4:27:f9:37:
                    94:56:87:e4:cf:c6:55:b6:f3:df:b0:3a:c6:aa:4f:
                    e1:e2:c5:45:b5:39:53:00:ab:0f:fb:84:f7:a0:44:
                    da:af:cd:a3:c9:a4:53:f8:a7:e5:a5:3e:37:de:19:
                    d6:cb:74:79:b1:51:3a:65:be:a3:99:f9:a9:b3:3f:
                    38:cd:48:17:61:31:22:66:66:fb:04:8b:69:49:1c:
                    44:7e:fb:ec:0c:9e:6e:43:84:86:4e:59:0a:22:da:
                    13:54:3a:13:5a:6e:00:a2:25:46:64:ce:af:b2:93:
                    82:d7:f3:8d:72:39:99:79:fa:fb:07:b5:cb:86:56:
                    37:9c:5b:64:11:d2:28:34:e3:9f:f4:5b:b6:e8:0b:
                    f0:51:86:50:de:47:af:90:03:b8:94:8f:b9:b7:bf:
                    69:a6:c7:67:0f:ce:a3:e7:2c:82:1d:c2:1f:f0:c8:
                    5d:5b:30:16:0c:e8:30:6b:ff:e1:d8:14:52:e1:d4:
                    c0:f5:1b
                Exponent: 65537 (0x10001)
        X509v3 extensions:
            X509v3 Basic Constraints: 
                CA:FALSE
            Netscape Comment: 
                Easy-RSA Generated Certificate
            X509v3 Subject Key Identifier: 
                DC:F3:1E:C0:9C:67:44:65:47:15:A3:30:CD:DC:4A:2F:9F:82:C6:0A
            X509v3 Authority Key Identifier: 
                keyid:12:CD:60:04:D2:A0:80:9E:70:ED:C6:99:B8:7B:2C:C6:52:FD:19:A1
                DirName:/C=US/ST=OH/L=Columbus/O=VikingVPN/OU=MyOrganizationalUnit/CN=VikingVPN CA/name=EasyRSA/emailAddress=me@myhost.mydomain
                serial:CF:35:85:EE:80:BF:2A:3E

            X509v3 Extended Key Usage: 
                TLS Web Client Authentication
            X509v3 Key Usage: 
                Digital Signature
    Signature Algorithm: md5WithRSAEncryption
         6b:a4:06:fb:96:3f:2d:13:3c:63:48:33:f3:e1:43:35:2a:18:
         0b:fc:f8:ce:02:d6:9c:6d:a6:cd:f3:61:2a:52:41:c4:70:6d:
         3b:b1:e4:43:46:f7:04:cb:4c:db:24:5d:46:1a:a1:17:a4:bc:
         cc:d4:cf:e4:ea:cb:9b:28:ca:e2:b5:28:e6:74:3e:56:70:9a:
         e4:4d:dc:fb:9e:4f:06:9d:2f:35:15:15:e7:f1:fd:a1:89:28:
         9c:92:15:2a:02:14:29:56:4f:56:03:a4:d2:0a:de:ab:67:e0:
         86:19:11:e5:4a:85:17:b0:38:3c:65:83:dd:e3:ff:19:93:74:
         5b:2a:26:ca:de:f1:f6:ac:cd:07:05:82:34:7b:58:ad:64:87:
         00:3e:c5:2d:70:f8:2b:a5:2a:f9:a0:ae:51:7d:33:23:f6:b8:
         f1:67:eb:2a:4b:3f:f0:34:53:93:4d:a8:35:b6:63:5e:98:8d:
         56:eb:e2:af:fb:94:62:17:a9:70:59:80:f2:86:33:df:90:bd:
         6b:87:4a:ac:85:06:ac:5a:d7:cc:6b:4e:7b:72:0a:cb:52:0d:
         72:1e:16:20:2f:98:0b:6f:86:ee:a3:75:f2:20:e0:0a:31:56:
         e7:99:6c:e5:c8:e1:73:a7:a7:77:f8:74:87:e0:18:2b:4b:b3:
         23:c0:5d:be:ed:e5:38:67:16:4f:10:49:08:ae:5f:ef:6d:d8:
         5c:9d:29:65:be:ec:02:66:5e:06:36:2b:74:1c:18:32:43:c0:
         bb:02:0d:a5:c0:0f:0b:b5:a5:a0:f4:3a:b5:5a:31:9e:2f:85:
         5e:0d:0d:87:b5:c0:96:8e:68:fb:da:72:60:ac:24:9c:10:58:
         e8:8d:ff:3c:ed:65:4e:a1:47:20:e2:b6:45:c7:fd:f6:fb:f1:
         2a:2f:79:20:46:2c:39:56:c9:6e:78:0d:9e:98:f1:2f:d2:16:
         cc:cd:64:f5:b3:3d:e7:cc:08:f8:9e:be:db:8d:a8:41:af:6f:
         2e:85:a2:74:6a:3c:37:ac:d9:2d:e6:c8:b7:d1:86:10:3c:e0:
         94:55:99:b2:87:fc:81:46:2b:0d:83:82:6b:e7:4a:cd:0e:30:
         57:b5:a2:f2:9b:1f:3c:3f:a0:2d:54:fa:53:ff:da:a8:28:af:
         39:11:e0:6f:fd:54:50:c6:44:24:68:76:3b:59:08:ad:61:72:
         07:2e:1f:50:54:a2:9d:2b:bd:9b:01:5b:e2:e4:04:3b:be:0f:
         24:4e:fe:cd:71:3b:24:48:f1:cd:c7:7d:74:6e:d7:bc:64:64:
         e6:6c:d7:da:5e:e3:b8:41:96:ed:02:1d:34:16:2d:7b:c2:99:
         86:ca:f8:08:5f:3f:ab:17
-----BEGIN CERTIFICATE-----
MIIGrTCCBJWgAwIBAgICGw0wDQYJKoZIhvcNAQEEBQAwgawxCzAJBgNVBAYTAlVT
MQswCQYDVQQIEwJPSDERMA8GA1UEBxMIQ29sdW1idXMxEjAQBgNVBAoTCVZpa2lu
Z1ZQTjEdMBsGA1UECxMUTXlPcmdhbml6YXRpb25hbFVuaXQxFTATBgNVBAMTDFZp
a2luZ1ZQTiBDQTEQMA4GA1UEKRMHRWFzeVJTQTEhMB8GCSqGSIb3DQEJARYSbWVA
bXlob3N0Lm15ZG9tYWluMB4XDTE1MTIxOTAwMDQzNloXDTI1MTIxNjAwMDQzNlow
HzEdMBsGA1UEAxMUQ2xpZW50MjEwNENlcnRhNDdhNzEwggIiMA0GCSqGSIb3DQEB
AQUAA4ICDwAwggIKAoICAQCvH+ItKqsj16IRuDOJlTBqTkjPkICcARYD2Z9ph65u
5Q72kyQ4o621KJjENhhXNn4OKypUUH3QEHSEP1TX5n0iVGaj27XwGAY67JOuRdpz
yg5IwhLtPw7gsvhRCYrs2pnJmWzAHXzXx+8NaEjYnSePCnJPL1K9ergL1qEojoFt
17gjOec+P/VyX+UOidOdIZgk8mfyREKccGawzzzkEiZAnzBCpqcY+zvLjceH2EJv
Hq7ADCFnJsfVtV2fhTyDxrTlEun9CXWukhx6OBezJaW/lzMpXWF8tw7nei2hdrlI
SdSBnpf/YrKB6Rh6lbMBe2tqZT90zYJqf5oj1X926otuutU5CEEz+sVbJwwcQGyx
4VjwMqP35kqN5aDSj43CEtpGE1ZNs0fO5mk4VBI45MFUSEuJqM6TjnV65Zqjb+uE
S6rwUOWc5Cf5N5RWh+TPxlW289+wOsaqT+HixUW1OVMAqw/7hPegRNqvzaPJpFP4
p+WlPjfeGdbLdHmxUTplvqOZ+amzPzjNSBdhMSJmZvsEi2lJHER+++wMnm5DhIZO
WQoi2hNUOhNabgCiJUZkzq+yk4LX841yOZl5+vsHtcuGVjecW2QR0ig045/0W7bo
C/BRhlDeR6+QA7iUj7m3v2mmx2cPzqPnLIIdwh/wyF1bMBYM6DBr/+HYFFLh1MD1
GwIDAQABo4IBYzCCAV8wCQYDVR0TBAIwADAtBglghkgBhvhCAQ0EIBYeRWFzeS1S
U0EgR2VuZXJhdGVkIENlcnRpZmljYXRlMB0GA1UdDgQWBBTc8x7AnGdEZUcVozDN
3Eovn4LGCjCB4QYDVR0jBIHZMIHWgBQSzWAE0qCAnnDtxpm4eyzGUv0ZoaGBsqSB
rzCBrDELMAkGA1UEBhMCVVMxCzAJBgNVBAgTAk9IMREwDwYDVQQHEwhDb2x1bWJ1
czESMBAGA1UEChMJVmlraW5nVlBOMR0wGwYDVQQLExRNeU9yZ2FuaXphdGlvbmFs
VW5pdDEVMBMGA1UEAxMMVmlraW5nVlBOIENBMRAwDgYDVQQpEwdFYXN5UlNBMSEw
HwYJKoZIhvcNAQkBFhJtZUBteWhvc3QubXlkb21haW6CCQDPNYXugL8qPjATBgNV
HSUEDDAKBggrBgEFBQcDAjALBgNVHQ8EBAMCB4AwDQYJKoZIhvcNAQEEBQADggIB
AGukBvuWPy0TPGNIM/PhQzUqGAv8+M4C1pxtps3zYSpSQcRwbTux5ENG9wTLTNsk
XUYaoRekvMzUz+Tqy5soyuK1KOZ0PlZwmuRN3PueTwadLzUVFefx/aGJKJySFSoC
FClWT1YDpNIK3qtn4IYZEeVKhRewODxlg93j/xmTdFsqJsre8faszQcFgjR7WK1k
hwA+xS1w+CulKvmgrlF9MyP2uPFn6ypLP/A0U5NNqDW2Y16YjVbr4q/7lGIXqXBZ
gPKGM9+QvWuHSqyFBqxa18xrTntyCstSDXIeFiAvmAtvhu6jdfIg4AoxVueZbOXI
4XOnp3f4dIfgGCtLsyPAXb7t5ThnFk8QSQiuX+9t2FydKWW+7AJmXgY2K3QcGDJD
wLsCDaXADwu1paD0OrVaMZ4vhV4NDYe1wJaOaPvacmCsJJwQWOiN/zztZU6hRyDi
tkXH/fb78SoveSBGLDlWyW54DZ6Y8S/SFszNZPWzPefMCPievtuNqEGvby6FonRq
PDes2S3myLfRhhA84JRVmbKH/IFGKw2DgmvnSs0OMFe1ovKbHzw/oC1U+lP/2qgo
rzkR4G/9VFDGRCRodjtZCK1hcgcuH1BUop0rvZsBW+LkBDu+DyRO/s1xOyRI8c3H
fXRu17xkZOZs19pe47hBlu0CHTQWLXvCmYbK+AhfP6sX
-----END CERTIFICATE-----
