Certificate:
    Data:
        Version: 3 (0x2)
        Serial Number: 7329 (0x1ca1)
    Signature Algorithm: md5WithRSAEncryption
        Issuer: C=US, ST=OH, L=Columbus, O=VikingVPN, OU=MyOrganizationalUnit, CN=VikingVPN CA/name=EasyRSA/emailAddress=me@myhost.mydomain
        Validity
            Not Before: Feb 27 19:57:13 2016 GMT
            Not After : Feb 24 19:57:13 2026 GMT
        Subject: CN=Client802Cert496c87
        Subject Public Key Info:
            Public Key Algorithm: rsaEncryption
                Public-Key: (4096 bit)
                Modulus:
                    00:b7:6a:0e:83:b9:32:e2:a0:ab:c2:5c:51:04:c6:
                    fb:fe:63:96:a8:f5:bb:3c:b4:da:8b:6b:bd:a1:2b:
                    1f:c5:09:56:d6:11:c5:c9:57:ac:7b:9c:47:1f:b4:
                    b5:8c:7f:18:29:1a:93:5e:b4:f8:34:80:86:5c:f4:
                    48:d8:c7:99:c8:f5:fe:e7:83:70:39:68:42:af:9f:
                    f6:dc:c7:eb:11:64:fd:a0:8d:f7:25:86:64:2f:f1:
                    08:55:81:c6:27:68:54:35:41:98:76:6c:6f:69:5b:
                    5b:d0:72:75:11:c7:eb:8b:d0:90:62:b3:2d:5d:82:
                    21:65:7f:53:65:77:c0:af:98:23:00:2d:49:d6:9c:
                    bc:45:89:87:0f:85:a9:2d:c6:ec:a6:d9:17:04:ed:
                    f6:30:88:c8:6d:24:64:b2:7a:cc:c6:cd:ec:9f:3c:
                    4e:df:0f:5f:81:a6:2c:79:68:43:55:f9:3b:80:14:
                    51:76:26:7b:00:5d:a9:12:81:15:ad:34:92:9a:46:
                    ed:b5:2b:fd:e8:25:d0:8f:1f:b0:f0:51:5c:91:c2:
                    75:e4:d5:83:92:e0:c1:c7:ba:aa:6f:99:96:6f:ec:
                    98:85:d5:f6:ae:2f:4c:09:fe:87:40:5c:c8:c5:50:
                    4a:f1:51:34:7f:4e:49:df:f7:29:6e:cf:58:4e:61:
                    fe:49:86:db:9e:9f:22:93:00:f2:cf:07:6a:dc:1d:
                    02:c9:b3:c2:19:51:b8:e2:c8:7d:58:2f:bf:53:18:
                    21:cd:83:bb:08:aa:99:05:ad:b3:26:47:0f:fe:20:
                    be:51:39:4a:67:7d:f5:04:aa:0a:b8:91:b5:8a:d4:
                    a0:33:89:b4:c2:4b:e1:eb:fd:4e:87:33:0e:b2:36:
                    b9:da:18:71:86:3e:ad:57:36:e9:ff:08:ae:26:c7:
                    c0:f4:9b:f7:8d:39:4b:6a:77:93:92:d3:af:77:5b:
                    94:b1:be:d5:07:82:ba:e4:f1:76:e7:e0:2b:d1:bc:
                    3c:c7:2a:00:3a:e2:47:bc:b0:fa:d7:24:83:ad:e9:
                    8c:85:9c:bd:69:f5:1d:7b:46:7a:e3:9e:f4:cf:90:
                    c1:88:f4:95:d9:d5:5b:66:db:bf:1a:65:b5:db:be:
                    87:6d:fd:f3:8f:aa:47:4e:91:07:ba:63:49:ca:d3:
                    4f:70:ca:f8:ed:13:f2:44:b9:a3:d1:fe:d7:14:64:
                    61:25:47:3b:d0:85:08:bc:00:f7:18:2d:70:9b:03:
                    de:a5:01:d2:3e:5b:4f:1e:ca:02:04:70:7b:46:a5:
                    40:16:72:81:bf:69:50:6c:7f:34:6c:2b:7b:9e:c5:
                    45:c2:b8:66:e8:fe:21:92:53:fe:6f:92:3d:50:ba:
                    0c:24:31
                Exponent: 65537 (0x10001)
        X509v3 extensions:
            X509v3 Basic Constraints: 
                CA:FALSE
            Netscape Comment: 
                Easy-RSA Generated Certificate
            X509v3 Subject Key Identifier: 
                D1:6F:1A:64:12:0C:10:77:CE:67:4E:87:A4:F6:C8:7E:35:5A:91:59
            X509v3 Authority Key Identifier: 
                keyid:12:CD:60:04:D2:A0:80:9E:70:ED:C6:99:B8:7B:2C:C6:52:FD:19:A1
                DirName:/C=US/ST=OH/L=Columbus/O=VikingVPN/OU=MyOrganizationalUnit/CN=VikingVPN CA/name=EasyRSA/emailAddress=me@myhost.mydomain
                serial:CF:35:85:EE:80:BF:2A:3E

            X509v3 Extended Key Usage: 
                TLS Web Client Authentication
            X509v3 Key Usage: 
                Digital Signature
    Signature Algorithm: md5WithRSAEncryption
         2c:b3:eb:71:e8:42:a9:4c:69:9c:5f:a8:18:45:ea:04:eb:82:
         bc:08:c2:4e:c7:7d:b0:e3:0e:d3:72:c0:99:58:42:f0:25:26:
         ff:9b:4c:25:e8:65:39:42:c5:46:cb:39:df:0c:70:61:90:be:
         62:71:4d:d4:b2:74:de:8e:f8:27:c3:dd:17:65:65:09:21:02:
         3b:82:0b:a6:93:04:fe:f5:2c:86:52:fc:91:9f:d1:b6:5b:9c:
         ca:4c:83:fc:3c:64:fc:b4:a9:f0:4f:8f:4a:be:33:d3:a4:fc:
         26:53:7a:a7:c9:93:1f:f9:a8:58:8c:cd:d4:95:ad:92:9b:2d:
         31:cd:0b:a3:01:a3:43:ce:c7:63:0e:c1:6f:0c:9d:ef:81:76:
         cc:13:88:53:0b:4b:76:db:38:0e:a8:60:df:ab:07:d9:e6:10:
         8c:dc:76:a4:32:7f:67:47:f9:01:29:24:3c:15:cd:0f:83:85:
         b3:da:06:87:cb:d5:46:3e:22:71:9a:c2:07:6f:62:92:00:a3:
         6b:79:02:2f:03:15:6b:23:ca:81:f9:1b:90:ff:74:52:81:e7:
         86:a8:9f:6c:24:fc:fc:34:9b:24:86:2d:75:90:63:d1:ea:f3:
         48:89:e1:12:19:86:04:e6:b7:5b:3e:26:f5:aa:81:3a:19:96:
         a2:d5:7b:c6:4c:d0:10:35:8a:3c:eb:06:c2:66:bd:66:a3:33:
         af:50:b9:bc:b7:e5:fd:1c:5f:02:d1:ed:fb:e4:7e:18:39:3e:
         4f:ef:a6:f9:ec:d5:7a:88:95:72:96:0b:a8:79:3d:b5:ab:16:
         4c:df:7f:78:d7:fc:b4:1d:4e:0a:42:b8:2a:94:41:8d:90:fa:
         4f:9c:5a:e1:77:3d:ac:ad:48:55:af:93:88:f9:9e:0e:8d:6a:
         f0:d2:a2:97:88:6e:97:da:da:c4:25:6e:13:58:70:84:18:9f:
         6d:22:e8:78:f1:62:41:5e:11:31:69:d6:10:fa:ca:15:94:d1:
         db:73:e1:2f:4c:cf:f8:0b:15:cc:da:96:a3:0a:4b:cf:11:55:
         3c:55:0f:0a:d6:c3:32:9c:38:b6:18:69:d6:92:1a:4c:fb:f5:
         ce:5e:f6:90:f8:48:38:30:48:14:d6:79:a3:c4:74:b4:66:48:
         be:4c:75:88:df:5e:21:fd:97:b0:9d:19:d7:1d:9e:c1:cb:2c:
         45:ec:98:da:3e:6c:1c:3a:19:f5:1a:c2:4b:66:ce:de:fb:85:
         db:08:37:7f:5d:c6:97:65:30:a2:dc:35:1f:54:9b:d7:9c:f5:
         ec:53:30:9a:53:6f:83:34:16:c4:50:56:70:fa:30:f0:b3:15:
         55:9d:e6:ab:46:e0:e9:a4
-----BEGIN CERTIFICATE-----
MIIGrDCCBJSgAwIBAgICHKEwDQYJKoZIhvcNAQEEBQAwgawxCzAJBgNVBAYTAlVT
MQswCQYDVQQIEwJPSDERMA8GA1UEBxMIQ29sdW1idXMxEjAQBgNVBAoTCVZpa2lu
Z1ZQTjEdMBsGA1UECxMUTXlPcmdhbml6YXRpb25hbFVuaXQxFTATBgNVBAMTDFZp
a2luZ1ZQTiBDQTEQMA4GA1UEKRMHRWFzeVJTQTEhMB8GCSqGSIb3DQEJARYSbWVA
bXlob3N0Lm15ZG9tYWluMB4XDTE2MDIyNzE5NTcxM1oXDTI2MDIyNDE5NTcxM1ow
HjEcMBoGA1UEAxMTQ2xpZW50ODAyQ2VydDQ5NmM4NzCCAiIwDQYJKoZIhvcNAQEB
BQADggIPADCCAgoCggIBALdqDoO5MuKgq8JcUQTG+/5jlqj1uzy02otrvaErH8UJ
VtYRxclXrHucRx+0tYx/GCkak160+DSAhlz0SNjHmcj1/ueDcDloQq+f9tzH6xFk
/aCN9yWGZC/xCFWBxidoVDVBmHZsb2lbW9BydRHH64vQkGKzLV2CIWV/U2V3wK+Y
IwAtSdacvEWJhw+FqS3G7KbZFwTt9jCIyG0kZLJ6zMbN7J88Tt8PX4GmLHloQ1X5
O4AUUXYmewBdqRKBFa00kppG7bUr/egl0I8fsPBRXJHCdeTVg5Lgwce6qm+Zlm/s
mIXV9q4vTAn+h0BcyMVQSvFRNH9OSd/3KW7PWE5h/kmG256fIpMA8s8HatwdAsmz
whlRuOLIfVgvv1MYIc2DuwiqmQWtsyZHD/4gvlE5Smd99QSqCriRtYrUoDOJtMJL
4ev9ToczDrI2udoYcYY+rVc26f8IribHwPSb9405S2p3k5LTr3dblLG+1QeCuuTx
dufgK9G8PMcqADriR7yw+tckg63pjIWcvWn1HXtGeuOe9M+QwYj0ldnVW2bbvxpl
tdu+h23984+qR06RB7pjScrTT3DK+O0T8kS5o9H+1xRkYSVHO9CFCLwA9xgtcJsD
3qUB0j5bTx7KAgRwe0alQBZygb9pUGx/NGwre57FRcK4Zuj+IZJT/m+SPVC6DCQx
AgMBAAGjggFjMIIBXzAJBgNVHRMEAjAAMC0GCWCGSAGG+EIBDQQgFh5FYXN5LVJT
QSBHZW5lcmF0ZWQgQ2VydGlmaWNhdGUwHQYDVR0OBBYEFNFvGmQSDBB3zmdOh6T2
yH41WpFZMIHhBgNVHSMEgdkwgdaAFBLNYATSoICecO3Gmbh7LMZS/RmhoYGypIGv
MIGsMQswCQYDVQQGEwJVUzELMAkGA1UECBMCT0gxETAPBgNVBAcTCENvbHVtYnVz
MRIwEAYDVQQKEwlWaWtpbmdWUE4xHTAbBgNVBAsTFE15T3JnYW5pemF0aW9uYWxV
bml0MRUwEwYDVQQDEwxWaWtpbmdWUE4gQ0ExEDAOBgNVBCkTB0Vhc3lSU0ExITAf
BgkqhkiG9w0BCQEWEm1lQG15aG9zdC5teWRvbWFpboIJAM81he6Avyo+MBMGA1Ud
JQQMMAoGCCsGAQUFBwMCMAsGA1UdDwQEAwIHgDANBgkqhkiG9w0BAQQFAAOCAgEA
LLPrcehCqUxpnF+oGEXqBOuCvAjCTsd9sOMO03LAmVhC8CUm/5tMJehlOULFRss5
3wxwYZC+YnFN1LJ03o74J8PdF2VlCSECO4ILppME/vUshlL8kZ/RtlucykyD/Dxk
/LSp8E+PSr4z06T8JlN6p8mTH/moWIzN1JWtkpstMc0LowGjQ87HYw7Bbwyd74F2
zBOIUwtLdts4Dqhg36sH2eYQjNx2pDJ/Z0f5ASkkPBXND4OFs9oGh8vVRj4icZrC
B29ikgCja3kCLwMVayPKgfkbkP90UoHnhqifbCT8/DSbJIYtdZBj0erzSInhEhmG
BOa3Wz4m9aqBOhmWotV7xkzQEDWKPOsGwma9ZqMzr1C5vLfl/RxfAtHt++R+GDk+
T++m+ezVeoiVcpYLqHk9tasWTN9/eNf8tB1OCkK4KpRBjZD6T5xa4Xc9rK1IVa+T
iPmeDo1q8NKil4hul9raxCVuE1hwhBifbSLoePFiQV4RMWnWEPrKFZTR23PhL0zP
+AsVzNqWowpLzxFVPFUPCtbDMpw4thhp1pIaTPv1zl72kPhIODBIFNZ5o8R0tGZI
vkx1iN9eIf2XsJ0Z1x2ewcssReyY2j5sHDoZ9RrCS2bO3vuF2wg3f13Gl2Uwotw1
H1Sb15z17FMwmlNvgzQWxFBWcPow8LMVVZ3mq0bg6aQ=
-----END CERTIFICATE-----
