Certificate:
    Data:
        Version: 3 (0x2)
        Serial Number: 12157 (0x2f7d)
    Signature Algorithm: sha256WithRSAEncryption
        Issuer: C=US, ST=OH, L=Columbus, O=VikingVPN, OU=MyOrganizationalUnit, CN=VikingVPN CA/name=EasyRSA/emailAddress=me@myhost.mydomain
        Validity
            Not Before: Nov 26 05:11:25 2017 GMT
            Not After : Nov 24 05:11:25 2027 GMT
        Subject: CN=Client3162Certb23d5b
        Subject Public Key Info:
            Public Key Algorithm: rsaEncryption
                Public-Key: (4096 bit)
                Modulus:
                    00:ca:dd:12:c0:62:28:51:85:f9:a2:56:93:b9:10:
                    b9:46:66:55:06:2f:7a:15:5e:2d:34:fb:aa:f5:a8:
                    e7:06:5e:52:f5:a1:3f:8c:49:94:b5:e4:c7:f1:c8:
                    84:21:5e:fb:e6:26:98:57:84:5b:12:a3:4b:4e:99:
                    2e:5c:82:cc:0c:11:fd:67:68:92:60:91:7b:7e:4e:
                    0f:83:dd:5b:70:8f:56:57:85:39:4e:ba:99:3e:7f:
                    bf:d3:b3:87:91:13:a8:29:ad:4d:3c:d7:41:69:b9:
                    7c:43:dd:c6:cb:c5:59:7e:82:bb:cc:c2:c2:b4:4a:
                    ed:fc:a4:00:c1:32:80:10:50:76:d0:0e:92:15:46:
                    66:16:eb:d9:1e:f7:37:06:30:80:43:e5:c5:25:56:
                    b7:49:1b:6b:50:14:a7:4f:1c:09:75:2c:74:b9:db:
                    ea:18:89:2a:ce:65:f9:e4:ed:aa:51:49:ed:4c:8f:
                    56:92:5b:8d:a1:31:ee:dd:19:c5:02:94:c0:e6:fc:
                    2c:e2:d9:e2:a2:6d:6c:c1:f1:91:32:9b:f8:47:d2:
                    a9:01:14:3a:1f:bb:30:84:52:6a:c8:35:f8:20:66:
                    d9:56:b4:21:7e:0b:d7:f6:c1:c2:f6:bc:6c:e9:b2:
                    cd:b6:3d:36:d5:f1:c8:af:40:0c:74:fd:50:37:7b:
                    5f:59:78:4b:af:db:e9:9e:ec:73:2b:10:4d:35:ae:
                    11:8b:c6:ff:d8:17:9b:87:eb:d7:40:61:55:ca:e7:
                    04:fa:a4:02:29:ea:a9:c3:63:74:ab:11:d0:69:91:
                    39:e4:5e:de:9d:90:36:18:2a:a0:1e:5a:47:52:44:
                    13:af:05:05:69:94:90:da:6a:d0:bc:1c:f6:bb:37:
                    4f:8f:16:6b:c8:97:d5:1b:1e:fd:32:de:f5:d9:f6:
                    c9:12:a0:2b:93:47:77:f4:95:1d:d8:6a:d7:1b:de:
                    4b:ef:cc:ba:6d:67:7e:e1:37:39:e2:d3:f5:4f:b7:
                    0f:f1:7f:88:f2:a5:c0:1c:33:7c:30:0b:23:ff:45:
                    e7:41:5c:ca:fe:34:56:80:a4:23:07:5f:10:ab:55:
                    ef:57:a3:5b:c2:50:ee:65:d9:65:cb:f0:f6:5a:2b:
                    d0:1f:92:68:32:5f:df:37:fb:6c:6c:05:1b:2e:b7:
                    4a:86:2a:ee:e9:84:f6:c7:5f:92:c2:98:7c:37:01:
                    88:a9:54:63:13:63:06:76:31:22:39:2b:af:95:f2:
                    98:bd:e7:9c:ed:ed:7b:4e:ef:7c:a8:bb:15:c2:2e:
                    bf:dc:fd:f7:b7:2a:27:05:f6:01:c2:68:27:19:a2:
                    f9:3f:64:b5:85:97:97:69:9d:34:7a:d5:5f:5f:b4:
                    91:a9:33
                Exponent: 65537 (0x10001)
        X509v3 extensions:
            X509v3 Basic Constraints: 
                CA:FALSE
            Netscape Comment: 
                Easy-RSA Generated Certificate
            X509v3 Subject Key Identifier: 
                10:6F:36:58:D1:EB:97:E0:AB:20:6B:68:61:A5:C4:2C:6D:FE:A1:A6
            X509v3 Authority Key Identifier: 
                keyid:12:CD:60:04:D2:A0:80:9E:70:ED:C6:99:B8:7B:2C:C6:52:FD:19:A1
                DirName:/C=US/ST=OH/L=Columbus/O=VikingVPN/OU=MyOrganizationalUnit/CN=VikingVPN CA/name=EasyRSA/emailAddress=me@myhost.mydomain
                serial:CF:35:85:EE:80:BF:2A:3E

            X509v3 Extended Key Usage: 
                TLS Web Client Authentication
            X509v3 Key Usage: 
                Digital Signature
    Signature Algorithm: sha256WithRSAEncryption
         51:11:99:c2:d2:a4:b3:5e:2d:9c:2e:9a:12:20:56:4b:58:a7:
         76:65:7d:59:d0:9e:70:2a:5b:a6:33:45:d1:22:3f:2b:80:23:
         58:c6:df:b5:b5:ed:79:62:d6:11:0f:fd:e1:78:a4:3b:47:f1:
         73:21:7a:bd:dc:72:47:f2:4d:a1:2c:c7:28:b9:55:0d:64:2b:
         70:f8:da:bf:db:16:73:9e:fb:7a:ae:13:ca:f2:94:98:b8:f2:
         ba:23:d6:60:fa:3b:99:5e:39:3d:c2:80:bd:b9:30:64:38:14:
         1b:b3:68:ac:98:5e:22:60:8e:05:c5:ed:33:5d:28:7c:ff:62:
         c9:84:d8:1a:bb:1d:1c:f0:4f:6f:e9:39:cd:5c:b8:ae:cd:b5:
         6b:d4:41:f5:e6:3f:77:ce:92:5c:6b:25:b6:76:f8:4b:5e:07:
         92:a5:83:f9:84:81:82:3d:f7:11:6c:58:ac:84:37:61:05:ea:
         10:d6:70:a8:f3:f3:e6:84:1a:95:bf:2a:13:49:18:d1:da:00:
         d3:f6:51:73:02:23:9e:3a:58:43:05:ff:fd:56:dc:96:d4:95:
         35:9a:48:89:ea:7f:0d:af:a0:72:c3:28:c4:ee:04:f3:60:a1:
         f8:01:90:62:70:bb:d6:90:19:aa:6d:79:a4:33:14:2e:26:18:
         e5:34:9c:3e:0d:93:0b:03:0f:f1:3e:b5:74:4c:3a:e9:76:49:
         31:09:d0:d8:d4:86:77:f3:a8:11:71:86:b7:fa:c5:fd:c6:48:
         43:32:27:40:fa:23:6f:ba:a6:4b:05:f8:c0:e2:7e:24:a4:b3:
         29:66:27:af:96:79:60:66:65:70:15:f6:11:17:b6:10:38:44:
         39:2a:ac:19:a6:ea:cd:4e:22:e6:79:0c:66:21:1b:e0:6c:e2:
         e7:53:f7:b8:67:38:a7:5b:e4:0e:31:07:f2:37:53:89:55:b4:
         fa:97:da:da:77:1c:77:e0:64:8a:11:2d:8e:8a:44:bb:82:e7:
         66:44:a8:86:02:26:df:6f:64:5d:50:9f:91:5c:ac:65:08:12:
         aa:6c:10:55:4a:69:77:a3:ba:c7:41:72:cb:40:34:46:7a:0d:
         7b:a4:55:45:36:7a:96:38:fb:95:58:4f:c9:f0:64:d3:86:a3:
         0e:e9:a5:c5:6f:0e:cf:80:23:46:4e:14:09:de:73:91:00:08:
         3e:4b:b8:ed:ae:2d:07:14:f7:1e:1a:0a:b9:f0:18:d1:01:dd:
         d5:11:95:a3:7e:32:47:ce:0e:3b:d5:e8:5d:87:13:ed:a0:57:
         92:68:50:76:c1:4d:46:cc:9d:20:0d:4c:d8:af:aa:bb:0c:47:
         84:ae:ee:ae:2d:49:e2:26
-----BEGIN CERTIFICATE-----
MIIGrTCCBJWgAwIBAgICL30wDQYJKoZIhvcNAQELBQAwgawxCzAJBgNVBAYTAlVT
MQswCQYDVQQIEwJPSDERMA8GA1UEBxMIQ29sdW1idXMxEjAQBgNVBAoTCVZpa2lu
Z1ZQTjEdMBsGA1UECxMUTXlPcmdhbml6YXRpb25hbFVuaXQxFTATBgNVBAMTDFZp
a2luZ1ZQTiBDQTEQMA4GA1UEKRMHRWFzeVJTQTEhMB8GCSqGSIb3DQEJARYSbWVA
bXlob3N0Lm15ZG9tYWluMB4XDTE3MTEyNjA1MTEyNVoXDTI3MTEyNDA1MTEyNVow
HzEdMBsGA1UEAxMUQ2xpZW50MzE2MkNlcnRiMjNkNWIwggIiMA0GCSqGSIb3DQEB
AQUAA4ICDwAwggIKAoICAQDK3RLAYihRhfmiVpO5ELlGZlUGL3oVXi00+6r1qOcG
XlL1oT+MSZS15MfxyIQhXvvmJphXhFsSo0tOmS5cgswMEf1naJJgkXt+Tg+D3Vtw
j1ZXhTlOupk+f7/Ts4eRE6gprU0810FpuXxD3cbLxVl+grvMwsK0Su38pADBMoAQ
UHbQDpIVRmYW69ke9zcGMIBD5cUlVrdJG2tQFKdPHAl1LHS52+oYiSrOZfnk7apR
Se1Mj1aSW42hMe7dGcUClMDm/Czi2eKibWzB8ZEym/hH0qkBFDofuzCEUmrINfgg
ZtlWtCF+C9f2wcL2vGzpss22PTbV8civQAx0/VA3e19ZeEuv2+me7HMrEE01rhGL
xv/YF5uH69dAYVXK5wT6pAIp6qnDY3SrEdBpkTnkXt6dkDYYKqAeWkdSRBOvBQVp
lJDaatC8HPa7N0+PFmvIl9UbHv0y3vXZ9skSoCuTR3f0lR3Yatcb3kvvzLptZ37h
Nzni0/VPtw/xf4jypcAcM3wwCyP/RedBXMr+NFaApCMHXxCrVe9Xo1vCUO5l2WXL
8PZaK9AfkmgyX983+2xsBRsut0qGKu7phPbHX5LCmHw3AYipVGMTYwZ2MSI5K6+V
8pi955zt7XtO73youxXCLr/c/fe3KicF9gHCaCcZovk/ZLWFl5dpnTR61V9ftJGp
MwIDAQABo4IBYzCCAV8wCQYDVR0TBAIwADAtBglghkgBhvhCAQ0EIBYeRWFzeS1S
U0EgR2VuZXJhdGVkIENlcnRpZmljYXRlMB0GA1UdDgQWBBQQbzZY0euX4Ksga2hh
pcQsbf6hpjCB4QYDVR0jBIHZMIHWgBQSzWAE0qCAnnDtxpm4eyzGUv0ZoaGBsqSB
rzCBrDELMAkGA1UEBhMCVVMxCzAJBgNVBAgTAk9IMREwDwYDVQQHEwhDb2x1bWJ1
czESMBAGA1UEChMJVmlraW5nVlBOMR0wGwYDVQQLExRNeU9yZ2FuaXphdGlvbmFs
VW5pdDEVMBMGA1UEAxMMVmlraW5nVlBOIENBMRAwDgYDVQQpEwdFYXN5UlNBMSEw
HwYJKoZIhvcNAQkBFhJtZUBteWhvc3QubXlkb21haW6CCQDPNYXugL8qPjATBgNV
HSUEDDAKBggrBgEFBQcDAjALBgNVHQ8EBAMCB4AwDQYJKoZIhvcNAQELBQADggIB
AFERmcLSpLNeLZwumhIgVktYp3ZlfVnQnnAqW6YzRdEiPyuAI1jG37W17Xli1hEP
/eF4pDtH8XMher3cckfyTaEsxyi5VQ1kK3D42r/bFnOe+3quE8rylJi48roj1mD6
O5leOT3CgL25MGQ4FBuzaKyYXiJgjgXF7TNdKHz/YsmE2Bq7HRzwT2/pOc1cuK7N
tWvUQfXmP3fOklxrJbZ2+EteB5Klg/mEgYI99xFsWKyEN2EF6hDWcKjz8+aEGpW/
KhNJGNHaANP2UXMCI546WEMF//1W3JbUlTWaSInqfw2voHLDKMTuBPNgofgBkGJw
u9aQGapteaQzFC4mGOU0nD4NkwsDD/E+tXRMOul2STEJ0NjUhnfzqBFxhrf6xf3G
SEMyJ0D6I2+6pksF+MDifiSksylmJ6+WeWBmZXAV9hEXthA4RDkqrBmm6s1OIuZ5
DGYhG+Bs4udT97hnOKdb5A4xB/I3U4lVtPqX2tp3HHfgZIoRLY6KRLuC52ZEqIYC
Jt9vZF1Qn5FcrGUIEqpsEFVKaXejusdBcstANEZ6DXukVUU2epY4+5VYT8nwZNOG
ow7ppcVvDs+AI0ZOFAnec5EACD5LuO2uLQcU9x4aCrnwGNEB3dURlaN+MkfODjvV
6F2HE+2gV5JoUHbBTUbMnSANTNivqrsMR4Su7q4tSeIm
-----END CERTIFICATE-----
