Certificate:
    Data:
        Version: 3 (0x2)
        Serial Number: 6120 (0x17e8)
    Signature Algorithm: md5WithRSAEncryption
        Issuer: C=US, ST=OH, L=Columbus, O=VikingVPN, OU=MyOrganizationalUnit, CN=VikingVPN CA/name=EasyRSA/emailAddress=me@myhost.mydomain
        Validity
            Not Before: Aug 23 06:01:23 2015 GMT
            Not After : Aug 20 06:01:23 2025 GMT
        Subject: CN=Client1173Certabd85a
        Subject Public Key Info:
            Public Key Algorithm: rsaEncryption
                Public-Key: (4096 bit)
                Modulus:
                    00:b2:e8:5f:3e:15:8e:5d:73:68:4a:f0:74:85:50:
                    2e:9c:b9:90:ba:61:bf:7e:23:9b:a9:05:9d:99:7d:
                    6b:5f:b6:0d:c8:5b:5a:9d:84:a9:97:81:ab:4a:12:
                    8e:a2:74:45:8b:91:05:cd:30:aa:39:10:a0:cd:98:
                    b7:bd:43:31:84:3e:01:c9:78:c6:ee:52:4c:4f:46:
                    5c:76:ea:37:3c:52:35:27:6e:2a:23:e9:96:92:2d:
                    18:98:da:26:66:4c:d8:29:34:f6:1e:d1:e2:37:d2:
                    19:1a:ce:5b:30:f4:a0:ca:fe:1c:22:f0:15:d8:9b:
                    f0:bf:28:bc:84:d1:1b:84:e8:75:3d:3c:a4:7b:a6:
                    8b:c9:50:24:59:32:8d:0e:eb:d7:0e:b3:1c:aa:28:
                    52:ba:7a:85:55:d0:ad:71:49:23:a4:68:2d:eb:bd:
                    81:85:d8:35:da:fa:43:ac:56:03:ee:a6:15:92:0c:
                    79:63:65:75:77:b2:4a:62:86:b2:84:61:10:bf:62:
                    01:d9:41:38:8f:55:fa:77:fc:bf:b9:1b:b8:67:31:
                    90:7b:c0:33:fe:a8:10:52:24:6e:ee:d5:37:bc:25:
                    d7:77:a1:80:2a:1d:21:f1:49:f6:a2:5a:9c:0f:18:
                    67:da:9c:f0:f0:07:84:35:10:28:23:95:f8:2e:be:
                    dc:9b:8a:af:39:6e:f4:79:bf:2d:e9:2e:80:71:cb:
                    a1:80:83:df:4c:a7:9c:df:72:5d:2f:ec:aa:20:13:
                    38:b2:5b:91:c7:91:f5:37:56:4a:7a:06:c7:53:57:
                    20:f2:5e:fe:25:9c:b7:77:90:de:e5:8f:30:43:92:
                    d8:a2:65:26:75:9a:45:6e:bc:83:b4:48:56:6a:61:
                    b3:8e:b6:74:16:42:2b:c6:20:dc:02:34:36:62:3b:
                    ab:8f:d3:20:22:bb:ee:41:38:f9:a0:37:91:fd:22:
                    58:cf:5d:b2:c0:e7:77:57:7c:fc:ed:0f:75:25:e1:
                    b5:0c:07:3a:30:34:55:95:81:7d:32:ab:35:88:90:
                    a9:86:77:9f:6e:f2:be:1c:83:81:84:a8:49:18:c9:
                    dd:46:c8:37:2d:25:b3:9d:1c:bd:24:9a:f4:a4:60:
                    35:a2:d9:84:93:79:57:b1:01:b5:23:d6:ba:ab:7b:
                    1a:60:52:06:3e:94:29:f3:ec:5b:fc:0c:3b:7d:a4:
                    09:a7:d8:15:a5:f0:0d:f8:92:e8:71:7a:ff:f1:90:
                    16:ec:54:a5:8b:af:e7:e4:ac:42:08:04:e4:7b:c4:
                    a4:f9:a3:be:09:5f:7c:ef:d4:cc:4c:d2:83:ba:40:
                    98:a0:e0:55:97:82:42:3d:20:b0:9a:45:7f:00:85:
                    af:8c:3b
                Exponent: 65537 (0x10001)
        X509v3 extensions:
            X509v3 Basic Constraints: 
                CA:FALSE
            Netscape Comment: 
                Easy-RSA Generated Certificate
            X509v3 Subject Key Identifier: 
                33:E0:17:87:D2:04:20:67:79:9F:E4:D3:A1:65:2B:D0:35:60:A0:B7
            X509v3 Authority Key Identifier: 
                keyid:12:CD:60:04:D2:A0:80:9E:70:ED:C6:99:B8:7B:2C:C6:52:FD:19:A1
                DirName:/C=US/ST=OH/L=Columbus/O=VikingVPN/OU=MyOrganizationalUnit/CN=VikingVPN CA/name=EasyRSA/emailAddress=me@myhost.mydomain
                serial:CF:35:85:EE:80:BF:2A:3E

            X509v3 Extended Key Usage: 
                TLS Web Client Authentication
            X509v3 Key Usage: 
                Digital Signature
    Signature Algorithm: md5WithRSAEncryption
         c4:05:9d:e1:f7:15:e4:61:9d:4c:5e:33:32:57:65:78:99:fb:
         49:dc:b6:fe:25:23:00:44:1f:d3:b2:8b:c0:65:21:94:ad:c2:
         fa:59:8b:72:0b:52:bd:69:61:90:e2:af:b6:77:3a:02:58:b9:
         0d:ad:a7:bf:05:35:2b:44:b5:9f:e7:e9:fc:a4:fc:ba:92:88:
         75:18:02:7e:0f:c0:99:3e:09:3e:92:19:4a:fa:9a:33:f3:66:
         aa:c1:cb:17:79:88:1b:cf:b5:c2:29:20:ff:24:fe:2b:7e:d8:
         31:d6:f9:28:75:a5:09:4d:7e:71:da:27:c6:16:c8:44:6a:0d:
         cd:aa:c8:66:89:0c:a7:9a:04:6d:d7:82:40:6d:79:68:d8:3b:
         be:dc:64:4b:6c:77:c1:97:3c:ec:43:b7:a3:f1:ef:68:44:f8:
         1d:d1:04:30:0b:80:4c:4e:db:61:07:05:bd:bd:ef:22:06:b7:
         79:d4:46:f4:b6:65:8b:1d:0f:8d:fe:23:35:60:6c:cd:a0:21:
         7e:74:18:70:19:d6:67:78:a4:0c:77:18:55:20:c8:3b:87:d4:
         84:7d:ce:4e:8f:65:85:83:e0:38:da:ca:0b:d5:06:0e:48:64:
         36:44:6f:8a:63:ad:f9:58:37:48:e4:08:1f:7d:67:d6:1a:59:
         fc:b8:f5:e6:a0:f4:8a:c3:2e:53:eb:db:55:2d:ac:54:bd:25:
         dc:7d:83:dd:95:61:cd:21:5e:11:80:ac:e4:8a:5e:65:7d:3f:
         21:72:98:ac:40:51:d4:ca:cb:2c:0e:b9:cc:6e:5f:47:63:44:
         15:f6:11:a7:fb:8f:5b:a9:bf:99:9b:c1:8e:7f:32:15:39:ed:
         3e:8d:c4:41:7d:40:76:56:40:60:f1:8b:0e:f9:48:09:2c:a5:
         21:9b:41:22:05:59:04:db:99:29:69:d0:bb:f2:45:bb:0e:7c:
         af:0f:d4:d8:dd:4f:8a:94:cd:3c:e0:50:36:08:2a:0e:1d:b9:
         0a:40:87:4c:f1:99:e1:5f:9a:fa:ea:04:0f:f8:bf:d2:f1:bd:
         38:18:2b:c8:c3:25:30:f6:f6:0f:ef:d8:a5:bc:4f:a7:92:6f:
         72:12:ee:ad:41:e0:ef:78:da:e3:5c:50:23:8d:89:57:0e:df:
         97:f0:6a:c0:fe:4c:99:cb:85:d5:ef:13:b0:f8:c7:86:5a:18:
         46:49:df:95:ab:2f:e2:08:03:6c:8c:43:f0:3f:a8:69:3f:d4:
         13:af:80:20:56:67:df:56:3b:1d:b6:5d:1c:21:0f:67:fe:a6:
         a3:40:38:74:c5:49:82:6e:76:72:30:92:2a:e6:8a:58:a9:fd:
         0c:da:e1:a6:0c:b0:9a:d7
-----BEGIN CERTIFICATE-----
MIIGrTCCBJWgAwIBAgICF+gwDQYJKoZIhvcNAQEEBQAwgawxCzAJBgNVBAYTAlVT
MQswCQYDVQQIEwJPSDERMA8GA1UEBxMIQ29sdW1idXMxEjAQBgNVBAoTCVZpa2lu
Z1ZQTjEdMBsGA1UECxMUTXlPcmdhbml6YXRpb25hbFVuaXQxFTATBgNVBAMTDFZp
a2luZ1ZQTiBDQTEQMA4GA1UEKRMHRWFzeVJTQTEhMB8GCSqGSIb3DQEJARYSbWVA
bXlob3N0Lm15ZG9tYWluMB4XDTE1MDgyMzA2MDEyM1oXDTI1MDgyMDA2MDEyM1ow
HzEdMBsGA1UEAxMUQ2xpZW50MTE3M0NlcnRhYmQ4NWEwggIiMA0GCSqGSIb3DQEB
AQUAA4ICDwAwggIKAoICAQCy6F8+FY5dc2hK8HSFUC6cuZC6Yb9+I5upBZ2ZfWtf
tg3IW1qdhKmXgatKEo6idEWLkQXNMKo5EKDNmLe9QzGEPgHJeMbuUkxPRlx26jc8
UjUnbioj6ZaSLRiY2iZmTNgpNPYe0eI30hkazlsw9KDK/hwi8BXYm/C/KLyE0RuE
6HU9PKR7povJUCRZMo0O69cOsxyqKFK6eoVV0K1xSSOkaC3rvYGF2DXa+kOsVgPu
phWSDHljZXV3skpihrKEYRC/YgHZQTiPVfp3/L+5G7hnMZB7wDP+qBBSJG7u1Te8
Jdd3oYAqHSHxSfaiWpwPGGfanPDwB4Q1ECgjlfguvtybiq85bvR5vy3pLoBxy6GA
g99Mp5zfcl0v7KogEziyW5HHkfU3Vkp6BsdTVyDyXv4lnLd3kN7ljzBDktiiZSZ1
mkVuvIO0SFZqYbOOtnQWQivGINwCNDZiO6uP0yAiu+5BOPmgN5H9IljPXbLA53dX
fPztD3Ul4bUMBzowNFWVgX0yqzWIkKmGd59u8r4cg4GEqEkYyd1GyDctJbOdHL0k
mvSkYDWi2YSTeVexAbUj1rqrexpgUgY+lCnz7Fv8DDt9pAmn2BWl8A34kuhxev/x
kBbsVKWLr+fkrEIIBOR7xKT5o74JX3zv1MxM0oO6QJig4FWXgkI9ILCaRX8Aha+M
OwIDAQABo4IBYzCCAV8wCQYDVR0TBAIwADAtBglghkgBhvhCAQ0EIBYeRWFzeS1S
U0EgR2VuZXJhdGVkIENlcnRpZmljYXRlMB0GA1UdDgQWBBQz4BeH0gQgZ3mf5NOh
ZSvQNWCgtzCB4QYDVR0jBIHZMIHWgBQSzWAE0qCAnnDtxpm4eyzGUv0ZoaGBsqSB
rzCBrDELMAkGA1UEBhMCVVMxCzAJBgNVBAgTAk9IMREwDwYDVQQHEwhDb2x1bWJ1
czESMBAGA1UEChMJVmlraW5nVlBOMR0wGwYDVQQLExRNeU9yZ2FuaXphdGlvbmFs
VW5pdDEVMBMGA1UEAxMMVmlraW5nVlBOIENBMRAwDgYDVQQpEwdFYXN5UlNBMSEw
HwYJKoZIhvcNAQkBFhJtZUBteWhvc3QubXlkb21haW6CCQDPNYXugL8qPjATBgNV
HSUEDDAKBggrBgEFBQcDAjALBgNVHQ8EBAMCB4AwDQYJKoZIhvcNAQEEBQADggIB
AMQFneH3FeRhnUxeMzJXZXiZ+0nctv4lIwBEH9Oyi8BlIZStwvpZi3ILUr1pYZDi
r7Z3OgJYuQ2tp78FNStEtZ/n6fyk/LqSiHUYAn4PwJk+CT6SGUr6mjPzZqrByxd5
iBvPtcIpIP8k/it+2DHW+Sh1pQlNfnHaJ8YWyERqDc2qyGaJDKeaBG3XgkBteWjY
O77cZEtsd8GXPOxDt6Px72hE+B3RBDALgExO22EHBb297yIGt3nURvS2ZYsdD43+
IzVgbM2gIX50GHAZ1md4pAx3GFUgyDuH1IR9zk6PZYWD4DjaygvVBg5IZDZEb4pj
rflYN0jkCB99Z9YaWfy49eag9IrDLlPr21UtrFS9Jdx9g92VYc0hXhGArOSKXmV9
PyFymKxAUdTKyywOucxuX0djRBX2Eaf7j1upv5mbwY5/MhU57T6NxEF9QHZWQGDx
iw75SAkspSGbQSIFWQTbmSlp0LvyRbsOfK8P1NjdT4qUzTzgUDYIKg4duQpAh0zx
meFfmvrqBA/4v9LxvTgYK8jDJTD29g/v2KW8T6eSb3IS7q1B4O942uNcUCONiVcO
35fwasD+TJnLhdXvE7D4x4ZaGEZJ35WrL+IIA2yMQ/A/qGk/1BOvgCBWZ99WOx22
XRwhD2f+pqNAOHTFSYJudnIwkirmilip/Qza4aYMsJrX
-----END CERTIFICATE-----
