Certificate:
    Data:
        Version: 3 (0x2)
        Serial Number: 3867 (0xf1b)
    Signature Algorithm: md5WithRSAEncryption
        Issuer: C=US, ST=OH, L=Columbus, O=VikingVPN, OU=MyOrganizationalUnit, CN=VikingVPN CA/name=EasyRSA/emailAddress=me@myhost.mydomain
        Validity
            Not Before: Dec 29 21:32:19 2014 GMT
            Not After : Dec 26 21:32:19 2024 GMT
        Subject: CN=Client801Certdae683
        Subject Public Key Info:
            Public Key Algorithm: rsaEncryption
                Public-Key: (4096 bit)
                Modulus:
                    00:dd:52:8f:25:93:31:23:fa:cd:93:7b:3b:12:47:
                    3a:68:2f:99:9d:44:44:29:3a:3b:63:e1:81:8e:32:
                    33:d1:91:a9:b8:d5:63:56:cf:3b:de:ac:b4:fc:32:
                    a0:66:90:be:11:67:c1:a1:76:5b:a0:38:a4:f1:eb:
                    78:7a:85:0f:e8:0b:91:b5:d1:f5:a6:c0:66:68:aa:
                    32:aa:4f:24:48:4a:65:9a:b5:b5:f3:4b:52:1a:2a:
                    fd:61:37:b8:97:84:0f:de:22:ea:85:b1:87:4b:04:
                    0b:58:5d:6a:d6:05:25:a9:04:5e:36:d7:6c:4b:8a:
                    95:39:97:ec:83:b3:1e:f2:d8:50:8e:8d:06:85:ac:
                    15:9e:77:5f:b1:0b:7e:7d:99:a1:b5:74:35:1f:5a:
                    0a:38:07:a3:5a:e9:63:e1:bc:bd:22:68:04:20:49:
                    c9:da:58:1e:b7:51:35:ef:b6:0b:80:80:86:5c:1a:
                    45:23:ae:64:6c:24:c1:e7:5a:b7:5f:6f:3b:1d:b1:
                    20:da:d7:a1:9f:2d:d4:ce:b3:19:af:d3:98:bc:de:
                    df:04:30:92:64:9d:74:79:39:53:91:76:e7:db:99:
                    97:3b:f1:02:51:5d:2f:72:3a:78:ea:bc:ad:c9:69:
                    a6:ad:e3:22:f9:42:60:cf:83:fa:0b:ae:1d:96:b0:
                    a6:7b:f8:54:9a:eb:f5:7b:fa:9b:a4:aa:aa:ea:4e:
                    e5:84:a9:eb:92:a7:f5:6f:db:10:c0:e3:af:5c:49:
                    3b:0c:c2:3f:4f:e6:af:42:75:a1:54:48:d2:60:4d:
                    94:46:72:6f:ee:41:8f:bf:ff:e6:0d:a5:74:a4:5b:
                    f0:42:95:6c:58:a7:15:0b:66:ae:bf:91:ae:b9:ce:
                    b3:3a:a4:b8:8d:52:87:33:80:c1:53:8f:2b:c7:67:
                    67:cd:89:ad:d6:8f:13:32:26:f6:de:17:06:b2:e9:
                    e0:4f:07:d5:47:03:d5:7c:16:46:57:a7:36:b3:de:
                    5f:e1:dd:ee:07:97:7a:45:fb:1c:cb:a3:61:d7:58:
                    db:6b:6f:d5:53:f7:b9:c9:a5:db:72:9b:fd:cf:34:
                    26:65:3f:d7:b1:a0:27:c2:9f:8a:f2:e9:90:7f:6c:
                    e1:cf:b2:c4:0c:bb:0a:73:65:c7:ef:3e:10:04:95:
                    87:ad:58:ed:8b:b8:bf:8a:b4:ef:95:01:6f:75:bb:
                    30:e7:c2:bf:8f:a1:e3:e6:e2:1a:36:fe:db:ed:16:
                    86:cb:55:cf:30:59:b1:ab:88:78:92:02:52:cd:7c:
                    aa:b5:01:c8:fe:65:c6:7f:88:8f:07:61:b0:39:17:
                    2a:a0:0b:be:d8:69:06:58:f1:93:e9:e3:b0:85:a3:
                    33:f6:a3
                Exponent: 65537 (0x10001)
        X509v3 extensions:
            X509v3 Basic Constraints: 
                CA:FALSE
            Netscape Comment: 
                Easy-RSA Generated Certificate
            X509v3 Subject Key Identifier: 
                FB:DC:7A:1F:12:A5:15:89:DF:2C:47:AF:05:C5:3F:8B:2F:7D:1C:E8
            X509v3 Authority Key Identifier: 
                keyid:12:CD:60:04:D2:A0:80:9E:70:ED:C6:99:B8:7B:2C:C6:52:FD:19:A1
                DirName:/C=US/ST=OH/L=Columbus/O=VikingVPN/OU=MyOrganizationalUnit/CN=VikingVPN CA/name=EasyRSA/emailAddress=me@myhost.mydomain
                serial:CF:35:85:EE:80:BF:2A:3E

            X509v3 Extended Key Usage: 
                TLS Web Client Authentication
            X509v3 Key Usage: 
                Digital Signature
    Signature Algorithm: md5WithRSAEncryption
         ea:6a:a5:e8:0b:1c:21:f3:95:ef:2f:ac:4c:b7:f3:72:b8:fe:
         2b:06:41:78:4d:51:24:14:d5:01:14:38:f8:e9:d3:d1:1b:ec:
         fd:4d:12:d9:b8:76:35:c5:01:1b:29:eb:bd:b7:d8:34:d4:c7:
         73:d9:31:e8:91:9e:f6:91:47:52:af:13:a7:be:e2:6a:a3:a6:
         1b:5f:dc:a3:64:4d:18:85:a3:92:99:3d:d5:42:9c:2d:7e:de:
         c5:1f:cd:c7:b6:f2:57:ad:02:5d:a2:15:c8:d0:4d:2b:1c:c1:
         bb:59:c7:fd:66:e1:ac:53:40:4f:75:5f:aa:d6:49:d3:a7:1b:
         ab:58:a6:fa:17:1b:6d:80:32:4e:02:17:ee:db:9b:8f:d5:04:
         d4:d2:f3:f5:c6:55:2d:d6:a4:f0:45:e3:4a:99:9d:06:63:8f:
         49:eb:d3:2d:fb:4c:02:ea:29:9a:a0:53:cd:0f:6a:d7:04:d9:
         4f:91:80:dd:64:b4:cc:8a:7f:34:c5:12:9c:a4:ad:d4:8b:a8:
         78:23:83:45:1a:fa:b3:52:98:17:c4:fa:b8:50:32:22:94:d1:
         9a:df:05:85:c0:5f:cd:80:df:b9:8a:ad:93:f6:32:8e:43:13:
         45:da:4d:8f:dd:67:5b:0d:91:15:0c:85:2b:5a:e0:8c:ea:19:
         ea:8a:ca:b1:8f:7e:e1:e5:c1:45:b2:f3:1b:88:51:6d:ad:a2:
         cf:4f:10:76:75:a0:e5:8d:89:b1:9f:d8:aa:70:22:7b:ba:8e:
         70:82:71:56:45:1a:f1:e1:b6:22:5c:f9:68:24:d7:6c:14:18:
         d8:fb:d9:fa:61:b7:1c:b8:d8:42:df:f5:b0:4d:19:fe:47:88:
         ab:1d:f7:be:a8:6d:63:cf:34:cc:02:62:eb:d0:91:4d:56:e9:
         58:6c:92:a0:72:e5:2e:4c:43:8f:cc:6e:0b:5d:33:a3:39:54:
         f4:96:d9:3a:6c:80:e4:3d:34:55:99:a6:bb:45:17:ec:47:19:
         0a:a7:cd:f5:90:f7:b6:59:1c:a2:82:1e:54:1d:78:f6:98:b9:
         92:57:e8:87:bd:a1:d0:f5:d6:5c:01:96:05:69:09:bb:ea:30:
         5f:64:05:64:68:93:4c:f4:69:a2:1c:78:64:7f:72:2a:fc:08:
         3e:93:c2:0b:93:ae:ba:0c:09:db:61:c0:bb:62:00:c8:7a:34:
         f2:8d:73:98:7a:c0:36:ce:f8:c3:55:42:14:eb:d7:f3:1b:ca:
         bc:d0:1e:3b:8f:54:5c:09:0e:68:80:a1:ed:ca:7b:af:e4:5c:
         b6:12:c7:4f:c5:70:0e:df:d2:90:92:be:04:ea:62:8d:26:71:
         3f:2b:15:8c:b7:50:1a:a4
-----BEGIN CERTIFICATE-----
MIIGrDCCBJSgAwIBAgICDxswDQYJKoZIhvcNAQEEBQAwgawxCzAJBgNVBAYTAlVT
MQswCQYDVQQIEwJPSDERMA8GA1UEBxMIQ29sdW1idXMxEjAQBgNVBAoTCVZpa2lu
Z1ZQTjEdMBsGA1UECxMUTXlPcmdhbml6YXRpb25hbFVuaXQxFTATBgNVBAMTDFZp
a2luZ1ZQTiBDQTEQMA4GA1UEKRMHRWFzeVJTQTEhMB8GCSqGSIb3DQEJARYSbWVA
bXlob3N0Lm15ZG9tYWluMB4XDTE0MTIyOTIxMzIxOVoXDTI0MTIyNjIxMzIxOVow
HjEcMBoGA1UEAxMTQ2xpZW50ODAxQ2VydGRhZTY4MzCCAiIwDQYJKoZIhvcNAQEB
BQADggIPADCCAgoCggIBAN1SjyWTMSP6zZN7OxJHOmgvmZ1ERCk6O2PhgY4yM9GR
qbjVY1bPO96stPwyoGaQvhFnwaF2W6A4pPHreHqFD+gLkbXR9abAZmiqMqpPJEhK
ZZq1tfNLUhoq/WE3uJeED94i6oWxh0sEC1hdatYFJakEXjbXbEuKlTmX7IOzHvLY
UI6NBoWsFZ53X7ELfn2ZobV0NR9aCjgHo1rpY+G8vSJoBCBJydpYHrdRNe+2C4CA
hlwaRSOuZGwkwedat19vOx2xINrXoZ8t1M6zGa/TmLze3wQwkmSddHk5U5F259uZ
lzvxAlFdL3I6eOq8rclppq3jIvlCYM+D+guuHZawpnv4VJrr9Xv6m6SqqupO5YSp
65Kn9W/bEMDjr1xJOwzCP0/mr0J1oVRI0mBNlEZyb+5Bj7//5g2ldKRb8EKVbFin
FQtmrr+RrrnOszqkuI1ShzOAwVOPK8dnZ82JrdaPEzIm9t4XBrLp4E8H1UcD1XwW
RlenNrPeX+Hd7geXekX7HMujYddY22tv1VP3ucml23Kb/c80JmU/17GgJ8KfivLp
kH9s4c+yxAy7CnNlx+8+EASVh61Y7Yu4v4q075UBb3W7MOfCv4+h4+biGjb+2+0W
hstVzzBZsauIeJICUs18qrUByP5lxn+IjwdhsDkXKqALvthpBljxk+njsIWjM/aj
AgMBAAGjggFjMIIBXzAJBgNVHRMEAjAAMC0GCWCGSAGG+EIBDQQgFh5FYXN5LVJT
QSBHZW5lcmF0ZWQgQ2VydGlmaWNhdGUwHQYDVR0OBBYEFPvceh8SpRWJ3yxHrwXF
P4svfRzoMIHhBgNVHSMEgdkwgdaAFBLNYATSoICecO3Gmbh7LMZS/RmhoYGypIGv
MIGsMQswCQYDVQQGEwJVUzELMAkGA1UECBMCT0gxETAPBgNVBAcTCENvbHVtYnVz
MRIwEAYDVQQKEwlWaWtpbmdWUE4xHTAbBgNVBAsTFE15T3JnYW5pemF0aW9uYWxV
bml0MRUwEwYDVQQDEwxWaWtpbmdWUE4gQ0ExEDAOBgNVBCkTB0Vhc3lSU0ExITAf
BgkqhkiG9w0BCQEWEm1lQG15aG9zdC5teWRvbWFpboIJAM81he6Avyo+MBMGA1Ud
JQQMMAoGCCsGAQUFBwMCMAsGA1UdDwQEAwIHgDANBgkqhkiG9w0BAQQFAAOCAgEA
6mql6AscIfOV7y+sTLfzcrj+KwZBeE1RJBTVARQ4+OnT0Rvs/U0S2bh2NcUBGynr
vbfYNNTHc9kx6JGe9pFHUq8Tp77iaqOmG1/co2RNGIWjkpk91UKcLX7exR/Nx7by
V60CXaIVyNBNKxzBu1nH/WbhrFNAT3VfqtZJ06cbq1im+hcbbYAyTgIX7tubj9UE
1NLz9cZVLdak8EXjSpmdBmOPSevTLftMAuopmqBTzQ9q1wTZT5GA3WS0zIp/NMUS
nKSt1IuoeCODRRr6s1KYF8T6uFAyIpTRmt8FhcBfzYDfuYqtk/YyjkMTRdpNj91n
Ww2RFQyFK1rgjOoZ6orKsY9+4eXBRbLzG4hRba2iz08QdnWg5Y2JsZ/YqnAie7qO
cIJxVkUa8eG2Ilz5aCTXbBQY2PvZ+mG3HLjYQt/1sE0Z/keIqx33vqhtY880zAJi
69CRTVbpWGySoHLlLkxDj8xuC10zozlU9JbZOmyA5D00VZmmu0UX7EcZCqfN9ZD3
tlkcooIeVB149pi5klfoh72h0PXWXAGWBWkJu+owX2QFZGiTTPRpohx4ZH9yKvwI
PpPCC5OuugwJ22HAu2IAyHo08o1zmHrANs74w1VCFOvX8xvKvNAeO49UXAkOaICh
7cp7r+RcthLHT8VwDt/SkJK+BOpijSZxPysVjLdQGqQ=
-----END CERTIFICATE-----
