Certificate:
    Data:
        Version: 3 (0x2)
        Serial Number: 4799 (0x12bf)
    Signature Algorithm: md5WithRSAEncryption
        Issuer: C=US, ST=OH, L=Columbus, O=VikingVPN, OU=MyOrganizationalUnit, CN=VikingVPN CA/name=EasyRSA/emailAddress=me@myhost.mydomain
        Validity
            Not Before: Mar 24 10:17:28 2015 GMT
            Not After : Mar 21 10:17:28 2025 GMT
        Subject: CN=Client1561Certf4c861
        Subject Public Key Info:
            Public Key Algorithm: rsaEncryption
                Public-Key: (4096 bit)
                Modulus:
                    00:c6:2e:e3:c4:e1:0f:3f:2d:c4:2c:4d:5b:1f:be:
                    0b:aa:57:24:2a:41:8f:b0:19:40:43:3d:71:a1:9f:
                    c5:a5:c3:53:70:3b:59:84:38:1e:cf:a1:19:88:c8:
                    a9:16:77:37:71:2c:8b:6d:c3:01:e6:11:81:22:a2:
                    49:3c:2a:74:dd:dc:5d:d2:59:d5:6d:b8:d7:4c:6d:
                    3e:a5:0c:3e:95:e2:7a:88:d4:12:80:be:19:8c:a9:
                    44:b4:d0:96:5a:8d:d2:dc:02:b8:b2:c2:a3:35:8f:
                    ea:c8:85:3c:db:71:96:99:0c:81:72:98:94:e6:90:
                    5b:1b:e5:2c:a9:57:6b:9c:a9:d5:a4:5a:65:4e:a8:
                    73:35:65:cf:ea:e9:18:60:bf:6c:24:f7:4c:02:33:
                    5e:4a:eb:13:5f:12:09:93:a2:d2:b8:56:54:b5:ec:
                    56:f3:be:db:f0:7c:07:ce:66:16:a8:53:47:a2:fa:
                    86:a8:7e:d7:55:af:b9:0c:88:cc:c5:e8:b9:39:98:
                    76:aa:01:36:de:cc:cf:35:71:0c:59:9b:e4:73:93:
                    20:80:e2:fe:30:7d:b2:d8:89:61:ad:dc:f2:02:20:
                    8e:b3:21:3c:bb:50:98:f0:23:d0:c5:be:05:de:e5:
                    fe:ed:bf:12:39:0c:43:1e:21:33:8a:87:13:f1:d8:
                    4c:fd:45:d0:f2:2c:a7:b5:dd:11:1b:a8:09:b0:2d:
                    c2:da:a6:71:de:64:c5:93:a3:9e:85:98:70:50:42:
                    1e:1a:54:52:72:64:99:07:ea:ae:f6:69:86:f1:ba:
                    6b:36:2b:3b:cb:de:07:1d:c7:ed:61:bc:f5:67:7d:
                    49:5c:bf:8a:11:85:b3:66:fa:b1:08:f0:cf:bf:39:
                    4a:fd:c7:c1:5a:7d:c3:7d:14:f2:05:db:d3:d8:93:
                    22:f8:de:27:ca:72:76:a9:cf:e5:c3:8d:18:06:c2:
                    fb:d9:fd:f4:f5:32:f9:07:a6:a0:95:59:6b:bb:e1:
                    77:74:ba:3a:24:5c:b6:fd:09:ad:ff:3b:9b:80:34:
                    13:89:7b:2f:12:09:45:55:aa:3a:7f:ba:26:55:a2:
                    32:1b:34:40:cf:d8:d6:80:d8:b9:de:6a:25:6e:8b:
                    be:0a:15:b7:8d:98:c5:40:62:8d:f2:a7:66:01:d0:
                    06:77:12:68:82:ae:99:96:c5:b7:6d:fb:0d:31:65:
                    83:02:c5:ff:a5:fd:30:db:9a:42:05:51:9b:b0:44:
                    82:7d:34:77:07:44:e3:98:54:70:83:bc:6a:80:06:
                    c3:9b:41:42:f8:27:64:9b:54:8c:85:a5:b4:53:9b:
                    a8:cb:1f:51:11:d8:67:cd:5e:e1:3d:32:5a:95:49:
                    30:33:0f
                Exponent: 65537 (0x10001)
        X509v3 extensions:
            X509v3 Basic Constraints: 
                CA:FALSE
            Netscape Comment: 
                Easy-RSA Generated Certificate
            X509v3 Subject Key Identifier: 
                7E:1C:1C:0F:E0:52:DE:95:B9:47:2A:5B:7A:F5:D3:8B:19:0B:7B:BE
            X509v3 Authority Key Identifier: 
                keyid:12:CD:60:04:D2:A0:80:9E:70:ED:C6:99:B8:7B:2C:C6:52:FD:19:A1
                DirName:/C=US/ST=OH/L=Columbus/O=VikingVPN/OU=MyOrganizationalUnit/CN=VikingVPN CA/name=EasyRSA/emailAddress=me@myhost.mydomain
                serial:CF:35:85:EE:80:BF:2A:3E

            X509v3 Extended Key Usage: 
                TLS Web Client Authentication
            X509v3 Key Usage: 
                Digital Signature
    Signature Algorithm: md5WithRSAEncryption
         6b:2e:9f:f4:a1:e7:22:64:f0:a6:a3:6f:7e:67:3b:03:fe:07:
         6e:30:98:8b:05:0f:27:69:40:b8:58:b3:64:8b:3d:a8:58:26:
         c7:51:13:28:18:51:0d:6c:d5:f9:d2:43:99:37:6f:d4:38:3e:
         87:d9:bb:0d:1a:64:59:bd:da:ab:a2:d4:95:6d:e2:b0:19:97:
         e8:14:0d:be:09:6d:22:eb:56:43:01:30:a6:89:df:ae:c2:23:
         49:ee:00:d8:f8:e0:96:f7:a3:7e:8f:7f:cd:ca:17:f0:b6:13:
         6e:df:79:74:d3:4e:8b:86:49:6b:fe:a3:56:25:9f:dd:29:6d:
         cd:88:41:8a:8e:bd:ab:bd:19:97:ee:3d:a3:6b:d8:49:55:f4:
         ee:f8:4a:b2:9d:a1:02:b5:0b:e8:bd:b4:ff:8f:a3:21:e5:7c:
         a3:eb:a0:94:60:72:db:93:d9:f3:8e:e7:f8:de:bd:ab:2a:c0:
         db:67:e3:d6:22:6e:48:3d:ea:93:95:17:7e:98:e8:b6:a0:ef:
         0f:0e:81:dc:99:df:d2:da:60:c1:93:2f:b2:d6:7d:2f:ef:f3:
         01:36:a6:e1:6c:c6:73:8c:c7:2a:f7:1d:c7:1c:9f:ce:76:4c:
         77:9c:32:94:15:d5:89:3f:66:76:24:61:4f:ae:98:2c:62:2b:
         73:3e:5e:11:ef:30:e7:bf:25:41:b5:37:98:24:ea:ff:e3:a0:
         01:09:50:8d:4f:e5:1f:b0:e8:92:c6:89:29:76:35:50:02:18:
         a0:86:d7:f7:63:3c:cd:e0:31:8c:ca:8d:42:19:9c:65:31:12:
         6e:47:cf:7b:10:cd:87:6d:3b:94:14:5a:b2:9a:29:52:b7:9e:
         c2:d9:d1:a6:e4:5a:1a:be:39:ff:74:9d:e8:3a:84:99:99:f0:
         61:75:91:d6:5d:64:30:00:4c:9a:55:16:07:49:51:cf:6c:01:
         bf:4b:4e:41:b5:5f:14:d9:fc:f5:8e:e5:09:5c:46:82:e4:b7:
         b3:29:60:56:7b:83:ae:fc:58:c2:d3:82:8b:6b:62:24:56:8b:
         3d:7a:e4:0a:0e:09:7e:14:0a:61:9e:82:51:76:7f:bb:9f:85:
         02:db:31:2e:dc:56:17:55:7e:88:3f:6c:11:93:28:f9:bd:c6:
         37:14:91:62:a3:e7:c0:2a:71:f7:27:4d:74:04:68:fd:47:e8:
         b7:6b:c6:36:cb:5d:7d:f4:00:bf:0b:9b:78:4d:cb:07:22:87:
         75:df:c1:bd:4b:0b:7c:13:ea:0a:04:a9:82:9a:8d:72:4f:4a:
         10:a1:b2:33:77:f6:02:3e:06:87:3a:10:17:88:a0:29:4a:ce:
         10:48:01:34:a4:9b:3d:e2
-----BEGIN CERTIFICATE-----
MIIGrTCCBJWgAwIBAgICEr8wDQYJKoZIhvcNAQEEBQAwgawxCzAJBgNVBAYTAlVT
MQswCQYDVQQIEwJPSDERMA8GA1UEBxMIQ29sdW1idXMxEjAQBgNVBAoTCVZpa2lu
Z1ZQTjEdMBsGA1UECxMUTXlPcmdhbml6YXRpb25hbFVuaXQxFTATBgNVBAMTDFZp
a2luZ1ZQTiBDQTEQMA4GA1UEKRMHRWFzeVJTQTEhMB8GCSqGSIb3DQEJARYSbWVA
bXlob3N0Lm15ZG9tYWluMB4XDTE1MDMyNDEwMTcyOFoXDTI1MDMyMTEwMTcyOFow
HzEdMBsGA1UEAxMUQ2xpZW50MTU2MUNlcnRmNGM4NjEwggIiMA0GCSqGSIb3DQEB
AQUAA4ICDwAwggIKAoICAQDGLuPE4Q8/LcQsTVsfvguqVyQqQY+wGUBDPXGhn8Wl
w1NwO1mEOB7PoRmIyKkWdzdxLIttwwHmEYEiokk8KnTd3F3SWdVtuNdMbT6lDD6V
4nqI1BKAvhmMqUS00JZajdLcAriywqM1j+rIhTzbcZaZDIFymJTmkFsb5SypV2uc
qdWkWmVOqHM1Zc/q6Rhgv2wk90wCM15K6xNfEgmTotK4VlS17FbzvtvwfAfOZhao
U0ei+oaoftdVr7kMiMzF6Lk5mHaqATbezM81cQxZm+RzkyCA4v4wfbLYiWGt3PIC
II6zITy7UJjwI9DFvgXe5f7tvxI5DEMeITOKhxPx2Ez9RdDyLKe13REbqAmwLcLa
pnHeZMWTo56FmHBQQh4aVFJyZJkH6q72aYbxums2KzvL3gcdx+1hvPVnfUlcv4oR
hbNm+rEI8M+/OUr9x8FafcN9FPIF29PYkyL43ifKcnapz+XDjRgGwvvZ/fT1MvkH
pqCVWWu74Xd0ujokXLb9Ca3/O5uANBOJey8SCUVVqjp/uiZVojIbNEDP2NaA2Lne
aiVui74KFbeNmMVAYo3yp2YB0AZ3EmiCrpmWxbdt+w0xZYMCxf+l/TDbmkIFUZuw
RIJ9NHcHROOYVHCDvGqABsObQUL4J2SbVIyFpbRTm6jLH1ER2GfNXuE9MlqVSTAz
DwIDAQABo4IBYzCCAV8wCQYDVR0TBAIwADAtBglghkgBhvhCAQ0EIBYeRWFzeS1S
U0EgR2VuZXJhdGVkIENlcnRpZmljYXRlMB0GA1UdDgQWBBR+HBwP4FLelblHKlt6
9dOLGQt7vjCB4QYDVR0jBIHZMIHWgBQSzWAE0qCAnnDtxpm4eyzGUv0ZoaGBsqSB
rzCBrDELMAkGA1UEBhMCVVMxCzAJBgNVBAgTAk9IMREwDwYDVQQHEwhDb2x1bWJ1
czESMBAGA1UEChMJVmlraW5nVlBOMR0wGwYDVQQLExRNeU9yZ2FuaXphdGlvbmFs
VW5pdDEVMBMGA1UEAxMMVmlraW5nVlBOIENBMRAwDgYDVQQpEwdFYXN5UlNBMSEw
HwYJKoZIhvcNAQkBFhJtZUBteWhvc3QubXlkb21haW6CCQDPNYXugL8qPjATBgNV
HSUEDDAKBggrBgEFBQcDAjALBgNVHQ8EBAMCB4AwDQYJKoZIhvcNAQEEBQADggIB
AGsun/Sh5yJk8Kajb35nOwP+B24wmIsFDydpQLhYs2SLPahYJsdREygYUQ1s1fnS
Q5k3b9Q4PofZuw0aZFm92qui1JVt4rAZl+gUDb4JbSLrVkMBMKaJ367CI0nuANj4
4Jb3o36Pf83KF/C2E27feXTTTouGSWv+o1Yln90pbc2IQYqOvau9GZfuPaNr2ElV
9O74SrKdoQK1C+i9tP+PoyHlfKProJRgctuT2fOO5/jevasqwNtn49Yibkg96pOV
F36Y6Lag7w8OgdyZ39LaYMGTL7LWfS/v8wE2puFsxnOMxyr3Hcccn852THecMpQV
1Yk/ZnYkYU+umCxiK3M+XhHvMOe/JUG1N5gk6v/joAEJUI1P5R+w6JLGiSl2NVAC
GKCG1/djPM3gMYzKjUIZnGUxEm5Hz3sQzYdtO5QUWrKaKVK3nsLZ0abkWhq+Of90
neg6hJmZ8GF1kdZdZDAATJpVFgdJUc9sAb9LTkG1XxTZ/PWO5QlcRoLkt7MpYFZ7
g678WMLTgotrYiRWiz165AoOCX4UCmGeglF2f7ufhQLbMS7cVhdVfog/bBGTKPm9
xjcUkWKj58AqcfcnTXQEaP1H6LdrxjbLXX30AL8Lm3hNywcih3Xfwb1LC3wT6goE
qYKajXJPShChsjN39gI+Boc6EBeIoClKzhBIATSkmz3i
-----END CERTIFICATE-----
