Certificate:
    Data:
        Version: 3 (0x2)
        Serial Number: 514 (0x202)
    Signature Algorithm: md5WithRSAEncryption
        Issuer: C=US, ST=OH, L=Columbus, O=VikingVPN, OU=MyOrganizationalUnit, CN=VikingVPN CA/name=EasyRSA/emailAddress=me@myhost.mydomain
        Validity
            Not Before: Dec  4 01:48:44 2013 GMT
            Not After : Dec  2 01:48:44 2023 GMT
        Subject: CN=Client217Certebd8f7
        Subject Public Key Info:
            Public Key Algorithm: rsaEncryption
                Public-Key: (4096 bit)
                Modulus:
                    00:f7:55:ba:f6:b8:56:dd:9e:81:18:cd:7c:16:b3:
                    bf:23:82:20:0b:52:7a:2e:eb:90:81:b0:14:f5:d1:
                    88:c9:31:72:36:f4:4a:a8:79:6f:0f:88:9d:01:f9:
                    10:19:d6:f5:33:23:5d:62:c0:90:bf:05:49:30:59:
                    22:46:bf:15:5e:3b:fc:89:0b:32:f7:2e:ef:6f:fd:
                    25:0a:d5:eb:b2:63:45:fc:ad:5a:1d:c1:82:c8:90:
                    c4:f0:11:fa:14:35:87:3b:2e:21:98:ac:93:51:62:
                    36:3d:94:50:5c:f4:17:9a:77:a4:38:a2:e3:62:62:
                    8e:a7:b3:79:1b:0a:d6:71:5d:bc:ae:61:b0:f0:d3:
                    0e:85:b3:f8:54:a0:08:ac:de:5b:74:2a:62:c4:51:
                    a4:06:da:f6:ce:9f:c3:06:53:64:9c:f8:86:66:6f:
                    83:f0:12:31:22:71:f3:d3:3c:e1:eb:7c:65:e3:d3:
                    84:46:a6:df:cc:48:a2:9b:b6:a4:cd:05:8e:f9:41:
                    1b:ba:6a:89:47:a0:32:b8:a9:df:e2:c0:c1:36:31:
                    3e:ac:40:e0:51:3f:9a:dd:6d:b2:11:04:ed:e7:8e:
                    b8:25:76:d0:82:c5:76:cf:85:a6:08:71:52:b4:1b:
                    18:09:e7:cf:3a:e8:40:ef:25:17:4d:07:57:78:22:
                    67:cc:d0:b6:62:79:dd:76:4b:0f:3e:6d:49:e5:70:
                    5d:5d:d3:c3:d3:25:5d:54:7c:d3:6f:61:bb:82:97:
                    68:21:e3:ff:54:08:e8:6d:64:d1:5f:e0:a0:89:73:
                    17:16:e5:4a:ed:b9:a2:ee:57:fc:39:c4:4f:42:56:
                    aa:5a:87:a4:f3:f9:c0:f0:9c:ba:14:2c:24:26:9f:
                    f2:67:77:fa:3c:2e:4e:96:9e:e2:65:a6:d4:e7:20:
                    78:89:a1:29:34:56:c1:b0:99:b3:86:8d:ed:40:13:
                    fb:4d:fc:bd:cb:a1:9a:7d:a2:0b:64:21:9f:4e:15:
                    aa:a1:77:39:4d:ed:79:9a:0c:32:b4:85:9c:99:36:
                    44:94:30:8f:0a:5b:38:91:c5:9a:0a:fd:b0:01:3b:
                    4e:48:38:23:af:e9:0e:02:48:71:45:63:a7:33:7d:
                    14:9d:58:7d:09:66:6b:75:7b:54:e6:17:24:dc:48:
                    fa:d9:0c:e1:80:d6:9b:8b:e1:dd:fc:71:d6:77:f6:
                    a8:86:7d:eb:7c:5f:b9:34:bc:d8:5d:bd:49:50:1b:
                    2e:6c:2b:22:9e:bd:c5:ae:92:21:69:cc:be:da:c7:
                    c9:43:a3:79:29:92:ac:aa:ec:2c:cd:6f:8d:1e:b3:
                    a1:a5:c2:48:ae:8a:50:36:7b:db:0f:00:40:62:61:
                    51:ec:1d
                Exponent: 65537 (0x10001)
        X509v3 extensions:
            X509v3 Basic Constraints: 
                CA:FALSE
            Netscape Comment: 
                Easy-RSA Generated Certificate
            X509v3 Subject Key Identifier: 
                83:EE:B1:DA:6C:F9:9A:0B:20:4B:0B:12:8A:F8:EC:2D:99:32:53:92
            X509v3 Authority Key Identifier: 
                keyid:12:CD:60:04:D2:A0:80:9E:70:ED:C6:99:B8:7B:2C:C6:52:FD:19:A1
                DirName:/C=US/ST=OH/L=Columbus/O=VikingVPN/OU=MyOrganizationalUnit/CN=VikingVPN CA/name=EasyRSA/emailAddress=me@myhost.mydomain
                serial:CF:35:85:EE:80:BF:2A:3E

            X509v3 Extended Key Usage: 
                TLS Web Client Authentication
            X509v3 Key Usage: 
                Digital Signature
    Signature Algorithm: md5WithRSAEncryption
         1a:1e:4a:76:1d:5e:36:92:06:0f:4b:77:48:90:e7:69:8a:37:
         ec:7e:c6:e6:df:87:b1:3d:85:77:6a:d2:b7:fe:4b:48:bb:b9:
         9d:52:09:13:bf:a3:97:16:1b:91:df:9d:47:6c:3b:80:7b:a5:
         e3:51:c4:c0:e9:de:7f:a7:8d:99:49:be:55:4b:cd:51:2d:d5:
         03:23:b7:f7:d7:f6:c8:b6:e4:cf:34:01:24:6c:31:5d:d7:b5:
         3f:82:44:29:f4:8f:74:67:17:25:18:b7:0b:22:65:84:19:56:
         c5:e9:03:a5:8f:80:5f:51:e3:ff:57:01:6a:52:cf:4b:4a:41:
         7f:2d:b9:00:f9:55:83:ea:3b:5c:18:7e:bb:dc:31:c9:4c:57:
         9d:b2:34:04:7a:fa:7d:63:2c:93:90:75:48:77:88:10:1f:a9:
         2a:e6:3d:e1:10:bd:a6:79:dd:00:94:17:67:55:e0:45:ec:eb:
         57:16:bb:40:d5:7f:51:a8:61:c2:95:f6:2c:e1:d3:49:34:43:
         30:03:ff:5c:f8:2e:67:77:5b:38:4b:ad:23:41:44:87:ae:f0:
         26:e4:9d:e8:df:2d:02:12:b5:fc:00:56:f2:62:62:87:b1:62:
         1b:b6:41:98:8b:e6:81:44:6b:0a:20:e4:8d:85:e3:00:02:a4:
         1f:95:a0:35:52:7e:00:77:75:7f:21:85:e9:bd:94:91:90:b9:
         79:28:a4:f3:7a:b4:8e:d2:ec:ac:e0:04:07:28:63:21:89:7d:
         57:ba:11:e5:93:fa:cf:84:b6:76:d0:42:85:cf:14:6c:12:b2:
         fa:d5:9d:3a:95:2d:73:38:9e:83:37:dc:87:ae:d9:1a:4e:12:
         3e:11:e6:48:cc:eb:c9:61:42:eb:9b:90:97:39:b4:10:45:c0:
         a6:3b:e2:48:7c:90:5e:83:30:b3:bf:bf:0b:9f:af:f1:63:5e:
         69:e1:5d:9e:28:4a:67:51:04:4f:f2:60:42:73:be:39:02:14:
         da:51:88:3d:bd:14:f5:ce:9b:6b:6d:76:22:a9:1d:c8:34:3f:
         88:40:fd:17:56:c1:be:41:81:41:9c:43:84:aa:cd:f2:af:da:
         92:9f:5a:05:b1:14:25:e4:17:30:4b:e6:65:b6:e9:61:15:b3:
         bb:b2:2a:50:11:c4:ae:d5:c2:6d:2f:09:ab:20:8d:0b:9b:a8:
         e1:f3:c2:06:0f:54:7b:7d:52:36:4f:d1:b7:26:d3:e9:ac:04:
         e9:80:86:cb:5b:2b:fb:42:c5:f9:03:bf:de:5c:d4:9f:31:89:
         6c:67:54:a5:84:5d:9b:2a:c1:7f:2c:64:62:d5:e2:57:06:1a:
         2d:49:2a:5e:9c:09:b9:cb
-----BEGIN CERTIFICATE-----
MIIGrDCCBJSgAwIBAgICAgIwDQYJKoZIhvcNAQEEBQAwgawxCzAJBgNVBAYTAlVT
MQswCQYDVQQIEwJPSDERMA8GA1UEBxMIQ29sdW1idXMxEjAQBgNVBAoTCVZpa2lu
Z1ZQTjEdMBsGA1UECxMUTXlPcmdhbml6YXRpb25hbFVuaXQxFTATBgNVBAMTDFZp
a2luZ1ZQTiBDQTEQMA4GA1UEKRMHRWFzeVJTQTEhMB8GCSqGSIb3DQEJARYSbWVA
bXlob3N0Lm15ZG9tYWluMB4XDTEzMTIwNDAxNDg0NFoXDTIzMTIwMjAxNDg0NFow
HjEcMBoGA1UEAxMTQ2xpZW50MjE3Q2VydGViZDhmNzCCAiIwDQYJKoZIhvcNAQEB
BQADggIPADCCAgoCggIBAPdVuva4Vt2egRjNfBazvyOCIAtSei7rkIGwFPXRiMkx
cjb0Sqh5bw+InQH5EBnW9TMjXWLAkL8FSTBZIka/FV47/IkLMvcu72/9JQrV67Jj
RfytWh3BgsiQxPAR+hQ1hzsuIZisk1FiNj2UUFz0F5p3pDii42JijqezeRsK1nFd
vK5hsPDTDoWz+FSgCKzeW3QqYsRRpAba9s6fwwZTZJz4hmZvg/ASMSJx89M84et8
ZePThEam38xIopu2pM0FjvlBG7pqiUegMrip3+LAwTYxPqxA4FE/mt1tshEE7eeO
uCV20ILFds+FpghxUrQbGAnnzzroQO8lF00HV3giZ8zQtmJ53XZLDz5tSeVwXV3T
w9MlXVR8029hu4KXaCHj/1QI6G1k0V/goIlzFxblSu25ou5X/DnET0JWqlqHpPP5
wPCcuhQsJCaf8md3+jwuTpae4mWm1OcgeImhKTRWwbCZs4aN7UAT+038vcuhmn2i
C2Qhn04VqqF3OU3teZoMMrSFnJk2RJQwjwpbOJHFmgr9sAE7Tkg4I6/pDgJIcUVj
pzN9FJ1YfQlma3V7VOYXJNxI+tkM4YDWm4vh3fxx1nf2qIZ963xfuTS82F29SVAb
LmwrIp69xa6SIWnMvtrHyUOjeSmSrKrsLM1vjR6zoaXCSK6KUDZ72w8AQGJhUewd
AgMBAAGjggFjMIIBXzAJBgNVHRMEAjAAMC0GCWCGSAGG+EIBDQQgFh5FYXN5LVJT
QSBHZW5lcmF0ZWQgQ2VydGlmaWNhdGUwHQYDVR0OBBYEFIPusdps+ZoLIEsLEor4
7C2ZMlOSMIHhBgNVHSMEgdkwgdaAFBLNYATSoICecO3Gmbh7LMZS/RmhoYGypIGv
MIGsMQswCQYDVQQGEwJVUzELMAkGA1UECBMCT0gxETAPBgNVBAcTCENvbHVtYnVz
MRIwEAYDVQQKEwlWaWtpbmdWUE4xHTAbBgNVBAsTFE15T3JnYW5pemF0aW9uYWxV
bml0MRUwEwYDVQQDEwxWaWtpbmdWUE4gQ0ExEDAOBgNVBCkTB0Vhc3lSU0ExITAf
BgkqhkiG9w0BCQEWEm1lQG15aG9zdC5teWRvbWFpboIJAM81he6Avyo+MBMGA1Ud
JQQMMAoGCCsGAQUFBwMCMAsGA1UdDwQEAwIHgDANBgkqhkiG9w0BAQQFAAOCAgEA
Gh5Kdh1eNpIGD0t3SJDnaYo37H7G5t+HsT2Fd2rSt/5LSLu5nVIJE7+jlxYbkd+d
R2w7gHul41HEwOnef6eNmUm+VUvNUS3VAyO399f2yLbkzzQBJGwxXde1P4JEKfSP
dGcXJRi3CyJlhBlWxekDpY+AX1Hj/1cBalLPS0pBfy25APlVg+o7XBh+u9wxyUxX
nbI0BHr6fWMsk5B1SHeIEB+pKuY94RC9pnndAJQXZ1XgRezrVxa7QNV/UahhwpX2
LOHTSTRDMAP/XPguZ3dbOEutI0FEh67wJuSd6N8tAhK1/ABW8mJih7FiG7ZBmIvm
gURrCiDkjYXjAAKkH5WgNVJ+AHd1fyGF6b2UkZC5eSik83q0jtLsrOAEByhjIYl9
V7oR5ZP6z4S2dtBChc8UbBKy+tWdOpUtcziegzfch67ZGk4SPhHmSMzryWFC65uQ
lzm0EEXApjviSHyQXoMws7+/C5+v8WNeaeFdnihKZ1EET/JgQnO+OQIU2lGIPb0U
9c6ba212IqkdyDQ/iED9F1bBvkGBQZxDhKrN8q/akp9aBbEUJeQXMEvmZbbpYRWz
u7IqUBHErtXCbS8JqyCNC5uo4fPCBg9Ue31SNk/RtybT6awE6YCGy1sr+0LF+QO/
3lzUnzGJbGdUpYRdmyrBfyxkYtXiVwYaLUkqXpwJucs=
-----END CERTIFICATE-----
