Certificate:
    Data:
        Version: 3 (0x2)
        Serial Number: 12609 (0x3141)
    Signature Algorithm: sha256WithRSAEncryption
        Issuer: C=US, ST=OH, L=Columbus, O=VikingVPN, OU=MyOrganizationalUnit, CN=VikingVPN CA/name=EasyRSA/emailAddress=me@myhost.mydomain
        Validity
            Not Before: Feb 23 17:52:19 2018 GMT
            Not After : Feb 21 17:52:19 2028 GMT
        Subject: CN=Client3188Cert7df1fe
        Subject Public Key Info:
            Public Key Algorithm: rsaEncryption
                Public-Key: (4096 bit)
                Modulus:
                    00:ae:3c:5e:f0:eb:f1:39:46:12:03:77:71:5a:4b:
                    e5:9b:1f:da:86:00:00:51:1c:72:1c:1f:93:c6:ad:
                    c9:e4:26:27:be:49:87:be:fb:33:35:b8:97:92:d1:
                    70:f9:f9:c8:9c:15:50:16:d3:70:23:4c:37:a1:30:
                    aa:66:e2:b5:a1:48:63:a7:ab:14:d8:3d:e6:c6:68:
                    75:db:d8:8c:24:f2:f4:a0:97:ec:75:11:6d:bf:cb:
                    bd:20:34:d5:49:f0:fc:cc:68:27:0c:36:59:3b:d2:
                    d0:1e:bd:01:59:e8:d9:5c:3f:be:99:23:3e:c2:89:
                    23:9c:f1:55:87:da:70:30:46:e1:7b:d7:ff:49:90:
                    aa:62:f4:e6:1b:3f:35:a2:48:c3:f3:ba:9b:6e:59:
                    d8:d3:80:fd:1d:2b:3b:f4:8f:9c:d2:5e:79:28:b9:
                    04:75:9e:8a:37:94:94:85:51:15:60:f7:06:54:6f:
                    56:34:70:cf:7b:1b:7e:8b:00:4f:08:a9:1f:fa:33:
                    81:8f:67:12:45:54:15:0b:b3:a0:0a:bf:98:b0:88:
                    f2:0f:84:39:65:4e:e7:58:2a:c6:80:f7:f5:8c:82:
                    47:ee:bf:8e:ca:8d:17:09:15:57:12:ec:1d:d3:7c:
                    d2:33:28:c9:fb:41:84:2d:3e:d7:db:59:d7:09:f9:
                    c8:b4:c2:fe:cf:19:18:9c:f1:fd:e5:6e:80:68:8f:
                    b0:67:b9:41:9e:66:98:d4:e0:9a:b1:8c:3f:2e:b1:
                    29:31:f4:44:ed:93:46:2e:a1:4f:f6:b8:08:73:47:
                    c0:64:bd:48:18:cd:d2:99:39:8f:ca:a3:c7:77:71:
                    ac:09:f1:0b:ab:a0:c5:c1:4d:38:79:40:85:f9:d8:
                    96:2c:f2:12:f3:bb:59:a8:0f:05:d0:e6:3e:17:c3:
                    ed:fb:21:2c:0e:11:58:70:87:bc:a4:8b:50:83:03:
                    71:a7:34:17:b6:f6:58:83:18:30:ee:10:be:8a:9c:
                    0d:11:36:bc:44:e7:de:cc:d7:75:bb:91:cc:e3:6e:
                    2c:ef:5a:73:eb:17:ed:15:c2:a9:00:e0:c7:e6:42:
                    8f:b7:16:ec:de:86:d6:a7:91:51:e6:f4:10:26:c1:
                    3f:c2:10:64:a5:cb:ab:a4:a1:4e:99:b9:81:7b:3b:
                    41:02:a0:ee:71:32:27:07:ca:27:4a:79:52:0a:f8:
                    63:ec:79:01:a5:74:d8:b5:82:60:29:6b:b5:61:1f:
                    ce:15:f5:33:89:5c:ce:6f:46:b3:db:a2:ad:38:9b:
                    5e:7d:4a:5e:cb:4b:93:56:99:e6:2e:f3:37:72:44:
                    7f:70:6f:50:7f:e8:1b:4f:9a:f2:0c:5d:4a:31:08:
                    73:18:09
                Exponent: 65537 (0x10001)
        X509v3 extensions:
            X509v3 Basic Constraints: 
                CA:FALSE
            Netscape Comment: 
                Easy-RSA Generated Certificate
            X509v3 Subject Key Identifier: 
                8E:4F:18:60:90:58:E0:4C:06:1F:2F:A3:35:89:27:6C:61:81:C4:52
            X509v3 Authority Key Identifier: 
                keyid:12:CD:60:04:D2:A0:80:9E:70:ED:C6:99:B8:7B:2C:C6:52:FD:19:A1
                DirName:/C=US/ST=OH/L=Columbus/O=VikingVPN/OU=MyOrganizationalUnit/CN=VikingVPN CA/name=EasyRSA/emailAddress=me@myhost.mydomain
                serial:CF:35:85:EE:80:BF:2A:3E

            X509v3 Extended Key Usage: 
                TLS Web Client Authentication
            X509v3 Key Usage: 
                Digital Signature
    Signature Algorithm: sha256WithRSAEncryption
         64:32:6d:a4:5c:f5:26:39:ac:37:34:06:b5:5a:74:fa:b2:ca:
         c6:ad:65:7a:f9:30:e9:41:c9:f3:fd:01:c6:13:f7:a1:b7:5d:
         73:2f:aa:b2:d4:85:09:67:f0:66:1d:67:d4:53:bc:40:7c:a7:
         3a:f5:71:29:71:0a:75:0f:6a:bf:69:f4:73:9b:b7:e5:73:66:
         4a:77:09:2b:1c:39:a9:c9:31:53:55:ad:32:3e:76:be:64:20:
         08:ab:0f:1c:d2:0f:46:fe:ab:82:ca:fe:a5:9b:6b:af:c8:37:
         62:56:e2:dd:93:6a:a3:fb:a2:9f:a6:d3:10:38:2b:da:03:10:
         02:6c:68:f3:46:4c:93:32:40:35:f6:35:dc:d8:69:71:b0:06:
         4e:c0:13:6f:66:7c:a6:9a:59:f8:dc:e2:c1:53:a4:0d:7e:17:
         66:cc:a7:15:41:01:17:eb:6b:ca:37:e3:b7:e1:3a:cf:e7:43:
         bb:fb:8f:6c:c1:b9:63:f6:40:9a:02:f2:a3:96:b8:16:0e:9d:
         02:7e:31:9c:de:db:b3:e4:0b:a3:20:58:61:4b:b5:98:7e:cf:
         e0:84:d0:49:89:dc:1c:e5:b8:77:51:e1:e3:f5:99:8c:7f:83:
         c6:69:39:07:74:3c:2e:af:12:29:2a:fb:4b:ef:62:36:85:80:
         28:a9:d3:56:08:0f:70:b1:9a:8c:e0:d4:0a:de:69:bd:a6:0e:
         8c:d5:96:df:56:57:de:30:ad:ee:16:8d:ff:71:d6:0b:f6:53:
         9b:52:7f:d7:5c:73:a5:f5:c9:ab:9d:c8:4c:19:78:3b:4c:50:
         3d:c7:46:8b:bb:d1:1d:14:63:9a:7f:9a:cf:d8:40:ce:ca:6a:
         b0:1e:6c:a8:ad:7d:cd:da:d3:e8:26:42:68:62:15:8c:3c:1f:
         37:ae:7c:a4:08:07:02:1f:37:07:b2:03:a5:04:75:a6:6b:00:
         ea:a6:03:ef:9c:cf:f3:cb:25:10:5f:65:34:45:d9:1c:40:79:
         68:cf:fd:50:cb:c8:71:ff:7c:f7:97:98:02:19:5e:3b:b5:0b:
         05:35:d5:59:3c:33:e5:a0:2b:f2:6f:5d:67:e5:54:ae:a2:f8:
         ab:bf:9e:1c:d5:62:ec:42:31:5f:30:ea:45:1a:4d:fb:91:c8:
         fe:ef:fa:d4:f2:1a:2f:94:ee:75:02:6a:29:3c:b5:39:96:e8:
         23:b5:ac:85:85:f3:8f:9f:09:d1:a4:88:21:0b:1d:9a:60:80:
         27:ee:be:9b:73:73:95:28:5d:7a:ff:f7:6d:79:82:0a:b9:50:
         2b:9a:94:0a:fc:ae:98:46:26:51:0a:4b:4d:38:47:a3:a3:0a:
         03:b5:e8:3d:85:63:21:a6
-----BEGIN CERTIFICATE-----
MIIGrTCCBJWgAwIBAgICMUEwDQYJKoZIhvcNAQELBQAwgawxCzAJBgNVBAYTAlVT
MQswCQYDVQQIEwJPSDERMA8GA1UEBxMIQ29sdW1idXMxEjAQBgNVBAoTCVZpa2lu
Z1ZQTjEdMBsGA1UECxMUTXlPcmdhbml6YXRpb25hbFVuaXQxFTATBgNVBAMTDFZp
a2luZ1ZQTiBDQTEQMA4GA1UEKRMHRWFzeVJTQTEhMB8GCSqGSIb3DQEJARYSbWVA
bXlob3N0Lm15ZG9tYWluMB4XDTE4MDIyMzE3NTIxOVoXDTI4MDIyMTE3NTIxOVow
HzEdMBsGA1UEAxMUQ2xpZW50MzE4OENlcnQ3ZGYxZmUwggIiMA0GCSqGSIb3DQEB
AQUAA4ICDwAwggIKAoICAQCuPF7w6/E5RhIDd3FaS+WbH9qGAABRHHIcH5PGrcnk
Jie+SYe++zM1uJeS0XD5+cicFVAW03AjTDehMKpm4rWhSGOnqxTYPebGaHXb2Iwk
8vSgl+x1EW2/y70gNNVJ8PzMaCcMNlk70tAevQFZ6NlcP76ZIz7CiSOc8VWH2nAw
RuF71/9JkKpi9OYbPzWiSMPzuptuWdjTgP0dKzv0j5zSXnkouQR1noo3lJSFURVg
9wZUb1Y0cM97G36LAE8IqR/6M4GPZxJFVBULs6AKv5iwiPIPhDllTudYKsaA9/WM
gkfuv47KjRcJFVcS7B3TfNIzKMn7QYQtPtfbWdcJ+ci0wv7PGRic8f3lboBoj7Bn
uUGeZpjU4JqxjD8usSkx9ETtk0YuoU/2uAhzR8BkvUgYzdKZOY/Ko8d3cawJ8Qur
oMXBTTh5QIX52JYs8hLzu1moDwXQ5j4Xw+37ISwOEVhwh7yki1CDA3GnNBe29liD
GDDuEL6KnA0RNrxE597M13W7kczjbizvWnPrF+0VwqkA4MfmQo+3FuzehtankVHm
9BAmwT/CEGSly6ukoU6ZuYF7O0ECoO5xMicHyidKeVIK+GPseQGldNi1gmApa7Vh
H84V9TOJXM5vRrPboq04m159Sl7LS5NWmeYu8zdyRH9wb1B/6BtPmvIMXUoxCHMY
CQIDAQABo4IBYzCCAV8wCQYDVR0TBAIwADAtBglghkgBhvhCAQ0EIBYeRWFzeS1S
U0EgR2VuZXJhdGVkIENlcnRpZmljYXRlMB0GA1UdDgQWBBSOTxhgkFjgTAYfL6M1
iSdsYYHEUjCB4QYDVR0jBIHZMIHWgBQSzWAE0qCAnnDtxpm4eyzGUv0ZoaGBsqSB
rzCBrDELMAkGA1UEBhMCVVMxCzAJBgNVBAgTAk9IMREwDwYDVQQHEwhDb2x1bWJ1
czESMBAGA1UEChMJVmlraW5nVlBOMR0wGwYDVQQLExRNeU9yZ2FuaXphdGlvbmFs
VW5pdDEVMBMGA1UEAxMMVmlraW5nVlBOIENBMRAwDgYDVQQpEwdFYXN5UlNBMSEw
HwYJKoZIhvcNAQkBFhJtZUBteWhvc3QubXlkb21haW6CCQDPNYXugL8qPjATBgNV
HSUEDDAKBggrBgEFBQcDAjALBgNVHQ8EBAMCB4AwDQYJKoZIhvcNAQELBQADggIB
AGQybaRc9SY5rDc0BrVadPqyysatZXr5MOlByfP9AcYT96G3XXMvqrLUhQln8GYd
Z9RTvEB8pzr1cSlxCnUPar9p9HObt+VzZkp3CSscOanJMVNVrTI+dr5kIAirDxzS
D0b+q4LK/qWba6/IN2JW4t2TaqP7op+m0xA4K9oDEAJsaPNGTJMyQDX2NdzYaXGw
Bk7AE29mfKaaWfjc4sFTpA1+F2bMpxVBARfra8o347fhOs/nQ7v7j2zBuWP2QJoC
8qOWuBYOnQJ+MZze27PkC6MgWGFLtZh+z+CE0EmJ3BzluHdR4eP1mYx/g8ZpOQd0
PC6vEikq+0vvYjaFgCip01YID3Cxmozg1Areab2mDozVlt9WV94wre4Wjf9x1gv2
U5tSf9dcc6X1yaudyEwZeDtMUD3HRou70R0UY5p/ms/YQM7KarAebKitfc3a0+gm
QmhiFYw8HzeufKQIBwIfNweyA6UEdaZrAOqmA++cz/PLJRBfZTRF2RxAeWjP/VDL
yHH/fPeXmAIZXju1CwU11Vk8M+WgK/JvXWflVK6i+Ku/nhzVYuxCMV8w6kUaTfuR
yP7v+tTyGi+U7nUCaik8tTmW6CO1rIWF84+fCdGkiCELHZpggCfuvptzc5UoXXr/
9215ggq5UCualAr8rphGJlEKS004R6OjCgO16D2FYyGm
-----END CERTIFICATE-----
