Certificate:
    Data:
        Version: 3 (0x2)
        Serial Number: 8414 (0x20de)
    Signature Algorithm: md5WithRSAEncryption
        Issuer: C=US, ST=OH, L=Columbus, O=VikingVPN, OU=MyOrganizationalUnit, CN=VikingVPN CA/name=EasyRSA/emailAddress=me@myhost.mydomain
        Validity
            Not Before: Jul  4 04:51:15 2016 GMT
            Not After : Jul  2 04:51:15 2026 GMT
        Subject: CN=Client2413Certb7d30d
        Subject Public Key Info:
            Public Key Algorithm: rsaEncryption
                Public-Key: (4096 bit)
                Modulus:
                    00:d5:ff:17:a4:3f:6a:9e:a7:ff:d7:87:fd:d2:d0:
                    4d:d5:63:9c:a9:94:7e:31:8f:4d:55:7f:69:66:4a:
                    5c:06:90:cc:a8:bb:83:dd:a8:ab:90:15:17:c6:1e:
                    c2:a4:84:7e:71:d1:05:85:17:4a:dd:54:e1:41:13:
                    37:94:df:88:b0:83:31:d6:13:7b:a3:5d:95:4e:38:
                    3f:91:7b:a2:db:b4:e3:7e:11:1d:20:32:33:37:02:
                    63:c8:44:59:2a:b4:22:f5:42:0a:3d:79:6a:b9:e8:
                    df:14:16:91:9b:75:74:df:30:64:b5:b7:8f:58:77:
                    9d:66:05:17:cb:74:a8:85:5b:f0:13:80:24:0f:52:
                    44:e2:11:bf:bf:fd:a3:42:96:bd:2c:27:fe:f0:10:
                    cb:23:1d:ff:eb:1a:d8:0c:79:31:eb:be:ca:f7:83:
                    be:64:bc:43:7d:5c:22:2c:19:c9:a3:cd:f5:59:66:
                    64:09:7c:98:00:cd:a3:3e:11:bf:b7:14:e6:f6:e5:
                    8d:36:06:73:fb:d7:25:d8:43:cf:dc:bd:32:33:8c:
                    8b:32:c7:c3:a5:10:dd:f5:f9:a7:d2:b6:31:d3:47:
                    39:c9:2e:f8:59:83:96:07:76:6e:02:f6:32:81:38:
                    c5:7f:4a:05:b7:26:ff:83:3d:fd:7b:df:91:9c:1e:
                    d6:84:86:2f:a4:06:fe:56:4d:46:aa:0b:af:f6:6c:
                    5a:7c:9e:65:75:e5:4f:08:c9:78:ee:2a:0c:ec:57:
                    0d:54:f0:53:b6:e6:f7:f7:fd:d1:49:b6:99:d7:9c:
                    d5:5b:28:27:b3:4d:58:07:95:63:58:2a:c9:95:3f:
                    27:d7:1b:a2:9d:f4:12:9b:ea:41:35:3c:7a:4c:cf:
                    02:8a:84:40:da:9e:72:07:38:9e:20:19:20:30:60:
                    5a:0c:b5:a5:7a:d0:f6:2e:57:e5:f8:60:69:78:1d:
                    e8:76:52:4a:bb:1b:20:25:98:b0:17:0b:7b:fc:b4:
                    bd:97:ce:76:1b:bc:5e:ee:c8:73:1f:08:a2:dd:a2:
                    a1:34:4f:46:1b:fd:9a:9e:1c:57:c4:bd:37:c8:e9:
                    8a:78:2f:c8:f3:e9:76:3d:94:10:42:f1:38:54:c2:
                    c2:b9:06:aa:bd:95:21:ea:b6:08:76:bc:98:61:f4:
                    db:44:fe:a8:5a:ef:96:ae:89:18:dc:49:2b:88:3f:
                    b2:1d:e7:c5:e7:b9:42:8d:80:b9:a1:87:e6:df:eb:
                    f5:5a:f3:8a:03:d7:2a:89:80:4e:40:1d:7d:ee:8b:
                    3c:71:5f:35:6d:d5:1f:3c:53:83:83:d4:03:f4:41:
                    9a:a0:ad:8a:02:1f:41:c3:2b:5b:55:2a:90:f1:26:
                    3d:4f:65
                Exponent: 65537 (0x10001)
        X509v3 extensions:
            X509v3 Basic Constraints: 
                CA:FALSE
            Netscape Comment: 
                Easy-RSA Generated Certificate
            X509v3 Subject Key Identifier: 
                62:1B:34:0B:3A:8B:E3:6C:E6:2F:19:5C:D7:EA:F7:71:A6:3A:D0:18
            X509v3 Authority Key Identifier: 
                keyid:12:CD:60:04:D2:A0:80:9E:70:ED:C6:99:B8:7B:2C:C6:52:FD:19:A1
                DirName:/C=US/ST=OH/L=Columbus/O=VikingVPN/OU=MyOrganizationalUnit/CN=VikingVPN CA/name=EasyRSA/emailAddress=me@myhost.mydomain
                serial:CF:35:85:EE:80:BF:2A:3E

            X509v3 Extended Key Usage: 
                TLS Web Client Authentication
            X509v3 Key Usage: 
                Digital Signature
    Signature Algorithm: md5WithRSAEncryption
         71:3b:43:e5:a1:ee:bb:ea:21:fb:68:e4:c9:33:1b:8c:2a:5e:
         3a:9d:bd:39:cd:21:e5:da:30:61:9f:ac:95:f9:fb:76:0c:f1:
         88:9f:57:03:1c:a0:c6:3d:95:6e:16:ca:1f:32:c9:91:b3:d3:
         07:cd:4a:fb:e5:3b:93:ef:dd:58:27:59:8a:dc:52:8a:6d:b5:
         e0:83:4c:2b:ab:30:31:18:67:2a:05:85:27:f2:2a:a2:2d:3b:
         68:bf:38:21:03:36:8f:d8:52:61:fb:37:de:35:bc:eb:11:9c:
         86:25:8f:3d:7d:88:a3:93:0d:b4:f0:3f:46:3e:39:f8:f8:15:
         8e:1b:2e:9d:68:4f:a6:5d:c1:d6:99:b3:06:df:c0:25:ce:7d:
         72:94:eb:62:04:c1:c8:ad:b2:4d:e8:6c:8c:34:0a:cf:78:0f:
         20:f8:cb:49:bf:c9:25:75:e6:b5:93:d2:68:cf:0d:09:6f:2c:
         d6:09:3a:ee:79:fe:cc:ce:ad:fa:c8:43:90:71:1c:c4:5a:0e:
         54:47:0d:9f:f1:cf:34:f0:18:25:24:97:af:4b:80:54:be:ce:
         75:9e:fa:ea:53:ae:88:d4:b6:17:4e:63:7b:8b:6f:8e:4f:b3:
         e0:74:67:a5:c6:8e:7e:f9:8c:08:58:ae:34:da:fa:72:fe:c0:
         ef:f4:aa:3d:33:30:5d:43:f4:1b:37:0c:d2:5d:4b:7d:15:b2:
         8a:95:d6:e7:b4:e8:45:b3:f6:a4:98:3f:78:7e:e2:ce:e7:9f:
         8c:23:30:a7:6f:cb:69:0a:65:42:18:05:a7:29:ae:1f:2f:f4:
         c8:cb:89:7e:4c:1e:36:e6:9b:5c:fd:37:8e:62:58:3b:7e:ac:
         c3:35:5b:5c:cb:21:a6:51:e2:9a:43:37:f8:0c:4f:e8:ee:a8:
         c1:44:17:0d:bc:70:52:cb:02:c1:c5:1a:4c:3c:e2:f4:ee:5b:
         05:d4:20:f0:60:c6:11:c1:70:d6:83:4b:fc:8c:5c:37:4e:d9:
         d8:d1:1e:3f:60:14:46:b6:11:a8:29:95:22:ea:93:a0:23:23:
         bd:40:9b:74:62:9f:7f:f1:77:86:32:5a:43:49:a4:5e:9c:8b:
         57:51:2b:50:07:9a:d1:e3:1d:25:c3:3b:6f:7f:38:c4:35:88:
         d2:13:01:a1:a3:15:73:ef:ac:bf:ce:b8:fc:97:b6:6d:f0:8e:
         32:9b:e7:0e:6f:e1:9c:56:a8:07:71:0a:95:85:b2:e9:8b:5a:
         98:50:e4:b7:fc:55:99:87:03:0f:08:79:81:02:6f:fb:39:48:
         67:89:52:e1:ef:d7:e1:7f:f3:ae:e1:dc:76:bb:e4:57:fe:77:
         cd:3e:65:fb:98:7b:0b:77
-----BEGIN CERTIFICATE-----
MIIGrTCCBJWgAwIBAgICIN4wDQYJKoZIhvcNAQEEBQAwgawxCzAJBgNVBAYTAlVT
MQswCQYDVQQIEwJPSDERMA8GA1UEBxMIQ29sdW1idXMxEjAQBgNVBAoTCVZpa2lu
Z1ZQTjEdMBsGA1UECxMUTXlPcmdhbml6YXRpb25hbFVuaXQxFTATBgNVBAMTDFZp
a2luZ1ZQTiBDQTEQMA4GA1UEKRMHRWFzeVJTQTEhMB8GCSqGSIb3DQEJARYSbWVA
bXlob3N0Lm15ZG9tYWluMB4XDTE2MDcwNDA0NTExNVoXDTI2MDcwMjA0NTExNVow
HzEdMBsGA1UEAxMUQ2xpZW50MjQxM0NlcnRiN2QzMGQwggIiMA0GCSqGSIb3DQEB
AQUAA4ICDwAwggIKAoICAQDV/xekP2qep//Xh/3S0E3VY5yplH4xj01Vf2lmSlwG
kMyou4PdqKuQFRfGHsKkhH5x0QWFF0rdVOFBEzeU34iwgzHWE3ujXZVOOD+Re6Lb
tON+ER0gMjM3AmPIRFkqtCL1Qgo9eWq56N8UFpGbdXTfMGS1t49Yd51mBRfLdKiF
W/ATgCQPUkTiEb+//aNClr0sJ/7wEMsjHf/rGtgMeTHrvsr3g75kvEN9XCIsGcmj
zfVZZmQJfJgAzaM+Eb+3FOb25Y02BnP71yXYQ8/cvTIzjIsyx8OlEN31+afStjHT
RznJLvhZg5YHdm4C9jKBOMV/SgW3Jv+DPf1735GcHtaEhi+kBv5WTUaqC6/2bFp8
nmV15U8IyXjuKgzsVw1U8FO25vf3/dFJtpnXnNVbKCezTVgHlWNYKsmVPyfXG6Kd
9BKb6kE1PHpMzwKKhEDannIHOJ4gGSAwYFoMtaV60PYuV+X4YGl4Heh2Ukq7GyAl
mLAXC3v8tL2XznYbvF7uyHMfCKLdoqE0T0Yb/ZqeHFfEvTfI6Yp4L8jz6XY9lBBC
8ThUwsK5Bqq9lSHqtgh2vJhh9NtE/qha75auiRjcSSuIP7Id58XnuUKNgLmhh+bf
6/Va84oD1yqJgE5AHX3uizxxXzVt1R88U4OD1AP0QZqgrYoCH0HDK1tVKpDxJj1P
ZQIDAQABo4IBYzCCAV8wCQYDVR0TBAIwADAtBglghkgBhvhCAQ0EIBYeRWFzeS1S
U0EgR2VuZXJhdGVkIENlcnRpZmljYXRlMB0GA1UdDgQWBBRiGzQLOovjbOYvGVzX
6vdxpjrQGDCB4QYDVR0jBIHZMIHWgBQSzWAE0qCAnnDtxpm4eyzGUv0ZoaGBsqSB
rzCBrDELMAkGA1UEBhMCVVMxCzAJBgNVBAgTAk9IMREwDwYDVQQHEwhDb2x1bWJ1
czESMBAGA1UEChMJVmlraW5nVlBOMR0wGwYDVQQLExRNeU9yZ2FuaXphdGlvbmFs
VW5pdDEVMBMGA1UEAxMMVmlraW5nVlBOIENBMRAwDgYDVQQpEwdFYXN5UlNBMSEw
HwYJKoZIhvcNAQkBFhJtZUBteWhvc3QubXlkb21haW6CCQDPNYXugL8qPjATBgNV
HSUEDDAKBggrBgEFBQcDAjALBgNVHQ8EBAMCB4AwDQYJKoZIhvcNAQEEBQADggIB
AHE7Q+Wh7rvqIfto5MkzG4wqXjqdvTnNIeXaMGGfrJX5+3YM8YifVwMcoMY9lW4W
yh8yyZGz0wfNSvvlO5Pv3VgnWYrcUoptteCDTCurMDEYZyoFhSfyKqItO2i/OCED
No/YUmH7N941vOsRnIYljz19iKOTDbTwP0Y+Ofj4FY4bLp1oT6ZdwdaZswbfwCXO
fXKU62IEwcitsk3obIw0Cs94DyD4y0m/ySV15rWT0mjPDQlvLNYJOu55/szOrfrI
Q5BxHMRaDlRHDZ/xzzTwGCUkl69LgFS+znWe+upTrojUthdOY3uLb45Ps+B0Z6XG
jn75jAhYrjTa+nL+wO/0qj0zMF1D9Bs3DNJdS30VsoqV1ue06EWz9qSYP3h+4s7n
n4wjMKdvy2kKZUIYBacprh8v9MjLiX5MHjbmm1z9N45iWDt+rMM1W1zLIaZR4ppD
N/gMT+juqMFEFw28cFLLAsHFGkw84vTuWwXUIPBgxhHBcNaDS/yMXDdO2djRHj9g
FEa2EagplSLqk6AjI71Am3Rin3/xd4YyWkNJpF6ci1dRK1AHmtHjHSXDO29/OMQ1
iNITAaGjFXPvrL/OuPyXtm3wjjKb5w5v4ZxWqAdxCpWFsumLWphQ5Lf8VZmHAw8I
eYECb/s5SGeJUuHv1+F/867h3Ha75Ff+d80+ZfuYewt3
-----END CERTIFICATE-----
