Certificate:
    Data:
        Version: 3 (0x2)
        Serial Number: 892 (0x37c)
    Signature Algorithm: md5WithRSAEncryption
        Issuer: C=US, ST=OH, L=Columbus, O=VikingVPN, OU=MyOrganizationalUnit, CN=VikingVPN CA/name=EasyRSA/emailAddress=me@myhost.mydomain
        Validity
            Not Before: Jan 31 07:18:08 2014 GMT
            Not After : Jan 29 07:18:08 2024 GMT
        Subject: CN=Client3Certd8d06d
        Subject Public Key Info:
            Public Key Algorithm: rsaEncryption
                Public-Key: (4096 bit)
                Modulus:
                    00:ba:b9:75:01:18:00:d2:5a:0c:3e:0d:85:cd:ca:
                    46:17:e0:27:85:ff:3e:79:e3:3f:fd:b6:94:47:14:
                    51:64:31:90:d6:e3:bb:59:39:88:53:03:67:48:c9:
                    97:49:d6:81:a9:6a:43:72:01:c5:25:82:02:66:6b:
                    1a:27:83:2e:7e:3e:12:37:7b:59:c0:fd:dd:d9:92:
                    3d:2d:d7:23:2c:aa:77:fb:93:78:2a:8b:95:7c:aa:
                    3c:ee:1a:67:2e:d6:9e:9c:17:f5:d2:26:76:24:e8:
                    5d:33:7e:de:25:c1:1a:66:a3:2b:de:2a:cb:9d:98:
                    75:72:fa:0e:b3:53:f1:eb:c2:aa:b8:04:b6:b8:bd:
                    58:05:61:12:fc:83:15:89:50:2d:62:55:fd:80:cb:
                    ab:38:d6:1e:de:8a:d3:dc:c8:e3:9a:0f:96:7e:ac:
                    6d:be:cd:27:7f:88:9f:be:10:01:02:12:53:26:02:
                    3e:4d:79:87:69:84:d3:5d:60:b9:32:54:fb:07:a2:
                    75:2c:0d:e0:42:0a:3d:0d:e7:a5:fd:a8:04:5c:c1:
                    29:4c:d8:51:28:61:7f:0d:e8:aa:24:87:34:92:69:
                    0a:10:f9:ea:42:a7:2f:8f:c3:62:55:7c:c1:2d:eb:
                    b8:eb:51:b7:45:ec:33:e3:aa:d8:76:37:f3:7f:63:
                    72:80:e0:10:b3:12:80:dd:d3:e5:19:d7:05:a7:57:
                    4f:ea:7e:ad:34:07:84:58:de:ff:0d:68:f1:5a:b6:
                    9b:e2:0a:0f:b7:33:cd:78:ca:2e:24:a9:c7:50:db:
                    f4:03:19:39:d9:4f:91:70:2a:e7:0b:7f:d4:38:af:
                    24:05:05:5d:71:32:cc:62:06:78:c1:08:2d:92:e8:
                    92:8c:8e:c8:ed:f4:65:03:4a:9f:36:68:c5:99:dc:
                    64:08:10:4e:af:bd:b9:7e:08:98:59:c3:1f:49:9e:
                    c0:67:c7:be:30:67:31:46:22:a1:ed:65:db:43:b1:
                    aa:ce:54:3e:53:6b:93:e7:08:fd:45:6d:21:1b:07:
                    17:20:b6:45:c2:a3:43:12:7e:02:be:3b:8c:0d:fa:
                    b4:44:16:6b:f4:eb:d7:3e:fb:fe:95:3c:7e:72:e9:
                    55:b5:5d:aa:60:c8:ea:a5:4d:49:22:bb:fb:68:4f:
                    8a:21:ed:e3:37:32:73:0d:ba:34:2c:3d:04:4e:95:
                    de:2d:b3:2b:78:04:bd:a9:31:b6:8c:ee:76:5b:aa:
                    d4:77:dd:5e:ee:b7:46:67:91:14:13:ec:d5:40:2c:
                    40:f8:45:82:0b:80:08:63:32:de:db:35:b4:c0:b2:
                    c3:dd:11:c5:f0:c8:8b:83:e9:88:6a:4a:33:fc:a7:
                    58:86:57
                Exponent: 65537 (0x10001)
        X509v3 extensions:
            X509v3 Basic Constraints: 
                CA:FALSE
            Netscape Comment: 
                Easy-RSA Generated Certificate
            X509v3 Subject Key Identifier: 
                7A:86:5F:FA:45:34:2F:A1:37:B7:BC:56:6D:46:F8:C8:1B:D9:1A:50
            X509v3 Authority Key Identifier: 
                keyid:12:CD:60:04:D2:A0:80:9E:70:ED:C6:99:B8:7B:2C:C6:52:FD:19:A1
                DirName:/C=US/ST=OH/L=Columbus/O=VikingVPN/OU=MyOrganizationalUnit/CN=VikingVPN CA/name=EasyRSA/emailAddress=me@myhost.mydomain
                serial:CF:35:85:EE:80:BF:2A:3E

            X509v3 Extended Key Usage: 
                TLS Web Client Authentication
            X509v3 Key Usage: 
                Digital Signature
    Signature Algorithm: md5WithRSAEncryption
         15:df:42:91:d9:2a:2c:ef:e9:78:89:d8:9c:8f:6a:d5:2a:00:
         35:25:9c:79:6e:8b:41:25:9f:4b:14:bb:71:5a:4b:7f:46:de:
         b6:26:70:aa:72:96:27:61:c0:c9:b6:5f:14:f4:bf:17:42:f5:
         e9:9d:3f:7f:f6:af:af:d3:7d:2a:c4:dc:0c:9e:d8:03:bf:89:
         f1:4d:ad:47:bb:df:e7:fa:b6:c6:ab:a9:e0:99:de:6d:57:b3:
         a3:1a:c4:aa:64:91:30:14:79:0c:b9:d6:89:af:e8:42:93:da:
         ed:fc:5e:3f:42:e8:af:a1:b8:ba:e3:9a:1f:ec:25:b0:40:40:
         58:77:b1:58:10:d2:47:ff:57:f1:e4:f0:6e:54:36:b3:f0:94:
         e9:2e:6a:0b:99:0e:d5:58:80:03:ed:7e:c4:a0:59:48:13:62:
         73:cb:67:1b:af:e0:a7:ef:8d:a3:c4:b6:b1:57:0a:57:0a:07:
         1e:e4:d1:da:ac:85:4c:ce:7a:e5:9b:25:b2:c5:31:ca:3d:b2:
         f2:a0:3e:65:d9:cf:e1:35:31:39:4b:8b:34:81:73:75:62:ce:
         40:55:f7:0c:01:bc:71:60:44:df:2e:58:31:6e:a0:1a:fe:48:
         bc:2b:cc:e3:98:07:31:3c:9b:c1:63:3e:db:f6:9c:2a:cd:15:
         0c:1d:0c:ea:c6:c3:a7:c6:e2:6c:f6:9c:43:91:d5:a3:fd:ff:
         f4:33:7f:0e:5e:4c:f9:33:51:fe:6c:35:a6:36:2d:9f:5e:ee:
         e3:53:0e:d2:59:32:3f:3f:b7:2a:06:11:45:76:a0:6d:23:66:
         71:2c:6f:fb:3e:5f:00:9d:c8:5d:2e:b0:be:c3:be:e7:6e:08:
         aa:f7:e5:cf:5d:f7:cf:b7:6d:c4:f9:fd:0c:b7:a9:bc:9d:99:
         1a:f8:68:95:33:f0:3e:c8:4e:be:c1:d5:5b:12:61:d6:be:ee:
         8a:5b:78:8e:75:57:4b:39:2f:df:b2:52:d3:09:a7:9a:b9:4c:
         d3:54:1f:be:ab:96:49:a0:85:51:d8:6f:b5:36:94:14:45:30:
         59:b6:1a:f7:71:b6:c7:70:e4:c9:88:c6:7b:4f:b5:e9:54:1c:
         24:72:ce:2c:fd:42:a4:35:fe:ad:16:c3:1c:19:37:40:bf:45:
         92:2c:4b:68:99:89:4c:83:1c:38:f7:77:94:56:c2:93:75:c3:
         83:17:48:ae:c2:91:62:3e:4a:56:39:56:b3:bf:ae:6f:2c:c7:
         27:93:ac:dd:29:5b:65:68:6e:e5:9b:5d:8d:27:ce:21:1a:d6:
         d9:46:d2:30:3b:f3:79:6a:cd:59:0c:97:85:7d:1d:17:0a:b9:
         1a:58:ab:fd:3f:f9:01:0e
-----BEGIN CERTIFICATE-----
MIIGqjCCBJKgAwIBAgICA3wwDQYJKoZIhvcNAQEEBQAwgawxCzAJBgNVBAYTAlVT
MQswCQYDVQQIEwJPSDERMA8GA1UEBxMIQ29sdW1idXMxEjAQBgNVBAoTCVZpa2lu
Z1ZQTjEdMBsGA1UECxMUTXlPcmdhbml6YXRpb25hbFVuaXQxFTATBgNVBAMTDFZp
a2luZ1ZQTiBDQTEQMA4GA1UEKRMHRWFzeVJTQTEhMB8GCSqGSIb3DQEJARYSbWVA
bXlob3N0Lm15ZG9tYWluMB4XDTE0MDEzMTA3MTgwOFoXDTI0MDEyOTA3MTgwOFow
HDEaMBgGA1UEAxMRQ2xpZW50M0NlcnRkOGQwNmQwggIiMA0GCSqGSIb3DQEBAQUA
A4ICDwAwggIKAoICAQC6uXUBGADSWgw+DYXNykYX4CeF/z554z/9tpRHFFFkMZDW
47tZOYhTA2dIyZdJ1oGpakNyAcUlggJmaxongy5+PhI3e1nA/d3Zkj0t1yMsqnf7
k3gqi5V8qjzuGmcu1p6cF/XSJnYk6F0zft4lwRpmoyveKsudmHVy+g6zU/Hrwqq4
BLa4vVgFYRL8gxWJUC1iVf2Ay6s41h7eitPcyOOaD5Z+rG2+zSd/iJ++EAECElMm
Aj5NeYdphNNdYLkyVPsHonUsDeBCCj0N56X9qARcwSlM2FEoYX8N6KokhzSSaQoQ
+epCpy+Pw2JVfMEt67jrUbdF7DPjqth2N/N/Y3KA4BCzEoDd0+UZ1wWnV0/qfq00
B4RY3v8NaPFatpviCg+3M814yi4kqcdQ2/QDGTnZT5FwKucLf9Q4ryQFBV1xMsxi
BnjBCC2S6JKMjsjt9GUDSp82aMWZ3GQIEE6vvbl+CJhZwx9JnsBnx74wZzFGIqHt
ZdtDsarOVD5Ta5PnCP1FbSEbBxcgtkXCo0MSfgK+O4wN+rREFmv069c++/6VPH5y
6VW1XapgyOqlTUkiu/toT4oh7eM3MnMNujQsPQROld4tsyt4BL2pMbaM7nZbqtR3
3V7ut0ZnkRQT7NVALED4RYILgAhjMt7bNbTAssPdEcXwyIuD6YhqSjP8p1iGVwID
AQABo4IBYzCCAV8wCQYDVR0TBAIwADAtBglghkgBhvhCAQ0EIBYeRWFzeS1SU0Eg
R2VuZXJhdGVkIENlcnRpZmljYXRlMB0GA1UdDgQWBBR6hl/6RTQvoTe3vFZtRvjI
G9kaUDCB4QYDVR0jBIHZMIHWgBQSzWAE0qCAnnDtxpm4eyzGUv0ZoaGBsqSBrzCB
rDELMAkGA1UEBhMCVVMxCzAJBgNVBAgTAk9IMREwDwYDVQQHEwhDb2x1bWJ1czES
MBAGA1UEChMJVmlraW5nVlBOMR0wGwYDVQQLExRNeU9yZ2FuaXphdGlvbmFsVW5p
dDEVMBMGA1UEAxMMVmlraW5nVlBOIENBMRAwDgYDVQQpEwdFYXN5UlNBMSEwHwYJ
KoZIhvcNAQkBFhJtZUBteWhvc3QubXlkb21haW6CCQDPNYXugL8qPjATBgNVHSUE
DDAKBggrBgEFBQcDAjALBgNVHQ8EBAMCB4AwDQYJKoZIhvcNAQEEBQADggIBABXf
QpHZKizv6XiJ2JyPatUqADUlnHlui0Eln0sUu3FaS39G3rYmcKpylidhwMm2XxT0
vxdC9emdP3/2r6/TfSrE3Aye2AO/ifFNrUe73+f6tsarqeCZ3m1Xs6MaxKpkkTAU
eQy51omv6EKT2u38Xj9C6K+huLrjmh/sJbBAQFh3sVgQ0kf/V/Hk8G5UNrPwlOku
aguZDtVYgAPtfsSgWUgTYnPLZxuv4KfvjaPEtrFXClcKBx7k0dqshUzOeuWbJbLF
Mco9svKgPmXZz+E1MTlLizSBc3VizkBV9wwBvHFgRN8uWDFuoBr+SLwrzOOYBzE8
m8FjPtv2nCrNFQwdDOrGw6fG4mz2nEOR1aP9//Qzfw5eTPkzUf5sNaY2LZ9e7uNT
DtJZMj8/tyoGEUV2oG0jZnEsb/s+XwCdyF0usL7DvuduCKr35c9d98+3bcT5/Qy3
qbydmRr4aJUz8D7ITr7B1VsSYda+7opbeI51V0s5L9+yUtMJp5q5TNNUH76rlkmg
hVHYb7U2lBRFMFm2Gvdxtsdw5MmIxntPtelUHCRyziz9QqQ1/q0WwxwZN0C/RZIs
S2iZiUyDHDj3d5RWwpN1w4MXSK7CkWI+SlY5VrO/rm8sxyeTrN0pW2VobuWbXY0n
ziEa1tlG0jA783lqzVkMl4V9HRcKuRpYq/0/+QEO
-----END CERTIFICATE-----
