Certificate:
    Data:
        Version: 3 (0x2)
        Serial Number: 11227 (0x2bdb)
    Signature Algorithm: sha256WithRSAEncryption
        Issuer: C=US, ST=OH, L=Columbus, O=VikingVPN, OU=MyOrganizationalUnit, CN=VikingVPN CA/name=EasyRSA/emailAddress=me@myhost.mydomain
        Validity
            Not Before: Jul  4 18:01:06 2017 GMT
            Not After : Jul  2 18:01:06 2027 GMT
        Subject: CN=Client2904Certe198a7
        Subject Public Key Info:
            Public Key Algorithm: rsaEncryption
                Public-Key: (4096 bit)
                Modulus:
                    00:b4:6b:bc:60:b2:15:d1:ef:53:b3:95:e3:e0:ef:
                    2b:ba:41:9c:2f:c9:a2:ff:69:3d:96:19:c3:e8:97:
                    73:29:7a:47:7b:e5:b7:b6:fb:fd:25:7f:4b:29:45:
                    95:b3:b1:58:72:36:b7:9d:e2:cc:ee:25:01:35:ac:
                    a9:f7:ea:98:d2:10:7f:27:8d:fb:9f:4a:5b:35:1e:
                    74:30:32:21:00:d7:c9:c1:ca:23:d1:7e:20:20:17:
                    96:e4:d4:d6:43:6e:5d:55:6d:5f:5b:bc:d9:82:b5:
                    40:49:b4:90:68:68:3b:a6:90:bf:36:d0:d0:11:78:
                    7c:c6:70:bf:f9:0b:c8:4b:4c:b8:3d:08:4d:50:c0:
                    6a:90:f4:2e:47:83:8e:3e:83:1a:84:ad:43:ff:4d:
                    94:2b:2a:a1:0c:7a:dd:db:b7:a9:59:d2:7d:fa:3e:
                    95:e5:31:04:6b:5e:5a:d1:44:04:30:4d:25:76:7a:
                    c1:cb:10:39:13:7e:fc:b7:7e:ee:7d:8c:71:29:a3:
                    d6:a0:a7:61:29:b9:13:03:76:1c:4c:8e:f0:7a:04:
                    cc:14:cd:63:2c:bf:0f:31:50:4c:35:76:c7:0b:da:
                    97:9b:5c:26:6c:35:c3:14:2b:40:3e:1f:13:3a:be:
                    da:0f:75:a1:ad:b4:a3:1b:bb:00:e9:88:b8:2d:f6:
                    b8:e1:15:20:b8:b5:00:c3:63:d1:6d:6e:7c:cc:87:
                    dc:30:db:9c:b6:9b:81:cf:29:31:79:df:d7:c8:59:
                    01:4f:c1:de:13:b7:cd:49:a9:dc:c3:8d:71:b3:e3:
                    b1:26:19:c9:7e:66:88:b9:38:eb:77:17:13:30:9f:
                    52:b3:42:29:c6:fe:e1:60:e3:98:69:8f:48:b5:0f:
                    18:9d:a8:ec:22:d5:53:bf:ae:88:ad:36:1f:bd:3d:
                    9b:8e:0c:2b:86:83:5f:c3:05:41:86:bb:79:4b:f5:
                    3f:1f:63:90:43:6d:ee:4b:1c:f1:a6:b9:c4:92:22:
                    27:ab:ec:5c:1b:d0:c8:70:43:ec:ae:6f:d5:ce:b0:
                    57:2a:88:81:d2:b2:af:b7:c0:5f:56:e3:01:b4:c2:
                    13:ae:f1:4c:2e:b8:ad:a4:d4:62:5c:a3:03:52:2a:
                    0c:e0:e6:07:93:d2:1c:49:9f:c0:14:a2:f7:08:9d:
                    3b:bb:3b:b9:52:0d:6e:dc:ab:76:80:26:b9:e6:6a:
                    94:c5:89:a1:e5:8b:94:7a:8b:a3:42:4f:8f:13:f5:
                    ed:b7:16:47:d2:16:a8:6b:0c:7b:0d:f7:8f:17:22:
                    77:a0:8b:a6:d5:ee:93:5f:fd:cf:43:96:16:d8:74:
                    4f:b7:33:af:cb:60:28:80:29:0a:68:37:90:52:b5:
                    90:53:b1
                Exponent: 65537 (0x10001)
        X509v3 extensions:
            X509v3 Basic Constraints: 
                CA:FALSE
            Netscape Comment: 
                Easy-RSA Generated Certificate
            X509v3 Subject Key Identifier: 
                D2:87:FE:06:AD:8B:96:E9:B7:FB:FB:27:B2:33:75:FA:DD:61:0E:8E
            X509v3 Authority Key Identifier: 
                keyid:12:CD:60:04:D2:A0:80:9E:70:ED:C6:99:B8:7B:2C:C6:52:FD:19:A1
                DirName:/C=US/ST=OH/L=Columbus/O=VikingVPN/OU=MyOrganizationalUnit/CN=VikingVPN CA/name=EasyRSA/emailAddress=me@myhost.mydomain
                serial:CF:35:85:EE:80:BF:2A:3E

            X509v3 Extended Key Usage: 
                TLS Web Client Authentication
            X509v3 Key Usage: 
                Digital Signature
    Signature Algorithm: sha256WithRSAEncryption
         6e:74:08:d8:30:67:5b:7e:06:97:e7:ee:45:f9:da:3a:4b:4e:
         08:18:d4:ec:3f:a4:53:ad:a3:fe:7d:3d:04:2d:29:28:be:6e:
         f7:47:e5:ec:33:ac:62:10:6a:e9:6f:d0:d1:19:f3:02:b6:fa:
         e5:6c:b8:46:0d:23:e0:1d:fd:f3:b2:38:84:ab:98:ae:14:72:
         cf:b0:d6:74:b0:68:03:c5:1e:25:9c:9e:05:31:5a:13:31:be:
         5b:26:7d:86:45:b0:81:59:47:72:aa:eb:97:b5:b4:c4:f2:4e:
         67:8f:24:9a:63:00:2b:c0:e1:e2:cd:c8:f8:d5:0c:60:a9:9e:
         cb:37:bf:1f:11:68:e6:82:af:b4:b3:83:a5:c7:0b:3c:c5:b8:
         cf:69:dc:b0:4a:7d:38:32:6e:a7:80:67:f9:0b:90:e7:d0:a3:
         c9:03:d1:d1:f1:29:8b:34:14:aa:7a:32:87:0c:7f:23:5f:3e:
         a8:bc:0b:d8:f8:52:01:32:46:55:b4:1c:e1:eb:0e:46:8e:3a:
         88:ef:4c:7a:56:57:c8:58:7e:25:d2:eb:65:61:07:dd:64:80:
         07:8f:31:10:f7:9b:2a:f7:68:48:45:40:ae:3f:f9:99:66:13:
         97:85:e6:90:8f:bf:07:5a:48:08:f5:e1:56:4b:bd:e3:8d:8b:
         ff:8e:4e:0a:24:08:0e:48:70:eb:3b:59:59:40:64:92:8b:2f:
         b5:61:b7:76:d6:f2:f7:54:c9:40:46:ba:4f:fa:75:0b:52:a3:
         ca:d3:78:16:d3:04:db:6c:21:29:b1:68:cf:5e:f1:3f:9d:fb:
         bb:02:01:08:cf:c0:df:32:a7:7b:c4:c7:3f:0f:62:43:3e:5e:
         69:96:60:04:ce:45:5b:ef:3d:8d:12:71:17:39:a8:4a:26:21:
         ba:d6:e7:51:4e:02:02:37:da:52:9c:b4:35:c3:35:6d:b6:68:
         49:45:2d:07:01:64:36:3d:12:63:2f:4c:47:c9:7c:33:04:5f:
         c5:12:78:b1:4c:3f:6c:a1:75:fa:44:04:ad:f2:6f:43:0a:e9:
         7e:17:e8:95:9d:23:51:59:4e:01:c9:71:f7:ab:06:21:a2:d4:
         92:85:c7:7e:93:d7:61:e0:9d:fc:7f:6f:da:57:b8:e2:f3:64:
         25:45:d7:2d:7f:c7:96:c3:f0:4d:02:93:a6:5c:a6:e3:f5:6d:
         a8:51:4e:d1:8c:7f:41:0e:c9:e7:dd:2b:a6:96:fb:f2:e1:93:
         85:51:b0:fb:b2:c1:d5:ab:31:45:82:90:ef:26:df:2c:c0:ee:
         8a:ee:72:12:51:cf:23:69:53:41:2c:3f:d3:93:44:85:65:c4:
         bb:19:fb:91:57:fa:38:ad
-----BEGIN CERTIFICATE-----
MIIGrTCCBJWgAwIBAgICK9swDQYJKoZIhvcNAQELBQAwgawxCzAJBgNVBAYTAlVT
MQswCQYDVQQIEwJPSDERMA8GA1UEBxMIQ29sdW1idXMxEjAQBgNVBAoTCVZpa2lu
Z1ZQTjEdMBsGA1UECxMUTXlPcmdhbml6YXRpb25hbFVuaXQxFTATBgNVBAMTDFZp
a2luZ1ZQTiBDQTEQMA4GA1UEKRMHRWFzeVJTQTEhMB8GCSqGSIb3DQEJARYSbWVA
bXlob3N0Lm15ZG9tYWluMB4XDTE3MDcwNDE4MDEwNloXDTI3MDcwMjE4MDEwNlow
HzEdMBsGA1UEAxMUQ2xpZW50MjkwNENlcnRlMTk4YTcwggIiMA0GCSqGSIb3DQEB
AQUAA4ICDwAwggIKAoICAQC0a7xgshXR71OzlePg7yu6QZwvyaL/aT2WGcPol3Mp
ekd75be2+/0lf0spRZWzsVhyNred4szuJQE1rKn36pjSEH8njfufSls1HnQwMiEA
18nByiPRfiAgF5bk1NZDbl1VbV9bvNmCtUBJtJBoaDumkL820NAReHzGcL/5C8hL
TLg9CE1QwGqQ9C5Hg44+gxqErUP/TZQrKqEMet3bt6lZ0n36PpXlMQRrXlrRRAQw
TSV2esHLEDkTfvy3fu59jHEpo9agp2EpuRMDdhxMjvB6BMwUzWMsvw8xUEw1dscL
2pebXCZsNcMUK0A+HxM6vtoPdaGttKMbuwDpiLgt9rjhFSC4tQDDY9FtbnzMh9ww
25y2m4HPKTF539fIWQFPwd4Tt81JqdzDjXGz47EmGcl+Zoi5OOt3FxMwn1KzQinG
/uFg45hpj0i1DxidqOwi1VO/roitNh+9PZuODCuGg1/DBUGGu3lL9T8fY5BDbe5L
HPGmucSSIier7Fwb0MhwQ+yub9XOsFcqiIHSsq+3wF9W4wG0whOu8UwuuK2k1GJc
owNSKgzg5geT0hxJn8AUovcInTu7O7lSDW7cq3aAJrnmapTFiaHli5R6i6NCT48T
9e23FkfSFqhrDHsN948XInegi6bV7pNf/c9DlhbYdE+3M6/LYCiAKQpoN5BStZBT
sQIDAQABo4IBYzCCAV8wCQYDVR0TBAIwADAtBglghkgBhvhCAQ0EIBYeRWFzeS1S
U0EgR2VuZXJhdGVkIENlcnRpZmljYXRlMB0GA1UdDgQWBBTSh/4GrYuW6bf7+yey
M3X63WEOjjCB4QYDVR0jBIHZMIHWgBQSzWAE0qCAnnDtxpm4eyzGUv0ZoaGBsqSB
rzCBrDELMAkGA1UEBhMCVVMxCzAJBgNVBAgTAk9IMREwDwYDVQQHEwhDb2x1bWJ1
czESMBAGA1UEChMJVmlraW5nVlBOMR0wGwYDVQQLExRNeU9yZ2FuaXphdGlvbmFs
VW5pdDEVMBMGA1UEAxMMVmlraW5nVlBOIENBMRAwDgYDVQQpEwdFYXN5UlNBMSEw
HwYJKoZIhvcNAQkBFhJtZUBteWhvc3QubXlkb21haW6CCQDPNYXugL8qPjATBgNV
HSUEDDAKBggrBgEFBQcDAjALBgNVHQ8EBAMCB4AwDQYJKoZIhvcNAQELBQADggIB
AG50CNgwZ1t+Bpfn7kX52jpLTggY1Ow/pFOto/59PQQtKSi+bvdH5ewzrGIQaulv
0NEZ8wK2+uVsuEYNI+Ad/fOyOISrmK4Ucs+w1nSwaAPFHiWcngUxWhMxvlsmfYZF
sIFZR3Kq65e1tMTyTmePJJpjACvA4eLNyPjVDGCpnss3vx8RaOaCr7Szg6XHCzzF
uM9p3LBKfTgybqeAZ/kLkOfQo8kD0dHxKYs0FKp6MocMfyNfPqi8C9j4UgEyRlW0
HOHrDkaOOojvTHpWV8hYfiXS62VhB91kgAePMRD3myr3aEhFQK4/+ZlmE5eF5pCP
vwdaSAj14VZLveONi/+OTgokCA5IcOs7WVlAZJKLL7Vht3bW8vdUyUBGuk/6dQtS
o8rTeBbTBNtsISmxaM9e8T+d+7sCAQjPwN8yp3vExz8PYkM+XmmWYATORVvvPY0S
cRc5qEomIbrW51FOAgI32lKctDXDNW22aElFLQcBZDY9EmMvTEfJfDMEX8USeLFM
P2yhdfpEBK3yb0MK6X4X6JWdI1FZTgHJcferBiGi1JKFx36T12Hgnfx/b9pXuOLz
ZCVF1y1/x5bD8E0Ck6ZcpuP1bahRTtGMf0EOyefdK6aW+/Lhk4VRsPuywdWrMUWC
kO8m3yzA7oruchJRzyNpU0EsP9OTRIVlxLsZ+5FX+jit
-----END CERTIFICATE-----
