Certificate:
    Data:
        Version: 3 (0x2)
        Serial Number: 3771 (0xebb)
    Signature Algorithm: md5WithRSAEncryption
        Issuer: C=US, ST=OH, L=Columbus, O=VikingVPN, OU=MyOrganizationalUnit, CN=VikingVPN CA/name=EasyRSA/emailAddress=me@myhost.mydomain
        Validity
            Not Before: Dec 25 01:02:13 2014 GMT
            Not After : Dec 22 01:02:13 2024 GMT
        Subject: CN=Client933Certbfa618
        Subject Public Key Info:
            Public Key Algorithm: rsaEncryption
                Public-Key: (4096 bit)
                Modulus:
                    00:b9:88:5c:d4:0a:8b:91:67:ac:5c:60:03:85:c4:
                    6c:66:67:73:4e:1e:88:24:e7:7e:bb:0b:6b:47:a1:
                    6e:cc:0c:f8:c6:5b:9d:d9:56:0a:c2:e4:d3:6f:7c:
                    73:04:e7:dc:95:b7:d9:5b:54:ad:4e:4e:c2:25:ef:
                    04:85:af:44:9a:01:d9:a6:4a:35:71:c2:cf:bd:08:
                    4b:f8:dc:e7:40:2e:4f:1e:05:c5:e8:14:43:43:36:
                    c6:d8:b9:37:ac:08:f3:5d:7c:d2:96:2c:7f:ca:50:
                    07:a6:d5:30:31:3b:06:ef:04:4b:35:8a:3f:53:46:
                    38:92:f7:4b:64:0c:c9:d1:48:af:a8:9b:e9:4c:b6:
                    44:a0:a7:4c:f9:33:a2:b5:77:ed:6e:e5:d8:d5:54:
                    ae:16:41:f5:8d:85:24:74:18:87:11:9b:73:0a:58:
                    7a:d0:43:f5:6b:60:e4:40:25:5f:6c:0f:d6:fb:95:
                    b9:be:f4:09:43:1d:2d:c6:b2:b1:f9:8f:6d:ac:61:
                    94:58:b2:8b:27:77:c4:9f:4f:02:cb:b2:ea:b7:97:
                    78:99:f9:46:7c:2d:92:ef:10:52:bc:f4:98:98:2d:
                    e3:72:bb:6d:16:10:5b:91:ee:39:da:28:8a:21:dc:
                    67:aa:dd:e6:a3:83:52:ee:63:19:23:26:f1:7c:3f:
                    7c:f3:36:17:de:00:c8:12:5e:33:85:65:74:ab:1a:
                    3a:3b:3f:f7:62:97:8e:43:8e:5d:c9:8a:32:da:64:
                    e3:cc:c2:e5:7a:f5:7f:58:89:cf:80:32:8f:ee:23:
                    68:13:5e:e0:3e:9e:bb:7f:c6:4b:c8:36:d5:69:78:
                    0e:fb:db:79:08:42:11:4d:c7:83:77:3c:ab:97:16:
                    d5:36:d6:1a:49:64:4d:f6:e3:b0:19:35:cc:4c:a5:
                    0f:50:f9:d3:f3:8d:fe:e3:62:18:c3:b9:97:3a:4c:
                    3d:17:99:7f:58:ef:f6:25:34:a7:4e:ab:a9:bf:a9:
                    7e:13:ed:0c:07:b8:44:1b:92:08:e2:81:ac:b4:65:
                    40:13:e0:57:38:55:2f:a1:ab:0f:f7:15:02:17:95:
                    a7:e1:6f:82:22:16:59:fc:21:7b:b1:13:7a:da:6d:
                    31:54:d0:5a:be:0f:1d:86:f6:21:0d:d4:fb:e9:b4:
                    93:0f:e8:32:47:49:0d:26:50:27:e8:00:82:a2:d7:
                    fe:e2:f5:9b:66:35:53:af:ab:bc:30:fc:ca:c5:0e:
                    d7:fa:c1:1f:80:b8:65:ef:3e:38:c5:6c:ed:f5:47:
                    8e:f5:1b:3a:4f:11:7c:db:f3:56:c3:7a:4b:7c:74:
                    fc:50:ce:6a:9a:bb:97:c3:f4:33:c2:02:97:a1:2e:
                    ca:5c:8b
                Exponent: 65537 (0x10001)
        X509v3 extensions:
            X509v3 Basic Constraints: 
                CA:FALSE
            Netscape Comment: 
                Easy-RSA Generated Certificate
            X509v3 Subject Key Identifier: 
                D1:B1:72:50:E9:FE:B5:FF:34:58:89:A3:F1:4B:C2:73:0A:65:5C:91
            X509v3 Authority Key Identifier: 
                keyid:12:CD:60:04:D2:A0:80:9E:70:ED:C6:99:B8:7B:2C:C6:52:FD:19:A1
                DirName:/C=US/ST=OH/L=Columbus/O=VikingVPN/OU=MyOrganizationalUnit/CN=VikingVPN CA/name=EasyRSA/emailAddress=me@myhost.mydomain
                serial:CF:35:85:EE:80:BF:2A:3E

            X509v3 Extended Key Usage: 
                TLS Web Client Authentication
            X509v3 Key Usage: 
                Digital Signature
    Signature Algorithm: md5WithRSAEncryption
         02:a0:25:9d:ae:77:ca:28:23:ce:e4:9d:d2:24:ab:ef:97:ac:
         30:ff:81:9c:ae:df:7a:52:e0:dd:f2:1a:e3:8c:0d:55:15:f0:
         7d:98:cc:91:2c:a3:98:d6:a7:ee:d9:d6:f1:56:2d:59:1e:27:
         b7:e2:fb:d5:8b:aa:ef:25:9d:fa:c7:64:52:e2:e8:3a:95:c6:
         5b:57:88:29:a8:22:61:82:3f:9c:bc:dc:98:4c:6d:10:e1:c3:
         6f:8f:65:dd:10:e7:af:06:8d:b7:26:bf:a7:62:b3:ac:73:27:
         31:8f:24:e3:ed:42:f3:41:d2:ee:6b:29:99:d8:de:b7:e9:af:
         49:94:1c:c6:9f:a0:43:0d:2e:34:bf:da:20:4a:89:78:c5:b1:
         80:e4:f8:de:14:f7:10:86:d4:07:62:a1:f4:56:57:2d:c2:07:
         86:14:87:7c:00:43:59:70:f3:b1:38:7c:f8:de:76:e4:af:df:
         67:3d:7c:18:6b:f1:dd:25:63:0b:b8:fc:23:a9:9c:1a:9d:fb:
         c4:b5:68:5c:10:86:e0:b6:b5:5c:7c:52:31:48:70:ea:11:fd:
         4e:71:36:5f:eb:5a:f9:11:dd:79:14:4c:76:f1:82:cb:d2:e4:
         41:f4:d0:ca:ff:15:0f:01:5c:ea:60:bb:13:96:29:fa:21:3d:
         14:09:9d:16:f5:2f:61:fa:5d:eb:ef:5d:71:45:4d:2c:27:d8:
         15:5e:e7:40:51:8a:38:95:e0:97:d4:5a:bb:12:fd:ec:c5:a7:
         08:fb:32:57:f8:17:9f:15:99:fb:18:ca:97:ed:8f:4f:d0:f7:
         00:dc:2e:e6:a7:0b:04:1c:14:d0:ff:ed:bd:ae:8f:48:30:24:
         b3:5b:b5:47:95:01:61:f1:44:ad:0e:8f:82:b1:c7:29:a7:1e:
         1a:71:20:af:ec:c2:3d:a3:9b:46:97:df:3a:ab:8e:5c:53:1d:
         89:8c:99:51:45:7c:e5:c2:ae:3a:c0:89:0f:a1:4c:1a:0d:93:
         6b:59:10:ba:6d:1d:95:c1:4a:4b:d3:93:f1:04:66:3b:c8:53:
         dd:ee:55:41:fe:39:cb:65:36:4a:15:23:42:da:05:78:f3:97:
         d3:57:6f:a4:e7:c0:07:8d:b7:24:41:8a:7e:2c:64:aa:7e:ba:
         26:4a:c3:19:9b:b3:19:0e:60:ea:4c:8b:17:b1:52:8f:ec:f4:
         e4:93:f2:61:ef:c5:be:13:0d:61:e7:be:2f:87:3e:33:d9:c8:
         3c:90:87:43:35:30:f6:cf:ea:d3:10:ba:23:03:1f:76:cd:b1:
         9e:f6:fa:77:7f:23:b2:48:e8:45:1f:e4:90:d2:b2:db:3f:8c:
         c9:e1:74:91:e8:59:e2:f4
-----BEGIN CERTIFICATE-----
MIIGrDCCBJSgAwIBAgICDrswDQYJKoZIhvcNAQEEBQAwgawxCzAJBgNVBAYTAlVT
MQswCQYDVQQIEwJPSDERMA8GA1UEBxMIQ29sdW1idXMxEjAQBgNVBAoTCVZpa2lu
Z1ZQTjEdMBsGA1UECxMUTXlPcmdhbml6YXRpb25hbFVuaXQxFTATBgNVBAMTDFZp
a2luZ1ZQTiBDQTEQMA4GA1UEKRMHRWFzeVJTQTEhMB8GCSqGSIb3DQEJARYSbWVA
bXlob3N0Lm15ZG9tYWluMB4XDTE0MTIyNTAxMDIxM1oXDTI0MTIyMjAxMDIxM1ow
HjEcMBoGA1UEAxMTQ2xpZW50OTMzQ2VydGJmYTYxODCCAiIwDQYJKoZIhvcNAQEB
BQADggIPADCCAgoCggIBALmIXNQKi5FnrFxgA4XEbGZnc04eiCTnfrsLa0ehbswM
+MZbndlWCsLk0298cwTn3JW32VtUrU5OwiXvBIWvRJoB2aZKNXHCz70IS/jc50Au
Tx4FxegUQ0M2xti5N6wI81180pYsf8pQB6bVMDE7Bu8ESzWKP1NGOJL3S2QMydFI
r6ib6Uy2RKCnTPkzorV37W7l2NVUrhZB9Y2FJHQYhxGbcwpYetBD9Wtg5EAlX2wP
1vuVub70CUMdLcaysfmPbaxhlFiyiyd3xJ9PAsuy6reXeJn5Rnwtku8QUrz0mJgt
43K7bRYQW5HuOdooiiHcZ6rd5qODUu5jGSMm8Xw/fPM2F94AyBJeM4VldKsaOjs/
92KXjkOOXcmKMtpk48zC5Xr1f1iJz4Ayj+4jaBNe4D6eu3/GS8g21Wl4DvvbeQhC
EU3Hg3c8q5cW1TbWGklkTfbjsBk1zEylD1D50/ON/uNiGMO5lzpMPReZf1jv9iU0
p06rqb+pfhPtDAe4RBuSCOKBrLRlQBPgVzhVL6GrD/cVAheVp+FvgiIWWfwhe7ET
etptMVTQWr4PHYb2IQ3U++m0kw/oMkdJDSZQJ+gAgqLX/uL1m2Y1U6+rvDD8ysUO
1/rBH4C4Ze8+OMVs7fVHjvUbOk8RfNvzVsN6S3x0/FDOapq7l8P0M8ICl6EuylyL
AgMBAAGjggFjMIIBXzAJBgNVHRMEAjAAMC0GCWCGSAGG+EIBDQQgFh5FYXN5LVJT
QSBHZW5lcmF0ZWQgQ2VydGlmaWNhdGUwHQYDVR0OBBYEFNGxclDp/rX/NFiJo/FL
wnMKZVyRMIHhBgNVHSMEgdkwgdaAFBLNYATSoICecO3Gmbh7LMZS/RmhoYGypIGv
MIGsMQswCQYDVQQGEwJVUzELMAkGA1UECBMCT0gxETAPBgNVBAcTCENvbHVtYnVz
MRIwEAYDVQQKEwlWaWtpbmdWUE4xHTAbBgNVBAsTFE15T3JnYW5pemF0aW9uYWxV
bml0MRUwEwYDVQQDEwxWaWtpbmdWUE4gQ0ExEDAOBgNVBCkTB0Vhc3lSU0ExITAf
BgkqhkiG9w0BCQEWEm1lQG15aG9zdC5teWRvbWFpboIJAM81he6Avyo+MBMGA1Ud
JQQMMAoGCCsGAQUFBwMCMAsGA1UdDwQEAwIHgDANBgkqhkiG9w0BAQQFAAOCAgEA
AqAlna53yigjzuSd0iSr75esMP+BnK7felLg3fIa44wNVRXwfZjMkSyjmNan7tnW
8VYtWR4nt+L71Yuq7yWd+sdkUuLoOpXGW1eIKagiYYI/nLzcmExtEOHDb49l3RDn
rwaNtya/p2KzrHMnMY8k4+1C80HS7mspmdjet+mvSZQcxp+gQw0uNL/aIEqJeMWx
gOT43hT3EIbUB2Kh9FZXLcIHhhSHfABDWXDzsTh8+N525K/fZz18GGvx3SVjC7j8
I6mcGp37xLVoXBCG4La1XHxSMUhw6hH9TnE2X+ta+RHdeRRMdvGCy9LkQfTQyv8V
DwFc6mC7E5Yp+iE9FAmdFvUvYfpd6+9dcUVNLCfYFV7nQFGKOJXgl9RauxL97MWn
CPsyV/gXnxWZ+xjKl+2PT9D3ANwu5qcLBBwU0P/tva6PSDAks1u1R5UBYfFErQ6P
grHHKaceGnEgr+zCPaObRpffOquOXFMdiYyZUUV85cKuOsCJD6FMGg2Ta1kQum0d
lcFKS9OT8QRmO8hT3e5VQf45y2U2ShUjQtoFePOX01dvpOfAB423JEGKfixkqn66
JkrDGZuzGQ5g6kyLF7FSj+z05JPyYe/FvhMNYee+L4c+M9nIPJCHQzUw9s/q0xC6
IwMfds2xnvb6d38jskjoRR/kkNKy2z+MyeF0kehZ4vQ=
-----END CERTIFICATE-----
