Certificate:
    Data:
        Version: 3 (0x2)
        Serial Number: 1037 (0x40d)
    Signature Algorithm: md5WithRSAEncryption
        Issuer: C=US, ST=OH, L=Columbus, O=VikingVPN, OU=MyOrganizationalUnit, CN=VikingVPN CA/name=EasyRSA/emailAddress=me@myhost.mydomain
        Validity
            Not Before: Feb 13 16:13:00 2014 GMT
            Not After : Feb 11 16:13:00 2024 GMT
        Subject: CN=Client378Cert3c3a9f
        Subject Public Key Info:
            Public Key Algorithm: rsaEncryption
                Public-Key: (4096 bit)
                Modulus:
                    00:d9:74:3b:80:a6:45:76:2e:bb:56:03:87:cc:3e:
                    45:74:fb:10:dd:70:99:83:e3:70:e3:09:aa:86:15:
                    94:8d:a6:c0:93:7a:2c:ee:c3:47:ac:dd:6e:8e:c0:
                    a8:0d:ba:61:43:51:0e:ce:ec:80:cb:89:00:ba:35:
                    ab:00:94:80:a9:a5:46:b5:6b:59:f8:31:8c:fe:a0:
                    c8:a4:7b:ce:52:12:b2:0b:d6:de:d2:aa:29:10:a7:
                    8c:bd:de:15:42:cb:7b:29:c3:6d:9e:30:c4:3b:8a:
                    db:92:0a:7c:68:48:41:00:3d:cf:27:ea:5f:c3:eb:
                    9a:a6:91:11:d6:ec:e5:48:cc:3b:5b:9a:45:92:b3:
                    80:d3:f9:73:1d:6b:56:f2:87:b3:b0:f2:e3:cc:de:
                    27:fd:e0:12:8b:58:57:17:37:00:28:7f:0a:88:ad:
                    3c:ff:91:b0:ad:ba:c9:7b:88:ec:cc:91:e3:75:6a:
                    ff:fb:e0:f9:0b:0d:7f:4f:14:02:60:f8:ef:2a:57:
                    31:aa:38:86:46:61:c4:27:d1:31:e6:9b:0a:37:8d:
                    ee:08:62:f3:79:01:3b:4d:17:7a:c9:00:8d:b1:02:
                    3b:7e:85:1f:fd:08:cb:b6:f9:4d:47:e0:42:63:5b:
                    e0:ff:c1:b4:c3:3b:81:67:67:41:eb:ae:99:01:42:
                    67:3d:57:3a:54:75:28:77:f4:1c:b7:57:2c:e9:5a:
                    64:25:50:88:2a:45:c8:e8:f5:cf:10:f1:45:6d:85:
                    8c:68:cd:ee:d2:c4:cf:50:2a:96:74:65:ab:16:d2:
                    35:a2:bd:f9:e4:d4:1d:04:22:59:96:2a:90:b1:28:
                    3c:67:48:8d:dc:ab:66:51:b8:c4:d7:8c:ef:2d:6a:
                    f5:15:6f:5f:d4:33:84:96:73:bd:98:82:ce:0f:3b:
                    a2:f1:9a:9b:93:fb:38:07:67:6a:3c:18:41:d6:06:
                    31:e6:1c:9e:37:df:5f:78:84:d2:1e:69:94:7a:d9:
                    1d:bf:a2:f0:5d:3b:20:1c:8d:b4:8d:e8:db:73:42:
                    1d:0e:df:d5:a1:ee:d8:69:6b:51:39:e6:88:bf:f4:
                    19:a9:5a:55:fc:79:34:a9:10:4b:92:6b:4e:f1:8c:
                    c9:57:b0:a8:54:8f:2b:9f:4f:df:22:b6:7e:dc:57:
                    83:82:5a:e5:34:c4:6c:4e:c0:10:ae:d1:58:67:24:
                    00:7f:73:38:ea:f9:6f:81:ef:1d:8b:2e:8d:49:e9:
                    f3:3d:7d:c0:69:13:86:25:8d:16:12:62:09:04:b7:
                    c1:d1:75:5a:86:aa:0b:80:9a:19:f7:c1:57:f6:3e:
                    96:52:87:27:03:57:ba:f1:91:76:d9:55:ac:0c:20:
                    f9:8f:cf
                Exponent: 65537 (0x10001)
        X509v3 extensions:
            X509v3 Basic Constraints: 
                CA:FALSE
            Netscape Comment: 
                Easy-RSA Generated Certificate
            X509v3 Subject Key Identifier: 
                77:A5:FB:88:22:56:DF:54:BF:B2:B2:EE:21:87:7B:C1:8F:57:36:71
            X509v3 Authority Key Identifier: 
                keyid:12:CD:60:04:D2:A0:80:9E:70:ED:C6:99:B8:7B:2C:C6:52:FD:19:A1
                DirName:/C=US/ST=OH/L=Columbus/O=VikingVPN/OU=MyOrganizationalUnit/CN=VikingVPN CA/name=EasyRSA/emailAddress=me@myhost.mydomain
                serial:CF:35:85:EE:80:BF:2A:3E

            X509v3 Extended Key Usage: 
                TLS Web Client Authentication
            X509v3 Key Usage: 
                Digital Signature
    Signature Algorithm: md5WithRSAEncryption
         c7:70:9b:9e:22:76:01:c4:2d:6b:1b:97:76:c0:d3:35:50:a1:
         94:fd:68:5c:71:d2:14:00:ee:88:2b:29:7a:09:fa:e6:fc:77:
         0c:6e:8a:56:76:2d:ed:0a:7e:fe:0b:cd:ac:96:cc:f4:01:fe:
         ce:ef:64:b4:fa:39:f7:63:50:61:28:d4:a6:74:98:0a:db:74:
         72:aa:29:e6:d2:64:0a:b7:57:49:71:7c:20:c2:98:3c:b6:27:
         f9:ba:59:ad:ef:1d:9c:16:81:a8:01:c8:b3:d2:d6:da:1d:80:
         c7:7d:64:56:5f:ac:30:e0:e8:7e:3b:c2:66:5a:69:05:19:c3:
         f2:b7:46:ca:c5:6e:2f:9b:5d:f0:4f:0d:1e:f6:5b:57:c1:d0:
         8c:2c:b2:78:64:42:d3:d1:6a:74:6d:cb:bd:ed:fc:9e:87:fa:
         0f:63:83:8b:a8:db:cc:93:40:2d:4f:a9:51:53:26:b9:11:03:
         4b:40:9e:6b:06:d1:b7:2c:a2:cb:20:8b:bb:e7:60:57:f1:29:
         4d:60:80:1e:02:bf:80:47:bc:45:71:2e:cc:44:e0:e2:03:f6:
         81:a7:26:6d:d3:b4:f6:f2:a5:7a:f9:b2:6b:3d:b5:74:2f:47:
         4b:44:41:33:44:5e:92:63:68:e0:31:9f:af:89:5d:e6:47:b8:
         c0:5a:64:a1:9d:51:23:be:cd:65:c6:8c:04:a6:aa:d5:34:f8:
         b5:a0:88:3e:a8:1c:4f:80:62:cb:73:17:72:65:58:15:af:01:
         e2:a6:02:80:d7:8a:19:57:c3:a5:63:18:87:23:89:62:19:57:
         bb:4c:39:95:2c:d3:83:08:d7:f5:1a:b8:2a:c0:26:3e:ae:05:
         6c:87:0f:25:5f:fa:34:47:2f:f0:69:21:6b:93:41:44:29:85:
         37:de:5f:9a:6b:65:26:bf:cf:a9:78:f1:2f:32:04:31:5f:cc:
         e6:03:7c:fc:ef:54:0b:10:2e:8d:cc:cc:d9:4a:33:92:d4:74:
         21:6d:9a:2b:9f:4b:4c:4b:6e:19:25:dd:f9:e2:4d:a1:6f:95:
         81:c0:1f:65:68:3a:ef:89:ad:64:11:8c:b4:a9:1b:8f:53:70:
         62:03:8c:aa:66:c9:8a:e2:8c:42:36:d0:6f:2c:b8:df:4d:3c:
         ad:f2:f8:f4:0c:4b:64:5d:2a:70:4e:1a:d2:8e:b1:b4:c5:12:
         1f:b7:ba:bb:dd:03:08:e9:3d:b3:98:63:34:23:6e:3b:55:de:
         c5:67:d9:ef:1b:29:5b:a1:c4:f7:d2:e8:2f:8e:d8:42:c7:c0:
         1e:a0:11:39:18:a5:5f:c9:95:7f:38:6e:cc:ac:f7:8f:7f:2c:
         e4:a2:82:c3:40:a4:ce:e8
-----BEGIN CERTIFICATE-----
MIIGrDCCBJSgAwIBAgICBA0wDQYJKoZIhvcNAQEEBQAwgawxCzAJBgNVBAYTAlVT
MQswCQYDVQQIEwJPSDERMA8GA1UEBxMIQ29sdW1idXMxEjAQBgNVBAoTCVZpa2lu
Z1ZQTjEdMBsGA1UECxMUTXlPcmdhbml6YXRpb25hbFVuaXQxFTATBgNVBAMTDFZp
a2luZ1ZQTiBDQTEQMA4GA1UEKRMHRWFzeVJTQTEhMB8GCSqGSIb3DQEJARYSbWVA
bXlob3N0Lm15ZG9tYWluMB4XDTE0MDIxMzE2MTMwMFoXDTI0MDIxMTE2MTMwMFow
HjEcMBoGA1UEAxMTQ2xpZW50Mzc4Q2VydDNjM2E5ZjCCAiIwDQYJKoZIhvcNAQEB
BQADggIPADCCAgoCggIBANl0O4CmRXYuu1YDh8w+RXT7EN1wmYPjcOMJqoYVlI2m
wJN6LO7DR6zdbo7AqA26YUNRDs7sgMuJALo1qwCUgKmlRrVrWfgxjP6gyKR7zlIS
sgvW3tKqKRCnjL3eFULLeynDbZ4wxDuK25IKfGhIQQA9zyfqX8PrmqaREdbs5UjM
O1uaRZKzgNP5cx1rVvKHs7Dy48zeJ/3gEotYVxc3ACh/CoitPP+RsK26yXuI7MyR
43Vq//vg+QsNf08UAmD47ypXMao4hkZhxCfRMeabCjeN7ghi83kBO00XeskAjbEC
O36FH/0Iy7b5TUfgQmNb4P/BtMM7gWdnQeuumQFCZz1XOlR1KHf0HLdXLOlaZCVQ
iCpFyOj1zxDxRW2FjGjN7tLEz1AqlnRlqxbSNaK9+eTUHQQiWZYqkLEoPGdIjdyr
ZlG4xNeM7y1q9RVvX9QzhJZzvZiCzg87ovGam5P7OAdnajwYQdYGMeYcnjffX3iE
0h5plHrZHb+i8F07IByNtI3o23NCHQ7f1aHu2GlrUTnmiL/0GalaVfx5NKkQS5Jr
TvGMyVewqFSPK59P3yK2ftxXg4Ja5TTEbE7AEK7RWGckAH9zOOr5b4HvHYsujUnp
8z19wGkThiWNFhJiCQS3wdF1WoaqC4CaGffBV/Y+llKHJwNXuvGRdtlVrAwg+Y/P
AgMBAAGjggFjMIIBXzAJBgNVHRMEAjAAMC0GCWCGSAGG+EIBDQQgFh5FYXN5LVJT
QSBHZW5lcmF0ZWQgQ2VydGlmaWNhdGUwHQYDVR0OBBYEFHel+4giVt9Uv7Ky7iGH
e8GPVzZxMIHhBgNVHSMEgdkwgdaAFBLNYATSoICecO3Gmbh7LMZS/RmhoYGypIGv
MIGsMQswCQYDVQQGEwJVUzELMAkGA1UECBMCT0gxETAPBgNVBAcTCENvbHVtYnVz
MRIwEAYDVQQKEwlWaWtpbmdWUE4xHTAbBgNVBAsTFE15T3JnYW5pemF0aW9uYWxV
bml0MRUwEwYDVQQDEwxWaWtpbmdWUE4gQ0ExEDAOBgNVBCkTB0Vhc3lSU0ExITAf
BgkqhkiG9w0BCQEWEm1lQG15aG9zdC5teWRvbWFpboIJAM81he6Avyo+MBMGA1Ud
JQQMMAoGCCsGAQUFBwMCMAsGA1UdDwQEAwIHgDANBgkqhkiG9w0BAQQFAAOCAgEA
x3CbniJ2AcQtaxuXdsDTNVChlP1oXHHSFADuiCspegn65vx3DG6KVnYt7Qp+/gvN
rJbM9AH+zu9ktPo592NQYSjUpnSYCtt0cqop5tJkCrdXSXF8IMKYPLYn+bpZre8d
nBaBqAHIs9LW2h2Ax31kVl+sMODofjvCZlppBRnD8rdGysVuL5td8E8NHvZbV8HQ
jCyyeGRC09FqdG3Lve38nof6D2ODi6jbzJNALU+pUVMmuREDS0CeawbRtyyiyyCL
u+dgV/EpTWCAHgK/gEe8RXEuzETg4gP2gacmbdO09vKlevmyaz21dC9HS0RBM0Re
kmNo4DGfr4ld5ke4wFpkoZ1RI77NZcaMBKaq1TT4taCIPqgcT4Biy3MXcmVYFa8B
4qYCgNeKGVfDpWMYhyOJYhlXu0w5lSzTgwjX9Rq4KsAmPq4FbIcPJV/6NEcv8Gkh
a5NBRCmFN95fmmtlJr/PqXjxLzIEMV/M5gN8/O9UCxAujczM2UozktR0IW2aK59L
TEtuGSXd+eJNoW+VgcAfZWg674mtZBGMtKkbj1NwYgOMqmbJiuKMQjbQbyy43008
rfL49AxLZF0qcE4a0o6xtMUSH7e6u90DCOk9s5hjNCNuO1XexWfZ7xspW6HE99Lo
L47YQsfAHqARORilX8mVfzhuzKz3j38s5KKCw0Ckzug=
-----END CERTIFICATE-----
