Certificate:
    Data:
        Version: 3 (0x2)
        Serial Number: 937 (0x3a9)
    Signature Algorithm: md5WithRSAEncryption
        Issuer: C=US, ST=OH, L=Columbus, O=VikingVPN, OU=MyOrganizationalUnit, CN=VikingVPN CA/name=EasyRSA/emailAddress=me@myhost.mydomain
        Validity
            Not Before: Feb  2 21:05:27 2014 GMT
            Not After : Jan 31 21:05:27 2024 GMT
        Subject: CN=Client349Certdcc954
        Subject Public Key Info:
            Public Key Algorithm: rsaEncryption
                Public-Key: (4096 bit)
                Modulus:
                    00:ec:34:53:11:1f:ac:06:c1:fc:9e:b0:90:e0:43:
                    9a:fd:5e:0e:05:ea:7e:a9:8d:6a:f8:28:e0:a0:f0:
                    4a:79:1a:aa:91:55:51:9e:e1:36:88:6a:7a:11:fb:
                    80:31:02:80:4f:83:24:e1:d8:3d:60:ed:ef:54:49:
                    79:be:80:bf:4b:0a:68:e6:19:09:39:33:c0:ff:d6:
                    f3:a7:f1:f6:1e:0d:e6:be:98:16:d8:3d:4e:7b:13:
                    aa:71:57:9b:ce:36:2d:0b:f6:ce:58:d5:c7:61:62:
                    82:86:95:d8:fb:54:e4:f8:43:48:17:ab:e5:8e:03:
                    a3:ef:c3:36:dc:d2:67:54:27:81:d2:7e:c4:8d:b1:
                    b2:ce:fa:b3:ee:0f:28:b1:76:6d:e9:8e:23:69:f9:
                    b8:8e:6a:1c:03:5e:6a:f5:51:a3:68:8f:f1:66:2e:
                    9b:78:c0:11:9a:50:0e:98:24:6c:49:bb:46:cd:fe:
                    ff:a3:c6:c2:b1:0d:14:d5:f6:1d:98:7d:f9:85:18:
                    e0:65:32:a6:90:4e:63:5c:f8:75:66:72:03:48:e1:
                    1f:17:0f:bb:ad:7e:32:4e:e5:9e:3e:28:46:c2:20:
                    7c:89:f9:a6:68:3c:15:5d:da:74:18:9d:57:72:14:
                    3d:2b:28:a6:01:5a:55:58:36:2f:15:b9:ce:0e:53:
                    9b:53:d3:ef:2a:ba:1a:44:ac:c3:d8:1d:bf:32:1a:
                    50:af:5d:26:6b:50:6d:32:92:18:a1:b0:62:5a:7a:
                    c1:46:ec:53:71:49:d0:c2:58:79:6b:b8:a6:2f:e3:
                    ee:5f:c0:bc:c3:82:8c:4b:84:de:d2:00:3d:b2:f4:
                    7d:93:b7:09:a5:4c:d9:9c:60:2e:52:6c:93:15:42:
                    89:09:fe:c1:65:1e:e9:a2:c6:69:83:ef:2c:c1:64:
                    18:d8:c9:fb:5d:48:80:07:99:83:2a:dc:fb:6c:7e:
                    73:0b:e5:1b:a1:56:c6:02:cf:3e:a5:3d:04:49:5b:
                    88:dd:76:a4:13:16:40:54:d6:60:67:4c:03:81:30:
                    28:e6:b0:24:c5:10:44:31:52:8a:bd:ab:ad:b0:ff:
                    8a:bf:9a:8c:67:e7:a5:c3:c5:03:01:41:24:74:dc:
                    0b:13:8d:d2:67:0d:d6:29:fc:c0:9e:60:18:e4:36:
                    6c:ee:76:b6:ba:50:0e:21:75:c8:5f:d8:76:23:06:
                    4b:d5:ff:d4:32:ce:ec:75:ee:a3:04:9c:dc:1b:b8:
                    9a:80:76:95:aa:7f:f7:fb:28:26:7d:9c:38:36:2c:
                    88:81:2c:ee:6d:c6:b3:e9:60:67:3d:57:6b:73:bc:
                    9c:54:f0:9c:2e:b3:7b:5f:b9:ca:81:42:03:3f:4e:
                    2f:57:37
                Exponent: 65537 (0x10001)
        X509v3 extensions:
            X509v3 Basic Constraints: 
                CA:FALSE
            Netscape Comment: 
                Easy-RSA Generated Certificate
            X509v3 Subject Key Identifier: 
                97:95:92:80:59:FD:68:D6:F3:10:E7:CB:2F:8C:26:B3:78:5B:BE:02
            X509v3 Authority Key Identifier: 
                keyid:12:CD:60:04:D2:A0:80:9E:70:ED:C6:99:B8:7B:2C:C6:52:FD:19:A1
                DirName:/C=US/ST=OH/L=Columbus/O=VikingVPN/OU=MyOrganizationalUnit/CN=VikingVPN CA/name=EasyRSA/emailAddress=me@myhost.mydomain
                serial:CF:35:85:EE:80:BF:2A:3E

            X509v3 Extended Key Usage: 
                TLS Web Client Authentication
            X509v3 Key Usage: 
                Digital Signature
    Signature Algorithm: md5WithRSAEncryption
         8d:17:c7:1d:2c:2c:0b:6e:6d:25:c0:9b:09:4d:01:a6:51:f8:
         c0:72:2f:40:52:50:c2:f8:f6:7b:d8:e5:26:c8:5d:d7:b3:20:
         ed:6b:63:01:2a:a0:6b:32:98:5c:41:cc:32:ab:72:ae:d6:4a:
         7c:17:eb:b7:f9:75:88:39:da:86:d3:a1:42:d9:2c:6c:ce:0b:
         09:84:c1:26:44:86:99:db:ee:ef:82:cc:80:b7:5a:9e:eb:e8:
         3d:52:c6:e9:a4:3d:89:ba:23:25:fa:32:89:44:7a:d5:ae:34:
         ab:3d:00:7f:8c:c1:47:6c:27:ad:f4:8c:bb:28:64:b6:d3:a1:
         f1:8b:dd:cb:66:00:4d:34:65:94:46:ce:28:cb:81:3c:85:70:
         8c:ca:a6:47:0e:05:eb:91:b8:7a:b8:13:66:ac:88:a5:89:cb:
         0c:07:08:c5:4b:06:56:7a:02:ee:be:61:47:51:1f:52:86:5e:
         3d:cf:69:84:cd:e9:34:28:09:b9:0c:17:e8:93:0e:de:fa:0b:
         97:de:a9:25:d5:a0:6d:af:ff:a2:14:69:20:6b:5b:1d:5f:7b:
         19:92:3f:cb:5c:51:2c:7a:be:51:04:df:ef:24:d6:df:9e:50:
         90:6e:e6:92:79:aa:99:a3:75:b8:8a:d4:b4:7b:0b:a3:6b:da:
         39:f0:f3:18:8a:2f:9b:f6:20:df:15:a1:3f:8c:64:00:5c:00:
         4f:32:23:5f:31:d7:58:04:d2:65:cf:1d:c1:be:14:be:e6:cb:
         99:25:c8:9a:ae:c0:63:8a:5f:89:dd:77:1d:17:bb:59:f0:5d:
         b1:91:7c:2c:3a:63:4b:be:71:e3:37:6f:0e:0f:a6:e5:42:7f:
         5b:2e:31:12:e7:e1:58:59:f5:97:8e:65:fe:d8:b4:c1:64:5e:
         9f:c8:b5:66:58:14:c6:58:16:10:ca:d2:99:a7:b3:e6:80:b0:
         39:36:8a:45:31:d3:ba:13:92:7b:04:36:fe:e0:be:13:b9:05:
         a3:a0:c6:e2:48:9b:7a:cc:31:89:ca:01:7a:3b:d5:2b:ad:5c:
         4d:ee:af:04:ca:09:7d:9b:28:fa:33:8f:95:6e:6b:f1:95:ea:
         34:31:33:71:e5:3b:50:46:58:fa:13:23:4f:07:3b:bb:31:c8:
         2a:c8:38:c8:04:2d:a1:63:94:d5:61:a4:cc:3c:1f:38:d7:d1:
         88:fc:39:3a:65:b9:e3:0a:c7:20:ae:b7:6b:56:2c:7e:57:a7:
         27:b3:19:df:58:82:fc:af:53:aa:e9:7c:30:ad:37:9b:70:d0:
         31:c8:a0:64:ad:dc:ca:c0:27:1b:02:98:51:76:21:27:ad:ce:
         dd:b6:8b:09:a1:2f:59:1d
-----BEGIN CERTIFICATE-----
MIIGrDCCBJSgAwIBAgICA6kwDQYJKoZIhvcNAQEEBQAwgawxCzAJBgNVBAYTAlVT
MQswCQYDVQQIEwJPSDERMA8GA1UEBxMIQ29sdW1idXMxEjAQBgNVBAoTCVZpa2lu
Z1ZQTjEdMBsGA1UECxMUTXlPcmdhbml6YXRpb25hbFVuaXQxFTATBgNVBAMTDFZp
a2luZ1ZQTiBDQTEQMA4GA1UEKRMHRWFzeVJTQTEhMB8GCSqGSIb3DQEJARYSbWVA
bXlob3N0Lm15ZG9tYWluMB4XDTE0MDIwMjIxMDUyN1oXDTI0MDEzMTIxMDUyN1ow
HjEcMBoGA1UEAxMTQ2xpZW50MzQ5Q2VydGRjYzk1NDCCAiIwDQYJKoZIhvcNAQEB
BQADggIPADCCAgoCggIBAOw0UxEfrAbB/J6wkOBDmv1eDgXqfqmNavgo4KDwSnka
qpFVUZ7hNohqehH7gDECgE+DJOHYPWDt71RJeb6Av0sKaOYZCTkzwP/W86fx9h4N
5r6YFtg9TnsTqnFXm842LQv2zljVx2FigoaV2PtU5PhDSBer5Y4Do+/DNtzSZ1Qn
gdJ+xI2xss76s+4PKLF2bemOI2n5uI5qHANeavVRo2iP8WYum3jAEZpQDpgkbEm7
Rs3+/6PGwrENFNX2HZh9+YUY4GUyppBOY1z4dWZyA0jhHxcPu61+Mk7lnj4oRsIg
fIn5pmg8FV3adBidV3IUPSsopgFaVVg2LxW5zg5Tm1PT7yq6GkSsw9gdvzIaUK9d
JmtQbTKSGKGwYlp6wUbsU3FJ0MJYeWu4pi/j7l/AvMOCjEuE3tIAPbL0fZO3CaVM
2ZxgLlJskxVCiQn+wWUe6aLGaYPvLMFkGNjJ+11IgAeZgyrc+2x+cwvlG6FWxgLP
PqU9BElbiN12pBMWQFTWYGdMA4EwKOawJMUQRDFSir2rrbD/ir+ajGfnpcPFAwFB
JHTcCxON0mcN1in8wJ5gGOQ2bO52trpQDiF1yF/YdiMGS9X/1DLO7HXuowSc3Bu4
moB2lap/9/soJn2cODYsiIEs7m3Gs+lgZz1Xa3O8nFTwnC6ze1+5yoFCAz9OL1c3
AgMBAAGjggFjMIIBXzAJBgNVHRMEAjAAMC0GCWCGSAGG+EIBDQQgFh5FYXN5LVJT
QSBHZW5lcmF0ZWQgQ2VydGlmaWNhdGUwHQYDVR0OBBYEFJeVkoBZ/WjW8xDnyy+M
JrN4W74CMIHhBgNVHSMEgdkwgdaAFBLNYATSoICecO3Gmbh7LMZS/RmhoYGypIGv
MIGsMQswCQYDVQQGEwJVUzELMAkGA1UECBMCT0gxETAPBgNVBAcTCENvbHVtYnVz
MRIwEAYDVQQKEwlWaWtpbmdWUE4xHTAbBgNVBAsTFE15T3JnYW5pemF0aW9uYWxV
bml0MRUwEwYDVQQDEwxWaWtpbmdWUE4gQ0ExEDAOBgNVBCkTB0Vhc3lSU0ExITAf
BgkqhkiG9w0BCQEWEm1lQG15aG9zdC5teWRvbWFpboIJAM81he6Avyo+MBMGA1Ud
JQQMMAoGCCsGAQUFBwMCMAsGA1UdDwQEAwIHgDANBgkqhkiG9w0BAQQFAAOCAgEA
jRfHHSwsC25tJcCbCU0BplH4wHIvQFJQwvj2e9jlJshd17Mg7WtjASqgazKYXEHM
MqtyrtZKfBfrt/l1iDnahtOhQtksbM4LCYTBJkSGmdvu74LMgLdanuvoPVLG6aQ9
ibojJfoyiUR61a40qz0Af4zBR2wnrfSMuyhkttOh8Yvdy2YATTRllEbOKMuBPIVw
jMqmRw4F65G4ergTZqyIpYnLDAcIxUsGVnoC7r5hR1EfUoZePc9phM3pNCgJuQwX
6JMO3voLl96pJdWgba//ohRpIGtbHV97GZI/y1xRLHq+UQTf7yTW355QkG7mknmq
maN1uIrUtHsLo2vaOfDzGIovm/Yg3xWhP4xkAFwATzIjXzHXWATSZc8dwb4UvubL
mSXImq7AY4pfid13HRe7WfBdsZF8LDpjS75x4zdvDg+m5UJ/Wy4xEufhWFn1l45l
/ti0wWRen8i1ZlgUxlgWEMrSmaez5oCwOTaKRTHTuhOSewQ2/uC+E7kFo6DG4kib
eswxicoBejvVK61cTe6vBMoJfZso+jOPlW5r8ZXqNDEzceU7UEZY+hMjTwc7uzHI
Ksg4yAQtoWOU1WGkzDwfONfRiPw5OmW54wrHIK63a1YsflenJ7MZ31iC/K9Tqul8
MK03m3DQMcigZK3cysAnGwKYUXYhJ63O3baLCaEvWR0=
-----END CERTIFICATE-----
