Certificate:
    Data:
        Version: 3 (0x2)
        Serial Number: 5488 (0x1570)
    Signature Algorithm: md5WithRSAEncryption
        Issuer: C=US, ST=OH, L=Columbus, O=VikingVPN, OU=MyOrganizationalUnit, CN=VikingVPN CA/name=EasyRSA/emailAddress=me@myhost.mydomain
        Validity
            Not Before: Jun  5 23:32:14 2015 GMT
            Not After : Jun  2 23:32:14 2025 GMT
        Subject: CN=Client1726Cert632242
        Subject Public Key Info:
            Public Key Algorithm: rsaEncryption
                Public-Key: (4096 bit)
                Modulus:
                    00:ee:f9:e0:33:ff:62:eb:0a:24:2c:10:e6:80:9e:
                    69:0a:86:6d:47:91:58:a2:1e:97:cb:51:a2:13:d5:
                    ff:d8:4d:41:44:ac:99:b6:bf:ec:b2:c3:2e:d2:c2:
                    43:3c:60:89:52:9b:40:67:7d:41:ef:f0:dc:f2:f4:
                    21:12:80:5a:a2:7c:30:37:0e:ad:2c:7c:10:c4:1f:
                    95:92:06:3c:64:ae:39:2e:14:5c:6a:8c:98:48:08:
                    77:18:6b:4e:f2:a8:95:13:2f:14:4c:ae:f4:67:f9:
                    0a:23:e0:27:f2:2a:9a:e4:b8:e0:9a:4a:13:14:07:
                    02:2f:54:b0:a9:f1:0d:cd:09:40:8a:04:7a:d0:52:
                    d5:b7:53:49:72:46:04:33:57:01:34:df:ee:f2:d9:
                    06:23:ca:9e:8f:c4:73:03:44:c8:b7:41:9d:25:ae:
                    32:eb:a0:9d:64:ac:01:4d:ae:89:06:91:ab:ad:01:
                    7b:08:fe:a8:1b:f0:5b:23:ab:22:8d:c4:bf:63:7c:
                    19:cc:c9:48:02:ab:59:39:bb:6c:c6:b5:c1:83:00:
                    76:78:94:48:a1:1e:ca:c2:22:3f:4a:16:b4:f6:8f:
                    dd:64:39:76:c4:20:ad:6e:07:ab:01:6f:51:7e:26:
                    08:33:b8:9c:29:d9:1c:08:4c:5b:f2:45:55:bb:ec:
                    1f:21:37:23:74:62:24:58:d6:c7:df:e2:86:9f:dc:
                    ce:75:f4:82:c6:2f:13:89:91:d7:7e:37:ec:ab:ff:
                    ae:83:44:5d:6f:31:d0:27:94:55:32:57:21:e5:63:
                    3e:35:47:f2:a7:c4:ed:0f:75:dd:4d:09:fd:80:1d:
                    6a:47:fc:e4:25:6c:59:d6:34:88:01:eb:a0:a1:af:
                    6b:79:50:06:4e:31:34:29:c6:73:e6:d0:aa:28:bb:
                    a9:a8:a9:a2:44:69:11:c4:08:59:72:7c:f3:a6:bd:
                    d5:6f:2a:a5:10:17:04:52:f3:0e:4f:14:ac:36:a5:
                    24:11:c4:1c:d6:48:36:cc:66:d8:24:b1:ea:8f:71:
                    c5:b6:bd:e6:8e:7a:19:46:0f:ab:df:4f:23:28:40:
                    19:57:be:b0:70:73:3f:1d:8c:43:91:e6:3f:56:91:
                    77:f4:3c:f0:eb:3f:aa:78:0f:14:0b:d0:29:b4:99:
                    f8:57:ec:46:d3:6f:12:f2:ec:6d:5c:d1:f1:29:a6:
                    5f:d8:2b:32:98:93:31:5e:f8:b9:0b:18:c1:37:bc:
                    b3:5e:fd:cc:13:a1:2b:83:5d:c0:e2:32:a6:e4:67:
                    08:fe:1d:76:0f:45:72:6d:31:c9:0f:be:03:ac:ae:
                    84:55:dd:96:a2:5b:b8:a3:1e:a5:ce:16:6b:ce:74:
                    0b:9d:bf
                Exponent: 65537 (0x10001)
        X509v3 extensions:
            X509v3 Basic Constraints: 
                CA:FALSE
            Netscape Comment: 
                Easy-RSA Generated Certificate
            X509v3 Subject Key Identifier: 
                8B:52:0F:51:47:E8:30:7B:B5:B8:3E:F9:57:EE:39:CE:90:1F:46:4F
            X509v3 Authority Key Identifier: 
                keyid:12:CD:60:04:D2:A0:80:9E:70:ED:C6:99:B8:7B:2C:C6:52:FD:19:A1
                DirName:/C=US/ST=OH/L=Columbus/O=VikingVPN/OU=MyOrganizationalUnit/CN=VikingVPN CA/name=EasyRSA/emailAddress=me@myhost.mydomain
                serial:CF:35:85:EE:80:BF:2A:3E

            X509v3 Extended Key Usage: 
                TLS Web Client Authentication
            X509v3 Key Usage: 
                Digital Signature
    Signature Algorithm: md5WithRSAEncryption
         92:88:c6:44:b5:ec:56:15:e2:ca:b5:73:f7:bb:13:e3:12:b6:
         d1:62:15:b3:09:9d:85:5d:a3:e2:4d:8d:67:c3:b4:c0:66:c4:
         c5:18:09:8e:04:04:89:52:33:a2:29:02:11:21:1c:d9:43:7c:
         6e:55:b1:e2:95:46:4c:59:45:af:c0:03:ce:21:90:50:15:28:
         67:17:83:6e:08:57:ec:f6:c8:ec:ef:56:40:5b:5c:32:38:5c:
         be:bd:10:f8:f1:08:fe:82:4f:d8:a7:b0:af:08:29:2e:f7:7c:
         f1:8d:c3:ef:15:cb:19:8f:b9:31:84:94:dc:56:29:4d:72:0c:
         79:2e:79:c5:32:39:ef:75:03:06:7b:c3:aa:e9:24:74:0c:1f:
         49:50:76:85:57:3e:10:80:ed:31:45:a1:42:81:36:17:aa:28:
         06:f6:dd:ec:89:62:08:7d:61:b8:70:10:a8:90:f4:71:4b:b7:
         9d:7d:17:89:d0:c5:58:da:c7:80:09:ca:27:7a:da:45:97:55:
         0e:23:ad:f1:d4:97:b0:84:e6:d1:50:da:ea:f8:fc:17:0a:ed:
         3d:26:98:37:89:ac:8e:c5:ff:59:c1:2b:14:d9:6c:e9:2b:7a:
         40:9d:ee:85:d8:21:32:de:33:a8:f3:dc:a5:2c:6c:69:e2:2d:
         57:de:b5:ec:18:92:10:17:58:ec:6d:fb:33:5f:d5:bf:bd:19:
         f0:81:40:e6:a1:30:84:f8:f0:07:73:cb:b1:55:a6:6a:d9:53:
         0b:54:08:7c:99:05:a1:97:e6:fb:b0:93:e7:4a:4e:ba:23:64:
         01:f3:d2:ff:b6:aa:ba:34:ad:09:c6:51:73:5d:59:d8:43:0a:
         55:8c:ff:08:fb:b5:30:76:c7:0f:e5:6e:c0:ac:d4:cc:eb:f9:
         39:75:6a:ff:89:0b:a4:4e:39:40:c6:19:e5:6b:7a:04:94:54:
         1e:78:71:56:a1:f0:59:1c:6f:4e:d3:0a:7b:14:54:68:d9:3e:
         36:18:5e:54:bd:09:7d:49:b0:da:8b:29:71:0a:ae:79:c7:85:
         c0:f0:70:79:c5:b8:0c:bb:f7:af:f0:2d:74:70:3e:65:1d:92:
         03:ab:42:73:51:5b:20:ad:be:a9:35:79:d6:e1:35:ba:c9:3c:
         f4:a5:49:95:4a:e4:f3:40:5c:96:6f:eb:8d:29:b2:2d:ec:97:
         c3:25:9a:f9:84:dc:84:17:86:59:03:29:1a:70:c8:fb:d5:c0:
         eb:c8:7f:2b:7c:9b:b1:c2:08:67:e8:f9:7c:bf:65:53:f9:4c:
         ca:97:82:e9:09:3f:60:a6:f0:e0:92:37:29:3e:37:e3:b9:2a:
         35:2a:61:db:51:4f:0e:3a
-----BEGIN CERTIFICATE-----
MIIGrTCCBJWgAwIBAgICFXAwDQYJKoZIhvcNAQEEBQAwgawxCzAJBgNVBAYTAlVT
MQswCQYDVQQIEwJPSDERMA8GA1UEBxMIQ29sdW1idXMxEjAQBgNVBAoTCVZpa2lu
Z1ZQTjEdMBsGA1UECxMUTXlPcmdhbml6YXRpb25hbFVuaXQxFTATBgNVBAMTDFZp
a2luZ1ZQTiBDQTEQMA4GA1UEKRMHRWFzeVJTQTEhMB8GCSqGSIb3DQEJARYSbWVA
bXlob3N0Lm15ZG9tYWluMB4XDTE1MDYwNTIzMzIxNFoXDTI1MDYwMjIzMzIxNFow
HzEdMBsGA1UEAxMUQ2xpZW50MTcyNkNlcnQ2MzIyNDIwggIiMA0GCSqGSIb3DQEB
AQUAA4ICDwAwggIKAoICAQDu+eAz/2LrCiQsEOaAnmkKhm1HkViiHpfLUaIT1f/Y
TUFErJm2v+yywy7SwkM8YIlSm0BnfUHv8Nzy9CESgFqifDA3Dq0sfBDEH5WSBjxk
rjkuFFxqjJhICHcYa07yqJUTLxRMrvRn+Qoj4CfyKprkuOCaShMUBwIvVLCp8Q3N
CUCKBHrQUtW3U0lyRgQzVwE03+7y2QYjyp6PxHMDRMi3QZ0lrjLroJ1krAFNrokG
kautAXsI/qgb8FsjqyKNxL9jfBnMyUgCq1k5u2zGtcGDAHZ4lEihHsrCIj9KFrT2
j91kOXbEIK1uB6sBb1F+JggzuJwp2RwITFvyRVW77B8hNyN0YiRY1sff4oaf3M51
9ILGLxOJkdd+N+yr/66DRF1vMdAnlFUyVyHlYz41R/KnxO0Pdd1NCf2AHWpH/OQl
bFnWNIgB66Chr2t5UAZOMTQpxnPm0Koou6moqaJEaRHECFlyfPOmvdVvKqUQFwRS
8w5PFKw2pSQRxBzWSDbMZtgkseqPccW2veaOehlGD6vfTyMoQBlXvrBwcz8djEOR
5j9WkXf0PPDrP6p4DxQL0Cm0mfhX7EbTbxLy7G1c0fEppl/YKzKYkzFe+LkLGME3
vLNe/cwToSuDXcDiMqbkZwj+HXYPRXJtMckPvgOsroRV3ZaiW7ijHqXOFmvOdAud
vwIDAQABo4IBYzCCAV8wCQYDVR0TBAIwADAtBglghkgBhvhCAQ0EIBYeRWFzeS1S
U0EgR2VuZXJhdGVkIENlcnRpZmljYXRlMB0GA1UdDgQWBBSLUg9RR+gwe7W4PvlX
7jnOkB9GTzCB4QYDVR0jBIHZMIHWgBQSzWAE0qCAnnDtxpm4eyzGUv0ZoaGBsqSB
rzCBrDELMAkGA1UEBhMCVVMxCzAJBgNVBAgTAk9IMREwDwYDVQQHEwhDb2x1bWJ1
czESMBAGA1UEChMJVmlraW5nVlBOMR0wGwYDVQQLExRNeU9yZ2FuaXphdGlvbmFs
VW5pdDEVMBMGA1UEAxMMVmlraW5nVlBOIENBMRAwDgYDVQQpEwdFYXN5UlNBMSEw
HwYJKoZIhvcNAQkBFhJtZUBteWhvc3QubXlkb21haW6CCQDPNYXugL8qPjATBgNV
HSUEDDAKBggrBgEFBQcDAjALBgNVHQ8EBAMCB4AwDQYJKoZIhvcNAQEEBQADggIB
AJKIxkS17FYV4sq1c/e7E+MSttFiFbMJnYVdo+JNjWfDtMBmxMUYCY4EBIlSM6Ip
AhEhHNlDfG5VseKVRkxZRa/AA84hkFAVKGcXg24IV+z2yOzvVkBbXDI4XL69EPjx
CP6CT9insK8IKS73fPGNw+8VyxmPuTGElNxWKU1yDHkuecUyOe91AwZ7w6rpJHQM
H0lQdoVXPhCA7TFFoUKBNheqKAb23eyJYgh9YbhwEKiQ9HFLt519F4nQxVjax4AJ
yid62kWXVQ4jrfHUl7CE5tFQ2ur4/BcK7T0mmDeJrI7F/1nBKxTZbOkrekCd7oXY
ITLeM6jz3KUsbGniLVfetewYkhAXWOxt+zNf1b+9GfCBQOahMIT48Adzy7FVpmrZ
UwtUCHyZBaGX5vuwk+dKTrojZAHz0v+2qro0rQnGUXNdWdhDClWM/wj7tTB2xw/l
bsCs1Mzr+Tl1av+JC6ROOUDGGeVregSUVB54cVah8Fkcb07TCnsUVGjZPjYYXlS9
CX1JsNqLKXEKrnnHhcDwcHnFuAy796/wLXRwPmUdkgOrQnNRWyCtvqk1edbhNbrJ
PPSlSZVK5PNAXJZv640psi3sl8MlmvmE3IQXhlkDKRpwyPvVwOvIfyt8m7HCCGfo
+Xy/ZVP5TMqXgukJP2Cm8OCSNyk+N+O5KjUqYdtRTw46
-----END CERTIFICATE-----
