Certificate:
    Data:
        Version: 3 (0x2)
        Serial Number: 6956 (0x1b2c)
    Signature Algorithm: md5WithRSAEncryption
        Issuer: C=US, ST=OH, L=Columbus, O=VikingVPN, OU=MyOrganizationalUnit, CN=VikingVPN CA/name=EasyRSA/emailAddress=me@myhost.mydomain
        Validity
            Not Before: Dec 25 23:19:57 2015 GMT
            Not After : Dec 22 23:19:57 2025 GMT
        Subject: CN=Client1270Certa98951
        Subject Public Key Info:
            Public Key Algorithm: rsaEncryption
                Public-Key: (4096 bit)
                Modulus:
                    00:ba:4d:e6:c4:d2:f6:0e:26:25:05:31:45:b8:b3:
                    77:82:be:e3:d4:47:37:43:bb:aa:39:62:0c:ac:e6:
                    c2:22:85:4f:a6:fa:c3:5f:ed:78:16:a2:fa:a2:bc:
                    b0:12:93:51:90:23:64:23:a1:3b:3a:83:6f:36:65:
                    f2:61:b4:e0:0f:89:d4:e6:ef:14:59:bf:06:b5:7a:
                    5a:65:4e:2c:6c:d5:24:fb:25:5d:1a:ed:60:69:31:
                    43:c7:03:99:28:95:f0:6e:dd:d4:38:6b:4d:aa:c9:
                    e8:f6:75:92:03:9f:f7:e8:bf:79:97:41:49:69:9f:
                    2d:0c:6c:1a:13:17:89:ff:6c:9c:94:24:eb:d2:af:
                    8a:6c:22:46:38:5a:6f:a3:21:50:5b:94:49:d4:c6:
                    17:80:5c:31:c7:a8:97:aa:b4:27:da:17:3d:f3:36:
                    4d:55:cc:1c:1f:19:14:80:5a:2c:bf:dc:de:9a:ee:
                    71:ee:65:3c:cc:1f:6c:f3:0a:f3:12:18:40:31:c6:
                    0c:56:04:2b:3d:ef:3e:75:fb:9a:8a:81:96:45:0e:
                    ea:84:82:09:f5:4a:cf:da:60:4e:4e:8d:4d:34:9c:
                    8d:39:8d:47:92:24:e5:c7:32:e9:32:e6:bb:67:7f:
                    62:2d:75:12:a9:c9:cd:bc:9c:8e:81:0d:e0:4a:1c:
                    98:34:60:83:d6:00:2b:22:09:9c:66:a2:86:d2:eb:
                    d4:ba:1b:33:70:0e:f6:28:ab:be:e4:fb:07:d2:10:
                    1a:aa:23:0a:2d:62:02:df:c1:a3:7c:c2:f5:40:82:
                    d5:ee:07:76:90:b0:9a:4a:70:12:ba:a0:53:f1:11:
                    a7:b7:9b:a2:37:ba:29:f7:cd:3e:d8:e8:71:23:c1:
                    4d:e9:30:76:a5:21:69:1f:c2:86:95:89:99:f4:4a:
                    e3:e7:bd:67:7e:18:2f:c8:d1:1d:8a:8c:85:6a:2b:
                    57:6b:ca:d5:4f:0e:52:67:66:d8:11:a4:b3:6f:36:
                    85:ea:35:68:ca:60:a5:de:89:03:18:7f:84:61:40:
                    95:fa:12:5c:e8:9b:33:c0:ae:37:d7:e2:36:a6:6a:
                    53:98:1d:bd:36:33:89:ed:10:a5:1a:b6:25:d5:37:
                    c3:be:33:07:82:e1:65:50:a1:1c:8d:fb:bb:e4:6e:
                    10:be:b5:ed:85:89:a7:15:d3:f6:4e:67:fb:b6:5d:
                    f5:df:31:6f:0e:a1:aa:1f:a1:08:f6:2d:2a:b2:0b:
                    ef:78:71:c5:aa:40:28:bf:37:10:7f:f4:01:11:92:
                    4f:05:92:8f:49:3f:92:3c:a3:d8:b5:23:17:6a:16:
                    1b:d5:86:61:3e:a4:00:fc:97:6a:e4:8c:bd:61:0e:
                    95:da:89
                Exponent: 65537 (0x10001)
        X509v3 extensions:
            X509v3 Basic Constraints: 
                CA:FALSE
            Netscape Comment: 
                Easy-RSA Generated Certificate
            X509v3 Subject Key Identifier: 
                7C:24:F5:DB:94:39:E4:3B:5B:71:E8:F1:A8:68:FD:9D:F6:DB:EB:0A
            X509v3 Authority Key Identifier: 
                keyid:12:CD:60:04:D2:A0:80:9E:70:ED:C6:99:B8:7B:2C:C6:52:FD:19:A1
                DirName:/C=US/ST=OH/L=Columbus/O=VikingVPN/OU=MyOrganizationalUnit/CN=VikingVPN CA/name=EasyRSA/emailAddress=me@myhost.mydomain
                serial:CF:35:85:EE:80:BF:2A:3E

            X509v3 Extended Key Usage: 
                TLS Web Client Authentication
            X509v3 Key Usage: 
                Digital Signature
    Signature Algorithm: md5WithRSAEncryption
         24:68:7e:85:e5:e5:11:77:fc:2c:03:94:20:d8:05:22:a3:ad:
         09:56:68:40:3b:d9:98:7d:d6:d8:08:4c:9b:bf:21:b8:d2:95:
         63:b7:c4:53:6f:b6:8d:b4:8e:ae:4e:db:40:25:11:62:64:74:
         5d:71:19:28:e0:79:9f:a3:92:d7:b5:c8:16:f1:20:39:c5:a7:
         e0:4c:63:e3:89:92:4d:58:61:71:cf:10:a0:e9:a2:33:ca:d1:
         b9:6d:8c:e3:cb:fa:0d:e3:74:69:b7:c5:0c:78:fd:e6:bc:f6:
         55:30:dd:68:72:c2:a5:dc:7c:1f:70:d7:a3:05:1d:17:9d:20:
         e1:3a:0a:78:63:5b:9a:3b:72:3c:69:1c:d1:3d:8f:fd:e5:95:
         cc:fd:a3:25:bc:86:90:3d:7c:42:2e:99:6b:26:48:f5:1c:15:
         c5:2a:5b:3a:a3:ea:38:3a:c2:28:b7:23:34:87:26:d8:a5:1e:
         0d:a1:a4:81:f9:fd:03:1f:04:0b:70:4d:08:ce:7f:69:89:74:
         d4:1a:f4:9e:07:47:3c:99:5a:2d:77:bb:96:83:9e:8f:0f:31:
         10:bc:cb:26:a6:78:b0:06:4d:83:ff:05:e4:d5:af:94:e1:58:
         f9:97:3e:16:fe:f3:87:67:ee:20:ea:96:9f:d6:20:70:a8:e1:
         77:a6:f2:60:2d:84:a1:57:3c:1c:fd:89:99:d8:23:64:fa:5a:
         81:c5:b8:93:40:db:f3:b9:a3:b7:92:af:f7:65:43:8e:52:f5:
         30:a3:e5:73:20:fb:5e:78:82:c8:3f:3d:de:35:47:76:e7:e6:
         c1:84:b5:e1:b8:86:c9:57:98:4e:d0:00:7e:77:a1:cf:0a:37:
         f7:31:d2:a6:f8:95:cc:72:ce:a0:b2:7c:0b:dd:31:5f:e7:b2:
         f0:ef:f8:58:d8:cc:3b:5c:96:83:ed:7b:cb:bf:b9:c5:f5:6f:
         37:5f:2e:74:e8:90:89:df:e9:6e:36:ee:d2:c7:8f:72:78:85:
         eb:2a:cc:05:2d:85:90:a6:90:6d:9f:17:91:cf:a0:33:e5:13:
         18:f4:33:f8:d2:bd:30:5d:f1:ca:5a:4b:b1:5d:67:8d:f6:10:
         e5:91:26:e5:3c:c4:48:2d:d5:cd:26:dc:fa:31:48:bb:bb:64:
         b0:ee:26:fe:c6:7f:22:65:54:e7:b2:3a:92:57:fd:7b:ff:51:
         10:6e:e3:f9:e0:b5:54:2e:0f:fb:84:ce:78:48:90:02:65:36:
         2b:13:91:1a:2f:ea:98:5e:6d:2b:ad:7c:86:05:5d:ac:06:a0:
         85:ea:95:4a:5d:d4:e8:e1:21:19:c4:07:c4:c6:0b:9c:f4:9d:
         e6:ad:23:cb:09:94:7d:4e
-----BEGIN CERTIFICATE-----
MIIGrTCCBJWgAwIBAgICGywwDQYJKoZIhvcNAQEEBQAwgawxCzAJBgNVBAYTAlVT
MQswCQYDVQQIEwJPSDERMA8GA1UEBxMIQ29sdW1idXMxEjAQBgNVBAoTCVZpa2lu
Z1ZQTjEdMBsGA1UECxMUTXlPcmdhbml6YXRpb25hbFVuaXQxFTATBgNVBAMTDFZp
a2luZ1ZQTiBDQTEQMA4GA1UEKRMHRWFzeVJTQTEhMB8GCSqGSIb3DQEJARYSbWVA
bXlob3N0Lm15ZG9tYWluMB4XDTE1MTIyNTIzMTk1N1oXDTI1MTIyMjIzMTk1N1ow
HzEdMBsGA1UEAxMUQ2xpZW50MTI3MENlcnRhOTg5NTEwggIiMA0GCSqGSIb3DQEB
AQUAA4ICDwAwggIKAoICAQC6TebE0vYOJiUFMUW4s3eCvuPURzdDu6o5Ygys5sIi
hU+m+sNf7XgWovqivLASk1GQI2QjoTs6g282ZfJhtOAPidTm7xRZvwa1elplTixs
1ST7JV0a7WBpMUPHA5kolfBu3dQ4a02qyej2dZIDn/fov3mXQUlpny0MbBoTF4n/
bJyUJOvSr4psIkY4Wm+jIVBblEnUxheAXDHHqJeqtCfaFz3zNk1VzBwfGRSAWiy/
3N6a7nHuZTzMH2zzCvMSGEAxxgxWBCs97z51+5qKgZZFDuqEggn1Ss/aYE5OjU00
nI05jUeSJOXHMuky5rtnf2ItdRKpyc28nI6BDeBKHJg0YIPWACsiCZxmoobS69S6
GzNwDvYoq77k+wfSEBqqIwotYgLfwaN8wvVAgtXuB3aQsJpKcBK6oFPxEae3m6I3
uin3zT7Y6HEjwU3pMHalIWkfwoaViZn0SuPnvWd+GC/I0R2KjIVqK1drytVPDlJn
ZtgRpLNvNoXqNWjKYKXeiQMYf4RhQJX6ElzomzPArjfX4jamalOYHb02M4ntEKUa
tiXVN8O+MweC4WVQoRyN+7vkbhC+te2FiacV0/ZOZ/u2XfXfMW8OoaofoQj2LSqy
C+94ccWqQCi/NxB/9AERkk8Fko9JP5I8o9i1IxdqFhvVhmE+pAD8l2rkjL1hDpXa
iQIDAQABo4IBYzCCAV8wCQYDVR0TBAIwADAtBglghkgBhvhCAQ0EIBYeRWFzeS1S
U0EgR2VuZXJhdGVkIENlcnRpZmljYXRlMB0GA1UdDgQWBBR8JPXblDnkO1tx6PGo
aP2d9tvrCjCB4QYDVR0jBIHZMIHWgBQSzWAE0qCAnnDtxpm4eyzGUv0ZoaGBsqSB
rzCBrDELMAkGA1UEBhMCVVMxCzAJBgNVBAgTAk9IMREwDwYDVQQHEwhDb2x1bWJ1
czESMBAGA1UEChMJVmlraW5nVlBOMR0wGwYDVQQLExRNeU9yZ2FuaXphdGlvbmFs
VW5pdDEVMBMGA1UEAxMMVmlraW5nVlBOIENBMRAwDgYDVQQpEwdFYXN5UlNBMSEw
HwYJKoZIhvcNAQkBFhJtZUBteWhvc3QubXlkb21haW6CCQDPNYXugL8qPjATBgNV
HSUEDDAKBggrBgEFBQcDAjALBgNVHQ8EBAMCB4AwDQYJKoZIhvcNAQEEBQADggIB
ACRofoXl5RF3/CwDlCDYBSKjrQlWaEA72Zh91tgITJu/IbjSlWO3xFNvto20jq5O
20AlEWJkdF1xGSjgeZ+jkte1yBbxIDnFp+BMY+OJkk1YYXHPEKDpojPK0bltjOPL
+g3jdGm3xQx4/ea89lUw3WhywqXcfB9w16MFHRedIOE6CnhjW5o7cjxpHNE9j/3l
lcz9oyW8hpA9fEIumWsmSPUcFcUqWzqj6jg6wii3IzSHJtilHg2hpIH5/QMfBAtw
TQjOf2mJdNQa9J4HRzyZWi13u5aDno8PMRC8yyameLAGTYP/BeTVr5ThWPmXPhb+
84dn7iDqlp/WIHCo4Xem8mAthKFXPBz9iZnYI2T6WoHFuJNA2/O5o7eSr/dlQ45S
9TCj5XMg+154gsg/Pd41R3bn5sGEteG4hslXmE7QAH53oc8KN/cx0qb4lcxyzqCy
fAvdMV/nsvDv+FjYzDtcloPte8u/ucX1bzdfLnTokInf6W427tLHj3J4hesqzAUt
hZCmkG2fF5HPoDPlExj0M/jSvTBd8cpaS7FdZ432EOWRJuU8xEgt1c0m3PoxSLu7
ZLDuJv7GfyJlVOeyOpJX/Xv/URBu4/ngtVQuD/uEznhIkAJlNisTkRov6phebSut
fIYFXawGoIXqlUpd1OjhIRnEB8TGC5z0neatI8sJlH1O
-----END CERTIFICATE-----
