Certificate:
    Data:
        Version: 3 (0x2)
        Serial Number: 2587 (0xa1b)
    Signature Algorithm: md5WithRSAEncryption
        Issuer: C=US, ST=OH, L=Columbus, O=VikingVPN, OU=MyOrganizationalUnit, CN=VikingVPN CA/name=EasyRSA/emailAddress=me@myhost.mydomain
        Validity
            Not Before: Aug 15 15:31:45 2014 GMT
            Not After : Aug 12 15:31:45 2024 GMT
        Subject: CN=Client893Cert1612e8
        Subject Public Key Info:
            Public Key Algorithm: rsaEncryption
                Public-Key: (4096 bit)
                Modulus:
                    00:c0:e6:cf:54:38:64:c6:87:7a:c7:36:b8:e8:31:
                    72:59:04:fe:1e:d9:de:0e:64:bd:6c:49:7c:59:c4:
                    04:6e:88:dd:f3:f9:bb:35:60:9e:c7:39:e3:c7:93:
                    bf:a1:36:5c:7e:5c:b4:88:86:eb:4b:9f:91:8f:5b:
                    8e:94:cf:ec:c0:ff:ca:f0:1d:22:6a:ae:2e:1a:15:
                    55:22:2a:af:9a:1b:1d:74:2b:05:24:04:e5:8a:63:
                    e7:27:3e:b9:d3:0c:ec:5a:d8:a7:af:4a:b0:eb:b5:
                    ca:8b:90:56:8a:8b:f5:01:af:53:3c:47:1f:24:74:
                    65:33:44:3a:c1:17:bb:a4:a1:70:ff:50:d5:51:c3:
                    98:f1:30:41:01:1d:75:f7:f1:33:83:f6:9c:5a:e3:
                    9b:ef:b5:98:0b:a6:4d:fb:dc:93:b3:13:5d:0c:98:
                    c8:af:8e:0b:6b:f5:c4:4e:b8:b2:52:57:41:97:29:
                    22:c4:85:0b:76:03:7f:69:aa:b3:a8:1a:d3:02:0f:
                    8b:af:5f:a4:a6:c1:06:24:74:5a:a9:5e:1b:7a:41:
                    71:ca:21:82:d0:60:f1:6b:97:41:59:cd:dd:32:e6:
                    bd:6f:d4:72:fa:be:fa:75:51:65:fe:c6:ad:4d:f4:
                    8a:a5:56:dc:f3:00:01:1e:1f:fb:6e:e0:7c:9e:e6:
                    5c:41:64:00:ab:29:69:25:cf:78:98:1c:0e:f3:68:
                    49:f1:c1:c6:12:af:eb:59:e1:2e:6d:27:e2:41:af:
                    95:ff:dd:69:71:e6:12:08:da:a0:1f:0c:32:01:b5:
                    46:df:14:b9:61:19:bf:a1:c3:ce:c7:32:22:9d:a6:
                    89:2b:37:1d:b1:cd:be:d4:b3:1f:2d:a1:3b:58:1c:
                    aa:5c:87:7c:76:32:1e:08:af:06:ef:02:a0:9d:5d:
                    74:56:59:5f:6a:f9:92:d3:b7:5f:5d:d6:3b:be:ce:
                    1f:5d:d8:8a:36:51:b1:81:0d:a2:5b:68:a2:e6:8e:
                    5d:e6:d6:6a:51:c4:cb:53:37:83:37:89:d9:49:e6:
                    04:45:41:4e:9d:e1:c6:ad:3a:45:74:74:6e:0a:be:
                    18:5d:bc:da:5f:81:f3:8b:ab:10:9e:e9:fb:c9:d6:
                    4b:86:e4:80:d9:9c:8a:3f:8c:62:15:ad:4c:9a:96:
                    74:61:61:99:79:8d:50:45:b5:83:4c:19:93:3e:9d:
                    e0:f0:e9:85:c9:60:fc:03:5b:b4:49:34:db:25:b7:
                    1c:53:27:de:ba:17:d0:f5:ae:25:f8:f1:28:97:51:
                    0c:b7:b9:7f:f6:08:39:36:6f:eb:f3:82:d1:3a:e8:
                    93:12:67:f7:27:e3:03:d6:0d:62:e2:aa:e9:0c:bd:
                    31:18:37
                Exponent: 65537 (0x10001)
        X509v3 extensions:
            X509v3 Basic Constraints: 
                CA:FALSE
            Netscape Comment: 
                Easy-RSA Generated Certificate
            X509v3 Subject Key Identifier: 
                3F:F8:E8:0B:09:AF:00:79:60:CE:16:F7:69:E6:50:5E:24:43:53:ED
            X509v3 Authority Key Identifier: 
                keyid:12:CD:60:04:D2:A0:80:9E:70:ED:C6:99:B8:7B:2C:C6:52:FD:19:A1
                DirName:/C=US/ST=OH/L=Columbus/O=VikingVPN/OU=MyOrganizationalUnit/CN=VikingVPN CA/name=EasyRSA/emailAddress=me@myhost.mydomain
                serial:CF:35:85:EE:80:BF:2A:3E

            X509v3 Extended Key Usage: 
                TLS Web Client Authentication
            X509v3 Key Usage: 
                Digital Signature
    Signature Algorithm: md5WithRSAEncryption
         63:05:09:c5:0b:ec:fb:9b:16:32:6f:d1:37:59:fe:f1:57:a7:
         66:d2:d7:a0:cd:5e:60:10:5e:e6:a7:49:d9:28:93:95:f1:e7:
         0c:b4:3a:b1:f3:31:90:d7:5c:29:32:79:a5:36:2d:7e:7e:03:
         0e:b1:0a:f6:61:ef:87:ec:ca:aa:ef:fd:3b:2d:46:f6:b2:34:
         6b:c4:20:78:d0:af:8c:a1:a7:06:a5:ee:50:8a:92:46:9f:ec:
         ee:21:bd:ac:d1:e1:20:22:a5:57:6b:8a:05:19:14:7c:a0:51:
         50:cb:7e:89:a2:13:38:b6:43:6f:97:f3:17:89:b5:fe:1f:57:
         9f:c6:87:d1:e8:0a:4d:3b:03:0d:16:7a:0a:35:9e:53:94:2c:
         19:bb:1f:19:8e:3c:0f:51:ee:57:fd:f1:da:12:c7:95:26:6d:
         55:a9:c5:aa:4a:9f:2b:7b:f7:fd:cc:21:9e:d6:63:b9:c2:c9:
         f8:56:ec:d2:3a:cd:97:3e:23:da:a7:20:bb:54:6d:0e:09:67:
         0a:9e:bb:6b:98:89:8f:2d:52:13:88:83:be:71:6e:f0:fb:9f:
         eb:7e:fa:3a:7f:57:e7:f8:a4:4a:9d:54:c5:02:3a:ae:e2:0c:
         e4:50:53:e8:84:d0:0c:4c:33:59:6d:3a:d8:61:83:8a:a5:ef:
         d0:d6:89:f3:ba:3f:8e:83:07:f0:53:8e:33:9c:8b:3d:74:2e:
         0c:f0:6d:fc:85:10:50:a1:22:f5:b9:c6:fb:59:dd:4b:16:50:
         e0:f2:8a:8f:fa:a8:1e:c9:3e:35:45:98:4c:31:e3:33:83:f1:
         cd:4b:9d:db:6a:e7:b9:55:a1:32:85:ec:3d:7c:ea:d7:41:e5:
         8a:5a:96:ac:9a:a6:da:39:78:65:8b:c2:bf:26:bd:a7:0d:a6:
         86:69:97:7c:bc:ed:98:68:fc:03:97:70:d4:d2:75:fd:53:8b:
         c5:a3:13:e3:7a:53:92:d1:9a:26:10:e7:b2:eb:36:2d:74:0c:
         38:1f:74:d0:0b:e7:39:33:1b:82:64:5e:92:cb:95:f5:9f:17:
         72:4d:a1:64:53:9f:7d:b3:06:2d:92:b8:ba:1b:0f:f8:ac:ed:
         7b:a1:bc:02:56:84:1d:4b:51:da:93:ea:b4:a6:fc:ae:45:cf:
         33:2d:1b:9d:9d:a3:aa:a8:23:ba:5f:f3:2d:a5:7a:50:fb:2d:
         c9:29:39:64:ce:20:24:6c:62:04:d8:ed:a9:3a:04:b1:7e:23:
         a7:50:10:1d:51:1e:0d:a1:c0:d1:0d:15:aa:d2:2e:da:22:80:
         16:6f:48:52:fa:bb:72:de:56:50:9e:c2:46:a2:4d:40:b4:70:
         d4:f2:b7:8d:4e:31:fa:d0
-----BEGIN CERTIFICATE-----
MIIGrDCCBJSgAwIBAgICChswDQYJKoZIhvcNAQEEBQAwgawxCzAJBgNVBAYTAlVT
MQswCQYDVQQIEwJPSDERMA8GA1UEBxMIQ29sdW1idXMxEjAQBgNVBAoTCVZpa2lu
Z1ZQTjEdMBsGA1UECxMUTXlPcmdhbml6YXRpb25hbFVuaXQxFTATBgNVBAMTDFZp
a2luZ1ZQTiBDQTEQMA4GA1UEKRMHRWFzeVJTQTEhMB8GCSqGSIb3DQEJARYSbWVA
bXlob3N0Lm15ZG9tYWluMB4XDTE0MDgxNTE1MzE0NVoXDTI0MDgxMjE1MzE0NVow
HjEcMBoGA1UEAxMTQ2xpZW50ODkzQ2VydDE2MTJlODCCAiIwDQYJKoZIhvcNAQEB
BQADggIPADCCAgoCggIBAMDmz1Q4ZMaHesc2uOgxclkE/h7Z3g5kvWxJfFnEBG6I
3fP5uzVgnsc548eTv6E2XH5ctIiG60ufkY9bjpTP7MD/yvAdImquLhoVVSIqr5ob
HXQrBSQE5Ypj5yc+udMM7FrYp69KsOu1youQVoqL9QGvUzxHHyR0ZTNEOsEXu6Sh
cP9Q1VHDmPEwQQEddffxM4P2nFrjm++1mAumTfvck7MTXQyYyK+OC2v1xE64slJX
QZcpIsSFC3YDf2mqs6ga0wIPi69fpKbBBiR0WqleG3pBccohgtBg8WuXQVnN3TLm
vW/Ucvq++nVRZf7GrU30iqVW3PMAAR4f+27gfJ7mXEFkAKspaSXPeJgcDvNoSfHB
xhKv61nhLm0n4kGvlf/daXHmEgjaoB8MMgG1Rt8UuWEZv6HDzscyIp2miSs3HbHN
vtSzHy2hO1gcqlyHfHYyHgivBu8CoJ1ddFZZX2r5ktO3X13WO77OH13YijZRsYEN
oltoouaOXebWalHEy1M3gzeJ2UnmBEVBTp3hxq06RXR0bgq+GF282l+B84urEJ7p
+8nWS4bkgNmcij+MYhWtTJqWdGFhmXmNUEW1g0wZkz6d4PDphclg/ANbtEk02yW3
HFMn3roX0PWuJfjxKJdRDLe5f/YIOTZv6/OC0TrokxJn9yfjA9YNYuKq6Qy9MRg3
AgMBAAGjggFjMIIBXzAJBgNVHRMEAjAAMC0GCWCGSAGG+EIBDQQgFh5FYXN5LVJT
QSBHZW5lcmF0ZWQgQ2VydGlmaWNhdGUwHQYDVR0OBBYEFD/46AsJrwB5YM4W92nm
UF4kQ1PtMIHhBgNVHSMEgdkwgdaAFBLNYATSoICecO3Gmbh7LMZS/RmhoYGypIGv
MIGsMQswCQYDVQQGEwJVUzELMAkGA1UECBMCT0gxETAPBgNVBAcTCENvbHVtYnVz
MRIwEAYDVQQKEwlWaWtpbmdWUE4xHTAbBgNVBAsTFE15T3JnYW5pemF0aW9uYWxV
bml0MRUwEwYDVQQDEwxWaWtpbmdWUE4gQ0ExEDAOBgNVBCkTB0Vhc3lSU0ExITAf
BgkqhkiG9w0BCQEWEm1lQG15aG9zdC5teWRvbWFpboIJAM81he6Avyo+MBMGA1Ud
JQQMMAoGCCsGAQUFBwMCMAsGA1UdDwQEAwIHgDANBgkqhkiG9w0BAQQFAAOCAgEA
YwUJxQvs+5sWMm/RN1n+8VenZtLXoM1eYBBe5qdJ2SiTlfHnDLQ6sfMxkNdcKTJ5
pTYtfn4DDrEK9mHvh+zKqu/9Oy1G9rI0a8QgeNCvjKGnBqXuUIqSRp/s7iG9rNHh
ICKlV2uKBRkUfKBRUMt+iaITOLZDb5fzF4m1/h9Xn8aH0egKTTsDDRZ6CjWeU5Qs
GbsfGY48D1HuV/3x2hLHlSZtVanFqkqfK3v3/cwhntZjucLJ+Fbs0jrNlz4j2qcg
u1RtDglnCp67a5iJjy1SE4iDvnFu8Puf6376On9X5/ikSp1UxQI6ruIM5FBT6ITQ
DEwzWW062GGDiqXv0NaJ87o/joMH8FOOM5yLPXQuDPBt/IUQUKEi9bnG+1ndSxZQ
4PKKj/qoHsk+NUWYTDHjM4PxzUud22rnuVWhMoXsPXzq10HlilqWrJqm2jl4ZYvC
vya9pw2mhmmXfLztmGj8A5dw1NJ1/VOLxaMT43pTktGaJhDnsus2LXQMOB900Avn
OTMbgmReksuV9Z8Xck2hZFOffbMGLZK4uhsP+Kzte6G8AlaEHUtR2pPqtKb8rkXP
My0bnZ2jqqgjul/zLaV6UPstySk5ZM4gJGxiBNjtqToEsX4jp1AQHVEeDaHA0Q0V
qtIu2iKAFm9IUvq7ct5WUJ7CRqJNQLRw1PK3jU4x+tA=
-----END CERTIFICATE-----
