Certificate:
    Data:
        Version: 3 (0x2)
        Serial Number: 4133 (0x1025)
    Signature Algorithm: md5WithRSAEncryption
        Issuer: C=US, ST=OH, L=Columbus, O=VikingVPN, OU=MyOrganizationalUnit, CN=VikingVPN CA/name=EasyRSA/emailAddress=me@myhost.mydomain
        Validity
            Not Before: Jan 15 11:09:31 2015 GMT
            Not After : Jan 12 11:09:31 2025 GMT
        Subject: CN=Client1331Certd0694b
        Subject Public Key Info:
            Public Key Algorithm: rsaEncryption
                Public-Key: (4096 bit)
                Modulus:
                    00:d3:d5:1b:67:b8:c7:0b:4e:a8:f8:ab:ef:69:84:
                    64:28:f8:55:73:82:2d:68:60:4a:a7:fd:8b:f0:d1:
                    54:bc:a3:ca:33:98:55:76:38:ee:7e:d3:08:61:f7:
                    cf:1d:d4:c3:61:a8:09:fe:69:92:70:15:b8:1f:28:
                    04:b7:5b:da:f5:93:0a:8b:f1:2e:d3:bf:f2:3a:bd:
                    c4:80:9f:2a:11:b8:85:6e:c1:f2:ae:47:00:af:e9:
                    86:54:99:bf:7d:b7:fe:30:84:8f:4a:56:75:b3:b2:
                    0e:a7:ee:69:6d:ce:56:49:c8:4e:1a:64:74:3d:bd:
                    60:7d:16:91:d1:b7:df:0d:2f:9d:66:2c:b2:19:d8:
                    f9:d4:4f:b7:61:b5:3e:51:dd:75:a7:bb:67:56:c0:
                    9a:ec:27:e3:21:c3:09:71:de:ad:c4:9f:23:73:ab:
                    ca:9d:34:71:1b:1f:d1:46:98:18:1a:da:e1:40:f1:
                    60:36:69:d2:ed:e3:25:1a:89:fe:e5:33:10:b7:91:
                    84:3b:c7:81:83:cc:a5:9e:c5:1a:d2:fb:7b:67:f3:
                    ec:3d:19:0c:be:38:31:2e:db:3f:86:73:a4:7e:12:
                    77:9c:17:a7:ff:24:22:5c:91:7e:51:94:58:69:0e:
                    e6:f3:eb:c0:4a:ea:11:4a:19:29:18:6a:13:90:d2:
                    84:34:2e:5f:ea:e6:2a:19:22:0e:6b:05:e0:26:10:
                    0a:1f:73:5c:99:52:07:bc:d9:e7:3d:fe:f1:e6:c8:
                    4c:31:40:2d:bf:8f:c7:c5:63:75:51:d4:60:2b:a3:
                    f3:9b:7d:7d:c0:ee:4a:65:c7:2a:c3:59:22:40:ea:
                    c9:e8:ec:b1:6e:94:22:9f:90:eb:2b:c7:2d:d8:67:
                    3a:ec:a0:bb:c4:1c:46:1b:01:2c:c7:b4:82:f4:62:
                    99:7d:c5:5d:db:ef:be:be:c7:38:97:0c:67:58:c2:
                    22:fa:7c:7b:83:3f:ec:3d:7d:6f:88:79:0f:8b:ec:
                    b5:c3:c0:2b:6c:cf:ac:58:58:c2:e0:53:31:7f:01:
                    03:f9:3a:e2:98:82:d0:68:fa:f4:ec:00:cd:48:22:
                    11:4e:31:f9:e7:d7:36:a4:a7:21:54:48:c9:b4:74:
                    6a:5e:6f:15:a2:d9:59:7d:02:8c:9a:06:13:a5:d3:
                    c7:fe:7b:0c:26:ce:71:7c:fa:85:ef:54:49:ac:87:
                    0f:26:b5:43:ec:c1:57:87:26:e5:42:c1:51:38:be:
                    95:2e:11:07:07:9e:d0:6c:f6:d4:27:2f:6c:3c:d2:
                    59:f9:78:0d:83:45:19:1b:04:07:15:9f:1f:3b:21:
                    98:3a:b9:4b:8f:15:c3:cd:eb:42:a3:f8:65:78:53:
                    c5:57:bb
                Exponent: 65537 (0x10001)
        X509v3 extensions:
            X509v3 Basic Constraints: 
                CA:FALSE
            Netscape Comment: 
                Easy-RSA Generated Certificate
            X509v3 Subject Key Identifier: 
                C9:87:9E:8A:BA:DF:9B:14:64:AA:F7:95:EE:D4:75:6E:6B:1C:28:D9
            X509v3 Authority Key Identifier: 
                keyid:12:CD:60:04:D2:A0:80:9E:70:ED:C6:99:B8:7B:2C:C6:52:FD:19:A1
                DirName:/C=US/ST=OH/L=Columbus/O=VikingVPN/OU=MyOrganizationalUnit/CN=VikingVPN CA/name=EasyRSA/emailAddress=me@myhost.mydomain
                serial:CF:35:85:EE:80:BF:2A:3E

            X509v3 Extended Key Usage: 
                TLS Web Client Authentication
            X509v3 Key Usage: 
                Digital Signature
    Signature Algorithm: md5WithRSAEncryption
         1a:82:ad:a3:b1:9a:03:aa:df:fd:53:6c:02:bc:0a:8c:0f:61:
         01:08:c5:d7:29:9c:18:a0:6f:6c:f9:78:28:bb:ef:65:83:16:
         81:49:b4:50:24:cc:87:8e:db:25:b9:64:2b:8c:a1:88:af:02:
         34:27:a8:68:8d:ce:e9:a2:fd:4a:f5:50:fc:e4:c2:5d:29:ac:
         20:f2:a7:93:32:d3:3f:ca:66:5c:4a:18:00:9e:33:7f:19:d3:
         66:19:ad:ee:04:e0:99:eb:98:25:e4:67:12:6c:8e:70:34:36:
         83:2e:d1:36:39:bd:5a:00:19:3f:48:2e:38:c0:d7:12:d7:a0:
         f3:a1:6c:9c:fc:9c:5a:b5:9a:41:2a:f3:95:8d:0d:f7:1e:92:
         39:1e:a2:ea:64:76:7b:b3:07:de:17:ad:96:35:89:97:94:47:
         ed:48:a7:ec:f3:e9:0f:24:8d:e5:1b:c6:b2:19:91:b4:a0:ac:
         74:a0:b3:ca:df:63:35:9a:6c:40:41:e4:24:d5:eb:88:01:ea:
         15:57:c1:3f:c6:ef:e4:32:c1:01:29:3f:e6:20:2c:87:07:a1:
         6a:7b:ab:c9:27:46:6a:f7:f0:37:10:7d:af:86:95:7c:fc:9d:
         f8:1a:67:ee:d4:de:72:6e:f1:68:8b:4f:5a:84:a8:32:5c:15:
         d8:c7:0d:83:b1:d4:48:f1:4d:98:8a:b7:3f:48:5a:4b:3e:b3:
         ce:2c:d8:82:22:b1:7c:47:c2:3b:d7:f8:aa:cb:a0:d5:4a:67:
         25:0b:1e:c6:8d:86:98:33:02:26:94:ca:0c:d8:f0:d5:bb:db:
         7a:3e:0e:90:18:80:47:9f:e8:4a:3f:c2:37:63:4a:a3:c9:95:
         06:5d:1e:b8:f9:30:f7:05:c0:cd:c8:31:a2:99:66:25:97:93:
         d0:32:62:86:4d:11:34:87:ce:cc:14:7b:83:98:ef:3a:eb:fe:
         66:4d:d7:70:a5:40:4d:92:71:d0:31:42:8b:e4:a0:6b:5c:22:
         10:09:56:44:4d:fc:c2:61:2a:e1:7a:82:94:f6:ba:d7:ab:41:
         71:24:6a:b6:d0:04:05:0f:69:2d:3e:8b:10:cd:46:91:70:51:
         3b:20:02:27:31:98:ce:6e:fb:64:ce:bb:21:1b:cd:a7:22:c6:
         ea:f3:11:a4:16:5a:b7:7b:60:0d:a3:2a:3c:f4:13:c1:6f:97:
         2b:fa:e3:19:ce:95:94:37:63:55:16:9f:a9:23:44:bc:6d:a2:
         37:ba:3d:2a:f4:cd:8e:b4:f6:03:a9:3f:cd:0f:63:91:52:f1:
         c0:41:ab:b6:a6:ce:1b:34:e2:e3:54:01:aa:09:6b:b9:79:ec:
         ed:ce:b3:a7:f9:4c:54:1a
-----BEGIN CERTIFICATE-----
MIIGrTCCBJWgAwIBAgICECUwDQYJKoZIhvcNAQEEBQAwgawxCzAJBgNVBAYTAlVT
MQswCQYDVQQIEwJPSDERMA8GA1UEBxMIQ29sdW1idXMxEjAQBgNVBAoTCVZpa2lu
Z1ZQTjEdMBsGA1UECxMUTXlPcmdhbml6YXRpb25hbFVuaXQxFTATBgNVBAMTDFZp
a2luZ1ZQTiBDQTEQMA4GA1UEKRMHRWFzeVJTQTEhMB8GCSqGSIb3DQEJARYSbWVA
bXlob3N0Lm15ZG9tYWluMB4XDTE1MDExNTExMDkzMVoXDTI1MDExMjExMDkzMVow
HzEdMBsGA1UEAxMUQ2xpZW50MTMzMUNlcnRkMDY5NGIwggIiMA0GCSqGSIb3DQEB
AQUAA4ICDwAwggIKAoICAQDT1RtnuMcLTqj4q+9phGQo+FVzgi1oYEqn/Yvw0VS8
o8ozmFV2OO5+0whh988d1MNhqAn+aZJwFbgfKAS3W9r1kwqL8S7Tv/I6vcSAnyoR
uIVuwfKuRwCv6YZUmb99t/4whI9KVnWzsg6n7mltzlZJyE4aZHQ9vWB9FpHRt98N
L51mLLIZ2PnUT7dhtT5R3XWnu2dWwJrsJ+Mhwwlx3q3EnyNzq8qdNHEbH9FGmBga
2uFA8WA2adLt4yUaif7lMxC3kYQ7x4GDzKWexRrS+3tn8+w9GQy+ODEu2z+Gc6R+
EnecF6f/JCJckX5RlFhpDubz68BK6hFKGSkYahOQ0oQ0Ll/q5ioZIg5rBeAmEAof
c1yZUge82ec9/vHmyEwxQC2/j8fFY3VR1GAro/ObfX3A7kplxyrDWSJA6sno7LFu
lCKfkOsrxy3YZzrsoLvEHEYbASzHtIL0Ypl9xV3b776+xziXDGdYwiL6fHuDP+w9
fW+IeQ+L7LXDwCtsz6xYWMLgUzF/AQP5OuKYgtBo+vTsAM1IIhFOMfnn1zakpyFU
SMm0dGpebxWi2Vl9AoyaBhOl08f+ewwmznF8+oXvVEmshw8mtUPswVeHJuVCwVE4
vpUuEQcHntBs9tQnL2w80ln5eA2DRRkbBAcVnx87IZg6uUuPFcPN60Kj+GV4U8VX
uwIDAQABo4IBYzCCAV8wCQYDVR0TBAIwADAtBglghkgBhvhCAQ0EIBYeRWFzeS1S
U0EgR2VuZXJhdGVkIENlcnRpZmljYXRlMB0GA1UdDgQWBBTJh56Kut+bFGSq95Xu
1HVuaxwo2TCB4QYDVR0jBIHZMIHWgBQSzWAE0qCAnnDtxpm4eyzGUv0ZoaGBsqSB
rzCBrDELMAkGA1UEBhMCVVMxCzAJBgNVBAgTAk9IMREwDwYDVQQHEwhDb2x1bWJ1
czESMBAGA1UEChMJVmlraW5nVlBOMR0wGwYDVQQLExRNeU9yZ2FuaXphdGlvbmFs
VW5pdDEVMBMGA1UEAxMMVmlraW5nVlBOIENBMRAwDgYDVQQpEwdFYXN5UlNBMSEw
HwYJKoZIhvcNAQkBFhJtZUBteWhvc3QubXlkb21haW6CCQDPNYXugL8qPjATBgNV
HSUEDDAKBggrBgEFBQcDAjALBgNVHQ8EBAMCB4AwDQYJKoZIhvcNAQEEBQADggIB
ABqCraOxmgOq3/1TbAK8CowPYQEIxdcpnBigb2z5eCi772WDFoFJtFAkzIeO2yW5
ZCuMoYivAjQnqGiNzumi/Ur1UPzkwl0prCDyp5My0z/KZlxKGACeM38Z02YZre4E
4JnrmCXkZxJsjnA0NoMu0TY5vVoAGT9ILjjA1xLXoPOhbJz8nFq1mkEq85WNDfce
kjkeoupkdnuzB94XrZY1iZeUR+1Ip+zz6Q8kjeUbxrIZkbSgrHSgs8rfYzWabEBB
5CTV64gB6hVXwT/G7+QywQEpP+YgLIcHoWp7q8knRmr38DcQfa+GlXz8nfgaZ+7U
3nJu8WiLT1qEqDJcFdjHDYOx1EjxTZiKtz9IWks+s84s2IIisXxHwjvX+KrLoNVK
ZyULHsaNhpgzAiaUygzY8NW723o+DpAYgEef6Eo/wjdjSqPJlQZdHrj5MPcFwM3I
MaKZZiWXk9AyYoZNETSHzswUe4OY7zrr/mZN13ClQE2ScdAxQovkoGtcIhAJVkRN
/MJhKuF6gpT2uterQXEkarbQBAUPaS0+ixDNRpFwUTsgAicxmM5u+2TOuyEbzaci
xurzEaQWWrd7YA2jKjz0E8Fvlyv64xnOlZQ3Y1UWn6kjRLxtoje6PSr0zY609gOp
P80PY5FS8cBBq7amzhs04uNUAaoJa7l57O3Os6f5TFQa
-----END CERTIFICATE-----
