Certificate:
    Data:
        Version: 3 (0x2)
        Serial Number: 12800 (0x3200)
    Signature Algorithm: sha256WithRSAEncryption
        Issuer: C=US, ST=OH, L=Columbus, O=VikingVPN, OU=MyOrganizationalUnit, CN=VikingVPN CA/name=EasyRSA/emailAddress=me@myhost.mydomain
        Validity
            Not Before: Mar 27 17:47:26 2018 GMT
            Not After : Mar 24 17:47:26 2028 GMT
        Subject: CN=Client3244Cert15951f
        Subject Public Key Info:
            Public Key Algorithm: rsaEncryption
                Public-Key: (4096 bit)
                Modulus:
                    00:c5:9a:7a:6d:5b:46:ee:bb:0e:2a:05:2b:a9:12:
                    54:46:ca:75:6f:e8:09:61:d7:f6:59:04:f7:a1:43:
                    c3:11:a9:ac:f5:14:1b:99:99:c7:8f:88:dc:fe:51:
                    dd:6a:b8:a2:c7:97:49:2c:fa:f8:23:21:87:d3:83:
                    f8:3f:ea:fc:54:f3:92:07:57:70:ee:08:69:71:94:
                    ff:6d:f7:cf:f4:e8:87:4b:f6:c4:c3:3b:ea:b8:f9:
                    cd:f6:4a:18:99:02:ef:5e:2d:94:cb:67:49:95:89:
                    25:3b:7f:ca:2e:71:86:19:d5:e7:de:e4:73:e7:5f:
                    73:67:0a:f3:27:75:fa:a2:b8:0e:f8:0b:e1:47:99:
                    94:24:74:21:9f:f6:d5:1c:de:15:a4:d0:a8:1f:7d:
                    0f:26:e9:3e:c4:99:73:e5:92:44:02:8e:10:ff:fe:
                    04:f6:5f:b4:a6:56:de:46:fb:c3:b9:6a:5f:21:5f:
                    d0:89:64:dd:eb:ff:72:91:9b:d9:e1:a1:31:d2:90:
                    9a:ba:9a:1c:ee:17:24:de:ca:4b:62:e8:83:a0:ce:
                    70:bb:31:54:e4:9e:43:c2:32:8e:3f:62:6e:2e:f6:
                    48:fd:ce:ee:ff:26:2e:02:ab:5a:9b:55:f9:91:ef:
                    12:54:01:4c:7c:5a:5e:9b:db:b6:c2:c8:e0:27:90:
                    b8:74:33:17:f0:6a:48:10:67:48:8f:bb:e3:c6:bc:
                    28:39:57:c1:f9:37:c6:55:97:c9:6a:16:fb:c8:6c:
                    5d:29:9a:41:ea:ce:f6:e0:dd:85:02:a4:31:ac:8e:
                    10:30:7b:61:80:f2:14:6d:2d:8e:bb:3c:07:39:75:
                    f3:e2:1a:b4:04:9d:cb:06:9e:ee:85:3d:4b:2b:59:
                    2d:e0:b2:77:35:7b:4c:6a:51:81:98:d3:b4:c6:06:
                    9b:63:3c:1b:b6:bd:59:29:81:d0:de:47:09:97:79:
                    90:b6:ac:ed:16:4f:ae:c5:4e:f8:fb:c2:eb:76:01:
                    e5:24:26:40:93:ed:c5:e6:be:c6:ee:14:d0:83:19:
                    79:a3:2a:d8:16:19:2e:33:73:09:a8:52:6f:b1:70:
                    12:53:83:33:35:1a:43:69:bb:7d:8f:5b:a5:37:48:
                    fb:cf:32:87:c1:27:9b:a0:82:3d:ac:5d:7c:67:34:
                    fa:99:22:79:c8:9b:0e:d0:6e:cf:78:64:69:4e:5c:
                    99:06:0b:5c:55:98:62:74:db:9a:a5:da:4e:be:81:
                    f8:a0:8f:2f:59:ae:8d:20:d2:6f:3e:9d:b1:3b:e4:
                    37:8c:d2:c3:e7:b9:2f:8c:f8:e4:7f:00:9d:8d:35:
                    d6:cf:4d:5e:e1:17:79:4e:60:b7:8f:f3:29:b6:b5:
                    7f:bb:3b
                Exponent: 65537 (0x10001)
        X509v3 extensions:
            X509v3 Basic Constraints: 
                CA:FALSE
            Netscape Comment: 
                Easy-RSA Generated Certificate
            X509v3 Subject Key Identifier: 
                58:EB:7E:72:76:FF:4F:AE:4D:73:69:95:F7:82:A2:64:2B:7A:F4:AD
            X509v3 Authority Key Identifier: 
                keyid:12:CD:60:04:D2:A0:80:9E:70:ED:C6:99:B8:7B:2C:C6:52:FD:19:A1
                DirName:/C=US/ST=OH/L=Columbus/O=VikingVPN/OU=MyOrganizationalUnit/CN=VikingVPN CA/name=EasyRSA/emailAddress=me@myhost.mydomain
                serial:CF:35:85:EE:80:BF:2A:3E

            X509v3 Extended Key Usage: 
                TLS Web Client Authentication
            X509v3 Key Usage: 
                Digital Signature
    Signature Algorithm: sha256WithRSAEncryption
         3c:69:7f:f1:c1:ea:46:d9:2e:58:3f:55:f3:33:ae:85:91:c8:
         3b:a6:4b:41:e5:ae:66:0b:02:9c:77:44:f3:89:38:69:1f:13:
         f3:9f:00:9c:69:0d:c4:6e:d6:e6:d2:61:6d:de:dd:85:07:e9:
         e5:df:ad:70:60:dd:d1:9c:5a:f1:e2:10:5d:af:a2:89:f9:02:
         fe:b9:69:16:03:45:b5:48:4f:76:95:ad:a1:9b:a2:0a:20:d2:
         74:5e:f6:2e:8c:ae:86:f1:fe:37:19:df:a6:97:c3:5d:4e:61:
         7e:f6:65:16:48:24:33:bc:3a:ad:8d:ae:2d:29:33:a3:dc:6d:
         b3:be:d6:f7:8d:47:c0:07:1b:d7:96:d0:9e:e8:eb:25:83:d5:
         3a:de:1e:5e:19:f8:33:11:a9:75:d7:c1:99:bb:e4:cf:e0:0b:
         d6:15:8f:81:30:60:39:42:e2:6f:f0:45:7f:47:1d:2c:a5:94:
         d3:49:ac:6f:77:9c:47:23:99:15:37:3f:96:39:15:48:f6:ef:
         b3:1c:c3:3a:fb:06:94:aa:9a:74:82:4b:0a:aa:da:2b:d1:cb:
         fb:54:0e:76:83:21:0c:02:f1:a1:51:08:cc:02:a6:31:6e:73:
         ea:98:a5:c1:d0:7c:f2:3d:79:b0:fb:78:45:16:25:96:5c:fb:
         0a:09:2c:bc:1c:87:97:d8:81:9b:cd:fa:df:b1:31:48:19:61:
         f7:12:73:07:ee:39:fa:59:fe:ef:1f:04:6e:ed:e7:04:9a:22:
         c4:e7:44:16:c3:39:13:94:03:79:cc:92:69:77:20:3c:59:9c:
         60:81:58:e0:71:3d:f2:17:16:94:4b:a5:db:7b:be:0f:8b:10:
         51:06:2f:f3:85:bc:cb:7c:75:5c:8e:46:d4:74:e5:83:32:bc:
         04:c5:14:34:a3:28:8e:a8:4c:36:9c:b0:2b:27:36:74:dc:2f:
         82:11:cd:ae:6e:cf:8c:c9:62:56:33:aa:a7:1d:cf:a9:19:49:
         4a:b5:8a:64:9e:6c:47:88:73:cd:90:c5:9b:35:ba:c6:1d:66:
         dc:d1:44:0b:d3:18:bf:15:4c:8c:bd:3a:b9:5d:bc:a1:20:64:
         38:9d:c1:af:e0:04:c8:a7:2b:c6:9a:de:03:82:30:ea:73:10:
         dd:35:02:17:f0:29:7f:77:99:eb:a0:bd:ef:7f:ee:58:58:88:
         1e:76:5b:57:19:ca:a5:ef:63:e2:bb:0a:cd:b0:1d:c1:72:57:
         02:84:19:c2:91:df:bb:ce:7c:83:d5:ad:48:38:e8:f1:0c:49:
         fa:b8:ee:87:bd:a1:41:cf:67:e5:2b:2b:07:3a:8f:83:64:59:
         6b:ce:2f:6c:73:5c:45:8c
-----BEGIN CERTIFICATE-----
MIIGrTCCBJWgAwIBAgICMgAwDQYJKoZIhvcNAQELBQAwgawxCzAJBgNVBAYTAlVT
MQswCQYDVQQIEwJPSDERMA8GA1UEBxMIQ29sdW1idXMxEjAQBgNVBAoTCVZpa2lu
Z1ZQTjEdMBsGA1UECxMUTXlPcmdhbml6YXRpb25hbFVuaXQxFTATBgNVBAMTDFZp
a2luZ1ZQTiBDQTEQMA4GA1UEKRMHRWFzeVJTQTEhMB8GCSqGSIb3DQEJARYSbWVA
bXlob3N0Lm15ZG9tYWluMB4XDTE4MDMyNzE3NDcyNloXDTI4MDMyNDE3NDcyNlow
HzEdMBsGA1UEAxMUQ2xpZW50MzI0NENlcnQxNTk1MWYwggIiMA0GCSqGSIb3DQEB
AQUAA4ICDwAwggIKAoICAQDFmnptW0buuw4qBSupElRGynVv6Alh1/ZZBPehQ8MR
qaz1FBuZmcePiNz+Ud1quKLHl0ks+vgjIYfTg/g/6vxU85IHV3DuCGlxlP9t98/0
6IdL9sTDO+q4+c32ShiZAu9eLZTLZ0mViSU7f8oucYYZ1efe5HPnX3NnCvMndfqi
uA74C+FHmZQkdCGf9tUc3hWk0KgffQ8m6T7EmXPlkkQCjhD//gT2X7SmVt5G+8O5
al8hX9CJZN3r/3KRm9nhoTHSkJq6mhzuFyTeykti6IOgznC7MVTknkPCMo4/Ym4u
9kj9zu7/Ji4Cq1qbVfmR7xJUAUx8Wl6b27bCyOAnkLh0MxfwakgQZ0iPu+PGvCg5
V8H5N8ZVl8lqFvvIbF0pmkHqzvbg3YUCpDGsjhAwe2GA8hRtLY67PAc5dfPiGrQE
ncsGnu6FPUsrWS3gsnc1e0xqUYGY07TGBptjPBu2vVkpgdDeRwmXeZC2rO0WT67F
Tvj7wut2AeUkJkCT7cXmvsbuFNCDGXmjKtgWGS4zcwmoUm+xcBJTgzM1GkNpu32P
W6U3SPvPMofBJ5uggj2sXXxnNPqZInnImw7Qbs94ZGlOXJkGC1xVmGJ025ql2k6+
gfigjy9Zro0g0m8+nbE75DeM0sPnuS+M+OR/AJ2NNdbPTV7hF3lOYLeP8ym2tX+7
OwIDAQABo4IBYzCCAV8wCQYDVR0TBAIwADAtBglghkgBhvhCAQ0EIBYeRWFzeS1S
U0EgR2VuZXJhdGVkIENlcnRpZmljYXRlMB0GA1UdDgQWBBRY635ydv9Prk1zaZX3
gqJkK3r0rTCB4QYDVR0jBIHZMIHWgBQSzWAE0qCAnnDtxpm4eyzGUv0ZoaGBsqSB
rzCBrDELMAkGA1UEBhMCVVMxCzAJBgNVBAgTAk9IMREwDwYDVQQHEwhDb2x1bWJ1
czESMBAGA1UEChMJVmlraW5nVlBOMR0wGwYDVQQLExRNeU9yZ2FuaXphdGlvbmFs
VW5pdDEVMBMGA1UEAxMMVmlraW5nVlBOIENBMRAwDgYDVQQpEwdFYXN5UlNBMSEw
HwYJKoZIhvcNAQkBFhJtZUBteWhvc3QubXlkb21haW6CCQDPNYXugL8qPjATBgNV
HSUEDDAKBggrBgEFBQcDAjALBgNVHQ8EBAMCB4AwDQYJKoZIhvcNAQELBQADggIB
ADxpf/HB6kbZLlg/VfMzroWRyDumS0HlrmYLApx3RPOJOGkfE/OfAJxpDcRu1ubS
YW3e3YUH6eXfrXBg3dGcWvHiEF2voon5Av65aRYDRbVIT3aVraGbogog0nRe9i6M
robx/jcZ36aXw11OYX72ZRZIJDO8Oq2Nri0pM6PcbbO+1veNR8AHG9eW0J7o6yWD
1TreHl4Z+DMRqXXXwZm75M/gC9YVj4EwYDlC4m/wRX9HHSyllNNJrG93nEcjmRU3
P5Y5FUj277Mcwzr7BpSqmnSCSwqq2ivRy/tUDnaDIQwC8aFRCMwCpjFuc+qYpcHQ
fPI9ebD7eEUWJZZc+woJLLwch5fYgZvN+t+xMUgZYfcScwfuOfpZ/u8fBG7t5wSa
IsTnRBbDOROUA3nMkml3IDxZnGCBWOBxPfIXFpRLpdt7vg+LEFEGL/OFvMt8dVyO
RtR05YMyvATFFDSjKI6oTDacsCsnNnTcL4IRza5uz4zJYlYzqqcdz6kZSUq1imSe
bEeIc82QxZs1usYdZtzRRAvTGL8VTIy9OrldvKEgZDidwa/gBMinK8aa3gOCMOpz
EN01AhfwKX93meugve9/7lhYiB52W1cZyqXvY+K7Cs2wHcFyVwKEGcKR37vOfIPV
rUg46PEMSfq47oe9oUHPZ+UrKwc6j4NkWWvOL2xzXEWM
-----END CERTIFICATE-----
