Certificate:
    Data:
        Version: 3 (0x2)
        Serial Number: 759 (0x2f7)
    Signature Algorithm: md5WithRSAEncryption
        Issuer: C=US, ST=OH, L=Columbus, O=VikingVPN, OU=MyOrganizationalUnit, CN=VikingVPN CA/name=EasyRSA/emailAddress=me@myhost.mydomain
        Validity
            Not Before: Jan 14 19:27:30 2014 GMT
            Not After : Jan 12 19:27:30 2024 GMT
        Subject: CN=Client303Cert51a6c5
        Subject Public Key Info:
            Public Key Algorithm: rsaEncryption
                Public-Key: (4096 bit)
                Modulus:
                    00:e5:f1:10:d6:f7:a3:6c:75:4e:0d:e9:c8:7a:0f:
                    dd:0d:da:5b:ee:9d:db:ee:75:f5:f3:d8:7c:0e:c1:
                    de:92:8a:42:99:c9:53:c2:f2:a5:93:79:bc:0d:86:
                    c8:9e:c7:81:4b:72:96:5d:49:da:c0:17:9c:9d:e0:
                    65:31:9d:3a:f2:4a:a1:9a:a0:69:89:bd:1d:62:2a:
                    c0:8d:4c:6e:f1:f8:56:cd:b4:f7:cd:4b:69:b3:4a:
                    5b:6e:01:3c:54:87:01:eb:8b:78:2f:82:d0:ae:54:
                    e3:86:1b:43:72:95:f8:ac:3d:c3:51:e3:3b:67:38:
                    f7:66:47:29:35:37:df:22:e7:1f:4d:44:77:63:89:
                    57:2c:d3:d2:b5:bb:2b:22:f1:c6:c5:4c:d0:f4:e2:
                    f5:58:19:75:5e:c8:81:59:9c:4f:36:e9:2b:34:ec:
                    62:14:c0:43:25:7a:49:12:1b:02:05:c2:1e:ce:5c:
                    56:5f:78:e5:d2:df:f9:3e:02:35:fd:3d:33:d0:08:
                    e6:6f:e9:35:f0:d6:a1:2e:73:23:09:95:58:11:dc:
                    1a:4e:8c:2e:81:db:e5:f3:6a:db:05:67:f6:62:e6:
                    32:3b:ea:1f:3b:ba:cb:ca:8b:73:b8:3c:56:e0:bc:
                    6f:78:55:58:2c:ed:52:4d:52:e6:ef:ba:40:cf:ce:
                    60:93:54:2d:24:77:bd:c8:bd:5f:28:56:e6:9c:44:
                    29:09:26:9b:b3:3a:1b:28:cd:29:45:ec:70:de:d4:
                    af:c3:7c:e8:64:e9:ca:0d:84:9e:cc:9f:61:9c:40:
                    28:58:a6:d6:e0:e9:ae:de:b7:c3:3c:19:30:f3:0e:
                    63:c0:ea:57:95:05:3b:28:23:b1:32:61:1c:01:aa:
                    6a:a4:30:14:93:05:09:24:a9:9a:7f:bf:86:2b:66:
                    53:6e:1b:1a:70:3f:a8:8d:15:14:2b:fd:01:66:77:
                    f2:e0:2b:61:46:f8:74:d8:45:95:2d:e4:d5:3c:c2:
                    5e:d2:b6:b3:50:d6:d7:09:a0:4c:00:e5:18:1d:cf:
                    c8:0f:af:71:4c:ee:f3:df:7f:ff:16:06:fa:39:8e:
                    73:fe:5d:eb:c5:a9:49:72:89:e3:9c:ce:24:78:92:
                    f9:7a:4e:f8:48:fe:1a:6e:50:da:84:89:55:66:3d:
                    fa:51:92:4d:43:92:03:64:f9:95:6d:ba:00:66:5f:
                    3a:3a:2d:69:f9:4b:a1:9c:46:87:54:77:57:a2:b5:
                    d4:2c:91:23:08:50:c5:e6:b9:a4:59:7e:13:4e:ed:
                    a6:b7:eb:33:c5:94:ff:37:7a:d2:21:d4:70:e4:db:
                    a2:b6:ba:0a:22:b4:c2:fc:8c:35:16:aa:96:79:79:
                    78:10:67
                Exponent: 65537 (0x10001)
        X509v3 extensions:
            X509v3 Basic Constraints: 
                CA:FALSE
            Netscape Comment: 
                Easy-RSA Generated Certificate
            X509v3 Subject Key Identifier: 
                7E:94:4A:78:9B:C3:08:51:70:A5:47:FC:D5:7C:78:87:F4:33:76:FB
            X509v3 Authority Key Identifier: 
                keyid:12:CD:60:04:D2:A0:80:9E:70:ED:C6:99:B8:7B:2C:C6:52:FD:19:A1
                DirName:/C=US/ST=OH/L=Columbus/O=VikingVPN/OU=MyOrganizationalUnit/CN=VikingVPN CA/name=EasyRSA/emailAddress=me@myhost.mydomain
                serial:CF:35:85:EE:80:BF:2A:3E

            X509v3 Extended Key Usage: 
                TLS Web Client Authentication
            X509v3 Key Usage: 
                Digital Signature
    Signature Algorithm: md5WithRSAEncryption
         e5:6b:d6:fc:35:40:70:cc:6b:0e:89:50:5a:10:da:fb:ff:5a:
         79:09:52:48:0e:0d:54:9d:ec:ae:31:36:66:fe:1e:e8:d5:f7:
         9c:10:83:0b:24:26:c7:1b:74:79:7f:e8:04:dc:1e:41:cd:ef:
         ec:f2:d6:c5:31:09:b1:29:ec:61:a9:85:b6:03:07:b5:c3:8f:
         1d:99:fe:86:76:e5:6a:3e:e0:84:0f:36:cd:f8:0d:11:a8:2c:
         65:84:4e:10:ea:fd:55:bb:ea:66:3b:a8:12:f5:be:42:10:fc:
         95:65:13:4d:7d:ad:8f:9b:9c:30:a7:a5:55:5f:f9:91:3b:a4:
         87:16:16:bc:9c:fb:17:33:7e:3b:ab:17:bc:93:3d:84:ea:7e:
         3b:44:c2:5d:6e:ed:1f:06:fb:67:f3:d3:a2:6f:8e:c4:cf:52:
         0a:43:9a:c1:0a:49:21:2f:47:ce:a9:73:45:86:a5:9a:d4:2f:
         5c:72:1e:8c:c6:09:79:dc:fc:07:22:11:a8:3a:71:64:39:e2:
         2f:bd:80:50:d4:bd:71:8f:01:c1:fc:55:bd:fd:4e:e0:20:5e:
         5e:54:e2:f9:bb:6c:07:16:d2:fb:78:bd:40:9f:62:6b:b8:43:
         79:1d:bd:20:bc:97:60:2d:a6:81:e5:14:28:b6:c0:6c:b8:72:
         76:fd:f5:d3:f4:69:6e:83:c3:7c:b3:4d:12:dd:d8:a9:34:f1:
         70:3d:73:48:76:c9:44:85:69:a2:76:84:c4:1f:21:85:e0:bf:
         24:73:5e:fc:07:8f:fa:2a:e4:0d:fa:e5:ad:a2:04:dc:b4:33:
         16:3c:2b:37:83:aa:d7:b3:b8:9e:0e:24:3c:b0:24:c7:39:42:
         a8:20:ce:71:68:9e:cf:ad:c8:e1:4f:93:9d:c7:24:79:05:d2:
         17:8d:41:a8:37:25:03:88:74:f1:e0:dc:75:60:e3:9b:11:3c:
         31:d4:88:ef:34:ef:1f:02:66:40:83:7c:28:b7:2e:1b:89:39:
         d0:c4:84:0c:72:1e:31:b4:52:54:7b:af:c8:6f:ae:e6:5e:17:
         55:d6:93:ff:ab:78:c0:1f:c2:31:9e:4d:88:87:b3:7a:a8:74:
         ca:a1:be:22:b5:7e:be:b5:d7:87:49:8f:2d:a7:c6:d0:d3:e4:
         54:65:bb:58:d8:00:2d:6d:7a:21:bd:2e:91:84:6a:c0:f5:41:
         8f:ce:29:27:5a:75:b0:c4:84:df:59:a4:15:87:e4:01:e7:ac:
         d0:f9:6c:76:9b:43:dd:fe:c8:3f:fd:7d:b3:8c:e6:4f:e3:13:
         c0:97:a4:cb:17:5f:71:1f:b9:50:f3:88:68:b1:5d:89:95:81:
         e8:67:2a:86:0d:fb:17:94
-----BEGIN CERTIFICATE-----
MIIGrDCCBJSgAwIBAgICAvcwDQYJKoZIhvcNAQEEBQAwgawxCzAJBgNVBAYTAlVT
MQswCQYDVQQIEwJPSDERMA8GA1UEBxMIQ29sdW1idXMxEjAQBgNVBAoTCVZpa2lu
Z1ZQTjEdMBsGA1UECxMUTXlPcmdhbml6YXRpb25hbFVuaXQxFTATBgNVBAMTDFZp
a2luZ1ZQTiBDQTEQMA4GA1UEKRMHRWFzeVJTQTEhMB8GCSqGSIb3DQEJARYSbWVA
bXlob3N0Lm15ZG9tYWluMB4XDTE0MDExNDE5MjczMFoXDTI0MDExMjE5MjczMFow
HjEcMBoGA1UEAxMTQ2xpZW50MzAzQ2VydDUxYTZjNTCCAiIwDQYJKoZIhvcNAQEB
BQADggIPADCCAgoCggIBAOXxENb3o2x1Tg3pyHoP3Q3aW+6d2+519fPYfA7B3pKK
QpnJU8LypZN5vA2GyJ7HgUtyll1J2sAXnJ3gZTGdOvJKoZqgaYm9HWIqwI1MbvH4
Vs20981LabNKW24BPFSHAeuLeC+C0K5U44YbQ3KV+Kw9w1HjO2c492ZHKTU33yLn
H01Ed2OJVyzT0rW7KyLxxsVM0PTi9VgZdV7IgVmcTzbpKzTsYhTAQyV6SRIbAgXC
Hs5cVl945dLf+T4CNf09M9AI5m/pNfDWoS5zIwmVWBHcGk6MLoHb5fNq2wVn9mLm
MjvqHzu6y8qLc7g8VuC8b3hVWCztUk1S5u+6QM/OYJNULSR3vci9XyhW5pxEKQkm
m7M6GyjNKUXscN7Ur8N86GTpyg2EnsyfYZxAKFim1uDprt63wzwZMPMOY8DqV5UF
OygjsTJhHAGqaqQwFJMFCSSpmn+/hitmU24bGnA/qI0VFCv9AWZ38uArYUb4dNhF
lS3k1TzCXtK2s1DW1wmgTADlGB3PyA+vcUzu899//xYG+jmOc/5d68WpSXKJ45zO
JHiS+XpO+Ej+Gm5Q2oSJVWY9+lGSTUOSA2T5lW26AGZfOjotaflLoZxGh1R3V6K1
1CyRIwhQxea5pFl+E07tprfrM8WU/zd60iHUcOTbora6CiK0wvyMNRaqlnl5eBBn
AgMBAAGjggFjMIIBXzAJBgNVHRMEAjAAMC0GCWCGSAGG+EIBDQQgFh5FYXN5LVJT
QSBHZW5lcmF0ZWQgQ2VydGlmaWNhdGUwHQYDVR0OBBYEFH6USnibwwhRcKVH/NV8
eIf0M3b7MIHhBgNVHSMEgdkwgdaAFBLNYATSoICecO3Gmbh7LMZS/RmhoYGypIGv
MIGsMQswCQYDVQQGEwJVUzELMAkGA1UECBMCT0gxETAPBgNVBAcTCENvbHVtYnVz
MRIwEAYDVQQKEwlWaWtpbmdWUE4xHTAbBgNVBAsTFE15T3JnYW5pemF0aW9uYWxV
bml0MRUwEwYDVQQDEwxWaWtpbmdWUE4gQ0ExEDAOBgNVBCkTB0Vhc3lSU0ExITAf
BgkqhkiG9w0BCQEWEm1lQG15aG9zdC5teWRvbWFpboIJAM81he6Avyo+MBMGA1Ud
JQQMMAoGCCsGAQUFBwMCMAsGA1UdDwQEAwIHgDANBgkqhkiG9w0BAQQFAAOCAgEA
5WvW/DVAcMxrDolQWhDa+/9aeQlSSA4NVJ3srjE2Zv4e6NX3nBCDCyQmxxt0eX/o
BNweQc3v7PLWxTEJsSnsYamFtgMHtcOPHZn+hnblaj7ghA82zfgNEagsZYROEOr9
VbvqZjuoEvW+QhD8lWUTTX2tj5ucMKelVV/5kTukhxYWvJz7FzN+O6sXvJM9hOp+
O0TCXW7tHwb7Z/PTom+OxM9SCkOawQpJIS9HzqlzRYalmtQvXHIejMYJedz8ByIR
qDpxZDniL72AUNS9cY8BwfxVvf1O4CBeXlTi+btsBxbS+3i9QJ9ia7hDeR29ILyX
YC2mgeUUKLbAbLhydv310/RpboPDfLNNEt3YqTTxcD1zSHbJRIVponaExB8hheC/
JHNe/AeP+irkDfrlraIE3LQzFjwrN4Oq17O4ng4kPLAkxzlCqCDOcWiez63I4U+T
ncckeQXSF41BqDclA4h08eDcdWDjmxE8MdSI7zTvHwJmQIN8KLcuG4k50MSEDHIe
MbRSVHuvyG+u5l4XVdaT/6t4wB/CMZ5NiIezeqh0yqG+IrV+vrXXh0mPLafG0NPk
VGW7WNgALW16Ib0ukYRqwPVBj84pJ1p1sMSE31mkFYfkAees0PlsdptD3f7IP/19
s4zmT+MTwJekyxdfcR+5UPOIaLFdiZWB6Gcqhg37F5Q=
-----END CERTIFICATE-----
