Certificate:
    Data:
        Version: 3 (0x2)
        Serial Number: 5260 (0x148c)
    Signature Algorithm: md5WithRSAEncryption
        Issuer: C=US, ST=OH, L=Columbus, O=VikingVPN, OU=MyOrganizationalUnit, CN=VikingVPN CA/name=EasyRSA/emailAddress=me@myhost.mydomain
        Validity
            Not Before: May 13 10:30:51 2015 GMT
            Not After : May 10 10:30:51 2025 GMT
        Subject: CN=Client87Certdbf597
        Subject Public Key Info:
            Public Key Algorithm: rsaEncryption
                Public-Key: (4096 bit)
                Modulus:
                    00:ea:5d:02:65:e8:39:a0:72:12:e1:dc:dc:76:f3:
                    c5:28:af:e2:2e:e0:21:d4:de:22:e6:e3:69:30:4a:
                    73:17:d8:71:12:d5:2b:04:36:5c:e5:64:ed:c8:08:
                    70:2f:77:38:c5:53:7b:c9:e6:85:55:2d:a5:e4:18:
                    43:11:1a:7c:91:e8:99:b7:9c:55:7f:c3:74:3e:d5:
                    50:95:86:fa:d9:5d:5d:53:d7:6c:28:5f:ad:86:81:
                    e6:4e:b6:89:45:d3:1a:83:41:bf:73:25:d2:93:03:
                    aa:47:b2:98:ef:40:fa:e6:bd:56:4a:af:64:11:84:
                    2e:31:ae:7c:26:d3:ea:1a:9f:51:87:da:2a:d5:46:
                    4a:c7:43:69:a8:c4:ff:e3:d6:17:6d:6b:7e:61:ba:
                    56:73:1e:cf:b6:93:d3:35:a2:ab:30:5e:23:13:9e:
                    8e:92:be:cc:46:70:33:0f:e2:9d:75:20:e8:8e:1e:
                    4f:30:67:79:3b:fd:98:75:d0:32:a5:29:19:ed:8b:
                    8e:82:08:f5:02:42:87:04:01:ae:3b:de:06:60:8f:
                    a0:e5:5c:1f:47:20:cc:f1:fa:eb:ec:a8:04:b8:8b:
                    fd:bc:d9:49:e2:4d:72:b6:82:05:29:8d:77:7a:b0:
                    5a:78:78:cb:c8:97:a2:85:da:21:b1:34:cb:3a:a6:
                    2a:08:67:1a:21:b7:91:cd:cb:de:7c:ad:11:35:88:
                    48:ca:f9:b7:f6:9a:1f:e0:60:6c:30:f0:ed:e6:b4:
                    d4:fa:f6:87:3d:a3:91:f2:98:39:ac:f9:ff:7c:20:
                    3b:9a:18:ae:f1:31:45:d6:82:a0:9a:e7:1a:19:40:
                    de:88:72:72:c3:bf:7c:de:42:67:81:55:0a:3b:2a:
                    c6:b5:9a:bd:b3:4a:73:c2:fa:3f:7e:c5:01:86:15:
                    08:b1:c0:c0:cb:c0:90:63:08:14:d3:37:11:e5:aa:
                    44:07:da:c4:54:59:39:a5:e5:5d:2d:8f:6b:f2:ea:
                    f6:70:0c:63:5a:c5:f4:f4:f8:90:61:4e:24:74:62:
                    9e:4e:6a:9f:e0:25:39:79:fb:1a:91:0e:4d:ff:c9:
                    25:8b:b3:f5:f8:1f:db:c3:33:ca:96:3b:5c:83:8f:
                    a4:e0:72:ba:27:33:67:bd:09:5b:a0:17:8e:8e:70:
                    28:7e:4a:77:7d:10:73:94:ac:72:19:9a:37:09:fa:
                    d8:42:71:2a:9a:f4:31:65:f4:2f:d1:10:16:8b:51:
                    73:85:36:0e:c3:0a:c4:79:dc:b5:f5:ce:20:48:bf:
                    10:77:6d:28:c1:5b:91:e2:ba:7e:e0:b7:ca:5b:1c:
                    b2:4d:2a:51:bc:d3:9e:3e:c0:71:76:b7:ff:e5:d7:
                    b6:af:55
                Exponent: 65537 (0x10001)
        X509v3 extensions:
            X509v3 Basic Constraints: 
                CA:FALSE
            Netscape Comment: 
                Easy-RSA Generated Certificate
            X509v3 Subject Key Identifier: 
                3F:26:E2:66:39:77:37:3B:88:CE:11:82:C1:9F:98:A2:76:0D:B5:0F
            X509v3 Authority Key Identifier: 
                keyid:12:CD:60:04:D2:A0:80:9E:70:ED:C6:99:B8:7B:2C:C6:52:FD:19:A1
                DirName:/C=US/ST=OH/L=Columbus/O=VikingVPN/OU=MyOrganizationalUnit/CN=VikingVPN CA/name=EasyRSA/emailAddress=me@myhost.mydomain
                serial:CF:35:85:EE:80:BF:2A:3E

            X509v3 Extended Key Usage: 
                TLS Web Client Authentication
            X509v3 Key Usage: 
                Digital Signature
    Signature Algorithm: md5WithRSAEncryption
         52:d2:d1:0c:98:03:23:c8:a6:1e:80:6c:4c:d9:32:42:80:18:
         dc:1f:64:0c:90:1f:08:a8:2b:f6:b6:fa:55:88:7e:54:f7:19:
         bd:a0:6c:cf:63:f1:cd:9f:67:68:7c:f0:d2:78:bc:0b:fd:98:
         6f:b4:3a:1c:e6:43:ea:7b:1a:18:8c:4b:e9:c4:f5:f5:b9:d0:
         d6:65:55:8c:dc:1f:6f:62:fb:94:3d:e1:c0:05:ea:31:5a:b4:
         31:4f:f3:de:fa:2a:38:6d:e4:3a:8b:0b:ab:f4:f8:f0:28:3a:
         a9:00:da:dc:d6:0c:48:45:07:5f:b3:8a:3e:ab:e1:0e:c7:34:
         fc:30:9c:f0:23:ff:4b:26:84:94:2a:fb:86:ea:55:ff:8a:96:
         11:02:fb:c6:11:e0:2d:e3:0e:4e:0d:4a:d2:8c:cd:7d:c8:ec:
         f9:1d:1b:85:4d:fa:cc:44:49:70:12:3b:b3:c0:c1:c7:a1:d3:
         31:c6:3e:61:7f:f7:39:0b:6d:12:49:4e:f4:1d:aa:40:2c:07:
         74:68:61:2e:3e:4b:49:95:9c:d9:ac:22:f9:2e:a2:ce:f5:96:
         53:ec:32:2a:f6:bc:16:ed:86:f9:20:c0:4b:75:2a:66:5c:10:
         53:7a:47:be:2b:16:1f:e5:e4:f6:ba:86:bd:21:db:bc:fe:ce:
         d5:e3:5d:d2:e0:d1:5c:7a:27:a0:48:37:34:e0:8a:ce:db:85:
         1c:c5:0c:22:87:66:d5:ec:77:ff:0a:1b:9d:d0:2c:77:96:a9:
         f1:01:ad:18:b7:f4:af:c7:ec:95:5e:15:af:00:1b:99:a7:da:
         58:d9:67:fb:71:72:e5:54:ba:fc:ac:39:26:e2:3f:54:17:39:
         da:9d:84:a0:db:c9:de:7e:18:3e:11:a6:eb:20:e5:fd:ad:15:
         8a:64:9c:cd:fe:b0:1f:cf:b8:48:03:cd:66:43:ba:c9:0f:bf:
         fc:41:09:1d:86:18:4c:1a:ef:d7:3c:0e:51:dd:7b:4a:93:b5:
         d2:5c:ff:17:2a:a6:35:57:af:a0:5c:66:6b:05:f5:7f:4b:b5:
         84:ee:42:0a:1a:1a:3a:96:c5:8b:a3:86:07:51:12:a8:71:d6:
         5f:fd:dd:72:6a:52:a4:5c:9c:cc:0c:ca:19:a4:5a:c9:50:19:
         ce:74:f9:15:83:44:df:14:92:57:cc:a6:91:06:79:a3:02:7d:
         97:70:6e:48:c4:99:be:77:cf:b4:2c:48:0c:d5:2c:6d:0f:cf:
         e6:67:7f:80:1b:41:dd:91:44:ca:a0:2c:a9:5e:1b:5e:2a:0f:
         31:96:ec:56:92:9a:3d:8b:8f:84:c6:16:09:57:09:a0:0c:7e:
         35:4a:67:c8:3c:28:10:90
-----BEGIN CERTIFICATE-----
MIIGqzCCBJOgAwIBAgICFIwwDQYJKoZIhvcNAQEEBQAwgawxCzAJBgNVBAYTAlVT
MQswCQYDVQQIEwJPSDERMA8GA1UEBxMIQ29sdW1idXMxEjAQBgNVBAoTCVZpa2lu
Z1ZQTjEdMBsGA1UECxMUTXlPcmdhbml6YXRpb25hbFVuaXQxFTATBgNVBAMTDFZp
a2luZ1ZQTiBDQTEQMA4GA1UEKRMHRWFzeVJTQTEhMB8GCSqGSIb3DQEJARYSbWVA
bXlob3N0Lm15ZG9tYWluMB4XDTE1MDUxMzEwMzA1MVoXDTI1MDUxMDEwMzA1MVow
HTEbMBkGA1UEAxMSQ2xpZW50ODdDZXJ0ZGJmNTk3MIICIjANBgkqhkiG9w0BAQEF
AAOCAg8AMIICCgKCAgEA6l0CZeg5oHIS4dzcdvPFKK/iLuAh1N4i5uNpMEpzF9hx
EtUrBDZc5WTtyAhwL3c4xVN7yeaFVS2l5BhDERp8keiZt5xVf8N0PtVQlYb62V1d
U9dsKF+thoHmTraJRdMag0G/cyXSkwOqR7KY70D65r1WSq9kEYQuMa58JtPqGp9R
h9oq1UZKx0NpqMT/49YXbWt+YbpWcx7PtpPTNaKrMF4jE56Okr7MRnAzD+KddSDo
jh5PMGd5O/2YddAypSkZ7YuOggj1AkKHBAGuO94GYI+g5VwfRyDM8frr7KgEuIv9
vNlJ4k1ytoIFKY13erBaeHjLyJeihdohsTTLOqYqCGcaIbeRzcvefK0RNYhIyvm3
9pof4GBsMPDt5rTU+vaHPaOR8pg5rPn/fCA7mhiu8TFF1oKgmucaGUDeiHJyw798
3kJngVUKOyrGtZq9s0pzwvo/fsUBhhUIscDAy8CQYwgU0zcR5apEB9rEVFk5peVd
LY9r8ur2cAxjWsX09PiQYU4kdGKeTmqf4CU5efsakQ5N/8kli7P1+B/bwzPKljtc
g4+k4HK6JzNnvQlboBeOjnAofkp3fRBzlKxyGZo3CfrYQnEqmvQxZfQv0RAWi1Fz
hTYOwwrEedy19c4gSL8Qd20owVuR4rp+4LfKWxyyTSpRvNOePsBxdrf/5de2r1UC
AwEAAaOCAWMwggFfMAkGA1UdEwQCMAAwLQYJYIZIAYb4QgENBCAWHkVhc3ktUlNB
IEdlbmVyYXRlZCBDZXJ0aWZpY2F0ZTAdBgNVHQ4EFgQUPybiZjl3NzuIzhGCwZ+Y
onYNtQ8wgeEGA1UdIwSB2TCB1oAUEs1gBNKggJ5w7caZuHssxlL9GaGhgbKkga8w
gawxCzAJBgNVBAYTAlVTMQswCQYDVQQIEwJPSDERMA8GA1UEBxMIQ29sdW1idXMx
EjAQBgNVBAoTCVZpa2luZ1ZQTjEdMBsGA1UECxMUTXlPcmdhbml6YXRpb25hbFVu
aXQxFTATBgNVBAMTDFZpa2luZ1ZQTiBDQTEQMA4GA1UEKRMHRWFzeVJTQTEhMB8G
CSqGSIb3DQEJARYSbWVAbXlob3N0Lm15ZG9tYWluggkAzzWF7oC/Kj4wEwYDVR0l
BAwwCgYIKwYBBQUHAwIwCwYDVR0PBAQDAgeAMA0GCSqGSIb3DQEBBAUAA4ICAQBS
0tEMmAMjyKYegGxM2TJCgBjcH2QMkB8IqCv2tvpViH5U9xm9oGzPY/HNn2dofPDS
eLwL/ZhvtDoc5kPqexoYjEvpxPX1udDWZVWM3B9vYvuUPeHABeoxWrQxT/Pe+io4
beQ6iwur9PjwKDqpANrc1gxIRQdfs4o+q+EOxzT8MJzwI/9LJoSUKvuG6lX/ipYR
AvvGEeAt4w5ODUrSjM19yOz5HRuFTfrMRElwEjuzwMHHodMxxj5hf/c5C20SSU70
HapALAd0aGEuPktJlZzZrCL5LqLO9ZZT7DIq9rwW7Yb5IMBLdSpmXBBTeke+KxYf
5eT2uoa9Idu8/s7V413S4NFceiegSDc04IrO24UcxQwih2bV7Hf/Chud0Cx3lqnx
Aa0Yt/Svx+yVXhWvABuZp9pY2Wf7cXLlVLr8rDkm4j9UFznanYSg28nefhg+Eabr
IOX9rRWKZJzN/rAfz7hIA81mQ7rJD7/8QQkdhhhMGu/XPA5R3XtKk7XSXP8XKqY1
V6+gXGZrBfV/S7WE7kIKGho6lsWLo4YHURKocdZf/d1yalKkXJzMDMoZpFrJUBnO
dPkVg0TfFJJXzKaRBnmjAn2XcG5IxJm+d8+0LEgM1SxtD8/mZ3+AG0HdkUTKoCyp
XhteKg8xluxWkpo9i4+ExhYJVwmgDH41SmfIPCgQkA==
-----END CERTIFICATE-----
