Certificate:
    Data:
        Version: 3 (0x2)
        Serial Number: 10699 (0x29cb)
    Signature Algorithm: sha256WithRSAEncryption
        Issuer: C=US, ST=OH, L=Columbus, O=VikingVPN, OU=MyOrganizationalUnit, CN=VikingVPN CA/name=EasyRSA/emailAddress=me@myhost.mydomain
        Validity
            Not Before: Apr 19 18:42:04 2017 GMT
            Not After : Apr 17 18:42:04 2027 GMT
        Subject: CN=Client2871Certf6824a
        Subject Public Key Info:
            Public Key Algorithm: rsaEncryption
                Public-Key: (4096 bit)
                Modulus:
                    00:ad:c4:76:f4:9f:62:c8:70:da:e3:ea:2f:30:8d:
                    c7:ab:b0:24:b4:5b:22:c5:e7:88:3a:f7:74:87:dd:
                    ac:97:93:9a:71:f5:8d:d2:f4:68:42:d7:ab:b2:78:
                    3c:af:3e:29:37:0b:4d:60:3d:ba:18:29:73:77:a5:
                    00:2c:17:21:76:ac:fe:4e:ef:69:5a:84:e8:a4:1c:
                    c5:33:a3:b5:d9:60:26:f3:5a:cd:cd:b1:ad:01:d2:
                    4e:84:d4:66:1a:b8:cc:b9:fd:31:ec:86:47:86:89:
                    eb:03:ce:51:58:c1:95:a1:3f:f2:01:05:8c:84:42:
                    f5:d8:84:22:d9:54:0f:9d:c5:68:e2:c6:80:de:66:
                    33:64:50:30:ea:0c:4b:a0:e7:92:68:7c:ca:7e:b5:
                    6a:a4:58:1c:b7:01:96:22:e9:6a:7d:fb:6f:27:d1:
                    f9:8f:69:18:1c:aa:1c:d0:d9:ae:d9:ed:2c:eb:98:
                    d3:a1:2f:ed:25:db:b6:b5:77:32:cb:6c:02:e4:fe:
                    f6:6c:12:5d:1b:39:ac:a0:33:52:67:b1:ca:8f:cf:
                    cd:23:b2:85:4b:63:fc:53:81:3a:34:70:83:f5:98:
                    cb:14:33:ca:9e:2b:82:e1:f6:9f:81:85:ee:8c:7e:
                    d3:0f:ed:3b:70:e0:ee:eb:e0:8c:dc:82:73:9f:62:
                    f4:fc:ba:5d:ed:fe:48:3d:c0:ad:04:2e:78:83:89:
                    43:b4:4c:d9:c9:ac:3c:e7:a8:76:33:9a:c7:92:3e:
                    f3:5e:cf:15:2a:8c:55:6e:f3:12:fc:64:0b:1d:53:
                    40:dd:d6:53:c4:78:85:9e:f5:95:10:56:eb:91:90:
                    67:75:97:2f:ae:67:af:6c:48:4d:14:fd:91:e5:cf:
                    c4:61:bc:93:4f:06:c3:5e:21:c2:7a:a3:b3:1f:5b:
                    d7:bf:59:76:33:e7:d9:18:02:7d:42:45:2e:49:ae:
                    65:ea:d0:d4:2e:be:20:74:8a:8d:2e:c7:21:ac:99:
                    7d:69:2a:2a:c1:45:f9:a8:28:f0:20:c6:27:35:70:
                    0f:61:c2:4c:0b:89:dd:9d:b6:e9:f1:b7:90:4d:01:
                    ad:2e:64:47:9f:33:e6:f8:18:c8:05:d3:90:c1:ab:
                    4e:a7:b2:ec:d2:a9:7c:08:3a:2b:2f:a3:76:47:50:
                    76:95:58:4d:85:e3:be:9f:42:e9:b8:b5:c0:04:09:
                    6f:21:51:28:a7:b2:dd:88:2d:68:3a:f9:22:35:a7:
                    71:e1:58:da:9f:e8:61:80:c6:f8:14:d8:a2:76:7e:
                    71:fb:6b:d9:f1:da:34:37:14:f9:f4:de:84:22:dd:
                    e0:ed:a8:6f:62:5c:62:8f:2a:86:57:9a:f9:c4:7a:
                    3f:93:e3
                Exponent: 65537 (0x10001)
        X509v3 extensions:
            X509v3 Basic Constraints: 
                CA:FALSE
            Netscape Comment: 
                Easy-RSA Generated Certificate
            X509v3 Subject Key Identifier: 
                82:06:A2:77:09:61:C1:01:65:C0:53:72:5F:A3:2A:53:12:C1:AF:32
            X509v3 Authority Key Identifier: 
                keyid:12:CD:60:04:D2:A0:80:9E:70:ED:C6:99:B8:7B:2C:C6:52:FD:19:A1
                DirName:/C=US/ST=OH/L=Columbus/O=VikingVPN/OU=MyOrganizationalUnit/CN=VikingVPN CA/name=EasyRSA/emailAddress=me@myhost.mydomain
                serial:CF:35:85:EE:80:BF:2A:3E

            X509v3 Extended Key Usage: 
                TLS Web Client Authentication
            X509v3 Key Usage: 
                Digital Signature
    Signature Algorithm: sha256WithRSAEncryption
         7e:b9:98:ba:64:b7:5a:11:7c:8b:1d:f7:b8:68:c4:d3:01:59:
         1d:0d:92:b6:e1:8c:23:69:ec:30:d9:d1:50:40:d7:f4:52:e2:
         f5:1f:5b:1e:80:4b:fe:7d:1e:d5:be:d9:ec:6d:cf:53:59:b2:
         5c:55:e7:95:4d:03:6b:82:a3:55:d3:b5:8c:5e:c2:bb:a4:c6:
         44:e0:a5:6e:c2:1f:7d:2c:25:d8:18:4b:0a:00:3e:14:a7:ee:
         ae:d9:79:4e:6d:c5:89:a2:01:9e:c3:10:6c:a8:f2:f0:42:21:
         96:17:0c:ca:3c:f0:c6:2f:b1:32:00:eb:b5:f4:bb:b3:54:85:
         6e:b7:00:a6:2d:cd:7a:0f:92:e9:8d:24:6d:dd:6c:da:2b:73:
         e1:e2:c9:40:7a:1e:e4:c7:e3:98:e4:33:8e:42:d2:34:21:4c:
         00:07:cd:6c:c6:0d:d0:73:e0:dc:27:00:15:d5:04:f5:97:df:
         82:b9:90:51:c2:7b:65:92:9c:51:c5:97:3f:75:8a:30:6b:22:
         15:da:f1:65:18:f2:e1:bb:67:80:d7:5b:01:25:40:13:2c:25:
         7a:1a:1d:ce:52:d5:b0:b4:92:0c:43:76:dd:9c:ec:30:37:0a:
         5b:44:1d:ea:48:a2:0c:3c:cc:77:0e:f9:8e:35:79:16:63:78:
         8e:41:d7:53:d3:ef:4a:47:44:a0:4f:8f:a4:87:62:db:b2:29:
         21:f4:d9:fd:89:6e:ac:76:f1:b4:88:40:d1:1e:b3:f8:b1:08:
         04:b2:5f:65:a1:5b:99:a3:50:54:87:c2:8a:1e:cc:45:3a:95:
         34:19:d7:6e:76:cb:8e:35:2a:48:52:eb:01:2a:f0:84:91:60:
         ef:11:02:19:27:57:52:73:a9:45:2f:59:6b:9a:17:9f:a8:f0:
         c3:6a:93:18:a7:53:1c:4a:bf:63:95:dc:8a:80:81:00:cd:9f:
         fa:60:a1:1c:e4:fb:0b:14:f0:7b:51:ba:3e:98:ee:51:c4:08:
         89:e4:e5:8d:45:f3:ee:2e:d1:b0:bd:b5:d5:77:01:91:1b:43:
         3d:36:83:9c:b1:24:23:ac:0a:48:79:20:76:e1:00:01:6e:df:
         ac:f3:d8:05:5a:d5:82:01:b9:fd:be:40:d3:f5:7c:c7:0c:19:
         d7:29:90:b7:3d:5e:df:b6:1b:9c:ae:d0:0c:79:6a:a9:74:88:
         a0:f7:76:fc:ec:ce:dd:f0:9c:10:f0:43:19:3d:b6:c8:ad:77:
         8a:ca:24:c8:c2:75:ca:cf:48:4d:a7:3e:0b:08:64:00:4d:06:
         69:c5:d6:ac:62:20:4f:8a:6d:8f:de:78:0e:15:4b:3d:74:e9:
         fd:17:e5:18:09:8c:9b:77
-----BEGIN CERTIFICATE-----
MIIGrTCCBJWgAwIBAgICKcswDQYJKoZIhvcNAQELBQAwgawxCzAJBgNVBAYTAlVT
MQswCQYDVQQIEwJPSDERMA8GA1UEBxMIQ29sdW1idXMxEjAQBgNVBAoTCVZpa2lu
Z1ZQTjEdMBsGA1UECxMUTXlPcmdhbml6YXRpb25hbFVuaXQxFTATBgNVBAMTDFZp
a2luZ1ZQTiBDQTEQMA4GA1UEKRMHRWFzeVJTQTEhMB8GCSqGSIb3DQEJARYSbWVA
bXlob3N0Lm15ZG9tYWluMB4XDTE3MDQxOTE4NDIwNFoXDTI3MDQxNzE4NDIwNFow
HzEdMBsGA1UEAxMUQ2xpZW50Mjg3MUNlcnRmNjgyNGEwggIiMA0GCSqGSIb3DQEB
AQUAA4ICDwAwggIKAoICAQCtxHb0n2LIcNrj6i8wjcersCS0WyLF54g693SH3ayX
k5px9Y3S9GhC16uyeDyvPik3C01gPboYKXN3pQAsFyF2rP5O72lahOikHMUzo7XZ
YCbzWs3Nsa0B0k6E1GYauMy5/THshkeGiesDzlFYwZWhP/IBBYyEQvXYhCLZVA+d
xWjixoDeZjNkUDDqDEug55JofMp+tWqkWBy3AZYi6Wp9+28n0fmPaRgcqhzQ2a7Z
7SzrmNOhL+0l27a1dzLLbALk/vZsEl0bOaygM1JnscqPz80jsoVLY/xTgTo0cIP1
mMsUM8qeK4Lh9p+Bhe6MftMP7Ttw4O7r4IzcgnOfYvT8ul3t/kg9wK0ELniDiUO0
TNnJrDznqHYzmseSPvNezxUqjFVu8xL8ZAsdU0Dd1lPEeIWe9ZUQVuuRkGd1ly+u
Z69sSE0U/ZHlz8RhvJNPBsNeIcJ6o7MfW9e/WXYz59kYAn1CRS5JrmXq0NQuviB0
io0uxyGsmX1pKirBRfmoKPAgxic1cA9hwkwLid2dtunxt5BNAa0uZEefM+b4GMgF
05DBq06nsuzSqXwIOisvo3ZHUHaVWE2F476fQum4tcAECW8hUSinst2ILWg6+SI1
p3HhWNqf6GGAxvgU2KJ2fnH7a9nx2jQ3FPn03oQi3eDtqG9iXGKPKoZXmvnEej+T
4wIDAQABo4IBYzCCAV8wCQYDVR0TBAIwADAtBglghkgBhvhCAQ0EIBYeRWFzeS1S
U0EgR2VuZXJhdGVkIENlcnRpZmljYXRlMB0GA1UdDgQWBBSCBqJ3CWHBAWXAU3Jf
oypTEsGvMjCB4QYDVR0jBIHZMIHWgBQSzWAE0qCAnnDtxpm4eyzGUv0ZoaGBsqSB
rzCBrDELMAkGA1UEBhMCVVMxCzAJBgNVBAgTAk9IMREwDwYDVQQHEwhDb2x1bWJ1
czESMBAGA1UEChMJVmlraW5nVlBOMR0wGwYDVQQLExRNeU9yZ2FuaXphdGlvbmFs
VW5pdDEVMBMGA1UEAxMMVmlraW5nVlBOIENBMRAwDgYDVQQpEwdFYXN5UlNBMSEw
HwYJKoZIhvcNAQkBFhJtZUBteWhvc3QubXlkb21haW6CCQDPNYXugL8qPjATBgNV
HSUEDDAKBggrBgEFBQcDAjALBgNVHQ8EBAMCB4AwDQYJKoZIhvcNAQELBQADggIB
AH65mLpkt1oRfIsd97hoxNMBWR0NkrbhjCNp7DDZ0VBA1/RS4vUfWx6AS/59HtW+
2extz1NZslxV55VNA2uCo1XTtYxewrukxkTgpW7CH30sJdgYSwoAPhSn7q7ZeU5t
xYmiAZ7DEGyo8vBCIZYXDMo88MYvsTIA67X0u7NUhW63AKYtzXoPkumNJG3dbNor
c+HiyUB6HuTH45jkM45C0jQhTAAHzWzGDdBz4NwnABXVBPWX34K5kFHCe2WSnFHF
lz91ijBrIhXa8WUY8uG7Z4DXWwElQBMsJXoaHc5S1bC0kgxDdt2c7DA3CltEHepI
ogw8zHcO+Y41eRZjeI5B11PT70pHRKBPj6SHYtuyKSH02f2Jbqx28bSIQNEes/ix
CASyX2WhW5mjUFSHwooezEU6lTQZ1252y441KkhS6wEq8ISRYO8RAhknV1JzqUUv
WWuaF5+o8MNqkxinUxxKv2OV3IqAgQDNn/pgoRzk+wsU8HtRuj6Y7lHECInk5Y1F
8+4u0bC9tdV3AZEbQz02g5yxJCOsCkh5IHbhAAFu36zz2AVa1YIBuf2+QNP1fMcM
GdcpkLc9Xt+2G5yu0Ax5aql0iKD3dvzszt3wnBDwQxk9tsitd4rKJMjCdcrPSE2n
PgsIZABNBmnF1qxiIE+KbY/eeA4VSz106f0X5RgJjJt3
-----END CERTIFICATE-----
