Certificate:
    Data:
        Version: 3 (0x2)
        Serial Number: 1546 (0x60a)
    Signature Algorithm: md5WithRSAEncryption
        Issuer: C=US, ST=OH, L=Columbus, O=VikingVPN, OU=MyOrganizationalUnit, CN=VikingVPN CA/name=EasyRSA/emailAddress=me@myhost.mydomain
        Validity
            Not Before: Apr 10 02:07:54 2014 GMT
            Not After : Apr  7 02:07:54 2024 GMT
        Subject: CN=Client571Cert426fff
        Subject Public Key Info:
            Public Key Algorithm: rsaEncryption
                Public-Key: (4096 bit)
                Modulus:
                    00:cb:be:b4:35:d0:a5:7a:e8:43:68:ac:51:35:f8:
                    40:82:99:c6:4b:c4:cb:31:54:44:01:0d:7d:8e:dc:
                    5c:25:99:b2:fc:f5:b2:db:46:0d:77:24:97:f4:e9:
                    13:6f:aa:61:6c:03:53:ba:20:7e:0b:58:30:02:23:
                    fa:e9:54:99:d7:79:4a:1c:fe:a7:63:6c:56:0e:84:
                    17:59:6d:a9:62:3a:4f:d7:1b:53:2e:50:5f:cb:c3:
                    69:5d:c0:81:5f:41:cc:e5:b2:ed:d7:58:0d:bc:32:
                    d1:37:70:69:f3:59:5b:a7:39:85:f5:bc:0f:df:77:
                    d5:0d:e6:54:e4:37:fd:99:0d:13:c4:24:8e:8e:89:
                    2b:26:c4:f4:07:bf:66:1d:bf:29:98:1e:71:78:df:
                    bc:69:93:d9:1a:63:db:72:50:9f:5c:fe:6e:a7:fb:
                    28:4b:a1:b6:c0:71:55:47:20:21:e5:b3:f4:d0:b9:
                    e7:d1:3d:14:f7:c0:21:0e:6c:13:f0:48:ad:d5:96:
                    bb:68:6c:6f:56:54:67:c9:98:e0:a2:55:3e:bf:f8:
                    66:2f:b9:93:b2:ed:09:f9:33:47:e9:bd:96:ee:b4:
                    6c:f9:38:66:36:3a:49:7c:29:58:bf:61:ad:32:bd:
                    5f:55:0c:83:84:bf:94:5d:69:a5:43:94:a7:93:0a:
                    13:81:4e:4c:56:10:ab:e7:d5:9d:c8:c1:3c:8b:f9:
                    26:09:1f:3b:cf:0a:dc:26:64:42:ea:40:7f:b3:e5:
                    5d:f7:df:aa:d1:83:69:d9:d5:92:0e:74:f0:6e:09:
                    89:75:8b:56:df:82:0c:af:5c:ea:cb:5d:81:48:78:
                    46:4a:da:2f:c0:3c:e3:f4:83:90:00:c2:14:d0:df:
                    f3:d9:a6:45:bc:d6:2a:e5:ef:15:34:23:6f:fb:58:
                    0c:d6:80:4c:af:f6:5e:13:24:ae:46:36:c7:11:4d:
                    19:f6:2c:35:53:51:a6:6b:7a:af:8c:82:59:a4:13:
                    74:ea:f2:92:cb:35:66:98:ca:48:5a:fc:26:a5:50:
                    e0:f5:0a:33:3e:bd:a2:3c:2b:d2:23:46:7a:8a:8a:
                    a0:97:bd:aa:ee:96:ae:06:f0:5e:6e:3b:10:42:c0:
                    03:4b:97:32:62:09:38:a4:51:51:05:b1:7f:a2:32:
                    1c:43:cf:0e:de:ef:58:d6:3f:d1:47:7b:9e:47:0b:
                    33:82:dc:df:66:b7:a6:13:b2:9d:b0:f3:1c:fc:ac:
                    6c:7b:fc:03:ac:7f:5a:db:f7:b0:ab:9e:c1:f6:1e:
                    b3:b9:f2:68:d2:ff:5d:e4:8c:06:d3:67:41:bc:eb:
                    ed:ab:a9:7e:8d:44:cd:eb:29:27:34:c5:22:59:22:
                    0d:85:0f
                Exponent: 65537 (0x10001)
        X509v3 extensions:
            X509v3 Basic Constraints: 
                CA:FALSE
            Netscape Comment: 
                Easy-RSA Generated Certificate
            X509v3 Subject Key Identifier: 
                8B:1E:3B:92:71:98:A5:CC:C4:FE:4D:47:61:C1:E4:A1:04:34:31:90
            X509v3 Authority Key Identifier: 
                keyid:12:CD:60:04:D2:A0:80:9E:70:ED:C6:99:B8:7B:2C:C6:52:FD:19:A1
                DirName:/C=US/ST=OH/L=Columbus/O=VikingVPN/OU=MyOrganizationalUnit/CN=VikingVPN CA/name=EasyRSA/emailAddress=me@myhost.mydomain
                serial:CF:35:85:EE:80:BF:2A:3E

            X509v3 Extended Key Usage: 
                TLS Web Client Authentication
            X509v3 Key Usage: 
                Digital Signature
    Signature Algorithm: md5WithRSAEncryption
         e7:75:7a:1a:9a:c1:5c:44:83:00:b3:73:af:31:90:1a:17:54:
         95:42:f1:ad:c7:e3:d1:69:1b:78:11:41:c5:0a:c6:64:6b:33:
         15:32:28:90:52:54:d3:13:43:e1:36:28:0f:05:0b:b3:ba:1d:
         e7:fe:2a:4e:6e:dc:e9:1e:bc:7c:c5:d2:a7:17:88:63:24:fa:
         cd:49:40:2d:10:b7:95:11:8b:97:9e:81:19:3f:d4:7b:1b:d5:
         32:a5:0c:41:79:e4:18:5c:db:9f:c7:04:3b:5e:60:45:3c:45:
         58:41:a9:af:a5:b7:c8:6c:f1:bd:fd:77:c6:6f:b9:0f:50:7e:
         59:fc:85:61:e6:b5:00:0d:72:dc:5e:1b:62:22:f1:40:7d:ff:
         0b:ba:5f:3c:a1:d2:ac:e7:41:53:84:0d:b2:dd:b9:b2:9c:91:
         25:27:60:bd:78:9d:95:8a:5c:12:a5:75:ca:1f:21:fc:be:84:
         a0:4c:a9:f1:55:34:32:cb:67:64:5c:c5:16:48:5a:4b:ec:d2:
         0e:0b:60:f5:6f:6f:5a:72:ef:16:54:3d:f8:3f:7f:da:bc:5b:
         b5:f9:23:79:a0:e8:c9:1a:33:3a:83:b6:2b:2e:b1:54:ab:a4:
         3a:24:c3:63:73:95:61:ce:4e:36:c9:e3:15:e4:81:49:51:f9:
         42:6a:9b:45:dd:b9:a9:c7:de:5b:fd:b1:5d:5e:d9:27:16:d2:
         67:fb:f7:22:96:18:4b:8b:d5:5b:f3:09:df:58:2f:12:f2:da:
         5f:d9:4d:18:3f:1c:e3:5a:cd:f7:f3:de:fa:d3:57:16:e9:79:
         37:33:16:8a:be:a5:e3:55:ff:da:fe:bd:5c:04:30:9c:da:3a:
         34:00:10:8e:82:e6:61:7a:43:4e:04:6e:98:8f:67:a3:db:ca:
         93:cd:43:63:70:85:7e:cf:5d:ec:8c:2f:07:86:17:09:e8:93:
         df:c0:95:e9:c6:4e:73:99:f3:d1:fe:57:96:ca:fd:88:ea:7e:
         48:ed:ac:d0:99:7d:1a:08:a1:e4:84:ed:2a:a2:6e:be:f3:ac:
         d5:01:84:7d:f8:6b:81:68:43:4b:4c:85:b0:86:a3:04:30:9c:
         83:b5:b4:1e:79:2c:ed:9f:d1:22:6d:09:66:c0:cb:46:dd:4c:
         4e:f4:1d:9f:54:74:6e:8b:77:2f:a8:ab:f3:45:9a:5a:37:91:
         cf:d9:bc:66:b7:1b:12:d0:be:3c:05:99:41:30:bd:57:0f:f5:
         85:3f:2c:25:ba:97:53:18:1a:9d:bd:8a:cc:21:5f:5f:2c:ac:
         d4:0b:41:cb:85:5b:b4:30:26:09:7e:b4:a2:cf:63:2f:b1:64:
         35:be:16:a5:e9:a3:01:6b
-----BEGIN CERTIFICATE-----
MIIGrDCCBJSgAwIBAgICBgowDQYJKoZIhvcNAQEEBQAwgawxCzAJBgNVBAYTAlVT
MQswCQYDVQQIEwJPSDERMA8GA1UEBxMIQ29sdW1idXMxEjAQBgNVBAoTCVZpa2lu
Z1ZQTjEdMBsGA1UECxMUTXlPcmdhbml6YXRpb25hbFVuaXQxFTATBgNVBAMTDFZp
a2luZ1ZQTiBDQTEQMA4GA1UEKRMHRWFzeVJTQTEhMB8GCSqGSIb3DQEJARYSbWVA
bXlob3N0Lm15ZG9tYWluMB4XDTE0MDQxMDAyMDc1NFoXDTI0MDQwNzAyMDc1NFow
HjEcMBoGA1UEAxMTQ2xpZW50NTcxQ2VydDQyNmZmZjCCAiIwDQYJKoZIhvcNAQEB
BQADggIPADCCAgoCggIBAMu+tDXQpXroQ2isUTX4QIKZxkvEyzFURAENfY7cXCWZ
svz1sttGDXckl/TpE2+qYWwDU7ogfgtYMAIj+ulUmdd5Shz+p2NsVg6EF1ltqWI6
T9cbUy5QX8vDaV3AgV9BzOWy7ddYDbwy0TdwafNZW6c5hfW8D9931Q3mVOQ3/ZkN
E8Qkjo6JKybE9Ae/Zh2/KZgecXjfvGmT2Rpj23JQn1z+bqf7KEuhtsBxVUcgIeWz
9NC559E9FPfAIQ5sE/BIrdWWu2hsb1ZUZ8mY4KJVPr/4Zi+5k7LtCfkzR+m9lu60
bPk4ZjY6SXwpWL9hrTK9X1UMg4S/lF1ppUOUp5MKE4FOTFYQq+fVncjBPIv5Jgkf
O88K3CZkQupAf7PlXfffqtGDadnVkg508G4JiXWLVt+CDK9c6stdgUh4RkraL8A8
4/SDkADCFNDf89mmRbzWKuXvFTQjb/tYDNaATK/2XhMkrkY2xxFNGfYsNVNRpmt6
r4yCWaQTdOrykss1ZpjKSFr8JqVQ4PUKMz69ojwr0iNGeoqKoJe9qu6WrgbwXm47
EELAA0uXMmIJOKRRUQWxf6IyHEPPDt7vWNY/0Ud7nkcLM4Lc32a3phOynbDzHPys
bHv8A6x/Wtv3sKuewfYes7nyaNL/XeSMBtNnQbzr7aupfo1EzespJzTFIlkiDYUP
AgMBAAGjggFjMIIBXzAJBgNVHRMEAjAAMC0GCWCGSAGG+EIBDQQgFh5FYXN5LVJT
QSBHZW5lcmF0ZWQgQ2VydGlmaWNhdGUwHQYDVR0OBBYEFIseO5JxmKXMxP5NR2HB
5KEENDGQMIHhBgNVHSMEgdkwgdaAFBLNYATSoICecO3Gmbh7LMZS/RmhoYGypIGv
MIGsMQswCQYDVQQGEwJVUzELMAkGA1UECBMCT0gxETAPBgNVBAcTCENvbHVtYnVz
MRIwEAYDVQQKEwlWaWtpbmdWUE4xHTAbBgNVBAsTFE15T3JnYW5pemF0aW9uYWxV
bml0MRUwEwYDVQQDEwxWaWtpbmdWUE4gQ0ExEDAOBgNVBCkTB0Vhc3lSU0ExITAf
BgkqhkiG9w0BCQEWEm1lQG15aG9zdC5teWRvbWFpboIJAM81he6Avyo+MBMGA1Ud
JQQMMAoGCCsGAQUFBwMCMAsGA1UdDwQEAwIHgDANBgkqhkiG9w0BAQQFAAOCAgEA
53V6GprBXESDALNzrzGQGhdUlULxrcfj0WkbeBFBxQrGZGszFTIokFJU0xND4TYo
DwULs7od5/4qTm7c6R68fMXSpxeIYyT6zUlALRC3lRGLl56BGT/UexvVMqUMQXnk
GFzbn8cEO15gRTxFWEGpr6W3yGzxvf13xm+5D1B+WfyFYea1AA1y3F4bYiLxQH3/
C7pfPKHSrOdBU4QNst25spyRJSdgvXidlYpcEqV1yh8h/L6EoEyp8VU0MstnZFzF
FkhaS+zSDgtg9W9vWnLvFlQ9+D9/2rxbtfkjeaDoyRozOoO2Ky6xVKukOiTDY3OV
Yc5ONsnjFeSBSVH5QmqbRd25qcfeW/2xXV7ZJxbSZ/v3IpYYS4vVW/MJ31gvEvLa
X9lNGD8c41rN9/Pe+tNXFul5NzMWir6l41X/2v69XAQwnNo6NAAQjoLmYXpDTgRu
mI9no9vKk81DY3CFfs9d7IwvB4YXCeiT38CV6cZOc5nz0f5Xlsr9iOp+SO2s0Jl9
Ggih5ITtKqJuvvOs1QGEffhrgWhDS0yFsIajBDCcg7W0Hnks7Z/RIm0JZsDLRt1M
TvQdn1R0bot3L6ir80WaWjeRz9m8ZrcbEtC+PAWZQTC9Vw/1hT8sJbqXUxganb2K
zCFfXyys1AtBy4VbtDAmCX60os9jL7FkNb4WpemjAWs=
-----END CERTIFICATE-----
