Certificate:
    Data:
        Version: 3 (0x2)
        Serial Number: 8461 (0x210d)
    Signature Algorithm: md5WithRSAEncryption
        Issuer: C=US, ST=OH, L=Columbus, O=VikingVPN, OU=MyOrganizationalUnit, CN=VikingVPN CA/name=EasyRSA/emailAddress=me@myhost.mydomain
        Validity
            Not Before: Jul  9 22:22:15 2016 GMT
            Not After : Jul  7 22:22:15 2026 GMT
        Subject: CN=Client199Cert76c300
        Subject Public Key Info:
            Public Key Algorithm: rsaEncryption
                Public-Key: (4096 bit)
                Modulus:
                    00:c0:f9:43:02:d5:7d:37:8e:1a:39:0b:81:9f:33:
                    1d:91:68:d0:20:6f:96:be:60:88:df:b8:d3:06:91:
                    6f:c5:85:83:5f:7e:d0:66:dc:5a:19:23:9b:ad:57:
                    93:36:38:89:b4:87:45:fb:1f:ff:ac:29:ff:e8:80:
                    dc:e4:3a:4f:74:ef:73:73:cb:25:23:38:5e:f7:14:
                    79:37:f6:38:7e:95:d5:5b:80:a3:cd:b0:8f:82:d5:
                    4d:58:8a:79:5b:50:3c:be:b0:cf:10:7f:23:73:4b:
                    58:dc:bb:8a:39:78:fd:69:84:8c:c4:84:d7:51:c9:
                    7d:18:1e:d4:cf:66:cb:df:a4:91:4c:43:fc:ac:31:
                    49:b6:95:f3:90:f0:e6:4e:bb:97:48:2a:52:29:75:
                    cc:a4:15:44:87:f8:04:a0:2d:64:a1:41:d9:92:a7:
                    71:c3:49:77:2f:b9:8f:67:30:65:ce:73:77:ec:06:
                    d5:d2:7f:ee:f8:af:9e:e2:d7:34:89:bc:cd:ed:7e:
                    75:18:1c:8d:d7:4a:76:74:a5:a0:62:fc:4f:6c:27:
                    6c:92:86:9f:12:3a:52:67:97:10:7c:c4:0d:a1:46:
                    27:39:bb:4d:7b:c1:f5:47:dc:1b:ff:7b:a3:7b:51:
                    a2:aa:f0:64:c1:c2:12:ac:2d:02:3b:bd:41:5d:a4:
                    8e:b7:b9:dc:43:2e:ca:12:cb:68:a6:10:85:a3:16:
                    5d:79:d9:94:ab:0a:85:c0:41:5e:95:e2:bd:36:c9:
                    dc:c0:08:21:a3:86:7e:ce:c5:a3:9f:16:01:05:55:
                    11:9c:f5:6b:67:77:ad:0b:f7:d0:68:04:bb:94:6a:
                    8b:de:b1:68:5d:1c:2b:db:4f:f2:d9:3a:36:82:27:
                    a3:46:58:ea:65:e3:b2:42:67:2a:cc:e1:60:3c:8b:
                    71:54:41:a3:df:b5:a1:6e:ab:81:57:22:a6:c1:78:
                    c0:7e:54:d1:da:9d:1c:e4:de:d0:79:9b:93:4a:93:
                    b4:75:b6:71:57:aa:df:89:cd:64:27:ba:14:8c:03:
                    36:a8:9e:56:06:27:06:4d:20:93:0b:9c:ee:59:94:
                    ba:41:e5:60:b9:35:5f:40:52:b2:7f:3c:e5:80:33:
                    7d:f7:33:d6:81:e9:14:32:c1:35:8a:2e:a6:e0:0b:
                    da:34:09:b4:1e:d3:88:fe:94:91:8f:f3:c0:56:ac:
                    45:5d:75:c9:96:78:e8:c4:83:27:bd:03:da:ac:c5:
                    3d:b8:7b:ec:b7:46:b0:a3:32:6a:f0:fb:b1:5c:b7:
                    47:8c:77:f1:b8:0d:e5:83:56:99:fc:18:73:22:bf:
                    a4:e4:22:f9:01:d7:29:db:bd:36:a2:27:83:73:10:
                    15:65:19
                Exponent: 65537 (0x10001)
        X509v3 extensions:
            X509v3 Basic Constraints: 
                CA:FALSE
            Netscape Comment: 
                Easy-RSA Generated Certificate
            X509v3 Subject Key Identifier: 
                BD:74:69:FB:80:2B:2B:DE:01:06:6F:A9:53:5E:28:8E:87:7A:52:AA
            X509v3 Authority Key Identifier: 
                keyid:12:CD:60:04:D2:A0:80:9E:70:ED:C6:99:B8:7B:2C:C6:52:FD:19:A1
                DirName:/C=US/ST=OH/L=Columbus/O=VikingVPN/OU=MyOrganizationalUnit/CN=VikingVPN CA/name=EasyRSA/emailAddress=me@myhost.mydomain
                serial:CF:35:85:EE:80:BF:2A:3E

            X509v3 Extended Key Usage: 
                TLS Web Client Authentication
            X509v3 Key Usage: 
                Digital Signature
    Signature Algorithm: md5WithRSAEncryption
         63:5b:3e:02:5f:5b:d5:fc:b5:04:8a:e5:54:c0:4e:47:d0:3c:
         5e:16:ff:9d:3b:fc:e2:e3:3c:ce:f1:48:5e:63:e4:ba:95:de:
         2b:2e:36:f0:40:a2:c7:36:89:0e:bd:6a:3e:87:ef:9a:48:6f:
         7c:db:df:5e:21:0e:aa:ea:d3:df:fd:4d:4e:6e:cd:4e:48:26:
         b4:c4:c9:00:f5:97:61:5b:2f:05:da:3f:10:2e:f6:81:3c:d6:
         72:23:4c:ca:27:23:de:7e:c5:fe:34:b7:43:68:25:fd:39:3d:
         76:36:0d:25:90:59:13:06:9a:0b:7a:44:5a:a8:92:96:ed:01:
         ac:fc:c8:40:b5:51:7d:ad:d0:85:09:0e:8e:e3:d5:e7:af:27:
         d2:b9:b5:06:a7:6d:8e:b6:a9:f0:2e:d1:29:08:31:ee:90:2c:
         e4:5f:3e:d2:c3:f9:3c:2f:0a:0c:e4:8f:ee:94:07:72:f0:49:
         11:38:2d:09:40:35:94:b0:0f:91:8e:d6:97:79:35:2f:04:49:
         de:ad:90:f0:a6:e5:b6:95:11:51:b7:c9:2b:b3:c1:5f:96:d9:
         ca:b8:fd:ce:fd:08:70:3f:e0:16:ca:7a:1d:2b:17:9c:53:62:
         2d:2a:56:8e:47:c8:82:eb:53:ca:dd:8d:86:83:3b:e7:55:d7:
         65:8a:45:14:e3:ab:9b:84:c8:6c:f5:b5:33:85:f7:39:b2:de:
         37:54:13:f2:f5:d9:14:6a:b2:97:93:5f:20:b8:08:94:76:ab:
         26:7d:12:92:64:35:57:fc:99:12:a8:9f:36:92:11:7c:0b:f8:
         fb:5f:21:27:e3:01:8c:55:f0:99:db:0c:e0:74:45:74:f9:5d:
         64:d1:45:42:cc:62:66:c0:1e:09:a2:ea:ac:6e:ef:65:c5:1c:
         3d:cc:24:f9:fe:53:0d:78:7a:94:21:ce:ba:f6:be:95:35:4f:
         e4:04:20:83:96:e1:ae:d0:bf:1f:c2:b2:b8:dd:e3:a1:b0:66:
         a3:30:30:8a:5d:36:a1:31:13:33:45:d9:a2:0a:03:fc:00:34:
         cd:84:2f:b1:49:ba:51:8f:ba:02:c2:92:83:9c:18:05:bb:cb:
         54:78:e7:ee:27:31:6e:20:b1:19:f6:e6:30:e9:24:5b:47:18:
         b3:9b:45:c1:3a:10:74:4c:af:43:fc:d3:08:88:38:b6:ea:e2:
         ec:56:97:8f:11:b1:f1:86:fe:14:36:b6:65:9d:74:04:b9:6a:
         11:f4:1d:44:b9:61:d5:f6:33:7a:ee:de:73:48:23:2b:fb:7f:
         16:fc:41:0a:71:fe:16:01:7f:a7:bb:58:8c:c0:df:f0:ab:1a:
         86:80:a6:3b:de:16:fa:c1
-----BEGIN CERTIFICATE-----
MIIGrDCCBJSgAwIBAgICIQ0wDQYJKoZIhvcNAQEEBQAwgawxCzAJBgNVBAYTAlVT
MQswCQYDVQQIEwJPSDERMA8GA1UEBxMIQ29sdW1idXMxEjAQBgNVBAoTCVZpa2lu
Z1ZQTjEdMBsGA1UECxMUTXlPcmdhbml6YXRpb25hbFVuaXQxFTATBgNVBAMTDFZp
a2luZ1ZQTiBDQTEQMA4GA1UEKRMHRWFzeVJTQTEhMB8GCSqGSIb3DQEJARYSbWVA
bXlob3N0Lm15ZG9tYWluMB4XDTE2MDcwOTIyMjIxNVoXDTI2MDcwNzIyMjIxNVow
HjEcMBoGA1UEAxMTQ2xpZW50MTk5Q2VydDc2YzMwMDCCAiIwDQYJKoZIhvcNAQEB
BQADggIPADCCAgoCggIBAMD5QwLVfTeOGjkLgZ8zHZFo0CBvlr5giN+40waRb8WF
g19+0GbcWhkjm61XkzY4ibSHRfsf/6wp/+iA3OQ6T3Tvc3PLJSM4XvcUeTf2OH6V
1VuAo82wj4LVTViKeVtQPL6wzxB/I3NLWNy7ijl4/WmEjMSE11HJfRge1M9my9+k
kUxD/KwxSbaV85Dw5k67l0gqUil1zKQVRIf4BKAtZKFB2ZKnccNJdy+5j2cwZc5z
d+wG1dJ/7vivnuLXNIm8ze1+dRgcjddKdnSloGL8T2wnbJKGnxI6UmeXEHzEDaFG
Jzm7TXvB9UfcG/97o3tRoqrwZMHCEqwtAju9QV2kjre53EMuyhLLaKYQhaMWXXnZ
lKsKhcBBXpXivTbJ3MAIIaOGfs7Fo58WAQVVEZz1a2d3rQv30GgEu5Rqi96xaF0c
K9tP8tk6NoIno0ZY6mXjskJnKszhYDyLcVRBo9+1oW6rgVcipsF4wH5U0dqdHOTe
0Hmbk0qTtHW2cVeq34nNZCe6FIwDNqieVgYnBk0gkwuc7lmUukHlYLk1X0BSsn88
5YAzffcz1oHpFDLBNYoupuAL2jQJtB7TiP6UkY/zwFasRV11yZZ46MSDJ70D2qzF
Pbh77LdGsKMyavD7sVy3R4x38bgN5YNWmfwYcyK/pOQi+QHXKdu9NqIng3MQFWUZ
AgMBAAGjggFjMIIBXzAJBgNVHRMEAjAAMC0GCWCGSAGG+EIBDQQgFh5FYXN5LVJT
QSBHZW5lcmF0ZWQgQ2VydGlmaWNhdGUwHQYDVR0OBBYEFL10afuAKyveAQZvqVNe
KI6HelKqMIHhBgNVHSMEgdkwgdaAFBLNYATSoICecO3Gmbh7LMZS/RmhoYGypIGv
MIGsMQswCQYDVQQGEwJVUzELMAkGA1UECBMCT0gxETAPBgNVBAcTCENvbHVtYnVz
MRIwEAYDVQQKEwlWaWtpbmdWUE4xHTAbBgNVBAsTFE15T3JnYW5pemF0aW9uYWxV
bml0MRUwEwYDVQQDEwxWaWtpbmdWUE4gQ0ExEDAOBgNVBCkTB0Vhc3lSU0ExITAf
BgkqhkiG9w0BCQEWEm1lQG15aG9zdC5teWRvbWFpboIJAM81he6Avyo+MBMGA1Ud
JQQMMAoGCCsGAQUFBwMCMAsGA1UdDwQEAwIHgDANBgkqhkiG9w0BAQQFAAOCAgEA
Y1s+Al9b1fy1BIrlVMBOR9A8Xhb/nTv84uM8zvFIXmPkupXeKy428ECixzaJDr1q
PofvmkhvfNvfXiEOqurT3/1NTm7NTkgmtMTJAPWXYVsvBdo/EC72gTzWciNMyicj
3n7F/jS3Q2gl/Tk9djYNJZBZEwaaC3pEWqiSlu0BrPzIQLVRfa3QhQkOjuPV568n
0rm1Bqdtjrap8C7RKQgx7pAs5F8+0sP5PC8KDOSP7pQHcvBJETgtCUA1lLAPkY7W
l3k1LwRJ3q2Q8KbltpURUbfJK7PBX5bZyrj9zv0IcD/gFsp6HSsXnFNiLSpWjkfI
gutTyt2NhoM751XXZYpFFOOrm4TIbPW1M4X3ObLeN1QT8vXZFGqyl5NfILgIlHar
Jn0SkmQ1V/yZEqifNpIRfAv4+18hJ+MBjFXwmdsM4HRFdPldZNFFQsxiZsAeCaLq
rG7vZcUcPcwk+f5TDXh6lCHOuva+lTVP5AQgg5bhrtC/H8KyuN3jobBmozAwil02
oTETM0XZogoD/AA0zYQvsUm6UY+6AsKSg5wYBbvLVHjn7icxbiCxGfbmMOkkW0cY
s5tFwToQdEyvQ/zTCIg4turi7FaXjxGx8Yb+FDa2ZZ10BLlqEfQdRLlh1fYzeu7e
c0gjK/t/FvxBCnH+FgF/p7tYjMDf8KsahoCmO94W+sE=
-----END CERTIFICATE-----
