Certificate:
    Data:
        Version: 3 (0x2)
        Serial Number: 11723 (0x2dcb)
    Signature Algorithm: sha256WithRSAEncryption
        Issuer: C=US, ST=OH, L=Columbus, O=VikingVPN, OU=MyOrganizationalUnit, CN=VikingVPN CA/name=EasyRSA/emailAddress=me@myhost.mydomain
        Validity
            Not Before: Aug 29 05:32:30 2017 GMT
            Not After : Aug 27 05:32:30 2027 GMT
        Subject: CN=Client3064Cert0a47b8
        Subject Public Key Info:
            Public Key Algorithm: rsaEncryption
                Public-Key: (4096 bit)
                Modulus:
                    00:9d:a3:d1:14:c8:4a:e9:1f:f1:77:7f:ae:db:49:
                    ea:e8:83:dd:0d:46:f5:59:56:99:5e:39:41:a5:dc:
                    af:c1:4d:0c:3e:67:8d:60:56:34:9e:f4:cd:6b:94:
                    64:3b:07:9e:84:2b:be:7e:57:3a:eb:c8:33:6b:57:
                    2f:ed:90:6f:2f:62:73:82:5a:97:c5:b5:56:b9:50:
                    65:7d:71:0a:24:a9:e4:65:bd:dd:5b:ba:70:76:aa:
                    30:34:a3:f7:cc:35:79:10:c1:aa:54:a7:72:dd:df:
                    2c:4e:42:57:74:38:36:7c:94:ea:bb:09:e7:bc:ca:
                    0c:d2:e3:da:d7:8a:6f:6b:a0:e1:b2:7b:ae:27:eb:
                    c1:79:ba:5f:14:dc:72:54:e0:60:75:9f:c7:51:1b:
                    77:51:20:61:d3:a6:09:7e:8d:c3:d8:2e:30:2f:ea:
                    d6:a9:34:b3:f2:00:75:c3:6a:b5:63:a0:d3:40:7d:
                    6b:45:39:e7:6d:c0:cd:e8:1e:0b:e6:a0:4d:f2:f4:
                    04:bb:8e:26:c7:5b:6b:4a:51:10:b3:4f:58:a5:09:
                    9e:6f:32:80:b8:4b:58:95:0d:55:10:47:1d:d9:c0:
                    5b:a8:fb:c8:b1:88:80:66:7f:d7:36:e2:31:37:b6:
                    68:18:40:d2:fa:ba:11:ab:1f:73:c1:37:4c:86:95:
                    b1:d1:cf:7a:0a:e2:93:2a:29:2b:66:64:08:25:12:
                    2f:b2:38:db:76:11:4c:7d:f8:41:b2:9c:5e:33:df:
                    f7:8e:b4:7b:05:53:65:4e:0e:b8:b1:a4:52:34:87:
                    e1:85:a9:d5:ae:55:a9:6f:de:bd:98:a0:a3:25:95:
                    ab:9c:49:cd:25:28:bd:39:21:7c:4f:1f:56:a3:b8:
                    4d:af:3a:e6:33:81:59:4e:2b:63:0c:57:20:79:bb:
                    11:0e:71:f0:ae:6f:52:d0:1e:31:06:ef:fa:93:ee:
                    38:48:e7:27:1a:14:51:b5:b8:82:60:27:92:b3:a3:
                    a2:85:29:cf:3c:c5:22:ea:bf:19:86:0f:57:dc:c2:
                    1b:36:cb:a2:c5:a0:ac:90:ef:9f:e8:d7:84:f5:b8:
                    4d:5e:cf:b3:7f:a9:61:b0:0a:aa:28:6b:27:ab:7d:
                    94:10:5e:7c:0d:b6:2c:a3:e8:5b:51:88:c0:11:65:
                    05:63:e2:24:c6:37:5e:73:e1:ff:ae:22:cb:b7:53:
                    9e:b3:6b:fe:a7:d6:dd:44:23:9a:ce:07:6c:c5:e6:
                    0a:6d:3f:28:ce:d0:6e:80:80:f6:fa:04:e3:c2:20:
                    a2:2b:1f:a8:f1:b0:87:14:5a:88:bd:78:b4:4b:cb:
                    ed:cd:d8:bb:f4:81:45:00:b5:ed:4d:2c:21:40:4d:
                    20:c0:0b
                Exponent: 65537 (0x10001)
        X509v3 extensions:
            X509v3 Basic Constraints: 
                CA:FALSE
            Netscape Comment: 
                Easy-RSA Generated Certificate
            X509v3 Subject Key Identifier: 
                4C:A0:9A:3E:43:D7:AC:BF:8F:F3:2E:33:D9:25:DA:B0:D2:27:45:93
            X509v3 Authority Key Identifier: 
                keyid:12:CD:60:04:D2:A0:80:9E:70:ED:C6:99:B8:7B:2C:C6:52:FD:19:A1
                DirName:/C=US/ST=OH/L=Columbus/O=VikingVPN/OU=MyOrganizationalUnit/CN=VikingVPN CA/name=EasyRSA/emailAddress=me@myhost.mydomain
                serial:CF:35:85:EE:80:BF:2A:3E

            X509v3 Extended Key Usage: 
                TLS Web Client Authentication
            X509v3 Key Usage: 
                Digital Signature
    Signature Algorithm: sha256WithRSAEncryption
         ce:f6:d7:6f:6f:68:33:c2:83:df:05:64:db:8a:ac:7e:79:72:
         af:fb:53:bc:05:bc:f0:04:8c:23:f2:cf:bc:73:af:4d:48:ce:
         89:5a:d7:75:a4:9d:49:41:56:e1:60:e6:7b:e6:45:53:b9:90:
         72:4a:c3:e6:e8:67:f6:ea:cf:33:80:ad:4f:d7:85:da:40:64:
         be:ff:dc:26:ab:0d:ce:2f:24:d3:29:e2:1c:ac:c0:b6:a1:8f:
         e1:e7:e2:58:c4:b8:57:9b:0f:b7:be:cc:3c:4a:0c:fa:c6:f2:
         10:a5:57:e0:c0:0c:f0:86:b5:64:73:fa:bc:03:8f:f1:bf:9e:
         b5:77:ed:f5:31:72:9f:26:7a:8e:c9:4f:bc:b7:dd:24:53:ad:
         ee:2a:c3:d9:9f:f8:ff:07:e2:95:ab:fb:8e:53:d4:a0:67:1e:
         09:c5:86:29:b0:5d:59:0a:2a:5b:98:d5:af:89:7b:13:61:b7:
         72:0c:7b:be:8d:c8:18:c8:38:e6:f3:f3:94:d4:fb:20:5c:2e:
         17:ce:50:80:a7:31:25:77:e6:0a:27:89:3c:a8:6c:7c:27:01:
         3d:ee:48:c1:49:f3:08:49:78:bf:aa:ed:0f:34:39:37:88:30:
         f6:6d:75:4c:f0:d1:c8:bd:3e:e5:b1:6a:9c:2c:7e:8b:d4:db:
         10:18:39:dd:cf:03:55:14:0a:cb:2f:b1:b3:0f:d8:87:c3:fd:
         fa:cc:14:c8:58:3e:71:5a:d2:01:ec:3b:a4:dc:25:2f:2d:3f:
         95:0c:3c:de:81:97:85:45:b8:f6:4b:23:86:87:15:f4:e9:04:
         12:3a:cf:d9:82:3f:ac:89:60:23:2e:8e:70:f6:d4:8b:00:76:
         82:64:85:c3:ee:13:86:f7:ef:e6:75:fe:31:f3:bd:c8:63:9a:
         90:5c:11:e5:45:0e:f8:51:eb:43:5c:5f:6a:04:14:7e:24:fe:
         5b:c8:a7:e5:1b:c1:84:4b:59:3d:59:e8:1c:46:2a:b2:85:02:
         af:a9:a7:fd:33:07:7f:70:36:65:57:b6:2a:c5:05:7f:fa:b9:
         4c:be:f7:80:45:72:1b:df:8c:73:40:cb:5f:ee:be:70:62:69:
         51:a2:d8:42:e0:b0:20:74:58:da:9d:15:49:65:14:c7:13:42:
         f2:6e:ff:46:87:92:ee:10:66:64:dd:68:db:6e:01:07:52:7c:
         26:9e:dc:51:d1:e1:13:33:a2:a3:fb:79:4c:ef:0a:eb:54:a7:
         db:d6:fc:9f:57:4e:37:7d:35:91:c5:a9:97:24:e4:53:5e:6a:
         ab:d1:ad:87:aa:1a:57:8c:98:9f:e4:1a:c0:fe:c6:c1:92:a1:
         45:5d:23:44:08:70:e2:df
-----BEGIN CERTIFICATE-----
MIIGrTCCBJWgAwIBAgICLcswDQYJKoZIhvcNAQELBQAwgawxCzAJBgNVBAYTAlVT
MQswCQYDVQQIEwJPSDERMA8GA1UEBxMIQ29sdW1idXMxEjAQBgNVBAoTCVZpa2lu
Z1ZQTjEdMBsGA1UECxMUTXlPcmdhbml6YXRpb25hbFVuaXQxFTATBgNVBAMTDFZp
a2luZ1ZQTiBDQTEQMA4GA1UEKRMHRWFzeVJTQTEhMB8GCSqGSIb3DQEJARYSbWVA
bXlob3N0Lm15ZG9tYWluMB4XDTE3MDgyOTA1MzIzMFoXDTI3MDgyNzA1MzIzMFow
HzEdMBsGA1UEAxMUQ2xpZW50MzA2NENlcnQwYTQ3YjgwggIiMA0GCSqGSIb3DQEB
AQUAA4ICDwAwggIKAoICAQCdo9EUyErpH/F3f67bSerog90NRvVZVpleOUGl3K/B
TQw+Z41gVjSe9M1rlGQ7B56EK75+VzrryDNrVy/tkG8vYnOCWpfFtVa5UGV9cQok
qeRlvd1bunB2qjA0o/fMNXkQwapUp3Ld3yxOQld0ODZ8lOq7Cee8ygzS49rXim9r
oOGye64n68F5ul8U3HJU4GB1n8dRG3dRIGHTpgl+jcPYLjAv6tapNLPyAHXDarVj
oNNAfWtFOedtwM3oHgvmoE3y9AS7jibHW2tKURCzT1ilCZ5vMoC4S1iVDVUQRx3Z
wFuo+8ixiIBmf9c24jE3tmgYQNL6uhGrH3PBN0yGlbHRz3oK4pMqKStmZAglEi+y
ONt2EUx9+EGynF4z3/eOtHsFU2VODrixpFI0h+GFqdWuValv3r2YoKMllaucSc0l
KL05IXxPH1ajuE2vOuYzgVlOK2MMVyB5uxEOcfCub1LQHjEG7/qT7jhI5ycaFFG1
uIJgJ5Kzo6KFKc88xSLqvxmGD1fcwhs2y6LFoKyQ75/o14T1uE1ez7N/qWGwCqoo
ayerfZQQXnwNtiyj6FtRiMARZQVj4iTGN15z4f+uIsu3U56za/6n1t1EI5rOB2zF
5gptPyjO0G6AgPb6BOPCIKIrH6jxsIcUWoi9eLRLy+3N2Lv0gUUAte1NLCFATSDA
CwIDAQABo4IBYzCCAV8wCQYDVR0TBAIwADAtBglghkgBhvhCAQ0EIBYeRWFzeS1S
U0EgR2VuZXJhdGVkIENlcnRpZmljYXRlMB0GA1UdDgQWBBRMoJo+Q9esv4/zLjPZ
Jdqw0idFkzCB4QYDVR0jBIHZMIHWgBQSzWAE0qCAnnDtxpm4eyzGUv0ZoaGBsqSB
rzCBrDELMAkGA1UEBhMCVVMxCzAJBgNVBAgTAk9IMREwDwYDVQQHEwhDb2x1bWJ1
czESMBAGA1UEChMJVmlraW5nVlBOMR0wGwYDVQQLExRNeU9yZ2FuaXphdGlvbmFs
VW5pdDEVMBMGA1UEAxMMVmlraW5nVlBOIENBMRAwDgYDVQQpEwdFYXN5UlNBMSEw
HwYJKoZIhvcNAQkBFhJtZUBteWhvc3QubXlkb21haW6CCQDPNYXugL8qPjATBgNV
HSUEDDAKBggrBgEFBQcDAjALBgNVHQ8EBAMCB4AwDQYJKoZIhvcNAQELBQADggIB
AM72129vaDPCg98FZNuKrH55cq/7U7wFvPAEjCPyz7xzr01Izola13WknUlBVuFg
5nvmRVO5kHJKw+boZ/bqzzOArU/XhdpAZL7/3CarDc4vJNMp4hyswLahj+Hn4ljE
uFebD7e+zDxKDPrG8hClV+DADPCGtWRz+rwDj/G/nrV37fUxcp8meo7JT7y33SRT
re4qw9mf+P8H4pWr+45T1KBnHgnFhimwXVkKKluY1a+JexNht3IMe76NyBjIOObz
85TU+yBcLhfOUICnMSV35goniTyobHwnAT3uSMFJ8whJeL+q7Q80OTeIMPZtdUzw
0ci9PuWxapwsfovU2xAYOd3PA1UUCssvsbMP2IfD/frMFMhYPnFa0gHsO6TcJS8t
P5UMPN6Bl4VFuPZLI4aHFfTpBBI6z9mCP6yJYCMujnD21IsAdoJkhcPuE4b37+Z1
/jHzvchjmpBcEeVFDvhR60NcX2oEFH4k/lvIp+UbwYRLWT1Z6BxGKrKFAq+pp/0z
B39wNmVXtirFBX/6uUy+94BFchvfjHNAy1/uvnBiaVGi2ELgsCB0WNqdFUllFMcT
QvJu/0aHku4QZmTdaNtuAQdSfCae3FHR4RMzoqP7eUzvCutUp9vW/J9XTjd9NZHF
qZck5FNeaqvRrYeqGleMmJ/kGsD+xsGSoUVdI0QIcOLf
-----END CERTIFICATE-----
