Certificate:
    Data:
        Version: 3 (0x2)
        Serial Number: 2883 (0xb43)
    Signature Algorithm: md5WithRSAEncryption
        Issuer: C=US, ST=OH, L=Columbus, O=VikingVPN, OU=MyOrganizationalUnit, CN=VikingVPN CA/name=EasyRSA/emailAddress=me@myhost.mydomain
        Validity
            Not Before: Sep 18 10:57:56 2014 GMT
            Not After : Sep 15 10:57:56 2024 GMT
        Subject: CN=Client964Cert682403
        Subject Public Key Info:
            Public Key Algorithm: rsaEncryption
                Public-Key: (4096 bit)
                Modulus:
                    00:9f:0e:f4:e0:60:f8:bf:38:0d:5f:d2:73:3f:bd:
                    36:35:22:ca:75:51:f8:c6:58:40:ff:99:6d:02:9d:
                    40:2e:e0:fa:0d:db:2d:b6:cb:5b:69:5e:fd:62:c5:
                    71:aa:3d:3d:85:c5:1b:ba:83:52:6d:ab:a5:68:31:
                    78:1e:81:bf:48:85:f1:12:a2:58:e9:8b:c2:87:bf:
                    ad:40:44:10:a5:1a:d2:db:e2:1e:56:80:e6:3c:06:
                    5e:15:ce:9c:22:d7:5d:32:b7:0c:54:09:b5:0e:e4:
                    63:cb:1c:22:93:47:ff:fb:e2:ee:47:6e:25:aa:72:
                    be:56:6c:be:01:ff:2b:74:3a:0f:81:a4:59:db:18:
                    5f:18:92:bc:75:ab:30:83:68:e4:09:42:2e:a6:de:
                    ab:2e:f4:f7:34:43:2c:8b:bc:0b:81:8c:71:b6:6e:
                    43:e0:57:45:54:3a:f2:f7:ab:03:fb:1f:af:27:2b:
                    a6:ad:f7:6a:fa:54:b5:80:21:5d:53:46:8c:2d:e5:
                    78:a5:dc:75:99:14:de:d2:79:8a:f4:f7:59:52:b0:
                    33:a9:4d:62:da:dd:6d:ba:c6:35:17:e9:99:9d:1d:
                    29:9d:79:eb:85:9f:81:aa:bc:d1:af:79:1e:a5:84:
                    d3:36:d5:67:cd:14:7d:82:c2:11:5d:ad:e9:0f:b1:
                    9d:93:f8:72:7d:02:fb:94:34:b9:e4:5e:21:c6:35:
                    8a:b1:5d:57:7c:47:0b:9a:6a:8b:84:78:60:c8:96:
                    43:6c:af:18:a7:3f:ea:a9:9c:c0:8e:00:46:91:d1:
                    5d:1d:94:05:8b:08:66:dd:be:94:f0:73:43:6b:16:
                    c3:db:ac:81:c0:ea:49:29:6c:8c:f4:db:03:c0:2b:
                    32:7c:f1:28:e6:00:f1:55:80:4a:2b:7a:f8:f9:63:
                    50:f9:5a:50:1e:e9:65:97:1d:e0:92:3a:c6:19:90:
                    79:12:c7:b5:8b:75:98:be:35:c1:e0:94:e6:58:80:
                    b8:62:ed:07:35:d8:2e:34:04:6a:89:e1:63:c4:40:
                    cc:27:d6:fb:e6:7e:13:2f:d2:9e:c9:69:70:2c:26:
                    69:16:0c:48:10:53:a5:da:dc:63:87:8d:86:4d:91:
                    58:10:32:aa:03:fd:57:2d:52:79:90:a7:92:ec:d7:
                    9d:94:92:56:d8:e7:a3:aa:8f:89:1b:77:47:11:5e:
                    1b:f6:eb:15:03:99:c7:58:39:8b:54:9c:7d:fa:d3:
                    bf:7b:12:04:19:2f:ba:c5:b0:e9:21:79:eb:90:e3:
                    fa:3a:33:5b:75:e0:21:66:d9:f3:56:44:90:10:bd:
                    c5:74:32:62:00:fc:23:eb:6c:fc:c3:b7:f0:ab:4f:
                    d1:d2:4d
                Exponent: 65537 (0x10001)
        X509v3 extensions:
            X509v3 Basic Constraints: 
                CA:FALSE
            Netscape Comment: 
                Easy-RSA Generated Certificate
            X509v3 Subject Key Identifier: 
                D1:E1:57:C5:27:1A:1A:D7:31:C5:FC:94:04:19:B0:AF:E3:BC:7C:7C
            X509v3 Authority Key Identifier: 
                keyid:12:CD:60:04:D2:A0:80:9E:70:ED:C6:99:B8:7B:2C:C6:52:FD:19:A1
                DirName:/C=US/ST=OH/L=Columbus/O=VikingVPN/OU=MyOrganizationalUnit/CN=VikingVPN CA/name=EasyRSA/emailAddress=me@myhost.mydomain
                serial:CF:35:85:EE:80:BF:2A:3E

            X509v3 Extended Key Usage: 
                TLS Web Client Authentication
            X509v3 Key Usage: 
                Digital Signature
    Signature Algorithm: md5WithRSAEncryption
         05:cb:63:5f:5e:fe:aa:83:e2:f8:ab:38:40:8a:c2:fd:77:1c:
         9b:b3:95:69:73:1d:3d:aa:fd:2b:06:f5:a1:c9:3f:65:c2:50:
         f1:51:b4:bf:f4:7c:77:51:b2:dc:36:6a:63:44:13:ae:46:e7:
         91:70:1f:5c:59:33:04:c5:d3:24:c5:fd:2b:ca:f1:8d:c1:29:
         f7:0c:64:73:c3:13:0b:f6:35:75:97:a1:7b:2d:6d:5e:05:5d:
         63:b0:65:db:19:bc:8e:6d:77:5d:cc:db:55:8e:5a:31:d6:94:
         e6:60:e6:8d:97:47:96:91:5e:9f:0e:01:fc:0e:e5:55:bf:7a:
         be:7c:d5:88:d3:ae:4e:99:19:4b:33:1d:9f:a2:3a:56:bd:ba:
         4f:82:b2:47:24:2d:0e:54:06:9b:69:a0:a3:b7:2a:81:c0:ba:
         05:03:5d:54:2f:0b:41:0b:70:42:d0:be:84:aa:2d:2f:b7:0c:
         99:a7:eb:1c:c9:6a:cf:24:58:59:00:69:c6:51:f5:d8:a4:38:
         7d:54:ea:34:bf:2d:88:d3:5b:9a:92:f1:4a:66:a3:36:5c:1d:
         89:69:64:22:ee:f7:a8:7c:19:5d:2f:87:83:d9:8a:3c:54:7e:
         09:e7:17:79:28:76:07:10:18:7c:70:fb:bd:c4:59:8c:28:1e:
         70:0c:0a:d3:4d:ac:18:a7:84:65:96:f2:e8:3c:73:7b:63:d4:
         d9:60:73:25:6b:14:97:ee:af:56:96:62:6a:72:ca:1f:84:6d:
         a0:a2:d9:df:2a:6d:e8:a8:c5:07:e0:f7:d7:38:63:07:40:d1:
         f1:0d:b0:22:f5:99:72:e3:bd:a9:a4:c1:90:55:2a:45:09:d9:
         ae:e1:f8:60:71:b1:6e:ba:45:64:aa:c3:8c:b5:4e:57:a9:20:
         0c:01:de:25:b4:54:f0:3a:4d:f5:73:8a:42:66:5f:df:cc:38:
         3d:fe:7f:f8:e1:a8:f1:a6:90:38:cb:ef:07:50:6e:d1:4a:64:
         dc:31:5a:e7:2f:40:a2:d9:fd:ab:b3:24:79:c4:29:94:27:21:
         df:ec:81:3d:5e:d6:a6:ae:ab:20:2b:7e:3b:5f:e7:18:24:15:
         39:a2:15:9e:3f:21:17:49:de:a2:8b:eb:ca:ff:26:25:e9:46:
         e0:7d:40:de:fd:71:c9:61:15:eb:39:02:bf:a6:2d:cf:3e:95:
         23:05:26:76:c6:12:a9:51:a4:6c:6e:28:1e:ca:5d:01:1c:2b:
         9d:b7:3b:d5:94:86:6d:da:ba:06:60:1a:b6:ec:27:95:29:c0:
         e1:49:5d:73:ca:65:7f:36:07:e2:88:3b:99:c7:39:f4:9f:a5:
         1a:bb:34:9d:fd:70:75:b8
-----BEGIN CERTIFICATE-----
MIIGrDCCBJSgAwIBAgICC0MwDQYJKoZIhvcNAQEEBQAwgawxCzAJBgNVBAYTAlVT
MQswCQYDVQQIEwJPSDERMA8GA1UEBxMIQ29sdW1idXMxEjAQBgNVBAoTCVZpa2lu
Z1ZQTjEdMBsGA1UECxMUTXlPcmdhbml6YXRpb25hbFVuaXQxFTATBgNVBAMTDFZp
a2luZ1ZQTiBDQTEQMA4GA1UEKRMHRWFzeVJTQTEhMB8GCSqGSIb3DQEJARYSbWVA
bXlob3N0Lm15ZG9tYWluMB4XDTE0MDkxODEwNTc1NloXDTI0MDkxNTEwNTc1Nlow
HjEcMBoGA1UEAxMTQ2xpZW50OTY0Q2VydDY4MjQwMzCCAiIwDQYJKoZIhvcNAQEB
BQADggIPADCCAgoCggIBAJ8O9OBg+L84DV/Scz+9NjUiynVR+MZYQP+ZbQKdQC7g
+g3bLbbLW2le/WLFcao9PYXFG7qDUm2rpWgxeB6Bv0iF8RKiWOmLwoe/rUBEEKUa
0tviHlaA5jwGXhXOnCLXXTK3DFQJtQ7kY8scIpNH//vi7kduJapyvlZsvgH/K3Q6
D4GkWdsYXxiSvHWrMINo5AlCLqbeqy709zRDLIu8C4GMcbZuQ+BXRVQ68verA/sf
rycrpq33avpUtYAhXVNGjC3leKXcdZkU3tJ5ivT3WVKwM6lNYtrdbbrGNRfpmZ0d
KZ1564Wfgaq80a95HqWE0zbVZ80UfYLCEV2t6Q+xnZP4cn0C+5Q0ueReIcY1irFd
V3xHC5pqi4R4YMiWQ2yvGKc/6qmcwI4ARpHRXR2UBYsIZt2+lPBzQ2sWw9usgcDq
SSlsjPTbA8ArMnzxKOYA8VWASit6+PljUPlaUB7pZZcd4JI6xhmQeRLHtYt1mL41
weCU5liAuGLtBzXYLjQEaonhY8RAzCfW++Z+Ey/SnslpcCwmaRYMSBBTpdrcY4eN
hk2RWBAyqgP9Vy1SeZCnkuzXnZSSVtjno6qPiRt3RxFeG/brFQOZx1g5i1ScffrT
v3sSBBkvusWw6SF565Dj+jozW3XgIWbZ81ZEkBC9xXQyYgD8I+ts/MO38KtP0dJN
AgMBAAGjggFjMIIBXzAJBgNVHRMEAjAAMC0GCWCGSAGG+EIBDQQgFh5FYXN5LVJT
QSBHZW5lcmF0ZWQgQ2VydGlmaWNhdGUwHQYDVR0OBBYEFNHhV8UnGhrXMcX8lAQZ
sK/jvHx8MIHhBgNVHSMEgdkwgdaAFBLNYATSoICecO3Gmbh7LMZS/RmhoYGypIGv
MIGsMQswCQYDVQQGEwJVUzELMAkGA1UECBMCT0gxETAPBgNVBAcTCENvbHVtYnVz
MRIwEAYDVQQKEwlWaWtpbmdWUE4xHTAbBgNVBAsTFE15T3JnYW5pemF0aW9uYWxV
bml0MRUwEwYDVQQDEwxWaWtpbmdWUE4gQ0ExEDAOBgNVBCkTB0Vhc3lSU0ExITAf
BgkqhkiG9w0BCQEWEm1lQG15aG9zdC5teWRvbWFpboIJAM81he6Avyo+MBMGA1Ud
JQQMMAoGCCsGAQUFBwMCMAsGA1UdDwQEAwIHgDANBgkqhkiG9w0BAQQFAAOCAgEA
BctjX17+qoPi+Ks4QIrC/Xccm7OVaXMdPar9Kwb1ock/ZcJQ8VG0v/R8d1Gy3DZq
Y0QTrkbnkXAfXFkzBMXTJMX9K8rxjcEp9wxkc8MTC/Y1dZehey1tXgVdY7Bl2xm8
jm13XczbVY5aMdaU5mDmjZdHlpFenw4B/A7lVb96vnzViNOuTpkZSzMdn6I6Vr26
T4KyRyQtDlQGm2mgo7cqgcC6BQNdVC8LQQtwQtC+hKotL7cMmafrHMlqzyRYWQBp
xlH12KQ4fVTqNL8tiNNbmpLxSmajNlwdiWlkIu73qHwZXS+Hg9mKPFR+CecXeSh2
BxAYfHD7vcRZjCgecAwK002sGKeEZZby6Dxze2PU2WBzJWsUl+6vVpZianLKH4Rt
oKLZ3ypt6KjFB+D31zhjB0DR8Q2wIvWZcuO9qaTBkFUqRQnZruH4YHGxbrpFZKrD
jLVOV6kgDAHeJbRU8DpN9XOKQmZf38w4Pf5/+OGo8aaQOMvvB1Bu0Upk3DFa5y9A
otn9q7MkecQplCch3+yBPV7Wpq6rICt+O1/nGCQVOaIVnj8hF0neoovryv8mJelG
4H1A3v1xyWEV6zkCv6Ytzz6VIwUmdsYSqVGkbG4oHspdARwrnbc71ZSGbdq6BmAa
tuwnlSnA4Uldc8plfzYH4og7mcc59J+lGrs0nf1wdbg=
-----END CERTIFICATE-----
