Certificate:
    Data:
        Version: 3 (0x2)
        Serial Number: 7740 (0x1e3c)
    Signature Algorithm: md5WithRSAEncryption
        Issuer: C=US, ST=OH, L=Columbus, O=VikingVPN, OU=MyOrganizationalUnit, CN=VikingVPN CA/name=EasyRSA/emailAddress=me@myhost.mydomain
        Validity
            Not Before: Apr 13 12:28:42 2016 GMT
            Not After : Apr 11 12:28:42 2026 GMT
        Subject: CN=Client908Cert280cd2
        Subject Public Key Info:
            Public Key Algorithm: rsaEncryption
                Public-Key: (4096 bit)
                Modulus:
                    00:c0:5b:c3:f2:f5:51:4a:4c:13:23:a7:74:4e:fd:
                    e9:3b:31:df:02:90:86:bb:88:05:b3:9f:35:c2:9b:
                    7c:29:2d:7c:fd:63:c5:30:c5:01:5d:63:f1:0d:20:
                    df:8e:b2:b3:fa:20:a3:82:58:36:ea:eb:bb:f2:9a:
                    15:36:a0:68:a7:c3:e3:ba:e2:2d:f0:9e:1a:22:98:
                    15:3e:c3:0f:f9:1d:ed:1b:56:30:38:20:b8:ec:11:
                    2b:72:6d:f4:ac:2e:b1:98:81:38:d6:1b:48:93:a4:
                    09:07:64:eb:a0:fc:64:02:5b:fe:75:77:c8:94:d9:
                    68:24:0b:17:2b:11:32:c1:b5:8f:d5:0b:e7:91:c3:
                    a4:81:19:e8:d2:8f:51:09:1a:38:77:a7:ef:6b:c3:
                    97:aa:7b:3c:d4:12:54:90:13:5b:4c:fc:69:89:87:
                    d7:74:99:98:2c:a7:db:6a:79:21:d3:ae:56:9a:1e:
                    52:11:40:c4:db:02:66:e9:18:4b:ac:b0:04:2e:72:
                    c0:79:d6:47:52:96:85:02:72:f7:a9:01:96:e3:3e:
                    f8:a1:ce:90:cf:6e:bb:e8:61:23:25:5a:6e:73:4f:
                    6f:81:29:27:74:6c:62:0e:26:1c:ca:d7:13:c1:09:
                    f0:41:d6:32:a4:8d:c0:cd:d6:1a:7a:3e:de:19:9b:
                    74:ab:ec:5f:0f:a4:0f:b6:72:af:cb:e3:cc:1c:af:
                    61:e5:4b:39:29:32:a2:97:d4:ad:2b:51:c9:bf:69:
                    5b:3e:9c:d9:1f:de:1b:87:2e:7c:07:0a:98:26:4b:
                    17:53:d6:a4:db:71:dd:42:17:a3:a7:b6:b7:4f:d8:
                    85:3a:23:cc:ea:68:08:08:64:64:a5:ef:6c:3a:5e:
                    01:8c:37:ac:ef:0f:2e:40:50:ff:13:d7:ad:71:f9:
                    4d:b4:18:31:c9:d0:c5:77:a5:e8:dc:09:07:5d:5e:
                    c7:34:04:33:f4:f6:25:8e:39:8a:97:d4:cf:1d:e7:
                    a4:ab:56:b2:6b:8f:ce:f3:f6:ed:85:32:f9:27:dd:
                    e6:ab:cb:1c:97:2f:27:ca:46:f7:16:6f:c1:d2:96:
                    39:dd:70:20:30:ef:b0:f9:63:b3:43:3e:d1:b9:15:
                    39:7b:2a:cf:16:ff:42:a5:ae:10:a4:46:59:c8:d1:
                    ac:57:ae:c1:7b:e3:fd:30:4d:ca:f4:22:3f:99:d4:
                    1d:51:a6:5c:a6:4f:35:d1:ac:68:da:33:78:50:7c:
                    4e:06:62:e8:a7:3a:64:5e:ca:18:c7:b5:14:07:c4:
                    3d:a1:38:16:8d:54:ac:ea:43:b5:ac:ba:94:a8:0f:
                    7c:ba:71:a0:0d:bb:58:29:82:b2:5e:96:67:ff:b8:
                    c1:96:67
                Exponent: 65537 (0x10001)
        X509v3 extensions:
            X509v3 Basic Constraints: 
                CA:FALSE
            Netscape Comment: 
                Easy-RSA Generated Certificate
            X509v3 Subject Key Identifier: 
                3C:BE:8D:47:30:D7:44:EB:70:0F:EB:DF:D1:00:64:90:D1:00:70:B0
            X509v3 Authority Key Identifier: 
                keyid:12:CD:60:04:D2:A0:80:9E:70:ED:C6:99:B8:7B:2C:C6:52:FD:19:A1
                DirName:/C=US/ST=OH/L=Columbus/O=VikingVPN/OU=MyOrganizationalUnit/CN=VikingVPN CA/name=EasyRSA/emailAddress=me@myhost.mydomain
                serial:CF:35:85:EE:80:BF:2A:3E

            X509v3 Extended Key Usage: 
                TLS Web Client Authentication
            X509v3 Key Usage: 
                Digital Signature
    Signature Algorithm: md5WithRSAEncryption
         31:75:3c:29:7a:92:8e:47:e6:70:81:b7:88:ce:18:65:d7:d5:
         74:6c:bb:cb:13:d8:1e:7d:53:cd:8a:e0:bf:24:77:ec:4d:d3:
         80:a5:6f:b0:77:62:9f:4e:35:fc:2c:b8:ad:11:5d:b0:c7:d6:
         1b:62:77:3e:5a:32:c3:22:93:41:ac:fa:2e:23:16:c3:ac:2f:
         62:0a:dc:95:43:85:59:b9:bd:c0:65:66:ba:8d:94:d1:25:f5:
         af:a9:ed:1b:a5:16:c0:4a:1c:b9:5b:cb:f4:73:bc:5b:58:e3:
         d5:07:26:ca:8c:e3:3a:97:31:11:24:00:85:3e:e5:a0:70:4e:
         ac:dc:f5:42:97:65:f2:d4:5c:7d:46:9f:0d:83:f0:14:26:9f:
         2d:b4:37:cd:79:06:ea:21:f9:30:94:f7:51:d2:d2:55:f5:99:
         3a:8b:86:ce:ac:09:6c:a3:ae:1d:21:c7:fa:24:8e:b7:05:fd:
         db:79:39:ea:5e:78:4b:22:bd:5f:53:3f:8d:b8:38:aa:cd:68:
         ff:b1:41:86:f3:60:5d:a1:8a:44:a7:db:b7:02:c3:2e:9d:e4:
         cf:e6:99:e0:13:ba:4b:34:09:78:f7:6e:f7:73:35:1e:ea:86:
         9b:81:cf:1d:7c:3f:14:01:da:c0:20:96:6f:9d:3d:e1:19:5b:
         73:8c:70:a1:0f:42:5b:61:c6:fc:9a:9e:16:8f:df:fb:6a:2a:
         f9:34:48:7d:28:14:82:78:a0:16:97:59:33:8b:62:8a:e8:80:
         18:b7:fe:a6:ab:a3:f0:7c:35:df:27:a4:70:29:e1:06:8a:c6:
         13:51:d1:3e:43:7b:29:5b:a3:0b:35:f6:d9:12:f8:f3:bd:07:
         93:1e:96:84:15:5e:a1:2f:50:dc:34:db:86:81:38:1c:77:59:
         d1:e9:95:e4:b8:0b:42:f5:b3:96:96:f1:ad:ed:a6:65:7e:00:
         f0:59:70:93:ed:8d:b2:ab:ba:0d:00:14:a1:0b:0f:51:87:a8:
         11:aa:d5:6a:ba:8c:93:e9:8c:0f:3e:e3:19:f5:78:ac:f2:c0:
         fb:1e:5f:29:48:e6:d7:56:1d:c8:99:06:c2:32:e1:97:37:b9:
         38:09:e5:3c:9d:6b:84:4c:70:a8:ab:83:8d:df:10:a2:49:10:
         b5:9a:9d:12:32:8b:33:d9:ca:fb:c0:cb:26:58:df:f0:9f:77:
         29:d2:6c:c2:97:63:01:97:43:bf:6a:a0:f4:20:97:80:57:69:
         f3:4f:73:7b:81:8c:18:e3:7d:cd:be:38:eb:eb:8c:45:87:4f:
         dc:5f:b3:d0:cc:96:ac:66:51:8c:e7:bc:5c:ab:e9:38:ad:71:
         33:76:11:b7:b9:68:3b:8f
-----BEGIN CERTIFICATE-----
MIIGrDCCBJSgAwIBAgICHjwwDQYJKoZIhvcNAQEEBQAwgawxCzAJBgNVBAYTAlVT
MQswCQYDVQQIEwJPSDERMA8GA1UEBxMIQ29sdW1idXMxEjAQBgNVBAoTCVZpa2lu
Z1ZQTjEdMBsGA1UECxMUTXlPcmdhbml6YXRpb25hbFVuaXQxFTATBgNVBAMTDFZp
a2luZ1ZQTiBDQTEQMA4GA1UEKRMHRWFzeVJTQTEhMB8GCSqGSIb3DQEJARYSbWVA
bXlob3N0Lm15ZG9tYWluMB4XDTE2MDQxMzEyMjg0MloXDTI2MDQxMTEyMjg0Mlow
HjEcMBoGA1UEAxMTQ2xpZW50OTA4Q2VydDI4MGNkMjCCAiIwDQYJKoZIhvcNAQEB
BQADggIPADCCAgoCggIBAMBbw/L1UUpMEyOndE796Tsx3wKQhruIBbOfNcKbfCkt
fP1jxTDFAV1j8Q0g346ys/ogo4JYNurru/KaFTagaKfD47riLfCeGiKYFT7DD/kd
7RtWMDgguOwRK3Jt9KwusZiBONYbSJOkCQdk66D8ZAJb/nV3yJTZaCQLFysRMsG1
j9UL55HDpIEZ6NKPUQkaOHen72vDl6p7PNQSVJATW0z8aYmH13SZmCyn22p5IdOu
VpoeUhFAxNsCZukYS6ywBC5ywHnWR1KWhQJy96kBluM++KHOkM9uu+hhIyVabnNP
b4EpJ3RsYg4mHMrXE8EJ8EHWMqSNwM3WGno+3hmbdKvsXw+kD7Zyr8vjzByvYeVL
OSkyopfUrStRyb9pWz6c2R/eG4cufAcKmCZLF1PWpNtx3UIXo6e2t0/YhTojzOpo
CAhkZKXvbDpeAYw3rO8PLkBQ/xPXrXH5TbQYMcnQxXel6NwJB11exzQEM/T2JY45
ipfUzx3npKtWsmuPzvP27YUy+Sfd5qvLHJcvJ8pG9xZvwdKWOd1wIDDvsPljs0M+
0bkVOXsqzxb/QqWuEKRGWcjRrFeuwXvj/TBNyvQiP5nUHVGmXKZPNdGsaNozeFB8
TgZi6Kc6ZF7KGMe1FAfEPaE4Fo1UrOpDtay6lKgPfLpxoA27WCmCsl6WZ/+4wZZn
AgMBAAGjggFjMIIBXzAJBgNVHRMEAjAAMC0GCWCGSAGG+EIBDQQgFh5FYXN5LVJT
QSBHZW5lcmF0ZWQgQ2VydGlmaWNhdGUwHQYDVR0OBBYEFDy+jUcw10TrcA/r39EA
ZJDRAHCwMIHhBgNVHSMEgdkwgdaAFBLNYATSoICecO3Gmbh7LMZS/RmhoYGypIGv
MIGsMQswCQYDVQQGEwJVUzELMAkGA1UECBMCT0gxETAPBgNVBAcTCENvbHVtYnVz
MRIwEAYDVQQKEwlWaWtpbmdWUE4xHTAbBgNVBAsTFE15T3JnYW5pemF0aW9uYWxV
bml0MRUwEwYDVQQDEwxWaWtpbmdWUE4gQ0ExEDAOBgNVBCkTB0Vhc3lSU0ExITAf
BgkqhkiG9w0BCQEWEm1lQG15aG9zdC5teWRvbWFpboIJAM81he6Avyo+MBMGA1Ud
JQQMMAoGCCsGAQUFBwMCMAsGA1UdDwQEAwIHgDANBgkqhkiG9w0BAQQFAAOCAgEA
MXU8KXqSjkfmcIG3iM4YZdfVdGy7yxPYHn1TzYrgvyR37E3TgKVvsHdin041/Cy4
rRFdsMfWG2J3PloywyKTQaz6LiMWw6wvYgrclUOFWbm9wGVmuo2U0SX1r6ntG6UW
wEocuVvL9HO8W1jj1QcmyozjOpcxESQAhT7loHBOrNz1Qpdl8tRcfUafDYPwFCaf
LbQ3zXkG6iH5MJT3UdLSVfWZOouGzqwJbKOuHSHH+iSOtwX923k56l54SyK9X1M/
jbg4qs1o/7FBhvNgXaGKRKfbtwLDLp3kz+aZ4BO6SzQJePdu93M1HuqGm4HPHXw/
FAHawCCWb5094Rlbc4xwoQ9CW2HG/JqeFo/f+2oq+TRIfSgUgnigFpdZM4tiiuiA
GLf+pquj8Hw13yekcCnhBorGE1HRPkN7KVujCzX22RL4870Hkx6WhBVeoS9Q3DTb
hoE4HHdZ0emV5LgLQvWzlpbxre2mZX4A8Flwk+2Nsqu6DQAUoQsPUYeoEarVarqM
k+mMDz7jGfV4rPLA+x5fKUjm11YdyJkGwjLhlze5OAnlPJ1rhExwqKuDjd8QokkQ
tZqdEjKLM9nK+8DLJljf8J93KdJswpdjAZdDv2qg9CCXgFdp809ze4GMGON9zb44
6+uMRYdP3F+z0MyWrGZRjOe8XKvpOK1xM3YRt7loO48=
-----END CERTIFICATE-----
