Certificate:
    Data:
        Version: 3 (0x2)
        Serial Number: 5369 (0x14f9)
    Signature Algorithm: md5WithRSAEncryption
        Issuer: C=US, ST=OH, L=Columbus, O=VikingVPN, OU=MyOrganizationalUnit, CN=VikingVPN CA/name=EasyRSA/emailAddress=me@myhost.mydomain
        Validity
            Not Before: May 24 21:19:00 2015 GMT
            Not After : May 21 21:19:00 2025 GMT
        Subject: CN=Client940Cert9744a3
        Subject Public Key Info:
            Public Key Algorithm: rsaEncryption
                Public-Key: (4096 bit)
                Modulus:
                    00:d4:8f:48:35:34:c6:50:78:8e:a0:c2:cb:96:02:
                    ce:34:b6:ec:20:e1:2b:23:aa:4d:49:6c:00:34:2c:
                    9b:4c:aa:b9:bd:55:d8:1b:b9:ba:2c:f4:51:e8:34:
                    cb:0d:fa:a5:5a:6a:7c:ca:f5:73:7f:ee:4d:a0:17:
                    d4:ad:53:21:27:22:75:5f:62:70:89:c2:d8:b7:6d:
                    97:b7:f6:2d:a7:56:08:2c:33:12:88:a7:e5:4e:26:
                    58:ea:a9:4e:52:6b:a1:59:ff:e9:89:76:b5:f2:f6:
                    06:77:fe:e2:13:bd:a6:df:7d:8a:da:88:f0:25:88:
                    b6:c8:d4:1b:73:5d:89:1c:11:45:4d:f5:f7:a1:05:
                    14:f2:aa:a0:bd:49:1a:83:b1:b1:e4:ad:b3:50:4c:
                    bb:48:eb:6e:13:15:e7:19:73:51:fb:47:ff:65:c2:
                    6b:a4:49:58:af:f5:65:78:39:9b:71:1f:32:06:29:
                    a4:45:1a:26:83:90:82:26:6c:35:27:f7:d5:81:44:
                    31:ba:4a:ff:4b:7e:59:a7:5c:93:1b:ed:55:aa:ea:
                    1f:5e:4a:34:fd:61:be:b3:0a:9b:f1:92:38:16:74:
                    f8:68:d6:86:46:67:15:03:63:71:7a:a1:d3:1e:a3:
                    46:e2:4d:70:b6:5c:0c:0c:06:93:f5:cf:c8:b8:39:
                    81:ab:2e:f9:33:26:8c:fe:3a:3d:96:cc:8e:ed:84:
                    32:df:f0:3f:14:62:84:01:0d:0a:23:73:77:0e:e4:
                    99:e5:3d:36:70:c4:af:3d:05:01:98:07:51:96:df:
                    71:1a:87:eb:6d:e9:f6:ab:14:f1:67:f2:d6:88:0a:
                    68:b2:a1:95:db:d3:16:4f:c4:c8:bf:e7:fe:60:62:
                    c0:c1:39:f0:15:c1:6f:55:28:79:ea:dd:91:c2:eb:
                    70:1d:d3:a7:0c:df:0d:fb:e3:53:3d:e7:15:02:3d:
                    d2:a7:00:b8:2b:34:a1:84:bc:16:75:8a:50:f1:e2:
                    17:29:c8:10:85:f0:51:a3:18:d5:38:0f:89:66:a7:
                    cb:43:ec:c3:cc:2c:c7:3f:c9:ec:ce:32:8d:26:f1:
                    05:1d:76:9c:70:a3:63:0b:af:02:df:0b:17:e7:d8:
                    6f:44:f2:50:c4:8d:8c:1a:e1:74:4e:f4:87:75:bf:
                    53:51:92:35:db:d5:3b:9e:9e:84:be:0c:3f:a2:76:
                    43:1f:86:3a:9b:96:db:ba:d9:12:5c:88:f5:90:4b:
                    7b:43:48:41:0b:54:cd:47:17:54:2e:f8:7b:54:f7:
                    51:54:e2:59:56:12:73:fc:82:69:e9:ce:13:4d:64:
                    ae:9e:08:e0:04:65:c3:af:5f:88:ad:5a:ca:83:63:
                    77:65:21
                Exponent: 65537 (0x10001)
        X509v3 extensions:
            X509v3 Basic Constraints: 
                CA:FALSE
            Netscape Comment: 
                Easy-RSA Generated Certificate
            X509v3 Subject Key Identifier: 
                5F:7C:3C:C9:4B:D1:1A:05:BE:F5:72:71:A2:A5:3D:1E:19:BD:12:88
            X509v3 Authority Key Identifier: 
                keyid:12:CD:60:04:D2:A0:80:9E:70:ED:C6:99:B8:7B:2C:C6:52:FD:19:A1
                DirName:/C=US/ST=OH/L=Columbus/O=VikingVPN/OU=MyOrganizationalUnit/CN=VikingVPN CA/name=EasyRSA/emailAddress=me@myhost.mydomain
                serial:CF:35:85:EE:80:BF:2A:3E

            X509v3 Extended Key Usage: 
                TLS Web Client Authentication
            X509v3 Key Usage: 
                Digital Signature
    Signature Algorithm: md5WithRSAEncryption
         2f:4d:19:68:91:b3:52:6e:d2:5c:c1:67:1e:4d:09:91:b9:ed:
         31:29:b8:ed:64:e5:d3:ba:69:32:c1:d5:66:08:a2:3a:de:f8:
         9d:d4:d4:fd:57:dd:9b:c6:4f:7d:52:19:d4:77:05:95:e8:76:
         af:be:72:83:34:17:9d:ba:05:b9:b2:db:a7:92:f2:8b:b5:32:
         77:a4:a3:5d:8b:c2:77:25:58:69:d3:48:e9:ec:e3:79:1b:a8:
         11:ff:f9:6f:cc:a4:37:4f:f4:9c:59:18:88:1f:6d:05:3c:ef:
         99:2f:bd:09:ca:b5:64:96:af:aa:18:eb:3c:57:a1:af:b5:e2:
         59:1f:43:6d:e3:19:08:22:76:b7:57:30:06:64:7d:65:25:a2:
         a3:99:19:5a:e5:1d:a1:7c:78:a1:40:65:2b:53:48:d6:8e:d4:
         0a:60:37:df:1b:00:1f:35:9b:f3:ab:65:d0:50:ce:97:93:1e:
         a5:bb:eb:e2:fd:0a:de:51:79:be:63:68:85:e4:e2:31:ea:c8:
         23:74:79:d5:5b:10:a9:73:25:70:13:5d:a6:ac:ff:d6:ba:9d:
         bf:cc:e7:22:05:f1:e4:29:d4:02:9e:74:eb:7d:e6:de:73:55:
         a0:41:6a:4c:6d:89:23:89:ba:1c:c5:95:18:b3:ab:6c:51:ac:
         4f:3b:f6:c4:86:9a:df:2e:84:de:95:48:bc:93:1f:77:3e:90:
         fd:d0:72:49:d6:93:4c:1f:ff:ee:27:99:2f:e1:48:80:19:d3:
         4c:22:7f:59:0c:9b:c8:4e:23:73:be:37:e4:49:9d:fe:a7:e8:
         74:a2:16:b5:0f:06:9a:5b:54:1d:c1:4d:c2:6e:b1:08:3a:b9:
         35:a9:a6:42:45:d0:d5:de:93:e4:1f:23:54:bd:72:3a:49:ae:
         4d:c8:a2:46:71:ab:ba:f7:29:23:d3:de:45:76:6d:43:37:df:
         4d:75:3a:82:19:4b:f9:24:95:0c:19:a3:97:86:90:49:19:3d:
         65:51:c6:30:84:16:e4:66:a3:9e:69:f5:6d:04:56:6d:1d:9d:
         0e:64:a5:17:25:fe:a9:00:89:8e:d3:02:c3:0f:e5:3b:b9:2d:
         cc:f2:24:29:52:68:c9:21:3f:06:33:5e:d4:5b:97:5f:22:cf:
         e5:15:8e:0a:ac:9a:c8:ae:43:3a:e7:fe:0f:30:9b:dc:80:31:
         15:e8:54:8c:2e:1d:7c:d6:ba:03:bf:e8:a0:a6:1e:e8:1b:8e:
         29:17:1d:39:01:39:54:dc:b1:a3:70:56:1a:5f:15:0c:02:0c:
         b6:43:8e:1d:dc:31:b8:89:53:50:7a:6c:c5:1c:1e:64:55:cc:
         66:ec:a0:ec:99:b0:83:95
-----BEGIN CERTIFICATE-----
MIIGrDCCBJSgAwIBAgICFPkwDQYJKoZIhvcNAQEEBQAwgawxCzAJBgNVBAYTAlVT
MQswCQYDVQQIEwJPSDERMA8GA1UEBxMIQ29sdW1idXMxEjAQBgNVBAoTCVZpa2lu
Z1ZQTjEdMBsGA1UECxMUTXlPcmdhbml6YXRpb25hbFVuaXQxFTATBgNVBAMTDFZp
a2luZ1ZQTiBDQTEQMA4GA1UEKRMHRWFzeVJTQTEhMB8GCSqGSIb3DQEJARYSbWVA
bXlob3N0Lm15ZG9tYWluMB4XDTE1MDUyNDIxMTkwMFoXDTI1MDUyMTIxMTkwMFow
HjEcMBoGA1UEAxMTQ2xpZW50OTQwQ2VydDk3NDRhMzCCAiIwDQYJKoZIhvcNAQEB
BQADggIPADCCAgoCggIBANSPSDU0xlB4jqDCy5YCzjS27CDhKyOqTUlsADQsm0yq
ub1V2Bu5uiz0Ueg0yw36pVpqfMr1c3/uTaAX1K1TIScidV9icInC2Ldtl7f2LadW
CCwzEoin5U4mWOqpTlJroVn/6Yl2tfL2Bnf+4hO9pt99itqI8CWItsjUG3NdiRwR
RU3196EFFPKqoL1JGoOxseSts1BMu0jrbhMV5xlzUftH/2XCa6RJWK/1ZXg5m3Ef
MgYppEUaJoOQgiZsNSf31YFEMbpK/0t+WadckxvtVarqH15KNP1hvrMKm/GSOBZ0
+GjWhkZnFQNjcXqh0x6jRuJNcLZcDAwGk/XPyLg5gasu+TMmjP46PZbMju2EMt/w
PxRihAENCiNzdw7kmeU9NnDErz0FAZgHUZbfcRqH623p9qsU8Wfy1ogKaLKhldvT
Fk/EyL/n/mBiwME58BXBb1UoeerdkcLrcB3TpwzfDfvjUz3nFQI90qcAuCs0oYS8
FnWKUPHiFynIEIXwUaMY1TgPiWany0Psw8wsxz/J7M4yjSbxBR12nHCjYwuvAt8L
F+fYb0TyUMSNjBrhdE70h3W/U1GSNdvVO56ehL4MP6J2Qx+GOpuW27rZElyI9ZBL
e0NIQQtUzUcXVC74e1T3UVTiWVYSc/yCaenOE01krp4I4ARlw69fiK1ayoNjd2Uh
AgMBAAGjggFjMIIBXzAJBgNVHRMEAjAAMC0GCWCGSAGG+EIBDQQgFh5FYXN5LVJT
QSBHZW5lcmF0ZWQgQ2VydGlmaWNhdGUwHQYDVR0OBBYEFF98PMlL0RoFvvVycaKl
PR4ZvRKIMIHhBgNVHSMEgdkwgdaAFBLNYATSoICecO3Gmbh7LMZS/RmhoYGypIGv
MIGsMQswCQYDVQQGEwJVUzELMAkGA1UECBMCT0gxETAPBgNVBAcTCENvbHVtYnVz
MRIwEAYDVQQKEwlWaWtpbmdWUE4xHTAbBgNVBAsTFE15T3JnYW5pemF0aW9uYWxV
bml0MRUwEwYDVQQDEwxWaWtpbmdWUE4gQ0ExEDAOBgNVBCkTB0Vhc3lSU0ExITAf
BgkqhkiG9w0BCQEWEm1lQG15aG9zdC5teWRvbWFpboIJAM81he6Avyo+MBMGA1Ud
JQQMMAoGCCsGAQUFBwMCMAsGA1UdDwQEAwIHgDANBgkqhkiG9w0BAQQFAAOCAgEA
L00ZaJGzUm7SXMFnHk0JkbntMSm47WTl07ppMsHVZgiiOt74ndTU/Vfdm8ZPfVIZ
1HcFleh2r75ygzQXnboFubLbp5Lyi7Uyd6SjXYvCdyVYadNI6ezjeRuoEf/5b8yk
N0/0nFkYiB9tBTzvmS+9Ccq1ZJavqhjrPFehr7XiWR9DbeMZCCJ2t1cwBmR9ZSWi
o5kZWuUdoXx4oUBlK1NI1o7UCmA33xsAHzWb86tl0FDOl5Mepbvr4v0K3lF5vmNo
heTiMerII3R51VsQqXMlcBNdpqz/1rqdv8znIgXx5CnUAp50633m3nNVoEFqTG2J
I4m6HMWVGLOrbFGsTzv2xIaa3y6E3pVIvJMfdz6Q/dBySdaTTB//7ieZL+FIgBnT
TCJ/WQybyE4jc7435Emd/qfodKIWtQ8GmltUHcFNwm6xCDq5NammQkXQ1d6T5B8j
VL1yOkmuTciiRnGruvcpI9PeRXZtQzffTXU6ghlL+SSVDBmjl4aQSRk9ZVHGMIQW
5Gajnmn1bQRWbR2dDmSlFyX+qQCJjtMCww/lO7ktzPIkKVJoySE/BjNe1FuXXyLP
5RWOCqyayK5DOuf+DzCb3IAxFehUjC4dfNa6A7/ooKYe6BuOKRcdOQE5VNyxo3BW
Gl8VDAIMtkOOHdwxuIlTUHpsxRweZFXMZuyg7Jmwg5U=
-----END CERTIFICATE-----
