Certificate:
    Data:
        Version: 3 (0x2)
        Serial Number: 6261 (0x1875)
    Signature Algorithm: md5WithRSAEncryption
        Issuer: C=US, ST=OH, L=Columbus, O=VikingVPN, OU=MyOrganizationalUnit, CN=VikingVPN CA/name=EasyRSA/emailAddress=me@myhost.mydomain
        Validity
            Not Before: Sep 14 01:36:22 2015 GMT
            Not After : Sep 11 01:36:22 2025 GMT
        Subject: CN=Client199Cert92f52c
        Subject Public Key Info:
            Public Key Algorithm: rsaEncryption
                Public-Key: (4096 bit)
                Modulus:
                    00:c8:30:e9:84:55:f7:82:c4:d7:dd:bf:b3:01:31:
                    76:4c:4b:34:a1:23:79:8f:03:64:de:8f:35:00:37:
                    11:1f:8a:3e:a1:8c:01:2d:da:db:27:e7:0d:e9:97:
                    dd:36:54:17:a9:b7:5a:a8:a2:4c:c2:85:80:3c:2a:
                    ae:4b:31:df:e7:53:80:78:a4:73:c8:d4:49:fd:b0:
                    99:2f:a3:25:1a:fd:f8:8e:55:1f:83:9f:d3:b1:e1:
                    01:d1:2e:c8:18:29:41:be:ad:c8:62:c8:39:e9:f8:
                    49:34:77:d9:02:ee:4c:ff:1e:55:46:42:79:3b:b4:
                    f9:41:e2:7b:f8:b0:a7:fb:da:f2:ed:9b:b2:f2:79:
                    8c:f7:6f:6b:7b:ab:ef:5f:f1:82:9f:bd:95:fc:69:
                    c1:44:ec:e8:e7:a3:4f:a4:d8:e8:92:ec:eb:f6:23:
                    b9:f1:0c:e4:c1:20:6d:16:c3:e2:6e:8c:02:24:3d:
                    53:07:ef:43:9e:6b:d9:91:e0:b1:77:7e:74:06:b8:
                    a2:d4:f6:97:9a:f2:09:9e:4a:f4:26:0a:59:cd:29:
                    ad:63:7b:33:7b:92:df:43:ef:ad:6b:6b:1f:a2:47:
                    ac:b1:6b:a3:59:a1:19:22:d1:5a:2f:d7:e5:1d:69:
                    95:27:ea:4e:dd:de:80:63:f1:75:13:ae:2a:ee:37:
                    57:a4:fb:4f:c5:7c:6e:6c:c3:56:a9:81:c1:0a:b1:
                    c4:ed:3c:77:33:c2:d7:d6:b7:4b:8a:a2:9f:cf:67:
                    ec:63:69:8a:fa:fc:07:f2:0c:9e:b7:a3:cd:97:02:
                    0b:ce:e5:98:09:80:74:cd:19:a2:28:6a:ab:11:e0:
                    e7:60:90:64:2f:32:3a:89:de:f0:d6:58:2b:75:2b:
                    3e:32:aa:67:ba:d6:d5:17:29:b4:1b:7b:54:4a:f6:
                    14:a8:7e:f7:72:26:51:ba:e6:44:e4:42:d8:a3:d3:
                    b3:0a:48:6e:c4:8b:b9:25:27:00:04:dd:86:e2:68:
                    04:c5:08:2b:59:88:46:a8:f9:87:a2:63:ab:33:38:
                    88:04:56:ad:fe:1e:8e:28:41:1a:c9:eb:59:32:ff:
                    7e:b8:3c:32:4b:d6:37:48:87:ac:80:08:17:19:11:
                    2c:ed:13:2b:5c:bf:89:e4:bb:e9:70:0c:46:96:7b:
                    f7:d7:af:ef:6f:e9:71:a9:54:1e:84:42:01:8d:1d:
                    77:9b:de:3d:fe:d7:09:79:ad:4b:ae:e1:79:fa:58:
                    67:9d:86:ba:3c:39:3f:8e:1a:97:7d:68:64:45:07:
                    65:7e:55:e3:76:fb:c5:17:a3:23:08:b9:fd:e2:c2:
                    0c:3f:b8:3e:97:63:f0:20:fe:3b:47:ce:36:96:b8:
                    24:82:05
                Exponent: 65537 (0x10001)
        X509v3 extensions:
            X509v3 Basic Constraints: 
                CA:FALSE
            Netscape Comment: 
                Easy-RSA Generated Certificate
            X509v3 Subject Key Identifier: 
                72:D8:93:08:33:52:05:CF:D9:84:49:2C:FE:02:72:35:EE:5A:1B:05
            X509v3 Authority Key Identifier: 
                keyid:12:CD:60:04:D2:A0:80:9E:70:ED:C6:99:B8:7B:2C:C6:52:FD:19:A1
                DirName:/C=US/ST=OH/L=Columbus/O=VikingVPN/OU=MyOrganizationalUnit/CN=VikingVPN CA/name=EasyRSA/emailAddress=me@myhost.mydomain
                serial:CF:35:85:EE:80:BF:2A:3E

            X509v3 Extended Key Usage: 
                TLS Web Client Authentication
            X509v3 Key Usage: 
                Digital Signature
    Signature Algorithm: md5WithRSAEncryption
         46:e3:36:c9:60:ba:60:4f:aa:e0:5e:59:68:be:e6:84:9f:d5:
         5e:ba:13:39:36:1f:db:4d:56:82:71:63:78:a3:2d:e1:89:73:
         89:93:b9:da:38:0b:e4:ba:f2:7f:f4:3f:f1:b2:59:5b:e1:fd:
         82:eb:28:c8:70:93:c0:1f:66:0e:90:45:f8:91:cd:bb:f6:b3:
         80:34:b3:b9:c5:46:ad:3f:d1:3f:2a:e7:5b:1e:5e:2c:45:36:
         57:d9:60:2a:c2:7a:5f:2a:9a:6e:3a:ae:63:33:20:29:65:ca:
         f5:e3:09:7b:81:ec:86:6e:27:57:74:ee:e6:ec:08:02:9c:50:
         59:53:6a:d8:3e:36:5c:ec:49:fe:94:4b:45:c4:c9:91:54:e6:
         ed:8c:1c:3d:7c:84:0e:55:9b:a0:60:3b:1d:36:22:46:77:c5:
         da:53:2a:3e:77:13:c9:31:db:c4:9a:34:08:70:44:e3:58:28:
         dd:cc:b8:d5:13:e9:07:57:ec:8f:56:6d:a6:a9:5e:3d:69:99:
         91:29:fc:4a:32:a3:a1:cd:d3:c3:25:ad:1e:0d:1a:42:07:98:
         a0:d3:17:28:86:50:a3:99:f9:60:39:f6:4a:f6:3f:89:6e:91:
         16:a9:f8:b2:4d:82:a4:d0:2e:d7:aa:0a:dd:e4:25:fd:d7:7e:
         ba:fc:22:13:9d:b6:12:45:89:69:6b:07:2c:d1:93:59:0a:88:
         67:45:7d:45:3b:a3:e9:8d:b7:9e:f5:ed:4a:b9:d7:85:02:f8:
         2d:92:5f:ed:25:4d:ab:23:34:e5:af:6f:41:06:0f:67:7e:2e:
         14:39:2c:8f:7d:c4:7e:0b:76:2f:7e:8f:78:34:08:42:df:3f:
         06:3f:ab:de:a5:25:82:51:de:48:b9:c2:13:0c:83:85:cd:b9:
         f2:ba:4c:0c:6a:4c:53:9c:b0:77:10:ea:82:2d:e3:5e:63:5c:
         f6:0d:66:f1:6a:40:06:e2:e3:79:80:f7:0e:aa:d1:ad:1c:8a:
         d2:8d:7a:76:95:b2:97:0b:4f:2c:89:18:c3:95:8e:a1:65:f7:
         a4:6f:42:b1:69:99:06:ad:38:9c:5f:c7:56:e8:3e:8f:67:90:
         85:84:81:af:cc:15:65:cc:56:f9:1e:8a:0f:b5:2c:14:aa:4e:
         52:a6:69:68:c2:29:59:f6:81:0a:2d:84:a8:82:9d:73:63:a7:
         b8:e5:68:1b:2f:fd:3d:d1:eb:a2:0a:a7:ae:7a:72:4d:c6:d4:
         85:98:55:ae:4a:a2:6c:03:92:09:a3:2e:68:90:85:37:f3:69:
         40:76:38:34:09:52:e9:d2:12:d0:2a:ff:d3:f8:26:e4:a8:81:
         5e:12:75:b5:41:f7:44:df
-----BEGIN CERTIFICATE-----
MIIGrDCCBJSgAwIBAgICGHUwDQYJKoZIhvcNAQEEBQAwgawxCzAJBgNVBAYTAlVT
MQswCQYDVQQIEwJPSDERMA8GA1UEBxMIQ29sdW1idXMxEjAQBgNVBAoTCVZpa2lu
Z1ZQTjEdMBsGA1UECxMUTXlPcmdhbml6YXRpb25hbFVuaXQxFTATBgNVBAMTDFZp
a2luZ1ZQTiBDQTEQMA4GA1UEKRMHRWFzeVJTQTEhMB8GCSqGSIb3DQEJARYSbWVA
bXlob3N0Lm15ZG9tYWluMB4XDTE1MDkxNDAxMzYyMloXDTI1MDkxMTAxMzYyMlow
HjEcMBoGA1UEAxMTQ2xpZW50MTk5Q2VydDkyZjUyYzCCAiIwDQYJKoZIhvcNAQEB
BQADggIPADCCAgoCggIBAMgw6YRV94LE192/swExdkxLNKEjeY8DZN6PNQA3ER+K
PqGMAS3a2yfnDemX3TZUF6m3WqiiTMKFgDwqrksx3+dTgHikc8jUSf2wmS+jJRr9
+I5VH4Of07HhAdEuyBgpQb6tyGLIOen4STR32QLuTP8eVUZCeTu0+UHie/iwp/va
8u2bsvJ5jPdva3ur71/xgp+9lfxpwUTs6OejT6TY6JLs6/YjufEM5MEgbRbD4m6M
AiQ9UwfvQ55r2ZHgsXd+dAa4otT2l5ryCZ5K9CYKWc0prWN7M3uS30PvrWtrH6JH
rLFro1mhGSLRWi/X5R1plSfqTt3egGPxdROuKu43V6T7T8V8bmzDVqmBwQqxxO08
dzPC19a3S4qin89n7GNpivr8B/IMnrejzZcCC87lmAmAdM0ZoihqqxHg52CQZC8y
Oone8NZYK3UrPjKqZ7rW1RcptBt7VEr2FKh+93ImUbrmRORC2KPTswpIbsSLuSUn
AATdhuJoBMUIK1mIRqj5h6JjqzM4iARWrf4ejihBGsnrWTL/frg8MkvWN0iHrIAI
FxkRLO0TK1y/ieS76XAMRpZ799ev72/pcalUHoRCAY0dd5vePf7XCXmtS67hefpY
Z52Gujw5P44al31oZEUHZX5V43b7xRejIwi5/eLCDD+4Ppdj8CD+O0fONpa4JIIF
AgMBAAGjggFjMIIBXzAJBgNVHRMEAjAAMC0GCWCGSAGG+EIBDQQgFh5FYXN5LVJT
QSBHZW5lcmF0ZWQgQ2VydGlmaWNhdGUwHQYDVR0OBBYEFHLYkwgzUgXP2YRJLP4C
cjXuWhsFMIHhBgNVHSMEgdkwgdaAFBLNYATSoICecO3Gmbh7LMZS/RmhoYGypIGv
MIGsMQswCQYDVQQGEwJVUzELMAkGA1UECBMCT0gxETAPBgNVBAcTCENvbHVtYnVz
MRIwEAYDVQQKEwlWaWtpbmdWUE4xHTAbBgNVBAsTFE15T3JnYW5pemF0aW9uYWxV
bml0MRUwEwYDVQQDEwxWaWtpbmdWUE4gQ0ExEDAOBgNVBCkTB0Vhc3lSU0ExITAf
BgkqhkiG9w0BCQEWEm1lQG15aG9zdC5teWRvbWFpboIJAM81he6Avyo+MBMGA1Ud
JQQMMAoGCCsGAQUFBwMCMAsGA1UdDwQEAwIHgDANBgkqhkiG9w0BAQQFAAOCAgEA
RuM2yWC6YE+q4F5ZaL7mhJ/VXroTOTYf201WgnFjeKMt4YlziZO52jgL5Lryf/Q/
8bJZW+H9gusoyHCTwB9mDpBF+JHNu/azgDSzucVGrT/RPyrnWx5eLEU2V9lgKsJ6
XyqabjquYzMgKWXK9eMJe4Hshm4nV3Tu5uwIApxQWVNq2D42XOxJ/pRLRcTJkVTm
7YwcPXyEDlWboGA7HTYiRnfF2lMqPncTyTHbxJo0CHBE41go3cy41RPpB1fsj1Zt
pqlePWmZkSn8SjKjoc3TwyWtHg0aQgeYoNMXKIZQo5n5YDn2SvY/iW6RFqn4sk2C
pNAu16oK3eQl/dd+uvwiE522EkWJaWsHLNGTWQqIZ0V9RTuj6Y23nvXtSrnXhQL4
LZJf7SVNqyM05a9vQQYPZ34uFDksj33Efgt2L36PeDQIQt8/Bj+r3qUlglHeSLnC
EwyDhc258rpMDGpMU5ywdxDqgi3jXmNc9g1m8WpABuLjeYD3DqrRrRyK0o16dpWy
lwtPLIkYw5WOoWX3pG9CsWmZBq04nF/HVug+j2eQhYSBr8wVZcxW+R6KD7UsFKpO
UqZpaMIpWfaBCi2EqIKdc2OnuOVoGy/9PdHrogqnrnpyTcbUhZhVrkqibAOSCaMu
aJCFN/NpQHY4NAlS6dIS0Cr/0/gm5KiBXhJ1tUH3RN8=
-----END CERTIFICATE-----
