Certificate:
    Data:
        Version: 3 (0x2)
        Serial Number: 3212 (0xc8c)
    Signature Algorithm: md5WithRSAEncryption
        Issuer: C=US, ST=OH, L=Columbus, O=VikingVPN, OU=MyOrganizationalUnit, CN=VikingVPN CA/name=EasyRSA/emailAddress=me@myhost.mydomain
        Validity
            Not Before: Oct 28 20:38:22 2014 GMT
            Not After : Oct 25 20:38:22 2024 GMT
        Subject: CN=Client1116Cert4269d9
        Subject Public Key Info:
            Public Key Algorithm: rsaEncryption
                Public-Key: (4096 bit)
                Modulus:
                    00:c3:a3:84:21:09:77:55:2d:da:12:02:c5:f8:a9:
                    b2:10:00:70:f8:e2:47:47:19:33:1e:a3:9f:78:c7:
                    16:50:c5:a8:d0:95:f2:d2:44:c5:c7:09:ce:cb:13:
                    6a:f0:b6:37:43:b2:10:62:7d:75:b4:2f:27:8a:47:
                    4b:e8:c5:1a:ff:4f:cd:bf:84:41:39:72:d2:a7:12:
                    4e:2a:02:67:40:86:fc:97:92:d4:bd:67:96:96:53:
                    66:98:25:1a:cd:86:b8:4f:03:fb:73:e5:e9:04:1d:
                    95:02:21:fc:d4:72:81:f5:2d:06:12:c6:35:7d:4b:
                    49:b2:bf:86:4d:35:4f:03:e6:bd:0e:e9:5b:a0:60:
                    ca:9c:71:52:27:df:cd:80:87:70:67:93:be:40:e7:
                    49:c9:02:64:44:49:67:d9:12:c6:a7:bc:67:71:23:
                    ca:2d:c4:ae:02:dc:b3:a7:68:5a:74:0f:1f:7f:c2:
                    e4:97:ef:e9:ef:26:5a:a6:31:05:02:a6:5d:d7:e1:
                    a0:ef:7f:35:5b:df:a0:00:05:5c:a3:b4:dc:4f:7e:
                    55:ee:18:0d:d3:2d:04:ce:30:ca:56:6e:92:09:46:
                    c4:33:f7:1c:12:36:02:e8:39:89:b0:5f:f5:53:2c:
                    1b:b1:2e:6d:e8:8c:ae:fb:f4:09:33:e5:38:07:4b:
                    b5:e9:c6:6a:13:e0:be:ac:72:07:05:f5:c6:b8:52:
                    cb:0c:e3:64:a5:dc:94:cf:88:aa:94:64:ca:47:06:
                    08:3c:cb:b7:1f:0c:57:8b:b1:02:10:58:9a:d4:90:
                    8d:e3:41:74:82:b0:e1:c7:d8:b8:10:62:5b:e4:bb:
                    76:c5:34:35:4b:99:1a:59:a1:fe:bc:dc:9f:a6:73:
                    4d:48:f1:2c:a0:8e:79:04:03:1b:75:b9:17:cf:a0:
                    b3:8b:06:ac:f7:3b:eb:9d:54:e7:40:fb:10:48:71:
                    ea:26:80:be:4e:c3:d6:fe:1a:8f:2f:83:4f:07:54:
                    ce:5e:7e:2f:39:4c:5f:96:3a:53:e5:41:bd:a3:fc:
                    28:a9:5d:05:99:98:56:07:ba:3e:2d:eb:dc:60:97:
                    d6:60:65:cf:3d:1a:eb:b5:85:e7:69:8d:68:7c:44:
                    b7:03:df:48:d2:fb:e4:bc:f4:ce:65:68:16:f5:18:
                    00:6b:a8:04:29:34:a0:6e:66:81:5b:f6:e3:a4:ab:
                    96:b6:8c:bd:90:46:60:3b:75:0b:a3:3d:4f:d4:86:
                    d6:b8:69:94:b1:73:4f:2d:c9:1f:80:7d:84:d7:91:
                    cc:d8:7a:37:8e:b0:ee:ac:77:92:a1:3a:76:9f:51:
                    d6:f5:16:80:a5:49:52:28:ad:92:5f:51:2a:fd:5d:
                    0d:d0:25
                Exponent: 65537 (0x10001)
        X509v3 extensions:
            X509v3 Basic Constraints: 
                CA:FALSE
            Netscape Comment: 
                Easy-RSA Generated Certificate
            X509v3 Subject Key Identifier: 
                60:B7:F3:51:71:2D:6B:E7:99:79:90:16:99:F0:73:EB:E2:36:78:38
            X509v3 Authority Key Identifier: 
                keyid:12:CD:60:04:D2:A0:80:9E:70:ED:C6:99:B8:7B:2C:C6:52:FD:19:A1
                DirName:/C=US/ST=OH/L=Columbus/O=VikingVPN/OU=MyOrganizationalUnit/CN=VikingVPN CA/name=EasyRSA/emailAddress=me@myhost.mydomain
                serial:CF:35:85:EE:80:BF:2A:3E

            X509v3 Extended Key Usage: 
                TLS Web Client Authentication
            X509v3 Key Usage: 
                Digital Signature
    Signature Algorithm: md5WithRSAEncryption
         d6:e1:e8:46:21:9f:c6:2c:53:7a:21:6d:f7:ad:cd:f3:1c:d4:
         4a:42:d6:97:1b:46:bb:23:7e:ba:7c:48:93:8e:51:db:5e:67:
         b2:44:4e:91:d6:2d:c6:db:b1:63:99:a4:e1:27:5d:e8:ac:37:
         63:a7:89:16:b2:29:d6:3f:be:87:cd:09:0e:69:40:df:5f:ec:
         e5:0a:d5:3d:a9:b9:42:ee:fe:96:f2:2a:bc:4f:c4:d7:b1:ec:
         d9:1e:3c:9a:47:24:09:0d:20:3a:42:e1:5e:b3:36:29:e0:62:
         3e:ee:d1:e4:a0:de:43:31:6d:49:c8:67:df:42:7d:29:4e:c3:
         2a:0d:70:06:fa:05:f6:2f:83:ab:a4:06:d2:69:40:d9:38:20:
         8c:f9:dc:22:1b:f5:35:2a:62:34:fd:66:6e:3a:82:6d:c0:92:
         79:49:3b:f6:89:ad:75:d6:02:5a:14:01:d8:3c:c8:0a:a3:e7:
         7c:91:67:f0:c1:b9:d2:47:77:37:18:ed:34:ab:53:c0:75:bb:
         c2:76:1b:06:f5:ca:9e:0c:fe:ae:5c:85:0c:ae:4d:d6:4a:e2:
         c9:8b:c1:7b:c5:10:42:57:0c:01:41:b7:a9:89:58:a9:6b:b1:
         c6:83:0e:80:74:e9:08:19:39:8b:27:d9:5c:8a:41:1c:f5:5b:
         61:80:9b:4a:ea:27:e5:f1:c5:39:95:f0:88:37:8e:51:f0:7f:
         a1:76:52:ac:6c:c8:e1:d0:47:3d:b7:ea:f1:0d:81:1c:06:86:
         cb:d1:1a:bc:14:dd:d6:b5:ad:86:99:b5:76:73:43:27:05:1d:
         78:70:c8:c4:49:fe:91:61:58:fc:7e:f6:cc:a1:2b:e9:c0:1a:
         a9:eb:b8:f3:69:d4:5f:c6:7e:b8:f6:dc:12:99:8e:5e:78:82:
         a5:7d:b3:cd:55:53:5a:0e:40:0e:2b:cd:66:25:cc:1b:52:55:
         77:c2:76:3a:9a:ad:41:3e:aa:5a:59:56:2c:5f:82:3d:6b:48:
         65:2c:6e:72:98:84:b7:31:45:20:04:c7:e4:39:75:2c:d6:e3:
         a2:2f:cf:a4:0a:ca:c6:c1:ef:f0:9c:66:58:5d:de:ce:15:e2:
         de:b6:66:a7:cf:80:60:59:cb:a9:a8:bf:ba:50:d9:b3:2b:5c:
         83:64:8b:01:a3:11:bc:4e:be:f3:11:52:97:e2:d2:4a:e3:04:
         e0:67:b5:79:fb:d5:37:3d:46:cb:3e:8e:84:44:31:a9:e6:d1:
         fb:c7:50:da:8b:65:a9:3f:99:32:cd:c2:f8:c8:65:d7:6a:65:
         fb:d6:92:21:34:2e:e3:be:ee:bb:97:dd:d0:d4:c3:be:77:2a:
         7b:2e:6f:3d:7c:2d:94:3e
-----BEGIN CERTIFICATE-----
MIIGrTCCBJWgAwIBAgICDIwwDQYJKoZIhvcNAQEEBQAwgawxCzAJBgNVBAYTAlVT
MQswCQYDVQQIEwJPSDERMA8GA1UEBxMIQ29sdW1idXMxEjAQBgNVBAoTCVZpa2lu
Z1ZQTjEdMBsGA1UECxMUTXlPcmdhbml6YXRpb25hbFVuaXQxFTATBgNVBAMTDFZp
a2luZ1ZQTiBDQTEQMA4GA1UEKRMHRWFzeVJTQTEhMB8GCSqGSIb3DQEJARYSbWVA
bXlob3N0Lm15ZG9tYWluMB4XDTE0MTAyODIwMzgyMloXDTI0MTAyNTIwMzgyMlow
HzEdMBsGA1UEAxMUQ2xpZW50MTExNkNlcnQ0MjY5ZDkwggIiMA0GCSqGSIb3DQEB
AQUAA4ICDwAwggIKAoICAQDDo4QhCXdVLdoSAsX4qbIQAHD44kdHGTMeo594xxZQ
xajQlfLSRMXHCc7LE2rwtjdDshBifXW0LyeKR0voxRr/T82/hEE5ctKnEk4qAmdA
hvyXktS9Z5aWU2aYJRrNhrhPA/tz5ekEHZUCIfzUcoH1LQYSxjV9S0myv4ZNNU8D
5r0O6VugYMqccVIn382Ah3Bnk75A50nJAmRESWfZEsanvGdxI8otxK4C3LOnaFp0
Dx9/wuSX7+nvJlqmMQUCpl3X4aDvfzVb36AABVyjtNxPflXuGA3TLQTOMMpWbpIJ
RsQz9xwSNgLoOYmwX/VTLBuxLm3ojK779Akz5TgHS7XpxmoT4L6scgcF9ca4UssM
42Sl3JTPiKqUZMpHBgg8y7cfDFeLsQIQWJrUkI3jQXSCsOHH2LgQYlvku3bFNDVL
mRpZof683J+mc01I8SygjnkEAxt1uRfPoLOLBqz3O+udVOdA+xBIceomgL5Ow9b+
Go8vg08HVM5efi85TF+WOlPlQb2j/CipXQWZmFYHuj4t69xgl9ZgZc89Guu1hedp
jWh8RLcD30jS++S89M5laBb1GABrqAQpNKBuZoFb9uOkq5a2jL2QRmA7dQujPU/U
hta4aZSxc08tyR+AfYTXkczYejeOsO6sd5KhOnafUdb1FoClSVIorZJfUSr9XQ3Q
JQIDAQABo4IBYzCCAV8wCQYDVR0TBAIwADAtBglghkgBhvhCAQ0EIBYeRWFzeS1S
U0EgR2VuZXJhdGVkIENlcnRpZmljYXRlMB0GA1UdDgQWBBRgt/NRcS1r55l5kBaZ
8HPr4jZ4ODCB4QYDVR0jBIHZMIHWgBQSzWAE0qCAnnDtxpm4eyzGUv0ZoaGBsqSB
rzCBrDELMAkGA1UEBhMCVVMxCzAJBgNVBAgTAk9IMREwDwYDVQQHEwhDb2x1bWJ1
czESMBAGA1UEChMJVmlraW5nVlBOMR0wGwYDVQQLExRNeU9yZ2FuaXphdGlvbmFs
VW5pdDEVMBMGA1UEAxMMVmlraW5nVlBOIENBMRAwDgYDVQQpEwdFYXN5UlNBMSEw
HwYJKoZIhvcNAQkBFhJtZUBteWhvc3QubXlkb21haW6CCQDPNYXugL8qPjATBgNV
HSUEDDAKBggrBgEFBQcDAjALBgNVHQ8EBAMCB4AwDQYJKoZIhvcNAQEEBQADggIB
ANbh6EYhn8YsU3ohbfetzfMc1EpC1pcbRrsjfrp8SJOOUdteZ7JETpHWLcbbsWOZ
pOEnXeisN2OniRayKdY/vofNCQ5pQN9f7OUK1T2puULu/pbyKrxPxNex7NkePJpH
JAkNIDpC4V6zNingYj7u0eSg3kMxbUnIZ99CfSlOwyoNcAb6BfYvg6ukBtJpQNk4
IIz53CIb9TUqYjT9Zm46gm3AknlJO/aJrXXWAloUAdg8yAqj53yRZ/DBudJHdzcY
7TSrU8B1u8J2Gwb1yp4M/q5chQyuTdZK4smLwXvFEEJXDAFBt6mJWKlrscaDDoB0
6QgZOYsn2VyKQRz1W2GAm0rqJ+XxxTmV8Ig3jlHwf6F2UqxsyOHQRz236vENgRwG
hsvRGrwU3da1rYaZtXZzQycFHXhwyMRJ/pFhWPx+9syhK+nAGqnruPNp1F/Gfrj2
3BKZjl54gqV9s81VU1oOQA4rzWYlzBtSVXfCdjqarUE+qlpZVixfgj1rSGUsbnKY
hLcxRSAEx+Q5dSzW46Ivz6QKysbB7/CcZlhd3s4V4t62ZqfPgGBZy6mov7pQ2bMr
XINkiwGjEbxOvvMRUpfi0krjBOBntXn71Tc9Rss+joREManm0fvHUNqLZak/mTLN
wvjIZddqZfvWkiE0LuO+7ruX3dDUw753Knsubz18LZQ+
-----END CERTIFICATE-----
