Certificate:
    Data:
        Version: 3 (0x2)
        Serial Number: 6766 (0x1a6e)
    Signature Algorithm: md5WithRSAEncryption
        Issuer: C=US, ST=OH, L=Columbus, O=VikingVPN, OU=MyOrganizationalUnit, CN=VikingVPN CA/name=EasyRSA/emailAddress=me@myhost.mydomain
        Validity
            Not Before: Nov 26 19:35:36 2015 GMT
            Not After : Nov 23 19:35:36 2025 GMT
        Subject: CN=Client2071Cert1ba35a
        Subject Public Key Info:
            Public Key Algorithm: rsaEncryption
                Public-Key: (4096 bit)
                Modulus:
                    00:b6:98:14:06:79:ef:37:84:9d:d5:45:67:cd:bc:
                    85:ec:58:6e:bc:3b:14:11:c6:c2:06:f8:c7:df:f0:
                    96:35:1b:a4:61:b1:bc:fa:dc:7a:a3:df:40:ac:ce:
                    02:87:eb:37:38:12:46:94:d5:88:4c:55:b1:2f:35:
                    06:6f:4f:12:0a:38:70:ff:fb:39:44:2d:dc:58:33:
                    0b:c1:ce:59:f9:85:87:55:00:24:aa:15:3d:34:fb:
                    f6:54:4e:7e:10:a6:ff:0e:65:27:61:66:ef:b9:8b:
                    89:16:60:87:bc:57:b5:40:21:ed:a2:da:c5:17:ef:
                    f2:7d:ae:cc:3a:fa:9a:21:ed:9d:dc:44:b9:50:44:
                    2d:b7:39:24:85:1f:ea:6c:b5:dd:99:03:c6:52:29:
                    71:34:53:45:48:6e:45:de:8b:70:f6:cf:e2:bb:99:
                    51:a6:5e:88:16:4d:2c:9d:d5:1f:40:26:61:87:28:
                    e8:ca:98:c8:dc:f4:7e:09:d1:6e:df:d7:86:41:7b:
                    24:57:5c:da:77:4e:72:97:e2:af:18:95:8e:db:e3:
                    71:1c:00:c2:24:e7:df:3b:96:c0:2c:48:30:ca:2d:
                    b3:36:47:cf:14:dd:13:ca:3d:1f:c1:ce:1e:1a:e2:
                    07:42:a6:45:96:08:ab:39:86:d2:3a:7c:8b:63:57:
                    3a:90:6d:9a:11:ad:2c:f6:c1:1b:c2:88:b1:96:98:
                    51:02:12:72:8a:5c:fd:1e:fa:ce:c0:8b:b3:30:3e:
                    c4:e3:67:04:c7:74:7b:b0:f9:c4:6e:ef:3f:2d:2c:
                    54:c3:33:e0:f7:d7:e3:cd:27:56:ef:74:c1:fb:20:
                    28:32:bc:bd:1d:4a:3d:35:e5:c4:5e:80:20:27:58:
                    77:a9:ef:04:f3:ef:c3:c2:0f:d2:5e:44:77:d1:a1:
                    e5:06:0d:89:c0:2d:c0:32:cd:1f:e5:f4:d7:f0:6b:
                    a5:ca:7f:c8:d6:1f:5a:5a:43:d3:25:1f:f6:7f:e4:
                    ea:ec:ae:82:d8:79:7e:5f:8f:5e:81:98:0e:23:fa:
                    2c:e1:e9:0e:fb:cf:83:81:2b:13:23:be:f5:db:81:
                    45:0f:6e:aa:4d:af:80:05:05:be:2a:7e:cc:65:96:
                    5f:3c:b2:7c:03:22:c0:99:7c:36:09:2c:11:ab:e0:
                    9e:f9:d9:69:53:2f:53:ce:19:9a:01:20:16:1f:3e:
                    5a:ca:11:c1:44:f7:74:3a:92:1e:a7:77:9b:0f:ba:
                    c6:b2:5f:9d:3f:1f:2f:cb:1e:2c:cb:c2:5c:8a:d9:
                    58:9b:95:bf:58:a1:ed:b6:c3:93:78:08:ec:e9:6a:
                    dd:7b:ac:a5:99:06:85:8e:70:89:95:88:36:a2:5f:
                    ff:11:35
                Exponent: 65537 (0x10001)
        X509v3 extensions:
            X509v3 Basic Constraints: 
                CA:FALSE
            Netscape Comment: 
                Easy-RSA Generated Certificate
            X509v3 Subject Key Identifier: 
                0C:DE:D2:60:DD:2C:69:7E:41:59:C0:34:09:3D:5C:83:6E:3F:0E:B7
            X509v3 Authority Key Identifier: 
                keyid:12:CD:60:04:D2:A0:80:9E:70:ED:C6:99:B8:7B:2C:C6:52:FD:19:A1
                DirName:/C=US/ST=OH/L=Columbus/O=VikingVPN/OU=MyOrganizationalUnit/CN=VikingVPN CA/name=EasyRSA/emailAddress=me@myhost.mydomain
                serial:CF:35:85:EE:80:BF:2A:3E

            X509v3 Extended Key Usage: 
                TLS Web Client Authentication
            X509v3 Key Usage: 
                Digital Signature
    Signature Algorithm: md5WithRSAEncryption
         e2:d4:00:fe:61:df:54:2d:58:87:5a:30:f4:93:e0:8e:04:6e:
         c0:0d:2c:b3:3f:40:29:3f:7d:e6:dd:dd:91:02:16:c4:c3:3d:
         24:1a:98:73:ae:ea:68:cf:43:2b:2f:1b:b4:ac:0b:08:8a:34:
         4a:6a:fa:51:b8:ff:62:00:8f:dc:ff:00:12:fe:d7:b2:67:84:
         63:ee:f6:af:3e:8a:78:45:79:20:43:a9:9c:fa:8a:f7:9d:1f:
         a5:a6:11:89:15:eb:46:49:77:ec:4d:5c:c9:6e:0a:0e:6e:7c:
         61:22:5b:a5:76:fc:61:6e:b1:97:84:d1:27:1e:ea:82:23:fb:
         08:0c:11:f9:79:60:e5:f5:d0:85:14:4f:db:79:13:a0:49:14:
         af:17:41:6f:3d:83:96:c5:75:d7:cb:5f:89:4c:81:6c:6e:35:
         7a:ba:aa:40:54:6b:f0:0a:a2:92:e2:51:8d:34:de:98:85:e5:
         ad:72:56:8b:fd:7b:af:87:c5:96:1d:f2:85:c9:00:d1:0f:6d:
         e2:ba:ac:40:19:81:2d:da:4b:45:68:c2:22:39:8f:84:bb:9b:
         96:12:ad:b6:4b:9a:7c:ab:64:4d:f3:bc:07:07:97:9d:80:93:
         f6:b9:6d:1e:dd:bf:bf:d0:f0:b8:03:69:57:79:79:d0:6c:89:
         47:4b:52:a0:99:c0:60:9b:5b:8b:ae:d3:0b:65:61:2c:87:f3:
         6b:b1:69:22:52:1b:23:d2:47:4a:c8:0f:84:ac:ae:18:31:96:
         2b:d7:47:f6:1e:d1:9c:2b:3b:92:a2:81:57:76:25:c5:c8:1e:
         49:9c:86:9c:45:57:0b:3e:4d:fb:2f:5e:df:3a:a0:44:1a:21:
         23:ae:e6:c6:fa:7b:f6:c7:35:65:b1:93:e5:dd:39:9a:7c:6c:
         dc:d3:84:6e:44:54:ee:6e:eb:ba:cf:bb:a2:e9:05:1d:05:5b:
         21:ea:06:e8:0a:bf:44:a5:00:c6:31:95:5f:4c:d9:e8:fc:7a:
         3e:6e:b6:66:e4:00:fc:98:0b:53:0b:bf:45:63:4c:11:f3:5f:
         0a:99:42:78:4c:b9:a3:9b:4b:87:b5:22:a9:89:82:b5:fd:74:
         41:db:8d:bf:db:19:84:17:4f:1a:3d:32:01:f7:71:d0:dd:ec:
         68:45:e1:16:42:a4:cb:a5:9c:2b:e6:ea:98:be:09:52:f0:69:
         f7:1f:5d:10:02:48:dd:e6:74:ed:ca:df:76:6f:fa:f5:5f:71:
         e9:55:5a:c9:6f:40:00:89:cf:23:bd:af:c7:cc:a0:c5:31:37:
         77:23:a5:bb:bd:e3:b6:dc:9e:62:94:fd:0b:9d:c2:f1:99:06:
         c7:c2:ab:52:67:73:ad:cb
-----BEGIN CERTIFICATE-----
MIIGrTCCBJWgAwIBAgICGm4wDQYJKoZIhvcNAQEEBQAwgawxCzAJBgNVBAYTAlVT
MQswCQYDVQQIEwJPSDERMA8GA1UEBxMIQ29sdW1idXMxEjAQBgNVBAoTCVZpa2lu
Z1ZQTjEdMBsGA1UECxMUTXlPcmdhbml6YXRpb25hbFVuaXQxFTATBgNVBAMTDFZp
a2luZ1ZQTiBDQTEQMA4GA1UEKRMHRWFzeVJTQTEhMB8GCSqGSIb3DQEJARYSbWVA
bXlob3N0Lm15ZG9tYWluMB4XDTE1MTEyNjE5MzUzNloXDTI1MTEyMzE5MzUzNlow
HzEdMBsGA1UEAxMUQ2xpZW50MjA3MUNlcnQxYmEzNWEwggIiMA0GCSqGSIb3DQEB
AQUAA4ICDwAwggIKAoICAQC2mBQGee83hJ3VRWfNvIXsWG68OxQRxsIG+Mff8JY1
G6Rhsbz63Hqj30CszgKH6zc4EkaU1YhMVbEvNQZvTxIKOHD/+zlELdxYMwvBzln5
hYdVACSqFT00+/ZUTn4Qpv8OZSdhZu+5i4kWYIe8V7VAIe2i2sUX7/J9rsw6+poh
7Z3cRLlQRC23OSSFH+pstd2ZA8ZSKXE0U0VIbkXei3D2z+K7mVGmXogWTSyd1R9A
JmGHKOjKmMjc9H4J0W7f14ZBeyRXXNp3TnKX4q8YlY7b43EcAMIk5987lsAsSDDK
LbM2R88U3RPKPR/Bzh4a4gdCpkWWCKs5htI6fItjVzqQbZoRrSz2wRvCiLGWmFEC
EnKKXP0e+s7Ai7MwPsTjZwTHdHuw+cRu7z8tLFTDM+D31+PNJ1bvdMH7ICgyvL0d
Sj015cRegCAnWHep7wTz78PCD9JeRHfRoeUGDYnALcAyzR/l9Nfwa6XKf8jWH1pa
Q9MlH/Z/5OrsroLYeX5fj16BmA4j+izh6Q77z4OBKxMjvvXbgUUPbqpNr4AFBb4q
fsxlll88snwDIsCZfDYJLBGr4J752WlTL1POGZoBIBYfPlrKEcFE93Q6kh6nd5sP
usayX50/Hy/LHizLwlyK2Viblb9Yoe22w5N4COzpat17rKWZBoWOcImViDaiX/8R
NQIDAQABo4IBYzCCAV8wCQYDVR0TBAIwADAtBglghkgBhvhCAQ0EIBYeRWFzeS1S
U0EgR2VuZXJhdGVkIENlcnRpZmljYXRlMB0GA1UdDgQWBBQM3tJg3SxpfkFZwDQJ
PVyDbj8OtzCB4QYDVR0jBIHZMIHWgBQSzWAE0qCAnnDtxpm4eyzGUv0ZoaGBsqSB
rzCBrDELMAkGA1UEBhMCVVMxCzAJBgNVBAgTAk9IMREwDwYDVQQHEwhDb2x1bWJ1
czESMBAGA1UEChMJVmlraW5nVlBOMR0wGwYDVQQLExRNeU9yZ2FuaXphdGlvbmFs
VW5pdDEVMBMGA1UEAxMMVmlraW5nVlBOIENBMRAwDgYDVQQpEwdFYXN5UlNBMSEw
HwYJKoZIhvcNAQkBFhJtZUBteWhvc3QubXlkb21haW6CCQDPNYXugL8qPjATBgNV
HSUEDDAKBggrBgEFBQcDAjALBgNVHQ8EBAMCB4AwDQYJKoZIhvcNAQEEBQADggIB
AOLUAP5h31QtWIdaMPST4I4EbsANLLM/QCk/febd3ZECFsTDPSQamHOu6mjPQysv
G7SsCwiKNEpq+lG4/2IAj9z/ABL+17JnhGPu9q8+inhFeSBDqZz6ivedH6WmEYkV
60ZJd+xNXMluCg5ufGEiW6V2/GFusZeE0Sce6oIj+wgMEfl5YOX10IUUT9t5E6BJ
FK8XQW89g5bFddfLX4lMgWxuNXq6qkBUa/AKopLiUY003piF5a1yVov9e6+HxZYd
8oXJANEPbeK6rEAZgS3aS0VowiI5j4S7m5YSrbZLmnyrZE3zvAcHl52Ak/a5bR7d
v7/Q8LgDaVd5edBsiUdLUqCZwGCbW4uu0wtlYSyH82uxaSJSGyPSR0rID4Ssrhgx
livXR/Ye0ZwrO5KigVd2JcXIHkmchpxFVws+TfsvXt86oEQaISOu5sb6e/bHNWWx
k+XdOZp8bNzThG5EVO5u67rPu6LpBR0FWyHqBugKv0SlAMYxlV9M2ej8ej5utmbk
APyYC1MLv0VjTBHzXwqZQnhMuaObS4e1IqmJgrX9dEHbjb/bGYQXTxo9MgH3cdDd
7GhF4RZCpMulnCvm6pi+CVLwafcfXRACSN3mdO3K33Zv+vVfcelVWslvQACJzyO9
r8fMoMUxN3cjpbu947bcnmKU/QudwvGZBsfCq1Jnc63L
-----END CERTIFICATE-----
