Certificate:
    Data:
        Version: 3 (0x2)
        Serial Number: 4633 (0x1219)
    Signature Algorithm: md5WithRSAEncryption
        Issuer: C=US, ST=OH, L=Columbus, O=VikingVPN, OU=MyOrganizationalUnit, CN=VikingVPN CA/name=EasyRSA/emailAddress=me@myhost.mydomain
        Validity
            Not Before: Mar  2 03:40:14 2015 GMT
            Not After : Feb 27 03:40:14 2025 GMT
        Subject: CN=Client1375Certca6fc3
        Subject Public Key Info:
            Public Key Algorithm: rsaEncryption
                Public-Key: (4096 bit)
                Modulus:
                    00:d9:0a:10:54:92:4d:34:50:17:f6:0a:da:22:04:
                    5b:73:7d:12:34:72:ed:7b:d5:99:20:24:19:78:54:
                    af:9f:7d:ef:5c:84:3d:0a:da:ee:7c:59:3c:b7:b9:
                    1c:41:4a:ea:44:14:25:44:df:e7:03:96:ce:d9:7d:
                    84:92:7b:15:a6:10:9d:24:6f:f2:7e:b0:0c:bb:22:
                    a1:5b:b2:e1:3a:63:ce:b6:c6:9f:20:9c:4a:21:8c:
                    ac:52:4a:3e:84:4e:95:ba:8e:6b:40:1e:75:e9:93:
                    07:45:b5:8a:30:cf:f1:ae:bb:75:6a:a5:a2:b7:74:
                    61:1c:67:56:11:40:7c:f3:59:81:bd:95:3e:19:e4:
                    4d:85:88:7c:0b:4c:99:c4:29:2d:61:7e:e2:68:b5:
                    be:c7:2e:49:ac:f3:63:f0:38:cf:da:b9:d3:49:a7:
                    5e:75:48:cc:4f:f6:68:df:35:fa:58:c7:f4:18:08:
                    e4:b7:5b:a1:72:82:04:f0:01:4f:5a:4b:f2:2b:26:
                    ac:54:2c:90:a4:34:73:b1:6f:98:ed:05:5d:3c:f8:
                    0a:fe:b7:8c:d6:ca:ef:bd:aa:35:b4:a8:89:f5:ba:
                    75:af:d1:29:cc:e5:c2:99:fd:96:e3:08:21:93:52:
                    e1:0b:4f:4a:da:4f:39:3a:26:09:36:84:1d:24:68:
                    53:49:c7:c0:f6:36:6f:67:62:20:92:cb:a0:6a:08:
                    1e:d1:c7:ed:30:f9:a0:55:9c:46:46:f2:ae:c0:c1:
                    2c:35:40:32:04:44:cc:a3:5b:14:1e:2a:10:b0:24:
                    c4:43:44:9e:47:15:ab:26:cd:c2:9d:0e:49:50:1d:
                    ef:32:c9:d4:7b:68:09:41:b9:63:af:65:92:7e:9a:
                    0e:08:16:0f:ff:03:4d:7f:52:3b:18:a2:57:02:b8:
                    b6:cd:99:b3:96:55:83:5f:74:9f:bb:36:5c:eb:1e:
                    4f:9a:a3:94:1e:4e:c6:ed:6b:ae:35:9a:f3:21:f5:
                    d3:ef:6c:cb:e3:06:e9:12:65:6f:4a:03:3a:43:7f:
                    a1:e4:bc:75:66:8c:78:27:ca:59:de:7c:13:9b:d2:
                    9d:e9:70:82:cf:c8:18:8a:74:4b:8a:82:7b:2e:29:
                    c8:ff:10:96:40:8e:28:75:22:b7:c6:8b:89:60:0c:
                    cd:2e:bf:d1:cf:6b:06:f8:31:94:55:2a:d6:ed:49:
                    ad:f8:65:29:fa:c0:5f:3d:25:cd:2c:19:e8:ac:13:
                    b8:52:20:39:a4:df:3b:f9:a3:f4:bc:21:28:92:79:
                    6d:86:71:87:e0:95:08:03:99:aa:6c:70:e2:cc:a7:
                    bf:41:d5:f9:11:b7:fc:96:f4:39:fc:dc:11:13:f2:
                    66:64:95
                Exponent: 65537 (0x10001)
        X509v3 extensions:
            X509v3 Basic Constraints: 
                CA:FALSE
            Netscape Comment: 
                Easy-RSA Generated Certificate
            X509v3 Subject Key Identifier: 
                97:4E:BF:24:10:B9:63:49:0D:5A:84:A1:89:F7:7B:81:6C:B2:0A:70
            X509v3 Authority Key Identifier: 
                keyid:12:CD:60:04:D2:A0:80:9E:70:ED:C6:99:B8:7B:2C:C6:52:FD:19:A1
                DirName:/C=US/ST=OH/L=Columbus/O=VikingVPN/OU=MyOrganizationalUnit/CN=VikingVPN CA/name=EasyRSA/emailAddress=me@myhost.mydomain
                serial:CF:35:85:EE:80:BF:2A:3E

            X509v3 Extended Key Usage: 
                TLS Web Client Authentication
            X509v3 Key Usage: 
                Digital Signature
    Signature Algorithm: md5WithRSAEncryption
         ad:09:4c:b2:91:b8:ea:31:72:b6:84:40:85:88:cc:01:9a:91:
         89:67:63:6e:21:56:00:37:60:18:ac:59:23:f7:be:ac:bb:8f:
         97:b7:c3:b7:d3:35:93:05:f9:3c:20:6b:f4:9c:b5:f4:a0:53:
         ac:76:c1:70:bd:75:40:37:d8:79:b7:5c:0b:cf:75:6b:46:d4:
         f4:03:9e:d2:6a:56:5b:e7:41:85:88:16:50:de:50:64:44:86:
         14:97:6e:94:9e:04:f5:db:5a:4f:4c:4c:75:c4:cb:10:95:8f:
         6c:d9:c0:bc:d8:05:05:ff:d2:19:f7:8e:7d:0e:46:6c:99:55:
         80:82:83:5c:78:a0:71:d9:4b:24:53:4c:a2:08:7e:e4:88:47:
         e2:58:74:88:96:43:c6:da:2f:a9:7b:6f:e9:22:bb:0b:eb:75:
         40:98:01:fb:d2:1b:41:db:0a:dc:10:54:fa:98:c8:5d:f4:49:
         f5:29:6d:69:ad:a5:7b:4a:64:8a:3c:fd:f6:6a:af:73:62:ea:
         e9:ac:24:40:d6:74:38:0d:32:55:d2:b9:83:5c:7f:55:c5:fc:
         ab:dd:1b:52:f0:65:52:33:56:66:2d:16:a9:5b:a1:e7:86:4d:
         5c:d1:be:c9:18:cd:3d:2c:4d:73:5a:92:bb:0c:0f:98:11:e1:
         32:79:31:34:7d:10:72:47:9c:9f:38:83:1e:e1:95:3a:7e:94:
         05:d8:df:73:f1:03:49:a3:17:ea:2b:99:c8:0a:18:a0:ee:48:
         3a:8a:61:d1:3b:00:27:5c:f6:8e:ab:76:68:1b:c5:b0:89:ec:
         8d:93:8b:e9:a8:73:1d:23:b9:96:d9:dc:6e:48:7f:fc:59:ad:
         50:9d:50:1f:6a:5c:ab:2c:32:d2:fe:71:fa:de:3a:f5:09:1b:
         59:d9:83:a1:f6:56:d0:d4:a8:8a:a3:5c:df:0a:20:cc:60:1d:
         9f:ba:05:51:b7:fe:8b:42:ca:7f:34:f9:69:54:90:a9:35:73:
         2d:4a:da:34:28:3e:24:cb:18:0b:d6:71:78:11:06:98:5d:02:
         4e:50:8a:1b:58:05:27:fb:dd:88:61:31:2f:97:1a:3a:f5:98:
         07:31:26:d6:a0:76:50:6c:70:9e:a1:cf:b9:cb:ae:cb:97:c1:
         95:4f:65:42:dd:24:94:8a:e8:d0:8e:b4:e5:e7:fa:02:5b:1a:
         bc:b9:c8:34:3e:08:06:63:ca:de:0d:67:e8:e4:6a:0c:45:0f:
         75:cf:90:0e:16:74:dd:15:49:7e:72:71:05:54:cc:ec:7a:3e:
         08:12:4d:fd:bd:d8:83:88:d0:e6:8b:da:8d:4a:da:02:8d:1a:
         0e:31:c8:11:20:ff:06:dd
-----BEGIN CERTIFICATE-----
MIIGrTCCBJWgAwIBAgICEhkwDQYJKoZIhvcNAQEEBQAwgawxCzAJBgNVBAYTAlVT
MQswCQYDVQQIEwJPSDERMA8GA1UEBxMIQ29sdW1idXMxEjAQBgNVBAoTCVZpa2lu
Z1ZQTjEdMBsGA1UECxMUTXlPcmdhbml6YXRpb25hbFVuaXQxFTATBgNVBAMTDFZp
a2luZ1ZQTiBDQTEQMA4GA1UEKRMHRWFzeVJTQTEhMB8GCSqGSIb3DQEJARYSbWVA
bXlob3N0Lm15ZG9tYWluMB4XDTE1MDMwMjAzNDAxNFoXDTI1MDIyNzAzNDAxNFow
HzEdMBsGA1UEAxMUQ2xpZW50MTM3NUNlcnRjYTZmYzMwggIiMA0GCSqGSIb3DQEB
AQUAA4ICDwAwggIKAoICAQDZChBUkk00UBf2CtoiBFtzfRI0cu171ZkgJBl4VK+f
fe9chD0K2u58WTy3uRxBSupEFCVE3+cDls7ZfYSSexWmEJ0kb/J+sAy7IqFbsuE6
Y862xp8gnEohjKxSSj6ETpW6jmtAHnXpkwdFtYowz/Guu3VqpaK3dGEcZ1YRQHzz
WYG9lT4Z5E2FiHwLTJnEKS1hfuJotb7HLkms82PwOM/audNJp151SMxP9mjfNfpY
x/QYCOS3W6FyggTwAU9aS/IrJqxULJCkNHOxb5jtBV08+Ar+t4zWyu+9qjW0qIn1
unWv0SnM5cKZ/ZbjCCGTUuELT0raTzk6Jgk2hB0kaFNJx8D2Nm9nYiCSy6BqCB7R
x+0w+aBVnEZG8q7AwSw1QDIERMyjWxQeKhCwJMRDRJ5HFasmzcKdDklQHe8yydR7
aAlBuWOvZZJ+mg4IFg//A01/UjsYolcCuLbNmbOWVYNfdJ+7NlzrHk+ao5QeTsbt
a641mvMh9dPvbMvjBukSZW9KAzpDf6HkvHVmjHgnylnefBOb0p3pcILPyBiKdEuK
gnsuKcj/EJZAjih1IrfGi4lgDM0uv9HPawb4MZRVKtbtSa34ZSn6wF89Jc0sGeis
E7hSIDmk3zv5o/S8ISiSeW2GcYfglQgDmapscOLMp79B1fkRt/yW9Dn83BET8mZk
lQIDAQABo4IBYzCCAV8wCQYDVR0TBAIwADAtBglghkgBhvhCAQ0EIBYeRWFzeS1S
U0EgR2VuZXJhdGVkIENlcnRpZmljYXRlMB0GA1UdDgQWBBSXTr8kELljSQ1ahKGJ
93uBbLIKcDCB4QYDVR0jBIHZMIHWgBQSzWAE0qCAnnDtxpm4eyzGUv0ZoaGBsqSB
rzCBrDELMAkGA1UEBhMCVVMxCzAJBgNVBAgTAk9IMREwDwYDVQQHEwhDb2x1bWJ1
czESMBAGA1UEChMJVmlraW5nVlBOMR0wGwYDVQQLExRNeU9yZ2FuaXphdGlvbmFs
VW5pdDEVMBMGA1UEAxMMVmlraW5nVlBOIENBMRAwDgYDVQQpEwdFYXN5UlNBMSEw
HwYJKoZIhvcNAQkBFhJtZUBteWhvc3QubXlkb21haW6CCQDPNYXugL8qPjATBgNV
HSUEDDAKBggrBgEFBQcDAjALBgNVHQ8EBAMCB4AwDQYJKoZIhvcNAQEEBQADggIB
AK0JTLKRuOoxcraEQIWIzAGakYlnY24hVgA3YBisWSP3vqy7j5e3w7fTNZMF+Twg
a/SctfSgU6x2wXC9dUA32Hm3XAvPdWtG1PQDntJqVlvnQYWIFlDeUGREhhSXbpSe
BPXbWk9MTHXEyxCVj2zZwLzYBQX/0hn3jn0ORmyZVYCCg1x4oHHZSyRTTKIIfuSI
R+JYdIiWQ8baL6l7b+kiuwvrdUCYAfvSG0HbCtwQVPqYyF30SfUpbWmtpXtKZIo8
/fZqr3Ni6umsJEDWdDgNMlXSuYNcf1XF/KvdG1LwZVIzVmYtFqlboeeGTVzRvskY
zT0sTXNakrsMD5gR4TJ5MTR9EHJHnJ84gx7hlTp+lAXY33PxA0mjF+ormcgKGKDu
SDqKYdE7ACdc9o6rdmgbxbCJ7I2Ti+mocx0juZbZ3G5If/xZrVCdUB9qXKssMtL+
cfreOvUJG1nZg6H2VtDUqIqjXN8KIMxgHZ+6BVG3/otCyn80+WlUkKk1cy1K2jQo
PiTLGAvWcXgRBphdAk5QihtYBSf73YhhMS+XGjr1mAcxJtagdlBscJ6hz7nLrsuX
wZVPZULdJJSK6NCOtOXn+gJbGry5yDQ+CAZjyt4NZ+jkagxFD3XPkA4WdN0VSX5y
cQVUzOx6PggSTf292IOI0OaL2o1K2gKNGg4xyBEg/wbd
-----END CERTIFICATE-----
