Certificate:
    Data:
        Version: 3 (0x2)
        Serial Number: 11583 (0x2d3f)
    Signature Algorithm: sha256WithRSAEncryption
        Issuer: C=US, ST=OH, L=Columbus, O=VikingVPN, OU=MyOrganizationalUnit, CN=VikingVPN CA/name=EasyRSA/emailAddress=me@myhost.mydomain
        Validity
            Not Before: Aug 19 02:53:56 2017 GMT
            Not After : Aug 17 02:53:56 2027 GMT
        Subject: CN=Client3042Cert56599b
        Subject Public Key Info:
            Public Key Algorithm: rsaEncryption
                Public-Key: (4096 bit)
                Modulus:
                    00:d8:2a:04:b6:35:ab:89:49:0e:d0:19:6c:45:70:
                    dc:75:31:ce:37:b3:4d:85:0e:30:23:c8:09:07:65:
                    50:b6:7c:67:06:bb:d5:55:49:a2:4d:51:dd:cd:ad:
                    64:d1:84:60:10:37:80:82:cb:9d:dc:d1:bc:17:bf:
                    20:6a:2f:59:e4:a1:78:5e:c6:a2:80:97:55:f9:f3:
                    29:ad:7e:cf:2c:c3:53:99:83:ac:eb:19:78:b4:45:
                    f2:55:2c:72:bc:3d:38:5a:11:c5:13:fe:69:26:02:
                    9f:1e:ea:c2:66:9a:fe:e0:57:fe:36:c4:74:0b:7c:
                    b2:21:6d:5f:6e:13:bf:53:9b:f6:ca:60:53:f9:51:
                    bc:24:ab:bb:5f:59:9c:2c:b8:f1:05:00:cb:16:93:
                    80:f8:86:f0:d9:cd:a9:ac:86:77:f2:2e:27:35:92:
                    8a:3a:aa:7d:df:de:b3:c6:74:d5:a4:52:32:72:d6:
                    b7:df:6d:ec:5e:83:3e:86:b9:70:4f:2c:35:ac:41:
                    7c:c0:52:08:14:8e:08:a4:08:64:17:d8:0f:2f:28:
                    0e:e1:32:3b:34:b1:93:45:cb:78:48:22:d6:d4:27:
                    fd:ee:eb:a3:00:b9:b3:21:de:7a:b3:68:37:62:b0:
                    3b:e5:ca:62:90:40:e7:e1:dc:c4:a0:3d:1f:4f:43:
                    06:14:c5:f3:00:a7:59:b0:8a:f7:35:01:f0:62:c7:
                    a8:4d:27:bf:75:93:60:6f:71:45:78:71:87:d5:40:
                    e9:7e:a1:ad:48:a7:dc:21:f3:82:98:85:c1:5c:84:
                    48:d1:54:97:09:cb:94:39:7e:91:35:25:4e:20:11:
                    ae:ab:8d:07:dd:cc:bd:65:47:15:28:d2:91:27:59:
                    e3:0c:31:ec:09:e5:6e:88:e9:45:19:47:01:da:08:
                    fb:0e:a8:88:7e:0c:45:a3:9a:8c:e2:f2:4d:f1:9a:
                    8c:f8:d1:1a:55:27:53:2a:ad:8d:0e:49:88:b1:c5:
                    1e:ce:6d:b4:fc:31:6c:2e:ee:9f:d8:a0:00:17:e9:
                    3f:51:ab:a8:23:9f:fb:98:28:e3:09:48:46:9e:19:
                    69:26:d9:3a:6a:0a:11:52:07:1a:56:06:66:e0:8f:
                    90:66:b6:d5:1b:cf:a5:fb:e4:9d:7b:cd:6f:6e:f5:
                    f4:78:be:39:75:a2:23:15:7a:63:c1:47:19:29:3f:
                    4e:8a:95:52:cc:34:f3:7c:8d:b8:f2:5c:2a:db:63:
                    01:8a:1a:35:8b:8d:a0:03:74:92:af:4d:2e:ec:d0:
                    21:07:52:0c:43:ba:70:0d:65:31:17:67:36:d0:d4:
                    03:6b:a5:e8:fb:bc:16:bb:a2:f5:7f:c4:03:b3:81:
                    c9:2f:f7
                Exponent: 65537 (0x10001)
        X509v3 extensions:
            X509v3 Basic Constraints: 
                CA:FALSE
            Netscape Comment: 
                Easy-RSA Generated Certificate
            X509v3 Subject Key Identifier: 
                44:BE:CD:D2:37:DD:4E:CE:7E:45:6F:3B:EC:4D:14:9C:07:2A:24:EE
            X509v3 Authority Key Identifier: 
                keyid:12:CD:60:04:D2:A0:80:9E:70:ED:C6:99:B8:7B:2C:C6:52:FD:19:A1
                DirName:/C=US/ST=OH/L=Columbus/O=VikingVPN/OU=MyOrganizationalUnit/CN=VikingVPN CA/name=EasyRSA/emailAddress=me@myhost.mydomain
                serial:CF:35:85:EE:80:BF:2A:3E

            X509v3 Extended Key Usage: 
                TLS Web Client Authentication
            X509v3 Key Usage: 
                Digital Signature
    Signature Algorithm: sha256WithRSAEncryption
         8c:6a:2a:d6:54:96:71:c2:a6:ec:1f:e3:ae:cc:23:2c:b3:03:
         11:aa:bc:cc:db:07:c7:07:0c:c9:52:8b:08:d6:cd:95:81:29:
         bc:db:63:3e:a9:66:c5:e6:75:f3:66:28:41:fb:50:be:44:e2:
         ff:f1:ca:8b:dc:ae:e4:a8:69:64:3a:b4:46:f4:ac:94:d9:08:
         9e:0b:03:c0:a4:f0:8a:2c:89:5c:a4:ea:5c:fa:3d:6d:6e:dc:
         dd:6a:a5:13:1d:bb:48:71:a4:95:1d:43:ac:d4:a6:85:79:6d:
         c2:b5:68:d9:58:f2:57:21:a7:d0:d7:2e:4f:20:8f:1b:39:a7:
         7f:94:65:34:a4:2c:ac:6f:55:92:f8:30:60:9a:6e:df:d0:56:
         02:d8:89:c5:0f:75:0d:72:8b:dd:e5:aa:40:35:01:02:c7:b2:
         14:44:01:c5:4a:a6:64:15:29:91:5e:59:52:78:a7:57:2f:4c:
         05:69:3b:2d:ad:5f:e2:f1:a0:03:4f:b0:95:9c:65:ff:eb:10:
         20:d5:89:c6:84:32:97:66:2b:8e:7c:24:d6:98:81:db:d1:79:
         f9:ab:2c:e7:c0:61:b9:8b:4c:b6:d8:12:33:7b:f6:02:0f:9e:
         22:15:d4:37:5f:4f:f8:94:eb:a0:24:aa:2e:00:9b:ed:fb:05:
         d9:49:11:47:ec:fa:ff:2d:c8:ce:2c:59:eb:24:a0:1e:52:41:
         34:8d:32:35:ba:d6:4e:95:a3:64:af:4a:2f:b6:7a:d5:f6:1c:
         9b:0f:58:58:80:49:15:44:60:7e:20:d4:a3:fd:04:af:4b:02:
         5a:b7:79:a6:fa:c1:ab:72:7e:bd:e8:5c:cf:98:e2:a4:c8:92:
         1c:22:f6:5e:fa:df:39:37:47:3f:18:a3:1b:46:93:d7:d0:57:
         3c:45:2a:6d:1d:00:35:6e:ef:68:40:e0:0f:e8:fc:66:f7:d4:
         dc:af:16:44:c7:f0:81:e2:d8:38:b7:a8:bd:1b:6a:82:d1:78:
         85:e8:02:01:dd:5e:70:32:f1:73:e7:5c:e0:b3:fb:6e:a0:35:
         84:69:41:a1:2d:84:43:85:68:c0:47:39:ba:31:39:20:22:be:
         2a:df:cf:ae:6d:d7:56:81:c1:8b:80:57:47:70:40:29:c8:98:
         5e:89:1c:a6:01:0f:07:db:75:1f:78:88:67:7d:f1:70:8c:22:
         d7:dd:54:11:f9:ea:23:ea:ff:a5:92:3d:39:3f:07:2d:83:c0:
         18:e4:a0:b4:9e:94:33:90:4c:b6:90:59:f4:2e:0f:c3:99:6a:
         9f:a9:7a:62:81:e7:a4:a1:95:98:25:7d:ce:09:c8:e5:82:8f:
         20:87:ca:80:ef:ac:f9:16
-----BEGIN CERTIFICATE-----
MIIGrTCCBJWgAwIBAgICLT8wDQYJKoZIhvcNAQELBQAwgawxCzAJBgNVBAYTAlVT
MQswCQYDVQQIEwJPSDERMA8GA1UEBxMIQ29sdW1idXMxEjAQBgNVBAoTCVZpa2lu
Z1ZQTjEdMBsGA1UECxMUTXlPcmdhbml6YXRpb25hbFVuaXQxFTATBgNVBAMTDFZp
a2luZ1ZQTiBDQTEQMA4GA1UEKRMHRWFzeVJTQTEhMB8GCSqGSIb3DQEJARYSbWVA
bXlob3N0Lm15ZG9tYWluMB4XDTE3MDgxOTAyNTM1NloXDTI3MDgxNzAyNTM1Nlow
HzEdMBsGA1UEAxMUQ2xpZW50MzA0MkNlcnQ1NjU5OWIwggIiMA0GCSqGSIb3DQEB
AQUAA4ICDwAwggIKAoICAQDYKgS2NauJSQ7QGWxFcNx1Mc43s02FDjAjyAkHZVC2
fGcGu9VVSaJNUd3NrWTRhGAQN4CCy53c0bwXvyBqL1nkoXhexqKAl1X58ymtfs8s
w1OZg6zrGXi0RfJVLHK8PThaEcUT/mkmAp8e6sJmmv7gV/42xHQLfLIhbV9uE79T
m/bKYFP5Ubwkq7tfWZwsuPEFAMsWk4D4hvDZzamshnfyLic1koo6qn3f3rPGdNWk
UjJy1rffbexegz6GuXBPLDWsQXzAUggUjgikCGQX2A8vKA7hMjs0sZNFy3hIItbU
J/3u66MAubMh3nqzaDdisDvlymKQQOfh3MSgPR9PQwYUxfMAp1mwivc1AfBix6hN
J791k2BvcUV4cYfVQOl+oa1Ip9wh84KYhcFchEjRVJcJy5Q5fpE1JU4gEa6rjQfd
zL1lRxUo0pEnWeMMMewJ5W6I6UUZRwHaCPsOqIh+DEWjmozi8k3xmoz40RpVJ1Mq
rY0OSYixxR7ObbT8MWwu7p/YoAAX6T9Rq6gjn/uYKOMJSEaeGWkm2TpqChFSBxpW
Bmbgj5BmttUbz6X75J17zW9u9fR4vjl1oiMVemPBRxkpP06KlVLMNPN8jbjyXCrb
YwGKGjWLjaADdJKvTS7s0CEHUgxDunANZTEXZzbQ1ANrpej7vBa7ovV/xAOzgckv
9wIDAQABo4IBYzCCAV8wCQYDVR0TBAIwADAtBglghkgBhvhCAQ0EIBYeRWFzeS1S
U0EgR2VuZXJhdGVkIENlcnRpZmljYXRlMB0GA1UdDgQWBBREvs3SN91Ozn5Fbzvs
TRScByok7jCB4QYDVR0jBIHZMIHWgBQSzWAE0qCAnnDtxpm4eyzGUv0ZoaGBsqSB
rzCBrDELMAkGA1UEBhMCVVMxCzAJBgNVBAgTAk9IMREwDwYDVQQHEwhDb2x1bWJ1
czESMBAGA1UEChMJVmlraW5nVlBOMR0wGwYDVQQLExRNeU9yZ2FuaXphdGlvbmFs
VW5pdDEVMBMGA1UEAxMMVmlraW5nVlBOIENBMRAwDgYDVQQpEwdFYXN5UlNBMSEw
HwYJKoZIhvcNAQkBFhJtZUBteWhvc3QubXlkb21haW6CCQDPNYXugL8qPjATBgNV
HSUEDDAKBggrBgEFBQcDAjALBgNVHQ8EBAMCB4AwDQYJKoZIhvcNAQELBQADggIB
AIxqKtZUlnHCpuwf467MIyyzAxGqvMzbB8cHDMlSiwjWzZWBKbzbYz6pZsXmdfNm
KEH7UL5E4v/xyovcruSoaWQ6tEb0rJTZCJ4LA8Ck8IosiVyk6lz6PW1u3N1qpRMd
u0hxpJUdQ6zUpoV5bcK1aNlY8lchp9DXLk8gjxs5p3+UZTSkLKxvVZL4MGCabt/Q
VgLYicUPdQ1yi93lqkA1AQLHshREAcVKpmQVKZFeWVJ4p1cvTAVpOy2tX+LxoANP
sJWcZf/rECDVicaEMpdmK458JNaYgdvRefmrLOfAYbmLTLbYEjN79gIPniIV1Ddf
T/iU66Akqi4Am+37BdlJEUfs+v8tyM4sWeskoB5SQTSNMjW61k6Vo2SvSi+2etX2
HJsPWFiASRVEYH4g1KP9BK9LAlq3eab6watyfr3oXM+Y4qTIkhwi9l763zk3Rz8Y
oxtGk9fQVzxFKm0dADVu72hA4A/o/Gb31NyvFkTH8IHi2Di3qL0baoLReIXoAgHd
XnAy8XPnXOCz+26gNYRpQaEthEOFaMBHOboxOSAivirfz65t11aBwYuAV0dwQCnI
mF6JHKYBDwfbdR94iGd98XCMItfdVBH56iPq/6WSPTk/By2DwBjkoLSelDOQTLaQ
WfQuD8OZap+pemKB56ShlZglfc4JyOWCjyCHyoDvrPkW
-----END CERTIFICATE-----
