Certificate:
    Data:
        Version: 3 (0x2)
        Serial Number: 6739 (0x1a53)
    Signature Algorithm: md5WithRSAEncryption
        Issuer: C=US, ST=OH, L=Columbus, O=VikingVPN, OU=MyOrganizationalUnit, CN=VikingVPN CA/name=EasyRSA/emailAddress=me@myhost.mydomain
        Validity
            Not Before: Nov 24 21:16:50 2015 GMT
            Not After : Nov 21 21:16:50 2025 GMT
        Subject: CN=Client1943Certcc3cb8
        Subject Public Key Info:
            Public Key Algorithm: rsaEncryption
                Public-Key: (4096 bit)
                Modulus:
                    00:df:15:17:28:a5:93:cd:2a:9a:23:fe:f2:7e:f7:
                    bb:1e:6d:e8:c7:5c:49:7d:c6:7e:75:8a:21:60:3d:
                    48:d0:81:5e:22:36:20:11:3e:10:fb:85:77:7e:6a:
                    a8:4b:5b:8b:cb:cc:2e:cf:7b:7a:14:c9:c7:76:e5:
                    56:09:a0:ee:7b:21:8d:7e:bf:a2:95:3b:2e:02:9f:
                    c8:64:9a:fa:2c:7e:68:2b:74:a2:be:05:d5:b7:e2:
                    c1:93:14:14:8b:8a:b5:95:13:69:67:af:33:8d:04:
                    b3:c3:cc:8f:a1:98:c6:b8:96:dc:af:6b:da:4e:0c:
                    d6:85:e2:60:60:7c:61:f8:c9:06:da:3d:64:9d:0b:
                    e8:b9:69:fc:99:84:c1:bd:09:2d:69:ee:3e:89:a2:
                    85:41:6e:95:27:84:4b:34:80:1d:67:c6:7d:11:59:
                    32:45:ef:44:4b:fa:95:43:36:fb:7d:e7:a7:20:71:
                    ee:a8:57:08:34:50:92:d5:9d:d1:6d:4f:10:27:78:
                    87:8c:58:ef:a5:08:13:a5:85:ff:35:b9:15:7c:05:
                    4b:a1:b3:cf:d1:20:e1:8f:df:ab:db:c1:2d:cc:a3:
                    d4:c6:97:41:47:4b:4e:f5:ec:b6:7c:a2:69:36:7b:
                    ad:d7:c6:b3:7a:4c:55:b6:3f:db:1b:43:b8:1a:87:
                    79:0d:b4:b2:47:4a:91:07:29:13:b3:4f:f8:78:a2:
                    fe:0a:03:50:8b:36:ec:e5:18:59:6b:ef:93:c1:2d:
                    f9:a0:40:50:7b:f5:d6:e6:b4:98:2c:f0:3c:48:17:
                    dc:7b:3a:33:8f:18:52:de:d9:d5:f3:95:84:d2:b6:
                    6b:8e:e5:f6:7f:53:76:c5:14:57:12:3b:25:86:86:
                    10:b4:0f:2e:d9:b4:ca:82:8c:51:43:9b:62:7a:34:
                    c6:c1:48:12:1a:8e:74:61:d5:57:a0:1c:6c:73:ff:
                    9e:e9:a4:55:82:68:3b:fb:24:59:f0:9c:f4:1f:bd:
                    ac:de:56:83:81:93:04:5c:16:3e:39:a1:e5:1d:cc:
                    e1:b4:b7:ce:dc:b1:85:4e:5f:d0:a9:0f:8d:11:10:
                    a9:09:1b:7f:ba:82:0a:2d:a7:86:e9:6a:5b:d6:4b:
                    9f:19:c7:c9:61:72:5f:23:3d:0b:45:80:17:1e:0f:
                    fb:98:35:3a:7f:24:35:f7:f7:51:5f:23:b8:0b:73:
                    52:6e:ad:d6:f2:5e:36:4c:f9:a3:fa:1b:3a:d2:c1:
                    aa:e6:6e:0c:d3:7e:33:16:88:41:20:8b:28:d9:d4:
                    7a:5f:c8:74:e8:58:10:75:51:f2:ed:3a:f5:8d:74:
                    f8:2f:96:2d:94:81:c9:a8:3e:2b:41:51:ac:4e:60:
                    10:7d:13
                Exponent: 65537 (0x10001)
        X509v3 extensions:
            X509v3 Basic Constraints: 
                CA:FALSE
            Netscape Comment: 
                Easy-RSA Generated Certificate
            X509v3 Subject Key Identifier: 
                72:54:49:E6:5C:5F:D8:4C:D0:AC:7E:51:E7:AD:AA:2B:50:7A:F5:CD
            X509v3 Authority Key Identifier: 
                keyid:12:CD:60:04:D2:A0:80:9E:70:ED:C6:99:B8:7B:2C:C6:52:FD:19:A1
                DirName:/C=US/ST=OH/L=Columbus/O=VikingVPN/OU=MyOrganizationalUnit/CN=VikingVPN CA/name=EasyRSA/emailAddress=me@myhost.mydomain
                serial:CF:35:85:EE:80:BF:2A:3E

            X509v3 Extended Key Usage: 
                TLS Web Client Authentication
            X509v3 Key Usage: 
                Digital Signature
    Signature Algorithm: md5WithRSAEncryption
         7c:b7:d1:14:b1:79:0c:65:42:06:b8:af:44:e7:08:5d:17:a5:
         89:e3:74:4c:43:fe:a7:b8:24:41:5f:59:77:fa:1c:fb:d7:42:
         89:41:b2:70:e6:61:c4:1f:c6:e5:c1:44:2d:23:0b:86:c1:4e:
         21:f5:96:06:0d:74:61:7b:d6:35:a0:31:e3:a6:63:b9:2d:ee:
         31:cf:11:bc:ef:82:f5:7d:7c:39:b6:ee:e0:11:69:67:5e:8d:
         ea:77:14:41:0d:b0:72:87:c8:5a:70:5c:53:27:f9:94:a3:d4:
         25:dd:6e:54:f2:8d:7c:74:da:77:99:eb:a5:81:b6:49:41:71:
         60:20:53:17:d6:84:9b:77:c1:8f:6e:d2:f8:e9:1c:d8:15:37:
         34:3e:cf:b9:49:4e:31:1f:7c:9c:d5:21:c9:56:ea:47:e5:31:
         41:82:a4:73:ae:db:7a:cc:63:d4:da:f3:6c:0f:69:cd:7d:de:
         de:35:8d:bc:72:12:cb:51:18:6e:6b:70:c7:21:00:92:a0:8d:
         5f:e0:79:3d:97:8a:cb:1c:64:36:34:fe:f5:a6:ab:58:7d:4a:
         6b:62:35:1f:c6:1d:d4:6d:67:a4:a5:cf:0d:20:c4:cd:28:f4:
         d5:c4:42:26:c1:60:c8:1d:5d:25:ed:51:ee:a0:1d:d6:c2:af:
         93:89:eb:84:25:e9:df:40:35:22:73:7c:95:3b:3d:bc:16:9e:
         62:37:4d:10:06:aa:bd:4c:87:1b:54:16:12:49:fa:84:76:14:
         e0:b1:9b:dc:b2:5a:7c:48:38:a7:d2:a2:f3:9d:41:38:42:47:
         69:ff:53:3e:79:30:24:d0:d1:a2:1b:a7:f7:58:e7:2f:1d:42:
         46:f0:04:f6:65:a0:29:e8:fc:61:e6:b4:54:ac:64:8c:64:86:
         f1:51:a1:b6:96:73:76:79:87:a3:f2:38:ed:fc:67:bf:5d:8d:
         6a:fe:33:d5:12:09:da:da:41:82:30:b6:31:97:8a:f5:34:5f:
         5d:a9:7f:e1:0d:69:88:94:b9:37:12:2a:f0:b9:ee:85:75:45:
         8a:1d:13:55:75:93:57:25:b7:e9:46:98:9e:72:63:64:08:5f:
         98:74:02:3f:0e:51:56:d8:62:21:fd:00:41:84:fa:cd:b9:b2:
         df:f7:6d:bd:58:4f:8e:82:26:15:42:9f:15:c5:ed:2a:21:a7:
         9e:d7:9e:22:41:6d:18:48:77:e9:56:91:81:a4:06:88:c0:6c:
         d6:22:fd:6b:a4:5d:ab:85:78:cb:e7:4c:54:cd:6a:7d:6d:1d:
         95:1b:8b:8f:f0:82:5d:8f:6d:a4:c9:60:38:6a:be:7a:dd:02:
         35:e1:e1:bc:e0:72:e4:d1
-----BEGIN CERTIFICATE-----
MIIGrTCCBJWgAwIBAgICGlMwDQYJKoZIhvcNAQEEBQAwgawxCzAJBgNVBAYTAlVT
MQswCQYDVQQIEwJPSDERMA8GA1UEBxMIQ29sdW1idXMxEjAQBgNVBAoTCVZpa2lu
Z1ZQTjEdMBsGA1UECxMUTXlPcmdhbml6YXRpb25hbFVuaXQxFTATBgNVBAMTDFZp
a2luZ1ZQTiBDQTEQMA4GA1UEKRMHRWFzeVJTQTEhMB8GCSqGSIb3DQEJARYSbWVA
bXlob3N0Lm15ZG9tYWluMB4XDTE1MTEyNDIxMTY1MFoXDTI1MTEyMTIxMTY1MFow
HzEdMBsGA1UEAxMUQ2xpZW50MTk0M0NlcnRjYzNjYjgwggIiMA0GCSqGSIb3DQEB
AQUAA4ICDwAwggIKAoICAQDfFRcopZPNKpoj/vJ+97sebejHXEl9xn51iiFgPUjQ
gV4iNiARPhD7hXd+aqhLW4vLzC7Pe3oUycd25VYJoO57IY1+v6KVOy4Cn8hkmvos
fmgrdKK+BdW34sGTFBSLirWVE2lnrzONBLPDzI+hmMa4ltyva9pODNaF4mBgfGH4
yQbaPWSdC+i5afyZhMG9CS1p7j6JooVBbpUnhEs0gB1nxn0RWTJF70RL+pVDNvt9
56cgce6oVwg0UJLVndFtTxAneIeMWO+lCBOlhf81uRV8BUuhs8/RIOGP36vbwS3M
o9TGl0FHS0717LZ8omk2e63XxrN6TFW2P9sbQ7gah3kNtLJHSpEHKROzT/h4ov4K
A1CLNuzlGFlr75PBLfmgQFB79dbmtJgs8DxIF9x7OjOPGFLe2dXzlYTStmuO5fZ/
U3bFFFcSOyWGhhC0Dy7ZtMqCjFFDm2J6NMbBSBIajnRh1VegHGxz/57ppFWCaDv7
JFnwnPQfvazeVoOBkwRcFj45oeUdzOG0t87csYVOX9CpD40REKkJG3+6ggotp4bp
alvWS58Zx8lhcl8jPQtFgBceD/uYNTp/JDX391FfI7gLc1JurdbyXjZM+aP6GzrS
warmbgzTfjMWiEEgiyjZ1HpfyHToWBB1UfLtOvWNdPgvli2UgcmoPitBUaxOYBB9
EwIDAQABo4IBYzCCAV8wCQYDVR0TBAIwADAtBglghkgBhvhCAQ0EIBYeRWFzeS1S
U0EgR2VuZXJhdGVkIENlcnRpZmljYXRlMB0GA1UdDgQWBBRyVEnmXF/YTNCsflHn
raorUHr1zTCB4QYDVR0jBIHZMIHWgBQSzWAE0qCAnnDtxpm4eyzGUv0ZoaGBsqSB
rzCBrDELMAkGA1UEBhMCVVMxCzAJBgNVBAgTAk9IMREwDwYDVQQHEwhDb2x1bWJ1
czESMBAGA1UEChMJVmlraW5nVlBOMR0wGwYDVQQLExRNeU9yZ2FuaXphdGlvbmFs
VW5pdDEVMBMGA1UEAxMMVmlraW5nVlBOIENBMRAwDgYDVQQpEwdFYXN5UlNBMSEw
HwYJKoZIhvcNAQkBFhJtZUBteWhvc3QubXlkb21haW6CCQDPNYXugL8qPjATBgNV
HSUEDDAKBggrBgEFBQcDAjALBgNVHQ8EBAMCB4AwDQYJKoZIhvcNAQEEBQADggIB
AHy30RSxeQxlQga4r0TnCF0XpYnjdExD/qe4JEFfWXf6HPvXQolBsnDmYcQfxuXB
RC0jC4bBTiH1lgYNdGF71jWgMeOmY7kt7jHPEbzvgvV9fDm27uARaWdejep3FEEN
sHKHyFpwXFMn+ZSj1CXdblTyjXx02neZ66WBtklBcWAgUxfWhJt3wY9u0vjpHNgV
NzQ+z7lJTjEffJzVIclW6kflMUGCpHOu23rMY9Ta82wPac193t41jbxyEstRGG5r
cMchAJKgjV/geT2XisscZDY0/vWmq1h9SmtiNR/GHdRtZ6Slzw0gxM0o9NXEQibB
YMgdXSXtUe6gHdbCr5OJ64Ql6d9ANSJzfJU7PbwWnmI3TRAGqr1MhxtUFhJJ+oR2
FOCxm9yyWnxIOKfSovOdQThCR2n/Uz55MCTQ0aIbp/dY5y8dQkbwBPZloCno/GHm
tFSsZIxkhvFRobaWc3Z5h6PyOO38Z79djWr+M9USCdraQYIwtjGXivU0X12pf+EN
aYiUuTcSKvC57oV1RYodE1V1k1clt+lGmJ5yY2QIX5h0Aj8OUVbYYiH9AEGE+s25
st/3bb1YT46CJhVCnxXF7Sohp57XniJBbRhId+lWkYGkBojAbNYi/WukXauFeMvn
TFTNan1tHZUbi4/wgl2PbaTJYDhqvnrdAjXh4bzgcuTR
-----END CERTIFICATE-----
