Certificate:
    Data:
        Version: 3 (0x2)
        Serial Number: 7803 (0x1e7b)
    Signature Algorithm: md5WithRSAEncryption
        Issuer: C=US, ST=OH, L=Columbus, O=VikingVPN, OU=MyOrganizationalUnit, CN=VikingVPN CA/name=EasyRSA/emailAddress=me@myhost.mydomain
        Validity
            Not Before: Apr 20 20:38:07 2016 GMT
            Not After : Apr 18 20:38:07 2026 GMT
        Subject: CN=Client361Certe939a1
        Subject Public Key Info:
            Public Key Algorithm: rsaEncryption
                Public-Key: (4096 bit)
                Modulus:
                    00:c3:91:21:1b:19:a7:3a:9a:e4:aa:03:6b:20:29:
                    d3:25:c8:38:d0:41:c5:ea:ea:bc:47:32:a0:7e:f8:
                    f4:40:14:d4:a3:bb:44:4f:c0:f5:19:7f:15:e2:93:
                    b3:e1:aa:76:8b:ee:1c:a2:7a:bc:53:cf:24:6b:23:
                    6f:17:2b:b0:56:98:ac:b0:8f:93:d2:d7:f9:0b:dc:
                    27:a5:72:f2:a6:a2:1a:7b:b1:66:b8:d0:ff:18:56:
                    01:2a:fe:1f:56:58:e4:d2:db:0b:6f:05:de:88:ab:
                    d0:a2:91:11:98:3b:f9:17:7d:08:6c:db:ea:df:79:
                    94:f5:e5:d9:03:b5:4b:4b:1d:6d:ae:f1:0f:fc:81:
                    3b:ba:86:11:8e:13:2b:6b:4d:7a:77:d2:17:31:e4:
                    64:f2:4f:a9:a2:35:8d:86:49:5d:62:d0:7e:48:15:
                    fe:92:b0:9f:ce:3f:a5:8d:5f:77:bd:2e:fa:a8:5f:
                    a6:6d:cc:08:59:23:ee:5a:85:d6:1b:c4:11:4c:77:
                    ba:a6:fa:83:66:a8:ab:c3:a4:79:e9:ea:64:f0:7a:
                    8a:aa:5f:ed:d3:5f:10:11:de:e7:07:e4:6b:72:b5:
                    3b:55:ff:14:45:35:a8:21:53:31:a4:f7:c7:3b:2b:
                    32:a8:e6:2a:51:54:5e:15:2c:db:05:5d:03:8c:0f:
                    7a:26:0a:2b:75:65:c3:91:89:58:2c:37:60:e0:81:
                    dd:fe:3f:3d:9e:dd:c8:e1:9d:0e:a7:3c:8b:fe:4e:
                    1a:a5:16:78:ac:32:86:0e:ab:5a:ce:2f:07:fc:bd:
                    ed:bb:a2:e7:fa:c3:82:6d:56:66:21:83:d6:d1:02:
                    df:c1:51:75:f0:fd:2b:66:93:23:8c:92:a2:d9:98:
                    b5:79:d5:b7:c4:80:af:a1:41:77:7f:58:e7:ca:33:
                    67:21:d9:35:63:ef:6d:04:78:7f:b9:99:37:9b:c5:
                    a0:8c:2b:bc:ad:fa:23:4b:43:53:07:88:fd:85:b7:
                    f7:84:02:4a:2c:68:f6:a5:9e:d1:b7:67:fa:00:78:
                    5e:2c:0e:69:40:6e:fe:f4:f8:e0:c5:b5:8e:52:f1:
                    e5:89:60:36:1c:d9:da:3d:d8:f5:d4:27:9b:04:ee:
                    b4:a8:33:d2:5f:f4:a9:dc:e7:c7:92:81:14:d5:6b:
                    fa:89:c8:bc:59:54:30:4d:f2:52:cd:c3:23:cb:36:
                    dd:3f:66:e5:b1:29:30:6c:0d:2b:ea:31:f5:70:71:
                    78:2f:a8:d9:4d:74:3a:e5:17:01:37:82:ee:46:cc:
                    ef:9a:04:92:9a:94:81:90:47:76:25:15:aa:5a:a2:
                    e6:e7:ef:52:61:ab:00:2b:af:e5:8a:28:ff:43:20:
                    a3:68:07
                Exponent: 65537 (0x10001)
        X509v3 extensions:
            X509v3 Basic Constraints: 
                CA:FALSE
            Netscape Comment: 
                Easy-RSA Generated Certificate
            X509v3 Subject Key Identifier: 
                9E:A0:87:D4:A7:95:AD:8C:AE:D0:85:45:64:22:B1:12:BA:77:82:62
            X509v3 Authority Key Identifier: 
                keyid:12:CD:60:04:D2:A0:80:9E:70:ED:C6:99:B8:7B:2C:C6:52:FD:19:A1
                DirName:/C=US/ST=OH/L=Columbus/O=VikingVPN/OU=MyOrganizationalUnit/CN=VikingVPN CA/name=EasyRSA/emailAddress=me@myhost.mydomain
                serial:CF:35:85:EE:80:BF:2A:3E

            X509v3 Extended Key Usage: 
                TLS Web Client Authentication
            X509v3 Key Usage: 
                Digital Signature
    Signature Algorithm: md5WithRSAEncryption
         c6:e8:37:78:f3:e5:6e:c6:ff:31:77:d5:ea:83:39:d3:f3:af:
         65:d5:37:c6:44:c1:be:49:ea:04:0c:98:8b:32:77:5b:ba:93:
         2c:2f:02:01:e1:6e:1f:7d:54:45:18:41:39:05:f0:ae:81:86:
         23:43:92:76:93:a7:e4:fe:4c:44:ca:57:88:b8:a1:12:2f:5a:
         5d:c6:a9:ac:2b:76:45:a2:64:0a:7f:9f:b1:f7:01:90:b8:2b:
         45:e7:a7:f1:56:c1:44:c3:89:8d:e8:98:33:ae:03:da:cd:3b:
         69:52:7f:a1:0d:32:3c:d4:1b:7c:27:21:f6:a3:e2:2c:3b:a1:
         99:41:bc:bd:ec:a7:88:8a:2a:53:02:76:21:a8:f7:01:4b:d3:
         81:e8:fc:5f:0a:1c:3a:bc:cc:fa:a7:15:c7:68:af:88:1e:6b:
         2b:5b:62:ae:d1:52:34:2b:c5:da:d9:74:5e:32:45:d7:53:40:
         23:ee:a4:cc:b1:3f:ca:13:f4:44:88:f3:a1:de:41:a6:42:30:
         33:2e:5a:4a:b5:df:ef:3e:b5:55:3c:58:69:58:a5:f9:a5:f6:
         5c:55:1e:84:99:52:70:e8:75:94:7b:33:eb:f8:e9:97:c1:b5:
         3c:d0:fa:34:b7:f2:01:ea:4a:ec:5d:1d:9b:b6:14:7c:ae:7d:
         22:91:9f:a6:1c:62:79:d9:e2:9e:02:f1:d3:f4:32:47:52:d5:
         76:d9:f0:0d:e9:39:76:ac:50:d6:12:49:79:f2:c6:fd:97:2e:
         71:2a:bf:6a:64:03:0a:b6:4a:d6:49:ee:33:d0:72:63:b4:09:
         e7:2d:c2:5a:ce:e2:37:c8:53:6b:3e:21:fb:6c:af:af:40:fe:
         82:f6:b5:85:b3:51:7e:92:25:f4:1c:42:c3:57:61:06:7c:01:
         68:a4:ba:f5:d9:c0:ec:6f:2b:1e:36:98:d1:97:b4:74:84:27:
         54:6e:e7:f6:a1:fb:f1:e8:a3:ee:4c:22:22:ba:b3:9d:0f:9b:
         d5:01:b0:9e:b0:02:8c:5d:7c:9a:29:85:1a:0f:08:72:e3:46:
         de:26:fc:03:b8:66:7d:e3:7d:8b:0c:58:50:9d:9c:e3:c2:1d:
         16:02:82:66:fa:fe:41:84:a2:b8:70:96:c9:b0:6b:f7:71:11:
         4f:ec:c1:82:72:6e:1a:76:f7:d0:28:fa:43:5a:97:a3:5d:43:
         c7:11:24:97:60:60:e2:2b:dc:d3:09:fd:5c:20:8f:94:c6:49:
         a8:53:c8:86:23:f4:b5:4d:69:f6:0d:b3:1c:62:d6:79:42:ad:
         6c:d2:ba:fe:f3:f9:5f:79:63:ad:20:e9:32:6e:5d:16:1d:f5:
         37:55:a3:34:7c:ad:48:ef
-----BEGIN CERTIFICATE-----
MIIGrDCCBJSgAwIBAgICHnswDQYJKoZIhvcNAQEEBQAwgawxCzAJBgNVBAYTAlVT
MQswCQYDVQQIEwJPSDERMA8GA1UEBxMIQ29sdW1idXMxEjAQBgNVBAoTCVZpa2lu
Z1ZQTjEdMBsGA1UECxMUTXlPcmdhbml6YXRpb25hbFVuaXQxFTATBgNVBAMTDFZp
a2luZ1ZQTiBDQTEQMA4GA1UEKRMHRWFzeVJTQTEhMB8GCSqGSIb3DQEJARYSbWVA
bXlob3N0Lm15ZG9tYWluMB4XDTE2MDQyMDIwMzgwN1oXDTI2MDQxODIwMzgwN1ow
HjEcMBoGA1UEAxMTQ2xpZW50MzYxQ2VydGU5MzlhMTCCAiIwDQYJKoZIhvcNAQEB
BQADggIPADCCAgoCggIBAMORIRsZpzqa5KoDayAp0yXIONBBxerqvEcyoH749EAU
1KO7RE/A9Rl/FeKTs+GqdovuHKJ6vFPPJGsjbxcrsFaYrLCPk9LX+QvcJ6Vy8qai
GnuxZrjQ/xhWASr+H1ZY5NLbC28F3oir0KKREZg7+Rd9CGzb6t95lPXl2QO1S0sd
ba7xD/yBO7qGEY4TK2tNenfSFzHkZPJPqaI1jYZJXWLQfkgV/pKwn84/pY1fd70u
+qhfpm3MCFkj7lqF1hvEEUx3uqb6g2aoq8OkeenqZPB6iqpf7dNfEBHe5wfka3K1
O1X/FEU1qCFTMaT3xzsrMqjmKlFUXhUs2wVdA4wPeiYKK3Vlw5GJWCw3YOCB3f4/
PZ7dyOGdDqc8i/5OGqUWeKwyhg6rWs4vB/y97bui5/rDgm1WZiGD1tEC38FRdfD9
K2aTI4ySotmYtXnVt8SAr6FBd39Y58ozZyHZNWPvbQR4f7mZN5vFoIwrvK36I0tD
UweI/YW394QCSixo9qWe0bdn+gB4XiwOaUBu/vT44MW1jlLx5YlgNhzZ2j3Y9dQn
mwTutKgz0l/0qdznx5KBFNVr+onIvFlUME3yUs3DI8s23T9m5bEpMGwNK+ox9XBx
eC+o2U10OuUXATeC7kbM75oEkpqUgZBHdiUVqlqi5ufvUmGrACuv5Yoo/0Mgo2gH
AgMBAAGjggFjMIIBXzAJBgNVHRMEAjAAMC0GCWCGSAGG+EIBDQQgFh5FYXN5LVJT
QSBHZW5lcmF0ZWQgQ2VydGlmaWNhdGUwHQYDVR0OBBYEFJ6gh9Snla2MrtCFRWQi
sRK6d4JiMIHhBgNVHSMEgdkwgdaAFBLNYATSoICecO3Gmbh7LMZS/RmhoYGypIGv
MIGsMQswCQYDVQQGEwJVUzELMAkGA1UECBMCT0gxETAPBgNVBAcTCENvbHVtYnVz
MRIwEAYDVQQKEwlWaWtpbmdWUE4xHTAbBgNVBAsTFE15T3JnYW5pemF0aW9uYWxV
bml0MRUwEwYDVQQDEwxWaWtpbmdWUE4gQ0ExEDAOBgNVBCkTB0Vhc3lSU0ExITAf
BgkqhkiG9w0BCQEWEm1lQG15aG9zdC5teWRvbWFpboIJAM81he6Avyo+MBMGA1Ud
JQQMMAoGCCsGAQUFBwMCMAsGA1UdDwQEAwIHgDANBgkqhkiG9w0BAQQFAAOCAgEA
xug3ePPlbsb/MXfV6oM50/OvZdU3xkTBvknqBAyYizJ3W7qTLC8CAeFuH31URRhB
OQXwroGGI0OSdpOn5P5MRMpXiLihEi9aXcaprCt2RaJkCn+fsfcBkLgrReen8VbB
RMOJjeiYM64D2s07aVJ/oQ0yPNQbfCch9qPiLDuhmUG8veyniIoqUwJ2Iaj3AUvT
gej8XwocOrzM+qcVx2iviB5rK1tirtFSNCvF2tl0XjJF11NAI+6kzLE/yhP0RIjz
od5BpkIwMy5aSrXf7z61VTxYaVil+aX2XFUehJlScOh1lHsz6/jpl8G1PND6NLfy
AepK7F0dm7YUfK59IpGfphxiedningLx0/QyR1LVdtnwDek5dqxQ1hJJefLG/Zcu
cSq/amQDCrZK1knuM9ByY7QJ5y3CWs7iN8hTaz4h+2yvr0D+gva1hbNRfpIl9BxC
w1dhBnwBaKS69dnA7G8rHjaY0Ze0dIQnVG7n9qH78eij7kwiIrqznQ+b1QGwnrAC
jF18mimFGg8IcuNG3ib8A7hmfeN9iwxYUJ2c48IdFgKCZvr+QYSiuHCWybBr93ER
T+zBgnJuGnb30Cj6Q1qXo11DxxEkl2Bg4ivc0wn9XCCPlMZJqFPIhiP0tU1p9g2z
HGLWeUKtbNK6/vP5X3ljrSDpMm5dFh31N1WjNHytSO8=
-----END CERTIFICATE-----
