Certificate:
    Data:
        Version: 3 (0x2)
        Serial Number: 8479 (0x211f)
    Signature Algorithm: md5WithRSAEncryption
        Issuer: C=US, ST=OH, L=Columbus, O=VikingVPN, OU=MyOrganizationalUnit, CN=VikingVPN CA/name=EasyRSA/emailAddress=me@myhost.mydomain
        Validity
            Not Before: Jul 12 07:38:16 2016 GMT
            Not After : Jul 10 07:38:16 2026 GMT
        Subject: CN=Client1348Cert04bc0b
        Subject Public Key Info:
            Public Key Algorithm: rsaEncryption
                Public-Key: (4096 bit)
                Modulus:
                    00:a5:cb:36:c6:64:95:9e:4d:09:ca:61:95:71:12:
                    2c:32:5b:76:65:ee:17:a0:e2:5e:94:05:9b:80:b9:
                    55:2b:58:87:08:c7:08:25:5a:1e:48:d9:0c:cd:7a:
                    50:0e:41:dc:18:4d:6c:09:39:4c:12:1e:dd:94:d5:
                    0d:b4:cf:b5:a2:a0:4e:38:93:35:1d:35:07:54:1f:
                    6b:b7:56:2a:65:9f:09:8e:47:ac:9e:43:c2:b2:07:
                    45:d5:06:41:0a:47:df:a9:29:48:04:10:3b:32:27:
                    5e:a6:ec:82:4d:8b:a8:39:a5:98:b9:0e:9e:55:1f:
                    cd:5a:29:29:e6:56:eb:bc:f2:86:c8:fc:8d:42:49:
                    ac:fe:07:14:50:a3:da:10:2e:8a:a1:0a:6d:f8:34:
                    a5:14:46:ad:bf:44:b3:7f:31:47:c1:3b:4f:e1:ed:
                    da:e4:f1:19:30:80:b3:e2:c6:e8:fd:d8:8f:7e:93:
                    03:6f:cf:af:99:71:4b:1c:bb:e0:7d:db:d3:8a:55:
                    aa:85:fe:86:00:38:f3:d4:3d:b9:b8:5d:91:72:b0:
                    eb:a2:7f:2f:5c:ca:ab:0a:01:c9:e3:8f:bc:57:6e:
                    f4:3a:46:ab:ef:21:40:87:49:a5:b5:45:96:01:b8:
                    3b:aa:62:5a:a4:72:96:dc:19:4b:89:6d:a7:f0:15:
                    b7:a9:96:23:fa:b2:37:67:cf:8b:ed:53:44:15:94:
                    f0:8c:d4:40:4e:1c:d4:85:d9:3f:a9:ee:76:95:a4:
                    a9:49:d4:aa:b2:4d:f9:3f:1e:3b:ab:01:9a:ce:1a:
                    9b:3b:1b:c5:4b:6f:a8:61:c8:a7:4a:3d:bf:1c:06:
                    53:70:91:91:fc:4c:b3:c2:cb:ce:39:97:b9:48:13:
                    52:4e:ab:57:87:6e:ec:2c:53:ea:2d:88:0c:67:22:
                    62:ea:1b:d9:5f:13:a0:69:70:03:e0:26:c2:0e:49:
                    f8:71:dd:65:48:96:50:93:3e:a9:72:84:00:e7:8c:
                    ad:a2:a4:da:ee:6b:27:07:2e:7f:c2:71:59:5c:51:
                    9d:8a:f5:8e:d5:c8:e8:08:4f:a8:7b:76:c8:0b:53:
                    b6:62:4d:79:d6:1c:a8:50:e8:14:51:86:6a:a4:b6:
                    9f:63:ba:87:28:36:20:2b:2e:15:20:8a:d7:c5:be:
                    4d:75:81:d3:be:a2:36:c0:d1:17:a0:b0:73:5d:1b:
                    bc:0c:7c:18:a8:74:76:ed:ee:0f:e9:d9:3f:84:81:
                    c0:6d:bc:c0:70:6a:3b:00:d8:b6:52:c6:8a:83:c8:
                    0d:85:82:d2:57:6d:fd:9f:43:0d:63:47:07:74:52:
                    e9:2c:98:a3:c3:98:bf:48:8e:9b:32:00:88:48:15:
                    c6:50:29
                Exponent: 65537 (0x10001)
        X509v3 extensions:
            X509v3 Basic Constraints: 
                CA:FALSE
            Netscape Comment: 
                Easy-RSA Generated Certificate
            X509v3 Subject Key Identifier: 
                F3:F4:B2:D2:E5:73:B1:27:EE:BD:E8:10:AB:95:28:C9:47:11:B5:31
            X509v3 Authority Key Identifier: 
                keyid:12:CD:60:04:D2:A0:80:9E:70:ED:C6:99:B8:7B:2C:C6:52:FD:19:A1
                DirName:/C=US/ST=OH/L=Columbus/O=VikingVPN/OU=MyOrganizationalUnit/CN=VikingVPN CA/name=EasyRSA/emailAddress=me@myhost.mydomain
                serial:CF:35:85:EE:80:BF:2A:3E

            X509v3 Extended Key Usage: 
                TLS Web Client Authentication
            X509v3 Key Usage: 
                Digital Signature
    Signature Algorithm: md5WithRSAEncryption
         05:71:c8:84:7a:d3:5e:00:56:c0:3f:a5:fa:54:c4:28:36:18:
         96:c2:e2:32:fc:0b:7d:5d:40:e2:45:f2:ab:3b:4a:d3:cd:49:
         a0:43:31:91:29:6a:bc:04:99:0c:dd:62:6d:4e:87:71:75:f8:
         6a:88:84:64:7a:71:d1:26:0f:f3:c2:5b:21:b1:02:68:48:2e:
         b1:f4:d3:c8:f7:db:36:32:0d:f9:66:e5:cf:93:01:13:99:8f:
         4a:8a:13:d9:a6:33:62:17:27:bc:04:91:a7:12:ad:09:7f:3b:
         58:2a:f2:27:ce:40:1d:e2:c2:0f:7e:e7:b9:c8:73:9b:2d:cf:
         20:25:82:63:f6:1c:95:f3:1a:f4:f5:d8:69:57:3e:31:a2:e7:
         54:2b:c7:ce:50:27:71:b0:2f:86:ec:2c:02:6b:79:4c:31:20:
         b1:cd:1e:90:a8:9b:df:2c:02:ba:48:23:bd:99:e8:d5:20:08:
         c8:c9:f3:fd:f2:5c:e6:62:73:27:77:89:87:5a:71:32:2c:97:
         9b:e6:11:ec:d9:d8:10:60:1c:63:5e:27:62:49:ac:fc:33:c5:
         29:b7:f8:e6:04:74:8b:4d:b5:d1:87:3e:55:d5:dc:90:f6:51:
         15:1a:e6:7d:ac:02:be:93:6e:a8:1b:5f:cd:73:94:82:b4:0b:
         2d:30:09:d4:81:ca:29:31:7e:19:af:59:7f:f6:3f:0a:05:8d:
         53:1c:ae:05:04:9c:56:f1:d2:11:29:fe:04:37:23:f7:f3:de:
         8f:a2:d5:45:89:d2:b6:5f:89:72:91:29:92:2a:0f:74:86:23:
         e6:57:b4:8c:1f:84:71:86:3d:73:34:87:c6:d6:33:9f:60:47:
         5f:fc:a6:23:39:25:86:b8:96:37:e5:14:43:52:1e:64:78:a3:
         53:fb:09:2b:6b:16:aa:02:e4:91:d8:a3:c3:e2:a4:ad:4a:ed:
         9f:f5:71:27:9c:06:06:b9:5e:2f:02:23:cb:10:b8:8d:23:f2:
         36:48:60:ed:db:eb:0a:25:cc:ee:6b:29:62:48:53:da:ba:e8:
         3b:c1:93:f6:40:9e:d2:d1:0b:72:89:2b:ed:85:46:ed:81:8a:
         4b:d7:3e:fb:e7:fe:8a:82:52:be:66:44:b1:e2:ce:65:e6:69:
         ff:94:9c:89:3b:5d:f7:8a:50:cb:e4:97:8f:07:7b:d5:79:39:
         b1:44:02:04:7d:c8:3e:37:eb:3a:e7:1f:57:80:fb:66:bc:d9:
         7c:33:74:83:ff:43:35:c7:8d:72:c1:a9:46:cf:20:27:57:23:
         e4:69:78:dc:22:23:98:d5:fe:37:f8:07:5d:dd:f7:f1:5d:f9:
         f1:31:ee:4a:c1:bc:64:cf
-----BEGIN CERTIFICATE-----
MIIGrTCCBJWgAwIBAgICIR8wDQYJKoZIhvcNAQEEBQAwgawxCzAJBgNVBAYTAlVT
MQswCQYDVQQIEwJPSDERMA8GA1UEBxMIQ29sdW1idXMxEjAQBgNVBAoTCVZpa2lu
Z1ZQTjEdMBsGA1UECxMUTXlPcmdhbml6YXRpb25hbFVuaXQxFTATBgNVBAMTDFZp
a2luZ1ZQTiBDQTEQMA4GA1UEKRMHRWFzeVJTQTEhMB8GCSqGSIb3DQEJARYSbWVA
bXlob3N0Lm15ZG9tYWluMB4XDTE2MDcxMjA3MzgxNloXDTI2MDcxMDA3MzgxNlow
HzEdMBsGA1UEAxMUQ2xpZW50MTM0OENlcnQwNGJjMGIwggIiMA0GCSqGSIb3DQEB
AQUAA4ICDwAwggIKAoICAQClyzbGZJWeTQnKYZVxEiwyW3Zl7heg4l6UBZuAuVUr
WIcIxwglWh5I2QzNelAOQdwYTWwJOUwSHt2U1Q20z7WioE44kzUdNQdUH2u3Vipl
nwmOR6yeQ8KyB0XVBkEKR9+pKUgEEDsyJ16m7IJNi6g5pZi5Dp5VH81aKSnmVuu8
8obI/I1CSaz+BxRQo9oQLoqhCm34NKUURq2/RLN/MUfBO0/h7drk8RkwgLPixuj9
2I9+kwNvz6+ZcUscu+B929OKVaqF/oYAOPPUPbm4XZFysOuify9cyqsKAcnjj7xX
bvQ6RqvvIUCHSaW1RZYBuDuqYlqkcpbcGUuJbafwFbepliP6sjdnz4vtU0QVlPCM
1EBOHNSF2T+p7naVpKlJ1KqyTfk/HjurAZrOGps7G8VLb6hhyKdKPb8cBlNwkZH8
TLPCy845l7lIE1JOq1eHbuwsU+otiAxnImLqG9lfE6BpcAPgJsIOSfhx3WVIllCT
PqlyhADnjK2ipNruaycHLn/CcVlcUZ2K9Y7VyOgIT6h7dsgLU7ZiTXnWHKhQ6BRR
hmqktp9juocoNiArLhUgitfFvk11gdO+ojbA0RegsHNdG7wMfBiodHbt7g/p2T+E
gcBtvMBwajsA2LZSxoqDyA2FgtJXbf2fQw1jRwd0UuksmKPDmL9IjpsyAIhIFcZQ
KQIDAQABo4IBYzCCAV8wCQYDVR0TBAIwADAtBglghkgBhvhCAQ0EIBYeRWFzeS1S
U0EgR2VuZXJhdGVkIENlcnRpZmljYXRlMB0GA1UdDgQWBBTz9LLS5XOxJ+696BCr
lSjJRxG1MTCB4QYDVR0jBIHZMIHWgBQSzWAE0qCAnnDtxpm4eyzGUv0ZoaGBsqSB
rzCBrDELMAkGA1UEBhMCVVMxCzAJBgNVBAgTAk9IMREwDwYDVQQHEwhDb2x1bWJ1
czESMBAGA1UEChMJVmlraW5nVlBOMR0wGwYDVQQLExRNeU9yZ2FuaXphdGlvbmFs
VW5pdDEVMBMGA1UEAxMMVmlraW5nVlBOIENBMRAwDgYDVQQpEwdFYXN5UlNBMSEw
HwYJKoZIhvcNAQkBFhJtZUBteWhvc3QubXlkb21haW6CCQDPNYXugL8qPjATBgNV
HSUEDDAKBggrBgEFBQcDAjALBgNVHQ8EBAMCB4AwDQYJKoZIhvcNAQEEBQADggIB
AAVxyIR6014AVsA/pfpUxCg2GJbC4jL8C31dQOJF8qs7StPNSaBDMZEparwEmQzd
Ym1Oh3F1+GqIhGR6cdEmD/PCWyGxAmhILrH008j32zYyDflm5c+TAROZj0qKE9mm
M2IXJ7wEkacSrQl/O1gq8ifOQB3iwg9+57nIc5stzyAlgmP2HJXzGvT12GlXPjGi
51Qrx85QJ3GwL4bsLAJreUwxILHNHpCom98sArpII72Z6NUgCMjJ8/3yXOZicyd3
iYdacTIsl5vmEezZ2BBgHGNeJ2JJrPwzxSm3+OYEdItNtdGHPlXV3JD2URUa5n2s
Ar6TbqgbX81zlIK0Cy0wCdSByikxfhmvWX/2PwoFjVMcrgUEnFbx0hEp/gQ3I/fz
3o+i1UWJ0rZfiXKRKZIqD3SGI+ZXtIwfhHGGPXM0h8bWM59gR1/8piM5JYa4ljfl
FENSHmR4o1P7CStrFqoC5JHYo8PipK1K7Z/1cSecBga5Xi8CI8sQuI0j8jZIYO3b
6wolzO5rKWJIU9q66DvBk/ZAntLRC3KJK+2FRu2BikvXPvvn/oqCUr5mRLHizmXm
af+UnIk7XfeKUMvkl48He9V5ObFEAgR9yD436zrnH1eA+2a82XwzdIP/QzXHjXLB
qUbPICdXI+RpeNwiI5jV/jf4B13d9/Fd+fEx7krBvGTP
-----END CERTIFICATE-----
