Certificate:
    Data:
        Version: 3 (0x2)
        Serial Number: 4277 (0x10b5)
    Signature Algorithm: md5WithRSAEncryption
        Issuer: C=US, ST=OH, L=Columbus, O=VikingVPN, OU=MyOrganizationalUnit, CN=VikingVPN CA/name=EasyRSA/emailAddress=me@myhost.mydomain
        Validity
            Not Before: Jan 26 07:00:29 2015 GMT
            Not After : Jan 23 07:00:29 2025 GMT
        Subject: CN=Client1400Certeecb0a
        Subject Public Key Info:
            Public Key Algorithm: rsaEncryption
                Public-Key: (4096 bit)
                Modulus:
                    00:e2:6e:13:6a:11:01:7e:0e:a0:96:1a:6a:29:80:
                    55:0b:69:75:1e:31:26:e4:62:96:9e:7c:72:6c:d1:
                    77:96:c5:59:c8:24:53:9f:79:f6:70:6e:ba:2d:63:
                    8f:a8:00:7e:f1:26:19:0a:7f:f9:a3:de:d7:50:64:
                    1f:7e:5f:92:6a:7d:43:7c:33:d0:4f:d6:98:2d:7d:
                    0c:a2:91:86:92:2c:d5:2e:c4:f7:26:6d:47:dc:b3:
                    6e:26:eb:9c:aa:55:7a:80:cf:65:ac:f0:85:5b:88:
                    41:8f:95:53:96:8d:a0:e9:a9:49:54:06:62:94:88:
                    1a:b1:67:9f:21:ce:73:43:43:1f:52:bc:25:b1:31:
                    23:6e:ea:09:6c:0e:de:65:00:59:94:66:63:3e:20:
                    f3:e7:80:3a:49:3b:1c:b8:77:c0:22:1b:59:0a:8c:
                    5f:1b:c9:98:1d:c8:4d:72:06:c6:78:fd:9a:5e:4c:
                    6b:74:ad:bf:c5:48:39:87:a7:c4:64:50:8f:69:1b:
                    df:2a:f4:04:d3:0b:a4:51:d5:07:21:95:06:f0:3d:
                    86:27:8e:e8:bc:f6:34:79:ba:84:99:4b:fe:7f:2a:
                    e0:a5:dd:88:a2:b7:14:6c:4d:d5:40:46:32:68:c3:
                    45:ef:9f:6b:18:2e:4d:42:36:26:24:6e:01:08:62:
                    90:8c:f3:25:9e:26:8f:18:2b:67:66:7a:09:39:22:
                    f8:ac:f4:7b:1c:bd:69:60:df:c6:ba:50:b8:30:4e:
                    76:bb:1c:0e:3f:95:bf:ef:4c:c1:5b:43:cc:4b:e7:
                    9a:bb:64:7b:60:32:04:d9:ba:42:87:8c:b0:1b:c6:
                    67:d6:0e:28:d8:44:0e:7f:06:99:cd:5c:1f:02:e2:
                    90:64:97:b7:f2:53:6c:90:e4:9d:cc:31:ed:e1:2f:
                    5a:2d:50:3b:cb:34:de:1b:8e:fa:67:5f:b4:e9:55:
                    6b:88:98:23:5f:59:f3:a2:05:29:1a:21:34:fb:f8:
                    5a:6c:47:39:2b:fe:46:c0:35:e0:96:19:a8:40:36:
                    54:64:dc:2c:c2:da:73:c2:d7:05:94:86:86:8b:39:
                    eb:0f:c8:ba:83:02:b3:26:b7:56:6a:0e:0c:d8:a7:
                    ed:25:7c:14:f7:91:a4:68:bb:b8:6e:8a:4e:88:83:
                    2d:a3:9b:38:0f:0a:6f:6f:0d:7b:67:65:fc:73:7c:
                    4e:13:97:dd:d0:68:a0:79:4b:ad:c2:ec:2c:98:2d:
                    82:ef:33:f7:49:34:e5:7d:10:24:01:a5:93:0f:f7:
                    eb:c1:f7:c5:b7:c0:74:85:3f:e5:cf:80:35:65:1f:
                    45:be:99:38:b3:3c:d6:e5:5f:8e:16:69:1d:4c:3c:
                    2e:5b:8b
                Exponent: 65537 (0x10001)
        X509v3 extensions:
            X509v3 Basic Constraints: 
                CA:FALSE
            Netscape Comment: 
                Easy-RSA Generated Certificate
            X509v3 Subject Key Identifier: 
                BC:50:32:4B:09:EB:23:B8:B3:12:11:87:A0:59:73:3D:64:44:D9:FE
            X509v3 Authority Key Identifier: 
                keyid:12:CD:60:04:D2:A0:80:9E:70:ED:C6:99:B8:7B:2C:C6:52:FD:19:A1
                DirName:/C=US/ST=OH/L=Columbus/O=VikingVPN/OU=MyOrganizationalUnit/CN=VikingVPN CA/name=EasyRSA/emailAddress=me@myhost.mydomain
                serial:CF:35:85:EE:80:BF:2A:3E

            X509v3 Extended Key Usage: 
                TLS Web Client Authentication
            X509v3 Key Usage: 
                Digital Signature
    Signature Algorithm: md5WithRSAEncryption
         88:4b:2b:c2:1a:c9:d5:42:b2:2f:30:c4:f9:df:ad:1f:12:c9:
         e6:54:70:ef:ce:45:85:4c:96:a6:9b:fe:87:34:0f:36:0a:24:
         c9:b0:b0:56:56:b2:ec:c8:71:56:f1:5d:a6:f8:f0:4a:1a:8f:
         de:d0:4f:eb:55:d3:a2:30:08:1e:c8:ca:ea:9b:dd:cc:ca:30:
         0c:47:2c:e8:6f:a9:7d:db:52:74:d5:70:99:4b:a2:ba:7a:a8:
         24:16:4c:a7:25:15:43:91:df:f0:8d:d3:16:1f:f0:a8:da:51:
         a4:f9:42:96:cb:cd:b3:8c:ae:d5:0a:02:7b:de:47:c4:74:22:
         06:79:d3:3c:f1:3a:96:39:c9:9c:78:29:6b:eb:6d:5e:10:0b:
         ac:12:e7:c8:7f:f0:13:b5:92:82:48:01:b6:5e:c6:68:c4:9f:
         e2:01:60:83:9c:93:55:e2:9a:e7:a8:13:bd:df:b1:e9:90:c6:
         23:8c:9b:dc:c4:03:e2:25:bc:af:c3:d3:33:c8:cf:a5:92:2e:
         fe:c4:cc:24:35:f2:ed:f7:59:3c:73:13:ec:d6:3c:43:ff:22:
         a2:a5:6b:9c:a6:18:f4:a1:13:47:b4:b1:0f:cb:e3:db:7b:00:
         da:0c:c8:dc:d0:84:53:3e:f1:4f:9f:80:e6:40:6d:dd:8e:3a:
         72:80:56:28:4d:f4:6d:c3:c9:cb:45:cb:a7:11:8f:f9:80:aa:
         b9:00:df:ae:0c:94:78:eb:1b:28:f7:10:b1:25:65:ed:f5:fc:
         31:23:bb:ba:9e:87:d2:7e:ab:d2:67:20:b2:2d:11:05:ab:b9:
         c0:8e:5c:6f:4b:ee:64:83:c4:8b:14:35:28:00:a2:7c:77:64:
         29:38:b3:75:a1:14:17:9c:8d:d1:5a:98:6d:55:ac:24:72:b0:
         44:e3:d8:da:26:be:15:e6:10:e6:8c:f8:bb:ee:f0:7d:a0:12:
         ed:04:ef:d3:dc:ef:07:17:42:3f:b9:47:78:97:bc:bb:ed:90:
         21:db:ec:45:a3:12:0c:f7:3d:8b:15:c9:43:50:5b:da:e4:76:
         98:0c:59:76:c0:ad:2d:12:32:41:93:11:1b:12:72:81:d8:f9:
         46:9c:2b:d6:66:d8:b3:11:b3:bb:26:38:9c:c4:16:46:23:1e:
         7d:95:91:82:64:3b:da:28:b2:9f:06:0c:00:1b:95:99:97:f8:
         2a:c7:f8:97:81:2f:f0:b7:87:82:ad:10:1d:cd:d8:b0:6e:4e:
         5b:94:14:61:59:1e:06:cd:1f:c5:31:7b:70:a6:97:57:3c:65:
         1f:09:d2:36:37:63:ff:8a:7a:c7:69:f4:02:06:e6:8f:02:90:
         5f:24:ea:91:e7:79:6e:8a
-----BEGIN CERTIFICATE-----
MIIGrTCCBJWgAwIBAgICELUwDQYJKoZIhvcNAQEEBQAwgawxCzAJBgNVBAYTAlVT
MQswCQYDVQQIEwJPSDERMA8GA1UEBxMIQ29sdW1idXMxEjAQBgNVBAoTCVZpa2lu
Z1ZQTjEdMBsGA1UECxMUTXlPcmdhbml6YXRpb25hbFVuaXQxFTATBgNVBAMTDFZp
a2luZ1ZQTiBDQTEQMA4GA1UEKRMHRWFzeVJTQTEhMB8GCSqGSIb3DQEJARYSbWVA
bXlob3N0Lm15ZG9tYWluMB4XDTE1MDEyNjA3MDAyOVoXDTI1MDEyMzA3MDAyOVow
HzEdMBsGA1UEAxMUQ2xpZW50MTQwMENlcnRlZWNiMGEwggIiMA0GCSqGSIb3DQEB
AQUAA4ICDwAwggIKAoICAQDibhNqEQF+DqCWGmopgFULaXUeMSbkYpaefHJs0XeW
xVnIJFOfefZwbrotY4+oAH7xJhkKf/mj3tdQZB9+X5JqfUN8M9BP1pgtfQyikYaS
LNUuxPcmbUfcs24m65yqVXqAz2Ws8IVbiEGPlVOWjaDpqUlUBmKUiBqxZ58hznND
Qx9SvCWxMSNu6glsDt5lAFmUZmM+IPPngDpJOxy4d8AiG1kKjF8byZgdyE1yBsZ4
/ZpeTGt0rb/FSDmHp8RkUI9pG98q9ATTC6RR1QchlQbwPYYnjui89jR5uoSZS/5/
KuCl3YiitxRsTdVARjJow0Xvn2sYLk1CNiYkbgEIYpCM8yWeJo8YK2dmegk5Ivis
9HscvWlg38a6ULgwTna7HA4/lb/vTMFbQ8xL55q7ZHtgMgTZukKHjLAbxmfWDijY
RA5/BpnNXB8C4pBkl7fyU2yQ5J3MMe3hL1otUDvLNN4bjvpnX7TpVWuImCNfWfOi
BSkaITT7+FpsRzkr/kbANeCWGahANlRk3CzC2nPC1wWUhoaLOesPyLqDArMmt1Zq
DgzYp+0lfBT3kaRou7huik6Igy2jmzgPCm9vDXtnZfxzfE4Tl93QaKB5S63C7CyY
LYLvM/dJNOV9ECQBpZMP9+vB98W3wHSFP+XPgDVlH0W+mTizPNblX44WaR1MPC5b
iwIDAQABo4IBYzCCAV8wCQYDVR0TBAIwADAtBglghkgBhvhCAQ0EIBYeRWFzeS1S
U0EgR2VuZXJhdGVkIENlcnRpZmljYXRlMB0GA1UdDgQWBBS8UDJLCesjuLMSEYeg
WXM9ZETZ/jCB4QYDVR0jBIHZMIHWgBQSzWAE0qCAnnDtxpm4eyzGUv0ZoaGBsqSB
rzCBrDELMAkGA1UEBhMCVVMxCzAJBgNVBAgTAk9IMREwDwYDVQQHEwhDb2x1bWJ1
czESMBAGA1UEChMJVmlraW5nVlBOMR0wGwYDVQQLExRNeU9yZ2FuaXphdGlvbmFs
VW5pdDEVMBMGA1UEAxMMVmlraW5nVlBOIENBMRAwDgYDVQQpEwdFYXN5UlNBMSEw
HwYJKoZIhvcNAQkBFhJtZUBteWhvc3QubXlkb21haW6CCQDPNYXugL8qPjATBgNV
HSUEDDAKBggrBgEFBQcDAjALBgNVHQ8EBAMCB4AwDQYJKoZIhvcNAQEEBQADggIB
AIhLK8IaydVCsi8wxPnfrR8SyeZUcO/ORYVMlqab/oc0DzYKJMmwsFZWsuzIcVbx
Xab48Eoaj97QT+tV06IwCB7Iyuqb3czKMAxHLOhvqX3bUnTVcJlLorp6qCQWTKcl
FUOR3/CN0xYf8KjaUaT5QpbLzbOMrtUKAnveR8R0IgZ50zzxOpY5yZx4KWvrbV4Q
C6wS58h/8BO1koJIAbZexmjEn+IBYIOck1XimueoE73fsemQxiOMm9zEA+IlvK/D
0zPIz6WSLv7EzCQ18u33WTxzE+zWPEP/IqKla5ymGPShE0e0sQ/L49t7ANoMyNzQ
hFM+8U+fgOZAbd2OOnKAVihN9G3DyctFy6cRj/mAqrkA364MlHjrGyj3ELElZe31
/DEju7qeh9J+q9JnILItEQWrucCOXG9L7mSDxIsUNSgAonx3ZCk4s3WhFBecjdFa
mG1VrCRysETj2NomvhXmEOaM+Lvu8H2gEu0E79Pc7wcXQj+5R3iXvLvtkCHb7EWj
Egz3PYsVyUNQW9rkdpgMWXbArS0SMkGTERsScoHY+UacK9Zm2LMRs7smOJzEFkYj
Hn2VkYJkO9oosp8GDAAblZmX+CrH+JeBL/C3h4KtEB3N2LBuTluUFGFZHgbNH8Ux
e3Cml1c8ZR8J0jY3Y/+Kesdp9AIG5o8CkF8k6pHneW6K
-----END CERTIFICATE-----
