Certificate:
    Data:
        Version: 3 (0x2)
        Serial Number: 12402 (0x3072)
    Signature Algorithm: sha256WithRSAEncryption
        Issuer: C=US, ST=OH, L=Columbus, O=VikingVPN, OU=MyOrganizationalUnit, CN=VikingVPN CA/name=EasyRSA/emailAddress=me@myhost.mydomain
        Validity
            Not Before: Jan 13 15:24:39 2018 GMT
            Not After : Jan 11 15:24:39 2028 GMT
        Subject: CN=Client1702Certd5bd77
        Subject Public Key Info:
            Public Key Algorithm: rsaEncryption
                Public-Key: (4096 bit)
                Modulus:
                    00:ba:39:cf:3d:c1:59:61:bd:0a:b6:10:79:a0:5f:
                    57:57:5c:c2:b5:d3:36:4a:98:e4:39:19:09:cc:1e:
                    43:ea:b0:41:2d:3b:2a:96:f2:87:cb:da:1b:2d:88:
                    75:9e:a0:5b:26:7b:ba:fa:ba:fe:b8:a8:4e:0a:ca:
                    76:b4:2c:d7:d3:ae:6e:87:fb:60:c1:57:38:fd:32:
                    8b:ff:59:df:53:2a:06:e1:fd:7e:4f:c9:7a:69:c1:
                    71:4f:73:4a:4d:32:0f:75:d4:9b:ac:25:69:eb:c6:
                    95:c7:d3:32:80:c9:3b:43:b8:1d:49:7e:68:46:4b:
                    8e:e5:e9:63:59:5f:b4:4e:ce:2a:7a:62:a6:d2:70:
                    02:3c:63:cb:8d:24:44:e4:5e:bf:29:ca:49:0a:99:
                    82:39:14:0f:75:51:34:e4:28:d8:a9:7a:c7:bc:32:
                    27:5f:64:e3:fc:98:c5:a7:43:77:a3:0b:c3:c7:7e:
                    50:71:23:90:a9:cd:da:09:50:52:fe:85:2d:c9:f8:
                    06:7c:02:08:74:8f:49:a5:0c:e9:83:39:d0:38:84:
                    68:6e:fe:35:19:35:01:1f:b6:78:ce:9b:99:6c:49:
                    40:27:2f:2c:ed:74:c1:4e:35:f1:77:23:0e:b2:0b:
                    7f:87:17:91:21:03:2b:9d:25:0c:43:0d:32:14:5f:
                    26:fd:9d:80:e8:13:56:67:27:65:b1:30:39:d1:7f:
                    56:f6:82:9f:8c:93:db:f9:f6:2b:6e:08:56:a5:0b:
                    6b:2e:3f:f5:e8:6f:97:e8:9d:cf:fc:d6:ea:44:ef:
                    c2:ee:49:7a:40:e3:3b:87:eb:c7:c6:ac:64:b2:c8:
                    be:68:11:c9:e9:af:57:32:39:5b:4d:38:45:e4:1d:
                    cc:ea:92:93:37:c3:0d:59:52:69:71:81:b9:e4:a2:
                    ee:d6:c5:75:12:53:52:5d:7c:0e:ce:c3:dc:e9:2f:
                    08:8b:68:a4:38:f1:70:e6:51:05:e5:3a:83:94:f2:
                    71:12:64:aa:5a:97:a9:76:6e:40:5f:39:c0:c1:83:
                    af:ea:11:79:39:72:55:3f:24:1d:c8:07:01:07:2a:
                    72:b2:cd:bf:ff:84:7d:85:07:37:f8:d4:92:27:dd:
                    54:77:01:10:39:aa:64:cc:b5:1d:0c:61:3d:63:b8:
                    ef:1a:d3:12:aa:ec:15:0d:8e:67:65:10:07:47:3c:
                    ae:ce:05:a5:4c:3e:bf:89:21:90:b1:a2:e4:4d:44:
                    82:b7:f5:8c:6d:0c:7d:e5:02:02:ce:19:4a:ba:32:
                    a2:36:37:45:5d:5f:e1:b0:6a:2d:d6:d8:56:ce:7e:
                    d7:10:50:b8:8c:5c:3a:b9:f1:b8:0c:4a:e9:72:2b:
                    34:83:6d
                Exponent: 65537 (0x10001)
        X509v3 extensions:
            X509v3 Basic Constraints: 
                CA:FALSE
            Netscape Comment: 
                Easy-RSA Generated Certificate
            X509v3 Subject Key Identifier: 
                74:08:81:5C:4F:05:0D:2A:23:CF:E1:EE:37:EB:F2:77:FD:98:0B:06
            X509v3 Authority Key Identifier: 
                keyid:12:CD:60:04:D2:A0:80:9E:70:ED:C6:99:B8:7B:2C:C6:52:FD:19:A1
                DirName:/C=US/ST=OH/L=Columbus/O=VikingVPN/OU=MyOrganizationalUnit/CN=VikingVPN CA/name=EasyRSA/emailAddress=me@myhost.mydomain
                serial:CF:35:85:EE:80:BF:2A:3E

            X509v3 Extended Key Usage: 
                TLS Web Client Authentication
            X509v3 Key Usage: 
                Digital Signature
    Signature Algorithm: sha256WithRSAEncryption
         e0:b8:de:e3:6d:25:18:19:56:8d:07:b1:68:7a:fb:4b:5f:53:
         b2:3c:ba:c6:55:74:52:83:7e:07:88:05:5d:8e:bc:67:ad:4f:
         0f:e7:37:18:d7:9f:0e:7f:87:86:f3:d3:fd:42:e7:48:bc:81:
         8f:b2:86:e9:d7:42:1f:5f:f2:b7:ff:34:68:b7:63:b7:d2:68:
         70:5d:02:de:6d:20:e1:80:89:58:39:75:4f:39:f1:ae:f7:2e:
         db:8f:0b:48:a2:2e:fd:a5:41:61:46:92:6c:07:74:8f:e6:3f:
         20:a5:35:59:90:e3:9c:a0:ba:cb:8e:29:33:3e:5c:a3:94:f3:
         77:da:b5:c5:8f:f1:93:73:8e:bb:7b:80:a0:18:b1:b0:07:ac:
         38:95:b3:78:3a:8f:60:68:ad:46:55:a0:74:8e:9c:a0:06:0e:
         d1:79:d8:f7:0a:a0:a0:5f:9b:15:da:0c:ad:cb:67:f2:23:5f:
         9f:f7:cf:60:ff:70:d8:21:be:bc:b8:85:9e:45:94:e1:b3:c9:
         e5:38:e7:e9:9e:fd:ce:58:08:57:9e:5b:f2:b6:8a:68:cc:e0:
         a8:e5:1e:82:df:89:7f:dc:5a:2c:5e:ea:77:12:1d:e1:d0:ac:
         fc:c4:ca:2a:72:12:39:9b:98:9c:48:f8:72:35:4f:7d:29:c8:
         a5:42:46:a0:8e:88:67:3a:60:bd:b7:b6:9b:40:97:0a:28:8f:
         f8:cd:7e:6d:f4:6b:15:eb:93:60:44:6e:20:68:6a:27:5d:28:
         f4:2f:50:e1:14:4c:cc:b3:42:ea:1f:d7:f9:61:48:9d:3c:6d:
         ab:5e:4b:b5:55:e5:ec:f4:90:4a:ea:67:db:f3:cd:18:a2:fc:
         7d:a5:93:e9:81:4c:d5:af:31:ad:1f:06:04:53:97:3d:c5:8f:
         cd:04:4f:83:c3:97:d0:28:2d:fd:3c:bf:da:21:41:3f:98:c7:
         c0:47:b4:6e:d2:34:1f:07:ee:ca:ed:7e:16:84:9b:64:75:d7:
         92:09:40:01:00:53:09:d7:e1:28:7f:71:17:5e:b6:4d:0a:9a:
         f1:fc:12:2e:5e:bb:57:2e:93:ab:37:bc:0c:7b:ec:8f:37:e3:
         5b:00:48:ef:ba:24:8c:58:85:88:79:8e:aa:7a:44:b6:3e:b0:
         05:c5:f8:88:d5:46:25:26:4e:9f:2a:33:c3:a6:4e:e5:2a:d0:
         1c:a1:1c:e5:2d:52:e1:25:8e:6f:9b:bf:7f:b9:61:7b:c7:cf:
         10:90:41:95:c8:d2:99:cb:57:29:b7:2b:df:50:14:67:c9:a2:
         72:9d:c1:58:b3:de:20:65:62:22:0c:1c:60:8f:e6:b7:bf:ed:
         30:cb:1e:32:28:cb:fd:0a
-----BEGIN CERTIFICATE-----
MIIGrTCCBJWgAwIBAgICMHIwDQYJKoZIhvcNAQELBQAwgawxCzAJBgNVBAYTAlVT
MQswCQYDVQQIEwJPSDERMA8GA1UEBxMIQ29sdW1idXMxEjAQBgNVBAoTCVZpa2lu
Z1ZQTjEdMBsGA1UECxMUTXlPcmdhbml6YXRpb25hbFVuaXQxFTATBgNVBAMTDFZp
a2luZ1ZQTiBDQTEQMA4GA1UEKRMHRWFzeVJTQTEhMB8GCSqGSIb3DQEJARYSbWVA
bXlob3N0Lm15ZG9tYWluMB4XDTE4MDExMzE1MjQzOVoXDTI4MDExMTE1MjQzOVow
HzEdMBsGA1UEAxMUQ2xpZW50MTcwMkNlcnRkNWJkNzcwggIiMA0GCSqGSIb3DQEB
AQUAA4ICDwAwggIKAoICAQC6Oc89wVlhvQq2EHmgX1dXXMK10zZKmOQ5GQnMHkPq
sEEtOyqW8ofL2hstiHWeoFsme7r6uv64qE4Kyna0LNfTrm6H+2DBVzj9Mov/Wd9T
Kgbh/X5PyXppwXFPc0pNMg911JusJWnrxpXH0zKAyTtDuB1JfmhGS47l6WNZX7RO
zip6YqbScAI8Y8uNJETkXr8pykkKmYI5FA91UTTkKNipese8MidfZOP8mMWnQ3ej
C8PHflBxI5CpzdoJUFL+hS3J+AZ8Agh0j0mlDOmDOdA4hGhu/jUZNQEftnjOm5ls
SUAnLyztdMFONfF3Iw6yC3+HF5EhAyudJQxDDTIUXyb9nYDoE1ZnJ2WxMDnRf1b2
gp+Mk9v59ituCFalC2suP/Xob5fonc/81upE78LuSXpA4zuH68fGrGSyyL5oEcnp
r1cyOVtNOEXkHczqkpM3ww1ZUmlxgbnkou7WxXUSU1JdfA7Ow9zpLwiLaKQ48XDm
UQXlOoOU8nESZKpal6l2bkBfOcDBg6/qEXk5clU/JB3IBwEHKnKyzb//hH2FBzf4
1JIn3VR3ARA5qmTMtR0MYT1juO8a0xKq7BUNjmdlEAdHPK7OBaVMPr+JIZCxouRN
RIK39YxtDH3lAgLOGUq6MqI2N0VdX+Gwai3W2FbOftcQULiMXDq58bgMSulyKzSD
bQIDAQABo4IBYzCCAV8wCQYDVR0TBAIwADAtBglghkgBhvhCAQ0EIBYeRWFzeS1S
U0EgR2VuZXJhdGVkIENlcnRpZmljYXRlMB0GA1UdDgQWBBR0CIFcTwUNKiPP4e43
6/J3/ZgLBjCB4QYDVR0jBIHZMIHWgBQSzWAE0qCAnnDtxpm4eyzGUv0ZoaGBsqSB
rzCBrDELMAkGA1UEBhMCVVMxCzAJBgNVBAgTAk9IMREwDwYDVQQHEwhDb2x1bWJ1
czESMBAGA1UEChMJVmlraW5nVlBOMR0wGwYDVQQLExRNeU9yZ2FuaXphdGlvbmFs
VW5pdDEVMBMGA1UEAxMMVmlraW5nVlBOIENBMRAwDgYDVQQpEwdFYXN5UlNBMSEw
HwYJKoZIhvcNAQkBFhJtZUBteWhvc3QubXlkb21haW6CCQDPNYXugL8qPjATBgNV
HSUEDDAKBggrBgEFBQcDAjALBgNVHQ8EBAMCB4AwDQYJKoZIhvcNAQELBQADggIB
AOC43uNtJRgZVo0HsWh6+0tfU7I8usZVdFKDfgeIBV2OvGetTw/nNxjXnw5/h4bz
0/1C50i8gY+yhunXQh9f8rf/NGi3Y7fSaHBdAt5tIOGAiVg5dU858a73LtuPC0ii
Lv2lQWFGkmwHdI/mPyClNVmQ45ygusuOKTM+XKOU83fatcWP8ZNzjrt7gKAYsbAH
rDiVs3g6j2BorUZVoHSOnKAGDtF52PcKoKBfmxXaDK3LZ/IjX5/3z2D/cNghvry4
hZ5FlOGzyeU45+me/c5YCFeeW/K2imjM4KjlHoLfiX/cWixe6ncSHeHQrPzEyipy
EjmbmJxI+HI1T30pyKVCRqCOiGc6YL23tptAlwooj/jNfm30axXrk2BEbiBoaidd
KPQvUOEUTMyzQuof1/lhSJ08bateS7VV5ez0kErqZ9vzzRii/H2lk+mBTNWvMa0f
BgRTlz3Fj80ET4PDl9AoLf08v9ohQT+Yx8BHtG7SNB8H7srtfhaEm2R115IJQAEA
UwnX4Sh/cRdetk0KmvH8Ei5eu1cuk6s3vAx77I8341sASO+6JIxYhYh5jqp6RLY+
sAXF+IjVRiUmTp8qM8OmTuUq0ByhHOUtUuEljm+bv3+5YXvHzxCQQZXI0pnLVym3
K99QFGfJonKdwViz3iBlYiIMHGCP5re/7TDLHjIoy/0K
-----END CERTIFICATE-----
