Certificate:
    Data:
        Version: 3 (0x2)
        Serial Number: 4487 (0x1187)
    Signature Algorithm: md5WithRSAEncryption
        Issuer: C=US, ST=OH, L=Columbus, O=VikingVPN, OU=MyOrganizationalUnit, CN=VikingVPN CA/name=EasyRSA/emailAddress=me@myhost.mydomain
        Validity
            Not Before: Feb 16 18:09:33 2015 GMT
            Not After : Feb 13 18:09:33 2025 GMT
        Subject: CN=Client1457Cert849be5
        Subject Public Key Info:
            Public Key Algorithm: rsaEncryption
                Public-Key: (4096 bit)
                Modulus:
                    00:eb:db:75:50:09:e6:83:d5:fe:8e:60:a3:10:af:
                    be:97:2b:a8:3c:8d:96:a3:1e:6e:9e:2f:4d:ae:e2:
                    4a:eb:c3:81:f7:5a:44:f5:6f:55:3b:c6:cc:da:82:
                    41:04:0f:e2:1c:a2:5e:42:b4:c8:06:dc:a7:2b:61:
                    67:5b:f3:4d:87:97:ef:d3:12:5e:be:dd:aa:f6:d7:
                    7a:70:fb:5a:f0:2c:9e:e2:2a:61:8d:99:73:37:d4:
                    91:8e:5a:82:f0:15:80:e5:1b:88:d0:8f:ee:d6:65:
                    bb:9e:a9:c1:39:0a:88:32:8a:52:78:43:ca:9e:33:
                    b1:63:db:94:76:09:cb:96:62:76:83:bf:2f:2e:05:
                    dd:2e:a3:5f:d3:82:3b:89:98:fe:8d:ef:c0:fd:63:
                    60:e2:bf:99:cb:7d:41:95:c2:ca:dd:3b:0a:3c:01:
                    bf:72:4c:30:79:9c:b0:7e:80:b8:2a:bb:53:c5:89:
                    11:96:fa:cc:3b:3e:7d:49:8c:cb:59:35:55:63:1f:
                    d0:fd:52:20:44:ee:14:2b:ea:70:91:e3:e3:8f:ae:
                    51:44:aa:d5:9b:79:6f:4c:54:bc:70:56:ee:64:79:
                    95:40:87:c5:66:97:47:2d:6c:4c:9c:de:ac:fd:66:
                    6c:9d:b6:26:df:b9:8d:a0:c2:ff:68:03:28:3c:6f:
                    a5:4f:7e:11:78:34:71:8d:c0:d1:b3:ca:12:97:70:
                    4b:1c:59:6f:a1:5d:c0:79:4b:a2:ae:f1:f9:4b:a1:
                    75:c1:a3:4c:48:d5:e5:c9:39:54:9d:24:b7:cb:e7:
                    4a:c4:8f:8d:67:71:ee:29:d3:93:70:0f:5b:09:53:
                    67:49:4b:fc:d7:4b:92:87:91:72:ac:0f:49:67:4e:
                    29:0b:03:77:98:ac:d2:d4:e9:9e:8d:06:02:8c:3e:
                    39:9c:0c:ec:bc:6f:16:94:b6:b6:ef:4d:fa:54:aa:
                    54:c4:29:1d:09:11:7e:3b:3e:bd:81:af:25:ea:be:
                    23:49:24:03:94:d0:75:70:4d:51:07:c0:1a:69:22:
                    fc:5b:7d:18:7a:1f:46:95:71:8e:67:b4:6a:c7:d8:
                    43:08:71:6d:f9:8e:f7:81:eb:6e:28:7e:ec:31:8c:
                    94:46:11:fc:ca:4d:ac:b2:6c:b8:32:fe:c2:1f:f5:
                    8c:24:88:a4:43:1b:0d:e8:34:10:dd:f7:13:71:42:
                    ab:7c:0d:b1:72:85:a8:06:f2:ed:fe:5c:4b:25:24:
                    44:c8:5c:cd:f3:44:59:10:eb:27:c5:2a:1d:dc:db:
                    1d:e7:6f:c6:55:bc:28:52:ee:05:75:0e:5e:7f:ce:
                    b9:cb:bc:c7:8a:4c:fe:8d:5e:98:23:0e:11:2a:7d:
                    a7:08:ad
                Exponent: 65537 (0x10001)
        X509v3 extensions:
            X509v3 Basic Constraints: 
                CA:FALSE
            Netscape Comment: 
                Easy-RSA Generated Certificate
            X509v3 Subject Key Identifier: 
                5B:6A:D1:75:84:96:52:91:42:6D:86:A4:8D:6B:A8:37:4E:06:F0:62
            X509v3 Authority Key Identifier: 
                keyid:12:CD:60:04:D2:A0:80:9E:70:ED:C6:99:B8:7B:2C:C6:52:FD:19:A1
                DirName:/C=US/ST=OH/L=Columbus/O=VikingVPN/OU=MyOrganizationalUnit/CN=VikingVPN CA/name=EasyRSA/emailAddress=me@myhost.mydomain
                serial:CF:35:85:EE:80:BF:2A:3E

            X509v3 Extended Key Usage: 
                TLS Web Client Authentication
            X509v3 Key Usage: 
                Digital Signature
    Signature Algorithm: md5WithRSAEncryption
         7d:5d:69:45:09:47:3e:cc:63:86:49:81:3f:f9:f7:d3:83:c6:
         9c:34:a8:c0:f5:7d:35:4b:74:1c:56:85:b9:4f:68:c8:e4:a7:
         4b:1e:66:4a:54:3b:a5:39:0b:38:12:44:45:26:4c:0d:f5:5b:
         9e:a6:e7:1c:eb:8c:4a:31:83:8d:3b:46:2c:00:7b:13:b2:ea:
         69:db:8f:56:f2:cd:2e:ac:f8:12:6d:b1:c1:91:36:0e:33:09:
         78:df:5f:ac:dd:9f:a3:d7:d7:c7:6c:b6:2f:e6:93:f9:fa:48:
         b4:fb:85:60:1b:d8:61:40:c9:fc:12:cb:b3:6a:97:f5:e4:a1:
         19:b2:3c:d4:1b:e7:a8:ef:5d:23:81:cc:64:ca:f9:25:1f:48:
         bf:37:65:d3:0c:ea:0f:fb:2b:52:ac:9b:0d:32:36:78:a8:91:
         6e:b8:f7:58:01:c5:90:65:c0:90:4a:25:cf:c4:1b:f6:ce:6d:
         d7:24:bb:92:8e:26:c1:f3:fe:9b:67:95:a2:aa:26:e2:ac:23:
         f5:e4:9d:29:80:33:f1:92:45:e2:e9:8d:a2:e6:27:cd:a5:9e:
         ea:ee:ee:15:19:be:86:8f:88:72:9c:f1:02:06:a0:f2:e3:a9:
         89:fc:93:be:26:59:f5:d1:ec:33:17:f7:8f:b2:9d:b0:89:89:
         da:b2:b0:3d:3f:53:e3:54:e7:c1:89:82:02:2e:c5:a5:cd:6a:
         01:0e:54:31:0b:79:b1:76:64:c9:4d:c2:20:d9:2d:dd:8a:f5:
         da:1c:af:68:72:b8:97:db:ba:ad:76:a3:46:fd:eb:b9:66:be:
         f9:07:f7:5b:25:39:6e:1e:84:a1:39:70:68:21:f3:d1:bc:d4:
         29:1c:4f:a8:e4:45:0b:fb:8e:a2:28:bb:55:af:00:bb:bf:54:
         0b:2f:a8:9e:f3:03:6c:a9:96:41:46:ef:11:b1:9d:aa:d2:8f:
         ed:71:d9:1a:6d:c8:2c:84:8c:e1:fb:2d:92:d5:07:d8:d3:8b:
         27:24:c5:96:48:90:ef:01:0f:9b:2d:1a:99:37:ee:27:0a:a5:
         b5:52:48:3e:ad:f7:f9:10:4f:dc:51:ac:87:76:15:b2:ae:f0:
         84:5c:38:b1:b0:a0:1a:4e:7f:b2:02:bc:f1:d8:86:8b:04:67:
         ba:65:d7:c9:77:1f:c8:cc:d8:e7:48:89:24:1b:2b:e9:ae:bb:
         87:60:f6:59:5e:b1:63:f2:14:57:1a:cd:3a:87:77:c2:57:be:
         7a:07:89:f2:53:0d:c8:90:c9:a1:0b:60:35:41:15:dd:3c:4f:
         2a:c7:a2:f4:2b:84:20:f5:36:10:61:e7:87:ef:e1:30:a6:9b:
         bc:67:c9:d5:2f:d3:53:e1
-----BEGIN CERTIFICATE-----
MIIGrTCCBJWgAwIBAgICEYcwDQYJKoZIhvcNAQEEBQAwgawxCzAJBgNVBAYTAlVT
MQswCQYDVQQIEwJPSDERMA8GA1UEBxMIQ29sdW1idXMxEjAQBgNVBAoTCVZpa2lu
Z1ZQTjEdMBsGA1UECxMUTXlPcmdhbml6YXRpb25hbFVuaXQxFTATBgNVBAMTDFZp
a2luZ1ZQTiBDQTEQMA4GA1UEKRMHRWFzeVJTQTEhMB8GCSqGSIb3DQEJARYSbWVA
bXlob3N0Lm15ZG9tYWluMB4XDTE1MDIxNjE4MDkzM1oXDTI1MDIxMzE4MDkzM1ow
HzEdMBsGA1UEAxMUQ2xpZW50MTQ1N0NlcnQ4NDliZTUwggIiMA0GCSqGSIb3DQEB
AQUAA4ICDwAwggIKAoICAQDr23VQCeaD1f6OYKMQr76XK6g8jZajHm6eL02u4krr
w4H3WkT1b1U7xszagkEED+Icol5CtMgG3KcrYWdb802Hl+/TEl6+3ar213pw+1rw
LJ7iKmGNmXM31JGOWoLwFYDlG4jQj+7WZbueqcE5CogyilJ4Q8qeM7Fj25R2CcuW
YnaDvy8uBd0uo1/TgjuJmP6N78D9Y2Div5nLfUGVwsrdOwo8Ab9yTDB5nLB+gLgq
u1PFiRGW+sw7Pn1JjMtZNVVjH9D9UiBE7hQr6nCR4+OPrlFEqtWbeW9MVLxwVu5k
eZVAh8Vml0ctbEyc3qz9ZmydtibfuY2gwv9oAyg8b6VPfhF4NHGNwNGzyhKXcEsc
WW+hXcB5S6Ku8flLoXXBo0xI1eXJOVSdJLfL50rEj41nce4p05NwD1sJU2dJS/zX
S5KHkXKsD0lnTikLA3eYrNLU6Z6NBgKMPjmcDOy8bxaUtrbvTfpUqlTEKR0JEX47
Pr2BryXqviNJJAOU0HVwTVEHwBppIvxbfRh6H0aVcY5ntGrH2EMIcW35jveB624o
fuwxjJRGEfzKTayybLgy/sIf9YwkiKRDGw3oNBDd9xNxQqt8DbFyhagG8u3+XEsl
JETIXM3zRFkQ6yfFKh3c2x3nb8ZVvChS7gV1Dl5/zrnLvMeKTP6NXpgjDhEqfacI
rQIDAQABo4IBYzCCAV8wCQYDVR0TBAIwADAtBglghkgBhvhCAQ0EIBYeRWFzeS1S
U0EgR2VuZXJhdGVkIENlcnRpZmljYXRlMB0GA1UdDgQWBBRbatF1hJZSkUJthqSN
a6g3TgbwYjCB4QYDVR0jBIHZMIHWgBQSzWAE0qCAnnDtxpm4eyzGUv0ZoaGBsqSB
rzCBrDELMAkGA1UEBhMCVVMxCzAJBgNVBAgTAk9IMREwDwYDVQQHEwhDb2x1bWJ1
czESMBAGA1UEChMJVmlraW5nVlBOMR0wGwYDVQQLExRNeU9yZ2FuaXphdGlvbmFs
VW5pdDEVMBMGA1UEAxMMVmlraW5nVlBOIENBMRAwDgYDVQQpEwdFYXN5UlNBMSEw
HwYJKoZIhvcNAQkBFhJtZUBteWhvc3QubXlkb21haW6CCQDPNYXugL8qPjATBgNV
HSUEDDAKBggrBgEFBQcDAjALBgNVHQ8EBAMCB4AwDQYJKoZIhvcNAQEEBQADggIB
AH1daUUJRz7MY4ZJgT/599ODxpw0qMD1fTVLdBxWhblPaMjkp0seZkpUO6U5CzgS
REUmTA31W56m5xzrjEoxg407RiwAexOy6mnbj1byzS6s+BJtscGRNg4zCXjfX6zd
n6PX18dsti/mk/n6SLT7hWAb2GFAyfwSy7Nql/XkoRmyPNQb56jvXSOBzGTK+SUf
SL83ZdMM6g/7K1Ksmw0yNniokW6491gBxZBlwJBKJc/EG/bObdcku5KOJsHz/ptn
laKqJuKsI/XknSmAM/GSReLpjaLmJ82lnuru7hUZvoaPiHKc8QIGoPLjqYn8k74m
WfXR7DMX94+ynbCJidqysD0/U+NU58GJggIuxaXNagEOVDELebF2ZMlNwiDZLd2K
9docr2hyuJfbuq12o0b967lmvvkH91slOW4ehKE5cGgh89G81CkcT6jkRQv7jqIo
u1WvALu/VAsvqJ7zA2yplkFG7xGxnarSj+1x2RptyCyEjOH7LZLVB9jTiyckxZZI
kO8BD5stGpk37icKpbVSSD6t9/kQT9xRrId2FbKu8IRcOLGwoBpOf7ICvPHYhosE
Z7pl18l3H8jM2OdIiSQbK+muu4dg9llesWPyFFcazTqHd8JXvnoHifJTDciQyaEL
YDVBFd08TyrHovQrhCD1NhBh54fv4TCmm7xnydUv01Ph
-----END CERTIFICATE-----
