Certificate:
    Data:
        Version: 3 (0x2)
        Serial Number: 3190 (0xc76)
    Signature Algorithm: md5WithRSAEncryption
        Issuer: C=US, ST=OH, L=Columbus, O=VikingVPN, OU=MyOrganizationalUnit, CN=VikingVPN CA/name=EasyRSA/emailAddress=me@myhost.mydomain
        Validity
            Not Before: Oct 24 16:27:58 2014 GMT
            Not After : Oct 21 16:27:58 2024 GMT
        Subject: CN=Client1104Cert324f8a
        Subject Public Key Info:
            Public Key Algorithm: rsaEncryption
                Public-Key: (4096 bit)
                Modulus:
                    00:bf:8f:ce:85:66:29:7f:f3:d5:a2:ac:50:18:80:
                    30:6a:70:44:bc:3a:86:06:a7:63:0b:69:55:18:76:
                    85:f6:32:41:5e:58:09:2f:cc:f7:bc:dc:cc:85:c0:
                    a5:92:f5:67:c6:5a:f6:eb:1a:19:08:53:ee:5b:0c:
                    f7:a6:d0:b1:9d:78:9f:0b:ff:f1:35:6f:19:88:5d:
                    39:ba:16:63:74:87:41:93:4d:33:0b:40:30:bd:ba:
                    0d:06:0b:be:19:e8:3b:ae:95:66:a1:e7:aa:1f:a2:
                    05:7b:f0:74:27:1e:f1:ea:8b:87:33:c1:e1:b9:3d:
                    e8:4c:e6:fb:fe:a3:aa:fc:81:43:27:e8:65:86:b5:
                    9a:48:7d:e5:d6:a8:db:06:5d:4d:05:ad:23:23:43:
                    19:70:c0:64:f9:61:7d:af:3a:b2:0f:ca:ef:82:1c:
                    c0:99:f7:e7:fb:7e:f3:5a:cd:d7:64:cf:76:7e:79:
                    88:04:5d:26:ba:f7:84:c9:27:d3:bf:b9:af:2e:4f:
                    95:e2:58:a9:3e:81:af:cb:88:88:09:54:9b:19:f9:
                    5d:4f:2c:9d:50:ad:2c:76:46:7b:c2:ab:b4:ab:01:
                    e0:61:82:b1:4d:08:98:5b:66:da:f0:9c:8c:67:54:
                    89:ab:a1:c0:4a:a3:9f:b7:fe:59:09:8b:ed:02:8f:
                    ff:bb:37:96:a5:41:cd:4d:41:af:f4:08:0f:27:9f:
                    71:70:f1:98:8e:3e:57:d4:a5:68:db:00:bd:01:b5:
                    47:f8:8e:14:ab:1a:c1:87:34:3e:c8:e7:72:2e:3f:
                    06:91:5d:01:51:3c:7c:a9:8f:a1:49:84:c1:4e:16:
                    88:2f:da:ad:74:78:5d:ac:34:c2:c8:16:28:83:54:
                    cd:02:47:0b:1b:73:4a:1e:96:95:03:b1:0b:cd:3d:
                    6c:af:86:61:dc:3c:48:f5:1c:b3:ae:03:85:42:56:
                    cf:f5:e6:b5:a5:55:70:4d:09:8b:cc:bc:18:e9:1d:
                    2f:c9:8e:a0:f7:c9:70:da:db:4e:07:6b:b7:46:35:
                    74:ff:0f:4f:c5:ef:51:73:c7:bf:58:07:9f:fb:27:
                    e7:91:ae:91:f9:54:03:c6:5d:5e:28:b7:30:68:aa:
                    0b:df:44:05:51:60:24:50:f6:5e:11:d8:26:08:84:
                    1b:b5:83:c2:56:c1:b2:8b:a3:56:39:80:42:c3:9d:
                    67:55:28:d2:00:36:b6:d5:74:af:4d:cf:b1:71:b9:
                    58:87:15:2c:59:fa:47:56:99:ec:d2:79:76:31:7d:
                    76:99:29:db:75:de:22:ba:98:3b:fe:e7:13:56:97:
                    ec:cd:fc:9a:9e:fc:16:1b:f2:65:09:f0:bb:b7:3e:
                    09:09:45
                Exponent: 65537 (0x10001)
        X509v3 extensions:
            X509v3 Basic Constraints: 
                CA:FALSE
            Netscape Comment: 
                Easy-RSA Generated Certificate
            X509v3 Subject Key Identifier: 
                2B:0B:85:15:D9:4B:BC:85:8B:1D:8C:5C:8E:68:C6:C9:5F:F4:20:38
            X509v3 Authority Key Identifier: 
                keyid:12:CD:60:04:D2:A0:80:9E:70:ED:C6:99:B8:7B:2C:C6:52:FD:19:A1
                DirName:/C=US/ST=OH/L=Columbus/O=VikingVPN/OU=MyOrganizationalUnit/CN=VikingVPN CA/name=EasyRSA/emailAddress=me@myhost.mydomain
                serial:CF:35:85:EE:80:BF:2A:3E

            X509v3 Extended Key Usage: 
                TLS Web Client Authentication
            X509v3 Key Usage: 
                Digital Signature
    Signature Algorithm: md5WithRSAEncryption
         ea:ae:39:e3:31:53:cc:f6:f5:00:83:06:98:02:35:fb:b3:ed:
         1a:1a:da:3a:ce:e1:64:00:50:d6:8d:fc:ea:ab:f7:ac:f9:d3:
         2b:98:cf:3c:67:d1:8e:b9:67:2c:ce:1d:b0:db:3f:00:c0:91:
         42:ce:20:4d:03:bb:ca:ba:8e:0c:d0:09:cf:b1:40:32:f0:68:
         39:84:47:8b:94:89:ff:fc:0b:34:37:1f:c1:43:e4:32:ce:fb:
         aa:a1:74:54:16:c6:5e:a0:5a:02:1f:4b:6c:c5:fe:70:e9:77:
         71:c6:b3:93:db:fa:ee:95:5b:be:b1:97:cf:73:1a:2f:06:37:
         08:96:fd:83:55:33:59:ea:49:20:e5:65:30:cc:a1:70:df:61:
         2c:d0:6c:a6:c3:35:27:fb:c0:8a:e0:0c:3d:c2:59:91:87:cd:
         c0:e7:a2:04:1b:01:2a:07:9d:e8:c4:d3:06:b2:c0:fd:93:ff:
         b6:7d:6a:bb:9b:dc:62:eb:24:41:a5:f8:c6:19:04:c4:6d:8c:
         b1:5e:6b:1b:f1:b5:80:e4:aa:cf:e1:cf:48:7b:36:39:10:a7:
         67:ef:47:a3:50:1d:e7:19:9a:d8:8b:f5:4f:a2:cb:41:18:5b:
         c6:fd:98:f0:81:f7:57:e0:83:44:8e:80:d8:f1:dc:7e:bd:8b:
         85:cf:64:4f:e9:1f:78:e2:27:7c:0a:77:eb:7f:2a:50:6e:6d:
         3a:f9:ec:04:87:25:1b:d6:22:3c:a5:e9:06:e2:ce:8f:7c:9a:
         d9:51:46:71:56:f2:25:cd:6c:77:b0:93:7f:9a:78:9c:e0:61:
         6b:06:f1:8b:58:f0:e9:7d:dc:62:00:00:fa:db:b1:48:55:f5:
         70:33:3d:67:b2:67:64:bb:99:7d:04:d8:b6:df:d5:79:4b:be:
         6d:26:e1:d5:76:8a:e1:1c:a8:35:ab:42:b0:93:c6:54:92:6b:
         70:44:10:75:15:cc:13:04:12:44:64:46:78:b1:02:68:93:52:
         08:61:57:90:c7:04:4d:ae:18:1e:8b:84:e7:83:9e:01:cf:2c:
         1f:91:db:60:83:f6:d0:6a:1b:c1:c8:45:45:23:6c:07:fb:89:
         76:c7:c4:89:52:31:68:66:40:c9:d6:79:50:fb:2d:12:31:e3:
         47:13:17:e5:f6:0c:79:ec:14:ef:91:9d:cb:f5:c4:c7:26:89:
         ed:c3:ee:73:7e:c6:ee:38:3c:53:14:90:cd:54:ee:ac:15:83:
         fd:9b:1c:e9:8e:b1:ad:43:cb:fc:33:45:5b:5c:d2:0f:57:6b:
         1f:42:12:82:56:cb:52:cc:73:93:2d:fb:ce:4e:b0:8a:61:5c:
         62:c1:f2:f2:76:c8:31:c5
-----BEGIN CERTIFICATE-----
MIIGrTCCBJWgAwIBAgICDHYwDQYJKoZIhvcNAQEEBQAwgawxCzAJBgNVBAYTAlVT
MQswCQYDVQQIEwJPSDERMA8GA1UEBxMIQ29sdW1idXMxEjAQBgNVBAoTCVZpa2lu
Z1ZQTjEdMBsGA1UECxMUTXlPcmdhbml6YXRpb25hbFVuaXQxFTATBgNVBAMTDFZp
a2luZ1ZQTiBDQTEQMA4GA1UEKRMHRWFzeVJTQTEhMB8GCSqGSIb3DQEJARYSbWVA
bXlob3N0Lm15ZG9tYWluMB4XDTE0MTAyNDE2Mjc1OFoXDTI0MTAyMTE2Mjc1OFow
HzEdMBsGA1UEAxMUQ2xpZW50MTEwNENlcnQzMjRmOGEwggIiMA0GCSqGSIb3DQEB
AQUAA4ICDwAwggIKAoICAQC/j86FZil/89WirFAYgDBqcES8OoYGp2MLaVUYdoX2
MkFeWAkvzPe83MyFwKWS9WfGWvbrGhkIU+5bDPem0LGdeJ8L//E1bxmIXTm6FmN0
h0GTTTMLQDC9ug0GC74Z6DuulWah56ofogV78HQnHvHqi4czweG5PehM5vv+o6r8
gUMn6GWGtZpIfeXWqNsGXU0FrSMjQxlwwGT5YX2vOrIPyu+CHMCZ9+f7fvNazddk
z3Z+eYgEXSa694TJJ9O/ua8uT5XiWKk+ga/LiIgJVJsZ+V1PLJ1QrSx2RnvCq7Sr
AeBhgrFNCJhbZtrwnIxnVImrocBKo5+3/lkJi+0Cj/+7N5alQc1NQa/0CA8nn3Fw
8ZiOPlfUpWjbAL0BtUf4jhSrGsGHND7I53IuPwaRXQFRPHypj6FJhMFOFogv2q10
eF2sNMLIFiiDVM0CRwsbc0oelpUDsQvNPWyvhmHcPEj1HLOuA4VCVs/15rWlVXBN
CYvMvBjpHS/JjqD3yXDa204Ha7dGNXT/D0/F71Fzx79YB5/7J+eRrpH5VAPGXV4o
tzBoqgvfRAVRYCRQ9l4R2CYIhBu1g8JWwbKLo1Y5gELDnWdVKNIANrbVdK9Nz7Fx
uViHFSxZ+kdWmezSeXYxfXaZKdt13iK6mDv+5xNWl+zN/Jqe/BYb8mUJ8Lu3PgkJ
RQIDAQABo4IBYzCCAV8wCQYDVR0TBAIwADAtBglghkgBhvhCAQ0EIBYeRWFzeS1S
U0EgR2VuZXJhdGVkIENlcnRpZmljYXRlMB0GA1UdDgQWBBQrC4UV2Uu8hYsdjFyO
aMbJX/QgODCB4QYDVR0jBIHZMIHWgBQSzWAE0qCAnnDtxpm4eyzGUv0ZoaGBsqSB
rzCBrDELMAkGA1UEBhMCVVMxCzAJBgNVBAgTAk9IMREwDwYDVQQHEwhDb2x1bWJ1
czESMBAGA1UEChMJVmlraW5nVlBOMR0wGwYDVQQLExRNeU9yZ2FuaXphdGlvbmFs
VW5pdDEVMBMGA1UEAxMMVmlraW5nVlBOIENBMRAwDgYDVQQpEwdFYXN5UlNBMSEw
HwYJKoZIhvcNAQkBFhJtZUBteWhvc3QubXlkb21haW6CCQDPNYXugL8qPjATBgNV
HSUEDDAKBggrBgEFBQcDAjALBgNVHQ8EBAMCB4AwDQYJKoZIhvcNAQEEBQADggIB
AOquOeMxU8z29QCDBpgCNfuz7Roa2jrO4WQAUNaN/Oqr96z50yuYzzxn0Y65ZyzO
HbDbPwDAkULOIE0Du8q6jgzQCc+xQDLwaDmER4uUif/8CzQ3H8FD5DLO+6qhdFQW
xl6gWgIfS2zF/nDpd3HGs5Pb+u6VW76xl89zGi8GNwiW/YNVM1nqSSDlZTDMoXDf
YSzQbKbDNSf7wIrgDD3CWZGHzcDnogQbASoHnejE0waywP2T/7Z9arub3GLrJEGl
+MYZBMRtjLFeaxvxtYDkqs/hz0h7NjkQp2fvR6NQHecZmtiL9U+iy0EYW8b9mPCB
91fgg0SOgNjx3H69i4XPZE/pH3jiJ3wKd+t/KlBubTr57ASHJRvWIjyl6Qbizo98
mtlRRnFW8iXNbHewk3+aeJzgYWsG8YtY8Ol93GIAAPrbsUhV9XAzPWeyZ2S7mX0E
2Lbf1XlLvm0m4dV2iuEcqDWrQrCTxlSSa3BEEHUVzBMEEkRkRnixAmiTUghhV5DH
BE2uGB6LhOeDngHPLB+R22CD9tBqG8HIRUUjbAf7iXbHxIlSMWhmQMnWeVD7LRIx
40cTF+X2DHnsFO+Rncv1xMcmie3D7nN+xu44PFMUkM1U7qwVg/2bHOmOsa1Dy/wz
RVtc0g9Xax9CEoJWy1LMc5Mt+85OsIphXGLB8vJ2yDHF
-----END CERTIFICATE-----
