Certificate:
    Data:
        Version: 3 (0x2)
        Serial Number: 8875 (0x22ab)
    Signature Algorithm: sha256WithRSAEncryption
        Issuer: C=US, ST=OH, L=Columbus, O=VikingVPN, OU=MyOrganizationalUnit, CN=VikingVPN CA/name=EasyRSA/emailAddress=me@myhost.mydomain
        Validity
            Not Before: Aug 22 21:33:23 2016 GMT
            Not After : Aug 20 21:33:23 2026 GMT
        Subject: CN=Client2429Cert948208
        Subject Public Key Info:
            Public Key Algorithm: rsaEncryption
                Public-Key: (4096 bit)
                Modulus:
                    00:a8:a5:e1:f9:d2:31:24:23:a0:30:04:ff:b8:6e:
                    fe:1a:62:6a:a0:c3:4f:70:6b:55:6c:0f:7f:60:0b:
                    00:6f:38:92:30:20:db:25:65:ff:9d:a2:11:34:d8:
                    21:ef:3f:88:b0:d8:bc:ac:5d:76:5d:da:24:3b:42:
                    6c:89:5f:86:0c:0c:87:e7:2a:31:da:89:3d:8e:a8:
                    64:c7:aa:df:32:57:cb:e7:d4:17:d5:87:03:19:c3:
                    c3:ca:a9:54:40:e7:77:15:fa:19:93:f0:9e:5f:54:
                    ca:9c:74:21:62:80:3f:aa:93:5a:3d:01:93:af:0f:
                    a6:2a:6e:a0:8c:48:4e:cd:08:0d:8c:1b:75:7d:9a:
                    9e:b2:62:a0:1c:ae:96:ce:40:29:d8:9a:c9:8f:90:
                    b0:08:13:aa:05:04:2e:ea:88:3c:61:69:ce:76:89:
                    eb:ac:e5:9c:ea:54:98:95:f0:5e:ac:ab:1f:bc:51:
                    69:c1:b0:77:f9:28:2b:87:b8:a0:c2:00:e8:c5:ac:
                    07:08:f7:1e:b3:f6:2e:18:c8:b0:89:6a:1e:55:97:
                    d0:cb:d9:08:02:99:fc:ea:4c:35:42:1c:c4:d6:65:
                    ea:2e:6e:35:d4:9c:ab:3d:c8:e5:08:e7:3b:af:c1:
                    10:8c:9d:e1:bb:73:1b:f0:fa:a8:06:d7:6b:0b:e2:
                    3f:0b:60:b3:64:8b:69:72:3a:a6:79:23:03:eb:7d:
                    8b:4d:87:98:03:40:ca:f1:b4:1e:89:86:56:0b:ed:
                    d1:1d:9b:16:9f:ed:5c:b8:49:9a:e3:2e:ca:f1:06:
                    de:d9:3a:64:06:b8:fd:52:ba:e6:d3:8a:50:98:c0:
                    f6:81:12:28:2b:a6:24:60:2c:e9:8c:e7:d6:65:68:
                    ad:4e:90:73:a0:c8:2e:e4:3d:23:63:b7:f1:3f:9e:
                    0e:44:20:89:16:41:01:da:43:13:39:14:c9:94:db:
                    b3:0b:26:c4:90:5f:e9:b7:f5:57:6a:9c:77:08:00:
                    f4:ac:48:9c:94:dc:d8:a3:0f:be:59:c7:47:5d:cb:
                    d7:8e:1e:dc:95:1b:1c:18:76:0e:fd:fe:0b:f3:78:
                    70:90:98:6f:22:7e:7f:4a:94:4c:18:51:9a:19:0d:
                    c7:7e:d1:c8:c3:00:26:ca:61:b1:87:ed:91:c8:93:
                    74:b9:5e:bc:ec:0d:56:97:39:ab:78:64:2f:34:6c:
                    0a:a9:f4:67:eb:36:44:db:af:7d:16:a7:1a:2e:d1:
                    77:cc:e5:60:8c:18:44:45:b0:5b:10:ab:52:8e:a3:
                    be:a2:74:c8:68:e5:8c:c0:48:13:72:20:3e:08:81:
                    85:17:f1:94:dd:ea:54:09:a0:20:83:37:f9:3e:af:
                    29:4a:f5
                Exponent: 65537 (0x10001)
        X509v3 extensions:
            X509v3 Basic Constraints: 
                CA:FALSE
            Netscape Comment: 
                Easy-RSA Generated Certificate
            X509v3 Subject Key Identifier: 
                21:34:A1:19:C8:EF:5C:4F:4D:55:0B:23:9D:12:21:81:F2:8D:78:C9
            X509v3 Authority Key Identifier: 
                keyid:12:CD:60:04:D2:A0:80:9E:70:ED:C6:99:B8:7B:2C:C6:52:FD:19:A1
                DirName:/C=US/ST=OH/L=Columbus/O=VikingVPN/OU=MyOrganizationalUnit/CN=VikingVPN CA/name=EasyRSA/emailAddress=me@myhost.mydomain
                serial:CF:35:85:EE:80:BF:2A:3E

            X509v3 Extended Key Usage: 
                TLS Web Client Authentication
            X509v3 Key Usage: 
                Digital Signature
    Signature Algorithm: sha256WithRSAEncryption
         c3:6b:18:de:34:c9:28:6f:51:bf:95:f1:1c:98:95:ac:d5:67:
         31:6d:9e:26:3b:2a:fc:73:66:9d:88:52:ad:54:d3:09:34:07:
         75:65:65:97:ab:96:1e:b4:0f:36:e6:db:a2:94:0a:56:ca:78:
         fd:5f:1c:88:a7:d8:5c:3b:e9:db:7c:3f:8d:12:c6:db:51:c7:
         25:89:d7:98:3b:5b:20:da:ea:71:6a:74:a7:00:06:2d:c9:99:
         42:85:6c:25:28:4a:75:bf:fb:3b:f3:20:7b:3f:71:d5:cf:8a:
         90:e1:d7:47:ee:d4:20:47:e0:36:7e:e8:95:28:5b:80:69:fe:
         b8:e0:4e:9d:6a:f5:ca:37:0b:84:ec:f6:22:11:d2:18:1b:1c:
         ea:28:75:dd:11:f1:35:2e:1a:84:35:36:13:26:a9:37:08:e1:
         1b:8a:12:0a:39:3a:9f:58:d0:34:b0:f4:07:d1:35:7e:50:0d:
         3a:a0:07:5e:72:71:ca:07:6b:e7:c9:2f:20:35:ba:c1:a3:89:
         53:4e:a6:a0:28:ef:12:d8:06:4e:1f:5f:a1:73:8c:f6:7a:0a:
         d2:03:bd:a8:c6:31:13:de:64:5e:b3:39:93:49:76:42:a0:cf:
         e8:e1:9c:1c:c7:c8:a9:8d:a3:53:25:df:36:bf:85:61:1a:22:
         59:a0:7c:30:61:94:93:2e:81:cf:d6:40:95:2c:e1:1e:35:04:
         60:08:cb:68:dc:38:58:a4:a0:e1:76:83:8a:50:ec:84:2d:4e:
         84:e5:42:d8:40:a7:51:69:bf:87:33:2f:be:30:f6:86:2d:cb:
         f7:d7:2a:7b:a8:5b:cf:fd:ab:1a:f7:47:a0:15:6a:b7:0c:36:
         e7:6d:3a:6c:15:ca:3c:8f:d1:8a:d5:ac:83:43:11:8f:bf:a5:
         44:38:c9:58:08:72:bf:05:1e:40:00:36:1b:7a:a0:67:4c:78:
         43:be:2a:4c:7e:47:a6:08:c9:71:49:c2:5d:99:da:54:57:e0:
         19:ec:33:48:e0:7d:06:a8:c0:bb:7b:dc:c7:8c:5e:16:4f:5b:
         ae:cf:96:e1:7d:90:49:d7:0f:3a:c4:ee:59:ce:06:28:d3:1b:
         65:02:9b:4c:9f:6e:d6:9b:52:66:00:1e:07:a5:b6:ab:9c:36:
         b2:5f:c9:60:1e:c5:02:32:6f:75:24:59:ac:1c:83:d3:47:7a:
         c4:7d:55:13:e2:4a:9f:5e:0d:5a:f5:ee:ee:9c:c0:c1:a4:5d:
         f6:15:5c:c8:3e:34:6d:ad:ca:73:49:6d:08:84:fe:c2:ec:75:
         6c:d5:1a:de:c1:92:65:9c:e0:80:c8:2b:7e:6f:a9:4d:07:05:
         4c:ed:3f:a7:56:59:86:90
-----BEGIN CERTIFICATE-----
MIIGrTCCBJWgAwIBAgICIqswDQYJKoZIhvcNAQELBQAwgawxCzAJBgNVBAYTAlVT
MQswCQYDVQQIEwJPSDERMA8GA1UEBxMIQ29sdW1idXMxEjAQBgNVBAoTCVZpa2lu
Z1ZQTjEdMBsGA1UECxMUTXlPcmdhbml6YXRpb25hbFVuaXQxFTATBgNVBAMTDFZp
a2luZ1ZQTiBDQTEQMA4GA1UEKRMHRWFzeVJTQTEhMB8GCSqGSIb3DQEJARYSbWVA
bXlob3N0Lm15ZG9tYWluMB4XDTE2MDgyMjIxMzMyM1oXDTI2MDgyMDIxMzMyM1ow
HzEdMBsGA1UEAxMUQ2xpZW50MjQyOUNlcnQ5NDgyMDgwggIiMA0GCSqGSIb3DQEB
AQUAA4ICDwAwggIKAoICAQCopeH50jEkI6AwBP+4bv4aYmqgw09wa1VsD39gCwBv
OJIwINslZf+dohE02CHvP4iw2LysXXZd2iQ7QmyJX4YMDIfnKjHaiT2OqGTHqt8y
V8vn1BfVhwMZw8PKqVRA53cV+hmT8J5fVMqcdCFigD+qk1o9AZOvD6YqbqCMSE7N
CA2MG3V9mp6yYqAcrpbOQCnYmsmPkLAIE6oFBC7qiDxhac52ieus5ZzqVJiV8F6s
qx+8UWnBsHf5KCuHuKDCAOjFrAcI9x6z9i4YyLCJah5Vl9DL2QgCmfzqTDVCHMTW
ZeoubjXUnKs9yOUI5zuvwRCMneG7cxvw+qgG12sL4j8LYLNki2lyOqZ5IwPrfYtN
h5gDQMrxtB6JhlYL7dEdmxaf7Vy4SZrjLsrxBt7ZOmQGuP1SuubTilCYwPaBEigr
piRgLOmM59ZlaK1OkHOgyC7kPSNjt/E/ng5EIIkWQQHaQxM5FMmU27MLJsSQX+m3
9VdqnHcIAPSsSJyU3NijD75Zx0ddy9eOHtyVGxwYdg79/gvzeHCQmG8ifn9KlEwY
UZoZDcd+0cjDACbKYbGH7ZHIk3S5XrzsDVaXOat4ZC80bAqp9GfrNkTbr30Wpxou
0XfM5WCMGERFsFsQq1KOo76idMho5YzASBNyID4IgYUX8ZTd6lQJoCCDN/k+rylK
9QIDAQABo4IBYzCCAV8wCQYDVR0TBAIwADAtBglghkgBhvhCAQ0EIBYeRWFzeS1S
U0EgR2VuZXJhdGVkIENlcnRpZmljYXRlMB0GA1UdDgQWBBQhNKEZyO9cT01VCyOd
EiGB8o14yTCB4QYDVR0jBIHZMIHWgBQSzWAE0qCAnnDtxpm4eyzGUv0ZoaGBsqSB
rzCBrDELMAkGA1UEBhMCVVMxCzAJBgNVBAgTAk9IMREwDwYDVQQHEwhDb2x1bWJ1
czESMBAGA1UEChMJVmlraW5nVlBOMR0wGwYDVQQLExRNeU9yZ2FuaXphdGlvbmFs
VW5pdDEVMBMGA1UEAxMMVmlraW5nVlBOIENBMRAwDgYDVQQpEwdFYXN5UlNBMSEw
HwYJKoZIhvcNAQkBFhJtZUBteWhvc3QubXlkb21haW6CCQDPNYXugL8qPjATBgNV
HSUEDDAKBggrBgEFBQcDAjALBgNVHQ8EBAMCB4AwDQYJKoZIhvcNAQELBQADggIB
AMNrGN40yShvUb+V8RyYlazVZzFtniY7KvxzZp2IUq1U0wk0B3VlZZerlh60Dzbm
26KUClbKeP1fHIin2Fw76dt8P40SxttRxyWJ15g7WyDa6nFqdKcABi3JmUKFbCUo
SnW/+zvzIHs/cdXPipDh10fu1CBH4DZ+6JUoW4Bp/rjgTp1q9co3C4Ts9iIR0hgb
HOoodd0R8TUuGoQ1NhMmqTcI4RuKEgo5Op9Y0DSw9AfRNX5QDTqgB15yccoHa+fJ
LyA1usGjiVNOpqAo7xLYBk4fX6FzjPZ6CtIDvajGMRPeZF6zOZNJdkKgz+jhnBzH
yKmNo1Ml3za/hWEaIlmgfDBhlJMugc/WQJUs4R41BGAIy2jcOFikoOF2g4pQ7IQt
ToTlQthAp1Fpv4czL74w9oYty/fXKnuoW8/9qxr3R6AVarcMNudtOmwVyjyP0YrV
rINDEY+/pUQ4yVgIcr8FHkAANht6oGdMeEO+Kkx+R6YIyXFJwl2Z2lRX4BnsM0jg
fQaowLt73MeMXhZPW67PluF9kEnXDzrE7lnOBijTG2UCm0yfbtabUmYAHgeltquc
NrJfyWAexQIyb3UkWawcg9NHesR9VRPiSp9eDVr17u6cwMGkXfYVXMg+NG2tynNJ
bQiE/sLsdWzVGt7BkmWc4IDIK35vqU0HBUztP6dWWYaQ
-----END CERTIFICATE-----
