Certificate:
    Data:
        Version: 3 (0x2)
        Serial Number: 10333 (0x285d)
    Signature Algorithm: sha256WithRSAEncryption
        Issuer: C=US, ST=OH, L=Columbus, O=VikingVPN, OU=MyOrganizationalUnit, CN=VikingVPN CA/name=EasyRSA/emailAddress=me@myhost.mydomain
        Validity
            Not Before: Mar 19 03:17:04 2017 GMT
            Not After : Mar 17 03:17:04 2027 GMT
        Subject: CN=Client2104Cert025844
        Subject Public Key Info:
            Public Key Algorithm: rsaEncryption
                Public-Key: (4096 bit)
                Modulus:
                    00:97:82:bc:4a:42:55:e3:4c:27:29:eb:a4:d2:ba:
                    bc:7a:ab:b5:22:ee:6b:c5:4f:5b:96:a4:00:38:05:
                    f0:b1:df:03:f4:d7:aa:ae:6d:5f:3c:90:f9:49:e6:
                    3c:5a:d2:2f:d8:8e:dd:db:fc:2f:a4:ae:94:b0:9f:
                    8b:7c:a7:ba:a6:34:86:c4:74:c1:ad:b4:1f:e8:6b:
                    85:03:c4:3e:27:01:37:da:7d:bb:f1:cf:81:fa:24:
                    b4:3f:37:c6:4d:c8:b6:80:45:15:6f:62:2d:f2:e0:
                    69:4b:0f:c6:c3:f2:f9:8e:8c:8d:0d:46:c1:7c:8e:
                    2e:99:6a:c3:f3:7d:40:37:e6:06:97:0e:8e:3d:1f:
                    33:fa:b1:29:d8:07:a3:f6:00:b5:78:dc:ee:9c:9b:
                    92:4c:50:71:8c:40:1b:dd:16:66:ac:d2:c0:2d:ca:
                    2c:e2:45:8b:24:1e:14:49:3b:26:8b:ca:ee:ba:e6:
                    1e:cb:9a:8e:fa:c3:45:61:8f:79:41:ef:8e:de:5f:
                    c3:49:dc:80:c8:47:b7:9e:91:c6:5e:f2:1b:a1:cd:
                    18:06:1c:99:da:88:a3:18:d4:b2:5d:2d:16:b1:1f:
                    e2:a8:b1:73:e8:bc:df:d2:5c:77:27:ec:63:a8:29:
                    81:a1:ba:37:ad:eb:11:0d:b5:3a:6f:20:20:d7:4a:
                    95:7e:9c:3d:c0:4a:5e:89:3e:d3:03:f8:92:3a:cb:
                    23:4f:95:6c:7a:d9:1b:39:4d:16:99:cb:79:3c:16:
                    1d:3c:be:80:b1:b2:37:28:59:8f:b8:41:6d:2b:aa:
                    b6:92:bd:72:54:4e:f0:40:48:2b:a5:1c:59:16:0c:
                    c8:07:4d:e2:df:74:44:f3:7e:95:58:fa:ca:22:1c:
                    37:99:e7:6b:82:f3:60:be:e1:cc:4b:69:11:42:2c:
                    fd:6a:82:92:a0:e0:4e:01:df:2b:1e:07:7c:fe:9a:
                    10:59:53:8a:16:41:d1:38:e6:7e:db:35:9b:41:6d:
                    8f:af:0d:8c:94:ba:f2:a3:76:2d:fb:3c:f6:f8:ff:
                    36:7a:08:6e:8d:1b:97:57:32:12:a4:d6:ec:bf:45:
                    4f:fd:15:96:22:2f:50:e0:a5:07:17:2e:67:4d:60:
                    f9:4b:81:9a:4c:1f:84:b8:86:ec:33:6f:b3:05:bf:
                    8f:76:b4:93:51:c3:29:0b:45:c8:fa:6d:26:d9:72:
                    c9:3e:cd:51:5e:20:a8:99:38:c8:59:94:ab:21:bf:
                    da:47:33:fa:ef:38:78:1a:f7:f7:9f:d4:43:f5:0f:
                    88:ca:c7:d7:a9:af:3a:54:b3:90:33:4c:22:67:1d:
                    bb:2d:c6:dc:03:51:4a:06:38:88:b1:7b:c9:e5:37:
                    a6:d8:91
                Exponent: 65537 (0x10001)
        X509v3 extensions:
            X509v3 Basic Constraints: 
                CA:FALSE
            Netscape Comment: 
                Easy-RSA Generated Certificate
            X509v3 Subject Key Identifier: 
                3A:0D:A2:94:46:EB:4E:14:73:B9:D0:F0:16:B5:93:54:5A:AF:B9:2A
            X509v3 Authority Key Identifier: 
                keyid:12:CD:60:04:D2:A0:80:9E:70:ED:C6:99:B8:7B:2C:C6:52:FD:19:A1
                DirName:/C=US/ST=OH/L=Columbus/O=VikingVPN/OU=MyOrganizationalUnit/CN=VikingVPN CA/name=EasyRSA/emailAddress=me@myhost.mydomain
                serial:CF:35:85:EE:80:BF:2A:3E

            X509v3 Extended Key Usage: 
                TLS Web Client Authentication
            X509v3 Key Usage: 
                Digital Signature
    Signature Algorithm: sha256WithRSAEncryption
         79:20:c8:32:87:83:db:63:46:1a:0c:04:0f:48:6c:4a:6d:d5:
         66:0c:09:04:6a:22:cd:cd:bb:ce:c2:1d:39:b5:f2:43:66:62:
         59:69:37:ae:7f:bb:23:cd:ad:c1:57:2b:29:cf:d2:c1:3a:55:
         80:40:eb:80:ba:19:e8:4c:12:1b:66:bd:75:74:86:16:2a:70:
         b2:33:1c:bf:11:0a:e5:5d:b2:60:1b:9a:1e:bd:0f:fb:2b:8e:
         bb:79:80:3d:8e:3a:a1:38:1e:2c:2d:9a:e4:21:75:f1:7e:cd:
         fe:1f:8d:05:8c:0c:8c:45:ce:44:b7:36:50:91:b4:a0:1f:42:
         5d:3d:c8:b9:ab:48:a6:81:87:fc:bd:12:cc:89:62:4b:84:ab:
         d4:86:af:04:23:4c:2a:52:09:6c:91:ca:14:47:b5:fe:aa:17:
         a7:c3:ec:b3:ad:61:40:17:8f:74:5c:82:8c:60:f1:d5:1d:41:
         97:4b:e6:22:57:b6:3b:dc:ec:3f:43:c4:6a:a4:48:6a:89:66:
         80:5e:18:d4:c2:21:8a:47:a8:b7:b6:67:65:91:43:14:eb:dc:
         10:b0:1a:e8:4e:07:6f:17:30:1f:da:98:8d:85:f5:aa:92:33:
         56:2a:34:d3:17:d3:46:f5:a9:e1:da:05:62:c1:29:f1:7a:53:
         5a:64:c8:d6:cd:66:18:57:49:d9:5b:3a:8c:c1:0a:16:84:fb:
         42:be:58:b9:a7:52:8e:48:7a:55:b9:2f:83:a1:88:52:63:e0:
         2e:a2:56:34:62:b8:be:c6:bf:5a:db:b0:53:b6:21:d7:fb:6f:
         7c:b3:9e:4f:21:eb:37:5c:41:4c:5d:01:6c:fd:b3:cb:42:03:
         3d:e2:30:ab:8e:d1:d4:a8:95:bd:45:b5:c3:b6:44:9f:f0:d0:
         e1:5e:0a:c6:79:23:ef:01:9a:dd:af:03:ce:cc:67:68:25:de:
         e1:2e:ef:75:0f:54:6d:12:fd:b3:4b:13:75:ef:63:76:fa:d7:
         57:23:56:89:37:0d:27:db:55:64:5b:29:b9:45:a5:7c:17:54:
         ba:d5:8a:05:c4:09:86:02:eb:cf:f8:52:0a:fe:d2:be:66:6d:
         48:20:ae:b7:bb:1e:8e:9d:fe:cf:07:38:f7:6f:94:6c:42:aa:
         65:ac:6a:45:de:7e:08:83:29:2d:76:16:e1:99:98:fc:4f:70:
         06:ad:34:f0:71:e8:5b:55:e7:bb:f5:57:e3:f5:14:42:9a:92:
         1b:4d:27:9c:43:50:d4:3a:1a:94:cb:d5:c5:b4:f2:cb:bc:24:
         d0:fb:e6:28:6b:1b:31:f9:69:3d:fc:e9:63:90:c2:a5:44:6a:
         b3:86:5e:e2:a8:95:35:71
-----BEGIN CERTIFICATE-----
MIIGrTCCBJWgAwIBAgICKF0wDQYJKoZIhvcNAQELBQAwgawxCzAJBgNVBAYTAlVT
MQswCQYDVQQIEwJPSDERMA8GA1UEBxMIQ29sdW1idXMxEjAQBgNVBAoTCVZpa2lu
Z1ZQTjEdMBsGA1UECxMUTXlPcmdhbml6YXRpb25hbFVuaXQxFTATBgNVBAMTDFZp
a2luZ1ZQTiBDQTEQMA4GA1UEKRMHRWFzeVJTQTEhMB8GCSqGSIb3DQEJARYSbWVA
bXlob3N0Lm15ZG9tYWluMB4XDTE3MDMxOTAzMTcwNFoXDTI3MDMxNzAzMTcwNFow
HzEdMBsGA1UEAxMUQ2xpZW50MjEwNENlcnQwMjU4NDQwggIiMA0GCSqGSIb3DQEB
AQUAA4ICDwAwggIKAoICAQCXgrxKQlXjTCcp66TSurx6q7Ui7mvFT1uWpAA4BfCx
3wP016qubV88kPlJ5jxa0i/Yjt3b/C+krpSwn4t8p7qmNIbEdMGttB/oa4UDxD4n
ATfafbvxz4H6JLQ/N8ZNyLaARRVvYi3y4GlLD8bD8vmOjI0NRsF8ji6ZasPzfUA3
5gaXDo49HzP6sSnYB6P2ALV43O6cm5JMUHGMQBvdFmas0sAtyiziRYskHhRJOyaL
yu665h7Lmo76w0Vhj3lB747eX8NJ3IDIR7eekcZe8huhzRgGHJnaiKMY1LJdLRax
H+KosXPovN/SXHcn7GOoKYGhujet6xENtTpvICDXSpV+nD3ASl6JPtMD+JI6yyNP
lWx62Rs5TRaZy3k8Fh08voCxsjcoWY+4QW0rqraSvXJUTvBASCulHFkWDMgHTeLf
dETzfpVY+soiHDeZ52uC82C+4cxLaRFCLP1qgpKg4E4B3yseB3z+mhBZU4oWQdE4
5n7bNZtBbY+vDYyUuvKjdi37PPb4/zZ6CG6NG5dXMhKk1uy/RU/9FZYiL1DgpQcX
LmdNYPlLgZpMH4S4huwzb7MFv492tJNRwykLRcj6bSbZcsk+zVFeIKiZOMhZlKsh
v9pHM/rvOHga9/ef1EP1D4jKx9eprzpUs5AzTCJnHbstxtwDUUoGOIixe8nlN6bY
kQIDAQABo4IBYzCCAV8wCQYDVR0TBAIwADAtBglghkgBhvhCAQ0EIBYeRWFzeS1S
U0EgR2VuZXJhdGVkIENlcnRpZmljYXRlMB0GA1UdDgQWBBQ6DaKURutOFHO50PAW
tZNUWq+5KjCB4QYDVR0jBIHZMIHWgBQSzWAE0qCAnnDtxpm4eyzGUv0ZoaGBsqSB
rzCBrDELMAkGA1UEBhMCVVMxCzAJBgNVBAgTAk9IMREwDwYDVQQHEwhDb2x1bWJ1
czESMBAGA1UEChMJVmlraW5nVlBOMR0wGwYDVQQLExRNeU9yZ2FuaXphdGlvbmFs
VW5pdDEVMBMGA1UEAxMMVmlraW5nVlBOIENBMRAwDgYDVQQpEwdFYXN5UlNBMSEw
HwYJKoZIhvcNAQkBFhJtZUBteWhvc3QubXlkb21haW6CCQDPNYXugL8qPjATBgNV
HSUEDDAKBggrBgEFBQcDAjALBgNVHQ8EBAMCB4AwDQYJKoZIhvcNAQELBQADggIB
AHkgyDKHg9tjRhoMBA9IbEpt1WYMCQRqIs3Nu87CHTm18kNmYllpN65/uyPNrcFX
KynP0sE6VYBA64C6GehMEhtmvXV0hhYqcLIzHL8RCuVdsmAbmh69D/srjrt5gD2O
OqE4HiwtmuQhdfF+zf4fjQWMDIxFzkS3NlCRtKAfQl09yLmrSKaBh/y9EsyJYkuE
q9SGrwQjTCpSCWyRyhRHtf6qF6fD7LOtYUAXj3Rcgoxg8dUdQZdL5iJXtjvc7D9D
xGqkSGqJZoBeGNTCIYpHqLe2Z2WRQxTr3BCwGuhOB28XMB/amI2F9aqSM1YqNNMX
00b1qeHaBWLBKfF6U1pkyNbNZhhXSdlbOozBChaE+0K+WLmnUo5IelW5L4OhiFJj
4C6iVjRiuL7Gv1rbsFO2Idf7b3yznk8h6zdcQUxdAWz9s8tCAz3iMKuO0dSolb1F
tcO2RJ/w0OFeCsZ5I+8Bmt2vA87MZ2gl3uEu73UPVG0S/bNLE3XvY3b611cjVok3
DSfbVWRbKblFpXwXVLrVigXECYYC68/4Ugr+0r5mbUggrre7Ho6d/s8HOPdvlGxC
qmWsakXefgiDKS12FuGZmPxPcAatNPBx6FtV57v1V+P1FEKakhtNJ5xDUNQ6GpTL
1cW08su8JND75ihrGzH5aT386WOQwqVEarOGXuKolTVx
-----END CERTIFICATE-----
