Certificate:
    Data:
        Version: 3 (0x2)
        Serial Number: 7977 (0x1f29)
    Signature Algorithm: md5WithRSAEncryption
        Issuer: C=US, ST=OH, L=Columbus, O=VikingVPN, OU=MyOrganizationalUnit, CN=VikingVPN CA/name=EasyRSA/emailAddress=me@myhost.mydomain
        Validity
            Not Before: May 13 22:14:28 2016 GMT
            Not After : May 11 22:14:28 2026 GMT
        Subject: CN=Client1754Certb582dc
        Subject Public Key Info:
            Public Key Algorithm: rsaEncryption
                Public-Key: (4096 bit)
                Modulus:
                    00:d6:77:22:63:a3:10:b7:12:50:be:0d:3c:78:fa:
                    77:fc:0f:a2:b2:bf:e2:23:0d:fe:96:99:6b:04:75:
                    ec:68:06:5b:a6:96:3e:bf:a5:19:e1:99:06:0c:4c:
                    cb:c8:07:9a:5c:dc:c5:c2:e4:1b:0a:5e:5d:08:90:
                    13:45:09:0c:d4:cc:99:7d:a3:1a:7a:d4:e9:70:6b:
                    5a:26:a4:6b:79:da:11:c2:25:07:d9:79:83:b7:50:
                    12:42:f2:61:b9:2a:5c:5c:78:2e:f3:c0:37:5f:aa:
                    ef:67:e8:d8:99:b6:e9:da:9b:04:8c:6e:b1:97:dc:
                    81:5a:3f:9e:15:37:36:d8:c5:c1:bf:69:f7:0a:2b:
                    95:5b:d6:fb:89:dd:73:be:42:8e:9c:5f:db:8e:16:
                    a8:29:65:15:4b:45:3b:4f:b3:4a:0b:37:86:4e:3d:
                    d0:a0:69:cd:a6:1d:cc:e6:2a:05:6e:41:00:9c:6a:
                    a5:11:d9:a7:bd:6e:b5:a3:19:69:c3:10:6e:11:9f:
                    01:0e:6d:12:1c:4d:59:6e:44:dd:08:77:20:b5:57:
                    c1:56:13:59:c7:8f:4f:c6:fc:4b:6a:4e:43:da:c2:
                    25:4d:55:5c:29:67:f0:f8:6c:5d:95:04:83:22:2c:
                    15:66:94:da:b6:49:d4:91:dd:9a:9e:44:49:0f:51:
                    e8:95:d6:53:92:41:ae:a1:66:f3:33:4d:ab:00:62:
                    0d:cf:37:72:d7:bd:cc:e4:69:3c:81:12:70:32:f7:
                    f9:9b:b5:59:f2:7f:ba:17:82:0d:53:53:c1:05:fa:
                    d4:41:06:92:20:04:f5:32:ae:ad:b1:ce:4c:ac:c4:
                    14:90:d5:31:47:55:9f:80:5f:26:2e:c9:31:22:b0:
                    f3:bd:fb:34:79:15:e7:1d:23:cd:13:f5:c3:97:78:
                    0e:23:56:99:a6:36:3a:6a:b9:af:2f:8e:42:ce:7f:
                    67:74:bf:a2:ca:d9:3c:48:f9:dc:b5:cc:a6:d4:84:
                    03:26:3f:78:db:7b:07:91:6c:43:6b:20:c1:eb:0b:
                    f7:ef:9c:09:3f:c2:28:eb:21:51:f2:8b:d4:77:9c:
                    4e:ea:67:4b:5a:ed:cc:ef:57:c4:4d:25:9f:e7:9f:
                    89:93:ae:61:f9:a3:55:3a:20:2c:79:cd:ad:4b:12:
                    8e:c5:6e:97:4c:bd:37:54:a7:c3:6d:14:7d:2e:46:
                    c6:7c:92:44:43:d6:08:eb:fe:a8:23:5e:2c:09:22:
                    cd:69:55:f6:1c:84:d2:75:c2:43:9e:87:70:58:59:
                    85:fa:ab:a5:79:4b:89:e5:f9:e6:ae:f5:4e:47:cf:
                    0c:18:78:b5:2f:b7:1b:47:b4:e8:65:bc:45:09:20:
                    d7:c2:67
                Exponent: 65537 (0x10001)
        X509v3 extensions:
            X509v3 Basic Constraints: 
                CA:FALSE
            Netscape Comment: 
                Easy-RSA Generated Certificate
            X509v3 Subject Key Identifier: 
                18:53:F9:C1:69:BF:C1:6C:35:30:A8:DF:6B:67:2D:71:6D:E3:19:CF
            X509v3 Authority Key Identifier: 
                keyid:12:CD:60:04:D2:A0:80:9E:70:ED:C6:99:B8:7B:2C:C6:52:FD:19:A1
                DirName:/C=US/ST=OH/L=Columbus/O=VikingVPN/OU=MyOrganizationalUnit/CN=VikingVPN CA/name=EasyRSA/emailAddress=me@myhost.mydomain
                serial:CF:35:85:EE:80:BF:2A:3E

            X509v3 Extended Key Usage: 
                TLS Web Client Authentication
            X509v3 Key Usage: 
                Digital Signature
    Signature Algorithm: md5WithRSAEncryption
         18:3d:f9:36:a9:73:5d:c9:de:9c:60:65:74:ed:bc:5c:bd:6b:
         1f:e1:da:f5:17:f3:2a:85:62:1c:ed:ce:e5:51:96:e1:d9:80:
         36:93:cf:d0:64:a7:5b:d1:8f:88:7f:90:f3:99:b3:7f:22:6f:
         fe:b9:35:01:66:30:e6:a1:87:33:c7:f9:1b:a3:56:6e:7e:e1:
         14:61:3b:26:7b:59:19:bf:8d:85:ab:b5:63:eb:69:e0:1b:69:
         75:1d:e4:42:af:04:f9:1a:d6:da:e3:05:a3:87:45:9a:b2:43:
         b7:40:9b:c2:f1:db:7c:25:d9:b0:45:b1:cb:f6:5e:95:c7:71:
         9f:50:72:da:2b:40:b5:1b:30:b7:29:59:40:d8:d2:3d:ea:e1:
         17:f0:2c:70:3e:03:6c:d7:ab:5c:c6:3b:ab:7a:00:23:e6:09:
         2d:fd:cc:49:ec:cf:1d:80:48:54:6c:5c:7e:d0:eb:0e:a1:c7:
         89:30:2c:72:fb:f4:bf:e0:de:a5:33:4e:1e:87:e0:34:32:2e:
         25:8a:0d:1a:f5:85:d8:d8:0a:5c:57:fb:aa:97:03:ce:9a:c2:
         6a:7f:d4:39:7c:2b:64:67:5c:3c:88:35:e6:3c:39:8d:74:be:
         41:08:b5:bd:56:f4:e4:92:8e:7d:c7:87:cd:59:bd:53:bf:d7:
         4b:dc:97:f0:c2:15:ff:fc:dd:7e:01:cc:88:94:2f:72:0d:fa:
         c1:eb:d5:e8:7b:9e:9f:ca:f9:67:2f:1e:4f:c1:55:b8:f2:d2:
         51:23:68:79:de:72:79:7b:17:d4:f5:34:5a:a4:df:44:6c:4c:
         93:b8:27:a3:a5:c9:0f:d2:20:fd:3c:7d:e2:45:71:3b:f9:22:
         1d:f7:c4:3f:7a:52:8c:87:22:50:ae:e2:bb:dc:77:9e:25:c0:
         03:7f:6f:fd:19:f8:25:35:99:ee:17:da:78:f9:fe:b4:5a:b2:
         a8:6e:9e:c0:2f:0c:0c:c6:b7:a1:0f:1e:04:bc:b6:84:a2:8f:
         ef:57:8b:03:b1:be:6a:8b:86:d7:62:af:da:f9:7a:50:03:86:
         8a:4b:8e:8b:ff:01:1b:14:d0:7c:07:81:6e:56:51:fb:d5:ed:
         a9:f0:2f:e7:cd:23:ee:5a:bf:20:94:7a:d4:a0:1b:9a:48:d9:
         35:11:88:10:35:29:9e:ab:c6:4c:91:97:52:37:cd:fd:32:31:
         ee:82:22:aa:f7:5d:db:9f:db:f6:e3:b0:b9:ea:6e:70:4d:9d:
         26:9a:41:55:13:fd:f9:04:c3:a8:d2:30:a1:c3:98:52:d1:f0:
         d5:74:28:38:ff:fd:26:3e:98:4d:ca:56:7d:59:9b:a1:94:de:
         ed:96:62:ac:01:7e:10:8e
-----BEGIN CERTIFICATE-----
MIIGrTCCBJWgAwIBAgICHykwDQYJKoZIhvcNAQEEBQAwgawxCzAJBgNVBAYTAlVT
MQswCQYDVQQIEwJPSDERMA8GA1UEBxMIQ29sdW1idXMxEjAQBgNVBAoTCVZpa2lu
Z1ZQTjEdMBsGA1UECxMUTXlPcmdhbml6YXRpb25hbFVuaXQxFTATBgNVBAMTDFZp
a2luZ1ZQTiBDQTEQMA4GA1UEKRMHRWFzeVJTQTEhMB8GCSqGSIb3DQEJARYSbWVA
bXlob3N0Lm15ZG9tYWluMB4XDTE2MDUxMzIyMTQyOFoXDTI2MDUxMTIyMTQyOFow
HzEdMBsGA1UEAxMUQ2xpZW50MTc1NENlcnRiNTgyZGMwggIiMA0GCSqGSIb3DQEB
AQUAA4ICDwAwggIKAoICAQDWdyJjoxC3ElC+DTx4+nf8D6Kyv+IjDf6WmWsEdexo
Blumlj6/pRnhmQYMTMvIB5pc3MXC5BsKXl0IkBNFCQzUzJl9oxp61Olwa1ompGt5
2hHCJQfZeYO3UBJC8mG5KlxceC7zwDdfqu9n6NiZtunamwSMbrGX3IFaP54VNzbY
xcG/afcKK5Vb1vuJ3XO+Qo6cX9uOFqgpZRVLRTtPs0oLN4ZOPdCgac2mHczmKgVu
QQCcaqUR2ae9brWjGWnDEG4RnwEObRIcTVluRN0IdyC1V8FWE1nHj0/G/EtqTkPa
wiVNVVwpZ/D4bF2VBIMiLBVmlNq2SdSR3ZqeREkPUeiV1lOSQa6hZvMzTasAYg3P
N3LXvczkaTyBEnAy9/mbtVnyf7oXgg1TU8EF+tRBBpIgBPUyrq2xzkysxBSQ1TFH
VZ+AXyYuyTEisPO9+zR5FecdI80T9cOXeA4jVpmmNjpqua8vjkLOf2d0v6LK2TxI
+dy1zKbUhAMmP3jbeweRbENrIMHrC/fvnAk/wijrIVHyi9R3nE7qZ0ta7czvV8RN
JZ/nn4mTrmH5o1U6ICx5za1LEo7FbpdMvTdUp8NtFH0uRsZ8kkRD1gjr/qgjXiwJ
Is1pVfYchNJ1wkOeh3BYWYX6q6V5S4nl+eau9U5HzwwYeLUvtxtHtOhlvEUJINfC
ZwIDAQABo4IBYzCCAV8wCQYDVR0TBAIwADAtBglghkgBhvhCAQ0EIBYeRWFzeS1S
U0EgR2VuZXJhdGVkIENlcnRpZmljYXRlMB0GA1UdDgQWBBQYU/nBab/BbDUwqN9r
Zy1xbeMZzzCB4QYDVR0jBIHZMIHWgBQSzWAE0qCAnnDtxpm4eyzGUv0ZoaGBsqSB
rzCBrDELMAkGA1UEBhMCVVMxCzAJBgNVBAgTAk9IMREwDwYDVQQHEwhDb2x1bWJ1
czESMBAGA1UEChMJVmlraW5nVlBOMR0wGwYDVQQLExRNeU9yZ2FuaXphdGlvbmFs
VW5pdDEVMBMGA1UEAxMMVmlraW5nVlBOIENBMRAwDgYDVQQpEwdFYXN5UlNBMSEw
HwYJKoZIhvcNAQkBFhJtZUBteWhvc3QubXlkb21haW6CCQDPNYXugL8qPjATBgNV
HSUEDDAKBggrBgEFBQcDAjALBgNVHQ8EBAMCB4AwDQYJKoZIhvcNAQEEBQADggIB
ABg9+Tapc13J3pxgZXTtvFy9ax/h2vUX8yqFYhztzuVRluHZgDaTz9Bkp1vRj4h/
kPOZs38ib/65NQFmMOahhzPH+RujVm5+4RRhOyZ7WRm/jYWrtWPraeAbaXUd5EKv
BPka1trjBaOHRZqyQ7dAm8Lx23wl2bBFscv2XpXHcZ9QctorQLUbMLcpWUDY0j3q
4RfwLHA+A2zXq1zGO6t6ACPmCS39zEnszx2ASFRsXH7Q6w6hx4kwLHL79L/g3qUz
Th6H4DQyLiWKDRr1hdjYClxX+6qXA86awmp/1Dl8K2RnXDyINeY8OY10vkEItb1W
9OSSjn3Hh81ZvVO/10vcl/DCFf/83X4BzIiUL3IN+sHr1eh7np/K+WcvHk/BVbjy
0lEjaHnecnl7F9T1NFqk30RsTJO4J6OlyQ/SIP08feJFcTv5Ih33xD96UoyHIlCu
4rvcd54lwAN/b/0Z+CU1me4X2nj5/rRasqhunsAvDAzGt6EPHgS8toSij+9XiwOx
vmqLhtdir9r5elADhopLjov/ARsU0HwHgW5WUfvV7anwL+fNI+5avyCUetSgG5pI
2TURiBA1KZ6rxkyRl1I3zf0yMe6CIqr3Xduf2/bjsLnqbnBNnSaaQVUT/fkEw6jS
MKHDmFLR8NV0KDj//SY+mE3KVn1Zm6GU3u2WYqwBfhCO
-----END CERTIFICATE-----
