Certificate:
    Data:
        Version: 3 (0x2)
        Serial Number: 9575 (0x2567)
    Signature Algorithm: sha256WithRSAEncryption
        Issuer: C=US, ST=OH, L=Columbus, O=VikingVPN, OU=MyOrganizationalUnit, CN=VikingVPN CA/name=EasyRSA/emailAddress=me@myhost.mydomain
        Validity
            Not Before: Nov 28 05:41:26 2016 GMT
            Not After : Nov 26 05:41:26 2026 GMT
        Subject: CN=Client2142Certca823e
        Subject Public Key Info:
            Public Key Algorithm: rsaEncryption
                Public-Key: (4096 bit)
                Modulus:
                    00:e1:b7:aa:d1:4b:73:aa:93:36:b9:f2:81:83:73:
                    ce:ff:15:50:45:5d:ac:e1:f5:a5:34:98:0f:e7:79:
                    6d:3c:a1:24:9a:61:3d:6b:68:d6:82:90:09:79:86:
                    db:46:9d:f5:b0:31:52:df:d8:d0:a3:f8:b5:d8:01:
                    2a:14:64:d9:e5:f9:68:7d:82:19:f2:81:6e:db:1c:
                    68:ed:3d:58:94:d8:0f:91:85:a8:b4:7e:d7:59:f2:
                    e6:b2:42:42:36:37:80:e9:08:5e:a8:da:9b:6d:1d:
                    22:27:8b:74:f6:46:9f:cb:03:9d:c0:d6:c4:55:c0:
                    89:0f:36:ef:07:fd:c9:f3:d7:ee:fd:7e:d5:82:34:
                    ba:50:09:a9:90:34:de:dc:95:8c:c9:9e:c7:4d:de:
                    d0:c7:1f:63:55:72:06:f7:ed:f9:9b:f6:55:c2:c1:
                    6c:3d:f6:f2:17:3a:c6:fc:ca:37:9d:78:a1:c6:82:
                    27:70:8d:be:4e:47:81:e6:7d:8d:61:04:49:ee:c8:
                    7d:b0:cd:ce:fe:92:0e:b5:26:01:3e:7a:0c:5b:24:
                    ef:bd:d1:a7:75:3b:e7:84:4f:04:df:f3:68:a1:e8:
                    2d:27:8d:b4:fa:61:b2:54:5d:a3:0e:77:30:c0:33:
                    f3:cd:73:14:09:fa:a2:16:aa:59:f1:71:99:21:99:
                    fe:b8:25:0c:bc:c5:10:ab:2d:d3:c3:4c:68:1d:84:
                    25:f1:b0:de:62:57:0d:f3:d9:4e:ac:37:35:53:0f:
                    f3:d8:57:00:10:c1:b0:0a:7d:1f:ba:bd:35:f4:63:
                    50:9f:9b:03:44:4f:98:2d:5d:36:26:33:bc:5e:da:
                    35:fd:ab:80:91:fe:7b:f7:1c:49:e3:89:dc:bd:cd:
                    f2:3f:6a:4e:19:d3:a3:89:0a:97:8d:10:93:83:96:
                    b7:2b:4c:e0:f4:b7:bc:a1:58:5f:c9:b9:c5:38:91:
                    75:64:c1:8b:3b:8a:60:a1:0f:c7:22:a6:8e:7b:0b:
                    d4:57:04:1a:f6:64:16:7c:52:ad:a0:c8:e7:31:8a:
                    41:c5:5b:df:20:6b:10:3b:1f:aa:0b:9f:cb:f2:5f:
                    96:38:33:91:e6:4f:f1:a2:8a:8c:09:a2:a0:9c:52:
                    00:ea:83:6c:f1:dd:0d:1d:8c:1e:da:0c:b3:fe:a1:
                    f8:a7:bc:71:56:11:0b:88:e1:bd:ab:e5:f7:71:aa:
                    94:f8:a2:5a:63:db:3d:ea:f4:76:05:0e:71:f0:c2:
                    fd:51:e4:09:79:9a:16:92:e7:66:77:d3:ca:4f:a2:
                    11:17:93:60:d6:52:ec:43:d8:b0:c8:69:0c:5a:0c:
                    db:89:e7:dd:46:c6:0e:23:97:69:75:c4:90:27:60:
                    68:17:b5
                Exponent: 65537 (0x10001)
        X509v3 extensions:
            X509v3 Basic Constraints: 
                CA:FALSE
            Netscape Comment: 
                Easy-RSA Generated Certificate
            X509v3 Subject Key Identifier: 
                64:94:B8:C1:D8:6C:1E:FF:6C:AC:FE:AB:B6:06:3A:11:36:0B:39:92
            X509v3 Authority Key Identifier: 
                keyid:12:CD:60:04:D2:A0:80:9E:70:ED:C6:99:B8:7B:2C:C6:52:FD:19:A1
                DirName:/C=US/ST=OH/L=Columbus/O=VikingVPN/OU=MyOrganizationalUnit/CN=VikingVPN CA/name=EasyRSA/emailAddress=me@myhost.mydomain
                serial:CF:35:85:EE:80:BF:2A:3E

            X509v3 Extended Key Usage: 
                TLS Web Client Authentication
            X509v3 Key Usage: 
                Digital Signature
    Signature Algorithm: sha256WithRSAEncryption
         10:8c:3f:54:f7:41:cf:b1:fa:13:9a:3d:a4:b4:01:d2:f1:99:
         c8:12:88:06:46:70:98:00:cf:75:b1:23:cb:5d:90:67:d9:62:
         18:f8:8e:78:e2:c4:65:52:cb:f3:38:8f:4e:68:1b:d9:c5:32:
         88:cd:24:80:9c:9f:ce:b0:36:b8:cf:23:5a:2a:d7:34:47:26:
         e1:3c:1c:16:da:42:f3:1d:13:a2:1e:d5:89:28:aa:e4:06:5e:
         71:cc:d9:6c:69:0a:60:1b:f5:66:97:90:e1:5e:4f:ff:42:93:
         db:86:5a:b2:74:ff:dd:f1:b6:e6:d3:65:cc:e8:12:5e:f9:23:
         47:f2:52:dd:f6:21:51:e1:9e:8e:4f:5a:33:f2:5c:16:dc:e2:
         45:11:d9:72:f2:b2:3f:51:e5:e8:3b:1f:6d:1e:11:ca:30:71:
         cd:ec:c5:3c:c2:94:6f:0a:d5:f2:30:3f:2d:95:31:2b:c0:7c:
         3c:9b:29:29:3e:eb:b3:5e:a8:65:dd:ba:45:d1:bf:22:e9:01:
         df:ca:a6:bc:d1:80:4c:5b:e9:c9:03:5b:7d:4c:ab:43:d0:80:
         63:eb:01:17:78:d9:10:df:17:85:42:d4:15:fd:44:f9:8a:fb:
         9c:f6:06:ab:73:a3:70:ae:b4:c4:a5:1f:f5:0b:a2:a0:b5:e8:
         55:17:85:35:ae:48:8c:11:29:06:f9:49:d1:7d:14:ac:d1:ad:
         70:56:f0:52:dd:b6:30:ba:42:d1:27:df:1d:1f:9b:a5:b3:41:
         28:2b:d5:53:de:87:a0:91:45:b8:d2:25:1e:2c:35:5e:51:bd:
         ce:c4:f4:c7:04:1f:98:5f:0d:86:0a:5f:df:c8:a4:22:16:f9:
         a0:47:ba:b3:fe:96:d4:b3:c4:40:65:7c:ae:5a:22:c4:a5:84:
         36:09:76:bb:d7:93:3f:79:65:e0:1b:83:a5:96:01:43:ae:df:
         c8:79:70:51:14:9e:c8:03:37:f3:d9:4d:62:90:64:c2:62:db:
         b6:cd:78:9c:a6:9a:d9:b3:ed:6f:84:d0:c5:3c:5e:77:4f:b5:
         63:37:73:b0:16:83:19:6f:e4:ca:d5:d2:c2:35:1a:c7:d5:4b:
         16:7c:07:db:7e:e0:df:ad:c7:96:09:6c:f7:e8:87:a6:40:14:
         49:87:22:4c:6b:9a:0b:2a:5c:2f:d3:3f:f1:4b:22:80:10:60:
         6f:58:4f:6a:17:46:7b:ef:a6:a9:2e:4b:d7:cf:be:c9:d1:21:
         a0:64:60:8d:fe:2c:b9:4d:52:80:c1:b5:c7:8f:3d:cb:2b:b0:
         30:8c:7a:9e:17:59:4f:1e:f7:5a:48:6b:28:aa:f4:45:69:b6:
         13:62:e0:a3:e4:2d:71:dd
-----BEGIN CERTIFICATE-----
MIIGrTCCBJWgAwIBAgICJWcwDQYJKoZIhvcNAQELBQAwgawxCzAJBgNVBAYTAlVT
MQswCQYDVQQIEwJPSDERMA8GA1UEBxMIQ29sdW1idXMxEjAQBgNVBAoTCVZpa2lu
Z1ZQTjEdMBsGA1UECxMUTXlPcmdhbml6YXRpb25hbFVuaXQxFTATBgNVBAMTDFZp
a2luZ1ZQTiBDQTEQMA4GA1UEKRMHRWFzeVJTQTEhMB8GCSqGSIb3DQEJARYSbWVA
bXlob3N0Lm15ZG9tYWluMB4XDTE2MTEyODA1NDEyNloXDTI2MTEyNjA1NDEyNlow
HzEdMBsGA1UEAxMUQ2xpZW50MjE0MkNlcnRjYTgyM2UwggIiMA0GCSqGSIb3DQEB
AQUAA4ICDwAwggIKAoICAQDht6rRS3Oqkza58oGDc87/FVBFXazh9aU0mA/neW08
oSSaYT1raNaCkAl5httGnfWwMVLf2NCj+LXYASoUZNnl+Wh9ghnygW7bHGjtPViU
2A+Rhai0ftdZ8uayQkI2N4DpCF6o2pttHSIni3T2Rp/LA53A1sRVwIkPNu8H/cnz
1+79ftWCNLpQCamQNN7clYzJnsdN3tDHH2NVcgb37fmb9lXCwWw99vIXOsb8yjed
eKHGgidwjb5OR4HmfY1hBEnuyH2wzc7+kg61JgE+egxbJO+90ad1O+eETwTf82ih
6C0njbT6YbJUXaMOdzDAM/PNcxQJ+qIWqlnxcZkhmf64JQy8xRCrLdPDTGgdhCXx
sN5iVw3z2U6sNzVTD/PYVwAQwbAKfR+6vTX0Y1CfmwNET5gtXTYmM7xe2jX9q4CR
/nv3HEnjidy9zfI/ak4Z06OJCpeNEJODlrcrTOD0t7yhWF/JucU4kXVkwYs7imCh
D8cipo57C9RXBBr2ZBZ8Uq2gyOcxikHFW98gaxA7H6oLn8vyX5Y4M5HmT/GiiowJ
oqCcUgDqg2zx3Q0djB7aDLP+ofinvHFWEQuI4b2r5fdxqpT4olpj2z3q9HYFDnHw
wv1R5Al5mhaS52Z308pPohEXk2DWUuxD2LDIaQxaDNuJ591Gxg4jl2l1xJAnYGgX
tQIDAQABo4IBYzCCAV8wCQYDVR0TBAIwADAtBglghkgBhvhCAQ0EIBYeRWFzeS1S
U0EgR2VuZXJhdGVkIENlcnRpZmljYXRlMB0GA1UdDgQWBBRklLjB2Gwe/2ys/qu2
BjoRNgs5kjCB4QYDVR0jBIHZMIHWgBQSzWAE0qCAnnDtxpm4eyzGUv0ZoaGBsqSB
rzCBrDELMAkGA1UEBhMCVVMxCzAJBgNVBAgTAk9IMREwDwYDVQQHEwhDb2x1bWJ1
czESMBAGA1UEChMJVmlraW5nVlBOMR0wGwYDVQQLExRNeU9yZ2FuaXphdGlvbmFs
VW5pdDEVMBMGA1UEAxMMVmlraW5nVlBOIENBMRAwDgYDVQQpEwdFYXN5UlNBMSEw
HwYJKoZIhvcNAQkBFhJtZUBteWhvc3QubXlkb21haW6CCQDPNYXugL8qPjATBgNV
HSUEDDAKBggrBgEFBQcDAjALBgNVHQ8EBAMCB4AwDQYJKoZIhvcNAQELBQADggIB
ABCMP1T3Qc+x+hOaPaS0AdLxmcgSiAZGcJgAz3WxI8tdkGfZYhj4jnjixGVSy/M4
j05oG9nFMojNJICcn86wNrjPI1oq1zRHJuE8HBbaQvMdE6Ie1YkoquQGXnHM2Wxp
CmAb9WaXkOFeT/9Ck9uGWrJ0/93xtubTZczoEl75I0fyUt32IVHhno5PWjPyXBbc
4kUR2XLysj9R5eg7H20eEcowcc3sxTzClG8K1fIwPy2VMSvAfDybKSk+67NeqGXd
ukXRvyLpAd/KprzRgExb6ckDW31Mq0PQgGPrARd42RDfF4VC1BX9RPmK+5z2Bqtz
o3CutMSlH/ULoqC16FUXhTWuSIwRKQb5SdF9FKzRrXBW8FLdtjC6QtEn3x0fm6Wz
QSgr1VPeh6CRRbjSJR4sNV5Rvc7E9McEH5hfDYYKX9/IpCIW+aBHurP+ltSzxEBl
fK5aIsSlhDYJdrvXkz95ZeAbg6WWAUOu38h5cFEUnsgDN/PZTWKQZMJi27bNeJym
mtmz7W+E0MU8XndPtWM3c7AWgxlv5MrV0sI1GsfVSxZ8B9t+4N+tx5YJbPfoh6ZA
FEmHIkxrmgsqXC/TP/FLIoAQYG9YT2oXRnvvpqkuS9fPvsnRIaBkYI3+LLlNUoDB
tcePPcsrsDCMep4XWU8e91pIayiq9EVpthNi4KPkLXHd
-----END CERTIFICATE-----
