Certificate:
    Data:
        Version: 3 (0x2)
        Serial Number: 1951 (0x79f)
    Signature Algorithm: md5WithRSAEncryption
        Issuer: C=US, ST=OH, L=Columbus, O=VikingVPN, OU=MyOrganizationalUnit, CN=VikingVPN CA/name=EasyRSA/emailAddress=me@myhost.mydomain
        Validity
            Not Before: May 24 21:36:02 2014 GMT
            Not After : May 21 21:36:02 2024 GMT
        Subject: CN=Client128Cert33f90c
        Subject Public Key Info:
            Public Key Algorithm: rsaEncryption
                Public-Key: (4096 bit)
                Modulus:
                    00:ac:a1:68:10:5d:01:c0:8f:80:cc:e7:73:f2:c3:
                    b3:ae:1e:73:b3:e2:ed:cd:9c:dc:1a:82:9a:8d:03:
                    f3:a4:00:40:60:7d:77:6c:33:c1:bc:41:c7:8b:94:
                    64:a8:dc:39:78:6d:ef:47:75:c0:74:3d:d8:d4:13:
                    ea:90:8b:1a:c4:1b:87:eb:66:dd:eb:84:25:96:f9:
                    da:95:82:54:a8:f5:2f:d7:99:3c:76:17:94:28:3d:
                    79:ea:48:e4:4a:ed:47:d3:c9:32:5f:05:a2:d9:c5:
                    3f:86:ee:35:05:1b:b3:9a:21:07:66:bd:00:09:b9:
                    fc:10:e1:4f:42:10:d3:67:b7:2e:ec:06:f8:83:4f:
                    21:2e:87:aa:fd:77:99:89:ad:22:db:e5:c5:ac:82:
                    34:f9:7b:87:9a:f8:5e:54:3c:da:b6:93:c0:7c:89:
                    bf:8c:6e:20:c3:b1:5f:4f:b6:33:b1:90:76:93:ba:
                    e7:55:4b:62:43:d1:0b:da:b1:e7:6b:2c:db:06:d5:
                    b9:a8:4d:37:a4:05:ad:c3:a9:e3:4d:c4:05:3b:67:
                    04:47:c0:3d:96:24:d1:91:e3:c2:8e:d6:f7:3a:f0:
                    24:03:fb:f0:09:c4:81:b8:53:3a:f1:36:2f:d3:a9:
                    dd:d7:b5:12:dd:32:20:bc:94:02:33:e2:30:bb:d9:
                    67:06:6d:2e:43:a6:8a:33:7b:3e:a3:07:20:55:e6:
                    0c:a0:ae:0c:7b:0a:e0:37:88:82:f6:4b:1b:87:1f:
                    c9:5e:28:da:1c:04:b7:28:d8:cc:6f:7d:b3:ac:29:
                    07:1c:1e:ff:a0:9b:30:b2:d9:d3:a3:79:b0:1f:bf:
                    3b:ae:07:7e:c4:8e:ce:df:09:48:03:fd:7b:f6:e3:
                    cf:2c:04:50:64:f0:8b:4e:f2:34:c7:f0:26:75:01:
                    86:e0:76:1d:85:fc:fa:c1:6a:f6:1f:16:de:02:f9:
                    d0:1f:f8:6a:a8:42:fd:2a:e0:e9:c8:c6:ca:5a:0d:
                    0a:cc:69:8c:4d:66:60:d5:d0:8f:62:c1:9d:de:92:
                    bc:9b:54:bf:55:b5:c3:65:67:ff:69:8a:0d:8f:4b:
                    fd:30:6a:b2:32:98:a9:92:8a:5f:35:2f:1f:42:e0:
                    51:10:33:71:3e:6d:05:c1:b9:65:85:83:11:4e:e6:
                    7d:dc:98:e5:0b:d7:c6:83:fa:1c:a7:1c:44:d2:1d:
                    54:d3:0e:a7:51:32:93:62:2e:b6:cc:0b:c8:d6:67:
                    4e:50:43:85:06:cf:48:46:c3:5a:86:a6:03:db:bd:
                    40:6c:6f:b0:fd:02:9f:c0:b3:b4:a2:03:dc:26:1d:
                    8d:09:cf:b2:b9:fd:fa:d7:c6:bc:72:0d:1f:4c:a2:
                    8c:a2:6b
                Exponent: 65537 (0x10001)
        X509v3 extensions:
            X509v3 Basic Constraints: 
                CA:FALSE
            Netscape Comment: 
                Easy-RSA Generated Certificate
            X509v3 Subject Key Identifier: 
                44:49:1D:E0:95:81:76:24:1D:45:6D:7B:F6:B5:88:B4:E5:55:27:74
            X509v3 Authority Key Identifier: 
                keyid:12:CD:60:04:D2:A0:80:9E:70:ED:C6:99:B8:7B:2C:C6:52:FD:19:A1
                DirName:/C=US/ST=OH/L=Columbus/O=VikingVPN/OU=MyOrganizationalUnit/CN=VikingVPN CA/name=EasyRSA/emailAddress=me@myhost.mydomain
                serial:CF:35:85:EE:80:BF:2A:3E

            X509v3 Extended Key Usage: 
                TLS Web Client Authentication
            X509v3 Key Usage: 
                Digital Signature
    Signature Algorithm: md5WithRSAEncryption
         56:5c:da:50:a9:42:44:a7:0a:a2:84:89:e3:02:f0:12:12:e1:
         8c:55:a4:9e:3a:98:dd:a6:bb:56:53:0d:65:14:f6:fe:b7:eb:
         76:fd:8b:ad:f8:80:b3:3e:39:a4:c3:34:8a:80:5f:c8:af:6c:
         0a:b2:60:10:16:9d:05:1a:88:ea:5e:34:eb:1f:cc:98:72:a2:
         8a:7d:97:ed:88:cb:de:37:04:5e:a1:28:55:54:82:4b:20:de:
         0f:f5:c0:1f:b8:26:7a:36:e4:13:11:58:33:bc:ff:1d:cf:50:
         e4:d0:96:99:c3:ba:09:3e:f7:62:29:f6:20:a3:c4:66:ad:3d:
         10:11:65:7e:dc:a8:ff:37:32:d5:73:0a:d4:16:70:92:86:9a:
         00:e0:15:5d:e0:3a:2e:3e:24:38:c2:c0:aa:c5:4d:fd:3c:c6:
         2f:2b:0d:6d:c0:d9:d8:b8:af:06:c2:f9:d4:bd:27:bc:ff:4c:
         bf:ed:0b:b3:7a:cf:72:e0:95:95:30:e7:dc:f4:6a:a7:65:08:
         32:46:27:99:c5:12:aa:5b:df:20:18:93:e4:0a:24:63:88:62:
         18:93:28:41:88:49:ee:5a:93:7b:9b:6b:af:82:fd:fa:88:3e:
         dd:65:5c:7f:37:0a:11:5e:2f:9a:21:24:30:25:9d:4e:34:fe:
         9a:57:97:33:de:cf:a0:6d:c1:4f:66:1c:87:a2:3a:06:8a:24:
         09:56:6b:fb:57:02:37:18:46:2f:44:95:c5:35:74:f2:c5:a8:
         a5:93:47:06:32:54:0f:32:a3:5e:37:e4:a0:cc:56:a3:0c:4b:
         7d:82:79:4d:6a:95:12:45:f2:81:5a:0c:c9:ba:c3:63:bf:c8:
         41:2c:08:eb:4a:10:f4:ea:0b:a2:cf:4f:01:b5:96:6d:cb:98:
         4f:40:a4:09:11:1c:2a:12:f9:d0:a5:8a:6e:09:3c:8d:fa:c7:
         59:98:d5:d0:a2:b4:57:82:6b:0f:3d:a8:5d:ca:ec:91:3a:29:
         ab:52:a8:f7:7c:75:fe:9d:9d:35:be:b3:4b:49:40:e4:fd:94:
         cb:67:67:76:37:b5:99:16:21:ac:52:f0:93:81:34:79:a8:0e:
         49:59:83:5c:1f:b7:f3:be:2d:3e:6d:1e:7c:93:fa:2c:1f:f0:
         a2:03:6c:86:c5:34:bc:ce:70:fa:77:61:1a:e7:5a:7d:3e:d8:
         da:43:01:8c:7b:06:77:5d:6f:6b:21:94:98:be:d2:b3:c6:83:
         3b:d8:8b:01:b8:de:c4:63:04:df:10:f8:25:74:bf:e2:d6:f1:
         51:ec:eb:d9:28:b3:0f:19:b5:68:96:e3:84:dc:91:25:e0:44:
         df:ae:43:8f:89:7a:66:39
-----BEGIN CERTIFICATE-----
MIIGrDCCBJSgAwIBAgICB58wDQYJKoZIhvcNAQEEBQAwgawxCzAJBgNVBAYTAlVT
MQswCQYDVQQIEwJPSDERMA8GA1UEBxMIQ29sdW1idXMxEjAQBgNVBAoTCVZpa2lu
Z1ZQTjEdMBsGA1UECxMUTXlPcmdhbml6YXRpb25hbFVuaXQxFTATBgNVBAMTDFZp
a2luZ1ZQTiBDQTEQMA4GA1UEKRMHRWFzeVJTQTEhMB8GCSqGSIb3DQEJARYSbWVA
bXlob3N0Lm15ZG9tYWluMB4XDTE0MDUyNDIxMzYwMloXDTI0MDUyMTIxMzYwMlow
HjEcMBoGA1UEAxMTQ2xpZW50MTI4Q2VydDMzZjkwYzCCAiIwDQYJKoZIhvcNAQEB
BQADggIPADCCAgoCggIBAKyhaBBdAcCPgMznc/LDs64ec7Pi7c2c3BqCmo0D86QA
QGB9d2wzwbxBx4uUZKjcOXht70d1wHQ92NQT6pCLGsQbh+tm3euEJZb52pWCVKj1
L9eZPHYXlCg9eepI5ErtR9PJMl8FotnFP4buNQUbs5ohB2a9AAm5/BDhT0IQ02e3
LuwG+INPIS6Hqv13mYmtItvlxayCNPl7h5r4XlQ82raTwHyJv4xuIMOxX0+2M7GQ
dpO651VLYkPRC9qx52ss2wbVuahNN6QFrcOp403EBTtnBEfAPZYk0ZHjwo7W9zrw
JAP78AnEgbhTOvE2L9Op3de1Et0yILyUAjPiMLvZZwZtLkOmijN7PqMHIFXmDKCu
DHsK4DeIgvZLG4cfyV4o2hwEtyjYzG99s6wpBxwe/6CbMLLZ06N5sB+/O64HfsSO
zt8JSAP9e/bjzywEUGTwi07yNMfwJnUBhuB2HYX8+sFq9h8W3gL50B/4aqhC/Srg
6cjGyloNCsxpjE1mYNXQj2LBnd6SvJtUv1W1w2Vn/2mKDY9L/TBqsjKYqZKKXzUv
H0LgURAzcT5tBcG5ZYWDEU7mfdyY5QvXxoP6HKccRNIdVNMOp1Eyk2IutswLyNZn
TlBDhQbPSEbDWoamA9u9QGxvsP0Cn8CztKID3CYdjQnPsrn9+tfGvHINH0yijKJr
AgMBAAGjggFjMIIBXzAJBgNVHRMEAjAAMC0GCWCGSAGG+EIBDQQgFh5FYXN5LVJT
QSBHZW5lcmF0ZWQgQ2VydGlmaWNhdGUwHQYDVR0OBBYEFERJHeCVgXYkHUVte/a1
iLTlVSd0MIHhBgNVHSMEgdkwgdaAFBLNYATSoICecO3Gmbh7LMZS/RmhoYGypIGv
MIGsMQswCQYDVQQGEwJVUzELMAkGA1UECBMCT0gxETAPBgNVBAcTCENvbHVtYnVz
MRIwEAYDVQQKEwlWaWtpbmdWUE4xHTAbBgNVBAsTFE15T3JnYW5pemF0aW9uYWxV
bml0MRUwEwYDVQQDEwxWaWtpbmdWUE4gQ0ExEDAOBgNVBCkTB0Vhc3lSU0ExITAf
BgkqhkiG9w0BCQEWEm1lQG15aG9zdC5teWRvbWFpboIJAM81he6Avyo+MBMGA1Ud
JQQMMAoGCCsGAQUFBwMCMAsGA1UdDwQEAwIHgDANBgkqhkiG9w0BAQQFAAOCAgEA
VlzaUKlCRKcKooSJ4wLwEhLhjFWknjqY3aa7VlMNZRT2/rfrdv2LrfiAsz45pMM0
ioBfyK9sCrJgEBadBRqI6l406x/MmHKiin2X7YjL3jcEXqEoVVSCSyDeD/XAH7gm
ejbkExFYM7z/Hc9Q5NCWmcO6CT73Yin2IKPEZq09EBFlftyo/zcy1XMK1BZwkoaa
AOAVXeA6Lj4kOMLAqsVN/TzGLysNbcDZ2LivBsL51L0nvP9Mv+0Ls3rPcuCVlTDn
3PRqp2UIMkYnmcUSqlvfIBiT5AokY4hiGJMoQYhJ7lqTe5trr4L9+og+3WVcfzcK
EV4vmiEkMCWdTjT+mleXM97PoG3BT2Ych6I6BookCVZr+1cCNxhGL0SVxTV08sWo
pZNHBjJUDzKjXjfkoMxWowxLfYJ5TWqVEkXygVoMybrDY7/IQSwI60oQ9OoLos9P
AbWWbcuYT0CkCREcKhL50KWKbgk8jfrHWZjV0KK0V4JrDz2oXcrskTopq1Ko93x1
/p2dNb6zS0lA5P2Uy2dndje1mRYhrFLwk4E0eagOSVmDXB+3874tPm0efJP6LB/w
ogNshsU0vM5w+ndhGudafT7Y2kMBjHsGd11vayGUmL7Ss8aDO9iLAbjexGME3xD4
JXS/4tbxUezr2SizDxm1aJbjhNyRJeBE365Dj4l6Zjk=
-----END CERTIFICATE-----
