Certificate:
    Data:
        Version: 3 (0x2)
        Serial Number: 1138 (0x472)
    Signature Algorithm: md5WithRSAEncryption
        Issuer: C=US, ST=OH, L=Columbus, O=VikingVPN, OU=MyOrganizationalUnit, CN=VikingVPN CA/name=EasyRSA/emailAddress=me@myhost.mydomain
        Validity
            Not Before: Feb 23 21:25:53 2014 GMT
            Not After : Feb 21 21:25:53 2024 GMT
        Subject: CN=Client415Certb0dbfc
        Subject Public Key Info:
            Public Key Algorithm: rsaEncryption
                Public-Key: (4096 bit)
                Modulus:
                    00:cd:77:26:58:d0:05:5b:30:36:b2:64:74:ed:9a:
                    b4:9a:9e:b0:e5:a8:ad:90:b8:8f:03:58:74:7b:c5:
                    41:76:17:fe:12:46:21:b3:e9:c2:ea:9a:ed:28:c8:
                    33:30:b9:78:40:c5:6f:ee:91:1c:2d:af:e2:6b:ae:
                    c6:27:ef:a4:6d:66:b1:48:fd:da:11:bd:97:b6:a6:
                    77:6c:90:1b:a4:44:14:e6:51:a1:7a:ab:3d:7e:6b:
                    31:46:c7:b9:e2:59:6d:b6:1f:df:e4:c9:de:1f:3e:
                    1a:d3:ca:b4:80:91:55:a9:be:52:4f:4b:79:f2:77:
                    41:3d:16:f4:e8:bc:1c:c0:36:44:ce:ec:94:95:e5:
                    3a:5c:43:dc:a2:60:13:f4:64:ec:1e:11:b8:54:29:
                    7b:6b:be:07:bd:c4:be:4a:f7:a8:5c:65:bd:98:aa:
                    58:1b:da:9e:65:74:86:f3:60:53:4d:c2:2a:ab:6a:
                    b2:d5:bf:42:92:34:8a:03:b2:58:7c:38:bf:79:e7:
                    b3:61:fc:66:cd:88:b0:38:b1:6f:e6:1f:e0:03:7f:
                    f4:ef:63:39:a4:32:59:d9:c5:01:90:98:fe:ba:f3:
                    3c:d3:9c:b4:19:e7:eb:c6:cd:eb:49:34:56:d0:43:
                    ad:3b:fe:6b:50:56:d6:9d:72:54:ce:55:d7:30:3e:
                    e4:07:0f:e4:4a:6e:27:50:47:97:fd:e4:04:e8:9b:
                    24:ea:e6:0f:d8:e3:ff:27:34:a7:d3:14:c1:cc:99:
                    85:d1:b3:d6:5d:8c:48:ac:38:a2:fc:f3:47:3f:76:
                    a1:05:88:a0:f8:0d:af:78:f0:17:f7:c2:20:42:9e:
                    44:61:b1:2d:24:eb:9f:6c:45:85:9c:70:d2:42:5c:
                    93:f6:b1:a9:f5:fc:99:60:c4:e9:98:9c:9f:ce:71:
                    5c:32:50:41:c1:81:ca:98:c2:1c:40:d7:fa:75:86:
                    a7:31:bf:89:13:e1:32:69:19:f2:56:2f:35:f5:4f:
                    e7:62:40:51:f4:d3:b8:aa:e7:52:9b:28:f3:96:3b:
                    0f:c6:da:57:b9:d5:e0:ed:29:20:ad:bf:00:8f:af:
                    bc:2f:27:37:01:4d:c2:11:8a:b4:99:2e:5c:43:fd:
                    cd:fc:e9:e9:19:b4:3d:2b:c4:cb:7c:93:f9:d9:14:
                    e9:4c:9e:66:db:f1:cd:cf:4e:59:c1:45:b4:16:20:
                    8b:d4:ba:49:38:d6:65:4f:9c:e2:2b:11:e5:be:65:
                    02:47:a1:7c:ee:69:77:e4:7b:23:79:59:20:19:72:
                    3a:86:bc:1c:13:84:79:a2:a6:77:99:91:54:22:7d:
                    64:fe:e0:98:ff:0d:f2:d6:b3:c3:23:00:43:0c:bb:
                    d6:fb:87
                Exponent: 65537 (0x10001)
        X509v3 extensions:
            X509v3 Basic Constraints: 
                CA:FALSE
            Netscape Comment: 
                Easy-RSA Generated Certificate
            X509v3 Subject Key Identifier: 
                AC:C6:C1:A7:C3:83:CD:6F:E7:2B:49:B2:47:C9:0D:B8:30:12:E8:8F
            X509v3 Authority Key Identifier: 
                keyid:12:CD:60:04:D2:A0:80:9E:70:ED:C6:99:B8:7B:2C:C6:52:FD:19:A1
                DirName:/C=US/ST=OH/L=Columbus/O=VikingVPN/OU=MyOrganizationalUnit/CN=VikingVPN CA/name=EasyRSA/emailAddress=me@myhost.mydomain
                serial:CF:35:85:EE:80:BF:2A:3E

            X509v3 Extended Key Usage: 
                TLS Web Client Authentication
            X509v3 Key Usage: 
                Digital Signature
    Signature Algorithm: md5WithRSAEncryption
         98:e0:86:09:cf:4f:3f:5b:f3:d0:bb:e3:89:52:9a:6d:0e:2a:
         53:44:fa:0d:ed:58:66:da:ec:68:8f:5a:fa:3f:15:b6:e4:98:
         c0:98:90:90:c4:3f:02:63:ef:4b:b8:7c:40:1f:72:bc:1f:05:
         84:90:87:a5:bf:6a:f3:4a:bd:77:82:66:1b:5a:00:07:5c:c4:
         d2:3b:fe:c7:9c:72:09:1e:ca:f9:29:86:f4:b2:ab:f7:4e:a9:
         7a:28:e4:78:ca:0c:15:a8:b9:30:74:c0:63:a7:2d:f5:a2:76:
         2c:57:e1:44:38:d3:f1:a9:19:cd:23:16:3f:18:b0:2b:0b:6d:
         7c:69:f3:e9:d4:b9:aa:c1:db:56:26:80:39:0f:36:be:d0:38:
         c9:08:27:56:c8:34:2e:c0:5f:f1:ec:b3:e3:4c:3f:e9:3f:de:
         df:fb:1b:3f:cd:a5:92:02:84:90:c3:cc:bc:c6:3a:86:15:63:
         d7:29:cb:d3:09:b6:9d:eb:2d:e4:ef:40:38:5f:8d:73:60:a4:
         48:79:a0:db:65:7f:65:21:39:93:e8:cf:95:70:a0:54:27:36:
         f6:40:1f:27:ae:0a:89:48:cc:20:bb:15:18:74:68:3f:97:fb:
         e2:ce:17:55:b8:bf:f6:ef:df:bf:25:3c:9f:48:31:92:9c:12:
         3f:4f:6a:d5:46:a1:f2:91:a4:d2:da:80:e6:be:9a:75:61:32:
         fe:8c:a4:05:b9:9e:e3:4e:19:cb:a0:5a:71:ca:12:63:d4:d1:
         1d:74:d4:5d:d5:4c:cc:c5:a3:42:70:28:9e:01:9c:27:95:b8:
         01:b0:00:00:03:96:58:c7:21:5a:66:e2:d5:6f:87:c4:8b:ac:
         31:f3:59:05:6d:5f:30:c4:66:0f:fa:3e:3c:e5:f2:e3:98:da:
         a6:2b:d3:60:7c:e1:d8:42:de:68:67:73:54:04:b8:1b:76:db:
         b0:32:44:35:39:9e:35:3c:c9:7a:72:83:0c:13:18:be:7d:ef:
         99:09:ba:ea:f3:cd:05:c7:b5:b3:8b:87:84:95:53:c5:4f:84:
         d5:b8:c4:98:34:26:a7:0b:62:18:73:fb:43:29:5c:2c:ca:25:
         97:45:e3:b8:ea:2b:db:fd:4f:9a:1c:63:2d:18:3a:80:79:63:
         cb:df:a9:a6:f8:47:bc:95:a0:41:0e:3c:cd:a0:91:30:a2:b2:
         cb:60:54:18:13:be:78:51:1d:ad:94:3c:19:75:5a:fa:83:06:
         3f:79:c5:5f:71:9e:b4:a9:0f:b7:4a:ad:bf:5b:b3:47:cf:d9:
         5e:8d:c5:6d:2e:7d:09:49:2e:bb:25:b1:71:3e:01:88:08:cc:
         fa:6a:16:f0:a9:a3:24:8a
-----BEGIN CERTIFICATE-----
MIIGrDCCBJSgAwIBAgICBHIwDQYJKoZIhvcNAQEEBQAwgawxCzAJBgNVBAYTAlVT
MQswCQYDVQQIEwJPSDERMA8GA1UEBxMIQ29sdW1idXMxEjAQBgNVBAoTCVZpa2lu
Z1ZQTjEdMBsGA1UECxMUTXlPcmdhbml6YXRpb25hbFVuaXQxFTATBgNVBAMTDFZp
a2luZ1ZQTiBDQTEQMA4GA1UEKRMHRWFzeVJTQTEhMB8GCSqGSIb3DQEJARYSbWVA
bXlob3N0Lm15ZG9tYWluMB4XDTE0MDIyMzIxMjU1M1oXDTI0MDIyMTIxMjU1M1ow
HjEcMBoGA1UEAxMTQ2xpZW50NDE1Q2VydGIwZGJmYzCCAiIwDQYJKoZIhvcNAQEB
BQADggIPADCCAgoCggIBAM13JljQBVswNrJkdO2atJqesOWorZC4jwNYdHvFQXYX
/hJGIbPpwuqa7SjIMzC5eEDFb+6RHC2v4muuxifvpG1msUj92hG9l7amd2yQG6RE
FOZRoXqrPX5rMUbHueJZbbYf3+TJ3h8+GtPKtICRVam+Uk9LefJ3QT0W9Oi8HMA2
RM7slJXlOlxD3KJgE/Rk7B4RuFQpe2u+B73Evkr3qFxlvZiqWBvanmV0hvNgU03C
KqtqstW/QpI0igOyWHw4v3nns2H8Zs2IsDixb+Yf4AN/9O9jOaQyWdnFAZCY/rrz
PNOctBnn68bN60k0VtBDrTv+a1BW1p1yVM5V1zA+5AcP5EpuJ1BHl/3kBOibJOrm
D9jj/yc0p9MUwcyZhdGz1l2MSKw4ovzzRz92oQWIoPgNr3jwF/fCIEKeRGGxLSTr
n2xFhZxw0kJck/axqfX8mWDE6Zicn85xXDJQQcGBypjCHEDX+nWGpzG/iRPhMmkZ
8lYvNfVP52JAUfTTuKrnUpso85Y7D8baV7nV4O0pIK2/AI+vvC8nNwFNwhGKtJku
XEP9zfzp6Rm0PSvEy3yT+dkU6UyeZtvxzc9OWcFFtBYgi9S6STjWZU+c4isR5b5l
AkehfO5pd+R7I3lZIBlyOoa8HBOEeaKmd5mRVCJ9ZP7gmP8N8tazwyMAQwy71vuH
AgMBAAGjggFjMIIBXzAJBgNVHRMEAjAAMC0GCWCGSAGG+EIBDQQgFh5FYXN5LVJT
QSBHZW5lcmF0ZWQgQ2VydGlmaWNhdGUwHQYDVR0OBBYEFKzGwafDg81v5ytJskfJ
DbgwEuiPMIHhBgNVHSMEgdkwgdaAFBLNYATSoICecO3Gmbh7LMZS/RmhoYGypIGv
MIGsMQswCQYDVQQGEwJVUzELMAkGA1UECBMCT0gxETAPBgNVBAcTCENvbHVtYnVz
MRIwEAYDVQQKEwlWaWtpbmdWUE4xHTAbBgNVBAsTFE15T3JnYW5pemF0aW9uYWxV
bml0MRUwEwYDVQQDEwxWaWtpbmdWUE4gQ0ExEDAOBgNVBCkTB0Vhc3lSU0ExITAf
BgkqhkiG9w0BCQEWEm1lQG15aG9zdC5teWRvbWFpboIJAM81he6Avyo+MBMGA1Ud
JQQMMAoGCCsGAQUFBwMCMAsGA1UdDwQEAwIHgDANBgkqhkiG9w0BAQQFAAOCAgEA
mOCGCc9PP1vz0LvjiVKabQ4qU0T6De1YZtrsaI9a+j8VtuSYwJiQkMQ/AmPvS7h8
QB9yvB8FhJCHpb9q80q9d4JmG1oAB1zE0jv+x5xyCR7K+SmG9LKr906peijkeMoM
Fai5MHTAY6ct9aJ2LFfhRDjT8akZzSMWPxiwKwttfGnz6dS5qsHbViaAOQ82vtA4
yQgnVsg0LsBf8eyz40w/6T/e3/sbP82lkgKEkMPMvMY6hhVj1ynL0wm2nest5O9A
OF+Nc2CkSHmg22V/ZSE5k+jPlXCgVCc29kAfJ64KiUjMILsVGHRoP5f74s4XVbi/
9u/fvyU8n0gxkpwSP09q1Uah8pGk0tqA5r6adWEy/oykBbme404Zy6BaccoSY9TR
HXTUXdVMzMWjQnAongGcJ5W4AbAAAAOWWMchWmbi1W+HxIusMfNZBW1fMMRmD/o+
POXy45japivTYHzh2ELeaGdzVAS4G3bbsDJENTmeNTzJenKDDBMYvn3vmQm66vPN
Bce1s4uHhJVTxU+E1bjEmDQmpwtiGHP7QylcLMoll0XjuOor2/1PmhxjLRg6gHlj
y9+ppvhHvJWgQQ48zaCRMKKyy2BUGBO+eFEdrZQ8GXVa+oMGP3nFX3GetKkPt0qt
v1uzR8/ZXo3FbS59CUkuuyWxcT4BiAjM+moW8KmjJIo=
-----END CERTIFICATE-----
