Certificate:
    Data:
        Version: 3 (0x2)
        Serial Number: 558 (0x22e)
    Signature Algorithm: md5WithRSAEncryption
        Issuer: C=US, ST=OH, L=Columbus, O=VikingVPN, OU=MyOrganizationalUnit, CN=VikingVPN CA/name=EasyRSA/emailAddress=me@myhost.mydomain
        Validity
            Not Before: Dec 12 03:37:25 2013 GMT
            Not After : Dec 10 03:37:25 2023 GMT
        Subject: CN=Client228Cert207c61
        Subject Public Key Info:
            Public Key Algorithm: rsaEncryption
                Public-Key: (4096 bit)
                Modulus:
                    00:dc:82:80:63:11:54:d8:3a:ad:82:da:23:e1:fb:
                    0d:a4:72:31:c7:32:e4:78:1a:fc:bb:21:8c:d5:3e:
                    00:3a:5b:3c:cc:88:8e:d9:5f:1e:25:ed:a0:6e:35:
                    5c:7a:1d:e5:f3:53:c6:fa:07:d2:22:7b:27:59:74:
                    55:4f:a0:08:ed:6d:75:08:df:03:82:f7:61:42:98:
                    c3:e9:11:cb:13:d2:88:26:e9:3e:ca:18:8d:19:8d:
                    fb:b1:09:ba:cc:fa:5c:1d:8a:4c:d5:0c:44:fa:8e:
                    5c:49:3a:ff:3f:eb:ce:c0:5c:5a:af:6f:77:80:3e:
                    5e:c4:b1:18:93:c1:9b:e9:90:18:0d:30:0f:b3:ef:
                    a0:74:cf:d0:81:f9:89:87:64:4d:4c:5c:aa:31:28:
                    b4:0d:05:b2:ec:ea:14:9c:49:6e:02:33:9f:e4:56:
                    29:e3:da:55:1f:15:79:77:e7:0d:54:be:b8:1c:cf:
                    a7:2d:2d:f4:cc:19:89:09:e3:38:27:15:dc:b3:47:
                    4b:dd:41:43:c0:fc:81:91:37:89:2a:66:95:d2:3d:
                    4c:64:d5:d1:e5:ce:dc:bd:55:63:67:a2:d1:5c:f7:
                    87:99:af:80:b5:e3:3f:f7:d7:75:ec:d6:01:f1:08:
                    23:fb:b5:4f:ed:f5:0f:49:67:54:82:8d:f1:f6:23:
                    5a:7e:a0:61:b2:06:a7:7c:39:a6:28:21:e0:cc:b7:
                    8f:b4:5a:79:8b:ed:8d:a6:c8:d3:e6:0d:62:a1:54:
                    bf:96:05:18:b0:99:aa:09:4b:ee:b2:37:d2:06:3a:
                    ae:96:7c:22:d8:4c:c1:b9:78:fb:2a:44:24:ed:fe:
                    0d:15:65:44:09:a6:93:c5:84:eb:6b:e4:4b:e0:43:
                    bf:6d:43:b8:64:2e:c9:f9:f6:1e:ad:a2:b6:f7:8b:
                    52:12:e0:f7:6a:42:cb:8a:c3:ab:ed:3b:90:cf:d0:
                    77:a9:7d:23:84:f6:40:14:01:ad:40:60:02:d5:a4:
                    58:89:53:05:30:f8:ef:b5:75:71:9e:14:51:a0:d0:
                    8b:27:9c:9f:80:1a:f1:f8:dd:81:ba:96:fe:a1:dd:
                    6f:f0:97:e0:fd:3a:1e:f7:86:83:46:41:b3:67:e5:
                    04:78:fb:60:d3:6d:c7:ed:c5:97:6e:9e:39:1d:61:
                    7b:bf:1a:d5:a8:de:78:4f:81:ed:cc:0a:7a:4f:c1:
                    4f:ad:05:a6:23:7c:cb:ff:65:c2:e8:e0:14:38:15:
                    be:71:3e:8d:a5:fe:d8:81:0c:54:9f:16:bc:b6:95:
                    0d:ab:47:f2:b7:20:c8:d5:7e:fe:7f:22:20:b9:f8:
                    15:39:55:3f:2a:19:fb:0d:8e:fd:65:e7:ca:5d:c5:
                    c6:4c:9d
                Exponent: 65537 (0x10001)
        X509v3 extensions:
            X509v3 Basic Constraints: 
                CA:FALSE
            Netscape Comment: 
                Easy-RSA Generated Certificate
            X509v3 Subject Key Identifier: 
                24:38:09:2C:65:E6:1D:6B:E6:85:3E:2F:C9:95:B0:0E:91:E3:47:4B
            X509v3 Authority Key Identifier: 
                keyid:12:CD:60:04:D2:A0:80:9E:70:ED:C6:99:B8:7B:2C:C6:52:FD:19:A1
                DirName:/C=US/ST=OH/L=Columbus/O=VikingVPN/OU=MyOrganizationalUnit/CN=VikingVPN CA/name=EasyRSA/emailAddress=me@myhost.mydomain
                serial:CF:35:85:EE:80:BF:2A:3E

            X509v3 Extended Key Usage: 
                TLS Web Client Authentication
            X509v3 Key Usage: 
                Digital Signature
    Signature Algorithm: md5WithRSAEncryption
         17:4d:86:37:c9:c7:ce:f5:6c:9b:5b:66:82:09:33:ea:37:fd:
         5b:c9:c3:8c:47:4f:43:31:ed:93:9b:c0:10:9b:88:9d:e7:2d:
         19:95:2d:af:a9:f7:75:32:1e:d9:dc:8f:04:62:85:96:e9:b2:
         24:cb:75:0c:f0:48:48:dd:02:55:27:f8:d2:ca:a4:bd:4f:d6:
         8c:1a:1e:e7:6a:b3:84:8b:82:06:36:ae:85:70:ea:9e:dc:e0:
         93:99:27:79:62:fd:cf:ad:c9:0a:eb:a6:45:68:ba:64:4e:90:
         73:c9:be:b6:36:8b:10:fb:7a:6d:d5:a1:8d:f9:c9:22:02:3e:
         24:de:2c:bf:a6:30:fa:46:ff:38:3e:1f:19:4a:73:0a:9f:20:
         36:bb:33:c9:67:35:fb:59:aa:4e:7e:03:c6:3c:6e:3c:5d:b5:
         56:7c:0a:1e:f0:df:24:0c:b3:a8:ad:68:ad:f7:21:45:06:59:
         7e:f0:dc:d2:fa:fa:b6:0a:cb:ba:7b:cd:d8:f9:5d:f6:7f:0d:
         63:38:54:c7:80:79:4b:1f:7e:11:8d:79:7f:6f:78:ed:01:7b:
         50:e2:52:6c:ba:ad:a6:44:31:9d:9e:88:dd:f2:f7:21:e0:88:
         c8:9b:31:4b:89:37:8b:6b:dd:b3:01:b1:65:c0:db:4a:43:b6:
         a6:4e:0e:00:c8:67:94:7e:bc:1f:d2:20:c1:31:a5:e8:16:3f:
         83:75:82:5a:a7:6e:21:e1:1e:ac:72:e8:d1:03:35:03:1e:15:
         af:20:37:ab:ab:02:d8:66:4e:c6:5c:67:85:a9:f8:ae:b9:9a:
         d7:d6:66:e7:af:41:57:c3:89:e7:eb:40:91:ee:75:b8:ea:71:
         a7:d4:2f:51:d1:cd:83:a6:85:cb:35:80:74:ef:ec:5a:60:fd:
         47:4d:81:17:b6:ca:9c:5f:e7:24:ad:24:a6:2b:94:69:44:1a:
         29:d8:48:23:03:15:25:32:f6:0c:73:27:9b:34:64:fc:a8:ef:
         20:10:79:01:59:d4:af:67:9b:96:f0:cc:18:73:f9:cc:d8:c0:
         ea:60:3e:10:9f:69:a0:d8:c2:bf:d6:7f:66:09:81:ba:9b:3b:
         96:a5:4b:d5:56:42:3f:90:1e:9c:3d:c9:9e:89:ff:e4:10:85:
         6d:d9:43:ad:cc:5b:1e:4b:0e:68:df:ce:96:46:3e:3c:0d:f3:
         e8:7f:ae:75:56:f7:01:ce:7a:17:50:50:a9:08:61:d8:a2:0c:
         dc:1b:3a:35:e5:94:31:4f:3f:e7:ca:9c:59:a6:c9:4e:04:b5:
         83:be:9e:45:fc:08:a4:33:a1:58:09:59:4f:01:3f:cd:6c:1e:
         b0:08:15:90:2f:83:60:38
-----BEGIN CERTIFICATE-----
MIIGrDCCBJSgAwIBAgICAi4wDQYJKoZIhvcNAQEEBQAwgawxCzAJBgNVBAYTAlVT
MQswCQYDVQQIEwJPSDERMA8GA1UEBxMIQ29sdW1idXMxEjAQBgNVBAoTCVZpa2lu
Z1ZQTjEdMBsGA1UECxMUTXlPcmdhbml6YXRpb25hbFVuaXQxFTATBgNVBAMTDFZp
a2luZ1ZQTiBDQTEQMA4GA1UEKRMHRWFzeVJTQTEhMB8GCSqGSIb3DQEJARYSbWVA
bXlob3N0Lm15ZG9tYWluMB4XDTEzMTIxMjAzMzcyNVoXDTIzMTIxMDAzMzcyNVow
HjEcMBoGA1UEAxMTQ2xpZW50MjI4Q2VydDIwN2M2MTCCAiIwDQYJKoZIhvcNAQEB
BQADggIPADCCAgoCggIBANyCgGMRVNg6rYLaI+H7DaRyMccy5Hga/LshjNU+ADpb
PMyIjtlfHiXtoG41XHod5fNTxvoH0iJ7J1l0VU+gCO1tdQjfA4L3YUKYw+kRyxPS
iCbpPsoYjRmN+7EJusz6XB2KTNUMRPqOXEk6/z/rzsBcWq9vd4A+XsSxGJPBm+mQ
GA0wD7PvoHTP0IH5iYdkTUxcqjEotA0FsuzqFJxJbgIzn+RWKePaVR8VeXfnDVS+
uBzPpy0t9MwZiQnjOCcV3LNHS91BQ8D8gZE3iSpmldI9TGTV0eXO3L1VY2ei0Vz3
h5mvgLXjP/fXdezWAfEII/u1T+31D0lnVIKN8fYjWn6gYbIGp3w5pigh4My3j7Ra
eYvtjabI0+YNYqFUv5YFGLCZqglL7rI30gY6rpZ8IthMwbl4+ypEJO3+DRVlRAmm
k8WE62vkS+BDv21DuGQuyfn2Hq2itveLUhLg92pCy4rDq+07kM/Qd6l9I4T2QBQB
rUBgAtWkWIlTBTD477V1cZ4UUaDQiyecn4Aa8fjdgbqW/qHdb/CX4P06HveGg0ZB
s2flBHj7YNNtx+3Fl26eOR1he78a1ajeeE+B7cwKek/BT60FpiN8y/9lwujgFDgV
vnE+jaX+2IEMVJ8WvLaVDatH8rcgyNV+/n8iILn4FTlVPyoZ+w2O/WXnyl3Fxkyd
AgMBAAGjggFjMIIBXzAJBgNVHRMEAjAAMC0GCWCGSAGG+EIBDQQgFh5FYXN5LVJT
QSBHZW5lcmF0ZWQgQ2VydGlmaWNhdGUwHQYDVR0OBBYEFCQ4CSxl5h1r5oU+L8mV
sA6R40dLMIHhBgNVHSMEgdkwgdaAFBLNYATSoICecO3Gmbh7LMZS/RmhoYGypIGv
MIGsMQswCQYDVQQGEwJVUzELMAkGA1UECBMCT0gxETAPBgNVBAcTCENvbHVtYnVz
MRIwEAYDVQQKEwlWaWtpbmdWUE4xHTAbBgNVBAsTFE15T3JnYW5pemF0aW9uYWxV
bml0MRUwEwYDVQQDEwxWaWtpbmdWUE4gQ0ExEDAOBgNVBCkTB0Vhc3lSU0ExITAf
BgkqhkiG9w0BCQEWEm1lQG15aG9zdC5teWRvbWFpboIJAM81he6Avyo+MBMGA1Ud
JQQMMAoGCCsGAQUFBwMCMAsGA1UdDwQEAwIHgDANBgkqhkiG9w0BAQQFAAOCAgEA
F02GN8nHzvVsm1tmggkz6jf9W8nDjEdPQzHtk5vAEJuInectGZUtr6n3dTIe2dyP
BGKFlumyJMt1DPBISN0CVSf40sqkvU/WjBoe52qzhIuCBjauhXDqntzgk5kneWL9
z63JCuumRWi6ZE6Qc8m+tjaLEPt6bdWhjfnJIgI+JN4sv6Yw+kb/OD4fGUpzCp8g
NrszyWc1+1mqTn4DxjxuPF21VnwKHvDfJAyzqK1orfchRQZZfvDc0vr6tgrLunvN
2Pld9n8NYzhUx4B5Sx9+EY15f2947QF7UOJSbLqtpkQxnZ6I3fL3IeCIyJsxS4k3
i2vdswGxZcDbSkO2pk4OAMhnlH68H9IgwTGl6BY/g3WCWqduIeEerHLo0QM1Ax4V
ryA3q6sC2GZOxlxnhan4rrma19Zm569BV8OJ5+tAke51uOpxp9QvUdHNg6aFyzWA
dO/sWmD9R02BF7bKnF/nJK0kpiuUaUQaKdhIIwMVJTL2DHMnmzRk/KjvIBB5AVnU
r2eblvDMGHP5zNjA6mA+EJ9poNjCv9Z/ZgmBups7lqVL1VZCP5AenD3Jnon/5BCF
bdlDrcxbHksOaN/OlkY+PA3z6H+udVb3Ac56F1BQqQhh2KIM3Bs6NeWUMU8/58qc
WabJTgS1g76eRfwIpDOhWAlZTwE/zWwesAgVkC+DYDg=
-----END CERTIFICATE-----
