Certificate:
    Data:
        Version: 3 (0x2)
        Serial Number: 5706 (0x164a)
    Signature Algorithm: md5WithRSAEncryption
        Issuer: C=US, ST=OH, L=Columbus, O=VikingVPN, OU=MyOrganizationalUnit, CN=VikingVPN CA/name=EasyRSA/emailAddress=me@myhost.mydomain
        Validity
            Not Before: Jul  5 00:39:16 2015 GMT
            Not After : Jul  2 00:39:16 2025 GMT
        Subject: CN=Client1701Cert94d666
        Subject Public Key Info:
            Public Key Algorithm: rsaEncryption
                Public-Key: (4096 bit)
                Modulus:
                    00:c4:b9:78:2d:e5:9e:76:6b:4b:14:ac:43:99:95:
                    89:57:eb:c3:81:16:ff:ac:88:01:f2:d4:ad:45:e8:
                    63:7f:4b:58:94:27:13:ff:12:75:40:7c:6e:70:50:
                    8e:f6:9a:f4:8c:4b:60:2c:26:65:db:24:4e:06:63:
                    c7:8f:04:8c:93:6d:5e:99:66:c3:82:9b:4c:67:bd:
                    4c:dd:5a:e4:a0:fa:ca:a2:91:1e:df:c1:48:66:d4:
                    58:8b:6f:62:f8:05:78:8c:12:76:2e:61:82:34:80:
                    7f:b6:25:a8:95:57:c9:00:0c:90:1f:f3:49:ce:d7:
                    37:a3:5c:e0:97:3a:6d:89:3e:67:84:61:36:7c:ff:
                    c2:07:fe:aa:94:aa:79:bf:97:3d:86:18:f0:a8:47:
                    a3:9f:9b:40:43:97:1b:10:a0:23:bf:30:3c:84:92:
                    e8:2b:9e:ea:42:ca:14:68:aa:4e:63:29:95:80:8a:
                    3e:42:64:be:23:30:77:9d:df:e5:c8:3c:35:d9:5c:
                    2a:e2:8a:e4:1e:6a:93:b8:83:2c:23:9c:c5:01:48:
                    68:a0:5e:76:40:59:3a:62:2c:77:ac:7a:bd:54:99:
                    b2:0d:cd:c1:0f:00:66:98:ec:b7:10:e1:21:39:1f:
                    19:fa:4f:c8:b3:41:e9:04:37:b0:30:76:34:41:b4:
                    d2:4b:7d:e5:74:e3:de:86:d2:b6:46:f4:45:d0:bb:
                    cd:6e:cc:e2:6c:9f:49:fb:be:dd:8d:77:2c:01:4c:
                    10:6d:49:29:0a:a9:15:66:55:34:03:ad:e2:b9:d0:
                    6f:97:53:26:1e:2e:54:6a:0f:d4:18:e4:1e:41:62:
                    2a:c3:de:97:3c:0d:b8:7e:84:84:a0:49:c6:5e:23:
                    35:37:a7:2b:1d:45:01:00:e2:f8:77:d2:db:c1:9b:
                    35:c2:67:e6:8e:f6:44:9a:e5:32:d8:bd:4d:db:b1:
                    f5:c1:d7:b8:83:47:a7:ad:6d:81:00:ed:57:32:54:
                    97:24:df:45:8d:22:a8:95:7c:88:77:0d:1b:48:c7:
                    3b:59:c7:c5:e9:93:cc:6d:e0:90:fe:6e:55:79:5d:
                    67:c0:2b:97:e6:19:a4:6e:85:9b:ce:a7:02:16:d8:
                    61:55:f1:2a:af:7a:84:78:e1:c7:09:5e:27:d3:4c:
                    a3:8c:ae:a2:76:d2:99:e6:18:b0:26:52:ca:77:e1:
                    8b:a7:b7:43:9b:53:ed:d7:32:5c:70:db:ab:f1:50:
                    51:a4:21:fd:9f:9a:40:b4:17:36:7c:cf:8b:9c:26:
                    4d:1a:a7:16:84:44:f4:55:a1:77:12:9a:01:91:41:
                    64:82:e1:75:6d:1f:fa:98:4a:66:a2:15:ad:37:32:
                    1e:2c:b7
                Exponent: 65537 (0x10001)
        X509v3 extensions:
            X509v3 Basic Constraints: 
                CA:FALSE
            Netscape Comment: 
                Easy-RSA Generated Certificate
            X509v3 Subject Key Identifier: 
                7A:4F:79:09:D3:5E:08:81:13:68:F2:58:96:51:32:B5:E5:36:54:9F
            X509v3 Authority Key Identifier: 
                keyid:12:CD:60:04:D2:A0:80:9E:70:ED:C6:99:B8:7B:2C:C6:52:FD:19:A1
                DirName:/C=US/ST=OH/L=Columbus/O=VikingVPN/OU=MyOrganizationalUnit/CN=VikingVPN CA/name=EasyRSA/emailAddress=me@myhost.mydomain
                serial:CF:35:85:EE:80:BF:2A:3E

            X509v3 Extended Key Usage: 
                TLS Web Client Authentication
            X509v3 Key Usage: 
                Digital Signature
    Signature Algorithm: md5WithRSAEncryption
         3e:c9:fe:54:6b:1d:94:ac:b7:2e:6c:7b:68:71:48:a5:d5:8e:
         78:02:9b:18:81:18:ca:50:c7:a4:e3:78:dc:66:e5:a4:23:f7:
         cb:90:92:99:17:42:90:1a:d1:53:11:85:bd:6c:29:ad:0f:6e:
         60:52:c2:42:d8:d3:fb:84:af:ec:db:cd:7f:cb:6a:a2:89:05:
         74:b4:5e:8d:42:91:f6:b6:27:6b:e6:7a:47:9e:3a:ac:90:59:
         eb:b6:ed:bd:a7:18:b4:f8:89:6e:c0:d5:e3:c5:ed:e7:6e:cc:
         83:e9:08:fc:24:ba:6a:df:e9:bd:02:b2:32:50:a8:03:45:09:
         f9:76:10:5d:c5:d6:f9:1b:9b:a7:fb:9d:9a:b0:74:a6:0f:e1:
         e6:f9:a7:59:b8:68:97:30:fc:e6:53:fd:ba:1e:df:54:34:07:
         69:fd:ee:eb:2e:65:70:e0:e0:39:c2:f1:09:5c:7a:f3:f2:6e:
         dd:7a:8a:0b:9d:7a:c6:2e:f3:46:a6:8c:b1:04:8f:7e:2d:d9:
         23:91:fa:f0:43:1f:83:07:a3:65:04:63:92:6d:11:3a:b2:f7:
         65:4d:aa:09:5b:6e:56:81:91:9a:03:59:42:91:f1:0a:34:b2:
         b2:cf:d9:91:86:0e:54:05:30:dd:a7:4a:41:b5:03:61:d1:6e:
         b5:28:10:1c:6d:bf:b9:2f:9a:fe:6d:e4:b1:01:96:47:2e:11:
         48:d9:f5:41:a2:39:6a:5f:03:e7:56:ae:5b:33:87:3e:15:a4:
         6c:0f:eb:93:b1:90:7d:ee:0d:5d:b0:f3:bb:61:4f:f7:05:fd:
         d3:4d:ea:05:88:01:49:e6:df:4a:7f:d4:80:cc:c9:cd:f6:3a:
         1c:8c:be:bc:8b:2c:eb:eb:70:90:8c:30:29:7d:a0:b2:9d:5b:
         44:aa:c2:30:41:05:72:0a:91:fa:30:4f:6a:1b:b3:1c:4e:95:
         59:7b:a3:30:9c:8b:04:0b:a0:fb:51:5c:48:d7:36:c4:4c:e0:
         76:eb:ff:5a:b9:5c:9a:25:4e:62:29:51:07:41:98:08:34:a6:
         9c:6e:22:3e:43:2e:ea:35:0b:a6:be:ae:7e:31:18:2b:92:6e:
         26:87:bc:d0:7f:4a:a6:a1:9d:83:d5:b7:00:40:7c:84:ab:3d:
         65:06:05:2e:86:5a:e9:b3:60:2d:32:1f:ba:3a:25:6b:27:1b:
         10:4c:2a:92:d5:43:e5:22:eb:0c:00:d0:a8:72:26:8a:80:f7:
         aa:25:4b:b6:c4:d7:62:0c:d4:e8:07:04:c4:7e:ab:c1:5a:9d:
         70:97:b8:1e:14:74:46:22:b2:a3:f1:47:71:e9:66:a2:7e:f2:
         f6:9f:5c:0e:1f:33:90:59
-----BEGIN CERTIFICATE-----
MIIGrTCCBJWgAwIBAgICFkowDQYJKoZIhvcNAQEEBQAwgawxCzAJBgNVBAYTAlVT
MQswCQYDVQQIEwJPSDERMA8GA1UEBxMIQ29sdW1idXMxEjAQBgNVBAoTCVZpa2lu
Z1ZQTjEdMBsGA1UECxMUTXlPcmdhbml6YXRpb25hbFVuaXQxFTATBgNVBAMTDFZp
a2luZ1ZQTiBDQTEQMA4GA1UEKRMHRWFzeVJTQTEhMB8GCSqGSIb3DQEJARYSbWVA
bXlob3N0Lm15ZG9tYWluMB4XDTE1MDcwNTAwMzkxNloXDTI1MDcwMjAwMzkxNlow
HzEdMBsGA1UEAxMUQ2xpZW50MTcwMUNlcnQ5NGQ2NjYwggIiMA0GCSqGSIb3DQEB
AQUAA4ICDwAwggIKAoICAQDEuXgt5Z52a0sUrEOZlYlX68OBFv+siAHy1K1F6GN/
S1iUJxP/EnVAfG5wUI72mvSMS2AsJmXbJE4GY8ePBIyTbV6ZZsOCm0xnvUzdWuSg
+sqikR7fwUhm1FiLb2L4BXiMEnYuYYI0gH+2JaiVV8kADJAf80nO1zejXOCXOm2J
PmeEYTZ8/8IH/qqUqnm/lz2GGPCoR6Ofm0BDlxsQoCO/MDyEkugrnupCyhRoqk5j
KZWAij5CZL4jMHed3+XIPDXZXCriiuQeapO4gywjnMUBSGigXnZAWTpiLHeser1U
mbINzcEPAGaY7LcQ4SE5Hxn6T8izQekEN7AwdjRBtNJLfeV0496G0rZG9EXQu81u
zOJsn0n7vt2NdywBTBBtSSkKqRVmVTQDreK50G+XUyYeLlRqD9QY5B5BYirD3pc8
Dbh+hISgScZeIzU3pysdRQEA4vh30tvBmzXCZ+aO9kSa5TLYvU3bsfXB17iDR6et
bYEA7VcyVJck30WNIqiVfIh3DRtIxztZx8Xpk8xt4JD+blV5XWfAK5fmGaRuhZvO
pwIW2GFV8SqveoR44ccJXifTTKOMrqJ20pnmGLAmUsp34Yunt0ObU+3XMlxw26vx
UFGkIf2fmkC0FzZ8z4ucJk0apxaERPRVoXcSmgGRQWSC4XVtH/qYSmaiFa03Mh4s
twIDAQABo4IBYzCCAV8wCQYDVR0TBAIwADAtBglghkgBhvhCAQ0EIBYeRWFzeS1S
U0EgR2VuZXJhdGVkIENlcnRpZmljYXRlMB0GA1UdDgQWBBR6T3kJ014IgRNo8liW
UTK15TZUnzCB4QYDVR0jBIHZMIHWgBQSzWAE0qCAnnDtxpm4eyzGUv0ZoaGBsqSB
rzCBrDELMAkGA1UEBhMCVVMxCzAJBgNVBAgTAk9IMREwDwYDVQQHEwhDb2x1bWJ1
czESMBAGA1UEChMJVmlraW5nVlBOMR0wGwYDVQQLExRNeU9yZ2FuaXphdGlvbmFs
VW5pdDEVMBMGA1UEAxMMVmlraW5nVlBOIENBMRAwDgYDVQQpEwdFYXN5UlNBMSEw
HwYJKoZIhvcNAQkBFhJtZUBteWhvc3QubXlkb21haW6CCQDPNYXugL8qPjATBgNV
HSUEDDAKBggrBgEFBQcDAjALBgNVHQ8EBAMCB4AwDQYJKoZIhvcNAQEEBQADggIB
AD7J/lRrHZSsty5se2hxSKXVjngCmxiBGMpQx6TjeNxm5aQj98uQkpkXQpAa0VMR
hb1sKa0PbmBSwkLY0/uEr+zbzX/LaqKJBXS0Xo1Ckfa2J2vmekeeOqyQWeu27b2n
GLT4iW7A1ePF7eduzIPpCPwkumrf6b0CsjJQqANFCfl2EF3F1vkbm6f7nZqwdKYP
4eb5p1m4aJcw/OZT/boe31Q0B2n97usuZXDg4DnC8QlcevPybt16igudesYu80am
jLEEj34t2SOR+vBDH4MHo2UEY5JtETqy92VNqglbblaBkZoDWUKR8Qo0srLP2ZGG
DlQFMN2nSkG1A2HRbrUoEBxtv7kvmv5t5LEBlkcuEUjZ9UGiOWpfA+dWrlszhz4V
pGwP65OxkH3uDV2w87thT/cF/dNN6gWIAUnm30p/1IDMyc32OhyMvryLLOvrcJCM
MCl9oLKdW0SqwjBBBXIKkfowT2obsxxOlVl7ozCciwQLoPtRXEjXNsRM4Hbr/1q5
XJolTmIpUQdBmAg0ppxuIj5DLuo1C6a+rn4xGCuSbiaHvNB/SqahnYPVtwBAfISr
PWUGBS6GWumzYC0yH7o6JWsnGxBMKpLVQ+Ui6wwA0KhyJoqA96olS7bE12IM1OgH
BMR+q8FanXCXuB4UdEYisqPxR3HpZqJ+8vafXA4fM5BZ
-----END CERTIFICATE-----
