Certificate:
    Data:
        Version: 3 (0x2)
        Serial Number: 1451 (0x5ab)
    Signature Algorithm: md5WithRSAEncryption
        Issuer: C=US, ST=OH, L=Columbus, O=VikingVPN, OU=MyOrganizationalUnit, CN=VikingVPN CA/name=EasyRSA/emailAddress=me@myhost.mydomain
        Validity
            Not Before: Apr  3 05:21:47 2014 GMT
            Not After : Mar 31 05:21:47 2024 GMT
        Subject: CN=Client542Cert6ea0ab
        Subject Public Key Info:
            Public Key Algorithm: rsaEncryption
                Public-Key: (4096 bit)
                Modulus:
                    00:cb:63:23:0e:22:5d:82:18:3b:2f:80:22:25:e3:
                    2d:2a:5e:95:d9:28:4d:1f:cf:e7:84:b8:a6:fa:bb:
                    15:89:c4:1f:7a:96:11:a6:53:af:3f:09:cc:de:75:
                    92:9c:49:73:d4:5e:4c:b7:b9:8b:ae:58:3f:d0:49:
                    15:34:be:91:be:20:af:ac:8b:39:1b:02:b8:23:3b:
                    f5:00:90:ac:b0:41:83:ea:0c:58:a6:2b:de:aa:96:
                    95:0c:b6:07:2a:7b:a4:ba:b3:94:7d:40:78:68:8e:
                    52:5c:fd:29:d3:e2:4b:9c:5a:d1:d3:41:bd:b5:e4:
                    28:99:8d:ed:ca:65:ce:a7:d1:2c:7e:db:f5:9f:83:
                    ad:7e:4c:ad:92:df:de:02:eb:5e:d5:f8:ab:f6:47:
                    7f:dd:78:be:57:4a:ff:38:ff:ed:46:e5:bb:5c:77:
                    81:b9:59:70:e8:87:3e:1b:69:16:f2:be:9c:83:d7:
                    04:29:2e:36:f8:2e:83:40:f0:6a:b7:44:09:b1:74:
                    08:4c:fd:42:76:d9:6e:a1:2d:3d:42:d7:ff:64:aa:
                    98:55:d2:60:d3:2f:96:62:f4:11:87:d8:1a:2e:1d:
                    d6:ce:45:02:50:1d:4f:a7:b3:54:96:54:a6:1e:13:
                    ed:ac:86:1c:46:40:34:e6:3f:30:73:38:44:e1:5f:
                    54:25:d1:1c:cc:dd:77:a1:ef:bd:ce:ab:fa:53:8a:
                    0a:ab:67:95:34:f2:9d:a9:3c:02:f2:30:cb:87:65:
                    b9:34:48:58:c2:74:e4:f2:c2:bf:e2:5d:df:e6:a8:
                    77:db:59:a6:2b:e3:6b:82:da:70:72:4f:fe:f0:e8:
                    a6:51:75:9b:53:e1:f1:91:1f:7d:db:cc:60:32:9a:
                    38:71:46:f0:65:22:14:04:f6:eb:9e:23:06:b5:e2:
                    09:2c:3c:bd:ac:f5:f7:24:6b:15:a3:69:e4:78:a2:
                    a9:df:42:0e:1a:34:ac:7d:83:5c:61:1b:f8:71:46:
                    50:a8:f5:55:5b:f3:6c:59:36:19:2c:e9:b5:24:0f:
                    4d:ca:85:85:01:8a:48:12:5f:5a:f2:dd:3a:2a:60:
                    50:9b:5c:6b:72:d3:bb:5f:e5:b2:17:5a:62:b2:4f:
                    51:66:a3:f2:4b:15:a3:58:19:f4:5a:45:47:23:9d:
                    27:07:5b:da:1d:77:f6:08:42:b0:c0:a7:a8:30:05:
                    89:00:f7:52:dd:bd:25:c5:a6:37:89:56:5a:91:e7:
                    f4:9e:87:c6:e8:fc:8e:e0:7c:9c:c8:21:6a:46:7b:
                    cb:50:08:a0:96:ff:08:08:95:05:f1:d9:7b:9b:24:
                    b3:b0:2d:79:6f:c6:65:0b:a2:c2:f0:b2:95:43:1e:
                    ef:27:d1
                Exponent: 65537 (0x10001)
        X509v3 extensions:
            X509v3 Basic Constraints: 
                CA:FALSE
            Netscape Comment: 
                Easy-RSA Generated Certificate
            X509v3 Subject Key Identifier: 
                B6:04:C8:90:F0:0D:73:CF:D7:30:54:C9:E4:F8:62:34:1E:06:CA:7F
            X509v3 Authority Key Identifier: 
                keyid:12:CD:60:04:D2:A0:80:9E:70:ED:C6:99:B8:7B:2C:C6:52:FD:19:A1
                DirName:/C=US/ST=OH/L=Columbus/O=VikingVPN/OU=MyOrganizationalUnit/CN=VikingVPN CA/name=EasyRSA/emailAddress=me@myhost.mydomain
                serial:CF:35:85:EE:80:BF:2A:3E

            X509v3 Extended Key Usage: 
                TLS Web Client Authentication
            X509v3 Key Usage: 
                Digital Signature
    Signature Algorithm: md5WithRSAEncryption
         d7:9f:c5:30:47:27:0a:f4:55:d5:e9:5d:0f:6e:8f:54:73:b5:
         ba:f9:6d:56:04:7e:df:be:de:d5:53:b3:6a:c2:f9:eb:60:63:
         95:31:e9:18:b9:32:8e:f3:7a:f4:fc:88:db:8c:66:6f:fb:5d:
         60:c8:57:7b:bc:5c:3b:60:24:4d:68:32:a7:2e:6a:90:cf:b3:
         33:2e:5d:a7:7b:94:c7:56:2f:70:ee:53:8b:6f:f8:bc:e4:86:
         8d:a7:e9:ce:08:db:ce:d3:52:71:a8:34:cf:42:47:4b:ec:88:
         19:32:c5:97:90:3b:72:7d:12:54:e1:4a:58:8d:8b:d6:a3:02:
         34:48:18:d3:98:ee:bd:4c:99:bc:c1:9a:34:1e:76:30:97:9f:
         7b:08:a5:bd:76:b0:fa:36:8c:46:13:a5:2e:6e:a4:d9:98:19:
         f1:c8:a3:97:d5:09:95:64:cf:35:c4:8f:2e:89:91:28:79:9d:
         73:3b:3e:92:de:4c:2a:9b:c8:5a:9d:a8:e4:a3:b4:60:96:bb:
         52:cc:7f:ae:80:96:f5:b6:e9:e1:ff:a9:1f:1f:ee:d0:db:34:
         ca:5d:bc:d2:7d:2c:45:33:3f:0e:d4:9d:e1:d1:a4:c0:a4:c5:
         8a:fc:6e:26:cd:70:ed:07:aa:46:c7:4f:15:77:77:16:f8:b4:
         25:6c:54:8d:46:9f:cd:6b:45:42:55:85:c5:ff:1d:38:dd:ea:
         d1:9d:7e:b1:ae:9f:58:07:7b:c3:9d:ce:b3:7c:68:ef:f8:f9:
         cb:1b:fc:45:6c:10:ef:f0:17:f2:fd:6b:a1:dc:a4:d2:0a:09:
         4d:48:94:a7:8f:07:bc:e5:9b:9f:68:a3:3a:c0:4e:2a:97:86:
         0b:09:1f:41:57:29:e1:3a:89:07:e5:50:fe:97:2f:be:61:0a:
         6b:34:96:30:c0:12:99:37:cf:d0:f8:5e:a5:99:9d:6d:e8:0b:
         63:87:39:44:1e:cd:aa:41:84:c6:5e:ea:d6:4b:69:d9:93:11:
         31:c8:32:9c:27:e8:f6:6a:b9:73:56:93:e9:2d:43:c2:e4:3f:
         72:60:32:c8:82:02:c6:fd:fd:f3:fd:5e:9b:e6:7b:32:b2:b1:
         42:4a:36:94:91:4d:49:17:ff:5f:c1:8e:e1:79:35:5e:5f:d9:
         7f:a5:1a:5f:3d:1c:73:d5:ac:82:a5:4d:a9:d7:2d:d0:89:bc:
         55:d9:5a:51:cb:07:5c:bb:90:eb:f5:ed:2e:45:71:b1:6c:0e:
         da:15:c3:c8:65:0b:8e:b0:15:d3:94:e3:6c:88:02:bb:0e:36:
         a8:9f:04:60:53:19:74:57:5c:1f:d7:f1:70:ae:2e:dc:b5:4b:
         b2:0c:47:e3:6e:f2:83:8f
-----BEGIN CERTIFICATE-----
MIIGrDCCBJSgAwIBAgICBaswDQYJKoZIhvcNAQEEBQAwgawxCzAJBgNVBAYTAlVT
MQswCQYDVQQIEwJPSDERMA8GA1UEBxMIQ29sdW1idXMxEjAQBgNVBAoTCVZpa2lu
Z1ZQTjEdMBsGA1UECxMUTXlPcmdhbml6YXRpb25hbFVuaXQxFTATBgNVBAMTDFZp
a2luZ1ZQTiBDQTEQMA4GA1UEKRMHRWFzeVJTQTEhMB8GCSqGSIb3DQEJARYSbWVA
bXlob3N0Lm15ZG9tYWluMB4XDTE0MDQwMzA1MjE0N1oXDTI0MDMzMTA1MjE0N1ow
HjEcMBoGA1UEAxMTQ2xpZW50NTQyQ2VydDZlYTBhYjCCAiIwDQYJKoZIhvcNAQEB
BQADggIPADCCAgoCggIBAMtjIw4iXYIYOy+AIiXjLSpeldkoTR/P54S4pvq7FYnE
H3qWEaZTrz8JzN51kpxJc9ReTLe5i65YP9BJFTS+kb4gr6yLORsCuCM79QCQrLBB
g+oMWKYr3qqWlQy2Byp7pLqzlH1AeGiOUlz9KdPiS5xa0dNBvbXkKJmN7cplzqfR
LH7b9Z+DrX5MrZLf3gLrXtX4q/ZHf914vldK/zj/7Ublu1x3gblZcOiHPhtpFvK+
nIPXBCkuNvgug0DwardECbF0CEz9QnbZbqEtPULX/2SqmFXSYNMvlmL0EYfYGi4d
1s5FAlAdT6ezVJZUph4T7ayGHEZANOY/MHM4ROFfVCXRHMzdd6Hvvc6r+lOKCqtn
lTTynak8AvIwy4dluTRIWMJ05PLCv+Jd3+aod9tZpivja4LacHJP/vDoplF1m1Ph
8ZEffdvMYDKaOHFG8GUiFAT2654jBrXiCSw8vaz19yRrFaNp5Hiiqd9CDho0rH2D
XGEb+HFGUKj1VVvzbFk2GSzptSQPTcqFhQGKSBJfWvLdOipgUJtca3LTu1/lshda
YrJPUWaj8ksVo1gZ9FpFRyOdJwdb2h139ghCsMCnqDAFiQD3Ut29JcWmN4lWWpHn
9J6Hxuj8juB8nMghakZ7y1AIoJb/CAiVBfHZe5sks7AteW/GZQuiwvCylUMe7yfR
AgMBAAGjggFjMIIBXzAJBgNVHRMEAjAAMC0GCWCGSAGG+EIBDQQgFh5FYXN5LVJT
QSBHZW5lcmF0ZWQgQ2VydGlmaWNhdGUwHQYDVR0OBBYEFLYEyJDwDXPP1zBUyeT4
YjQeBsp/MIHhBgNVHSMEgdkwgdaAFBLNYATSoICecO3Gmbh7LMZS/RmhoYGypIGv
MIGsMQswCQYDVQQGEwJVUzELMAkGA1UECBMCT0gxETAPBgNVBAcTCENvbHVtYnVz
MRIwEAYDVQQKEwlWaWtpbmdWUE4xHTAbBgNVBAsTFE15T3JnYW5pemF0aW9uYWxV
bml0MRUwEwYDVQQDEwxWaWtpbmdWUE4gQ0ExEDAOBgNVBCkTB0Vhc3lSU0ExITAf
BgkqhkiG9w0BCQEWEm1lQG15aG9zdC5teWRvbWFpboIJAM81he6Avyo+MBMGA1Ud
JQQMMAoGCCsGAQUFBwMCMAsGA1UdDwQEAwIHgDANBgkqhkiG9w0BAQQFAAOCAgEA
15/FMEcnCvRV1eldD26PVHO1uvltVgR+377e1VOzasL562BjlTHpGLkyjvN69PyI
24xmb/tdYMhXe7xcO2AkTWgypy5qkM+zMy5dp3uUx1YvcO5Ti2/4vOSGjafpzgjb
ztNScag0z0JHS+yIGTLFl5A7cn0SVOFKWI2L1qMCNEgY05juvUyZvMGaNB52MJef
ewilvXaw+jaMRhOlLm6k2ZgZ8cijl9UJlWTPNcSPLomRKHmdczs+kt5MKpvIWp2o
5KO0YJa7Usx/roCW9bbp4f+pHx/u0Ns0yl280n0sRTM/DtSd4dGkwKTFivxuJs1w
7QeqRsdPFXd3Fvi0JWxUjUafzWtFQlWFxf8dON3q0Z1+sa6fWAd7w53Os3xo7/j5
yxv8RWwQ7/AX8v1rodyk0goJTUiUp48HvOWbn2ijOsBOKpeGCwkfQVcp4TqJB+VQ
/pcvvmEKazSWMMASmTfP0PhepZmdbegLY4c5RB7NqkGExl7q1ktp2ZMRMcgynCfo
9mq5c1aT6S1DwuQ/cmAyyIICxv398/1em+Z7MrKxQko2lJFNSRf/X8GO4Xk1Xl/Z
f6UaXz0cc9WsgqVNqdct0Im8VdlaUcsHXLuQ6/XtLkVxsWwO2hXDyGULjrAV05Tj
bIgCuw42qJ8EYFMZdFdcH9fxcK4u3LVLsgxH427yg48=
-----END CERTIFICATE-----
