Certificate:
    Data:
        Version: 3 (0x2)
        Serial Number: 6762 (0x1a6a)
    Signature Algorithm: md5WithRSAEncryption
        Issuer: C=US, ST=OH, L=Columbus, O=VikingVPN, OU=MyOrganizationalUnit, CN=VikingVPN CA/name=EasyRSA/emailAddress=me@myhost.mydomain
        Validity
            Not Before: Nov 26 17:15:06 2015 GMT
            Not After : Nov 23 17:15:06 2025 GMT
        Subject: CN=Client2071Certa552f0
        Subject Public Key Info:
            Public Key Algorithm: rsaEncryption
                Public-Key: (4096 bit)
                Modulus:
                    00:a2:87:fe:8e:f3:7d:06:d7:9d:cf:e1:31:3d:3d:
                    0c:22:88:4d:26:eb:5b:25:33:78:c2:a5:99:6d:22:
                    c2:4e:cb:39:43:5b:71:b7:0d:35:f8:d9:82:d6:9f:
                    43:ed:57:6a:85:0f:61:9d:54:04:95:dc:38:66:53:
                    fc:a9:65:1a:f9:58:65:fb:30:ac:3e:26:ae:0e:0e:
                    14:ac:7e:08:25:f7:7c:4f:3a:8d:69:d0:d6:d2:c1:
                    a4:2d:8b:3c:0a:97:42:78:9e:eb:a6:99:37:11:71:
                    35:93:4a:e7:11:d2:ed:9d:8c:8d:87:b5:28:07:c9:
                    1d:b9:d4:5e:a3:4c:29:a4:6e:56:4e:22:b6:fa:f3:
                    1f:f8:83:62:dc:da:36:d0:65:f1:8f:41:98:51:4b:
                    f1:94:a7:72:ea:c4:fc:72:fd:21:3d:08:78:01:46:
                    05:b2:11:61:2f:46:cb:af:f1:61:0f:fe:63:64:f3:
                    9e:05:22:02:5d:3a:e9:03:ea:bb:e9:6d:bc:62:61:
                    e1:8b:ee:28:ea:24:47:a6:f1:0f:79:21:56:3b:eb:
                    54:d0:09:e7:cf:49:a2:61:8a:a5:e7:a1:54:33:33:
                    5f:73:e1:09:0e:e6:a7:91:3e:b8:ce:9e:43:68:b5:
                    58:da:f6:e3:20:5c:e3:96:ce:7e:e4:15:f6:83:a5:
                    41:93:7c:9f:30:60:6f:b9:cb:9f:14:3c:04:63:f0:
                    06:4d:69:63:b8:c3:53:c9:21:b9:ff:12:7e:b3:5f:
                    0a:13:e8:30:04:e1:77:92:d4:5b:00:11:70:5a:8d:
                    57:49:72:6f:a3:ce:d2:67:61:1d:b1:c2:06:63:71:
                    4c:43:1a:de:ed:d0:0d:df:e7:7b:7a:20:6e:74:17:
                    ae:62:9c:e5:68:e1:55:9e:3e:5b:90:6c:6e:f3:2b:
                    f1:28:24:0e:2f:ae:c9:b5:26:46:10:56:cd:a9:11:
                    a2:15:30:d1:09:c0:05:ed:98:d4:c1:71:9b:d9:e3:
                    ef:aa:d8:c5:0e:d7:4d:8c:bc:2f:4a:d5:25:e9:19:
                    88:db:32:49:f9:f8:94:38:c8:b2:2b:63:a2:2f:f0:
                    80:61:cb:ac:14:0e:9d:b3:bd:c9:92:41:06:bf:cf:
                    d1:5d:d1:f5:71:29:fc:d8:f7:ae:68:d4:6e:5d:a5:
                    01:3d:9f:bb:1d:95:16:8b:02:b5:ac:57:fe:bd:82:
                    b4:71:04:66:d4:87:be:64:79:f3:1f:a8:e0:ed:cc:
                    47:39:07:71:3c:29:bb:a3:07:31:ab:e9:d8:b7:cf:
                    32:d6:91:b3:de:d9:b3:6a:8f:e0:84:1d:aa:52:a5:
                    49:fe:33:69:7c:02:55:22:38:8a:46:23:46:29:dd:
                    70:6b:31
                Exponent: 65537 (0x10001)
        X509v3 extensions:
            X509v3 Basic Constraints: 
                CA:FALSE
            Netscape Comment: 
                Easy-RSA Generated Certificate
            X509v3 Subject Key Identifier: 
                C0:9B:0F:44:C3:A9:C9:20:8F:3D:73:BF:6C:EE:B8:68:F5:78:AD:62
            X509v3 Authority Key Identifier: 
                keyid:12:CD:60:04:D2:A0:80:9E:70:ED:C6:99:B8:7B:2C:C6:52:FD:19:A1
                DirName:/C=US/ST=OH/L=Columbus/O=VikingVPN/OU=MyOrganizationalUnit/CN=VikingVPN CA/name=EasyRSA/emailAddress=me@myhost.mydomain
                serial:CF:35:85:EE:80:BF:2A:3E

            X509v3 Extended Key Usage: 
                TLS Web Client Authentication
            X509v3 Key Usage: 
                Digital Signature
    Signature Algorithm: md5WithRSAEncryption
         d6:89:f0:33:3a:7f:87:bb:e3:71:84:fb:38:9c:00:34:4b:26:
         68:da:58:ba:e4:57:13:7b:f8:42:75:0b:1e:d8:c2:83:5b:82:
         08:7f:1c:f6:f9:70:f5:eb:3b:3e:08:57:a4:d0:19:8d:6e:90:
         db:97:fd:96:23:a4:1a:18:7d:eb:75:be:cf:6c:9e:57:f6:d3:
         ee:bf:23:ec:d0:5e:bf:57:86:91:c1:9e:e5:da:02:56:18:95:
         aa:d3:10:5c:03:b6:d8:92:b3:e3:a0:d4:c8:60:b5:ab:6e:04:
         3f:99:d4:77:3d:c3:a6:c4:9a:1c:0e:dc:00:4b:af:f6:5f:e8:
         8d:41:2c:ea:d3:4d:90:7e:7c:d6:13:77:3e:ce:15:cd:d1:b3:
         9e:72:ab:cc:1c:43:7d:aa:63:da:7f:43:8d:93:0e:81:b2:90:
         36:23:77:4d:b3:f1:6c:30:7f:ff:ed:03:1e:8b:83:55:e9:26:
         a8:a7:91:7f:b0:3b:ef:06:51:05:91:6e:19:96:34:73:3a:f8:
         6e:c0:6a:ef:ae:5e:11:d0:5c:b1:bc:26:aa:a3:2e:55:d7:f7:
         41:96:36:16:6f:c5:45:b7:d2:e6:03:6f:38:e8:0a:59:1a:43:
         5a:14:b6:0f:b9:88:c0:62:4d:e0:9b:71:7f:c5:e2:7e:7f:f6:
         14:01:99:a4:1c:b2:8b:46:60:6e:32:87:59:0b:31:a9:15:4d:
         82:a2:2b:6e:cc:d9:18:09:ed:be:a9:06:3f:6c:45:76:6c:01:
         c4:6a:a1:e9:69:df:42:0d:71:83:10:db:b0:02:3c:fe:3f:e3:
         31:34:64:a6:17:dc:4d:e9:78:47:7a:09:a3:b7:89:18:ce:cf:
         a7:c4:35:49:4b:14:d2:00:90:42:fd:08:42:fa:b8:76:75:13:
         43:70:82:aa:df:f5:b7:9d:5f:5a:a4:a9:7f:27:bc:b8:b0:a4:
         fa:4e:42:1a:99:23:f0:34:4e:c4:95:1f:6f:54:65:88:e0:1f:
         af:f8:83:e0:a5:00:fb:7a:39:7c:e8:4e:f8:54:29:1c:f7:7b:
         80:54:7f:54:75:ae:26:e8:4f:c2:7a:97:8c:44:00:6e:0e:75:
         2f:4f:da:49:a2:ef:4e:a0:25:62:89:3d:9c:5e:96:86:81:3b:
         63:cf:65:78:18:3e:5a:48:f1:b5:ec:5f:b6:21:d0:5f:e7:e7:
         a4:04:be:bc:15:f7:a7:2d:a7:34:82:a8:a6:57:d5:36:b1:37:
         5b:ad:bf:04:12:5e:6e:ef:3c:1e:49:f8:94:85:8c:98:3f:5b:
         42:5f:27:05:a3:8d:7c:43:4f:6d:9d:95:6b:67:c1:fb:29:c4:
         8a:c4:02:ca:40:95:bd:67
-----BEGIN CERTIFICATE-----
MIIGrTCCBJWgAwIBAgICGmowDQYJKoZIhvcNAQEEBQAwgawxCzAJBgNVBAYTAlVT
MQswCQYDVQQIEwJPSDERMA8GA1UEBxMIQ29sdW1idXMxEjAQBgNVBAoTCVZpa2lu
Z1ZQTjEdMBsGA1UECxMUTXlPcmdhbml6YXRpb25hbFVuaXQxFTATBgNVBAMTDFZp
a2luZ1ZQTiBDQTEQMA4GA1UEKRMHRWFzeVJTQTEhMB8GCSqGSIb3DQEJARYSbWVA
bXlob3N0Lm15ZG9tYWluMB4XDTE1MTEyNjE3MTUwNloXDTI1MTEyMzE3MTUwNlow
HzEdMBsGA1UEAxMUQ2xpZW50MjA3MUNlcnRhNTUyZjAwggIiMA0GCSqGSIb3DQEB
AQUAA4ICDwAwggIKAoICAQCih/6O830G153P4TE9PQwiiE0m61slM3jCpZltIsJO
yzlDW3G3DTX42YLWn0PtV2qFD2GdVASV3DhmU/ypZRr5WGX7MKw+Jq4ODhSsfggl
93xPOo1p0NbSwaQtizwKl0J4nuummTcRcTWTSucR0u2djI2HtSgHyR251F6jTCmk
blZOIrb68x/4g2Lc2jbQZfGPQZhRS/GUp3LqxPxy/SE9CHgBRgWyEWEvRsuv8WEP
/mNk854FIgJdOukD6rvpbbxiYeGL7ijqJEem8Q95IVY761TQCefPSaJhiqXnoVQz
M19z4QkO5qeRPrjOnkNotVja9uMgXOOWzn7kFfaDpUGTfJ8wYG+5y58UPARj8AZN
aWO4w1PJIbn/En6zXwoT6DAE4XeS1FsAEXBajVdJcm+jztJnYR2xwgZjcUxDGt7t
0A3f53t6IG50F65inOVo4VWePluQbG7zK/EoJA4vrsm1JkYQVs2pEaIVMNEJwAXt
mNTBcZvZ4++q2MUO102MvC9K1SXpGYjbMkn5+JQ4yLIrY6Iv8IBhy6wUDp2zvcmS
QQa/z9Fd0fVxKfzY965o1G5dpQE9n7sdlRaLArWsV/69grRxBGbUh75kefMfqODt
zEc5B3E8KbujBzGr6di3zzLWkbPe2bNqj+CEHapSpUn+M2l8AlUiOIpGI0Yp3XBr
MQIDAQABo4IBYzCCAV8wCQYDVR0TBAIwADAtBglghkgBhvhCAQ0EIBYeRWFzeS1S
U0EgR2VuZXJhdGVkIENlcnRpZmljYXRlMB0GA1UdDgQWBBTAmw9Ew6nJII89c79s
7rho9XitYjCB4QYDVR0jBIHZMIHWgBQSzWAE0qCAnnDtxpm4eyzGUv0ZoaGBsqSB
rzCBrDELMAkGA1UEBhMCVVMxCzAJBgNVBAgTAk9IMREwDwYDVQQHEwhDb2x1bWJ1
czESMBAGA1UEChMJVmlraW5nVlBOMR0wGwYDVQQLExRNeU9yZ2FuaXphdGlvbmFs
VW5pdDEVMBMGA1UEAxMMVmlraW5nVlBOIENBMRAwDgYDVQQpEwdFYXN5UlNBMSEw
HwYJKoZIhvcNAQkBFhJtZUBteWhvc3QubXlkb21haW6CCQDPNYXugL8qPjATBgNV
HSUEDDAKBggrBgEFBQcDAjALBgNVHQ8EBAMCB4AwDQYJKoZIhvcNAQEEBQADggIB
ANaJ8DM6f4e743GE+zicADRLJmjaWLrkVxN7+EJ1Cx7YwoNbggh/HPb5cPXrOz4I
V6TQGY1ukNuX/ZYjpBoYfet1vs9snlf20+6/I+zQXr9XhpHBnuXaAlYYlarTEFwD
ttiSs+Og1MhgtatuBD+Z1Hc9w6bEmhwO3ABLr/Zf6I1BLOrTTZB+fNYTdz7OFc3R
s55yq8wcQ32qY9p/Q42TDoGykDYjd02z8Wwwf//tAx6Lg1XpJqinkX+wO+8GUQWR
bhmWNHM6+G7Aau+uXhHQXLG8JqqjLlXX90GWNhZvxUW30uYDbzjoClkaQ1oUtg+5
iMBiTeCbcX/F4n5/9hQBmaQcsotGYG4yh1kLMakVTYKiK27M2RgJ7b6pBj9sRXZs
AcRqoelp30INcYMQ27ACPP4/4zE0ZKYX3E3peEd6CaO3iRjOz6fENUlLFNIAkEL9
CEL6uHZ1E0Nwgqrf9bedX1qkqX8nvLiwpPpOQhqZI/A0TsSVH29UZYjgH6/4g+Cl
APt6OXzoTvhUKRz3e4BUf1R1riboT8J6l4xEAG4OdS9P2kmi706gJWKJPZxeloaB
O2PPZXgYPlpI8bXsX7Yh0F/n56QEvrwV96ctpzSCqKZX1TaxN1utvwQSXm7vPB5J
+JSFjJg/W0JfJwWjjXxDT22dlWtnwfspxIrEAspAlb1n
-----END CERTIFICATE-----
