Certificate:
    Data:
        Version: 3 (0x2)
        Serial Number: 1566 (0x61e)
    Signature Algorithm: md5WithRSAEncryption
        Issuer: C=US, ST=OH, L=Columbus, O=VikingVPN, OU=MyOrganizationalUnit, CN=VikingVPN CA/name=EasyRSA/emailAddress=me@myhost.mydomain
        Validity
            Not Before: Apr 12 01:28:18 2014 GMT
            Not After : Apr  9 01:28:18 2024 GMT
        Subject: CN=Client146Certa7d6fe
        Subject Public Key Info:
            Public Key Algorithm: rsaEncryption
                Public-Key: (4096 bit)
                Modulus:
                    00:e1:b8:df:94:39:ca:9a:9a:00:3f:7c:d0:c9:d6:
                    f4:6f:60:bf:2e:16:5c:85:e8:ae:4c:74:a2:31:08:
                    c7:e3:a1:36:0e:31:3e:d4:e1:20:4b:0b:75:89:a6:
                    2a:6b:58:1d:a7:c2:ba:3d:9d:5d:a0:e6:44:52:43:
                    ec:f1:63:6d:40:02:c9:67:ab:48:f2:97:76:fd:6b:
                    11:cd:f9:19:15:14:b1:64:ed:a9:f7:34:de:b2:30:
                    ce:c7:fd:be:bd:66:e5:a4:18:97:a5:ec:50:b3:4f:
                    25:8b:db:3a:40:e0:6b:90:1e:88:f8:c9:85:86:40:
                    18:0a:53:64:0f:d2:e1:1d:bd:bc:0a:c6:31:d6:8c:
                    9f:01:63:8c:d7:b3:ca:fd:b7:7c:d8:7e:23:b7:56:
                    71:f2:53:d3:50:8d:3f:2c:ca:50:ee:c6:03:80:11:
                    ca:9b:81:61:de:db:39:48:37:65:a2:c9:4b:79:db:
                    b0:15:cd:8f:3c:a8:d6:4c:6b:8b:7e:07:ff:f5:55:
                    7a:04:97:fd:06:b0:85:c2:2b:6a:c5:84:86:da:d0:
                    74:70:3f:2f:0f:3b:c7:b7:a1:82:a7:2c:45:81:28:
                    68:1b:74:85:d5:62:27:46:d9:6e:72:cc:08:79:17:
                    bd:77:22:4d:e9:59:6a:71:f6:13:a9:bc:ca:bb:3d:
                    02:14:92:c6:5a:f1:de:49:c9:18:c7:ce:84:6d:79:
                    91:cb:1d:d8:a5:22:c2:17:39:ee:0d:a7:31:67:cb:
                    7d:ee:f0:21:83:4d:ce:4b:0a:8f:9f:2e:43:76:03:
                    81:10:32:2c:25:47:10:82:9d:5d:ed:63:e4:a1:6b:
                    c0:6f:34:f5:28:78:0a:1f:dd:a3:29:93:d3:8e:67:
                    49:f3:c1:c4:66:99:c7:b8:ed:69:2c:c1:2c:13:32:
                    71:94:ad:4f:a3:c2:43:96:f9:f4:5e:95:5f:92:6f:
                    1a:ef:92:9c:06:15:de:4c:30:0e:43:81:a9:fe:af:
                    da:f9:e4:e9:ab:f5:e3:15:e6:15:f8:b4:db:a2:25:
                    3e:38:74:22:6d:cc:51:2e:dc:62:e6:3f:83:a6:e5:
                    c2:35:1b:2c:62:a6:26:2f:6e:c8:a2:fd:7f:21:33:
                    c4:8b:db:58:4c:f2:a0:5a:cc:1d:03:69:e0:22:8a:
                    c4:25:dc:f5:84:f3:a1:49:31:8f:40:bc:2b:52:f6:
                    4a:1d:cd:56:a6:67:85:7c:85:53:62:ce:97:3f:88:
                    39:87:de:83:70:2f:12:ad:6d:5f:96:68:88:70:ba:
                    56:2a:84:77:d4:e3:5d:fc:41:af:c8:c0:49:ff:65:
                    7b:27:58:05:f9:b1:be:d0:4a:a7:f2:8b:32:0d:20:
                    4f:7b:9d
                Exponent: 65537 (0x10001)
        X509v3 extensions:
            X509v3 Basic Constraints: 
                CA:FALSE
            Netscape Comment: 
                Easy-RSA Generated Certificate
            X509v3 Subject Key Identifier: 
                EB:B0:C3:A1:00:5E:BB:69:F5:D4:17:12:94:47:CB:72:01:04:A5:53
            X509v3 Authority Key Identifier: 
                keyid:12:CD:60:04:D2:A0:80:9E:70:ED:C6:99:B8:7B:2C:C6:52:FD:19:A1
                DirName:/C=US/ST=OH/L=Columbus/O=VikingVPN/OU=MyOrganizationalUnit/CN=VikingVPN CA/name=EasyRSA/emailAddress=me@myhost.mydomain
                serial:CF:35:85:EE:80:BF:2A:3E

            X509v3 Extended Key Usage: 
                TLS Web Client Authentication
            X509v3 Key Usage: 
                Digital Signature
    Signature Algorithm: md5WithRSAEncryption
         5c:14:da:eb:ab:52:8e:38:12:20:0f:30:4f:eb:04:b6:67:81:
         ff:f7:2e:ed:50:5e:02:f0:3e:db:c5:8c:b2:32:88:bc:3e:0f:
         30:6a:dc:cb:69:8c:8c:b9:1d:53:ca:35:64:c1:fd:83:b6:e5:
         01:08:9a:4b:8d:0f:83:44:24:58:24:18:55:17:2d:40:e9:b4:
         ac:75:b4:79:ad:c3:c7:2f:70:aa:7a:bf:d8:fe:06:da:d7:7e:
         6c:b5:9c:00:13:13:e9:9a:5a:f5:07:3b:77:50:75:55:1b:1b:
         3a:e2:57:99:13:20:ea:03:cb:8c:ab:f9:5c:67:d1:a3:62:a1:
         14:5e:42:21:ed:67:f1:4c:86:a4:7e:a3:1d:ba:66:aa:ec:f3:
         57:e7:2b:a4:a2:bd:7e:9f:6a:e7:9b:ad:f8:c8:31:b4:be:30:
         15:05:0b:79:e4:5e:f4:3f:e5:fd:da:9d:80:48:12:6c:cf:e8:
         68:30:7b:34:fb:e5:9b:bf:6b:7d:12:a4:9b:4e:b5:9e:0e:dc:
         df:f8:da:dc:92:c8:17:8a:9f:0d:ba:26:c7:cd:75:21:0e:d0:
         48:70:34:f7:26:06:ea:75:e6:f8:c7:d7:fd:08:d0:9f:f0:66:
         0d:f8:58:d3:e1:31:40:1f:d7:f2:eb:d0:88:50:25:96:26:3a:
         12:89:f3:30:89:a5:70:8a:3e:4d:ed:3b:fc:46:27:c3:e3:c8:
         24:2e:11:92:b6:6c:5f:23:4f:fe:48:d3:0e:23:42:06:df:35:
         f1:f2:c6:9d:8e:d4:f5:06:00:90:d0:a1:fe:d2:d4:b1:53:e5:
         8e:6a:c6:0f:44:58:eb:82:10:5e:8a:4c:f6:f8:6f:88:13:41:
         85:61:8b:6d:51:06:8e:48:8a:58:59:00:04:fd:8c:e3:cb:ea:
         bc:37:06:da:1d:46:62:ca:86:15:fe:72:f1:d1:ac:91:63:51:
         3c:96:af:15:c3:a5:35:e2:e3:7f:12:53:2c:05:25:57:2a:6a:
         7c:4d:29:5c:44:9c:c3:04:ba:d7:91:33:11:fb:74:c8:c3:fa:
         fa:46:7a:0e:10:c2:fe:9e:3d:89:9a:74:e2:f9:d2:d8:8c:01:
         38:55:67:bc:25:05:d9:24:b9:bd:1a:b6:cd:a3:34:aa:1f:50:
         99:ef:37:d7:8b:8e:1e:89:67:b0:9e:3c:74:2b:c5:2c:a7:ba:
         55:39:01:78:66:58:b5:8a:78:10:79:f4:34:f6:5d:c5:ef:40:
         da:9e:ca:8c:52:c9:cc:34:1e:dc:56:39:b3:4d:a3:ad:a4:32:
         41:9b:f7:9c:5a:d5:4c:93:b0:e6:ea:85:41:47:5f:69:9f:62:
         46:b7:cf:a4:f5:3c:ac:d6
-----BEGIN CERTIFICATE-----
MIIGrDCCBJSgAwIBAgICBh4wDQYJKoZIhvcNAQEEBQAwgawxCzAJBgNVBAYTAlVT
MQswCQYDVQQIEwJPSDERMA8GA1UEBxMIQ29sdW1idXMxEjAQBgNVBAoTCVZpa2lu
Z1ZQTjEdMBsGA1UECxMUTXlPcmdhbml6YXRpb25hbFVuaXQxFTATBgNVBAMTDFZp
a2luZ1ZQTiBDQTEQMA4GA1UEKRMHRWFzeVJTQTEhMB8GCSqGSIb3DQEJARYSbWVA
bXlob3N0Lm15ZG9tYWluMB4XDTE0MDQxMjAxMjgxOFoXDTI0MDQwOTAxMjgxOFow
HjEcMBoGA1UEAxMTQ2xpZW50MTQ2Q2VydGE3ZDZmZTCCAiIwDQYJKoZIhvcNAQEB
BQADggIPADCCAgoCggIBAOG435Q5ypqaAD980MnW9G9gvy4WXIXorkx0ojEIx+Oh
Ng4xPtThIEsLdYmmKmtYHafCuj2dXaDmRFJD7PFjbUACyWerSPKXdv1rEc35GRUU
sWTtqfc03rIwzsf9vr1m5aQYl6XsULNPJYvbOkDga5AeiPjJhYZAGApTZA/S4R29
vArGMdaMnwFjjNezyv23fNh+I7dWcfJT01CNPyzKUO7GA4ARypuBYd7bOUg3ZaLJ
S3nbsBXNjzyo1kxri34H//VVegSX/QawhcIrasWEhtrQdHA/Lw87x7ehgqcsRYEo
aBt0hdViJ0bZbnLMCHkXvXciTelZanH2E6m8yrs9AhSSxlrx3knJGMfOhG15kcsd
2KUiwhc57g2nMWfLfe7wIYNNzksKj58uQ3YDgRAyLCVHEIKdXe1j5KFrwG809Sh4
Ch/doymT045nSfPBxGaZx7jtaSzBLBMycZStT6PCQ5b59F6VX5JvGu+SnAYV3kww
DkOBqf6v2vnk6av14xXmFfi026IlPjh0Im3MUS7cYuY/g6blwjUbLGKmJi9uyKL9
fyEzxIvbWEzyoFrMHQNp4CKKxCXc9YTzoUkxj0C8K1L2Sh3NVqZnhXyFU2LOlz+I
OYfeg3AvEq1tX5ZoiHC6ViqEd9TjXfxBr8jASf9leydYBfmxvtBKp/KLMg0gT3ud
AgMBAAGjggFjMIIBXzAJBgNVHRMEAjAAMC0GCWCGSAGG+EIBDQQgFh5FYXN5LVJT
QSBHZW5lcmF0ZWQgQ2VydGlmaWNhdGUwHQYDVR0OBBYEFOuww6EAXrtp9dQXEpRH
y3IBBKVTMIHhBgNVHSMEgdkwgdaAFBLNYATSoICecO3Gmbh7LMZS/RmhoYGypIGv
MIGsMQswCQYDVQQGEwJVUzELMAkGA1UECBMCT0gxETAPBgNVBAcTCENvbHVtYnVz
MRIwEAYDVQQKEwlWaWtpbmdWUE4xHTAbBgNVBAsTFE15T3JnYW5pemF0aW9uYWxV
bml0MRUwEwYDVQQDEwxWaWtpbmdWUE4gQ0ExEDAOBgNVBCkTB0Vhc3lSU0ExITAf
BgkqhkiG9w0BCQEWEm1lQG15aG9zdC5teWRvbWFpboIJAM81he6Avyo+MBMGA1Ud
JQQMMAoGCCsGAQUFBwMCMAsGA1UdDwQEAwIHgDANBgkqhkiG9w0BAQQFAAOCAgEA
XBTa66tSjjgSIA8wT+sEtmeB//cu7VBeAvA+28WMsjKIvD4PMGrcy2mMjLkdU8o1
ZMH9g7blAQiaS40Pg0QkWCQYVRctQOm0rHW0ea3Dxy9wqnq/2P4G2td+bLWcABMT
6Zpa9Qc7d1B1VRsbOuJXmRMg6gPLjKv5XGfRo2KhFF5CIe1n8UyGpH6jHbpmquzz
V+crpKK9fp9q55ut+MgxtL4wFQULeeRe9D/l/dqdgEgSbM/oaDB7NPvlm79rfRKk
m061ng7c3/ja3JLIF4qfDbomx811IQ7QSHA09yYG6nXm+MfX/QjQn/BmDfhY0+Ex
QB/X8uvQiFAlliY6EonzMImlcIo+Te07/EYnw+PIJC4RkrZsXyNP/kjTDiNCBt81
8fLGnY7U9QYAkNCh/tLUsVPljmrGD0RY64IQXopM9vhviBNBhWGLbVEGjkiKWFkA
BP2M48vqvDcG2h1GYsqGFf5y8dGskWNRPJavFcOlNeLjfxJTLAUlVypqfE0pXESc
wwS615EzEft0yMP6+kZ6DhDC/p49iZp04vnS2IwBOFVnvCUF2SS5vRq2zaM0qh9Q
me8314uOHolnsJ48dCvFLKe6VTkBeGZYtYp4EHn0NPZdxe9A2p7KjFLJzDQe3FY5
s02jraQyQZv3nFrVTJOw5uqFQUdfaZ9iRrfPpPU8rNY=
-----END CERTIFICATE-----
