Certificate:
    Data:
        Version: 3 (0x2)
        Serial Number: 5990 (0x1766)
    Signature Algorithm: md5WithRSAEncryption
        Issuer: C=US, ST=OH, L=Columbus, O=VikingVPN, OU=MyOrganizationalUnit, CN=VikingVPN CA/name=EasyRSA/emailAddress=me@myhost.mydomain
        Validity
            Not Before: Aug  4 20:16:37 2015 GMT
            Not After : Aug  1 20:16:37 2025 GMT
        Subject: CN=Client1711Cert979340
        Subject Public Key Info:
            Public Key Algorithm: rsaEncryption
                Public-Key: (4096 bit)
                Modulus:
                    00:ac:4f:e2:a1:07:18:2b:70:1e:84:23:2e:13:b0:
                    11:d6:2b:27:13:29:55:66:66:94:bc:30:ed:99:16:
                    0d:90:c4:d8:b0:39:c4:78:bf:52:6f:29:40:ba:f8:
                    fb:ae:ef:1a:7c:cd:3f:04:27:e6:09:da:50:ac:ad:
                    6c:15:31:1b:70:86:44:b8:7c:26:d0:93:32:51:9c:
                    97:c8:05:a5:3c:b8:24:ae:0e:d8:71:d5:a4:5f:ec:
                    76:63:41:82:2b:af:e8:6e:86:5f:b8:0a:80:9e:20:
                    c1:c9:97:6a:ab:aa:09:37:a2:9f:cd:5d:41:00:ab:
                    f9:85:1c:61:f5:2d:2f:88:81:50:29:55:c4:39:97:
                    fd:44:87:59:e2:c9:1b:9e:1d:28:08:38:c6:5c:dc:
                    b8:f5:df:b1:14:f4:db:28:40:e2:fb:2e:29:e2:85:
                    07:6d:04:dc:7f:61:7e:fa:1d:e0:41:88:3b:bf:b9:
                    0d:68:02:5f:95:f5:5e:1d:43:9a:69:b3:af:17:67:
                    81:30:6a:67:e6:49:10:b5:7f:4a:51:7e:43:5a:b2:
                    31:60:90:ab:1e:76:c3:08:14:69:56:32:48:71:42:
                    4d:98:cd:38:9f:ef:9d:31:10:79:4e:1d:eb:d0:5e:
                    bd:fe:7a:17:eb:2f:5d:a5:18:c6:a5:d7:22:b1:86:
                    9f:24:21:4c:f2:b7:be:f6:87:14:d8:72:02:3e:fe:
                    aa:06:08:02:98:d7:6b:18:9d:3c:04:12:46:2c:4e:
                    6c:ce:0c:98:58:d5:7a:43:fb:a6:37:81:3f:f9:8e:
                    4f:6a:7e:98:65:44:86:6a:d6:9f:27:34:de:8e:90:
                    1d:2f:24:dc:ed:21:ca:e7:a1:81:4a:ad:43:5a:94:
                    1b:6f:f7:e2:8f:9a:90:be:f5:bb:72:c3:c6:ac:a6:
                    98:4c:3d:86:d9:c1:42:74:33:2c:14:34:6f:b1:ab:
                    bd:cf:96:94:74:3c:e0:aa:97:b4:2c:7e:79:ea:cb:
                    f0:7f:df:58:46:d7:d0:3c:a6:1b:67:05:91:bd:3c:
                    8a:5f:18:fe:27:9c:05:97:1d:fd:48:43:4b:12:9d:
                    71:63:23:af:ac:e9:9b:53:0e:03:fb:1d:b6:c5:d9:
                    7c:4e:9e:e0:ca:3e:86:39:5e:d1:ac:c3:1b:8b:ed:
                    ac:2f:75:87:5e:95:6f:97:69:aa:ca:80:89:d1:8b:
                    3f:92:63:74:30:7b:48:34:0c:5f:56:b2:30:24:b9:
                    10:d3:02:58:55:ff:56:7f:23:50:b3:57:9f:e7:8a:
                    9c:6e:d5:a1:ba:0a:b5:c1:da:4a:0b:7d:f9:c4:30:
                    43:fa:01:1b:68:04:db:b2:f3:39:0b:0f:1e:e0:6e:
                    dd:bd:8b
                Exponent: 65537 (0x10001)
        X509v3 extensions:
            X509v3 Basic Constraints: 
                CA:FALSE
            Netscape Comment: 
                Easy-RSA Generated Certificate
            X509v3 Subject Key Identifier: 
                A3:55:AD:6E:74:74:40:6C:EC:B5:0D:67:43:EC:49:8D:E3:44:75:0D
            X509v3 Authority Key Identifier: 
                keyid:12:CD:60:04:D2:A0:80:9E:70:ED:C6:99:B8:7B:2C:C6:52:FD:19:A1
                DirName:/C=US/ST=OH/L=Columbus/O=VikingVPN/OU=MyOrganizationalUnit/CN=VikingVPN CA/name=EasyRSA/emailAddress=me@myhost.mydomain
                serial:CF:35:85:EE:80:BF:2A:3E

            X509v3 Extended Key Usage: 
                TLS Web Client Authentication
            X509v3 Key Usage: 
                Digital Signature
    Signature Algorithm: md5WithRSAEncryption
         c2:52:ef:1e:83:a9:36:ec:7c:6e:ed:4a:88:08:1a:f9:ad:1f:
         c2:a3:6b:96:fc:44:f9:13:ed:72:24:51:e4:ca:29:53:4e:79:
         a0:df:7d:0b:51:6b:73:29:33:36:0c:19:f4:90:e6:6a:b2:33:
         e3:d1:94:db:a5:d6:28:f3:b7:cc:53:ef:f8:bd:1f:c0:07:6e:
         0b:b0:fe:90:1a:4c:91:52:ae:42:f3:c2:6c:9d:eb:b0:31:b8:
         32:37:44:7d:4e:ca:15:04:68:eb:aa:90:70:7e:9e:a5:59:32:
         94:ff:87:31:47:68:c7:b1:5d:73:ad:05:12:32:83:40:ea:f8:
         44:79:bc:52:89:5c:21:34:56:ad:30:cd:20:93:6b:ce:69:90:
         c4:86:1a:7a:a4:c5:2c:7a:ef:34:05:6f:25:86:3c:ea:c4:0d:
         53:9f:a1:b5:f1:7a:d7:20:52:8e:97:89:46:92:07:ce:47:c3:
         12:a2:dd:97:7b:44:31:a1:14:75:e4:02:a1:52:31:18:a4:f5:
         3d:7a:34:6d:c9:63:38:6f:26:1c:43:80:fb:39:3d:72:30:0e:
         90:2f:cb:ad:6b:be:16:23:c1:34:d5:53:34:ca:51:4b:d1:2d:
         e9:2b:8a:87:be:e5:5f:ec:a8:1e:46:8d:90:3c:41:61:2d:5c:
         65:b0:31:e3:95:ea:0d:82:a2:a0:68:c8:75:62:78:c6:10:67:
         27:5d:e1:42:2f:36:94:88:1c:f2:1f:e6:37:86:42:00:b1:d6:
         91:7b:ea:4e:a7:e5:4a:1e:d8:f8:cf:f6:6c:5c:4f:81:e7:47:
         a1:9c:5a:e7:44:ce:42:8e:23:9d:d9:11:ef:15:23:fa:1b:27:
         aa:c7:4c:f9:48:4c:c7:98:b7:fb:70:61:79:2b:88:f9:d5:6f:
         2e:04:87:50:71:3d:23:93:3e:86:6e:2e:2f:33:0d:a5:ab:c5:
         3d:4f:ff:2b:c6:b8:45:34:23:6f:80:24:17:38:0e:03:73:29:
         e3:e8:44:d0:0e:13:92:4b:73:7e:2d:8a:a6:ea:5f:26:91:94:
         0e:b5:6f:99:73:0e:0d:ed:6e:9d:e2:be:99:ad:59:38:24:49:
         9b:6f:8a:de:e3:7d:39:2a:f3:48:4c:e1:ed:70:76:c5:76:fe:
         d1:46:1d:c3:de:ab:82:63:21:e4:10:0d:5f:64:c5:fe:8d:1d:
         be:cc:66:ab:8b:47:bd:75:4a:b1:ca:28:c4:26:26:f2:29:ea:
         12:3f:64:c8:19:c1:d5:e2:8e:fc:1d:cc:3b:d2:21:e2:ec:81:
         7b:61:31:bb:f4:bc:ac:7e:b5:2f:eb:74:57:d9:39:1f:3a:f6:
         36:04:d1:43:73:ee:16:e6
-----BEGIN CERTIFICATE-----
MIIGrTCCBJWgAwIBAgICF2YwDQYJKoZIhvcNAQEEBQAwgawxCzAJBgNVBAYTAlVT
MQswCQYDVQQIEwJPSDERMA8GA1UEBxMIQ29sdW1idXMxEjAQBgNVBAoTCVZpa2lu
Z1ZQTjEdMBsGA1UECxMUTXlPcmdhbml6YXRpb25hbFVuaXQxFTATBgNVBAMTDFZp
a2luZ1ZQTiBDQTEQMA4GA1UEKRMHRWFzeVJTQTEhMB8GCSqGSIb3DQEJARYSbWVA
bXlob3N0Lm15ZG9tYWluMB4XDTE1MDgwNDIwMTYzN1oXDTI1MDgwMTIwMTYzN1ow
HzEdMBsGA1UEAxMUQ2xpZW50MTcxMUNlcnQ5NzkzNDAwggIiMA0GCSqGSIb3DQEB
AQUAA4ICDwAwggIKAoICAQCsT+KhBxgrcB6EIy4TsBHWKycTKVVmZpS8MO2ZFg2Q
xNiwOcR4v1JvKUC6+Puu7xp8zT8EJ+YJ2lCsrWwVMRtwhkS4fCbQkzJRnJfIBaU8
uCSuDthx1aRf7HZjQYIrr+huhl+4CoCeIMHJl2qrqgk3op/NXUEAq/mFHGH1LS+I
gVApVcQ5l/1Eh1niyRueHSgIOMZc3Lj137EU9NsoQOL7LinihQdtBNx/YX76HeBB
iDu/uQ1oAl+V9V4dQ5pps68XZ4EwamfmSRC1f0pRfkNasjFgkKsedsMIFGlWMkhx
Qk2YzTif750xEHlOHevQXr3+ehfrL12lGMal1yKxhp8kIUzyt772hxTYcgI+/qoG
CAKY12sYnTwEEkYsTmzODJhY1XpD+6Y3gT/5jk9qfphlRIZq1p8nNN6OkB0vJNzt
IcrnoYFKrUNalBtv9+KPmpC+9btyw8aspphMPYbZwUJ0MywUNG+xq73PlpR0POCq
l7Qsfnnqy/B/31hG19A8phtnBZG9PIpfGP4nnAWXHf1IQ0sSnXFjI6+s6ZtTDgP7
HbbF2XxOnuDKPoY5XtGswxuL7awvdYdelW+XaarKgInRiz+SY3Qwe0g0DF9WsjAk
uRDTAlhV/1Z/I1CzV5/nipxu1aG6CrXB2koLffnEMEP6ARtoBNuy8zkLDx7gbt29
iwIDAQABo4IBYzCCAV8wCQYDVR0TBAIwADAtBglghkgBhvhCAQ0EIBYeRWFzeS1S
U0EgR2VuZXJhdGVkIENlcnRpZmljYXRlMB0GA1UdDgQWBBSjVa1udHRAbOy1DWdD
7EmN40R1DTCB4QYDVR0jBIHZMIHWgBQSzWAE0qCAnnDtxpm4eyzGUv0ZoaGBsqSB
rzCBrDELMAkGA1UEBhMCVVMxCzAJBgNVBAgTAk9IMREwDwYDVQQHEwhDb2x1bWJ1
czESMBAGA1UEChMJVmlraW5nVlBOMR0wGwYDVQQLExRNeU9yZ2FuaXphdGlvbmFs
VW5pdDEVMBMGA1UEAxMMVmlraW5nVlBOIENBMRAwDgYDVQQpEwdFYXN5UlNBMSEw
HwYJKoZIhvcNAQkBFhJtZUBteWhvc3QubXlkb21haW6CCQDPNYXugL8qPjATBgNV
HSUEDDAKBggrBgEFBQcDAjALBgNVHQ8EBAMCB4AwDQYJKoZIhvcNAQEEBQADggIB
AMJS7x6DqTbsfG7tSogIGvmtH8Kja5b8RPkT7XIkUeTKKVNOeaDffQtRa3MpMzYM
GfSQ5mqyM+PRlNul1ijzt8xT7/i9H8AHbguw/pAaTJFSrkLzwmyd67AxuDI3RH1O
yhUEaOuqkHB+nqVZMpT/hzFHaMexXXOtBRIyg0Dq+ER5vFKJXCE0Vq0wzSCTa85p
kMSGGnqkxSx67zQFbyWGPOrEDVOfobXxetcgUo6XiUaSB85HwxKi3Zd7RDGhFHXk
AqFSMRik9T16NG3JYzhvJhxDgPs5PXIwDpAvy61rvhYjwTTVUzTKUUvRLekrioe+
5V/sqB5GjZA8QWEtXGWwMeOV6g2CoqBoyHVieMYQZydd4UIvNpSIHPIf5jeGQgCx
1pF76k6n5Uoe2PjP9mxcT4HnR6GcWudEzkKOI53ZEe8VI/obJ6rHTPlITMeYt/tw
YXkriPnVby4Eh1BxPSOTPoZuLi8zDaWrxT1P/yvGuEU0I2+AJBc4DgNzKePoRNAO
E5JLc34tiqbqXyaRlA61b5lzDg3tbp3ivpmtWTgkSZtvit7jfTkq80hM4e1wdsV2
/tFGHcPeq4JjIeQQDV9kxf6NHb7MZquLR711SrHKKMQmJvIp6hI/ZMgZwdXijvwd
zDvSIeLsgXthMbv0vKx+tS/rdFfZOR869jYE0UNz7hbm
-----END CERTIFICATE-----
