Certificate:
    Data:
        Version: 3 (0x2)
        Serial Number: 3601 (0xe11)
    Signature Algorithm: md5WithRSAEncryption
        Issuer: C=US, ST=OH, L=Columbus, O=VikingVPN, OU=MyOrganizationalUnit, CN=VikingVPN CA/name=EasyRSA/emailAddress=me@myhost.mydomain
        Validity
            Not Before: Dec  3 12:57:15 2014 GMT
            Not After : Nov 30 12:57:15 2024 GMT
        Subject: CN=Client1239Certc762d5
        Subject Public Key Info:
            Public Key Algorithm: rsaEncryption
                Public-Key: (4096 bit)
                Modulus:
                    00:d5:53:0a:44:ea:80:c3:48:d2:ff:05:c7:19:f7:
                    50:52:06:77:2d:28:43:87:36:d5:4f:3c:07:95:87:
                    23:b4:0b:41:a4:40:12:d8:41:3c:74:b0:85:0a:d9:
                    2f:16:4e:bb:59:7e:06:4f:15:d6:d3:f2:89:34:fd:
                    30:b8:70:a7:35:59:2c:08:8d:a5:fa:fe:38:23:b7:
                    c2:ed:49:77:f9:4e:b3:3b:87:ae:63:3c:8c:a1:11:
                    d5:96:af:58:e9:a0:db:01:31:8a:5b:88:15:48:98:
                    bf:e6:02:20:42:fa:6f:12:d6:2b:04:1d:54:10:e8:
                    10:c3:d7:cc:08:4e:f9:26:a8:a5:37:75:0c:cf:fc:
                    f4:d8:c1:a0:9e:c2:32:10:ab:9f:14:fd:c5:9d:e8:
                    b2:a6:35:7f:c3:7d:e8:fd:d4:39:12:68:48:6e:7b:
                    4e:6d:ef:23:23:8e:8e:40:01:38:9a:aa:16:f0:91:
                    06:e6:7f:1b:40:03:83:f9:ca:82:29:ba:03:34:5f:
                    93:4f:5b:d9:ea:22:e9:f6:ed:d0:b2:83:10:87:d5:
                    67:08:9d:5e:bb:59:33:45:83:96:e0:b0:cc:3e:22:
                    28:29:1a:6d:d8:a5:6b:cb:74:28:e8:8a:d9:90:69:
                    aa:53:5a:0e:69:e6:9e:42:0a:c2:b1:03:ea:23:30:
                    5d:65:d8:b7:17:bb:21:7c:e4:60:5a:38:e0:28:92:
                    1f:0b:2f:1c:1b:b0:d6:08:a2:88:d3:04:a8:81:fb:
                    06:f4:23:04:2b:74:8e:ff:dd:00:2f:eb:3c:6a:0e:
                    64:6d:b7:83:3c:a2:03:01:57:12:bf:42:a4:aa:fe:
                    ca:d1:e7:ea:49:0b:e0:d3:70:57:54:c3:c6:6d:66:
                    fe:15:45:a6:6e:38:07:21:3f:2f:09:9e:49:e3:7b:
                    cc:d1:50:3d:8f:1d:e9:05:4a:91:27:d7:cb:77:1f:
                    72:d4:f3:09:4d:54:56:cf:07:5c:70:ca:3b:50:cb:
                    70:55:24:8a:f9:98:f6:80:2d:a6:ab:33:42:86:f3:
                    58:1c:58:d6:b5:be:7f:0c:28:f3:66:e3:8d:8e:a9:
                    67:ed:e0:83:0a:77:ba:66:e4:b6:e1:8f:cf:87:d4:
                    e9:0f:06:0a:9e:ec:89:95:e4:9f:bf:ca:a8:c7:12:
                    b1:66:eb:4b:f4:7d:ef:f2:b9:d3:c2:88:54:79:67:
                    68:31:6f:15:02:bb:d0:ed:0c:2a:c5:16:6f:c0:b3:
                    36:18:3b:b4:48:76:3e:92:f5:1a:ef:bd:25:54:cd:
                    49:92:ef:5b:7a:f1:4f:02:52:76:d7:59:c9:5b:67:
                    33:2a:ff:7d:88:75:b5:39:1e:f2:e7:4c:1c:3b:92:
                    9a:98:af
                Exponent: 65537 (0x10001)
        X509v3 extensions:
            X509v3 Basic Constraints: 
                CA:FALSE
            Netscape Comment: 
                Easy-RSA Generated Certificate
            X509v3 Subject Key Identifier: 
                A2:1D:EC:22:A8:B0:28:2D:83:BB:E5:DD:76:A8:8F:32:B3:9B:08:DE
            X509v3 Authority Key Identifier: 
                keyid:12:CD:60:04:D2:A0:80:9E:70:ED:C6:99:B8:7B:2C:C6:52:FD:19:A1
                DirName:/C=US/ST=OH/L=Columbus/O=VikingVPN/OU=MyOrganizationalUnit/CN=VikingVPN CA/name=EasyRSA/emailAddress=me@myhost.mydomain
                serial:CF:35:85:EE:80:BF:2A:3E

            X509v3 Extended Key Usage: 
                TLS Web Client Authentication
            X509v3 Key Usage: 
                Digital Signature
    Signature Algorithm: md5WithRSAEncryption
         0b:7c:05:30:ab:53:c0:aa:73:2f:f6:42:50:87:33:5f:3b:ab:
         e4:d4:1e:17:64:d2:67:97:93:46:87:df:2e:c0:9f:00:57:f4:
         d8:53:14:01:65:ca:24:71:2d:ab:bb:48:ca:03:ad:46:c5:f0:
         5f:5c:1b:2c:81:e2:ce:85:77:ef:07:77:49:5c:2d:5f:10:88:
         d3:2d:a5:ce:93:40:41:64:38:d1:77:33:26:95:e9:57:41:63:
         86:e4:91:cb:69:4f:c1:b0:07:d5:ea:dc:7c:e2:6a:84:94:3b:
         30:3f:ba:7e:46:4e:87:67:e3:16:c5:1e:4c:a1:38:5f:19:6b:
         19:3f:7b:c1:c5:d3:dd:15:f9:07:3d:74:43:28:6e:e8:f8:c6:
         4f:11:53:dd:1e:a6:a2:4d:99:28:94:cd:ed:7f:98:0e:92:80:
         39:1d:45:bc:c1:8e:60:21:4d:30:0b:7f:4b:64:3f:ec:92:d7:
         0a:77:f8:52:00:0f:59:6b:b0:38:02:85:c5:45:37:24:1f:61:
         de:9f:e8:e9:29:99:cd:09:ac:7f:82:41:c8:0a:86:bb:25:a1:
         9b:d4:7f:7f:a0:c5:3b:73:33:e2:e6:38:5d:0b:1e:b4:b0:61:
         83:d3:1b:b8:1f:d1:9a:1c:35:82:97:f9:53:00:29:5b:dd:7b:
         b0:1e:0e:8a:3f:7d:45:c5:ab:a2:01:8b:49:db:62:06:8f:a4:
         73:18:95:58:30:a6:1b:e1:f9:ec:73:18:cf:c3:78:fd:af:3c:
         96:b1:b6:0f:5b:75:b0:5f:fe:98:3e:8e:89:81:f5:68:54:7d:
         46:0d:df:62:e2:57:cf:45:86:45:b0:33:23:e1:f1:d7:d3:b3:
         08:48:36:c6:d6:54:1c:dd:4a:25:cf:20:43:36:7a:9f:13:1a:
         31:ec:af:71:5c:5d:30:37:52:42:76:d0:96:ed:3a:5d:c1:43:
         3e:10:96:0a:32:a3:bf:78:36:a0:a7:eb:99:dd:88:eb:e7:63:
         c4:47:7c:50:7b:29:29:57:99:fa:b8:cc:9b:53:f1:0f:a5:98:
         24:60:17:2b:cb:79:ee:0f:fa:1a:e1:d3:a3:83:e4:94:06:5c:
         c7:25:56:21:64:39:1b:05:49:34:2d:3c:b4:90:5c:fb:69:e5:
         ad:db:dd:25:52:50:53:8f:1a:5f:42:c4:6e:e2:42:57:f3:08:
         77:ef:22:d5:d5:62:30:aa:de:c7:75:48:d3:8e:6c:a9:d6:b0:
         6a:03:c6:0e:93:23:74:f8:e9:98:33:cc:36:1d:1d:6b:ac:29:
         b3:41:d0:75:73:0f:61:66:e9:5d:05:dc:b7:82:0e:af:ff:12:
         c0:a3:70:fc:f3:a5:a0:e6
-----BEGIN CERTIFICATE-----
MIIGrTCCBJWgAwIBAgICDhEwDQYJKoZIhvcNAQEEBQAwgawxCzAJBgNVBAYTAlVT
MQswCQYDVQQIEwJPSDERMA8GA1UEBxMIQ29sdW1idXMxEjAQBgNVBAoTCVZpa2lu
Z1ZQTjEdMBsGA1UECxMUTXlPcmdhbml6YXRpb25hbFVuaXQxFTATBgNVBAMTDFZp
a2luZ1ZQTiBDQTEQMA4GA1UEKRMHRWFzeVJTQTEhMB8GCSqGSIb3DQEJARYSbWVA
bXlob3N0Lm15ZG9tYWluMB4XDTE0MTIwMzEyNTcxNVoXDTI0MTEzMDEyNTcxNVow
HzEdMBsGA1UEAxMUQ2xpZW50MTIzOUNlcnRjNzYyZDUwggIiMA0GCSqGSIb3DQEB
AQUAA4ICDwAwggIKAoICAQDVUwpE6oDDSNL/BccZ91BSBnctKEOHNtVPPAeVhyO0
C0GkQBLYQTx0sIUK2S8WTrtZfgZPFdbT8ok0/TC4cKc1WSwIjaX6/jgjt8LtSXf5
TrM7h65jPIyhEdWWr1jpoNsBMYpbiBVImL/mAiBC+m8S1isEHVQQ6BDD18wITvkm
qKU3dQzP/PTYwaCewjIQq58U/cWd6LKmNX/Dfej91DkSaEhue05t7yMjjo5AATia
qhbwkQbmfxtAA4P5yoIpugM0X5NPW9nqIun27dCygxCH1WcInV67WTNFg5bgsMw+
IigpGm3YpWvLdCjoitmQaapTWg5p5p5CCsKxA+ojMF1l2LcXuyF85GBaOOAokh8L
LxwbsNYIoojTBKiB+wb0IwQrdI7/3QAv6zxqDmRtt4M8ogMBVxK/QqSq/srR5+pJ
C+DTcFdUw8ZtZv4VRaZuOAchPy8Jnknje8zRUD2PHekFSpEn18t3H3LU8wlNVFbP
B1xwyjtQy3BVJIr5mPaALaarM0KG81gcWNa1vn8MKPNm442OqWft4IMKd7pm5Lbh
j8+H1OkPBgqe7ImV5J+/yqjHErFm60v0fe/yudPCiFR5Z2gxbxUCu9DtDCrFFm/A
szYYO7RIdj6S9RrvvSVUzUmS71t68U8CUnbXWclbZzMq/32IdbU5HvLnTBw7kpqY
rwIDAQABo4IBYzCCAV8wCQYDVR0TBAIwADAtBglghkgBhvhCAQ0EIBYeRWFzeS1S
U0EgR2VuZXJhdGVkIENlcnRpZmljYXRlMB0GA1UdDgQWBBSiHewiqLAoLYO75d12
qI8ys5sI3jCB4QYDVR0jBIHZMIHWgBQSzWAE0qCAnnDtxpm4eyzGUv0ZoaGBsqSB
rzCBrDELMAkGA1UEBhMCVVMxCzAJBgNVBAgTAk9IMREwDwYDVQQHEwhDb2x1bWJ1
czESMBAGA1UEChMJVmlraW5nVlBOMR0wGwYDVQQLExRNeU9yZ2FuaXphdGlvbmFs
VW5pdDEVMBMGA1UEAxMMVmlraW5nVlBOIENBMRAwDgYDVQQpEwdFYXN5UlNBMSEw
HwYJKoZIhvcNAQkBFhJtZUBteWhvc3QubXlkb21haW6CCQDPNYXugL8qPjATBgNV
HSUEDDAKBggrBgEFBQcDAjALBgNVHQ8EBAMCB4AwDQYJKoZIhvcNAQEEBQADggIB
AAt8BTCrU8Cqcy/2QlCHM187q+TUHhdk0meXk0aH3y7AnwBX9NhTFAFlyiRxLau7
SMoDrUbF8F9cGyyB4s6Fd+8Hd0lcLV8QiNMtpc6TQEFkONF3MyaV6VdBY4bkkctp
T8GwB9Xq3HziaoSUOzA/un5GTodn4xbFHkyhOF8Zaxk/e8HF090V+Qc9dEMobuj4
xk8RU90epqJNmSiUze1/mA6SgDkdRbzBjmAhTTALf0tkP+yS1wp3+FIAD1lrsDgC
hcVFNyQfYd6f6Okpmc0JrH+CQcgKhrsloZvUf3+gxTtzM+LmOF0LHrSwYYPTG7gf
0ZocNYKX+VMAKVvde7AeDoo/fUXFq6IBi0nbYgaPpHMYlVgwphvh+exzGM/DeP2v
PJaxtg9bdbBf/pg+jomB9WhUfUYN32LiV89FhkWwMyPh8dfTswhINsbWVBzdSiXP
IEM2ep8TGjHsr3FcXTA3UkJ20JbtOl3BQz4Qlgoyo794NqCn65ndiOvnY8RHfFB7
KSlXmfq4zJtT8Q+lmCRgFyvLee4P+hrh06OD5JQGXMclViFkORsFSTQtPLSQXPtp
5a3b3SVSUFOPGl9CxG7iQlfzCHfvItXVYjCq3sd1SNOObKnWsGoDxg6TI3T46Zgz
zDYdHWusKbNB0HVzD2Fm6V0F3LeCDq//EsCjcPzzpaDm
-----END CERTIFICATE-----
