Certificate:
    Data:
        Version: 3 (0x2)
        Serial Number: 9679 (0x25cf)
    Signature Algorithm: sha256WithRSAEncryption
        Issuer: C=US, ST=OH, L=Columbus, O=VikingVPN, OU=MyOrganizationalUnit, CN=VikingVPN CA/name=EasyRSA/emailAddress=me@myhost.mydomain
        Validity
            Not Before: Dec  8 14:58:13 2016 GMT
            Not After : Dec  6 14:58:13 2026 GMT
        Subject: CN=Client2296Certcf8652
        Subject Public Key Info:
            Public Key Algorithm: rsaEncryption
                Public-Key: (4096 bit)
                Modulus:
                    00:96:54:8f:f4:6c:ae:e0:b2:39:2b:d2:93:9e:37:
                    80:91:51:83:8d:51:ee:bd:cb:14:f2:9b:14:2d:c4:
                    3b:03:f5:d8:64:53:6a:60:77:a6:5e:e8:97:33:11:
                    cb:44:82:3d:8a:90:e4:14:60:72:a8:6b:ed:5d:74:
                    f3:31:5c:e0:d7:e4:16:e4:22:dd:3d:54:2e:cd:a1:
                    79:c4:38:4f:4e:7e:0c:8e:6d:47:4b:ed:2a:76:05:
                    68:1a:c1:ad:ff:27:30:7c:33:a8:b8:8f:3e:06:e0:
                    91:e3:15:a0:c6:45:dd:9b:1d:84:4e:3f:62:8e:ce:
                    0a:5f:8d:18:58:46:07:5a:a7:ae:84:46:34:5b:24:
                    ef:83:73:92:16:32:09:eb:44:96:9e:61:0c:91:e5:
                    11:22:a4:9d:6b:59:80:56:30:1d:31:f5:da:ae:d3:
                    2b:67:d3:2d:19:0a:90:e0:0d:bd:5a:70:61:6c:56:
                    6f:f9:cc:9f:4d:12:7d:00:85:25:a6:7f:a3:9c:6e:
                    0f:6d:bc:dd:ba:32:07:86:4b:7c:d3:3e:91:b1:c3:
                    5b:a0:e9:f4:da:26:22:c6:c9:ee:c7:4b:18:19:8a:
                    b3:3e:62:aa:23:2e:ac:2c:11:4e:80:df:47:5d:a1:
                    a1:20:9b:9e:91:ff:a8:3f:93:83:df:de:ea:fd:a8:
                    6d:8b:e7:b9:da:18:d1:e0:56:cf:86:ea:d8:3b:89:
                    97:1c:c9:cc:cd:94:af:bd:9b:5e:4a:61:7e:09:aa:
                    b3:1f:2a:a8:ee:d3:57:cd:15:e7:b8:52:ea:2e:f1:
                    ab:a0:99:ce:3c:0b:ed:7f:c1:b2:ff:ac:b1:10:4a:
                    d8:da:4b:31:34:f7:d6:ec:ba:88:f8:88:f6:e7:42:
                    6c:27:47:a2:3e:b2:f8:0b:a0:f9:ed:69:21:f1:ae:
                    da:fb:60:09:4e:69:3e:c0:a7:4b:f4:d1:57:e4:18:
                    5f:b5:47:9b:75:f8:2f:52:1d:78:93:81:23:6e:69:
                    9d:db:5a:a6:11:d2:97:4b:6a:0e:35:ec:a4:07:3d:
                    77:ef:16:29:87:27:e9:33:1b:c9:03:c1:5c:ce:fb:
                    1e:23:0f:b3:fd:e8:bf:95:0e:3a:02:81:75:d5:de:
                    d7:b0:e3:0a:e8:06:2d:12:61:b8:8b:0a:19:30:04:
                    04:32:62:20:46:a5:fc:e1:3e:41:a9:b8:4a:3b:46:
                    2f:38:b0:d5:2a:9e:3c:c9:39:3b:92:be:c4:24:b8:
                    48:fc:73:c3:de:49:5e:ab:23:b7:d3:74:92:db:ca:
                    bf:06:40:cf:a6:c4:3b:c4:f1:0a:2d:b7:fe:fb:b0:
                    3c:9b:30:b4:45:89:29:3f:23:ad:6e:7e:3a:14:30:
                    2b:d1:f3
                Exponent: 65537 (0x10001)
        X509v3 extensions:
            X509v3 Basic Constraints: 
                CA:FALSE
            Netscape Comment: 
                Easy-RSA Generated Certificate
            X509v3 Subject Key Identifier: 
                4B:6F:3F:15:1A:BB:5A:B8:30:78:89:74:CE:D4:C8:C7:32:8E:D4:BE
            X509v3 Authority Key Identifier: 
                keyid:12:CD:60:04:D2:A0:80:9E:70:ED:C6:99:B8:7B:2C:C6:52:FD:19:A1
                DirName:/C=US/ST=OH/L=Columbus/O=VikingVPN/OU=MyOrganizationalUnit/CN=VikingVPN CA/name=EasyRSA/emailAddress=me@myhost.mydomain
                serial:CF:35:85:EE:80:BF:2A:3E

            X509v3 Extended Key Usage: 
                TLS Web Client Authentication
            X509v3 Key Usage: 
                Digital Signature
    Signature Algorithm: sha256WithRSAEncryption
         2a:eb:1a:d0:6e:66:f9:70:f0:96:af:0d:c3:36:99:a7:8a:98:
         78:b9:85:21:d1:a5:8b:19:75:ad:5d:60:4b:62:26:84:4c:d2:
         29:86:57:3c:75:32:51:86:f9:d8:e0:6b:aa:0d:77:db:ac:6b:
         47:7e:3a:ca:46:28:b1:89:45:dc:99:6e:3d:87:9e:a0:6b:ec:
         cc:95:a7:74:1a:f2:c7:7e:ac:44:9f:88:b7:77:83:65:f8:c7:
         50:cd:2b:a4:79:75:8a:de:b1:d8:b5:80:e0:4b:5b:9f:0f:91:
         16:49:62:8c:e1:ab:aa:ac:83:8a:29:0d:a1:8a:a4:16:0d:0d:
         86:13:fb:a1:8e:46:ee:7d:f3:94:22:d2:0d:3f:9b:02:e8:b9:
         5c:7d:67:1c:44:c0:84:83:b8:18:01:80:c5:08:ed:a2:62:f4:
         ba:da:f0:9c:95:2c:d1:5f:0f:67:ed:11:84:41:39:f0:c4:c9:
         2e:ef:b9:05:b3:53:a8:3b:2d:af:b0:d9:ab:7e:7b:b1:c3:c4:
         74:14:f9:71:28:b4:b5:61:dd:3f:ca:65:e0:a7:71:d0:a8:1e:
         6f:08:af:e4:a6:f9:77:83:e1:94:3b:a9:06:11:5b:f5:c0:d0:
         a1:e2:6b:9f:ba:5c:64:d1:b1:94:37:10:99:a6:ab:ea:4b:b8:
         0c:3b:22:ac:e8:9f:47:07:fa:1a:c7:18:21:a9:84:42:03:67:
         13:b1:f4:dd:c8:67:c7:89:ef:48:3c:72:d4:fc:9d:17:19:85:
         75:59:84:f4:76:59:73:c5:fa:37:9a:eb:d1:52:53:ff:ea:58:
         2f:ea:59:53:76:4c:33:c0:8e:45:a0:7a:71:c8:03:25:96:c2:
         a5:f9:4f:68:d8:62:83:62:2f:c2:e3:b8:20:5f:ba:4f:dc:0e:
         7d:46:8d:f5:cb:32:3d:7e:e0:e3:ba:7e:ea:2b:58:3b:27:11:
         a6:6b:02:9e:38:56:36:5b:65:17:c8:4d:c4:58:35:85:f1:6d:
         99:ae:ec:96:62:29:e1:f1:b2:14:31:6e:9f:d9:b1:bc:3f:a6:
         d7:e1:e6:cc:3b:2c:2b:5e:4e:dd:98:7f:30:13:71:c7:7a:a1:
         69:60:8c:a3:bb:86:98:db:4f:5b:2f:04:78:18:1c:dc:5f:b2:
         23:b8:63:ff:cc:53:b5:81:ca:c9:8b:ac:bc:77:bb:a2:50:ae:
         cc:21:0a:ac:6a:e2:7d:82:b9:e0:a3:98:e8:55:3c:79:d9:f7:
         89:a6:ce:2e:e9:8c:ae:a0:f7:2d:d1:20:d9:18:1d:9e:2c:7e:
         3d:59:c4:88:47:d9:dc:68:61:2e:60:2e:10:b1:ba:ef:44:d7:
         82:b0:23:e5:27:2d:23:c6
-----BEGIN CERTIFICATE-----
MIIGrTCCBJWgAwIBAgICJc8wDQYJKoZIhvcNAQELBQAwgawxCzAJBgNVBAYTAlVT
MQswCQYDVQQIEwJPSDERMA8GA1UEBxMIQ29sdW1idXMxEjAQBgNVBAoTCVZpa2lu
Z1ZQTjEdMBsGA1UECxMUTXlPcmdhbml6YXRpb25hbFVuaXQxFTATBgNVBAMTDFZp
a2luZ1ZQTiBDQTEQMA4GA1UEKRMHRWFzeVJTQTEhMB8GCSqGSIb3DQEJARYSbWVA
bXlob3N0Lm15ZG9tYWluMB4XDTE2MTIwODE0NTgxM1oXDTI2MTIwNjE0NTgxM1ow
HzEdMBsGA1UEAxMUQ2xpZW50MjI5NkNlcnRjZjg2NTIwggIiMA0GCSqGSIb3DQEB
AQUAA4ICDwAwggIKAoICAQCWVI/0bK7gsjkr0pOeN4CRUYONUe69yxTymxQtxDsD
9dhkU2pgd6Ze6JczEctEgj2KkOQUYHKoa+1ddPMxXODX5BbkIt09VC7NoXnEOE9O
fgyObUdL7Sp2BWgawa3/JzB8M6i4jz4G4JHjFaDGRd2bHYROP2KOzgpfjRhYRgda
p66ERjRbJO+Dc5IWMgnrRJaeYQyR5REipJ1rWYBWMB0x9dqu0ytn0y0ZCpDgDb1a
cGFsVm/5zJ9NEn0AhSWmf6Ocbg9tvN26MgeGS3zTPpGxw1ug6fTaJiLGye7HSxgZ
irM+YqojLqwsEU6A30ddoaEgm56R/6g/k4Pf3ur9qG2L57naGNHgVs+G6tg7iZcc
yczNlK+9m15KYX4JqrMfKqju01fNFee4Uuou8augmc48C+1/wbL/rLEQStjaSzE0
99bsuoj4iPbnQmwnR6I+svgLoPntaSHxrtr7YAlOaT7Ap0v00VfkGF+1R5t1+C9S
HXiTgSNuaZ3bWqYR0pdLag417KQHPXfvFimHJ+kzG8kDwVzO+x4jD7P96L+VDjoC
gXXV3tew4wroBi0SYbiLChkwBAQyYiBGpfzhPkGpuEo7Ri84sNUqnjzJOTuSvsQk
uEj8c8PeSV6rI7fTdJLbyr8GQM+mxDvE8Qott/77sDybMLRFiSk/I61ufjoUMCvR
8wIDAQABo4IBYzCCAV8wCQYDVR0TBAIwADAtBglghkgBhvhCAQ0EIBYeRWFzeS1S
U0EgR2VuZXJhdGVkIENlcnRpZmljYXRlMB0GA1UdDgQWBBRLbz8VGrtauDB4iXTO
1MjHMo7UvjCB4QYDVR0jBIHZMIHWgBQSzWAE0qCAnnDtxpm4eyzGUv0ZoaGBsqSB
rzCBrDELMAkGA1UEBhMCVVMxCzAJBgNVBAgTAk9IMREwDwYDVQQHEwhDb2x1bWJ1
czESMBAGA1UEChMJVmlraW5nVlBOMR0wGwYDVQQLExRNeU9yZ2FuaXphdGlvbmFs
VW5pdDEVMBMGA1UEAxMMVmlraW5nVlBOIENBMRAwDgYDVQQpEwdFYXN5UlNBMSEw
HwYJKoZIhvcNAQkBFhJtZUBteWhvc3QubXlkb21haW6CCQDPNYXugL8qPjATBgNV
HSUEDDAKBggrBgEFBQcDAjALBgNVHQ8EBAMCB4AwDQYJKoZIhvcNAQELBQADggIB
ACrrGtBuZvlw8JavDcM2maeKmHi5hSHRpYsZda1dYEtiJoRM0imGVzx1MlGG+djg
a6oNd9usa0d+OspGKLGJRdyZbj2HnqBr7MyVp3Qa8sd+rESfiLd3g2X4x1DNK6R5
dYresdi1gOBLW58PkRZJYozhq6qsg4opDaGKpBYNDYYT+6GORu5985Qi0g0/mwLo
uVx9ZxxEwISDuBgBgMUI7aJi9Lra8JyVLNFfD2ftEYRBOfDEyS7vuQWzU6g7La+w
2at+e7HDxHQU+XEotLVh3T/KZeCncdCoHm8Ir+Sm+XeD4ZQ7qQYRW/XA0KHia5+6
XGTRsZQ3EJmmq+pLuAw7Iqzon0cH+hrHGCGphEIDZxOx9N3IZ8eJ70g8ctT8nRcZ
hXVZhPR2WXPF+jea69FSU//qWC/qWVN2TDPAjkWgenHIAyWWwqX5T2jYYoNiL8Lj
uCBfuk/cDn1GjfXLMj1+4OO6fuorWDsnEaZrAp44VjZbZRfITcRYNYXxbZmu7JZi
KeHxshQxbp/Zsbw/ptfh5sw7LCteTt2YfzATccd6oWlgjKO7hpjbT1svBHgYHNxf
siO4Y//MU7WBysmLrLx3u6JQrswhCqxq4n2CueCjmOhVPHnZ94mmzi7pjK6g9y3R
INkYHZ4sfj1ZxIhH2dxoYS5gLhCxuu9E14KwI+UnLSPG
-----END CERTIFICATE-----
