Certificate:
    Data:
        Version: 3 (0x2)
        Serial Number: 11831 (0x2e37)
    Signature Algorithm: sha256WithRSAEncryption
        Issuer: C=US, ST=OH, L=Columbus, O=VikingVPN, OU=MyOrganizationalUnit, CN=VikingVPN CA/name=EasyRSA/emailAddress=me@myhost.mydomain
        Validity
            Not Before: Sep 13 23:03:49 2017 GMT
            Not After : Sep 11 23:03:49 2027 GMT
        Subject: CN=Client3092Cert479d42
        Subject Public Key Info:
            Public Key Algorithm: rsaEncryption
                Public-Key: (4096 bit)
                Modulus:
                    00:a6:6e:35:0d:a7:db:eb:27:08:c1:e1:53:0d:10:
                    00:73:60:4b:ab:bc:57:87:b9:d6:93:20:46:97:f6:
                    41:8f:49:3e:8e:e7:f4:c9:09:d8:de:12:b6:30:95:
                    cc:71:81:e2:2d:2e:ac:bf:3c:23:3f:de:b1:ed:64:
                    00:eb:23:22:9d:b9:62:c3:90:34:29:1c:91:93:28:
                    46:15:37:ac:54:80:97:a7:6e:d3:16:2f:2f:12:1c:
                    f8:5a:a0:d5:87:2d:e2:b3:f2:46:63:f3:1e:9e:d0:
                    00:95:a3:dc:48:62:e6:af:28:a4:52:b3:3c:03:78:
                    81:fb:be:25:87:e2:fa:db:24:f8:55:b9:28:ca:9c:
                    0a:83:44:68:bd:f6:9b:3a:87:6c:85:2d:2a:41:40:
                    5e:8f:2b:68:61:00:05:25:35:19:94:b0:f9:b9:5e:
                    84:d2:dd:ec:69:90:f2:23:9f:5b:7b:57:e6:a5:77:
                    78:18:0e:c2:e8:79:55:7a:f9:a4:11:7e:9b:af:97:
                    d5:d5:8c:94:b5:32:f2:5c:c8:76:92:c2:89:5f:91:
                    ba:14:64:a2:d6:59:32:44:15:59:f4:ae:5a:59:10:
                    46:ee:9c:9c:c3:ea:ab:08:f0:15:5a:2f:8c:dd:d5:
                    77:4e:85:fd:ed:db:b1:1a:8c:bd:da:2b:49:88:05:
                    39:07:2d:04:bc:bc:81:e7:11:15:61:32:da:58:4a:
                    f5:f8:bb:7d:95:57:d9:e2:8b:17:37:4b:b9:30:d6:
                    cd:c8:6e:85:48:49:8c:30:a1:de:f7:48:b3:db:c7:
                    4b:33:cf:01:13:c3:2c:b5:d2:ca:2a:86:a8:c1:e1:
                    eb:7b:f9:64:87:fc:f3:c8:fd:b1:65:57:ba:7d:f0:
                    2b:45:b0:6d:70:c6:a4:7f:30:60:ea:b9:ea:11:68:
                    55:34:e1:58:fc:99:84:e2:43:0b:6e:bd:7f:9d:33:
                    3f:84:c2:63:b5:71:3e:56:20:6c:ef:1d:26:a8:9f:
                    93:df:de:37:db:68:99:05:d0:94:37:4d:b0:24:f3:
                    cb:3a:8b:f5:cf:67:4a:91:0d:76:4f:76:2b:65:96:
                    1e:fe:5d:db:43:af:ad:d2:72:10:4b:91:60:f9:56:
                    77:8e:9e:3d:19:30:aa:b5:0e:c2:7d:eb:c6:af:0b:
                    73:20:67:d0:13:05:30:c4:7e:b1:c7:df:97:56:23:
                    93:0d:ab:0d:6f:76:d1:a1:23:10:15:5d:2c:07:e7:
                    d7:24:4e:2f:2f:65:63:77:e7:51:53:6a:de:96:c7:
                    60:8f:b2:d3:69:90:4f:93:09:fd:9f:ae:1c:07:2d:
                    77:91:9d:54:56:7d:61:a5:49:83:b3:00:aa:1f:a3:
                    87:00:89
                Exponent: 65537 (0x10001)
        X509v3 extensions:
            X509v3 Basic Constraints: 
                CA:FALSE
            Netscape Comment: 
                Easy-RSA Generated Certificate
            X509v3 Subject Key Identifier: 
                B4:1C:A6:D4:DA:74:5D:40:A1:E2:48:A6:DF:B0:1B:3A:6F:D5:BB:68
            X509v3 Authority Key Identifier: 
                keyid:12:CD:60:04:D2:A0:80:9E:70:ED:C6:99:B8:7B:2C:C6:52:FD:19:A1
                DirName:/C=US/ST=OH/L=Columbus/O=VikingVPN/OU=MyOrganizationalUnit/CN=VikingVPN CA/name=EasyRSA/emailAddress=me@myhost.mydomain
                serial:CF:35:85:EE:80:BF:2A:3E

            X509v3 Extended Key Usage: 
                TLS Web Client Authentication
            X509v3 Key Usage: 
                Digital Signature
    Signature Algorithm: sha256WithRSAEncryption
         a3:c6:2e:6e:db:fd:82:69:87:6f:0a:85:07:c0:86:42:46:0c:
         15:ad:50:3c:69:ba:8c:43:63:d9:5d:6c:95:4b:77:da:88:36:
         dd:6a:f8:96:59:29:5f:f7:c1:01:f8:18:0a:65:9a:44:e1:dd:
         43:b9:25:34:b5:f5:e5:29:c0:91:0d:c2:c3:cf:ef:ef:0b:1e:
         01:e7:1f:80:a1:df:28:69:b4:e3:0f:46:76:55:b6:44:e8:0c:
         71:ae:c2:7e:45:ae:07:60:8c:40:e1:ca:7e:b2:56:39:f7:9f:
         1a:7d:c2:83:d0:92:8e:ce:28:7f:cf:83:d2:da:0d:d4:26:3e:
         be:4e:cd:9e:c3:48:19:e7:d6:52:45:4a:cd:7c:69:f7:e7:fb:
         12:70:a6:27:3e:a8:99:39:e2:4c:a9:86:aa:5a:1b:e3:ab:8e:
         4c:d1:fb:06:a5:75:7c:e6:63:3e:a6:f0:ff:64:32:46:8c:55:
         1b:92:e1:d1:19:bb:01:40:6a:17:0f:b5:f6:99:25:29:90:69:
         30:78:31:dc:19:2e:a4:3c:b7:b9:df:2b:0f:f9:3a:3d:2d:08:
         2c:95:88:ad:56:f5:16:2a:ac:0f:29:84:95:8c:7c:a8:b6:1a:
         80:0a:58:89:bd:a4:38:f5:3d:58:b4:0c:64:e8:27:50:ed:04:
         8e:5c:50:7e:d0:c8:b4:0b:12:9b:85:b0:e3:df:f0:4b:5b:23:
         db:fe:7d:44:97:73:5b:91:6b:78:75:c3:7e:ef:9b:94:6c:cb:
         6b:f0:f0:cc:8e:8c:51:9e:6c:80:d9:6f:17:06:33:05:99:a1:
         5c:cb:a6:f4:f4:79:80:29:17:be:6f:e7:d5:0a:5c:d1:9f:27:
         e0:3d:1e:9e:74:47:7d:22:54:61:f8:0c:b7:29:87:1b:56:07:
         f6:94:32:59:f2:80:ea:c8:c3:4d:29:1b:5d:32:4d:bf:dd:98:
         63:f4:8d:89:08:c5:ed:60:b2:e8:50:96:95:d8:82:9e:13:d7:
         65:5c:19:12:49:31:93:f6:a8:ba:bb:1b:77:f3:c9:97:04:57:
         6d:9d:63:90:0d:ae:c9:e7:80:95:9a:b4:04:df:dd:b7:2d:b7:
         46:fb:9b:dd:7c:4c:86:2d:b8:c7:42:7f:e3:3d:d5:09:8d:a0:
         f2:3a:15:f2:e5:44:e6:52:d6:d2:c0:a4:3e:a3:5a:80:ef:20:
         bc:a5:d6:ce:30:2d:07:01:3c:78:f7:02:7b:01:d4:96:b1:a6:
         ed:30:7e:bb:43:28:8c:6c:7b:dd:61:78:0c:ee:2f:16:bd:d8:
         73:e9:00:27:33:3c:62:9d:ec:a7:da:d1:bd:5c:91:df:71:6d:
         69:c0:49:3e:33:6a:f1:49
-----BEGIN CERTIFICATE-----
MIIGrTCCBJWgAwIBAgICLjcwDQYJKoZIhvcNAQELBQAwgawxCzAJBgNVBAYTAlVT
MQswCQYDVQQIEwJPSDERMA8GA1UEBxMIQ29sdW1idXMxEjAQBgNVBAoTCVZpa2lu
Z1ZQTjEdMBsGA1UECxMUTXlPcmdhbml6YXRpb25hbFVuaXQxFTATBgNVBAMTDFZp
a2luZ1ZQTiBDQTEQMA4GA1UEKRMHRWFzeVJTQTEhMB8GCSqGSIb3DQEJARYSbWVA
bXlob3N0Lm15ZG9tYWluMB4XDTE3MDkxMzIzMDM0OVoXDTI3MDkxMTIzMDM0OVow
HzEdMBsGA1UEAxMUQ2xpZW50MzA5MkNlcnQ0NzlkNDIwggIiMA0GCSqGSIb3DQEB
AQUAA4ICDwAwggIKAoICAQCmbjUNp9vrJwjB4VMNEABzYEurvFeHudaTIEaX9kGP
ST6O5/TJCdjeErYwlcxxgeItLqy/PCM/3rHtZADrIyKduWLDkDQpHJGTKEYVN6xU
gJenbtMWLy8SHPhaoNWHLeKz8kZj8x6e0ACVo9xIYuavKKRSszwDeIH7viWH4vrb
JPhVuSjKnAqDRGi99ps6h2yFLSpBQF6PK2hhAAUlNRmUsPm5XoTS3expkPIjn1t7
V+ald3gYDsLoeVV6+aQRfpuvl9XVjJS1MvJcyHaSwolfkboUZKLWWTJEFVn0rlpZ
EEbunJzD6qsI8BVaL4zd1XdOhf3t27EajL3aK0mIBTkHLQS8vIHnERVhMtpYSvX4
u32VV9niixc3S7kw1s3IboVISYwwod73SLPbx0szzwETwyy10soqhqjB4et7+WSH
/PPI/bFlV7p98CtFsG1wxqR/MGDqueoRaFU04Vj8mYTiQwtuvX+dMz+EwmO1cT5W
IGzvHSaon5Pf3jfbaJkF0JQ3TbAk88s6i/XPZ0qRDXZPditllh7+XdtDr63SchBL
kWD5VneOnj0ZMKq1DsJ968avC3MgZ9ATBTDEfrHH35dWI5MNqw1vdtGhIxAVXSwH
59ckTi8vZWN351FTat6Wx2CPstNpkE+TCf2frhwHLXeRnVRWfWGlSYOzAKofo4cA
iQIDAQABo4IBYzCCAV8wCQYDVR0TBAIwADAtBglghkgBhvhCAQ0EIBYeRWFzeS1S
U0EgR2VuZXJhdGVkIENlcnRpZmljYXRlMB0GA1UdDgQWBBS0HKbU2nRdQKHiSKbf
sBs6b9W7aDCB4QYDVR0jBIHZMIHWgBQSzWAE0qCAnnDtxpm4eyzGUv0ZoaGBsqSB
rzCBrDELMAkGA1UEBhMCVVMxCzAJBgNVBAgTAk9IMREwDwYDVQQHEwhDb2x1bWJ1
czESMBAGA1UEChMJVmlraW5nVlBOMR0wGwYDVQQLExRNeU9yZ2FuaXphdGlvbmFs
VW5pdDEVMBMGA1UEAxMMVmlraW5nVlBOIENBMRAwDgYDVQQpEwdFYXN5UlNBMSEw
HwYJKoZIhvcNAQkBFhJtZUBteWhvc3QubXlkb21haW6CCQDPNYXugL8qPjATBgNV
HSUEDDAKBggrBgEFBQcDAjALBgNVHQ8EBAMCB4AwDQYJKoZIhvcNAQELBQADggIB
AKPGLm7b/YJph28KhQfAhkJGDBWtUDxpuoxDY9ldbJVLd9qINt1q+JZZKV/3wQH4
GAplmkTh3UO5JTS19eUpwJENwsPP7+8LHgHnH4Ch3yhptOMPRnZVtkToDHGuwn5F
rgdgjEDhyn6yVjn3nxp9woPQko7OKH/Pg9LaDdQmPr5OzZ7DSBnn1lJFSs18affn
+xJwpic+qJk54kyphqpaG+OrjkzR+waldXzmYz6m8P9kMkaMVRuS4dEZuwFAahcP
tfaZJSmQaTB4MdwZLqQ8t7nfKw/5Oj0tCCyViK1W9RYqrA8phJWMfKi2GoAKWIm9
pDj1PVi0DGToJ1DtBI5cUH7QyLQLEpuFsOPf8EtbI9v+fUSXc1uRa3h1w37vm5Rs
y2vw8MyOjFGebIDZbxcGMwWZoVzLpvT0eYApF75v59UKXNGfJ+A9Hp50R30iVGH4
DLcphxtWB/aUMlnygOrIw00pG10yTb/dmGP0jYkIxe1gsuhQlpXYgp4T12VcGRJJ
MZP2qLq7G3fzyZcEV22dY5ANrsnngJWatATf3bctt0b7m918TIYtuMdCf+M91QmN
oPI6FfLlROZS1tLApD6jWoDvILyl1s4wLQcBPHj3AnsB1Jaxpu0wfrtDKIxse91h
eAzuLxa92HPpACczPGKd7Kfa0b1ckd9xbWnAST4zavFJ
-----END CERTIFICATE-----
