Certificate:
    Data:
        Version: 3 (0x2)
        Serial Number: 9719 (0x25f7)
    Signature Algorithm: sha256WithRSAEncryption
        Issuer: C=US, ST=OH, L=Columbus, O=VikingVPN, OU=MyOrganizationalUnit, CN=VikingVPN CA/name=EasyRSA/emailAddress=me@myhost.mydomain
        Validity
            Not Before: Dec 18 10:06:39 2016 GMT
            Not After : Dec 16 10:06:39 2026 GMT
        Subject: CN=Client2179Certd34578
        Subject Public Key Info:
            Public Key Algorithm: rsaEncryption
                Public-Key: (4096 bit)
                Modulus:
                    00:b4:bf:4d:3b:2c:05:c3:31:67:68:72:05:d9:97:
                    6a:6b:1f:40:53:d2:fd:47:2b:1f:27:28:17:1c:d1:
                    9f:5a:07:e0:43:34:c0:c0:e1:78:c5:a3:4b:59:2e:
                    78:65:97:79:c7:66:0f:d3:5a:09:b6:22:58:00:27:
                    d2:23:31:d8:03:50:8f:db:a8:fd:34:a7:64:eb:68:
                    52:01:07:bb:2a:0a:90:23:51:9b:9c:fc:1e:1d:24:
                    9c:3e:24:1a:e8:39:2d:cc:5a:25:4d:df:40:32:49:
                    b7:cf:98:7e:b6:d8:13:a7:f2:5b:b9:aa:fd:29:b1:
                    c4:3c:a1:89:90:7c:16:1b:88:57:be:40:cf:d5:db:
                    14:bf:32:f2:2b:a8:76:f4:0d:1a:fc:2b:a3:e4:ad:
                    2f:c4:ea:0a:f5:8d:61:ca:5b:d9:91:ae:f3:46:9a:
                    c8:26:0f:a5:8d:03:e3:93:d6:0b:5a:e5:86:c3:ba:
                    59:b7:56:3d:4f:64:0d:c1:07:b6:b6:72:58:75:60:
                    64:4f:51:95:38:28:f6:94:73:7e:be:e4:1a:f1:61:
                    f4:b1:52:53:95:bf:7e:bb:ff:7d:c5:6b:bf:b1:13:
                    35:1d:c4:4c:21:3a:0c:ff:63:3c:aa:18:75:55:e2:
                    f5:ca:16:3c:8a:1f:7c:e0:56:b7:0f:a1:dd:ab:25:
                    ca:55:21:cb:ae:d7:2f:e5:a0:1a:e6:94:52:51:1b:
                    85:b8:41:e7:8d:0d:9b:70:98:0d:a3:22:2e:91:8a:
                    21:34:5d:e1:3c:0e:df:5b:d0:86:2f:43:7e:fa:6a:
                    fb:bb:d1:a9:91:cf:f0:cb:be:19:d6:53:cf:63:62:
                    36:2d:b8:90:da:c5:47:b2:20:aa:3e:d2:cf:af:f0:
                    01:4e:96:31:32:fb:1f:b0:18:5c:c8:12:d5:e1:0a:
                    82:fd:be:b9:64:e0:e0:9c:1b:e2:4f:54:19:49:d0:
                    2d:00:d1:c9:98:7d:93:2c:33:2d:49:9e:ca:d0:2c:
                    ec:09:27:0a:9e:4b:99:65:37:bb:dd:e5:6f:5a:fa:
                    36:97:1a:5f:8a:54:32:c0:10:b3:b4:06:8d:bd:a5:
                    75:6f:8c:c4:fe:c6:fa:e2:8e:9c:65:c0:16:b7:66:
                    56:02:93:aa:2d:ad:d7:36:33:75:59:c3:ea:fb:8b:
                    2c:fe:d0:83:22:71:e3:7b:fe:7b:f2:1f:30:14:fe:
                    f1:dc:2c:4e:12:ff:51:b8:3d:fb:41:d4:35:a4:a6:
                    89:12:97:2d:49:fa:5c:3d:50:c1:0e:95:bd:d3:4b:
                    4c:f2:5b:b5:00:bb:c3:ac:2b:41:68:76:9c:2c:c9:
                    54:9c:76:8f:89:98:27:53:a3:d9:64:fb:b3:ce:b3:
                    db:65:67
                Exponent: 65537 (0x10001)
        X509v3 extensions:
            X509v3 Basic Constraints: 
                CA:FALSE
            Netscape Comment: 
                Easy-RSA Generated Certificate
            X509v3 Subject Key Identifier: 
                16:BD:F8:E5:65:64:49:7D:9F:80:A7:11:2C:CA:56:4A:74:16:62:BB
            X509v3 Authority Key Identifier: 
                keyid:12:CD:60:04:D2:A0:80:9E:70:ED:C6:99:B8:7B:2C:C6:52:FD:19:A1
                DirName:/C=US/ST=OH/L=Columbus/O=VikingVPN/OU=MyOrganizationalUnit/CN=VikingVPN CA/name=EasyRSA/emailAddress=me@myhost.mydomain
                serial:CF:35:85:EE:80:BF:2A:3E

            X509v3 Extended Key Usage: 
                TLS Web Client Authentication
            X509v3 Key Usage: 
                Digital Signature
    Signature Algorithm: sha256WithRSAEncryption
         73:1e:27:91:99:40:96:c1:a9:92:50:73:dd:69:b7:c6:8e:56:
         43:4d:e7:a5:ec:65:2a:5e:fe:04:1d:30:f1:12:65:c1:10:ce:
         a9:48:c4:7a:b6:f1:8e:cc:23:bd:6a:34:18:f1:7f:59:d8:78:
         63:d7:c9:2b:f5:39:7b:e0:2b:60:24:2e:65:2d:01:69:45:82:
         46:1f:74:bf:9e:8a:35:ed:e9:3f:27:b6:68:b9:ca:4b:ff:48:
         f6:b4:58:c4:08:8c:b9:ab:8b:09:b3:86:a5:bb:70:19:0a:67:
         e2:d2:20:7f:0a:6d:d1:82:1d:2d:16:b3:e2:2c:e4:0e:28:27:
         af:3b:87:e6:9c:a6:22:34:40:d4:3d:9f:3e:6c:8a:bd:c4:43:
         23:0a:7f:cb:a2:c9:36:10:75:6a:22:0e:8b:02:87:5a:6a:34:
         2c:41:30:d6:58:9d:df:4a:c0:1a:32:a3:bf:12:11:20:58:0d:
         d4:48:94:4a:fc:f2:9b:61:7b:23:e7:ac:50:b9:b3:5d:8b:f8:
         99:99:55:f7:ed:49:c2:7a:08:3f:05:eb:e0:5a:8a:4e:43:5c:
         e1:77:17:90:f9:e3:82:01:53:0e:44:ec:52:b1:5b:2a:38:ea:
         f2:7e:19:11:d8:e1:2d:1c:9b:ac:64:e8:93:86:51:92:26:8d:
         ac:39:7b:71:9a:91:81:0d:02:99:6f:6b:5f:99:8b:2f:41:d6:
         b2:1f:d9:85:20:2c:ac:f2:88:f0:3b:cf:9f:97:68:01:2d:85:
         13:e3:45:98:fe:8c:d2:51:d7:27:c3:7e:08:a9:52:79:29:63:
         97:00:c4:71:97:9b:fd:d9:3d:33:7b:6d:5c:bc:73:47:dc:60:
         e9:0c:09:22:e1:32:79:63:a7:75:a3:6e:13:e4:7b:e5:15:02:
         07:f9:ff:3f:72:dd:ec:df:79:11:b2:26:00:16:9f:b8:85:bd:
         32:10:2d:f8:36:15:10:82:fe:2c:0e:c1:c7:9f:92:3c:af:d7:
         c4:3b:2b:cc:0f:7c:9e:3d:41:a1:e9:66:d7:e3:cb:28:fc:18:
         1a:cd:42:73:1d:87:d1:11:dc:eb:1d:54:7b:aa:5b:99:d4:67:
         0a:e6:dd:ad:1f:9f:26:de:ef:d3:c4:f8:c6:cd:6b:20:47:0f:
         1d:20:1b:7c:8a:e1:aa:db:da:4d:d2:f7:c4:31:a3:25:1b:82:
         5a:dd:04:20:6b:97:13:3c:c6:87:3c:9c:b9:6d:46:1e:30:1b:
         ea:08:67:ba:22:11:52:b5:5f:99:c1:8a:0d:e4:34:e9:8a:0f:
         e8:7d:78:93:6d:2d:5c:90:86:f0:a5:c8:c4:84:ec:83:fc:47:
         2e:09:8d:ae:ee:1b:9b:04
-----BEGIN CERTIFICATE-----
MIIGrTCCBJWgAwIBAgICJfcwDQYJKoZIhvcNAQELBQAwgawxCzAJBgNVBAYTAlVT
MQswCQYDVQQIEwJPSDERMA8GA1UEBxMIQ29sdW1idXMxEjAQBgNVBAoTCVZpa2lu
Z1ZQTjEdMBsGA1UECxMUTXlPcmdhbml6YXRpb25hbFVuaXQxFTATBgNVBAMTDFZp
a2luZ1ZQTiBDQTEQMA4GA1UEKRMHRWFzeVJTQTEhMB8GCSqGSIb3DQEJARYSbWVA
bXlob3N0Lm15ZG9tYWluMB4XDTE2MTIxODEwMDYzOVoXDTI2MTIxNjEwMDYzOVow
HzEdMBsGA1UEAxMUQ2xpZW50MjE3OUNlcnRkMzQ1NzgwggIiMA0GCSqGSIb3DQEB
AQUAA4ICDwAwggIKAoICAQC0v007LAXDMWdocgXZl2prH0BT0v1HKx8nKBcc0Z9a
B+BDNMDA4XjFo0tZLnhll3nHZg/TWgm2IlgAJ9IjMdgDUI/bqP00p2TraFIBB7sq
CpAjUZuc/B4dJJw+JBroOS3MWiVN30AySbfPmH622BOn8lu5qv0pscQ8oYmQfBYb
iFe+QM/V2xS/MvIrqHb0DRr8K6PkrS/E6gr1jWHKW9mRrvNGmsgmD6WNA+OT1gta
5YbDulm3Vj1PZA3BB7a2clh1YGRPUZU4KPaUc36+5BrxYfSxUlOVv367/33Fa7+x
EzUdxEwhOgz/YzyqGHVV4vXKFjyKH3zgVrcPod2rJcpVIcuu1y/loBrmlFJRG4W4
QeeNDZtwmA2jIi6RiiE0XeE8Dt9b0IYvQ376avu70amRz/DLvhnWU89jYjYtuJDa
xUeyIKo+0s+v8AFOljEy+x+wGFzIEtXhCoL9vrlk4OCcG+JPVBlJ0C0A0cmYfZMs
My1JnsrQLOwJJwqeS5llN7vd5W9a+jaXGl+KVDLAELO0Bo29pXVvjMT+xvrijpxl
wBa3ZlYCk6otrdc2M3VZw+r7iyz+0IMiceN7/nvyHzAU/vHcLE4S/1G4PftB1DWk
pokSly1J+lw9UMEOlb3TS0zyW7UAu8OsK0FodpwsyVScdo+JmCdTo9lk+7POs9tl
ZwIDAQABo4IBYzCCAV8wCQYDVR0TBAIwADAtBglghkgBhvhCAQ0EIBYeRWFzeS1S
U0EgR2VuZXJhdGVkIENlcnRpZmljYXRlMB0GA1UdDgQWBBQWvfjlZWRJfZ+ApxEs
ylZKdBZiuzCB4QYDVR0jBIHZMIHWgBQSzWAE0qCAnnDtxpm4eyzGUv0ZoaGBsqSB
rzCBrDELMAkGA1UEBhMCVVMxCzAJBgNVBAgTAk9IMREwDwYDVQQHEwhDb2x1bWJ1
czESMBAGA1UEChMJVmlraW5nVlBOMR0wGwYDVQQLExRNeU9yZ2FuaXphdGlvbmFs
VW5pdDEVMBMGA1UEAxMMVmlraW5nVlBOIENBMRAwDgYDVQQpEwdFYXN5UlNBMSEw
HwYJKoZIhvcNAQkBFhJtZUBteWhvc3QubXlkb21haW6CCQDPNYXugL8qPjATBgNV
HSUEDDAKBggrBgEFBQcDAjALBgNVHQ8EBAMCB4AwDQYJKoZIhvcNAQELBQADggIB
AHMeJ5GZQJbBqZJQc91pt8aOVkNN56XsZSpe/gQdMPESZcEQzqlIxHq28Y7MI71q
NBjxf1nYeGPXySv1OXvgK2AkLmUtAWlFgkYfdL+eijXt6T8ntmi5ykv/SPa0WMQI
jLmriwmzhqW7cBkKZ+LSIH8KbdGCHS0Ws+Is5A4oJ687h+acpiI0QNQ9nz5sir3E
QyMKf8uiyTYQdWoiDosCh1pqNCxBMNZYnd9KwBoyo78SESBYDdRIlEr88ptheyPn
rFC5s12L+JmZVfftScJ6CD8F6+Baik5DXOF3F5D544IBUw5E7FKxWyo46vJ+GRHY
4S0cm6xk6JOGUZImjaw5e3GakYENAplva1+Ziy9B1rIf2YUgLKzyiPA7z5+XaAEt
hRPjRZj+jNJR1yfDfgipUnkpY5cAxHGXm/3ZPTN7bVy8c0fcYOkMCSLhMnljp3Wj
bhPke+UVAgf5/z9y3ezfeRGyJgAWn7iFvTIQLfg2FRCC/iwOwcefkjyv18Q7K8wP
fJ49QaHpZtfjyyj8GBrNQnMdh9ER3OsdVHuqW5nUZwrm3a0fnybe79PE+MbNayBH
Dx0gG3yK4arb2k3S98QxoyUbglrdBCBrlxM8xoc8nLltRh4wG+oIZ7oiEVK1X5nB
ig3kNOmKD+h9eJNtLVyQhvClyMSE7IP8Ry4Jja7uG5sE
-----END CERTIFICATE-----
