Certificate:
    Data:
        Version: 3 (0x2)
        Serial Number: 2127 (0x84f)
    Signature Algorithm: md5WithRSAEncryption
        Issuer: C=US, ST=OH, L=Columbus, O=VikingVPN, OU=MyOrganizationalUnit, CN=VikingVPN CA/name=EasyRSA/emailAddress=me@myhost.mydomain
        Validity
            Not Before: Jun 19 01:44:40 2014 GMT
            Not After : Jun 16 01:44:40 2024 GMT
        Subject: CN=Client679Cert503964
        Subject Public Key Info:
            Public Key Algorithm: rsaEncryption
                Public-Key: (4096 bit)
                Modulus:
                    00:bc:d4:98:d6:eb:b8:f9:6c:fc:9f:e0:ce:b9:79:
                    10:23:98:98:10:8e:9e:78:66:42:50:05:bf:a4:74:
                    da:ea:e2:71:83:7c:6f:40:9a:58:46:4f:89:93:12:
                    10:2f:a3:27:69:ca:a4:41:a9:7f:67:b8:55:36:10:
                    82:4e:5b:46:40:fa:9f:9a:78:01:d3:bf:08:ab:d0:
                    8e:ad:0b:75:6b:b2:14:36:ed:4f:cb:2a:8a:a2:7c:
                    9a:21:cf:2d:ce:3d:6b:51:10:ae:11:de:52:2f:fc:
                    2a:69:ff:23:1c:aa:e9:77:d5:4a:d8:6a:49:df:fd:
                    85:89:c8:30:12:f1:d7:f8:7e:ac:4f:96:c5:16:82:
                    ea:31:41:ce:f9:87:38:aa:e1:3e:d6:d6:22:6f:13:
                    18:a8:df:f6:c3:dd:d0:b4:8f:a7:d6:ee:78:f6:f4:
                    31:47:31:c5:02:94:fe:29:17:85:8d:e8:e2:88:82:
                    d8:54:66:8a:55:fd:8b:dd:04:7e:f8:37:2b:e4:ff:
                    ff:65:83:4d:18:99:a1:84:97:b6:40:1e:7d:0c:ae:
                    a2:60:f8:8c:a5:f2:38:01:1f:4f:c5:61:ee:f9:4b:
                    c7:e7:bc:be:4e:96:fe:f7:7a:3b:16:52:77:f7:1a:
                    0a:da:5f:54:68:b5:96:46:c1:30:fe:d7:1c:2c:2c:
                    93:fd:e6:17:02:93:71:fc:18:21:24:97:50:b7:46:
                    29:22:4a:bc:7b:bd:76:0b:16:e6:f3:81:eb:44:4e:
                    c1:26:c1:28:ad:19:11:f5:90:aa:2a:6e:43:0c:b8:
                    2e:e5:1a:65:ec:93:8d:87:4e:53:b9:42:e2:84:61:
                    54:e4:21:36:1d:b7:66:19:3c:70:c3:ae:06:26:b3:
                    05:aa:54:3b:f0:3b:f8:ef:25:13:66:4e:33:69:88:
                    cf:bb:de:c6:78:fa:7f:34:94:bd:94:bd:21:67:48:
                    d4:25:86:30:69:1e:1a:7c:a2:aa:58:f7:0d:bd:53:
                    65:4b:e1:e9:54:4e:6b:23:34:20:fe:52:76:70:ae:
                    7d:e9:95:37:ec:33:49:63:57:b7:a2:3f:2a:c1:5e:
                    11:2d:ec:64:b4:75:92:f0:92:36:27:c0:58:d7:4c:
                    fd:58:7d:aa:fc:df:39:5a:f4:1e:56:50:17:58:d4:
                    00:96:82:b4:c7:d9:39:65:3f:d6:1e:e6:99:2f:7f:
                    ca:0d:e0:29:29:50:6a:d9:a9:ff:31:de:76:c7:b2:
                    df:43:41:7c:e6:d5:47:d9:10:b6:af:6d:39:61:53:
                    36:3d:63:98:51:c9:15:dd:ec:ae:97:4d:b9:b3:a7:
                    92:9a:0b:a5:93:75:bf:c4:45:68:19:f6:f7:51:5c:
                    1e:9e:07
                Exponent: 65537 (0x10001)
        X509v3 extensions:
            X509v3 Basic Constraints: 
                CA:FALSE
            Netscape Comment: 
                Easy-RSA Generated Certificate
            X509v3 Subject Key Identifier: 
                CF:C5:68:74:EA:79:C6:86:95:FE:10:89:45:8E:3F:5A:50:4B:1D:C2
            X509v3 Authority Key Identifier: 
                keyid:12:CD:60:04:D2:A0:80:9E:70:ED:C6:99:B8:7B:2C:C6:52:FD:19:A1
                DirName:/C=US/ST=OH/L=Columbus/O=VikingVPN/OU=MyOrganizationalUnit/CN=VikingVPN CA/name=EasyRSA/emailAddress=me@myhost.mydomain
                serial:CF:35:85:EE:80:BF:2A:3E

            X509v3 Extended Key Usage: 
                TLS Web Client Authentication
            X509v3 Key Usage: 
                Digital Signature
    Signature Algorithm: md5WithRSAEncryption
         9f:c9:5d:3d:0f:27:00:b9:1b:ec:11:c1:13:6f:9e:1f:2d:b8:
         25:f7:e2:ec:10:b6:87:d3:07:d7:e2:18:a5:a6:ad:1c:66:f3:
         77:cd:3e:32:e4:fa:eb:9a:27:b7:54:82:e8:1c:cf:8e:28:7c:
         de:d1:44:38:17:92:e1:ae:7c:f1:24:a9:e0:99:27:23:07:13:
         2b:61:ca:c3:1b:f8:62:6d:0a:1f:a9:bb:a2:88:6e:d4:e6:5a:
         61:de:13:f0:cb:b6:4f:a2:5f:05:71:c5:8c:ac:b3:5e:65:11:
         7d:d0:ef:e7:1e:38:23:3a:19:8c:34:bb:88:6f:ff:8b:36:73:
         8a:d5:d0:de:88:68:78:86:ac:7e:e0:0e:cb:0c:46:14:86:46:
         24:16:46:7d:9a:b1:ac:4a:a1:dc:15:a4:24:ab:d0:2d:de:ab:
         ac:23:47:ff:30:90:a5:6f:de:f2:23:25:1d:62:9f:b5:05:15:
         d9:a3:9d:e4:ec:20:f7:20:52:0d:45:0b:a5:d6:08:a1:54:96:
         66:a3:5f:f6:53:6c:f3:89:21:fa:97:14:73:c6:20:6e:eb:e2:
         9a:b1:60:24:bb:3d:19:8d:6a:cd:9a:2f:a8:03:47:a0:0f:42:
         f2:15:61:62:c9:36:57:cf:99:1b:d4:b9:2d:9a:ed:57:e7:29:
         0e:19:71:86:74:a7:e0:b3:67:e3:50:b0:aa:de:34:5e:20:49:
         9c:e5:e8:4c:43:f1:3a:b1:e4:a1:a1:c1:94:d4:80:72:49:f3:
         a9:a4:31:e8:2e:ac:7a:6c:96:60:be:be:80:70:fd:15:37:b4:
         0e:fd:74:b8:76:94:7a:c3:1d:f6:46:60:4f:9e:05:91:b5:db:
         f5:e4:d1:89:67:c0:63:f4:e9:9c:de:0f:58:d5:88:47:84:c7:
         7b:57:73:92:97:03:85:f4:87:17:21:77:76:33:21:2e:2c:7c:
         85:0a:1b:33:da:c4:a5:e7:42:73:74:7e:92:9b:af:64:01:46:
         d4:1d:62:bf:56:ca:df:5d:58:77:2a:dd:8a:74:f3:91:07:21:
         d2:e0:93:b4:fe:78:46:1e:39:b2:75:5f:3f:34:95:f5:d7:ec:
         97:81:c1:34:67:69:a0:e6:cb:4e:d6:2a:b7:32:67:9c:e5:f7:
         47:ce:a3:3d:bf:be:ce:a0:0e:50:d1:d2:47:93:9d:e0:11:cf:
         05:d4:c8:55:69:c7:1c:4c:d1:94:89:23:b7:21:d9:a7:9a:8f:
         3c:fc:bb:80:c0:d6:58:8b:98:14:64:14:23:64:ac:4f:60:0c:
         24:cc:2e:09:c2:5c:b5:fe:ea:1b:da:e0:84:72:01:b4:82:50:
         3b:8d:35:80:0c:5b:25:40
-----BEGIN CERTIFICATE-----
MIIGrDCCBJSgAwIBAgICCE8wDQYJKoZIhvcNAQEEBQAwgawxCzAJBgNVBAYTAlVT
MQswCQYDVQQIEwJPSDERMA8GA1UEBxMIQ29sdW1idXMxEjAQBgNVBAoTCVZpa2lu
Z1ZQTjEdMBsGA1UECxMUTXlPcmdhbml6YXRpb25hbFVuaXQxFTATBgNVBAMTDFZp
a2luZ1ZQTiBDQTEQMA4GA1UEKRMHRWFzeVJTQTEhMB8GCSqGSIb3DQEJARYSbWVA
bXlob3N0Lm15ZG9tYWluMB4XDTE0MDYxOTAxNDQ0MFoXDTI0MDYxNjAxNDQ0MFow
HjEcMBoGA1UEAxMTQ2xpZW50Njc5Q2VydDUwMzk2NDCCAiIwDQYJKoZIhvcNAQEB
BQADggIPADCCAgoCggIBALzUmNbruPls/J/gzrl5ECOYmBCOnnhmQlAFv6R02uri
cYN8b0CaWEZPiZMSEC+jJ2nKpEGpf2e4VTYQgk5bRkD6n5p4AdO/CKvQjq0LdWuy
FDbtT8sqiqJ8miHPLc49a1EQrhHeUi/8Kmn/Ixyq6XfVSthqSd/9hYnIMBLx1/h+
rE+WxRaC6jFBzvmHOKrhPtbWIm8TGKjf9sPd0LSPp9buePb0MUcxxQKU/ikXhY3o
4oiC2FRmilX9i90Efvg3K+T//2WDTRiZoYSXtkAefQyuomD4jKXyOAEfT8Vh7vlL
x+e8vk6W/vd6OxZSd/caCtpfVGi1lkbBMP7XHCwsk/3mFwKTcfwYISSXULdGKSJK
vHu9dgsW5vOB60ROwSbBKK0ZEfWQqipuQwy4LuUaZeyTjYdOU7lC4oRhVOQhNh23
Zhk8cMOuBiazBapUO/A7+O8lE2ZOM2mIz7vexnj6fzSUvZS9IWdI1CWGMGkeGnyi
qlj3Db1TZUvh6VROayM0IP5SdnCufemVN+wzSWNXt6I/KsFeES3sZLR1kvCSNifA
WNdM/Vh9qvzfOVr0HlZQF1jUAJaCtMfZOWU/1h7mmS9/yg3gKSlQatmp/zHedsey
30NBfObVR9kQtq9tOWFTNj1jmFHJFd3srpdNubOnkpoLpZN1v8RFaBn291FcHp4H
AgMBAAGjggFjMIIBXzAJBgNVHRMEAjAAMC0GCWCGSAGG+EIBDQQgFh5FYXN5LVJT
QSBHZW5lcmF0ZWQgQ2VydGlmaWNhdGUwHQYDVR0OBBYEFM/FaHTqecaGlf4QiUWO
P1pQSx3CMIHhBgNVHSMEgdkwgdaAFBLNYATSoICecO3Gmbh7LMZS/RmhoYGypIGv
MIGsMQswCQYDVQQGEwJVUzELMAkGA1UECBMCT0gxETAPBgNVBAcTCENvbHVtYnVz
MRIwEAYDVQQKEwlWaWtpbmdWUE4xHTAbBgNVBAsTFE15T3JnYW5pemF0aW9uYWxV
bml0MRUwEwYDVQQDEwxWaWtpbmdWUE4gQ0ExEDAOBgNVBCkTB0Vhc3lSU0ExITAf
BgkqhkiG9w0BCQEWEm1lQG15aG9zdC5teWRvbWFpboIJAM81he6Avyo+MBMGA1Ud
JQQMMAoGCCsGAQUFBwMCMAsGA1UdDwQEAwIHgDANBgkqhkiG9w0BAQQFAAOCAgEA
n8ldPQ8nALkb7BHBE2+eHy24Jffi7BC2h9MH1+IYpaatHGbzd80+MuT665ont1SC
6BzPjih83tFEOBeS4a588SSp4JknIwcTK2HKwxv4Ym0KH6m7oohu1OZaYd4T8Mu2
T6JfBXHFjKyzXmURfdDv5x44IzoZjDS7iG//izZzitXQ3ohoeIasfuAOywxGFIZG
JBZGfZqxrEqh3BWkJKvQLd6rrCNH/zCQpW/e8iMlHWKftQUV2aOd5Owg9yBSDUUL
pdYIoVSWZqNf9lNs84kh+pcUc8YgbuvimrFgJLs9GY1qzZovqANHoA9C8hVhYsk2
V8+ZG9S5LZrtV+cpDhlxhnSn4LNn41Cwqt40XiBJnOXoTEPxOrHkoaHBlNSAcknz
qaQx6C6semyWYL6+gHD9FTe0Dv10uHaUesMd9kZgT54FkbXb9eTRiWfAY/TpnN4P
WNWIR4THe1dzkpcDhfSHFyF3djMhLix8hQobM9rEpedCc3R+kpuvZAFG1B1iv1bK
311YdyrdinTzkQch0uCTtP54Rh45snVfPzSV9dfsl4HBNGdpoObLTtYqtzJnnOX3
R86jPb++zqAOUNHSR5Od4BHPBdTIVWnHHEzRlIkjtyHZp5qPPPy7gMDWWIuYFGQU
I2SsT2AMJMwuCcJctf7qG9rghHIBtIJQO401gAxbJUA=
-----END CERTIFICATE-----
