Certificate:
    Data:
        Version: 3 (0x2)
        Serial Number: 2122 (0x84a)
    Signature Algorithm: md5WithRSAEncryption
        Issuer: C=US, ST=OH, L=Columbus, O=VikingVPN, OU=MyOrganizationalUnit, CN=VikingVPN CA/name=EasyRSA/emailAddress=me@myhost.mydomain
        Validity
            Not Before: Jun 18 02:00:32 2014 GMT
            Not After : Jun 15 02:00:32 2024 GMT
        Subject: CN=Client743Cert0fc74c
        Subject Public Key Info:
            Public Key Algorithm: rsaEncryption
                Public-Key: (4096 bit)
                Modulus:
                    00:d9:36:46:05:8c:57:8e:4c:8e:ee:b5:41:4a:10:
                    c6:ec:3c:14:1b:de:1b:1e:33:2e:c2:20:9e:de:13:
                    b8:3f:f2:07:01:39:2d:78:43:bd:6e:68:29:22:de:
                    37:56:8b:27:b8:5d:88:d5:0c:36:7b:f3:ba:ce:29:
                    e5:25:ee:cf:ff:89:c9:22:83:92:1e:45:4f:8c:0e:
                    02:75:52:b9:f8:a0:f4:f8:ae:22:03:83:9e:56:43:
                    01:93:f0:14:6d:a3:04:8a:91:ff:82:27:aa:ca:98:
                    ad:91:dc:1c:8c:34:15:37:0c:f6:68:85:12:dd:cc:
                    3c:6d:39:16:0d:51:59:da:72:a3:43:c8:21:83:4e:
                    f7:78:07:4c:38:91:8b:b1:70:7d:11:41:96:72:1d:
                    f3:0d:b8:04:a8:ee:d8:53:6b:c2:5e:9f:71:9c:78:
                    c1:75:6f:2b:fc:32:58:8a:1e:07:ba:54:20:eb:25:
                    6c:ca:d7:9c:e3:4d:c4:f0:1c:e9:1e:68:d3:7a:da:
                    ab:98:a3:7e:47:ba:7b:9f:45:40:cd:2e:6f:bc:c7:
                    cd:0f:2e:74:80:ab:98:04:b4:53:04:24:dc:cc:4a:
                    e8:41:69:42:03:69:2e:08:b0:88:78:a4:29:6e:22:
                    3b:4f:4d:58:b3:5c:07:a7:96:37:ff:e8:48:e7:9b:
                    19:79:09:bf:eb:8e:7c:fd:66:d5:07:05:72:6f:57:
                    cd:49:e5:9d:42:9c:f1:c3:8f:79:8c:89:e7:da:0c:
                    92:92:a2:a2:de:9b:09:c1:14:c2:d2:62:63:44:4e:
                    b4:17:6b:49:85:a3:a2:d3:df:2a:89:59:b6:5e:c0:
                    6f:aa:ff:97:f6:f7:37:e8:de:9f:7e:e1:31:4e:ac:
                    ef:da:cd:88:20:42:92:42:ea:c8:61:65:0c:5e:04:
                    1a:79:f2:af:4a:52:b5:5a:fd:8a:b1:31:97:f3:58:
                    cd:c1:26:a0:d6:23:f4:97:4f:d1:ff:e1:7c:6a:23:
                    f2:39:3e:11:4e:de:67:f9:a3:67:59:cc:19:ae:d1:
                    fd:fd:f2:4d:73:87:0d:da:3d:2b:63:d2:fb:55:ac:
                    46:87:0a:f1:25:9d:db:6e:4c:b1:8d:b8:96:62:f6:
                    cf:d2:2c:fd:dc:1a:3e:d8:6d:8e:ea:f7:13:a2:a5:
                    90:62:46:f6:54:d1:4d:a0:eb:4e:c8:15:40:22:6a:
                    ce:ce:b5:e4:91:ba:63:b7:4b:a1:e6:f0:df:09:2a:
                    80:29:4d:aa:ca:c5:4e:43:3d:9d:dd:89:61:27:87:
                    41:75:57:1a:6c:49:83:89:0c:c4:89:48:cf:12:66:
                    57:c7:e2:f3:d9:b5:c8:e2:91:a0:1a:38:4c:fa:6e:
                    4c:87:fd
                Exponent: 65537 (0x10001)
        X509v3 extensions:
            X509v3 Basic Constraints: 
                CA:FALSE
            Netscape Comment: 
                Easy-RSA Generated Certificate
            X509v3 Subject Key Identifier: 
                41:C9:59:40:8C:B7:39:D2:48:9D:C0:4E:C0:DB:64:09:FE:77:1B:C7
            X509v3 Authority Key Identifier: 
                keyid:12:CD:60:04:D2:A0:80:9E:70:ED:C6:99:B8:7B:2C:C6:52:FD:19:A1
                DirName:/C=US/ST=OH/L=Columbus/O=VikingVPN/OU=MyOrganizationalUnit/CN=VikingVPN CA/name=EasyRSA/emailAddress=me@myhost.mydomain
                serial:CF:35:85:EE:80:BF:2A:3E

            X509v3 Extended Key Usage: 
                TLS Web Client Authentication
            X509v3 Key Usage: 
                Digital Signature
    Signature Algorithm: md5WithRSAEncryption
         5a:81:87:46:3c:74:31:fc:b7:60:b5:d4:e9:36:fd:f0:85:69:
         98:97:47:53:0b:a1:21:2c:b6:c1:34:00:79:8d:79:21:65:59:
         60:0f:59:c8:d4:68:5b:cf:1b:8c:7d:26:5b:d6:e0:ba:c6:07:
         83:95:87:2b:b4:94:7f:e4:2b:52:17:5c:1a:90:1f:6c:a3:82:
         4d:3c:fa:1f:0c:ed:7f:44:8c:2f:ab:a2:d2:4d:3a:b9:56:b2:
         3b:26:72:c2:26:cd:f3:3a:53:aa:93:49:cd:0a:25:31:bc:02:
         a4:af:37:f8:ff:e6:ed:ba:b5:d0:b7:51:4c:3c:2a:71:9e:8c:
         ea:ed:cb:ae:ab:2f:b1:85:60:30:be:38:6e:9d:ab:7c:33:9a:
         ae:fe:ae:f9:d8:5e:a4:f5:3b:3f:20:84:41:0a:0f:8a:48:ff:
         d9:67:ea:41:93:f2:a0:28:21:f4:9f:df:be:e7:a9:12:ac:12:
         6b:73:2b:d1:4c:96:bd:d9:1c:22:6f:c0:74:5d:7c:5c:f0:34:
         c6:6e:b8:f2:64:f7:76:7b:2b:4c:f6:ad:63:d0:59:23:21:6f:
         2f:fd:4a:cd:e1:f3:2a:88:7e:a3:7c:76:b0:6b:68:97:82:df:
         d1:c0:36:22:f1:7b:31:58:6c:c6:37:17:eb:ca:aa:8a:09:a3:
         16:42:1a:d5:fd:59:34:10:cf:8f:e0:e5:53:b4:2e:f1:08:91:
         1e:2b:1d:89:f8:03:a1:69:7b:8e:eb:32:22:9b:d1:a3:65:61:
         72:52:0b:56:48:15:03:72:39:fa:b0:02:bc:a3:8c:f0:66:aa:
         43:b8:69:d9:49:7c:2b:eb:80:68:87:13:dc:9d:30:56:0f:59:
         4e:a1:64:1f:98:18:a6:2d:0d:7c:85:58:7b:77:ba:00:2e:21:
         6b:7a:24:20:f9:d3:97:b2:20:8f:b3:ee:7f:6e:96:b7:38:5a:
         44:ac:97:be:c6:3c:5e:b6:58:03:cc:10:14:b9:d3:8b:8f:a9:
         95:bc:23:f9:2c:97:b3:56:50:b5:a5:0d:c3:d0:dd:36:06:53:
         c0:a1:92:9e:70:8d:26:a7:30:a9:d4:52:8a:33:de:aa:39:79:
         f0:64:2f:4c:f3:af:9c:cd:5e:96:c9:21:bb:cd:cd:0b:dc:de:
         d9:74:a1:c0:a1:7f:8c:d7:84:c2:b7:67:3b:d9:21:df:de:61:
         bf:c6:34:19:3f:a9:4e:b7:a0:6c:a3:50:3a:0a:50:b2:84:ea:
         fb:ee:0d:10:88:fa:fd:ce:19:0f:93:89:ad:3b:6a:eb:3c:cb:
         87:d8:4b:55:2a:42:b0:1d:2d:6e:de:5e:58:de:9a:96:f5:c2:
         b8:68:2f:3b:3b:53:9c:c3
-----BEGIN CERTIFICATE-----
MIIGrDCCBJSgAwIBAgICCEowDQYJKoZIhvcNAQEEBQAwgawxCzAJBgNVBAYTAlVT
MQswCQYDVQQIEwJPSDERMA8GA1UEBxMIQ29sdW1idXMxEjAQBgNVBAoTCVZpa2lu
Z1ZQTjEdMBsGA1UECxMUTXlPcmdhbml6YXRpb25hbFVuaXQxFTATBgNVBAMTDFZp
a2luZ1ZQTiBDQTEQMA4GA1UEKRMHRWFzeVJTQTEhMB8GCSqGSIb3DQEJARYSbWVA
bXlob3N0Lm15ZG9tYWluMB4XDTE0MDYxODAyMDAzMloXDTI0MDYxNTAyMDAzMlow
HjEcMBoGA1UEAxMTQ2xpZW50NzQzQ2VydDBmYzc0YzCCAiIwDQYJKoZIhvcNAQEB
BQADggIPADCCAgoCggIBANk2RgWMV45Mju61QUoQxuw8FBveGx4zLsIgnt4TuD/y
BwE5LXhDvW5oKSLeN1aLJ7hdiNUMNnvzus4p5SXuz/+JySKDkh5FT4wOAnVSufig
9PiuIgODnlZDAZPwFG2jBIqR/4InqsqYrZHcHIw0FTcM9miFEt3MPG05Fg1RWdpy
o0PIIYNO93gHTDiRi7FwfRFBlnId8w24BKju2FNrwl6fcZx4wXVvK/wyWIoeB7pU
IOslbMrXnONNxPAc6R5o03raq5ijfke6e59FQM0ub7zHzQ8udICrmAS0UwQk3MxK
6EFpQgNpLgiwiHikKW4iO09NWLNcB6eWN//oSOebGXkJv+uOfP1m1QcFcm9XzUnl
nUKc8cOPeYyJ59oMkpKiot6bCcEUwtJiY0ROtBdrSYWjotPfKolZtl7Ab6r/l/b3
N+jen37hMU6s79rNiCBCkkLqyGFlDF4EGnnyr0pStVr9irExl/NYzcEmoNYj9JdP
0f/hfGoj8jk+EU7eZ/mjZ1nMGa7R/f3yTXOHDdo9K2PS+1WsRocK8SWd225MsY24
lmL2z9Is/dwaPthtjur3E6KlkGJG9lTRTaDrTsgVQCJqzs615JG6Y7dLoebw3wkq
gClNqsrFTkM9nd2JYSeHQXVXGmxJg4kMxIlIzxJmV8fi89m1yOKRoBo4TPpuTIf9
AgMBAAGjggFjMIIBXzAJBgNVHRMEAjAAMC0GCWCGSAGG+EIBDQQgFh5FYXN5LVJT
QSBHZW5lcmF0ZWQgQ2VydGlmaWNhdGUwHQYDVR0OBBYEFEHJWUCMtznSSJ3ATsDb
ZAn+dxvHMIHhBgNVHSMEgdkwgdaAFBLNYATSoICecO3Gmbh7LMZS/RmhoYGypIGv
MIGsMQswCQYDVQQGEwJVUzELMAkGA1UECBMCT0gxETAPBgNVBAcTCENvbHVtYnVz
MRIwEAYDVQQKEwlWaWtpbmdWUE4xHTAbBgNVBAsTFE15T3JnYW5pemF0aW9uYWxV
bml0MRUwEwYDVQQDEwxWaWtpbmdWUE4gQ0ExEDAOBgNVBCkTB0Vhc3lSU0ExITAf
BgkqhkiG9w0BCQEWEm1lQG15aG9zdC5teWRvbWFpboIJAM81he6Avyo+MBMGA1Ud
JQQMMAoGCCsGAQUFBwMCMAsGA1UdDwQEAwIHgDANBgkqhkiG9w0BAQQFAAOCAgEA
WoGHRjx0Mfy3YLXU6Tb98IVpmJdHUwuhISy2wTQAeY15IWVZYA9ZyNRoW88bjH0m
W9bgusYHg5WHK7SUf+QrUhdcGpAfbKOCTTz6Hwztf0SML6ui0k06uVayOyZywibN
8zpTqpNJzQolMbwCpK83+P/m7bq10LdRTDwqcZ6M6u3LrqsvsYVgML44bp2rfDOa
rv6u+dhepPU7PyCEQQoPikj/2WfqQZPyoCgh9J/fvuepEqwSa3Mr0UyWvdkcIm/A
dF18XPA0xm648mT3dnsrTPatY9BZIyFvL/1KzeHzKoh+o3x2sGtol4Lf0cA2IvF7
MVhsxjcX68qqigmjFkIa1f1ZNBDPj+DlU7Qu8QiRHisdifgDoWl7jusyIpvRo2Vh
clILVkgVA3I5+rACvKOM8GaqQ7hp2Ul8K+uAaIcT3J0wVg9ZTqFkH5gYpi0NfIVY
e3e6AC4ha3okIPnTl7Igj7Puf26WtzhaRKyXvsY8XrZYA8wQFLnTi4+plbwj+SyX
s1ZQtaUNw9DdNgZTwKGSnnCNJqcwqdRSijPeqjl58GQvTPOvnM1elskhu83NC9ze
2XShwKF/jNeEwrdnO9kh395hv8Y0GT+pTregbKNQOgpQsoTq++4NEIj6/c4ZD5OJ
rTtq6zzLh9hLVSpCsB0tbt5eWN6alvXCuGgvOztTnMM=
-----END CERTIFICATE-----
