Certificate:
    Data:
        Version: 3 (0x2)
        Serial Number: 11155 (0x2b93)
    Signature Algorithm: sha256WithRSAEncryption
        Issuer: C=US, ST=OH, L=Columbus, O=VikingVPN, OU=MyOrganizationalUnit, CN=VikingVPN CA/name=EasyRSA/emailAddress=me@myhost.mydomain
        Validity
            Not Before: Jun 21 20:53:03 2017 GMT
            Not After : Jun 19 20:53:03 2027 GMT
        Subject: CN=Client2816Cert48b141
        Subject Public Key Info:
            Public Key Algorithm: rsaEncryption
                Public-Key: (4096 bit)
                Modulus:
                    00:d5:fb:05:38:10:ce:5a:1d:00:8c:b3:4d:fc:ee:
                    9e:b5:8a:11:86:e1:8d:5a:09:4d:68:0b:3d:6e:c8:
                    8f:8c:f1:68:cc:a0:a0:07:14:d8:04:6c:7a:f5:bd:
                    b4:2b:94:0c:a5:0a:81:9f:86:88:6b:76:e5:60:fb:
                    92:22:e6:08:84:f9:68:76:69:41:a3:02:36:e5:70:
                    c8:02:ab:52:88:d6:e3:2f:49:6c:31:55:3d:d9:8b:
                    11:14:66:dd:07:02:b0:95:7d:90:19:30:99:5a:92:
                    05:93:ae:52:1b:3f:15:ff:7c:25:54:00:dc:0b:d5:
                    7d:52:7b:dc:4f:12:27:0c:ea:a6:e9:8d:d0:92:b5:
                    91:c9:84:49:a6:d3:68:68:6a:b3:c5:cb:66:c3:f2:
                    22:e0:1a:10:46:d2:bd:e5:54:01:95:5a:6b:cc:be:
                    41:5a:b7:06:b7:91:61:2f:0d:d1:40:ab:1c:f5:b0:
                    11:14:80:98:4d:cd:61:b8:c6:d7:97:fb:b1:b5:4b:
                    6e:91:33:ff:72:aa:60:22:11:db:c9:a5:a2:95:3c:
                    87:71:a3:e0:c2:6e:0e:8f:21:b1:e8:37:fe:6b:e2:
                    7a:ac:38:cb:45:9d:16:01:25:e0:ff:0f:ea:c6:96:
                    df:30:7b:5b:d6:5d:f5:7c:20:4a:85:2f:f5:a1:69:
                    f2:80:e8:12:1b:a1:1a:85:66:18:6c:3c:98:79:f9:
                    17:75:c7:58:46:bc:47:9b:cc:d4:1b:50:68:4c:37:
                    51:4b:56:da:7f:07:67:1a:58:67:1d:18:ae:a6:4c:
                    63:3b:fc:d9:78:48:5c:04:80:3a:dc:e4:61:b7:95:
                    d8:b1:85:c6:c9:77:3c:7a:70:d2:b9:ea:e6:e3:e3:
                    92:a8:4e:7f:f9:c2:42:c1:7f:f5:6b:98:a2:fb:1c:
                    6b:81:85:9a:08:fb:5b:ea:ee:fb:a5:7d:fd:72:d9:
                    27:b0:82:2f:68:58:99:bf:14:fb:4a:8d:78:78:6c:
                    12:0a:be:20:37:2f:d6:94:1b:95:47:fe:3c:75:6d:
                    00:41:89:fc:fa:c2:6f:6e:13:12:f2:82:33:d5:bb:
                    bf:b1:d8:00:d6:35:2d:77:1c:98:c2:d1:79:31:e4:
                    44:3d:26:d5:5f:75:51:ac:6c:6f:4b:16:42:42:c1:
                    0d:6b:59:ee:04:10:7c:6a:ce:9b:a7:dc:2a:7a:a8:
                    28:44:ae:de:16:1a:58:9b:25:85:47:8d:ed:d0:bd:
                    2e:a6:dc:f3:7d:1f:a7:33:ee:fc:83:d7:1f:3b:df:
                    6c:f7:b4:f5:f4:58:fc:0b:12:2a:49:ae:cb:23:05:
                    bf:d9:d5:9c:98:4f:b7:1e:45:02:b0:22:cd:37:6a:
                    c4:85:21
                Exponent: 65537 (0x10001)
        X509v3 extensions:
            X509v3 Basic Constraints: 
                CA:FALSE
            Netscape Comment: 
                Easy-RSA Generated Certificate
            X509v3 Subject Key Identifier: 
                FF:5A:B6:74:0A:19:15:03:A7:17:05:6B:DE:37:61:8B:F9:89:20:C4
            X509v3 Authority Key Identifier: 
                keyid:12:CD:60:04:D2:A0:80:9E:70:ED:C6:99:B8:7B:2C:C6:52:FD:19:A1
                DirName:/C=US/ST=OH/L=Columbus/O=VikingVPN/OU=MyOrganizationalUnit/CN=VikingVPN CA/name=EasyRSA/emailAddress=me@myhost.mydomain
                serial:CF:35:85:EE:80:BF:2A:3E

            X509v3 Extended Key Usage: 
                TLS Web Client Authentication
            X509v3 Key Usage: 
                Digital Signature
    Signature Algorithm: sha256WithRSAEncryption
         58:1a:29:a0:31:4c:e5:21:0a:05:8e:c8:83:c3:9a:e4:f7:f8:
         ad:d0:49:b1:97:d2:c6:83:a1:b1:1c:27:76:ed:f5:1f:36:6c:
         1c:0b:97:4e:12:af:b1:45:06:f2:97:a2:03:83:52:02:60:4f:
         43:85:1c:56:96:14:e1:fb:41:03:07:d8:9b:c0:a5:aa:cf:42:
         ee:69:cf:aa:b7:26:87:22:b5:d5:e0:a4:41:4c:94:d9:c7:97:
         fd:fa:14:02:95:28:47:10:a2:92:79:6c:c7:1d:c9:2a:4c:a7:
         ae:cf:1b:d1:c4:33:5c:7b:8b:28:84:4d:f1:c4:08:04:45:3c:
         a6:f3:24:06:9c:31:bc:bc:fe:81:18:b4:49:86:cd:5b:2e:77:
         53:44:37:7a:45:47:7f:10:d6:bf:2c:23:1f:89:c4:47:cf:8e:
         88:b7:26:8e:67:85:9a:71:72:e1:88:3a:93:26:33:78:ab:f2:
         a9:3c:68:c7:f4:ae:49:50:94:36:72:60:6c:48:f8:c1:f3:9a:
         d8:af:8a:35:f8:f5:57:d8:b2:b2:94:3f:66:14:db:88:6b:b0:
         37:32:ef:0a:a5:a5:0e:74:eb:73:15:dc:af:f2:d5:fb:8b:7d:
         4d:46:77:3c:3b:b4:4b:fa:b4:60:c4:8b:0f:d5:87:07:5f:50:
         86:8d:1f:72:9c:09:d2:43:51:dc:66:d3:33:d9:38:7d:b4:ff:
         80:0b:23:03:b3:9d:49:97:5b:c1:5e:43:41:21:10:a0:ea:eb:
         72:8d:aa:82:64:1a:56:0b:07:b5:9b:0b:a9:22:85:e1:db:b4:
         db:71:64:6b:34:b0:49:5c:51:ec:1b:06:a9:52:73:d4:47:d5:
         7d:cb:a2:7c:f1:bf:d7:88:06:6c:df:42:e2:3c:f8:32:f5:c3:
         80:a3:63:a3:12:c3:f8:01:82:0f:17:fe:0f:f2:2c:ee:57:6b:
         b1:3e:6c:cc:4a:2c:69:af:42:e5:b9:11:ba:5b:44:72:8b:52:
         52:76:0d:1c:b9:4b:8e:e7:6a:ba:45:84:17:4e:38:39:5f:ab:
         97:cb:fd:08:8f:28:27:51:4c:c1:f0:07:bc:1d:29:ea:fe:48:
         37:b8:a5:4b:85:a0:f3:dc:2c:08:d8:8e:f1:5f:19:29:38:b3:
         d0:8d:04:a5:2d:bb:85:cd:43:7a:c6:93:54:57:cf:ca:13:fa:
         75:53:93:27:e4:7a:09:71:0c:33:45:ca:73:34:6e:fb:59:9c:
         38:19:e5:9f:06:ca:75:d9:eb:9f:75:55:46:4c:70:ed:07:d1:
         58:0e:25:e1:69:2e:6e:43:bb:aa:28:e6:e3:ad:dd:2f:fa:45:
         af:2b:14:1f:9e:f8:80:5c
-----BEGIN CERTIFICATE-----
MIIGrTCCBJWgAwIBAgICK5MwDQYJKoZIhvcNAQELBQAwgawxCzAJBgNVBAYTAlVT
MQswCQYDVQQIEwJPSDERMA8GA1UEBxMIQ29sdW1idXMxEjAQBgNVBAoTCVZpa2lu
Z1ZQTjEdMBsGA1UECxMUTXlPcmdhbml6YXRpb25hbFVuaXQxFTATBgNVBAMTDFZp
a2luZ1ZQTiBDQTEQMA4GA1UEKRMHRWFzeVJTQTEhMB8GCSqGSIb3DQEJARYSbWVA
bXlob3N0Lm15ZG9tYWluMB4XDTE3MDYyMTIwNTMwM1oXDTI3MDYxOTIwNTMwM1ow
HzEdMBsGA1UEAxMUQ2xpZW50MjgxNkNlcnQ0OGIxNDEwggIiMA0GCSqGSIb3DQEB
AQUAA4ICDwAwggIKAoICAQDV+wU4EM5aHQCMs0387p61ihGG4Y1aCU1oCz1uyI+M
8WjMoKAHFNgEbHr1vbQrlAylCoGfhohrduVg+5Ii5giE+Wh2aUGjAjblcMgCq1KI
1uMvSWwxVT3ZixEUZt0HArCVfZAZMJlakgWTrlIbPxX/fCVUANwL1X1Se9xPEicM
6qbpjdCStZHJhEmm02hoarPFy2bD8iLgGhBG0r3lVAGVWmvMvkFatwa3kWEvDdFA
qxz1sBEUgJhNzWG4xteX+7G1S26RM/9yqmAiEdvJpaKVPIdxo+DCbg6PIbHoN/5r
4nqsOMtFnRYBJeD/D+rGlt8we1vWXfV8IEqFL/WhafKA6BIboRqFZhhsPJh5+Rd1
x1hGvEebzNQbUGhMN1FLVtp/B2caWGcdGK6mTGM7/Nl4SFwEgDrc5GG3ldixhcbJ
dzx6cNK56ubj45KoTn/5wkLBf/VrmKL7HGuBhZoI+1vq7vulff1y2Sewgi9oWJm/
FPtKjXh4bBIKviA3L9aUG5VH/jx1bQBBifz6wm9uExLygjPVu7+x2ADWNS13HJjC
0Xkx5EQ9JtVfdVGsbG9LFkJCwQ1rWe4EEHxqzpun3Cp6qChErt4WGlibJYVHje3Q
vS6m3PN9H6cz7vyD1x8732z3tPX0WPwLEipJrssjBb/Z1ZyYT7ceRQKwIs03asSF
IQIDAQABo4IBYzCCAV8wCQYDVR0TBAIwADAtBglghkgBhvhCAQ0EIBYeRWFzeS1S
U0EgR2VuZXJhdGVkIENlcnRpZmljYXRlMB0GA1UdDgQWBBT/WrZ0ChkVA6cXBWve
N2GL+YkgxDCB4QYDVR0jBIHZMIHWgBQSzWAE0qCAnnDtxpm4eyzGUv0ZoaGBsqSB
rzCBrDELMAkGA1UEBhMCVVMxCzAJBgNVBAgTAk9IMREwDwYDVQQHEwhDb2x1bWJ1
czESMBAGA1UEChMJVmlraW5nVlBOMR0wGwYDVQQLExRNeU9yZ2FuaXphdGlvbmFs
VW5pdDEVMBMGA1UEAxMMVmlraW5nVlBOIENBMRAwDgYDVQQpEwdFYXN5UlNBMSEw
HwYJKoZIhvcNAQkBFhJtZUBteWhvc3QubXlkb21haW6CCQDPNYXugL8qPjATBgNV
HSUEDDAKBggrBgEFBQcDAjALBgNVHQ8EBAMCB4AwDQYJKoZIhvcNAQELBQADggIB
AFgaKaAxTOUhCgWOyIPDmuT3+K3QSbGX0saDobEcJ3bt9R82bBwLl04Sr7FFBvKX
ogODUgJgT0OFHFaWFOH7QQMH2JvAparPQu5pz6q3JocitdXgpEFMlNnHl/36FAKV
KEcQopJ5bMcdySpMp67PG9HEM1x7iyiETfHECARFPKbzJAacMby8/oEYtEmGzVsu
d1NEN3pFR38Q1r8sIx+JxEfPjoi3Jo5nhZpxcuGIOpMmM3ir8qk8aMf0rklQlDZy
YGxI+MHzmtivijX49VfYsrKUP2YU24hrsDcy7wqlpQ5063MV3K/y1fuLfU1Gdzw7
tEv6tGDEiw/VhwdfUIaNH3KcCdJDUdxm0zPZOH20/4ALIwOznUmXW8FeQ0EhEKDq
63KNqoJkGlYLB7WbC6kiheHbtNtxZGs0sElcUewbBqlSc9RH1X3Lonzxv9eIBmzf
QuI8+DL1w4CjY6MSw/gBgg8X/g/yLO5Xa7E+bMxKLGmvQuW5EbpbRHKLUlJ2DRy5
S47narpFhBdOODlfq5fL/QiPKCdRTMHwB7wdKer+SDe4pUuFoPPcLAjYjvFfGSk4
s9CNBKUtu4XNQ3rGk1RXz8oT+nVTkyfkeglxDDNFynM0bvtZnDgZ5Z8GynXZ6591
VUZMcO0H0VgOJeFpLm5Du6oo5uOt3S/6Ra8rFB+e+IBc
-----END CERTIFICATE-----
