Certificate:
    Data:
        Version: 3 (0x2)
        Serial Number: 3359 (0xd1f)
    Signature Algorithm: md5WithRSAEncryption
        Issuer: C=US, ST=OH, L=Columbus, O=VikingVPN, OU=MyOrganizationalUnit, CN=VikingVPN CA/name=EasyRSA/emailAddress=me@myhost.mydomain
        Validity
            Not Before: Nov 11 16:20:05 2014 GMT
            Not After : Nov  8 16:20:05 2024 GMT
        Subject: CN=Client1160Cert65ff4e
        Subject Public Key Info:
            Public Key Algorithm: rsaEncryption
                Public-Key: (4096 bit)
                Modulus:
                    00:db:d1:35:b4:a8:3f:de:95:99:2e:b1:1f:03:fa:
                    fa:67:3e:80:43:d5:8f:5f:d2:88:1d:06:37:33:5c:
                    4c:ae:28:7c:f0:05:01:9b:2f:f2:7b:2e:67:69:34:
                    c9:6c:48:53:5d:ea:84:12:b3:b9:26:30:64:fc:74:
                    0e:31:53:96:70:8e:ac:73:a4:a8:f6:5b:a2:13:e9:
                    a6:75:79:c7:ea:14:94:36:8b:82:57:bf:99:14:6f:
                    ef:b7:3b:d0:e7:ce:54:9a:a4:b0:9e:0f:dd:39:e1:
                    a8:05:78:91:88:00:a8:de:43:23:31:64:8c:3e:19:
                    1b:3f:92:cd:97:02:45:c7:53:d9:63:c2:6e:fd:7e:
                    69:7d:1d:d6:22:c3:53:20:c1:83:81:ea:a5:04:0c:
                    68:d5:45:00:c8:e2:bd:a3:c0:2f:70:07:7d:e1:87:
                    04:c2:24:5c:a7:50:f7:54:a2:f7:9e:20:58:6d:40:
                    52:2a:b4:55:15:a8:24:62:9c:f7:38:4d:60:d8:2c:
                    f1:c4:67:5c:1e:6e:21:b8:00:c1:68:3a:14:a8:bf:
                    d5:26:51:32:4b:82:04:10:02:30:ef:fe:86:33:69:
                    c4:63:5c:0c:17:da:60:ed:4d:c6:61:ab:d4:66:02:
                    bf:9b:42:02:68:c4:7d:27:e1:7b:14:e7:16:56:a4:
                    47:dc:72:d0:6f:b6:77:8c:c7:d6:25:a3:5b:15:5e:
                    b7:af:2f:ce:8b:f7:42:cc:a8:81:b7:e6:09:69:a7:
                    73:eb:16:19:c9:28:f7:e2:d7:f2:79:de:a8:32:b0:
                    1b:c2:28:71:2f:f1:5f:37:e1:ce:63:1d:64:b2:4a:
                    47:7f:a3:1b:c6:e4:f5:d9:aa:d4:81:d4:f2:f5:48:
                    05:ea:8a:69:be:6d:d6:8c:9c:f0:1b:73:a7:59:e8:
                    aa:18:dd:5e:d0:2d:5e:49:98:b4:9a:76:12:c5:c1:
                    1b:f3:35:02:59:e5:7f:58:ba:d0:35:9e:c7:6b:36:
                    fa:ba:5d:75:8d:8b:2b:84:9d:27:df:87:af:8c:af:
                    d0:da:48:7f:e0:38:28:67:da:61:9b:21:f8:9f:64:
                    3a:01:40:3c:a4:63:d0:a7:c1:43:6e:e9:e9:bc:aa:
                    68:23:06:f9:67:08:4c:8e:1f:99:0a:96:63:a7:b3:
                    12:1e:60:50:d5:d9:de:44:ee:77:d7:b0:18:69:e8:
                    d3:d4:07:fa:95:ad:0e:73:65:af:b6:00:95:95:f5:
                    1f:ff:18:13:cb:ef:fe:2c:68:30:02:6d:e4:4b:cf:
                    cc:e6:ee:ca:cc:d7:87:c3:4f:ba:45:bd:61:bd:ce:
                    9b:33:ff:43:48:21:e5:3c:1a:b8:2b:86:7f:aa:46:
                    97:af:6f
                Exponent: 65537 (0x10001)
        X509v3 extensions:
            X509v3 Basic Constraints: 
                CA:FALSE
            Netscape Comment: 
                Easy-RSA Generated Certificate
            X509v3 Subject Key Identifier: 
                3C:9F:CD:21:6D:88:A3:BE:97:6D:46:47:44:93:22:2A:44:E4:56:03
            X509v3 Authority Key Identifier: 
                keyid:12:CD:60:04:D2:A0:80:9E:70:ED:C6:99:B8:7B:2C:C6:52:FD:19:A1
                DirName:/C=US/ST=OH/L=Columbus/O=VikingVPN/OU=MyOrganizationalUnit/CN=VikingVPN CA/name=EasyRSA/emailAddress=me@myhost.mydomain
                serial:CF:35:85:EE:80:BF:2A:3E

            X509v3 Extended Key Usage: 
                TLS Web Client Authentication
            X509v3 Key Usage: 
                Digital Signature
    Signature Algorithm: md5WithRSAEncryption
         b6:5a:3d:02:54:40:a7:e2:cc:a1:d0:48:c1:be:82:6b:1e:a9:
         af:51:f9:41:43:ee:88:7f:d8:6a:a3:b1:fc:bf:f1:cd:a7:bd:
         51:f4:b2:6f:8e:ef:95:8c:9a:09:55:b4:aa:5a:a8:ad:4b:e0:
         b3:11:9e:c4:ef:2e:42:ca:bd:62:dd:1f:6c:75:67:0b:60:36:
         00:ef:f8:49:b4:56:91:4d:be:21:39:4f:98:af:cd:3d:fe:49:
         ee:75:9e:46:af:23:66:23:c9:f2:0d:d3:51:5a:f9:06:f0:c6:
         a1:ce:e3:1e:a7:47:28:80:9e:f4:9d:38:93:b7:ad:84:54:8c:
         54:8a:1f:0b:57:a1:d0:72:73:fb:1b:0b:b2:15:b6:9a:f6:12:
         26:62:86:25:28:1a:92:63:bd:9f:58:7a:a6:87:f1:3d:6c:08:
         a3:99:07:0c:9a:2d:7f:a7:95:85:b9:9c:d3:8d:d0:82:87:c3:
         18:b7:b3:77:c4:17:05:53:fc:fe:d4:ba:63:cd:7f:0f:ac:6a:
         22:c5:c5:b5:a0:84:d9:d4:5a:f5:02:e3:b4:ff:8b:96:2a:e6:
         48:f4:91:bd:07:94:84:b9:dd:94:db:41:6f:fb:b6:9d:d8:98:
         99:74:5d:bf:2d:7c:b6:34:22:1a:63:61:f8:15:aa:b0:62:b9:
         06:3b:4f:a9:22:91:ee:4e:63:91:44:71:de:e9:a8:85:be:4a:
         24:80:2a:67:18:e3:33:ac:bb:84:66:36:43:2a:b2:97:cd:39:
         05:4a:f4:8f:00:63:e4:db:a1:4a:02:1c:16:d6:5d:e4:c6:cb:
         0a:dd:4e:6d:8f:80:ed:b6:76:ac:e7:ca:e3:b2:fa:a6:a7:00:
         5f:81:a6:4c:2a:53:1c:71:05:e5:67:b9:04:a0:dd:d5:84:c1:
         3b:1f:7f:d2:31:cf:91:2d:9a:55:d2:26:08:69:61:79:90:c4:
         39:af:e8:9b:85:e6:9a:1b:d9:3b:49:02:e3:b2:e2:45:64:6e:
         87:24:e2:ca:0e:af:0d:30:01:99:56:47:98:06:bb:45:b9:fe:
         cd:f6:71:cb:34:02:ba:81:8c:57:13:b1:2f:85:76:a7:9b:f5:
         c3:ce:45:0e:58:53:a2:a2:da:e7:bd:53:47:b2:22:4b:f4:0f:
         c4:9c:55:c0:ba:7c:4f:50:c7:85:39:0c:1e:bf:a8:2f:92:d3:
         be:d1:08:66:38:fd:0d:ac:45:bd:85:17:54:ee:78:bf:18:ee:
         d0:ae:96:5a:7f:70:15:ed:01:36:1c:82:47:84:84:7e:48:7a:
         9c:3e:bb:5b:05:11:f7:e2:36:33:1f:a7:fa:3b:db:e7:a0:d6:
         d4:5f:80:4f:55:32:8a:40
-----BEGIN CERTIFICATE-----
MIIGrTCCBJWgAwIBAgICDR8wDQYJKoZIhvcNAQEEBQAwgawxCzAJBgNVBAYTAlVT
MQswCQYDVQQIEwJPSDERMA8GA1UEBxMIQ29sdW1idXMxEjAQBgNVBAoTCVZpa2lu
Z1ZQTjEdMBsGA1UECxMUTXlPcmdhbml6YXRpb25hbFVuaXQxFTATBgNVBAMTDFZp
a2luZ1ZQTiBDQTEQMA4GA1UEKRMHRWFzeVJTQTEhMB8GCSqGSIb3DQEJARYSbWVA
bXlob3N0Lm15ZG9tYWluMB4XDTE0MTExMTE2MjAwNVoXDTI0MTEwODE2MjAwNVow
HzEdMBsGA1UEAxMUQ2xpZW50MTE2MENlcnQ2NWZmNGUwggIiMA0GCSqGSIb3DQEB
AQUAA4ICDwAwggIKAoICAQDb0TW0qD/elZkusR8D+vpnPoBD1Y9f0ogdBjczXEyu
KHzwBQGbL/J7LmdpNMlsSFNd6oQSs7kmMGT8dA4xU5ZwjqxzpKj2W6IT6aZ1ecfq
FJQ2i4JXv5kUb++3O9DnzlSapLCeD9054agFeJGIAKjeQyMxZIw+GRs/ks2XAkXH
U9ljwm79fml9HdYiw1MgwYOB6qUEDGjVRQDI4r2jwC9wB33hhwTCJFynUPdUovee
IFhtQFIqtFUVqCRinPc4TWDYLPHEZ1webiG4AMFoOhSov9UmUTJLggQQAjDv/oYz
acRjXAwX2mDtTcZhq9RmAr+bQgJoxH0n4XsU5xZWpEfcctBvtneMx9Ylo1sVXrev
L86L90LMqIG35glpp3PrFhnJKPfi1/J53qgysBvCKHEv8V834c5jHWSySkd/oxvG
5PXZqtSB1PL1SAXqimm+bdaMnPAbc6dZ6KoY3V7QLV5JmLSadhLFwRvzNQJZ5X9Y
utA1nsdrNvq6XXWNiyuEnSffh6+Mr9DaSH/gOChn2mGbIfifZDoBQDykY9CnwUNu
6em8qmgjBvlnCEyOH5kKlmOnsxIeYFDV2d5E7nfXsBhp6NPUB/qVrQ5zZa+2AJWV
9R//GBPL7/4saDACbeRLz8zm7srM14fDT7pFvWG9zpsz/0NIIeU8Grgrhn+qRpev
bwIDAQABo4IBYzCCAV8wCQYDVR0TBAIwADAtBglghkgBhvhCAQ0EIBYeRWFzeS1S
U0EgR2VuZXJhdGVkIENlcnRpZmljYXRlMB0GA1UdDgQWBBQ8n80hbYijvpdtRkdE
kyIqRORWAzCB4QYDVR0jBIHZMIHWgBQSzWAE0qCAnnDtxpm4eyzGUv0ZoaGBsqSB
rzCBrDELMAkGA1UEBhMCVVMxCzAJBgNVBAgTAk9IMREwDwYDVQQHEwhDb2x1bWJ1
czESMBAGA1UEChMJVmlraW5nVlBOMR0wGwYDVQQLExRNeU9yZ2FuaXphdGlvbmFs
VW5pdDEVMBMGA1UEAxMMVmlraW5nVlBOIENBMRAwDgYDVQQpEwdFYXN5UlNBMSEw
HwYJKoZIhvcNAQkBFhJtZUBteWhvc3QubXlkb21haW6CCQDPNYXugL8qPjATBgNV
HSUEDDAKBggrBgEFBQcDAjALBgNVHQ8EBAMCB4AwDQYJKoZIhvcNAQEEBQADggIB
ALZaPQJUQKfizKHQSMG+gmseqa9R+UFD7oh/2Gqjsfy/8c2nvVH0sm+O75WMmglV
tKpaqK1L4LMRnsTvLkLKvWLdH2x1ZwtgNgDv+Em0VpFNviE5T5ivzT3+Se51nkav
I2YjyfIN01Fa+QbwxqHO4x6nRyiAnvSdOJO3rYRUjFSKHwtXodByc/sbC7IVtpr2
EiZihiUoGpJjvZ9YeqaH8T1sCKOZBwyaLX+nlYW5nNON0IKHwxi3s3fEFwVT/P7U
umPNfw+saiLFxbWghNnUWvUC47T/i5Yq5kj0kb0HlIS53ZTbQW/7tp3YmJl0Xb8t
fLY0IhpjYfgVqrBiuQY7T6kike5OY5FEcd7pqIW+SiSAKmcY4zOsu4RmNkMqspfN
OQVK9I8AY+TboUoCHBbWXeTGywrdTm2PgO22dqznyuOy+qanAF+BpkwqUxxxBeVn
uQSg3dWEwTsff9Ixz5EtmlXSJghpYXmQxDmv6JuF5pob2TtJAuOy4kVkbock4soO
rw0wAZlWR5gGu0W5/s32ccs0ArqBjFcTsS+Fdqeb9cPORQ5YU6Ki2ue9U0eyIkv0
D8ScVcC6fE9Qx4U5DB6/qC+S077RCGY4/Q2sRb2FF1TueL8Y7tCullp/cBXtATYc
gkeEhH5Iepw+u1sFEffiNjMfp/o72+eg1tRfgE9VMopA
-----END CERTIFICATE-----
