Certificate:
    Data:
        Version: 3 (0x2)
        Serial Number: 1331 (0x533)
    Signature Algorithm: md5WithRSAEncryption
        Issuer: C=US, ST=OH, L=Columbus, O=VikingVPN, OU=MyOrganizationalUnit, CN=VikingVPN CA/name=EasyRSA/emailAddress=me@myhost.mydomain
        Validity
            Not Before: Mar 21 12:22:37 2014 GMT
            Not After : Mar 18 12:22:37 2024 GMT
        Subject: CN=Client496Cert6e1633
        Subject Public Key Info:
            Public Key Algorithm: rsaEncryption
                Public-Key: (4096 bit)
                Modulus:
                    00:cc:a9:98:1f:0a:23:73:86:5c:99:0b:fb:f8:37:
                    cb:98:7d:66:b0:3e:d1:32:97:6f:a1:f0:83:93:e1:
                    a3:7b:54:f6:25:4c:f5:41:2e:49:e2:df:52:45:d1:
                    ba:0d:c5:db:45:ff:9e:5f:a6:1f:e3:34:34:cc:fc:
                    08:c1:11:7f:f0:9c:bc:12:4d:08:72:9c:44:b2:2c:
                    b4:02:98:f3:a9:72:e1:46:8a:2a:3a:a5:85:29:18:
                    b7:b6:e5:97:15:fd:98:04:8a:e3:10:05:29:45:a3:
                    94:78:35:34:e0:82:6e:2f:12:14:46:df:03:3c:54:
                    5a:af:92:91:b0:e6:42:0b:1d:8f:80:d9:55:9b:5a:
                    45:81:af:25:33:29:6d:f8:ec:25:69:74:c3:2f:5a:
                    13:3a:a1:1e:1b:9e:ee:f3:ce:4f:f1:cb:12:e8:f0:
                    98:75:46:44:93:70:86:e7:b6:e1:91:de:ed:24:ff:
                    c0:62:9c:22:17:34:18:aa:b3:58:f7:cf:7a:19:3c:
                    81:f3:d3:f2:50:36:23:53:ca:d6:ed:49:23:7f:08:
                    69:b1:9b:e9:18:ed:a2:f2:c3:33:66:d0:3a:2d:98:
                    ce:41:d5:c0:41:5f:ba:f4:a3:5f:06:4d:15:38:9e:
                    d4:1d:02:62:f2:62:97:03:5b:65:5e:c5:86:d1:21:
                    47:2d:53:1a:78:29:28:77:76:d5:4f:23:11:0a:53:
                    13:3e:b2:fb:20:9e:fd:1e:4d:cf:ac:a7:f3:8e:d7:
                    38:51:e6:d6:c7:cc:dc:46:20:51:e9:d2:99:f7:2f:
                    90:02:9e:33:a6:2e:b1:50:83:5b:c6:d1:fb:f1:47:
                    eb:18:43:29:51:9b:99:3a:91:de:8b:bc:6d:b1:48:
                    0b:c8:23:d4:7f:0c:89:7e:97:52:2d:70:a5:7a:4d:
                    d4:ca:05:72:77:bd:d2:3e:c6:4c:fb:d6:54:10:c6:
                    f3:11:35:3c:c3:78:76:0c:45:af:fc:ae:65:4b:ab:
                    5a:07:9c:2a:f2:38:4d:e6:c2:98:8a:95:b2:84:fa:
                    35:2d:81:67:1a:1d:45:a9:9b:03:e9:b9:f1:85:ac:
                    a6:dc:70:ff:8c:c5:c3:b0:af:fb:75:73:d4:12:01:
                    50:8c:c6:d3:d6:01:07:60:f3:e9:af:51:fb:d8:a1:
                    0c:14:f7:87:08:69:06:7a:12:f9:b4:97:74:68:b4:
                    31:b3:23:2c:30:f2:c8:d5:5a:95:7b:5c:87:f2:a9:
                    b7:c4:e4:f9:04:52:21:98:f7:ed:57:75:23:4a:58:
                    40:41:4f:1e:6a:25:1b:8a:b0:d6:b1:e2:39:f8:82:
                    35:7b:a5:4b:c3:bd:b1:cc:73:66:78:48:9a:df:2f:
                    cf:80:c9
                Exponent: 65537 (0x10001)
        X509v3 extensions:
            X509v3 Basic Constraints: 
                CA:FALSE
            Netscape Comment: 
                Easy-RSA Generated Certificate
            X509v3 Subject Key Identifier: 
                64:22:60:26:58:D0:66:4C:35:02:33:2A:75:F7:12:A2:26:D8:F1:D6
            X509v3 Authority Key Identifier: 
                keyid:12:CD:60:04:D2:A0:80:9E:70:ED:C6:99:B8:7B:2C:C6:52:FD:19:A1
                DirName:/C=US/ST=OH/L=Columbus/O=VikingVPN/OU=MyOrganizationalUnit/CN=VikingVPN CA/name=EasyRSA/emailAddress=me@myhost.mydomain
                serial:CF:35:85:EE:80:BF:2A:3E

            X509v3 Extended Key Usage: 
                TLS Web Client Authentication
            X509v3 Key Usage: 
                Digital Signature
    Signature Algorithm: md5WithRSAEncryption
         0e:35:e2:ed:68:fc:a0:76:f6:63:44:c5:bc:a4:44:e7:2e:1e:
         70:79:01:57:46:14:79:44:1e:ba:1b:ca:35:90:5f:c4:e3:b1:
         26:ce:18:04:b9:1b:50:66:d3:e0:b2:05:99:76:50:e6:2a:72:
         5b:d1:ba:89:04:ac:d3:8b:21:41:e7:a8:e9:7e:eb:37:c7:c0:
         69:13:42:ee:22:d7:b8:72:6d:ef:57:7f:e6:43:da:4d:69:db:
         d9:32:08:72:78:e2:0b:c9:8a:37:8b:e8:e5:03:58:4b:35:72:
         c7:ef:c4:4a:82:8f:b3:47:ef:88:a6:54:24:51:76:4a:67:61:
         6f:86:c3:6c:78:9d:7c:54:76:e6:f1:2c:7e:2f:26:25:90:35:
         08:51:2e:73:f3:c2:a9:e9:d4:7c:9f:af:2c:db:d5:52:48:7a:
         61:ff:7e:09:72:79:a3:de:03:5f:7a:98:15:43:26:90:ff:be:
         91:5f:7b:eb:03:8a:db:62:d5:cc:3f:69:e1:46:03:ec:c8:0c:
         5e:7d:dc:a8:56:7a:d2:81:ee:b5:6f:2a:46:ee:85:a2:89:95:
         6d:be:79:f7:66:17:54:25:a2:77:98:f0:90:74:4f:2c:1d:55:
         be:be:3a:3b:82:67:4d:10:c4:50:7a:b7:02:5b:35:a1:7f:b6:
         9b:59:61:8b:e9:53:21:2d:ab:58:3d:5d:4b:e7:f4:c0:48:e6:
         a8:09:b7:6d:8b:d6:28:9b:66:39:24:e1:b3:b3:0d:fe:d4:70:
         49:3a:e4:e7:ff:5c:6c:7f:e6:36:93:14:c5:63:3d:79:30:64:
         2f:36:54:57:15:18:06:96:25:c0:2c:58:dd:60:63:d2:21:c8:
         f0:18:b9:55:26:7c:e1:80:73:f3:69:62:0f:d8:7f:36:8d:4b:
         3b:77:f4:96:ae:63:ae:50:a9:49:21:7d:4f:2f:3d:cc:90:6d:
         dd:88:f5:06:69:bd:21:15:e6:81:b7:94:19:b5:2f:46:b0:0f:
         82:f9:64:2b:99:d9:ae:fc:79:e8:cf:77:13:c1:60:1f:0a:75:
         a8:df:2f:8e:7b:3c:95:bf:16:8e:e7:b5:b5:19:01:a4:45:bc:
         73:a6:0e:71:60:cb:5d:ef:53:53:9d:aa:77:e3:67:d7:54:57:
         a6:bf:d1:69:4a:0c:d9:47:71:6e:fc:8b:4e:aa:b8:29:1c:4d:
         0c:38:11:2c:57:ff:7b:1c:ea:3f:ba:41:9a:d4:90:46:47:2c:
         f6:96:29:1c:82:e5:7a:59:dc:82:10:6b:ba:1e:5f:10:49:6b:
         59:b7:69:49:d1:d1:c2:b2:34:b2:50:02:39:f8:28:3d:3c:cb:
         c9:f5:99:e8:56:9a:08:75
-----BEGIN CERTIFICATE-----
MIIGrDCCBJSgAwIBAgICBTMwDQYJKoZIhvcNAQEEBQAwgawxCzAJBgNVBAYTAlVT
MQswCQYDVQQIEwJPSDERMA8GA1UEBxMIQ29sdW1idXMxEjAQBgNVBAoTCVZpa2lu
Z1ZQTjEdMBsGA1UECxMUTXlPcmdhbml6YXRpb25hbFVuaXQxFTATBgNVBAMTDFZp
a2luZ1ZQTiBDQTEQMA4GA1UEKRMHRWFzeVJTQTEhMB8GCSqGSIb3DQEJARYSbWVA
bXlob3N0Lm15ZG9tYWluMB4XDTE0MDMyMTEyMjIzN1oXDTI0MDMxODEyMjIzN1ow
HjEcMBoGA1UEAxMTQ2xpZW50NDk2Q2VydDZlMTYzMzCCAiIwDQYJKoZIhvcNAQEB
BQADggIPADCCAgoCggIBAMypmB8KI3OGXJkL+/g3y5h9ZrA+0TKXb6Hwg5Pho3tU
9iVM9UEuSeLfUkXRug3F20X/nl+mH+M0NMz8CMERf/CcvBJNCHKcRLIstAKY86ly
4UaKKjqlhSkYt7bllxX9mASK4xAFKUWjlHg1NOCCbi8SFEbfAzxUWq+SkbDmQgsd
j4DZVZtaRYGvJTMpbfjsJWl0wy9aEzqhHhue7vPOT/HLEujwmHVGRJNwhue24ZHe
7ST/wGKcIhc0GKqzWPfPehk8gfPT8lA2I1PK1u1JI38IabGb6RjtovLDM2bQOi2Y
zkHVwEFfuvSjXwZNFTie1B0CYvJilwNbZV7FhtEhRy1TGngpKHd21U8jEQpTEz6y
+yCe/R5Nz6yn847XOFHm1sfM3EYgUenSmfcvkAKeM6YusVCDW8bR+/FH6xhDKVGb
mTqR3ou8bbFIC8gj1H8MiX6XUi1wpXpN1MoFcne90j7GTPvWVBDG8xE1PMN4dgxF
r/yuZUurWgecKvI4TebCmIqVsoT6NS2BZxodRambA+m58YWsptxw/4zFw7Cv+3Vz
1BIBUIzG09YBB2Dz6a9R+9ihDBT3hwhpBnoS+bSXdGi0MbMjLDDyyNValXtch/Kp
t8Tk+QRSIZj37Vd1I0pYQEFPHmolG4qw1rHiOfiCNXulS8O9scxzZnhImt8vz4DJ
AgMBAAGjggFjMIIBXzAJBgNVHRMEAjAAMC0GCWCGSAGG+EIBDQQgFh5FYXN5LVJT
QSBHZW5lcmF0ZWQgQ2VydGlmaWNhdGUwHQYDVR0OBBYEFGQiYCZY0GZMNQIzKnX3
EqIm2PHWMIHhBgNVHSMEgdkwgdaAFBLNYATSoICecO3Gmbh7LMZS/RmhoYGypIGv
MIGsMQswCQYDVQQGEwJVUzELMAkGA1UECBMCT0gxETAPBgNVBAcTCENvbHVtYnVz
MRIwEAYDVQQKEwlWaWtpbmdWUE4xHTAbBgNVBAsTFE15T3JnYW5pemF0aW9uYWxV
bml0MRUwEwYDVQQDEwxWaWtpbmdWUE4gQ0ExEDAOBgNVBCkTB0Vhc3lSU0ExITAf
BgkqhkiG9w0BCQEWEm1lQG15aG9zdC5teWRvbWFpboIJAM81he6Avyo+MBMGA1Ud
JQQMMAoGCCsGAQUFBwMCMAsGA1UdDwQEAwIHgDANBgkqhkiG9w0BAQQFAAOCAgEA
DjXi7Wj8oHb2Y0TFvKRE5y4ecHkBV0YUeUQeuhvKNZBfxOOxJs4YBLkbUGbT4LIF
mXZQ5ipyW9G6iQSs04shQeeo6X7rN8fAaRNC7iLXuHJt71d/5kPaTWnb2TIIcnji
C8mKN4vo5QNYSzVyx+/ESoKPs0fviKZUJFF2Smdhb4bDbHidfFR25vEsfi8mJZA1
CFEuc/PCqenUfJ+vLNvVUkh6Yf9+CXJ5o94DX3qYFUMmkP++kV976wOK22LVzD9p
4UYD7MgMXn3cqFZ60oHutW8qRu6FoomVbb5592YXVCWid5jwkHRPLB1Vvr46O4Jn
TRDEUHq3Als1oX+2m1lhi+lTIS2rWD1dS+f0wEjmqAm3bYvWKJtmOSThs7MN/tRw
STrk5/9cbH/mNpMUxWM9eTBkLzZUVxUYBpYlwCxY3WBj0iHI8Bi5VSZ84YBz82li
D9h/No1LO3f0lq5jrlCpSSF9Ty89zJBt3Yj1Bmm9IRXmgbeUGbUvRrAPgvlkK5nZ
rvx56M93E8FgHwp1qN8vjns8lb8Wjue1tRkBpEW8c6YOcWDLXe9TU52qd+Nn11RX
pr/RaUoM2UdxbvyLTqq4KRxNDDgRLFf/exzqP7pBmtSQRkcs9pYpHILlelncghBr
uh5fEElrWbdpSdHRwrI0slACOfgoPTzLyfWZ6FaaCHU=
-----END CERTIFICATE-----
