Certificate:
    Data:
        Version: 3 (0x2)
        Serial Number: 2792 (0xae8)
    Signature Algorithm: md5WithRSAEncryption
        Issuer: C=US, ST=OH, L=Columbus, O=VikingVPN, OU=MyOrganizationalUnit, CN=VikingVPN CA/name=EasyRSA/emailAddress=me@myhost.mydomain
        Validity
            Not Before: Sep  9 00:13:58 2014 GMT
            Not After : Sep  6 00:13:58 2024 GMT
        Subject: CN=Client315Cert95dc4a
        Subject Public Key Info:
            Public Key Algorithm: rsaEncryption
                Public-Key: (4096 bit)
                Modulus:
                    00:93:29:85:69:77:42:ed:34:2e:46:9b:eb:8e:3e:
                    a7:20:b1:18:f0:f9:f3:b0:67:29:e6:1d:60:ce:a0:
                    e8:59:57:7a:50:c0:78:31:99:c8:76:b5:fe:1a:6c:
                    11:6a:e1:b1:df:d5:43:ed:50:ef:80:d3:04:ef:e1:
                    03:49:79:de:91:2c:4b:a5:c8:76:f2:dc:a3:55:50:
                    d9:9b:b1:23:b5:b6:59:4d:69:63:31:0a:79:aa:8f:
                    fb:84:a9:2b:f9:07:3a:4c:9b:d4:86:7f:f3:32:8a:
                    e7:00:3e:1d:a1:d5:d1:74:52:eb:c4:da:c0:75:e4:
                    65:df:cb:6c:7c:3d:f5:d8:36:6d:1a:11:ca:43:4e:
                    b3:b6:9d:33:a8:da:76:9b:3e:3f:d3:e9:90:58:08:
                    7b:4f:96:36:b4:67:c1:01:97:0e:60:dd:86:7c:de:
                    8c:ef:5d:d1:8c:30:0c:b4:d6:80:41:8b:81:cd:b1:
                    f8:2e:4a:39:4f:c2:e1:b0:f5:5c:b6:75:38:79:52:
                    60:3c:3a:c7:33:32:e7:d4:45:5d:52:c5:e0:1d:93:
                    b8:9a:30:e7:73:87:a1:dc:5c:13:4f:53:af:05:e2:
                    7d:c4:41:93:d0:84:8b:8f:87:47:ef:bd:67:a0:7d:
                    14:cd:88:25:68:5f:71:3f:94:5d:8c:91:4d:fa:9b:
                    c7:53:a3:4d:0a:0d:cf:06:29:5b:c3:67:9e:12:1d:
                    89:3d:b5:ec:49:31:7e:1c:ae:6e:83:16:92:45:dd:
                    2f:08:b0:5b:2b:e9:50:19:03:ff:8b:c1:d2:5d:5e:
                    33:04:de:4c:6c:5f:17:9f:51:aa:c2:47:f2:c8:8e:
                    d8:ad:db:19:30:95:13:76:60:64:6e:4c:24:3c:d8:
                    ef:8f:ac:15:21:0d:b9:57:99:3d:58:b3:3c:4c:fa:
                    b7:5a:7a:cd:5f:da:09:aa:84:30:fa:77:68:10:69:
                    a9:e4:7f:4e:20:04:a7:af:91:2c:96:51:ba:12:3a:
                    81:da:df:e8:b3:d1:e0:c2:f7:bb:2b:b4:57:3c:b8:
                    13:f2:05:37:87:2c:06:f2:45:05:e3:d0:e4:8d:1c:
                    a4:48:ab:1d:34:ae:34:bb:f0:9d:1d:5d:c2:65:49:
                    ca:80:df:83:e0:42:0d:7f:e6:f5:1c:2c:2a:6f:57:
                    7a:fe:17:91:eb:80:3b:65:dd:83:d2:57:fe:55:cc:
                    26:a2:b1:ba:25:9d:5a:8f:94:26:62:cf:39:b3:5b:
                    49:ab:75:b3:73:46:9b:cd:61:d0:8d:6a:0e:6a:1d:
                    da:e6:8a:94:78:5b:d0:03:88:b4:f5:df:a3:ff:74:
                    b9:6a:d7:37:60:02:8f:58:bf:95:90:2a:63:d1:34:
                    df:2a:55
                Exponent: 65537 (0x10001)
        X509v3 extensions:
            X509v3 Basic Constraints: 
                CA:FALSE
            Netscape Comment: 
                Easy-RSA Generated Certificate
            X509v3 Subject Key Identifier: 
                DE:16:7E:90:C1:EF:56:14:59:DE:D6:C9:2F:AB:63:B8:55:C1:D2:CE
            X509v3 Authority Key Identifier: 
                keyid:12:CD:60:04:D2:A0:80:9E:70:ED:C6:99:B8:7B:2C:C6:52:FD:19:A1
                DirName:/C=US/ST=OH/L=Columbus/O=VikingVPN/OU=MyOrganizationalUnit/CN=VikingVPN CA/name=EasyRSA/emailAddress=me@myhost.mydomain
                serial:CF:35:85:EE:80:BF:2A:3E

            X509v3 Extended Key Usage: 
                TLS Web Client Authentication
            X509v3 Key Usage: 
                Digital Signature
    Signature Algorithm: md5WithRSAEncryption
         ca:3e:91:78:cc:69:9c:d5:4f:7d:05:65:a6:b3:c2:20:32:7c:
         eb:f8:2f:81:54:b6:ac:77:0c:47:40:a0:36:6e:da:9e:aa:35:
         9c:a1:e3:07:f3:46:b4:39:8c:3d:c7:b9:7b:f9:a5:d5:14:78:
         29:fe:9a:fb:d3:3b:28:ff:a4:37:96:c1:8e:9b:5a:82:a7:6b:
         2d:8e:3b:94:fc:72:52:41:f7:51:14:ee:55:88:3f:48:f2:d8:
         32:96:64:43:f3:77:25:7d:5b:31:1c:55:65:d3:92:ac:a7:9c:
         0c:ed:36:40:30:8b:b5:86:d3:36:cc:c6:26:8c:8a:26:ff:ab:
         0a:58:d4:56:bc:43:f9:09:8b:7d:ef:23:06:72:3f:52:da:c1:
         a7:04:5d:1b:81:98:84:20:d5:7b:98:73:bb:a0:2e:b7:3f:5b:
         27:0e:fa:31:cf:cc:64:25:85:ee:31:ff:56:79:cf:2b:f5:06:
         16:43:c9:94:24:3d:27:bd:66:97:79:4d:58:01:6d:7d:ba:9a:
         08:e1:df:c1:f3:64:88:5e:86:09:b2:66:82:7e:a8:82:df:b7:
         be:00:dd:4b:ec:00:9f:57:61:0b:f1:b9:8a:3b:f4:b7:2a:36:
         da:83:77:d9:3f:23:41:01:c1:70:fc:5c:c7:a5:28:09:d9:d3:
         8f:92:b1:60:69:40:00:53:28:34:b8:53:86:a1:94:a4:d9:62:
         ee:9c:95:3c:76:4c:c0:0f:05:37:4e:50:56:40:fa:8c:24:31:
         11:96:6f:20:cc:ff:9f:2c:e2:83:12:ed:db:26:28:76:a7:44:
         55:25:ec:c8:fe:3a:10:f5:85:fa:04:27:5f:dd:7e:b8:51:5f:
         96:36:b2:7e:0b:36:cd:7b:f3:c9:57:a3:1e:5f:72:6b:ab:ff:
         9c:f8:3a:75:fd:bd:8f:06:97:d9:11:2a:0d:e5:55:fe:e0:b8:
         8f:d6:4b:e9:65:26:fc:de:53:36:97:d7:d7:5c:b0:79:f8:3b:
         98:09:1e:7f:5e:7c:25:77:c8:da:45:cc:a1:38:93:08:9d:4d:
         d7:a8:df:36:17:ae:2d:eb:8b:ca:55:ba:24:08:5d:32:d4:e3:
         57:bf:ad:51:cc:cc:cc:e7:9c:89:f4:e7:1e:a6:fc:14:3a:95:
         61:ef:01:fe:65:50:a2:f5:af:07:3b:15:00:48:96:6e:00:3b:
         32:97:cc:fe:8f:e8:ff:91:ff:30:05:32:c1:ce:08:49:f1:a1:
         85:8a:3b:17:24:22:99:f2:4c:ca:79:6e:3f:99:b8:46:61:e2:
         d0:03:dc:7c:d9:5b:2e:0b:6a:b2:bb:ba:ca:79:ef:53:96:89:
         79:dd:88:3d:4d:5b:4e:fe
-----BEGIN CERTIFICATE-----
MIIGrDCCBJSgAwIBAgICCugwDQYJKoZIhvcNAQEEBQAwgawxCzAJBgNVBAYTAlVT
MQswCQYDVQQIEwJPSDERMA8GA1UEBxMIQ29sdW1idXMxEjAQBgNVBAoTCVZpa2lu
Z1ZQTjEdMBsGA1UECxMUTXlPcmdhbml6YXRpb25hbFVuaXQxFTATBgNVBAMTDFZp
a2luZ1ZQTiBDQTEQMA4GA1UEKRMHRWFzeVJTQTEhMB8GCSqGSIb3DQEJARYSbWVA
bXlob3N0Lm15ZG9tYWluMB4XDTE0MDkwOTAwMTM1OFoXDTI0MDkwNjAwMTM1OFow
HjEcMBoGA1UEAxMTQ2xpZW50MzE1Q2VydDk1ZGM0YTCCAiIwDQYJKoZIhvcNAQEB
BQADggIPADCCAgoCggIBAJMphWl3Qu00Lkab644+pyCxGPD587BnKeYdYM6g6FlX
elDAeDGZyHa1/hpsEWrhsd/VQ+1Q74DTBO/hA0l53pEsS6XIdvLco1VQ2ZuxI7W2
WU1pYzEKeaqP+4SpK/kHOkyb1IZ/8zKK5wA+HaHV0XRS68TawHXkZd/LbHw99dg2
bRoRykNOs7adM6jadps+P9PpkFgIe0+WNrRnwQGXDmDdhnzejO9d0YwwDLTWgEGL
gc2x+C5KOU/C4bD1XLZ1OHlSYDw6xzMy59RFXVLF4B2TuJow53OHodxcE09TrwXi
fcRBk9CEi4+HR++9Z6B9FM2IJWhfcT+UXYyRTfqbx1OjTQoNzwYpW8NnnhIdiT21
7EkxfhyuboMWkkXdLwiwWyvpUBkD/4vB0l1eMwTeTGxfF59RqsJH8siO2K3bGTCV
E3ZgZG5MJDzY74+sFSENuVeZPVizPEz6t1p6zV/aCaqEMPp3aBBpqeR/TiAEp6+R
LJZRuhI6gdrf6LPR4ML3uyu0Vzy4E/IFN4csBvJFBePQ5I0cpEirHTSuNLvwnR1d
wmVJyoDfg+BCDX/m9RwsKm9Xev4XkeuAO2Xdg9JX/lXMJqKxuiWdWo+UJmLPObNb
Sat1s3NGm81h0I1qDmod2uaKlHhb0AOItPXfo/90uWrXN2ACj1i/lZAqY9E03ypV
AgMBAAGjggFjMIIBXzAJBgNVHRMEAjAAMC0GCWCGSAGG+EIBDQQgFh5FYXN5LVJT
QSBHZW5lcmF0ZWQgQ2VydGlmaWNhdGUwHQYDVR0OBBYEFN4WfpDB71YUWd7WyS+r
Y7hVwdLOMIHhBgNVHSMEgdkwgdaAFBLNYATSoICecO3Gmbh7LMZS/RmhoYGypIGv
MIGsMQswCQYDVQQGEwJVUzELMAkGA1UECBMCT0gxETAPBgNVBAcTCENvbHVtYnVz
MRIwEAYDVQQKEwlWaWtpbmdWUE4xHTAbBgNVBAsTFE15T3JnYW5pemF0aW9uYWxV
bml0MRUwEwYDVQQDEwxWaWtpbmdWUE4gQ0ExEDAOBgNVBCkTB0Vhc3lSU0ExITAf
BgkqhkiG9w0BCQEWEm1lQG15aG9zdC5teWRvbWFpboIJAM81he6Avyo+MBMGA1Ud
JQQMMAoGCCsGAQUFBwMCMAsGA1UdDwQEAwIHgDANBgkqhkiG9w0BAQQFAAOCAgEA
yj6ReMxpnNVPfQVlprPCIDJ86/gvgVS2rHcMR0CgNm7anqo1nKHjB/NGtDmMPce5
e/ml1RR4Kf6a+9M7KP+kN5bBjptagqdrLY47lPxyUkH3URTuVYg/SPLYMpZkQ/N3
JX1bMRxVZdOSrKecDO02QDCLtYbTNszGJoyKJv+rCljUVrxD+QmLfe8jBnI/UtrB
pwRdG4GYhCDVe5hzu6Autz9bJw76Mc/MZCWF7jH/VnnPK/UGFkPJlCQ9J71ml3lN
WAFtfbqaCOHfwfNkiF6GCbJmgn6ogt+3vgDdS+wAn1dhC/G5ijv0tyo22oN32T8j
QQHBcPxcx6UoCdnTj5KxYGlAAFMoNLhThqGUpNli7pyVPHZMwA8FN05QVkD6jCQx
EZZvIMz/nyzigxLt2yYodqdEVSXsyP46EPWF+gQnX91+uFFfljayfgs2zXvzyVej
Hl9ya6v/nPg6df29jwaX2REqDeVV/uC4j9ZL6WUm/N5TNpfX11ywefg7mAkef158
JXfI2kXMoTiTCJ1N16jfNheuLeuLylW6JAhdMtTjV7+tUczMzOecifTnHqb8FDqV
Ye8B/mVQovWvBzsVAEiWbgA7MpfM/o/o/5H/MAUywc4ISfGhhYo7FyQimfJMynlu
P5m4RmHi0APcfNlbLgtqsru6ynnvU5aJed2IPU1bTv4=
-----END CERTIFICATE-----
