Certificate:
    Data:
        Version: 3 (0x2)
        Serial Number: 11231 (0x2bdf)
    Signature Algorithm: sha256WithRSAEncryption
        Issuer: C=US, ST=OH, L=Columbus, O=VikingVPN, OU=MyOrganizationalUnit, CN=VikingVPN CA/name=EasyRSA/emailAddress=me@myhost.mydomain
        Validity
            Not Before: Jul  5 04:35:19 2017 GMT
            Not After : Jul  3 04:35:19 2027 GMT
        Subject: CN=Client2821Certec7167
        Subject Public Key Info:
            Public Key Algorithm: rsaEncryption
                Public-Key: (4096 bit)
                Modulus:
                    00:a4:bd:9c:8f:b7:32:02:4d:50:65:53:16:52:f4:
                    56:54:fd:8c:e7:fd:f9:b0:4a:d4:46:79:b0:83:e0:
                    40:9c:cb:8e:0a:4b:9f:0a:e4:58:6d:b7:5b:e3:28:
                    7d:41:46:d3:24:b2:eb:62:c9:49:80:aa:a0:d0:61:
                    4f:fc:c2:d4:23:fa:f9:61:80:f8:9f:57:bb:2f:2c:
                    f2:42:53:2b:ce:0c:a5:66:aa:71:f6:f7:5e:97:50:
                    83:95:d9:a7:6d:ca:60:37:8b:71:49:4f:f5:61:16:
                    07:a8:3d:ec:fe:a6:b0:77:0e:c7:3b:8c:a7:91:d4:
                    13:ce:2e:7e:79:f3:39:1c:90:7a:d9:68:14:06:ec:
                    f5:c8:14:4c:1d:f5:ac:66:7b:73:37:a2:ac:ce:8a:
                    70:4a:6e:9d:aa:11:b1:6b:4a:54:07:77:e2:03:97:
                    52:7f:9b:7a:1e:c8:f2:9b:5e:6d:14:4d:39:cf:0c:
                    32:2a:a5:79:b0:28:ca:e1:e6:53:00:09:c9:63:d7:
                    aa:b2:e0:20:7f:9f:59:50:9b:af:d1:3a:57:cc:37:
                    c5:01:30:05:cd:ec:5f:1e:5b:12:2b:0e:02:5c:6b:
                    08:c2:1b:ff:71:04:67:fa:7d:8c:5a:80:0d:09:86:
                    8f:4d:5b:33:d4:33:d8:c3:c3:01:d0:7c:59:ba:93:
                    0d:0c:5a:14:be:ba:94:bd:a9:75:3f:6e:6e:e5:7f:
                    99:ba:50:e6:5c:70:5d:3d:28:00:d6:be:00:3f:e3:
                    d6:5d:20:d1:23:57:fd:26:93:59:d7:d8:35:d0:3a:
                    70:11:c4:e4:ea:5d:fc:fb:ef:0c:26:03:1c:ea:b5:
                    fd:f8:e3:39:2d:54:16:1a:1a:7c:f5:d3:0a:0b:a2:
                    43:b7:dd:b0:34:de:e6:8e:de:72:0b:5a:87:99:10:
                    23:33:d6:c6:4e:d1:ff:21:c3:22:59:1f:2d:ab:bb:
                    f5:49:ec:4f:e1:68:f5:0d:c6:2f:a4:ec:18:7d:7b:
                    01:04:c3:42:f0:dd:c8:3e:67:60:79:1f:01:62:df:
                    e1:20:60:c5:47:bd:36:f2:84:dc:e5:4c:d1:43:10:
                    f5:ce:eb:fb:07:55:16:26:86:0e:8b:ff:17:05:79:
                    ea:03:8b:0a:49:57:83:71:14:29:f4:3b:24:91:2f:
                    14:44:cc:fe:31:56:a3:00:b4:43:2c:ce:04:e4:68:
                    3c:68:0b:51:cb:81:c6:a3:8e:52:f7:5d:1d:81:45:
                    14:64:01:8d:f9:ee:95:9e:ea:4e:b5:96:c3:c4:0e:
                    6e:c1:8b:dd:49:22:49:8c:e8:07:a7:a3:d4:94:1a:
                    46:f5:e2:2f:e6:ca:a6:6f:ad:5c:f7:22:de:e9:ba:
                    56:54:2d
                Exponent: 65537 (0x10001)
        X509v3 extensions:
            X509v3 Basic Constraints: 
                CA:FALSE
            Netscape Comment: 
                Easy-RSA Generated Certificate
            X509v3 Subject Key Identifier: 
                1F:E0:14:31:D2:3C:C8:3F:AA:FE:51:F9:A7:E2:80:3C:F3:C8:43:0C
            X509v3 Authority Key Identifier: 
                keyid:12:CD:60:04:D2:A0:80:9E:70:ED:C6:99:B8:7B:2C:C6:52:FD:19:A1
                DirName:/C=US/ST=OH/L=Columbus/O=VikingVPN/OU=MyOrganizationalUnit/CN=VikingVPN CA/name=EasyRSA/emailAddress=me@myhost.mydomain
                serial:CF:35:85:EE:80:BF:2A:3E

            X509v3 Extended Key Usage: 
                TLS Web Client Authentication
            X509v3 Key Usage: 
                Digital Signature
    Signature Algorithm: sha256WithRSAEncryption
         b2:eb:d9:bd:4d:0f:87:10:b0:06:b1:44:7a:31:2e:0d:94:c8:
         00:fa:71:58:d2:fb:43:5d:6d:1d:84:58:37:99:3c:64:a9:42:
         c3:0e:06:80:82:aa:18:a4:f8:ab:bd:bd:fd:67:49:f9:a0:97:
         91:f7:41:19:91:52:89:e0:5a:d6:73:aa:3d:ef:5d:de:87:5d:
         5b:99:cf:68:c8:f6:4f:5d:fe:10:20:f8:57:4a:80:90:9e:a9:
         76:24:27:b0:65:ab:1b:75:71:4e:db:df:2d:de:32:45:a9:94:
         93:72:f5:9b:50:06:e3:80:d8:2c:d7:a6:65:41:bc:9c:29:59:
         0a:3f:ff:19:a1:72:48:30:ba:b1:88:44:a0:00:fb:52:80:22:
         ff:bf:fb:38:ec:33:67:19:52:a4:f3:f3:97:68:50:1c:7b:ee:
         e7:5b:5f:ca:03:f3:8c:98:03:59:b1:59:19:0a:75:4c:94:08:
         26:60:c4:1c:66:e2:58:46:4a:83:e1:bf:4a:d8:10:90:ac:aa:
         94:dd:6d:bf:fb:49:fe:fc:2e:ed:70:18:bd:40:9d:b4:7c:2f:
         73:42:33:69:0b:74:f5:6f:68:55:d3:29:58:05:cc:eb:f2:cf:
         09:6a:70:97:44:e1:38:3b:62:14:0b:06:3d:3e:b5:41:66:9a:
         5c:8b:76:b7:c2:9d:dc:b4:38:5c:a4:b2:13:1f:88:2e:02:ac:
         cd:e2:33:7a:98:15:d7:50:36:93:55:81:48:c9:98:9f:7e:40:
         b6:c2:ac:96:e1:21:9d:8a:32:a1:ed:41:06:c4:27:a6:b2:ca:
         6b:9a:ca:3d:1d:df:1c:34:96:7e:46:5e:cc:83:84:e9:45:1c:
         ac:dd:91:ff:ad:5e:72:ee:d0:d2:e7:a9:db:48:78:71:5a:0c:
         f3:0b:96:ca:ad:bc:c4:8f:32:83:9c:ab:a1:55:04:f5:5a:5f:
         1b:66:18:07:de:cf:08:5e:85:d9:fb:2a:90:14:0f:e7:26:6a:
         7d:3a:09:1b:a4:9c:c0:13:ed:ec:ea:d8:4d:c7:e5:03:a7:5a:
         c0:d9:37:46:27:c9:f8:cb:02:44:a7:ca:1e:ce:61:62:00:ff:
         e6:12:76:4f:71:4d:52:2c:15:df:51:e9:08:e9:8a:4b:76:88:
         58:d8:69:b9:6b:39:25:ba:67:ff:ed:1f:e5:c0:52:71:a1:e4:
         1b:ec:92:db:59:04:28:8b:95:ba:f3:86:b7:f9:6a:21:dc:21:
         2d:2f:8c:c6:cf:1e:14:18:5a:17:eb:5e:c0:7f:07:4c:94:b2:
         7c:6b:b9:30:d5:43:cc:26:52:e4:5c:6e:7f:e2:5c:5d:79:94:
         8f:e6:5d:f7:2a:96:1f:f2
-----BEGIN CERTIFICATE-----
MIIGrTCCBJWgAwIBAgICK98wDQYJKoZIhvcNAQELBQAwgawxCzAJBgNVBAYTAlVT
MQswCQYDVQQIEwJPSDERMA8GA1UEBxMIQ29sdW1idXMxEjAQBgNVBAoTCVZpa2lu
Z1ZQTjEdMBsGA1UECxMUTXlPcmdhbml6YXRpb25hbFVuaXQxFTATBgNVBAMTDFZp
a2luZ1ZQTiBDQTEQMA4GA1UEKRMHRWFzeVJTQTEhMB8GCSqGSIb3DQEJARYSbWVA
bXlob3N0Lm15ZG9tYWluMB4XDTE3MDcwNTA0MzUxOVoXDTI3MDcwMzA0MzUxOVow
HzEdMBsGA1UEAxMUQ2xpZW50MjgyMUNlcnRlYzcxNjcwggIiMA0GCSqGSIb3DQEB
AQUAA4ICDwAwggIKAoICAQCkvZyPtzICTVBlUxZS9FZU/Yzn/fmwStRGebCD4ECc
y44KS58K5Fhtt1vjKH1BRtMksutiyUmAqqDQYU/8wtQj+vlhgPifV7svLPJCUyvO
DKVmqnH2916XUIOV2adtymA3i3FJT/VhFgeoPez+prB3Dsc7jKeR1BPOLn558zkc
kHrZaBQG7PXIFEwd9axme3M3oqzOinBKbp2qEbFrSlQHd+IDl1J/m3oeyPKbXm0U
TTnPDDIqpXmwKMrh5lMACclj16qy4CB/n1lQm6/ROlfMN8UBMAXN7F8eWxIrDgJc
awjCG/9xBGf6fYxagA0Jho9NWzPUM9jDwwHQfFm6kw0MWhS+upS9qXU/bm7lf5m6
UOZccF09KADWvgA/49ZdINEjV/0mk1nX2DXQOnARxOTqXfz77wwmAxzqtf344zkt
VBYaGnz10woLokO33bA03uaO3nILWoeZECMz1sZO0f8hwyJZHy2ru/VJ7E/haPUN
xi+k7Bh9ewEEw0Lw3cg+Z2B5HwFi3+EgYMVHvTbyhNzlTNFDEPXO6/sHVRYmhg6L
/xcFeeoDiwpJV4NxFCn0OySRLxREzP4xVqMAtEMszgTkaDxoC1HLgcajjlL3XR2B
RRRkAY357pWe6k61lsPEDm7Bi91JIkmM6Aeno9SUGkb14i/myqZvrVz3It7pulZU
LQIDAQABo4IBYzCCAV8wCQYDVR0TBAIwADAtBglghkgBhvhCAQ0EIBYeRWFzeS1S
U0EgR2VuZXJhdGVkIENlcnRpZmljYXRlMB0GA1UdDgQWBBQf4BQx0jzIP6r+Ufmn
4oA888hDDDCB4QYDVR0jBIHZMIHWgBQSzWAE0qCAnnDtxpm4eyzGUv0ZoaGBsqSB
rzCBrDELMAkGA1UEBhMCVVMxCzAJBgNVBAgTAk9IMREwDwYDVQQHEwhDb2x1bWJ1
czESMBAGA1UEChMJVmlraW5nVlBOMR0wGwYDVQQLExRNeU9yZ2FuaXphdGlvbmFs
VW5pdDEVMBMGA1UEAxMMVmlraW5nVlBOIENBMRAwDgYDVQQpEwdFYXN5UlNBMSEw
HwYJKoZIhvcNAQkBFhJtZUBteWhvc3QubXlkb21haW6CCQDPNYXugL8qPjATBgNV
HSUEDDAKBggrBgEFBQcDAjALBgNVHQ8EBAMCB4AwDQYJKoZIhvcNAQELBQADggIB
ALLr2b1ND4cQsAaxRHoxLg2UyAD6cVjS+0NdbR2EWDeZPGSpQsMOBoCCqhik+Ku9
vf1nSfmgl5H3QRmRUongWtZzqj3vXd6HXVuZz2jI9k9d/hAg+FdKgJCeqXYkJ7Bl
qxt1cU7b3y3eMkWplJNy9ZtQBuOA2CzXpmVBvJwpWQo//xmhckgwurGIRKAA+1KA
Iv+/+zjsM2cZUqTz85doUBx77udbX8oD84yYA1mxWRkKdUyUCCZgxBxm4lhGSoPh
v0rYEJCsqpTdbb/7Sf78Lu1wGL1AnbR8L3NCM2kLdPVvaFXTKVgFzOvyzwlqcJdE
4Tg7YhQLBj0+tUFmmlyLdrfCndy0OFykshMfiC4CrM3iM3qYFddQNpNVgUjJmJ9+
QLbCrJbhIZ2KMqHtQQbEJ6ayymuayj0d3xw0ln5GXsyDhOlFHKzdkf+tXnLu0NLn
qdtIeHFaDPMLlsqtvMSPMoOcq6FVBPVaXxtmGAfezwhehdn7KpAUD+cman06CRuk
nMAT7ezq2E3H5QOnWsDZN0YnyfjLAkSnyh7OYWIA/+YSdk9xTVIsFd9R6Qjpikt2
iFjYablrOSW6Z//tH+XAUnGh5BvskttZBCiLlbrzhrf5aiHcIS0vjMbPHhQYWhfr
XsB/B0yUsnxruTDVQ8wmUuRcbn/iXF15lI/mXfcqlh/y
-----END CERTIFICATE-----
