Certificate:
    Data:
        Version: 3 (0x2)
        Serial Number: 9552 (0x2550)
    Signature Algorithm: sha256WithRSAEncryption
        Issuer: C=US, ST=OH, L=Columbus, O=VikingVPN, OU=MyOrganizationalUnit, CN=VikingVPN CA/name=EasyRSA/emailAddress=me@myhost.mydomain
        Validity
            Not Before: Nov 26 17:05:27 2016 GMT
            Not After : Nov 24 17:05:27 2026 GMT
        Subject: CN=Client2606Cert392f14
        Subject Public Key Info:
            Public Key Algorithm: rsaEncryption
                Public-Key: (4096 bit)
                Modulus:
                    00:c4:bc:e1:95:37:88:3a:a1:bb:27:34:97:70:6a:
                    a1:a5:64:a7:94:c4:48:e7:5f:21:7c:8e:4f:b0:d2:
                    e3:ba:c7:fc:93:97:50:e3:cd:10:cf:29:7a:20:3f:
                    5f:af:b5:c4:e7:cc:94:27:7d:16:96:1e:f8:5f:24:
                    ce:a4:54:0e:5d:f7:61:0d:d5:8c:0c:c4:57:60:51:
                    d1:85:6e:5b:ea:72:d0:87:be:e3:bb:b7:86:03:b1:
                    4a:81:4f:85:78:ef:76:98:f3:0e:b6:4b:9d:82:06:
                    66:44:5f:2c:11:1f:05:5e:fd:e6:17:af:c3:9a:24:
                    f0:1f:48:f2:dd:01:16:e7:2c:af:28:63:99:0a:37:
                    13:2d:da:f9:dd:59:eb:b2:16:54:15:ca:d0:53:cc:
                    b7:64:ea:8e:ac:8b:12:5b:24:76:6e:74:c2:ad:50:
                    2b:61:93:a4:c8:5c:a6:f4:e3:3e:26:30:97:ab:cd:
                    c9:c3:19:c8:f9:f5:1c:32:78:a3:16:52:e6:f6:20:
                    e0:90:71:19:17:d4:08:12:1a:46:10:12:97:e5:09:
                    e1:36:f4:2d:a4:4b:4f:e1:d0:cc:64:89:f1:d8:d4:
                    4b:5f:b9:ba:2b:d3:be:45:b9:c9:ad:5a:0c:8e:a7:
                    1f:92:c4:76:7e:a6:38:cf:15:b6:16:a9:55:ac:6b:
                    ab:2f:e4:b7:49:87:ed:d0:e2:69:18:9a:22:7e:87:
                    94:f6:ec:3f:d3:9b:4b:8d:ab:27:60:6d:8e:b5:41:
                    7c:3e:8b:23:3f:f1:ed:60:d3:e4:0e:21:5f:30:33:
                    ec:26:ad:6c:f5:4b:ac:1d:71:26:c1:61:c7:ef:ac:
                    02:0a:0e:57:4c:05:77:c8:1f:90:0f:10:df:c5:e6:
                    25:7f:b7:08:b8:45:49:d0:aa:cb:0c:e9:30:7a:fd:
                    94:cb:f0:05:0d:97:a2:7e:e2:88:a2:d6:35:c1:77:
                    cd:81:f4:ab:37:b1:c8:46:94:a2:c4:8c:d4:09:44:
                    ed:21:77:53:18:e1:4b:57:b4:70:44:0d:68:d3:de:
                    2f:c7:11:09:3b:fd:dc:a8:aa:1d:7a:20:f9:ff:5d:
                    0d:a1:da:41:ad:b3:ab:a6:05:8d:6c:d8:9e:a0:bf:
                    0d:70:22:e4:a1:d8:dd:52:2a:4e:35:72:7d:d3:c5:
                    91:8b:98:20:b3:61:5c:08:10:ba:1a:b3:60:6e:38:
                    ff:dd:54:76:ee:22:a0:7b:98:7c:d7:8b:43:e1:7c:
                    83:b7:48:1f:12:42:f4:ad:a2:67:53:57:7f:6a:4f:
                    d6:67:90:d3:42:cf:6a:7e:5e:6a:18:fc:b0:d6:b9:
                    fa:fc:d1:8c:7f:c3:85:06:f7:74:be:5b:58:ff:78:
                    74:03:5d
                Exponent: 65537 (0x10001)
        X509v3 extensions:
            X509v3 Basic Constraints: 
                CA:FALSE
            Netscape Comment: 
                Easy-RSA Generated Certificate
            X509v3 Subject Key Identifier: 
                51:39:90:7C:66:30:4D:E7:D4:8A:E2:AB:21:C8:B6:A6:41:9D:93:0E
            X509v3 Authority Key Identifier: 
                keyid:12:CD:60:04:D2:A0:80:9E:70:ED:C6:99:B8:7B:2C:C6:52:FD:19:A1
                DirName:/C=US/ST=OH/L=Columbus/O=VikingVPN/OU=MyOrganizationalUnit/CN=VikingVPN CA/name=EasyRSA/emailAddress=me@myhost.mydomain
                serial:CF:35:85:EE:80:BF:2A:3E

            X509v3 Extended Key Usage: 
                TLS Web Client Authentication
            X509v3 Key Usage: 
                Digital Signature
    Signature Algorithm: sha256WithRSAEncryption
         71:69:1d:9a:22:e4:1c:b1:ad:90:ed:47:65:19:64:a4:1c:31:
         72:02:73:0b:ab:54:03:e3:af:19:8b:e9:99:5c:2b:17:ba:a7:
         3b:8d:c9:cf:75:27:7d:f0:cc:b4:5a:60:8f:e4:68:31:b5:e6:
         b2:d2:d8:e3:9b:67:7e:78:67:89:0e:4a:12:f5:fa:22:ac:82:
         21:df:16:ec:b0:60:d7:67:37:a4:e6:4f:3c:7c:3b:55:73:d0:
         9f:7a:aa:08:af:76:0e:5c:99:af:0d:6b:d6:7e:20:96:4c:70:
         81:25:af:e4:11:99:35:91:be:d3:6a:4b:01:7e:00:56:25:ab:
         3b:2c:a2:76:2a:5b:76:49:45:79:78:31:9e:f2:28:26:27:c2:
         c7:c3:ab:bb:f1:f4:13:3e:bb:f4:bd:d9:1f:cc:50:ef:db:9c:
         20:c9:d8:4f:51:9d:89:1a:44:32:84:86:7a:54:41:a0:2b:de:
         a1:f3:b8:34:7f:de:5f:8a:78:c5:a2:69:47:86:13:3f:3e:12:
         2c:ad:35:0e:f9:0a:f2:ae:70:62:e9:d4:18:78:6d:bb:5f:78:
         6c:2d:71:68:69:47:ef:02:f2:57:1f:97:d0:0e:0f:2d:61:63:
         3e:25:5a:b7:a0:a0:2d:45:5b:a9:6a:e3:b4:8e:d7:f4:9f:5b:
         df:c4:06:83:a8:21:fd:4a:27:b6:e3:b6:24:44:10:b8:5b:bb:
         94:83:f5:74:01:d3:97:bb:8f:ec:69:bf:2d:59:79:5f:08:f0:
         a0:d0:28:b7:8f:eb:35:41:48:88:f5:4c:4e:60:89:1e:99:1f:
         61:8d:54:43:e8:96:e0:dc:24:89:78:12:71:96:d6:a5:c9:15:
         d7:25:81:8c:41:36:61:6c:ea:4a:48:48:95:9b:bf:d0:0f:4b:
         74:4c:5e:57:89:cc:8a:55:2e:89:f7:33:34:70:9b:62:fe:1e:
         89:83:87:44:69:31:5d:0d:ab:3d:17:15:c5:de:53:aa:d0:00:
         78:c7:ce:39:1c:ff:70:d6:a1:ce:ea:d3:cd:36:f2:eb:8f:b9:
         8c:19:db:cf:20:78:16:f5:30:11:97:11:be:fe:ad:f6:23:50:
         e3:90:c9:b2:f7:dd:1b:4e:71:0a:78:b9:47:27:20:f1:92:bd:
         1a:b1:93:29:00:7a:5f:90:1a:70:bd:25:db:77:43:ca:8a:8a:
         cd:80:e4:0d:cd:bf:d4:4a:96:ea:4d:78:4a:0c:59:2d:dd:29:
         62:ef:e3:a0:2d:72:a1:2e:bb:64:80:e3:62:49:6d:46:9b:cb:
         17:e6:cf:5f:3e:96:e1:5f:8a:eb:e4:a3:9b:35:27:53:52:5a:
         e6:11:23:5a:bf:0e:a0:8d
-----BEGIN CERTIFICATE-----
MIIGrTCCBJWgAwIBAgICJVAwDQYJKoZIhvcNAQELBQAwgawxCzAJBgNVBAYTAlVT
MQswCQYDVQQIEwJPSDERMA8GA1UEBxMIQ29sdW1idXMxEjAQBgNVBAoTCVZpa2lu
Z1ZQTjEdMBsGA1UECxMUTXlPcmdhbml6YXRpb25hbFVuaXQxFTATBgNVBAMTDFZp
a2luZ1ZQTiBDQTEQMA4GA1UEKRMHRWFzeVJTQTEhMB8GCSqGSIb3DQEJARYSbWVA
bXlob3N0Lm15ZG9tYWluMB4XDTE2MTEyNjE3MDUyN1oXDTI2MTEyNDE3MDUyN1ow
HzEdMBsGA1UEAxMUQ2xpZW50MjYwNkNlcnQzOTJmMTQwggIiMA0GCSqGSIb3DQEB
AQUAA4ICDwAwggIKAoICAQDEvOGVN4g6obsnNJdwaqGlZKeUxEjnXyF8jk+w0uO6
x/yTl1DjzRDPKXogP1+vtcTnzJQnfRaWHvhfJM6kVA5d92EN1YwMxFdgUdGFblvq
ctCHvuO7t4YDsUqBT4V473aY8w62S52CBmZEXywRHwVe/eYXr8OaJPAfSPLdARbn
LK8oY5kKNxMt2vndWeuyFlQVytBTzLdk6o6sixJbJHZudMKtUCthk6TIXKb04z4m
MJerzcnDGcj59RwyeKMWUub2IOCQcRkX1AgSGkYQEpflCeE29C2kS0/h0MxkifHY
1Etfubor075FucmtWgyOpx+SxHZ+pjjPFbYWqVWsa6sv5LdJh+3Q4mkYmiJ+h5T2
7D/Tm0uNqydgbY61QXw+iyM/8e1g0+QOIV8wM+wmrWz1S6wdcSbBYcfvrAIKDldM
BXfIH5APEN/F5iV/twi4RUnQqssM6TB6/ZTL8AUNl6J+4oii1jXBd82B9Ks3schG
lKLEjNQJRO0hd1MY4UtXtHBEDWjT3i/HEQk7/dyoqh16IPn/XQ2h2kGts6umBY1s
2J6gvw1wIuSh2N1SKk41cn3TxZGLmCCzYVwIELoas2BuOP/dVHbuIqB7mHzXi0Ph
fIO3SB8SQvStomdTV39qT9ZnkNNCz2p+XmoY/LDWufr80Yx/w4UG93S+W1j/eHQD
XQIDAQABo4IBYzCCAV8wCQYDVR0TBAIwADAtBglghkgBhvhCAQ0EIBYeRWFzeS1S
U0EgR2VuZXJhdGVkIENlcnRpZmljYXRlMB0GA1UdDgQWBBRROZB8ZjBN59SK4qsh
yLamQZ2TDjCB4QYDVR0jBIHZMIHWgBQSzWAE0qCAnnDtxpm4eyzGUv0ZoaGBsqSB
rzCBrDELMAkGA1UEBhMCVVMxCzAJBgNVBAgTAk9IMREwDwYDVQQHEwhDb2x1bWJ1
czESMBAGA1UEChMJVmlraW5nVlBOMR0wGwYDVQQLExRNeU9yZ2FuaXphdGlvbmFs
VW5pdDEVMBMGA1UEAxMMVmlraW5nVlBOIENBMRAwDgYDVQQpEwdFYXN5UlNBMSEw
HwYJKoZIhvcNAQkBFhJtZUBteWhvc3QubXlkb21haW6CCQDPNYXugL8qPjATBgNV
HSUEDDAKBggrBgEFBQcDAjALBgNVHQ8EBAMCB4AwDQYJKoZIhvcNAQELBQADggIB
AHFpHZoi5ByxrZDtR2UZZKQcMXICcwurVAPjrxmL6ZlcKxe6pzuNyc91J33wzLRa
YI/kaDG15rLS2OObZ354Z4kOShL1+iKsgiHfFuywYNdnN6TmTzx8O1Vz0J96qgiv
dg5cma8Na9Z+IJZMcIElr+QRmTWRvtNqSwF+AFYlqzssonYqW3ZJRXl4MZ7yKCYn
wsfDq7vx9BM+u/S92R/MUO/bnCDJ2E9RnYkaRDKEhnpUQaAr3qHzuDR/3l+KeMWi
aUeGEz8+EiytNQ75CvKucGLp1Bh4bbtfeGwtcWhpR+8C8lcfl9AODy1hYz4lWreg
oC1FW6lq47SO1/SfW9/EBoOoIf1KJ7bjtiREELhbu5SD9XQB05e7j+xpvy1ZeV8I
8KDQKLeP6zVBSIj1TE5giR6ZH2GNVEPoluDcJIl4EnGW1qXJFdclgYxBNmFs6kpI
SJWbv9APS3RMXleJzIpVLon3MzRwm2L+HomDh0RpMV0Nqz0XFcXeU6rQAHjHzjkc
/3DWoc7q08028uuPuYwZ288geBb1MBGXEb7+rfYjUOOQybL33RtOcQp4uUcnIPGS
vRqxkykAel+QGnC9Jdt3Q8qKis2A5A3Nv9RKlupNeEoMWS3dKWLv46AtcqEuu2SA
42JJbUabyxfmz18+luFfiuvko5s1J1NSWuYRI1q/DqCN
-----END CERTIFICATE-----
