Certificate:
    Data:
        Version: 3 (0x2)
        Serial Number: 5606 (0x15e6)
    Signature Algorithm: md5WithRSAEncryption
        Issuer: C=US, ST=OH, L=Columbus, O=VikingVPN, OU=MyOrganizationalUnit, CN=VikingVPN CA/name=EasyRSA/emailAddress=me@myhost.mydomain
        Validity
            Not Before: Jun 22 01:27:38 2015 GMT
            Not After : Jun 19 01:27:38 2025 GMT
        Subject: CN=Client1777Cert314855
        Subject Public Key Info:
            Public Key Algorithm: rsaEncryption
                Public-Key: (4096 bit)
                Modulus:
                    00:af:e1:cb:b4:a8:a8:c5:4b:06:8c:37:8e:4e:e9:
                    14:bc:6e:5c:fc:d8:46:6e:75:f4:83:9a:d6:5a:6a:
                    ee:22:2f:ed:b3:e8:cb:50:d1:71:98:98:49:6d:cd:
                    c0:65:03:d3:36:93:75:6a:66:cc:90:73:01:03:34:
                    e5:8e:95:b6:46:5d:5a:f8:1f:b1:44:58:5e:d1:4b:
                    1b:8a:1f:8c:85:9a:ab:76:22:67:31:3d:f7:17:66:
                    b5:79:c7:05:7d:0b:78:cb:7c:0c:7a:cc:1e:4e:59:
                    3b:ef:c7:ae:da:87:2a:ac:b4:0e:27:29:c3:01:9a:
                    fa:fb:b4:48:b7:dd:77:f5:d1:71:68:6e:d2:f5:2d:
                    d2:7a:6d:96:b4:8d:ad:9a:36:3e:0a:22:e9:36:cd:
                    8d:cb:50:87:1e:e6:5a:e9:0e:41:5b:f6:fb:d5:58:
                    6d:5e:c1:2a:ea:86:e2:21:2e:e4:e5:15:df:a2:c3:
                    2a:e6:bf:65:79:cd:80:9d:4d:36:96:96:fe:2f:56:
                    83:cd:34:0c:16:2f:34:c3:d2:f9:83:d6:7f:79:bc:
                    2e:87:a7:80:e0:21:29:ce:d0:19:00:ae:e6:94:f6:
                    2a:99:b6:28:dc:62:ad:a6:b1:ac:ea:65:70:6e:65:
                    98:3f:d1:7c:1a:1b:35:06:3d:91:91:db:31:19:5d:
                    00:26:ef:07:9c:35:26:9b:d5:8a:e4:d5:2e:4d:34:
                    0a:96:1c:4a:49:f6:b8:58:21:7b:5e:6e:9b:67:3a:
                    fb:5d:36:6b:a9:b2:6d:1b:39:f1:b6:48:a7:53:a3:
                    be:e0:42:46:6a:8c:1b:5f:33:3d:4e:9e:60:0d:84:
                    6b:4d:96:57:50:45:7d:8f:c0:3d:46:2e:83:79:f3:
                    8e:1a:c8:4d:15:48:54:5a:e2:3d:08:b7:a9:b9:2c:
                    f7:96:59:66:78:01:db:d7:6a:82:aa:30:97:11:91:
                    31:35:f6:15:c9:f4:77:ce:ef:48:85:1f:62:53:8a:
                    40:4e:50:fb:c4:ee:0f:cb:7d:1c:b9:e4:ea:81:e3:
                    57:a4:ad:4a:0b:92:f5:9c:22:34:34:22:3d:ea:5b:
                    e8:91:86:0a:85:30:00:b2:34:c3:77:d9:45:a3:bf:
                    ae:5f:0e:fa:51:ce:20:4e:83:2e:f8:d9:37:dd:6d:
                    83:0e:84:05:fe:39:34:b3:0b:9f:d1:5e:63:30:e3:
                    e7:d4:10:dc:81:72:66:04:d3:a0:8b:59:3d:08:b5:
                    56:be:40:ff:ee:1c:38:c5:35:13:0e:74:e7:8b:97:
                    02:7b:80:1d:a6:1f:56:ff:8e:42:72:32:9e:45:1a:
                    f3:1f:5b:d0:3d:71:f5:28:c1:eb:13:60:89:6e:12:
                    d2:5b:2b
                Exponent: 65537 (0x10001)
        X509v3 extensions:
            X509v3 Basic Constraints: 
                CA:FALSE
            Netscape Comment: 
                Easy-RSA Generated Certificate
            X509v3 Subject Key Identifier: 
                DD:8B:0B:0C:12:FC:D2:64:DE:03:43:0E:C8:E5:E4:3C:A2:74:ED:B2
            X509v3 Authority Key Identifier: 
                keyid:12:CD:60:04:D2:A0:80:9E:70:ED:C6:99:B8:7B:2C:C6:52:FD:19:A1
                DirName:/C=US/ST=OH/L=Columbus/O=VikingVPN/OU=MyOrganizationalUnit/CN=VikingVPN CA/name=EasyRSA/emailAddress=me@myhost.mydomain
                serial:CF:35:85:EE:80:BF:2A:3E

            X509v3 Extended Key Usage: 
                TLS Web Client Authentication
            X509v3 Key Usage: 
                Digital Signature
    Signature Algorithm: md5WithRSAEncryption
         5d:1c:fd:bc:6b:3d:6e:40:2e:d4:fc:36:16:d0:cd:ae:45:50:
         70:c0:7a:3c:cf:fd:46:60:e9:da:cd:9e:d7:10:68:b7:21:32:
         be:e2:e6:79:3d:6d:3d:e6:6d:4b:b6:a5:4d:a1:ea:98:73:41:
         30:46:69:7a:62:c3:69:14:a3:17:95:48:ed:9c:76:b4:e1:f0:
         67:18:9f:eb:e8:72:08:40:b8:97:64:ae:d8:b9:97:33:87:e9:
         32:e7:9f:53:7a:a5:96:53:92:75:ab:85:1a:4f:c3:58:ba:3f:
         29:d2:41:74:85:76:18:54:3e:74:b3:46:5b:21:1d:98:1d:2c:
         96:63:ce:50:2c:1a:29:88:67:e1:03:29:b2:14:ad:fa:3a:84:
         6f:14:93:66:c6:76:ac:37:22:7d:8d:ba:71:49:4b:01:53:a7:
         37:2a:9f:1d:a0:83:ef:1b:29:88:76:67:d5:42:28:8a:ce:60:
         96:a6:dc:5c:ce:e6:8a:1f:53:ed:e9:72:78:eb:41:ed:13:66:
         e1:c0:44:5a:a7:f0:98:23:e1:2b:14:dc:88:5c:5c:c5:59:29:
         29:38:6c:af:ca:c5:5f:e4:88:b4:64:90:e2:22:07:d0:b4:28:
         40:cd:68:9e:69:55:eb:26:93:27:91:d3:a6:b4:26:69:4b:5e:
         0a:ee:78:15:34:9d:2e:af:86:49:c8:59:96:f0:27:46:e9:2d:
         6d:8a:08:0c:72:73:ee:3e:48:07:86:99:26:09:8c:9e:1b:fa:
         1b:82:17:77:ea:d0:be:97:db:6b:2b:0e:74:44:9b:08:8e:d2:
         f8:6d:32:c9:60:53:14:77:fb:4c:b2:77:1c:e4:e5:6d:38:bc:
         da:84:9d:66:af:c1:e0:af:f9:79:cb:1f:d1:9f:e1:dd:9c:dc:
         18:c3:2c:31:ff:11:ba:3b:33:29:92:ae:6c:d6:a5:9e:6c:44:
         b9:72:61:31:d1:e8:ed:c0:bf:30:89:ff:36:10:37:7f:26:7e:
         e8:e5:26:53:13:62:e3:c4:6d:84:ad:39:0b:0d:a3:b4:b2:dd:
         93:16:db:62:e6:55:cb:19:5d:03:f7:0e:9c:3e:4b:46:06:09:
         50:c7:b9:79:19:94:d7:1f:98:d5:59:46:44:86:ca:83:04:9f:
         cf:f2:d9:bb:a7:a3:09:58:28:a4:ff:58:ee:05:03:6c:92:92:
         14:84:52:ab:3c:75:08:59:ec:3d:8d:dd:01:a9:ad:1d:d3:47:
         56:92:75:e5:fd:7d:2a:0c:10:a9:3e:b8:72:91:09:3c:34:7a:
         1a:f5:b6:7d:da:d5:7e:7b:73:0d:fe:f9:bf:46:02:8a:06:14:
         ae:21:a7:49:5f:4f:c3:5a
-----BEGIN CERTIFICATE-----
MIIGrTCCBJWgAwIBAgICFeYwDQYJKoZIhvcNAQEEBQAwgawxCzAJBgNVBAYTAlVT
MQswCQYDVQQIEwJPSDERMA8GA1UEBxMIQ29sdW1idXMxEjAQBgNVBAoTCVZpa2lu
Z1ZQTjEdMBsGA1UECxMUTXlPcmdhbml6YXRpb25hbFVuaXQxFTATBgNVBAMTDFZp
a2luZ1ZQTiBDQTEQMA4GA1UEKRMHRWFzeVJTQTEhMB8GCSqGSIb3DQEJARYSbWVA
bXlob3N0Lm15ZG9tYWluMB4XDTE1MDYyMjAxMjczOFoXDTI1MDYxOTAxMjczOFow
HzEdMBsGA1UEAxMUQ2xpZW50MTc3N0NlcnQzMTQ4NTUwggIiMA0GCSqGSIb3DQEB
AQUAA4ICDwAwggIKAoICAQCv4cu0qKjFSwaMN45O6RS8blz82EZudfSDmtZaau4i
L+2z6MtQ0XGYmEltzcBlA9M2k3VqZsyQcwEDNOWOlbZGXVr4H7FEWF7RSxuKH4yF
mqt2ImcxPfcXZrV5xwV9C3jLfAx6zB5OWTvvx67ahyqstA4nKcMBmvr7tEi33Xf1
0XFobtL1LdJ6bZa0ja2aNj4KIuk2zY3LUIce5lrpDkFb9vvVWG1ewSrqhuIhLuTl
Fd+iwyrmv2V5zYCdTTaWlv4vVoPNNAwWLzTD0vmD1n95vC6Hp4DgISnO0BkAruaU
9iqZtijcYq2msazqZXBuZZg/0XwaGzUGPZGR2zEZXQAm7wecNSab1Yrk1S5NNAqW
HEpJ9rhYIXtebptnOvtdNmupsm0bOfG2SKdTo77gQkZqjBtfMz1OnmANhGtNlldQ
RX2PwD1GLoN5844ayE0VSFRa4j0It6m5LPeWWWZ4AdvXaoKqMJcRkTE19hXJ9HfO
70iFH2JTikBOUPvE7g/LfRy55OqB41ekrUoLkvWcIjQ0Ij3qW+iRhgqFMACyNMN3
2UWjv65fDvpRziBOgy742TfdbYMOhAX+OTSzC5/RXmMw4+fUENyBcmYE06CLWT0I
tVa+QP/uHDjFNRMOdOeLlwJ7gB2mH1b/jkJyMp5FGvMfW9A9cfUowesTYIluEtJb
KwIDAQABo4IBYzCCAV8wCQYDVR0TBAIwADAtBglghkgBhvhCAQ0EIBYeRWFzeS1S
U0EgR2VuZXJhdGVkIENlcnRpZmljYXRlMB0GA1UdDgQWBBTdiwsMEvzSZN4DQw7I
5eQ8onTtsjCB4QYDVR0jBIHZMIHWgBQSzWAE0qCAnnDtxpm4eyzGUv0ZoaGBsqSB
rzCBrDELMAkGA1UEBhMCVVMxCzAJBgNVBAgTAk9IMREwDwYDVQQHEwhDb2x1bWJ1
czESMBAGA1UEChMJVmlraW5nVlBOMR0wGwYDVQQLExRNeU9yZ2FuaXphdGlvbmFs
VW5pdDEVMBMGA1UEAxMMVmlraW5nVlBOIENBMRAwDgYDVQQpEwdFYXN5UlNBMSEw
HwYJKoZIhvcNAQkBFhJtZUBteWhvc3QubXlkb21haW6CCQDPNYXugL8qPjATBgNV
HSUEDDAKBggrBgEFBQcDAjALBgNVHQ8EBAMCB4AwDQYJKoZIhvcNAQEEBQADggIB
AF0c/bxrPW5ALtT8NhbQza5FUHDAejzP/UZg6drNntcQaLchMr7i5nk9bT3mbUu2
pU2h6phzQTBGaXpiw2kUoxeVSO2cdrTh8GcYn+vocghAuJdkrti5lzOH6TLnn1N6
pZZTknWrhRpPw1i6PynSQXSFdhhUPnSzRlshHZgdLJZjzlAsGimIZ+EDKbIUrfo6
hG8Uk2bGdqw3In2NunFJSwFTpzcqnx2gg+8bKYh2Z9VCKIrOYJam3FzO5oofU+3p
cnjrQe0TZuHARFqn8Jgj4SsU3IhcXMVZKSk4bK/KxV/kiLRkkOIiB9C0KEDNaJ5p
VesmkyeR06a0JmlLXgrueBU0nS6vhknIWZbwJ0bpLW2KCAxyc+4+SAeGmSYJjJ4b
+huCF3fq0L6X22srDnREmwiO0vhtMslgUxR3+0yydxzk5W04vNqEnWavweCv+XnL
H9Gf4d2c3BjDLDH/Ebo7MymSrmzWpZ5sRLlyYTHR6O3AvzCJ/zYQN38mfujlJlMT
YuPEbYStOQsNo7Sy3ZMW22LmVcsZXQP3Dpw+S0YGCVDHuXkZlNcfmNVZRkSGyoME
n8/y2bunowlYKKT/WO4FA2ySkhSEUqs8dQhZ7D2N3QGprR3TR1aSdeX9fSoMEKk+
uHKRCTw0ehr1tn3a1X57cw3++b9GAooGFK4hp0lfT8Na
-----END CERTIFICATE-----
