Certificate:
    Data:
        Version: 3 (0x2)
        Serial Number: 12898 (0x3262)
    Signature Algorithm: sha256WithRSAEncryption
        Issuer: C=US, ST=OH, L=Columbus, O=VikingVPN, OU=MyOrganizationalUnit, CN=VikingVPN CA/name=EasyRSA/emailAddress=me@myhost.mydomain
        Validity
            Not Before: Apr  3 18:35:17 2018 GMT
            Not After : Mar 31 18:35:17 2028 GMT
        Subject: CN=Client3272Cert1d360c
        Subject Public Key Info:
            Public Key Algorithm: rsaEncryption
                Public-Key: (4096 bit)
                Modulus:
                    00:bc:48:54:da:de:7d:f3:10:5c:33:b6:69:c4:a6:
                    75:d8:fd:56:9a:b7:bc:04:7a:07:14:ff:5a:29:29:
                    8b:8c:87:13:b7:ef:a7:eb:cf:2a:ca:db:b3:11:f2:
                    80:cd:99:06:ad:7c:b8:45:97:21:84:5f:51:a9:8c:
                    24:ac:7b:23:f6:eb:8d:88:c1:b7:e5:62:86:43:ea:
                    9c:58:04:0a:6b:81:80:f8:0f:3d:17:ad:98:44:2e:
                    25:2c:b5:09:2a:9f:a3:be:0b:a3:ee:5b:4d:d6:a8:
                    d4:f5:2e:ab:ee:19:eb:23:e4:59:b2:4c:48:1c:88:
                    62:71:40:24:ef:a2:cb:70:95:18:f6:91:91:d7:9f:
                    d3:fd:1f:b3:00:b6:07:7a:32:d6:a6:77:a4:ad:29:
                    75:27:6c:1d:9e:55:b0:b0:85:89:30:1a:99:2e:8a:
                    85:ea:7c:58:58:f4:52:0b:54:72:44:68:24:15:d4:
                    0f:24:45:1b:ad:3b:de:6c:8b:db:1f:9d:9b:70:1f:
                    71:ca:f9:85:d8:d5:8f:6b:bb:ea:41:c3:96:ae:6f:
                    04:4b:3a:6d:84:7b:7a:af:36:d9:bf:d4:19:5b:9e:
                    52:c5:8b:f1:83:7f:f7:72:ba:a2:58:88:7b:18:db:
                    59:dd:ae:f6:2a:20:3b:c5:20:c5:03:71:da:36:54:
                    d6:9c:2f:c3:0b:86:2e:d6:c1:0a:c9:3b:18:d2:f0:
                    7f:a5:4d:b4:60:ac:65:0d:49:1c:34:d3:3d:e3:d9:
                    25:53:74:eb:85:10:2e:8f:cd:98:92:be:a1:0e:d1:
                    d7:9c:49:1b:24:97:d8:85:0c:e4:6a:91:22:9c:ec:
                    c4:b6:fc:e0:7e:92:7f:79:5e:cd:c0:04:15:1e:60:
                    e7:96:1a:97:44:75:d6:2a:77:4f:eb:72:1f:51:05:
                    c0:a3:c0:df:eb:83:33:35:49:d7:e0:8d:2d:47:d0:
                    c8:d5:86:aa:17:59:f3:14:8c:a6:b5:a5:b2:1b:dd:
                    6a:da:87:49:45:c8:44:f2:10:4e:cf:25:78:8b:d4:
                    e1:bb:50:6c:6e:d8:e9:ef:af:90:0e:fa:68:fd:35:
                    ff:57:56:a6:55:df:0b:a2:f9:08:68:f9:26:de:62:
                    25:ff:4d:55:ca:55:8e:df:8e:46:08:f3:a4:d6:7e:
                    fd:fe:46:bf:df:1f:d8:eb:1a:c9:c7:b0:39:1d:f9:
                    74:a7:da:f9:7d:4d:e0:1d:73:d6:12:6c:9b:81:e9:
                    ee:be:b9:6a:e8:33:cc:67:ff:37:2b:0c:ac:af:38:
                    bc:18:74:86:b7:0b:a4:40:1b:67:52:0d:5d:1a:65:
                    84:7f:20:11:19:05:c5:77:a2:87:57:d7:0a:35:3b:
                    df:66:01
                Exponent: 65537 (0x10001)
        X509v3 extensions:
            X509v3 Basic Constraints: 
                CA:FALSE
            Netscape Comment: 
                Easy-RSA Generated Certificate
            X509v3 Subject Key Identifier: 
                A6:B6:3F:56:34:D2:C3:92:A3:E8:A2:9F:52:6A:70:28:06:A7:1A:77
            X509v3 Authority Key Identifier: 
                keyid:12:CD:60:04:D2:A0:80:9E:70:ED:C6:99:B8:7B:2C:C6:52:FD:19:A1
                DirName:/C=US/ST=OH/L=Columbus/O=VikingVPN/OU=MyOrganizationalUnit/CN=VikingVPN CA/name=EasyRSA/emailAddress=me@myhost.mydomain
                serial:CF:35:85:EE:80:BF:2A:3E

            X509v3 Extended Key Usage: 
                TLS Web Client Authentication
            X509v3 Key Usage: 
                Digital Signature
    Signature Algorithm: sha256WithRSAEncryption
         42:5b:f9:67:f8:d1:ce:71:04:b5:56:fb:ac:0c:90:e7:d3:71:
         87:a1:3d:ea:c3:56:b9:05:c0:da:9a:25:08:e4:ac:23:2e:e0:
         8e:9b:76:04:1b:08:ba:89:8f:87:69:2f:eb:21:70:e1:a4:d9:
         08:ca:34:ed:01:a8:8f:80:f5:8b:85:ed:11:ad:a2:0b:99:f2:
         b9:35:2a:47:12:5a:75:38:cf:b2:dc:8d:37:c0:ec:52:67:ce:
         31:85:6a:c4:a4:d0:85:5a:db:25:a2:ba:ec:36:cb:d6:c1:1b:
         26:f6:b2:b6:9c:6e:08:da:31:5c:35:48:2a:63:76:0c:6e:01:
         90:47:dd:1f:34:3f:ac:19:29:a7:f1:f1:65:cd:74:64:f3:60:
         d7:51:93:32:61:2f:79:6d:ec:d7:84:17:da:c0:c7:c8:b4:ff:
         6e:42:00:c7:74:32:7a:60:b7:dd:5f:bb:0b:06:bf:2a:e2:24:
         67:fe:ce:e2:6c:fd:29:76:63:24:58:c7:97:2c:f7:4d:16:84:
         e4:d1:e5:b5:93:f8:d0:01:7e:04:c1:c7:4e:70:67:17:35:b1:
         13:8b:9f:b9:1c:2f:81:77:2f:2c:ba:02:a6:da:f9:7f:20:a6:
         6b:bf:04:9c:bb:4e:f8:35:ff:cb:0f:6f:69:93:f9:9a:77:81:
         87:cb:8e:ea:92:c0:74:66:d4:d5:c6:99:4f:d1:62:41:c8:c0:
         cf:aa:dc:d0:a8:83:03:f0:da:02:0a:f7:33:40:0c:17:02:d7:
         ba:ac:d6:7d:7b:c3:1a:d7:8d:cd:9f:5c:b3:62:af:a9:54:b0:
         e1:84:37:0f:cd:19:57:da:ea:6e:a8:ce:3b:c1:fe:01:ca:d1:
         44:8f:49:fd:83:71:33:fe:36:4e:86:2a:46:89:62:03:28:e4:
         10:1c:aa:2b:d5:e4:55:84:31:ed:77:bf:a7:8e:17:b2:34:51:
         32:b6:66:c7:c0:60:b0:93:50:52:ca:86:e5:98:54:40:30:d9:
         17:b9:b3:42:08:0a:be:cd:27:b4:1c:bb:62:07:4c:ec:83:a4:
         2c:78:a4:c9:cb:9a:f5:98:80:c6:f7:c2:21:2e:d4:21:fe:1c:
         05:68:0f:45:26:60:3e:bc:58:27:11:4e:0e:c2:0d:83:60:a8:
         ff:55:b6:ed:49:55:76:6c:86:c2:0a:8b:12:2a:49:0b:2e:41:
         3b:2c:3b:8e:96:87:cc:f7:b0:0b:bd:08:a1:7a:b9:75:0e:07:
         72:5f:b9:a2:75:bf:d2:0c:52:75:c5:2f:e1:c6:66:06:2a:52:
         e7:64:9a:21:1d:87:44:7e:e9:e5:ed:8d:43:52:81:58:03:33:
         b0:a4:af:d6:c9:69:44:62
-----BEGIN CERTIFICATE-----
MIIGrTCCBJWgAwIBAgICMmIwDQYJKoZIhvcNAQELBQAwgawxCzAJBgNVBAYTAlVT
MQswCQYDVQQIEwJPSDERMA8GA1UEBxMIQ29sdW1idXMxEjAQBgNVBAoTCVZpa2lu
Z1ZQTjEdMBsGA1UECxMUTXlPcmdhbml6YXRpb25hbFVuaXQxFTATBgNVBAMTDFZp
a2luZ1ZQTiBDQTEQMA4GA1UEKRMHRWFzeVJTQTEhMB8GCSqGSIb3DQEJARYSbWVA
bXlob3N0Lm15ZG9tYWluMB4XDTE4MDQwMzE4MzUxN1oXDTI4MDMzMTE4MzUxN1ow
HzEdMBsGA1UEAxMUQ2xpZW50MzI3MkNlcnQxZDM2MGMwggIiMA0GCSqGSIb3DQEB
AQUAA4ICDwAwggIKAoICAQC8SFTa3n3zEFwztmnEpnXY/Vaat7wEegcU/1opKYuM
hxO376frzyrK27MR8oDNmQatfLhFlyGEX1GpjCSseyP2642IwbflYoZD6pxYBApr
gYD4Dz0XrZhELiUstQkqn6O+C6PuW03WqNT1LqvuGesj5FmyTEgciGJxQCTvostw
lRj2kZHXn9P9H7MAtgd6Mtamd6StKXUnbB2eVbCwhYkwGpkuioXqfFhY9FILVHJE
aCQV1A8kRRutO95si9sfnZtwH3HK+YXY1Y9ru+pBw5aubwRLOm2Ee3qvNtm/1Blb
nlLFi/GDf/dyuqJYiHsY21ndrvYqIDvFIMUDcdo2VNacL8MLhi7WwQrJOxjS8H+l
TbRgrGUNSRw00z3j2SVTdOuFEC6PzZiSvqEO0decSRskl9iFDORqkSKc7MS2/OB+
kn95Xs3ABBUeYOeWGpdEddYqd0/rch9RBcCjwN/rgzM1SdfgjS1H0MjVhqoXWfMU
jKa1pbIb3Wrah0lFyETyEE7PJXiL1OG7UGxu2Onvr5AO+mj9Nf9XVqZV3wui+Qho
+SbeYiX/TVXKVY7fjkYI86TWfv3+Rr/fH9jrGsnHsDkd+XSn2vl9TeAdc9YSbJuB
6e6+uWroM8xn/zcrDKyvOLwYdIa3C6RAG2dSDV0aZYR/IBEZBcV3oodX1wo1O99m
AQIDAQABo4IBYzCCAV8wCQYDVR0TBAIwADAtBglghkgBhvhCAQ0EIBYeRWFzeS1S
U0EgR2VuZXJhdGVkIENlcnRpZmljYXRlMB0GA1UdDgQWBBSmtj9WNNLDkqPoop9S
anAoBqcadzCB4QYDVR0jBIHZMIHWgBQSzWAE0qCAnnDtxpm4eyzGUv0ZoaGBsqSB
rzCBrDELMAkGA1UEBhMCVVMxCzAJBgNVBAgTAk9IMREwDwYDVQQHEwhDb2x1bWJ1
czESMBAGA1UEChMJVmlraW5nVlBOMR0wGwYDVQQLExRNeU9yZ2FuaXphdGlvbmFs
VW5pdDEVMBMGA1UEAxMMVmlraW5nVlBOIENBMRAwDgYDVQQpEwdFYXN5UlNBMSEw
HwYJKoZIhvcNAQkBFhJtZUBteWhvc3QubXlkb21haW6CCQDPNYXugL8qPjATBgNV
HSUEDDAKBggrBgEFBQcDAjALBgNVHQ8EBAMCB4AwDQYJKoZIhvcNAQELBQADggIB
AEJb+Wf40c5xBLVW+6wMkOfTcYehPerDVrkFwNqaJQjkrCMu4I6bdgQbCLqJj4dp
L+shcOGk2QjKNO0BqI+A9YuF7RGtoguZ8rk1KkcSWnU4z7LcjTfA7FJnzjGFasSk
0IVa2yWiuuw2y9bBGyb2sracbgjaMVw1SCpjdgxuAZBH3R80P6wZKafx8WXNdGTz
YNdRkzJhL3lt7NeEF9rAx8i0/25CAMd0Mnpgt91fuwsGvyriJGf+zuJs/Sl2YyRY
x5cs900WhOTR5bWT+NABfgTBx05wZxc1sROLn7kcL4F3Lyy6Aqba+X8gpmu/BJy7
Tvg1/8sPb2mT+Zp3gYfLjuqSwHRm1NXGmU/RYkHIwM+q3NCogwPw2gIK9zNADBcC
17qs1n17wxrXjc2fXLNir6lUsOGENw/NGVfa6m6ozjvB/gHK0USPSf2DcTP+Nk6G
KkaJYgMo5BAcqivV5FWEMe13v6eOF7I0UTK2ZsfAYLCTUFLKhuWYVEAw2Re5s0II
Cr7NJ7Qcu2IHTOyDpCx4pMnLmvWYgMb3wiEu1CH+HAVoD0UmYD68WCcRTg7CDYNg
qP9Vtu1JVXZshsIKixIqSQsuQTssO46Wh8z3sAu9CKF6uXUOB3JfuaJ1v9IMUnXF
L+HGZgYqUudkmiEdh0R+6eXtjUNSgVgDM7Ckr9bJaURi
-----END CERTIFICATE-----
