Certificate:
    Data:
        Version: 3 (0x2)
        Serial Number: 10048 (0x2740)
    Signature Algorithm: sha256WithRSAEncryption
        Issuer: C=US, ST=OH, L=Columbus, O=VikingVPN, OU=MyOrganizationalUnit, CN=VikingVPN CA/name=EasyRSA/emailAddress=me@myhost.mydomain
        Validity
            Not Before: Feb  4 02:49:41 2017 GMT
            Not After : Feb  2 02:49:41 2027 GMT
        Subject: CN=Client2712Certa39c32
        Subject Public Key Info:
            Public Key Algorithm: rsaEncryption
                Public-Key: (4096 bit)
                Modulus:
                    00:b9:88:70:89:0b:7a:d2:d1:f4:33:57:db:15:9b:
                    2f:f5:dd:92:17:99:ec:57:e4:21:1c:ed:99:96:14:
                    4b:97:ac:0d:04:c9:14:ab:b5:69:4d:42:56:fe:40:
                    bd:13:c9:91:2b:d9:82:3e:2d:52:da:02:90:02:fc:
                    0a:85:5d:a0:16:89:0c:0a:98:0b:fb:81:35:de:9f:
                    ed:e4:15:d8:04:90:39:ad:57:f4:b7:f6:e7:0a:94:
                    48:16:de:df:13:0c:e3:1c:3c:dc:47:6a:18:ac:4a:
                    39:9b:96:3c:56:bd:46:b9:71:30:03:c3:71:04:27:
                    6f:31:40:00:9e:40:93:4f:f8:45:27:59:ec:1b:53:
                    37:3f:74:8f:0e:2c:82:a0:65:87:e1:5c:0e:1d:8c:
                    04:9b:c1:6e:ed:69:87:4f:01:52:64:b2:d8:9a:f7:
                    fe:c7:df:87:c2:da:d9:b6:cc:ee:50:26:fc:b1:dd:
                    02:03:52:91:85:97:af:04:7a:bc:85:43:af:b2:5c:
                    d1:f3:85:d6:ae:76:df:5f:2f:0e:da:a7:2e:8a:2f:
                    be:e7:b4:f2:9c:70:41:49:3f:77:5a:1e:3a:cf:b0:
                    3b:f9:bb:0e:30:2a:71:86:f3:47:84:e9:3a:d8:2d:
                    44:13:41:60:e2:76:54:fb:f7:8d:9c:94:e7:67:cc:
                    72:e7:7d:fd:4f:72:a1:f4:17:51:9f:ea:26:60:23:
                    54:64:8a:3c:00:33:d1:3e:98:87:da:11:fc:e6:ce:
                    4a:01:65:5c:7d:e3:87:18:0a:c5:90:96:23:8f:fb:
                    c4:27:b9:d5:be:c3:6a:31:84:bd:fb:c5:40:65:c7:
                    ad:05:36:c1:52:1d:dd:f2:e9:a4:6b:90:2e:8f:f6:
                    b5:0e:2a:c0:87:fe:03:62:13:cb:c2:49:6c:b4:f2:
                    ff:40:a6:c4:9f:84:a9:5e:7e:bd:69:9a:69:23:48:
                    e4:97:59:fd:f5:77:d5:7f:b6:d0:d2:fd:87:ef:39:
                    ff:66:13:c5:b4:23:3a:a0:31:0f:b7:6b:24:d0:3f:
                    f8:28:de:1f:1f:7f:35:59:a9:61:80:38:79:d6:2c:
                    3f:bb:1c:36:5c:3f:1f:39:68:c5:d8:87:5e:1a:e8:
                    79:45:e3:bc:8e:6a:74:30:5f:dc:9f:db:2b:af:37:
                    9b:24:9d:d0:1a:a6:35:af:45:9a:bc:2d:79:da:d0:
                    1b:72:9a:e6:d5:55:e9:8f:9b:30:8b:75:c7:6e:f9:
                    60:5b:67:3c:38:44:c0:a9:c2:1d:70:3d:de:7c:2f:
                    6e:c3:72:2a:55:35:c5:20:7d:16:85:a9:44:76:d8:
                    3f:4d:e8:2f:ea:a5:15:6a:17:f5:c2:56:6b:e0:6b:
                    6e:48:1b
                Exponent: 65537 (0x10001)
        X509v3 extensions:
            X509v3 Basic Constraints: 
                CA:FALSE
            Netscape Comment: 
                Easy-RSA Generated Certificate
            X509v3 Subject Key Identifier: 
                E7:3D:E7:2D:A3:DF:98:77:EC:97:9E:F5:F7:B1:0F:51:40:99:F6:81
            X509v3 Authority Key Identifier: 
                keyid:12:CD:60:04:D2:A0:80:9E:70:ED:C6:99:B8:7B:2C:C6:52:FD:19:A1
                DirName:/C=US/ST=OH/L=Columbus/O=VikingVPN/OU=MyOrganizationalUnit/CN=VikingVPN CA/name=EasyRSA/emailAddress=me@myhost.mydomain
                serial:CF:35:85:EE:80:BF:2A:3E

            X509v3 Extended Key Usage: 
                TLS Web Client Authentication
            X509v3 Key Usage: 
                Digital Signature
    Signature Algorithm: sha256WithRSAEncryption
         41:12:77:e0:1c:a8:ee:12:1c:fe:83:d7:cc:5f:08:70:23:a1:
         b4:a0:82:5e:ad:7e:71:07:ce:80:e9:7a:65:d8:ce:9d:0f:5b:
         25:9f:66:fc:05:30:83:4b:8d:e8:8e:0b:4a:59:9f:6d:bb:51:
         47:27:af:f4:3e:59:c0:4a:a3:ef:3f:10:dd:b5:a2:30:69:94:
         4f:e7:be:cd:d8:ee:9a:47:d4:a5:1c:65:38:39:7d:79:63:60:
         26:2b:86:5b:49:a1:df:c8:58:78:76:be:24:74:09:4b:b6:6b:
         17:5e:86:42:35:9f:09:d3:bf:05:bf:f9:71:98:c2:c8:8b:71:
         34:d6:7f:89:a3:1c:7f:51:52:7d:e5:e1:6c:19:50:11:8f:ed:
         01:4f:b4:b1:f2:59:b4:97:d3:45:02:67:1c:1f:d2:cc:05:32:
         6c:7e:6c:0f:24:da:d3:b8:b9:cc:4e:ed:df:e6:cf:15:08:0c:
         df:83:70:1d:d3:c6:3d:f5:5a:74:85:59:42:9f:ca:f4:82:97:
         dc:52:c4:0a:7a:71:8d:1e:d3:2a:77:67:55:b4:34:74:2c:3f:
         47:a5:4a:6c:19:3d:fa:b9:a5:aa:d1:f9:a6:5f:03:e4:36:dd:
         aa:09:d2:49:b0:fb:5b:92:f5:ee:61:cb:b5:ec:4a:48:f6:ba:
         e8:65:79:79:9a:01:9b:d0:1b:76:64:5b:9f:01:83:d9:34:20:
         84:f8:76:db:42:04:08:fb:93:23:3b:50:91:8e:93:6c:7d:bd:
         fb:df:33:ea:b9:aa:1b:fd:2b:dc:77:b2:a9:7e:e6:12:2f:dd:
         af:41:c2:3a:c4:e6:8f:3c:ee:0e:2e:fc:f4:06:3e:51:a4:88:
         bc:28:84:84:65:21:a8:47:fe:62:55:8a:bc:d0:02:50:ae:10:
         77:cd:ea:54:8e:fc:d8:56:0d:77:28:b7:ee:42:1a:82:73:78:
         a8:fb:0b:f2:aa:99:6c:a0:c2:01:29:ae:a3:23:35:3c:47:3d:
         c6:22:92:d9:87:ad:ff:49:af:d1:42:82:ea:6e:44:a7:c9:9f:
         0b:2f:bc:1f:c1:78:27:ff:50:de:f4:ed:e0:22:7e:45:38:71:
         37:8e:b3:65:a4:ce:0e:82:d3:77:79:bb:df:23:74:8f:d6:53:
         8d:f1:e2:b6:f8:94:b1:8e:92:5b:26:3b:2b:6d:be:af:bb:3a:
         44:4e:dc:35:31:a8:6a:8a:dd:27:bd:d9:5e:b3:90:1c:0a:4e:
         aa:a9:15:58:d1:63:cf:36:f9:fa:26:1c:26:bd:a9:44:6f:44:
         34:9c:04:05:24:e7:88:49:5c:09:ff:d9:ac:e4:c9:f3:e9:5a:
         63:bd:b8:d1:af:dd:94:2b
-----BEGIN CERTIFICATE-----
MIIGrTCCBJWgAwIBAgICJ0AwDQYJKoZIhvcNAQELBQAwgawxCzAJBgNVBAYTAlVT
MQswCQYDVQQIEwJPSDERMA8GA1UEBxMIQ29sdW1idXMxEjAQBgNVBAoTCVZpa2lu
Z1ZQTjEdMBsGA1UECxMUTXlPcmdhbml6YXRpb25hbFVuaXQxFTATBgNVBAMTDFZp
a2luZ1ZQTiBDQTEQMA4GA1UEKRMHRWFzeVJTQTEhMB8GCSqGSIb3DQEJARYSbWVA
bXlob3N0Lm15ZG9tYWluMB4XDTE3MDIwNDAyNDk0MVoXDTI3MDIwMjAyNDk0MVow
HzEdMBsGA1UEAxMUQ2xpZW50MjcxMkNlcnRhMzljMzIwggIiMA0GCSqGSIb3DQEB
AQUAA4ICDwAwggIKAoICAQC5iHCJC3rS0fQzV9sVmy/13ZIXmexX5CEc7ZmWFEuX
rA0EyRSrtWlNQlb+QL0TyZEr2YI+LVLaApAC/AqFXaAWiQwKmAv7gTXen+3kFdgE
kDmtV/S39ucKlEgW3t8TDOMcPNxHahisSjmbljxWvUa5cTADw3EEJ28xQACeQJNP
+EUnWewbUzc/dI8OLIKgZYfhXA4djASbwW7taYdPAVJkstia9/7H34fC2tm2zO5Q
Jvyx3QIDUpGFl68EeryFQ6+yXNHzhdaudt9fLw7apy6KL77ntPKccEFJP3daHjrP
sDv5uw4wKnGG80eE6TrYLUQTQWDidlT7942clOdnzHLnff1PcqH0F1Gf6iZgI1Rk
ijwAM9E+mIfaEfzmzkoBZVx944cYCsWQliOP+8QnudW+w2oxhL37xUBlx60FNsFS
Hd3y6aRrkC6P9rUOKsCH/gNiE8vCSWy08v9ApsSfhKlefr1pmmkjSOSXWf31d9V/
ttDS/YfvOf9mE8W0IzqgMQ+3ayTQP/go3h8ffzVZqWGAOHnWLD+7HDZcPx85aMXY
h14a6HlF47yOanQwX9yf2yuvN5skndAapjWvRZq8LXna0BtymubVVemPmzCLdcdu
+WBbZzw4RMCpwh1wPd58L27DcipVNcUgfRaFqUR22D9N6C/qpRVqF/XCVmvga25I
GwIDAQABo4IBYzCCAV8wCQYDVR0TBAIwADAtBglghkgBhvhCAQ0EIBYeRWFzeS1S
U0EgR2VuZXJhdGVkIENlcnRpZmljYXRlMB0GA1UdDgQWBBTnPecto9+Yd+yXnvX3
sQ9RQJn2gTCB4QYDVR0jBIHZMIHWgBQSzWAE0qCAnnDtxpm4eyzGUv0ZoaGBsqSB
rzCBrDELMAkGA1UEBhMCVVMxCzAJBgNVBAgTAk9IMREwDwYDVQQHEwhDb2x1bWJ1
czESMBAGA1UEChMJVmlraW5nVlBOMR0wGwYDVQQLExRNeU9yZ2FuaXphdGlvbmFs
VW5pdDEVMBMGA1UEAxMMVmlraW5nVlBOIENBMRAwDgYDVQQpEwdFYXN5UlNBMSEw
HwYJKoZIhvcNAQkBFhJtZUBteWhvc3QubXlkb21haW6CCQDPNYXugL8qPjATBgNV
HSUEDDAKBggrBgEFBQcDAjALBgNVHQ8EBAMCB4AwDQYJKoZIhvcNAQELBQADggIB
AEESd+AcqO4SHP6D18xfCHAjobSggl6tfnEHzoDpemXYzp0PWyWfZvwFMINLjeiO
C0pZn227UUcnr/Q+WcBKo+8/EN21ojBplE/nvs3Y7ppH1KUcZTg5fXljYCYrhltJ
od/IWHh2viR0CUu2axdehkI1nwnTvwW/+XGYwsiLcTTWf4mjHH9RUn3l4WwZUBGP
7QFPtLHyWbSX00UCZxwf0swFMmx+bA8k2tO4ucxO7d/mzxUIDN+DcB3Txj31WnSF
WUKfyvSCl9xSxAp6cY0e0yp3Z1W0NHQsP0elSmwZPfq5parR+aZfA+Q23aoJ0kmw
+1uS9e5hy7XsSkj2uuhleXmaAZvQG3ZkW58Bg9k0IIT4dttCBAj7kyM7UJGOk2x9
vfvfM+q5qhv9K9x3sql+5hIv3a9BwjrE5o887g4u/PQGPlGkiLwohIRlIahH/mJV
irzQAlCuEHfN6lSO/NhWDXcot+5CGoJzeKj7C/KqmWygwgEprqMjNTxHPcYiktmH
rf9Jr9FCgupuRKfJnwsvvB/BeCf/UN707eAifkU4cTeOs2Wkzg6C03d5u98jdI/W
U43x4rb4lLGOklsmOyttvq+7OkRO3DUxqGqK3Se92V6zkBwKTqqpFVjRY882+fom
HCa9qURvRDScBAUk54hJXAn/2azkyfPpWmO9uNGv3ZQr
-----END CERTIFICATE-----
