Certificate:
    Data:
        Version: 3 (0x2)
        Serial Number: 4968 (0x1368)
    Signature Algorithm: md5WithRSAEncryption
        Issuer: C=US, ST=OH, L=Columbus, O=VikingVPN, OU=MyOrganizationalUnit, CN=VikingVPN CA/name=EasyRSA/emailAddress=me@myhost.mydomain
        Validity
            Not Before: Apr 15 13:10:45 2015 GMT
            Not After : Apr 12 13:10:45 2025 GMT
        Subject: CN=Client1620Cert3a493d
        Subject Public Key Info:
            Public Key Algorithm: rsaEncryption
                Public-Key: (4096 bit)
                Modulus:
                    00:d9:34:60:23:32:7f:af:f0:54:ce:7a:82:81:90:
                    29:35:bb:6a:b1:ac:49:ca:69:cb:74:fe:96:37:ea:
                    78:06:00:b1:3c:aa:0d:69:8f:48:5e:29:90:aa:30:
                    78:93:f2:ff:f7:05:2b:5a:fa:06:ff:5f:68:27:11:
                    40:88:0f:65:38:52:8f:12:36:8a:53:0a:7f:d7:52:
                    cf:a2:64:b7:a5:7b:ac:81:d2:c6:0a:96:97:df:57:
                    17:79:6e:b2:e3:b7:90:50:30:a6:05:a0:17:7f:f4:
                    f3:75:19:2f:8a:ec:32:56:ea:e7:45:58:ce:8c:07:
                    15:d2:3e:fb:c5:31:e5:9d:fb:25:6b:b6:87:22:73:
                    89:b3:0f:92:db:f1:ed:b4:1d:b1:cd:21:51:0c:ef:
                    eb:a8:c6:cd:3e:df:94:82:ad:ca:7c:9d:83:de:02:
                    97:1b:a7:47:18:79:35:6a:1b:a6:cc:20:2c:00:10:
                    ec:65:fd:0f:60:80:3c:55:26:85:85:89:e7:be:07:
                    79:86:5d:e2:6f:05:b6:35:be:a6:48:c2:e6:24:f4:
                    09:b4:d3:30:2a:38:1a:b0:54:c0:e7:90:58:39:a5:
                    24:0e:5e:49:fb:bc:1d:39:1f:fe:21:4e:d4:e0:89:
                    9e:28:2e:49:d8:88:0b:68:4c:df:c4:27:71:b1:42:
                    fc:5d:fe:b4:b4:d0:dd:6a:bb:13:ee:9d:93:06:94:
                    9f:ce:c6:7b:8e:85:94:a7:90:24:24:55:52:a0:18:
                    7b:e1:ce:b2:23:69:e9:4d:87:14:b5:b6:9c:c5:bd:
                    f1:86:a4:5d:05:83:88:01:1f:49:59:1c:94:98:ba:
                    5e:35:c1:0c:40:b9:70:88:11:bc:6c:45:3a:f7:aa:
                    7a:35:3f:6c:2a:1d:79:47:48:64:11:c8:67:ce:42:
                    52:fd:cd:77:2c:e4:4b:a9:7f:2b:35:23:d2:95:53:
                    1f:ff:65:fd:67:9f:ff:e4:96:57:44:76:09:1e:2f:
                    4a:c9:92:05:3b:b8:25:d5:24:b1:a8:7e:bf:30:5d:
                    3d:d3:9b:39:bb:6e:57:10:0e:7a:28:af:e3:81:bf:
                    0a:79:3d:1e:ce:af:6a:f2:b1:2a:85:62:f3:51:5d:
                    69:08:4a:1b:3b:ab:ce:90:0b:7b:4e:c8:7c:63:c0:
                    3c:0b:4d:a0:cb:d7:bc:40:22:17:be:b9:32:86:02:
                    5b:1b:f9:22:2d:b9:a9:58:38:80:89:80:07:e6:9f:
                    d2:ac:73:7f:7e:5b:89:ca:1a:f4:76:17:f3:82:a0:
                    19:6e:2a:61:45:48:ef:58:36:c4:81:ce:3e:67:ea:
                    f9:97:9a:95:64:1d:fe:a7:d0:95:b9:56:b8:2b:4b:
                    96:35:95
                Exponent: 65537 (0x10001)
        X509v3 extensions:
            X509v3 Basic Constraints: 
                CA:FALSE
            Netscape Comment: 
                Easy-RSA Generated Certificate
            X509v3 Subject Key Identifier: 
                C7:F1:65:8F:2E:C4:0A:72:A8:B6:F8:7A:D1:99:19:89:4E:4D:7A:85
            X509v3 Authority Key Identifier: 
                keyid:12:CD:60:04:D2:A0:80:9E:70:ED:C6:99:B8:7B:2C:C6:52:FD:19:A1
                DirName:/C=US/ST=OH/L=Columbus/O=VikingVPN/OU=MyOrganizationalUnit/CN=VikingVPN CA/name=EasyRSA/emailAddress=me@myhost.mydomain
                serial:CF:35:85:EE:80:BF:2A:3E

            X509v3 Extended Key Usage: 
                TLS Web Client Authentication
            X509v3 Key Usage: 
                Digital Signature
    Signature Algorithm: md5WithRSAEncryption
         58:05:06:79:48:49:23:d4:eb:40:e7:22:47:99:dc:d2:3e:60:
         d5:84:86:79:c9:a5:fe:a6:b6:b2:70:ed:e2:03:78:69:39:e5:
         67:48:62:d8:76:be:1a:0f:0f:e1:4b:1f:0c:52:32:9a:26:96:
         24:04:a3:78:73:2b:cf:7d:57:b5:62:8a:56:50:6d:f5:4c:f4:
         68:8a:28:c8:f8:f0:72:8a:7b:4d:3b:da:95:2c:b2:eb:b9:f2:
         86:6a:38:d4:e8:4c:6d:6c:cf:2b:f5:2f:03:53:6f:8b:2a:84:
         cc:4b:ac:57:f1:46:51:16:9a:a1:f4:d7:14:d2:fb:b4:95:42:
         88:eb:1f:d2:ae:89:81:e6:ca:aa:06:39:cc:4f:52:d6:da:46:
         32:aa:93:a6:38:b5:5f:23:f5:ff:d1:0f:bc:ad:f3:51:02:48:
         09:42:95:3b:a9:19:14:db:ec:fa:37:a9:60:9a:b1:eb:fd:16:
         8d:87:cf:59:bb:eb:56:1f:80:13:1d:83:c2:9b:31:52:08:be:
         35:80:1e:32:86:ef:8b:de:ea:f7:f7:cf:ed:d0:00:77:2a:28:
         1f:1b:7d:ab:6c:c9:48:79:e6:96:8e:ba:61:c3:a8:c0:f9:06:
         7d:e3:2e:c7:13:83:4e:8d:6e:9c:a6:5f:51:ba:67:76:07:81:
         c5:7f:aa:c5:80:7a:0f:9c:7c:52:15:ee:51:1a:bc:4c:22:9e:
         2e:01:03:df:47:d9:7d:b7:ce:8e:ac:2a:39:b6:50:aa:a2:38:
         be:e1:ae:3d:ca:10:3a:25:11:6e:11:e7:98:6f:fd:d0:ee:8b:
         bd:f1:90:86:ea:9a:11:7e:48:a6:66:bf:b6:5d:3e:c4:30:6e:
         4b:3d:f8:37:2f:f9:b9:0f:26:27:04:67:1c:7d:0d:4d:5a:bf:
         26:f8:4f:f0:7d:8d:ef:cb:60:75:62:41:ad:29:da:82:d5:8a:
         f5:98:5f:c4:be:3c:f4:cc:0b:88:ab:57:23:d8:ae:58:2d:d8:
         be:8e:35:92:42:f2:bd:9c:95:78:28:55:fd:5e:b5:56:c8:54:
         b0:86:99:2a:06:d9:da:a9:90:8a:42:d0:93:89:f9:6c:29:f2:
         9e:f4:d6:71:87:92:fe:84:86:55:60:a8:b0:54:8a:e0:f0:e6:
         8f:82:38:f6:52:6a:94:53:32:09:8a:b7:b6:02:e6:43:6d:a1:
         29:4a:96:26:82:64:e8:b4:47:b1:c7:46:03:83:49:ff:5c:5f:
         ec:85:77:bc:0e:2a:cb:ac:81:ab:0e:39:b7:39:32:7e:21:ca:
         2b:d4:84:d2:64:70:00:fd:d3:e3:88:ed:2f:de:77:d0:ed:c0:
         c6:d8:23:cf:6e:cb:2c:d8
-----BEGIN CERTIFICATE-----
MIIGrTCCBJWgAwIBAgICE2gwDQYJKoZIhvcNAQEEBQAwgawxCzAJBgNVBAYTAlVT
MQswCQYDVQQIEwJPSDERMA8GA1UEBxMIQ29sdW1idXMxEjAQBgNVBAoTCVZpa2lu
Z1ZQTjEdMBsGA1UECxMUTXlPcmdhbml6YXRpb25hbFVuaXQxFTATBgNVBAMTDFZp
a2luZ1ZQTiBDQTEQMA4GA1UEKRMHRWFzeVJTQTEhMB8GCSqGSIb3DQEJARYSbWVA
bXlob3N0Lm15ZG9tYWluMB4XDTE1MDQxNTEzMTA0NVoXDTI1MDQxMjEzMTA0NVow
HzEdMBsGA1UEAxMUQ2xpZW50MTYyMENlcnQzYTQ5M2QwggIiMA0GCSqGSIb3DQEB
AQUAA4ICDwAwggIKAoICAQDZNGAjMn+v8FTOeoKBkCk1u2qxrEnKact0/pY36ngG
ALE8qg1pj0heKZCqMHiT8v/3BSta+gb/X2gnEUCID2U4Uo8SNopTCn/XUs+iZLel
e6yB0sYKlpffVxd5brLjt5BQMKYFoBd/9PN1GS+K7DJW6udFWM6MBxXSPvvFMeWd
+yVrtocic4mzD5Lb8e20HbHNIVEM7+uoxs0+35SCrcp8nYPeApcbp0cYeTVqG6bM
ICwAEOxl/Q9ggDxVJoWFiee+B3mGXeJvBbY1vqZIwuYk9Am00zAqOBqwVMDnkFg5
pSQOXkn7vB05H/4hTtTgiZ4oLknYiAtoTN/EJ3GxQvxd/rS00N1quxPunZMGlJ/O
xnuOhZSnkCQkVVKgGHvhzrIjaelNhxS1tpzFvfGGpF0Fg4gBH0lZHJSYul41wQxA
uXCIEbxsRTr3qno1P2wqHXlHSGQRyGfOQlL9zXcs5Eupfys1I9KVUx//Zf1nn//k
lldEdgkeL0rJkgU7uCXVJLGofr8wXT3Tmzm7blcQDnoor+OBvwp5PR7Or2rysSqF
YvNRXWkIShs7q86QC3tOyHxjwDwLTaDL17xAIhe+uTKGAlsb+SItualYOICJgAfm
n9Ksc39+W4nKGvR2F/OCoBluKmFFSO9YNsSBzj5n6vmXmpVkHf6n0JW5VrgrS5Y1
lQIDAQABo4IBYzCCAV8wCQYDVR0TBAIwADAtBglghkgBhvhCAQ0EIBYeRWFzeS1S
U0EgR2VuZXJhdGVkIENlcnRpZmljYXRlMB0GA1UdDgQWBBTH8WWPLsQKcqi2+HrR
mRmJTk16hTCB4QYDVR0jBIHZMIHWgBQSzWAE0qCAnnDtxpm4eyzGUv0ZoaGBsqSB
rzCBrDELMAkGA1UEBhMCVVMxCzAJBgNVBAgTAk9IMREwDwYDVQQHEwhDb2x1bWJ1
czESMBAGA1UEChMJVmlraW5nVlBOMR0wGwYDVQQLExRNeU9yZ2FuaXphdGlvbmFs
VW5pdDEVMBMGA1UEAxMMVmlraW5nVlBOIENBMRAwDgYDVQQpEwdFYXN5UlNBMSEw
HwYJKoZIhvcNAQkBFhJtZUBteWhvc3QubXlkb21haW6CCQDPNYXugL8qPjATBgNV
HSUEDDAKBggrBgEFBQcDAjALBgNVHQ8EBAMCB4AwDQYJKoZIhvcNAQEEBQADggIB
AFgFBnlISSPU60DnIkeZ3NI+YNWEhnnJpf6mtrJw7eIDeGk55WdIYth2vhoPD+FL
HwxSMpomliQEo3hzK899V7ViilZQbfVM9GiKKMj48HKKe0072pUssuu58oZqONTo
TG1szyv1LwNTb4sqhMxLrFfxRlEWmqH01xTS+7SVQojrH9KuiYHmyqoGOcxPUtba
RjKqk6Y4tV8j9f/RD7yt81ECSAlClTupGRTb7Po3qWCasev9Fo2Hz1m761YfgBMd
g8KbMVIIvjWAHjKG74ve6vf3z+3QAHcqKB8bfatsyUh55paOumHDqMD5Bn3jLscT
g06NbpymX1G6Z3YHgcV/qsWAeg+cfFIV7lEavEwini4BA99H2X23zo6sKjm2UKqi
OL7hrj3KEDolEW4R55hv/dDui73xkIbqmhF+SKZmv7ZdPsQwbks9+Dcv+bkPJicE
Zxx9DU1avyb4T/B9je/LYHViQa0p2oLVivWYX8S+PPTMC4irVyPYrlgt2L6ONZJC
8r2clXgoVf1etVbIVLCGmSoG2dqpkIpC0JOJ+Wwp8p701nGHkv6EhlVgqLBUiuDw
5o+COPZSapRTMgmKt7YC5kNtoSlKliaCZOi0R7HHRgODSf9cX+yFd7wOKsusgasO
Obc5Mn4hyivUhNJkcAD90+OI7S/ed9DtwMbYI89uyyzY
-----END CERTIFICATE-----
