Certificate:
    Data:
        Version: 3 (0x2)
        Serial Number: 13005 (0x32cd)
    Signature Algorithm: sha256WithRSAEncryption
        Issuer: C=US, ST=OH, L=Columbus, O=VikingVPN, OU=MyOrganizationalUnit, CN=VikingVPN CA/name=EasyRSA/emailAddress=me@myhost.mydomain
        Validity
            Not Before: Apr 20 21:12:16 2018 GMT
            Not After : Apr 17 21:12:16 2028 GMT
        Subject: CN=Client3268Cert49355d
        Subject Public Key Info:
            Public Key Algorithm: rsaEncryption
                Public-Key: (4096 bit)
                Modulus:
                    00:b8:94:6d:48:d7:e5:5d:1a:ea:b0:97:cb:9e:ba:
                    8c:8c:86:dc:a0:78:c0:6f:4b:df:a9:36:10:91:d6:
                    6b:3a:0e:f2:62:17:f7:97:fb:6c:3f:71:a6:31:de:
                    9d:05:49:ea:67:0e:bd:29:4c:69:33:ec:3f:2c:ad:
                    3a:e9:90:39:b6:64:96:21:b7:20:16:e6:49:d0:e0:
                    e7:b2:9c:f0:28:fe:55:32:5d:ba:30:eb:74:ef:3f:
                    95:e9:ce:dd:72:8f:6f:06:46:c7:58:aa:d9:e1:84:
                    16:c5:5f:cc:0f:f4:7e:f3:4a:1d:ab:f8:8e:79:eb:
                    e2:ec:63:5e:99:c7:46:01:db:87:66:00:76:a4:83:
                    c2:05:27:6c:f5:e1:ae:96:a4:e8:6c:62:2e:99:67:
                    ad:82:22:8a:01:8f:42:ed:ba:16:82:a7:7a:4f:7d:
                    34:d6:86:4a:e8:b9:8d:80:38:b0:2c:c3:fd:be:c5:
                    41:43:f8:0d:40:f8:79:a6:f6:50:0e:72:7e:93:9a:
                    7a:ec:f7:1f:f2:78:66:07:06:a6:d2:61:e1:7a:4a:
                    45:01:14:58:81:30:a7:0c:dd:8d:2b:41:b9:ae:a3:
                    f5:c0:47:80:44:ab:15:52:4b:0e:02:e6:39:d5:3e:
                    02:b7:54:90:f7:64:0c:fd:6f:cc:e0:3c:45:41:f1:
                    93:a4:59:de:f5:9e:bf:e5:1e:dc:33:7b:d6:88:87:
                    4e:75:f9:28:e6:3b:7d:40:35:a6:2b:ca:95:2f:8f:
                    dc:b1:c5:9a:5a:84:0f:9a:89:3b:72:ae:1c:e4:06:
                    64:02:e8:7b:47:4e:b2:5f:40:8f:27:d6:1a:4e:7b:
                    89:40:f9:fc:5a:1a:9a:55:36:6a:b3:ea:5b:14:01:
                    0d:99:0c:6e:82:c6:ac:2c:01:1c:86:b3:87:f1:82:
                    69:b1:52:18:8b:85:95:e6:6e:7e:80:f0:4b:92:25:
                    ae:70:9e:b9:ad:6a:55:b1:2a:22:87:03:dc:a7:b6:
                    fb:10:02:a4:fe:a1:fb:b2:be:22:fa:67:97:b6:c4:
                    e5:0e:97:88:ca:fa:82:ab:74:c3:23:07:c5:46:eb:
                    db:70:9f:39:25:25:d1:fe:83:56:0d:f7:1e:7d:a5:
                    54:92:74:63:b5:15:76:f5:37:e1:b3:bd:f5:62:8f:
                    31:08:a2:58:8f:16:74:5b:b8:ae:fb:37:83:b3:71:
                    6e:55:6f:01:54:5f:a6:22:da:c2:a8:cb:7e:4c:fb:
                    a4:c3:b4:7f:38:3d:a9:31:42:e7:46:fe:5c:59:f7:
                    fa:54:69:38:52:7e:f8:d7:25:93:54:21:c4:cb:94:
                    68:78:57:f7:f6:c5:8a:9c:ee:01:bb:48:57:c4:2e:
                    df:31:93
                Exponent: 65537 (0x10001)
        X509v3 extensions:
            X509v3 Basic Constraints: 
                CA:FALSE
            Netscape Comment: 
                Easy-RSA Generated Certificate
            X509v3 Subject Key Identifier: 
                FC:72:55:5F:41:B2:F0:D7:87:62:16:77:14:2B:56:20:3F:F0:6F:AB
            X509v3 Authority Key Identifier: 
                keyid:12:CD:60:04:D2:A0:80:9E:70:ED:C6:99:B8:7B:2C:C6:52:FD:19:A1
                DirName:/C=US/ST=OH/L=Columbus/O=VikingVPN/OU=MyOrganizationalUnit/CN=VikingVPN CA/name=EasyRSA/emailAddress=me@myhost.mydomain
                serial:CF:35:85:EE:80:BF:2A:3E

            X509v3 Extended Key Usage: 
                TLS Web Client Authentication
            X509v3 Key Usage: 
                Digital Signature
    Signature Algorithm: sha256WithRSAEncryption
         c0:3d:ac:6e:cd:82:5d:65:51:54:6e:34:ae:a7:96:06:ee:97:
         f8:87:fe:8e:a2:c8:11:82:98:ae:52:80:cc:87:06:76:18:f3:
         2d:c8:02:f1:8e:d3:6e:7f:5c:ce:b8:b4:4b:a4:c1:9d:31:14:
         f3:0f:1f:a3:4a:e9:c2:1e:89:bf:2f:26:36:94:63:ad:09:41:
         35:d4:3b:52:9f:17:a6:7d:66:d3:26:01:87:b7:30:5b:38:12:
         df:02:bb:64:06:99:58:81:66:c9:13:e5:71:6f:c6:4c:cf:8a:
         7f:f6:bf:e5:1c:9e:68:97:24:14:4c:f7:3f:e9:91:ef:e4:4c:
         8e:fd:e2:e2:dd:d7:0c:d0:39:39:8f:61:ca:43:f5:7f:d7:38:
         06:c2:5c:15:45:a2:06:94:cb:05:c8:26:4f:83:87:76:06:e1:
         f5:85:80:6c:1c:6f:ec:e9:11:99:e8:b5:cb:de:45:f6:44:52:
         9e:ef:73:1c:8f:cb:39:b5:b6:b6:09:82:33:a2:b3:58:89:46:
         27:be:53:3d:aa:21:f2:99:b1:7f:90:54:1e:29:b7:b4:c0:ae:
         0e:0c:49:00:77:b7:c5:9a:b9:91:98:83:1e:c3:fd:6d:54:ba:
         59:75:59:b8:c8:c7:1b:68:0f:c4:c3:8f:01:85:8d:43:f9:1c:
         b9:e6:c5:62:14:99:3f:41:19:28:0e:6d:a6:c9:b0:89:e2:a1:
         6f:58:89:a1:8b:37:4d:f2:30:a9:22:aa:1c:27:a7:92:98:1b:
         b5:31:d1:3a:7c:0c:92:42:af:f4:64:09:68:44:03:ee:25:a0:
         f0:49:82:00:81:12:3d:69:53:ec:d0:8d:7f:a3:c9:ec:b5:3f:
         d0:8d:73:98:53:b6:3e:5c:f5:81:14:fd:66:fc:6d:ee:ee:fe:
         74:d0:83:48:98:ad:6c:c5:8e:10:1a:f3:79:b4:f8:b5:1c:68:
         e9:77:44:a7:3a:5c:ff:50:63:05:cb:b0:95:bb:65:98:2b:a2:
         65:67:65:44:56:b8:f6:1f:42:62:aa:63:39:90:32:ba:16:ba:
         7a:6e:ae:4d:03:ce:52:14:c8:6a:a1:1c:8b:e4:48:c5:e9:79:
         22:86:7b:51:5e:52:6a:1c:6c:72:1b:a7:37:3b:08:7a:1a:56:
         02:58:6c:4e:1d:4f:f1:a5:63:a9:c9:39:cd:43:04:79:41:12:
         b5:16:69:cc:48:af:2d:8c:f6:90:e8:f4:e4:98:e2:71:0e:31:
         73:a9:1d:1f:28:1d:7c:bb:a3:44:b3:a6:53:b2:8a:9a:d7:c1:
         c1:18:7a:bf:30:b7:29:a6:b5:8d:77:a4:8c:d0:bc:b0:a9:88:
         fd:70:3e:8f:5c:ea:f4:72
-----BEGIN CERTIFICATE-----
MIIGrTCCBJWgAwIBAgICMs0wDQYJKoZIhvcNAQELBQAwgawxCzAJBgNVBAYTAlVT
MQswCQYDVQQIEwJPSDERMA8GA1UEBxMIQ29sdW1idXMxEjAQBgNVBAoTCVZpa2lu
Z1ZQTjEdMBsGA1UECxMUTXlPcmdhbml6YXRpb25hbFVuaXQxFTATBgNVBAMTDFZp
a2luZ1ZQTiBDQTEQMA4GA1UEKRMHRWFzeVJTQTEhMB8GCSqGSIb3DQEJARYSbWVA
bXlob3N0Lm15ZG9tYWluMB4XDTE4MDQyMDIxMTIxNloXDTI4MDQxNzIxMTIxNlow
HzEdMBsGA1UEAxMUQ2xpZW50MzI2OENlcnQ0OTM1NWQwggIiMA0GCSqGSIb3DQEB
AQUAA4ICDwAwggIKAoICAQC4lG1I1+VdGuqwl8ueuoyMhtygeMBvS9+pNhCR1ms6
DvJiF/eX+2w/caYx3p0FSepnDr0pTGkz7D8srTrpkDm2ZJYhtyAW5knQ4OeynPAo
/lUyXbow63TvP5Xpzt1yj28GRsdYqtnhhBbFX8wP9H7zSh2r+I556+LsY16Zx0YB
24dmAHakg8IFJ2z14a6WpOhsYi6ZZ62CIooBj0LtuhaCp3pPfTTWhkrouY2AOLAs
w/2+xUFD+A1A+Hmm9lAOcn6Tmnrs9x/yeGYHBqbSYeF6SkUBFFiBMKcM3Y0rQbmu
o/XAR4BEqxVSSw4C5jnVPgK3VJD3ZAz9b8zgPEVB8ZOkWd71nr/lHtwze9aIh051
+SjmO31ANaYrypUvj9yxxZpahA+aiTtyrhzkBmQC6HtHTrJfQI8n1hpOe4lA+fxa
GppVNmqz6lsUAQ2ZDG6CxqwsARyGs4fxgmmxUhiLhZXmbn6A8EuSJa5wnrmtalWx
KiKHA9yntvsQAqT+ofuyviL6Z5e2xOUOl4jK+oKrdMMjB8VG69twnzklJdH+g1YN
9x59pVSSdGO1FXb1N+GzvfVijzEIoliPFnRbuK77N4OzcW5VbwFUX6Yi2sKoy35M
+6TDtH84PakxQudG/lxZ9/pUaThSfvjXJZNUIcTLlGh4V/f2xYqc7gG7SFfELt8x
kwIDAQABo4IBYzCCAV8wCQYDVR0TBAIwADAtBglghkgBhvhCAQ0EIBYeRWFzeS1S
U0EgR2VuZXJhdGVkIENlcnRpZmljYXRlMB0GA1UdDgQWBBT8clVfQbLw14diFncU
K1YgP/BvqzCB4QYDVR0jBIHZMIHWgBQSzWAE0qCAnnDtxpm4eyzGUv0ZoaGBsqSB
rzCBrDELMAkGA1UEBhMCVVMxCzAJBgNVBAgTAk9IMREwDwYDVQQHEwhDb2x1bWJ1
czESMBAGA1UEChMJVmlraW5nVlBOMR0wGwYDVQQLExRNeU9yZ2FuaXphdGlvbmFs
VW5pdDEVMBMGA1UEAxMMVmlraW5nVlBOIENBMRAwDgYDVQQpEwdFYXN5UlNBMSEw
HwYJKoZIhvcNAQkBFhJtZUBteWhvc3QubXlkb21haW6CCQDPNYXugL8qPjATBgNV
HSUEDDAKBggrBgEFBQcDAjALBgNVHQ8EBAMCB4AwDQYJKoZIhvcNAQELBQADggIB
AMA9rG7Ngl1lUVRuNK6nlgbul/iH/o6iyBGCmK5SgMyHBnYY8y3IAvGO025/XM64
tEukwZ0xFPMPH6NK6cIeib8vJjaUY60JQTXUO1KfF6Z9ZtMmAYe3MFs4Et8Cu2QG
mViBZskT5XFvxkzPin/2v+UcnmiXJBRM9z/pke/kTI794uLd1wzQOTmPYcpD9X/X
OAbCXBVFogaUywXIJk+Dh3YG4fWFgGwcb+zpEZnotcveRfZEUp7vcxyPyzm1trYJ
gjOis1iJRie+Uz2qIfKZsX+QVB4pt7TArg4MSQB3t8WauZGYgx7D/W1Uull1WbjI
xxtoD8TDjwGFjUP5HLnmxWIUmT9BGSgObabJsInioW9YiaGLN03yMKkiqhwnp5KY
G7Ux0Tp8DJJCr/RkCWhEA+4loPBJggCBEj1pU+zQjX+jyey1P9CNc5hTtj5c9YEU
/Wb8be7u/nTQg0iYrWzFjhAa83m0+LUcaOl3RKc6XP9QYwXLsJW7ZZgromVnZURW
uPYfQmKqYzmQMroWunpurk0DzlIUyGqhHIvkSMXpeSKGe1FeUmocbHIbpzc7CHoa
VgJYbE4dT/GlY6nJOc1DBHlBErUWacxIry2M9pDo9OSY4nEOMXOpHR8oHXy7o0Sz
plOyiprXwcEYer8wtymmtY13pIzQvLCpiP1wPo9c6vRy
-----END CERTIFICATE-----
