Certificate:
    Data:
        Version: 3 (0x2)
        Serial Number: 520 (0x208)
    Signature Algorithm: md5WithRSAEncryption
        Issuer: C=US, ST=OH, L=Columbus, O=VikingVPN, OU=MyOrganizationalUnit, CN=VikingVPN CA/name=EasyRSA/emailAddress=me@myhost.mydomain
        Validity
            Not Before: Dec  4 22:36:21 2013 GMT
            Not After : Dec  2 22:36:21 2023 GMT
        Subject: CN=Client219Certfcbf6e
        Subject Public Key Info:
            Public Key Algorithm: rsaEncryption
                Public-Key: (4096 bit)
                Modulus:
                    00:ca:5e:80:09:ce:8f:55:7a:86:5c:8b:2c:99:25:
                    41:ef:af:89:de:23:70:66:9a:83:e2:2c:7a:34:18:
                    0a:34:52:87:3c:6f:c3:63:75:f0:d4:45:0f:22:64:
                    be:7f:30:7e:93:97:c1:4a:00:e4:eb:03:3c:f5:32:
                    9d:26:29:cd:88:51:e7:17:9a:b3:8e:5b:27:87:52:
                    4f:93:ea:c3:e4:11:4c:e4:65:78:b3:0e:c7:a3:46:
                    52:dd:66:2e:59:36:8c:a4:bd:91:e1:21:1f:72:22:
                    d0:83:c7:5e:b8:2b:e8:77:ff:71:cc:3b:17:24:9c:
                    d1:3f:1c:7c:28:bd:eb:02:8a:71:ac:64:e8:d2:55:
                    6c:99:60:b9:f5:25:e8:ed:4b:8f:c6:f5:25:27:70:
                    da:3a:b4:89:af:ba:3a:26:c9:96:96:fe:45:42:42:
                    c1:fd:20:b3:e6:97:b1:27:ef:2c:de:6a:6e:5c:15:
                    86:65:28:ea:12:2b:dd:5c:fc:ce:ed:16:28:e2:b8:
                    0b:4e:b8:d7:6a:6f:6a:44:91:67:64:45:33:b5:2c:
                    90:43:ba:3f:e7:08:e8:db:f6:a4:02:02:7c:16:a2:
                    b0:20:7d:55:a2:8e:b7:68:95:06:86:b3:1d:f2:b9:
                    0a:b7:27:70:07:cd:c4:17:ea:de:2b:27:67:ab:fa:
                    2e:1b:e7:99:6b:26:87:bf:aa:66:46:6c:b8:f6:ca:
                    25:7f:4c:bb:29:7b:a0:b9:cf:ed:13:19:62:60:e5:
                    2d:fd:d5:d4:97:22:5f:5a:09:48:ea:33:5b:e7:e0:
                    48:5d:33:90:d5:a9:40:6e:b1:36:01:fd:3e:a6:91:
                    71:34:77:9b:81:25:83:31:be:2a:a6:a2:3b:20:65:
                    c7:6a:98:f7:de:7e:63:c8:e1:00:ba:0a:0f:c7:b3:
                    24:f6:d5:83:34:69:e2:ff:11:7c:a6:93:9d:16:28:
                    4f:94:12:57:aa:5d:8e:c7:b2:e1:8e:2f:65:c3:ab:
                    e4:99:f2:0b:d4:0a:db:9d:46:a4:1b:19:2f:93:f6:
                    50:d7:03:c6:ae:dc:04:1e:b7:7a:fa:f0:e0:93:8a:
                    93:e8:5a:9a:98:3b:d4:64:68:f8:21:d8:87:b7:6d:
                    cf:b0:f5:36:29:0e:32:7c:8a:25:60:e0:66:86:bf:
                    f3:9d:e1:10:55:bd:cc:15:1e:59:28:c3:51:b2:b0:
                    66:fc:d0:07:08:6e:a6:8b:92:e9:49:e9:c5:90:c8:
                    de:0d:dc:a3:cc:8b:1f:b2:f7:1d:3a:8a:7b:26:d9:
                    93:ca:e4:61:35:d2:22:44:aa:11:ee:b7:15:97:d7:
                    22:b5:7f:4f:3f:2a:4b:81:3d:8e:6c:ff:82:dd:b6:
                    89:d9:57
                Exponent: 65537 (0x10001)
        X509v3 extensions:
            X509v3 Basic Constraints: 
                CA:FALSE
            Netscape Comment: 
                Easy-RSA Generated Certificate
            X509v3 Subject Key Identifier: 
                5D:79:02:31:0B:67:76:32:FF:67:CF:52:45:69:4A:5A:D7:38:68:3E
            X509v3 Authority Key Identifier: 
                keyid:12:CD:60:04:D2:A0:80:9E:70:ED:C6:99:B8:7B:2C:C6:52:FD:19:A1
                DirName:/C=US/ST=OH/L=Columbus/O=VikingVPN/OU=MyOrganizationalUnit/CN=VikingVPN CA/name=EasyRSA/emailAddress=me@myhost.mydomain
                serial:CF:35:85:EE:80:BF:2A:3E

            X509v3 Extended Key Usage: 
                TLS Web Client Authentication
            X509v3 Key Usage: 
                Digital Signature
    Signature Algorithm: md5WithRSAEncryption
         ea:d9:e5:d7:b5:19:87:b5:5e:25:eb:f4:11:15:87:06:fc:2c:
         ff:f3:14:cf:c8:ec:a8:72:c5:18:12:c9:e4:31:45:8a:7c:ca:
         07:6b:90:c7:8a:90:c4:2b:52:c4:e2:7d:ae:16:54:f1:be:18:
         68:38:00:95:f8:e7:2d:69:43:1e:8d:cb:2b:b9:76:b3:e0:16:
         b7:1c:69:e0:20:f8:4d:6e:30:c5:bc:50:81:cb:35:ff:68:10:
         86:84:88:03:fc:03:03:f4:92:5e:ea:0d:24:8d:50:c6:e4:47:
         8c:3a:2c:49:58:dc:84:15:73:db:1f:4b:ed:f0:60:19:1b:d1:
         ab:10:a7:1f:53:5d:7d:7c:5e:85:b7:06:f8:3a:05:e4:8b:65:
         3b:0b:d5:05:99:0e:1f:a0:f7:01:7b:b1:c6:88:55:67:2f:a7:
         7a:80:30:69:66:45:94:bb:f4:14:6a:e1:8a:67:85:1b:3b:e6:
         5e:52:19:9b:35:3b:09:7f:51:38:3c:f7:ad:e0:69:ab:46:f0:
         c6:c3:be:5f:84:4e:dc:47:0a:ec:45:6e:4f:ea:84:a7:3d:84:
         8a:c5:bc:4e:81:12:58:85:66:22:20:d2:f7:87:55:f3:36:50:
         7e:df:3e:a3:7d:80:77:b4:78:06:20:5f:f3:3a:44:4e:94:25:
         6c:e4:6a:a4:78:b8:e8:90:17:c4:29:4b:a5:86:bf:c7:13:1f:
         2c:10:0a:1e:e9:30:8c:44:4d:91:5d:7e:ed:f9:75:a6:2a:eb:
         b2:7b:6b:9c:cb:72:eb:f3:8b:1e:af:97:32:a6:e4:e3:d5:15:
         4c:1e:d8:82:16:5f:fc:79:9b:6e:4e:5e:b0:83:8e:09:4f:58:
         32:93:9c:6b:c9:23:25:b3:05:f9:6f:ac:53:68:99:bc:19:75:
         a6:89:26:ca:5b:0a:b8:fc:7e:d4:a0:84:2d:b9:ea:64:7c:0b:
         27:e8:99:8c:1a:67:ad:ba:e8:25:6d:14:06:8f:8a:f0:e1:c4:
         8a:f3:96:71:b2:b7:ab:f7:03:9f:77:bc:15:d2:9e:a6:47:8b:
         ed:00:5b:d0:e1:fd:65:23:61:fe:11:87:86:9b:9c:d1:d7:87:
         af:0a:4e:af:41:c1:14:cb:5a:26:c9:8d:d6:80:05:1e:94:e8:
         20:82:36:fe:9e:21:9e:6c:7b:9a:64:2b:56:21:a4:8a:8e:8f:
         a3:26:e8:12:78:31:af:f2:25:86:cb:c9:15:15:aa:03:f7:f5:
         ab:74:b4:14:02:9d:60:33:4b:60:25:ba:e7:a0:73:16:61:d4:
         47:94:c3:a5:27:47:9b:b4:4c:ba:0c:ab:e8:dc:5c:fa:72:98:
         14:fa:13:fe:66:97:35:16
-----BEGIN CERTIFICATE-----
MIIGrDCCBJSgAwIBAgICAggwDQYJKoZIhvcNAQEEBQAwgawxCzAJBgNVBAYTAlVT
MQswCQYDVQQIEwJPSDERMA8GA1UEBxMIQ29sdW1idXMxEjAQBgNVBAoTCVZpa2lu
Z1ZQTjEdMBsGA1UECxMUTXlPcmdhbml6YXRpb25hbFVuaXQxFTATBgNVBAMTDFZp
a2luZ1ZQTiBDQTEQMA4GA1UEKRMHRWFzeVJTQTEhMB8GCSqGSIb3DQEJARYSbWVA
bXlob3N0Lm15ZG9tYWluMB4XDTEzMTIwNDIyMzYyMVoXDTIzMTIwMjIyMzYyMVow
HjEcMBoGA1UEAxMTQ2xpZW50MjE5Q2VydGZjYmY2ZTCCAiIwDQYJKoZIhvcNAQEB
BQADggIPADCCAgoCggIBAMpegAnOj1V6hlyLLJklQe+vid4jcGaag+IsejQYCjRS
hzxvw2N18NRFDyJkvn8wfpOXwUoA5OsDPPUynSYpzYhR5xeas45bJ4dST5Pqw+QR
TORleLMOx6NGUt1mLlk2jKS9keEhH3Ii0IPHXrgr6Hf/ccw7FySc0T8cfCi96wKK
caxk6NJVbJlgufUl6O1Lj8b1JSdw2jq0ia+6OibJlpb+RUJCwf0gs+aXsSfvLN5q
blwVhmUo6hIr3Vz8zu0WKOK4C06412pvakSRZ2RFM7UskEO6P+cI6Nv2pAICfBai
sCB9VaKOt2iVBoazHfK5CrcncAfNxBfq3isnZ6v6LhvnmWsmh7+qZkZsuPbKJX9M
uyl7oLnP7RMZYmDlLf3V1JciX1oJSOozW+fgSF0zkNWpQG6xNgH9PqaRcTR3m4El
gzG+KqaiOyBlx2qY995+Y8jhALoKD8ezJPbVgzRp4v8RfKaTnRYoT5QSV6pdjsey
4Y4vZcOr5JnyC9QK251GpBsZL5P2UNcDxq7cBB63evrw4JOKk+hampg71GRo+CHY
h7dtz7D1NikOMnyKJWDgZoa/853hEFW9zBUeWSjDUbKwZvzQBwhupouS6UnpxZDI
3g3co8yLH7L3HTqKeybZk8rkYTXSIkSqEe63FZfXIrV/Tz8qS4E9jmz/gt22idlX
AgMBAAGjggFjMIIBXzAJBgNVHRMEAjAAMC0GCWCGSAGG+EIBDQQgFh5FYXN5LVJT
QSBHZW5lcmF0ZWQgQ2VydGlmaWNhdGUwHQYDVR0OBBYEFF15AjELZ3Yy/2fPUkVp
SlrXOGg+MIHhBgNVHSMEgdkwgdaAFBLNYATSoICecO3Gmbh7LMZS/RmhoYGypIGv
MIGsMQswCQYDVQQGEwJVUzELMAkGA1UECBMCT0gxETAPBgNVBAcTCENvbHVtYnVz
MRIwEAYDVQQKEwlWaWtpbmdWUE4xHTAbBgNVBAsTFE15T3JnYW5pemF0aW9uYWxV
bml0MRUwEwYDVQQDEwxWaWtpbmdWUE4gQ0ExEDAOBgNVBCkTB0Vhc3lSU0ExITAf
BgkqhkiG9w0BCQEWEm1lQG15aG9zdC5teWRvbWFpboIJAM81he6Avyo+MBMGA1Ud
JQQMMAoGCCsGAQUFBwMCMAsGA1UdDwQEAwIHgDANBgkqhkiG9w0BAQQFAAOCAgEA
6tnl17UZh7VeJev0ERWHBvws//MUz8jsqHLFGBLJ5DFFinzKB2uQx4qQxCtSxOJ9
rhZU8b4YaDgAlfjnLWlDHo3LK7l2s+AWtxxp4CD4TW4wxbxQgcs1/2gQhoSIA/wD
A/SSXuoNJI1QxuRHjDosSVjchBVz2x9L7fBgGRvRqxCnH1NdfXxehbcG+DoF5Itl
OwvVBZkOH6D3AXuxxohVZy+neoAwaWZFlLv0FGrhimeFGzvmXlIZmzU7CX9RODz3
reBpq0bwxsO+X4RO3EcK7EVuT+qEpz2EisW8ToESWIVmIiDS94dV8zZQft8+o32A
d7R4BiBf8zpETpQlbORqpHi46JAXxClLpYa/xxMfLBAKHukwjERNkV1+7fl1pirr
sntrnMty6/OLHq+XMqbk49UVTB7YghZf/Hmbbk5esIOOCU9YMpOca8kjJbMF+W+s
U2iZvBl1pokmylsKuPx+1KCELbnqZHwLJ+iZjBpnrbroJW0UBo+K8OHEivOWcbK3
q/cDn3e8FdKepkeL7QBb0OH9ZSNh/hGHhpuc0deHrwpOr0HBFMtaJsmN1oAFHpTo
III2/p4hnmx7mmQrViGkio6PoyboEngxr/IlhsvJFRWqA/f1q3S0FAKdYDNLYCW6
56BzFmHUR5TDpSdHm7RMugyr6Nxc+nKYFPoT/maXNRY=
-----END CERTIFICATE-----
