Certificate:
    Data:
        Version: 3 (0x2)
        Serial Number: 6542 (0x198e)
    Signature Algorithm: md5WithRSAEncryption
        Issuer: C=US, ST=OH, L=Columbus, O=VikingVPN, OU=MyOrganizationalUnit, CN=VikingVPN CA/name=EasyRSA/emailAddress=me@myhost.mydomain
        Validity
            Not Before: Oct 21 21:40:16 2015 GMT
            Not After : Oct 18 21:40:16 2025 GMT
        Subject: CN=Client2012Certf2310e
        Subject Public Key Info:
            Public Key Algorithm: rsaEncryption
                Public-Key: (4096 bit)
                Modulus:
                    00:d3:fa:b1:0a:a9:f5:03:8b:94:c7:f6:b7:11:39:
                    ac:d4:77:7c:10:d3:51:0b:e6:c0:76:a9:91:b9:3c:
                    d7:ca:46:49:70:c8:80:c0:75:ff:c9:11:d3:4e:70:
                    bf:51:48:21:92:ac:a5:62:35:92:98:9e:35:77:bd:
                    ed:c6:4e:7e:96:96:21:66:9d:e5:87:04:9c:cb:fb:
                    e6:55:ba:38:8a:cf:8c:41:af:49:14:ba:15:3f:0f:
                    0a:35:7b:0d:78:37:a1:82:6b:46:d6:0b:3b:eb:00:
                    9e:7b:a0:8f:28:70:96:fa:78:67:ae:46:ae:a4:2e:
                    7b:7c:82:b6:48:f0:13:bd:53:48:36:d9:8b:a1:03:
                    2f:b8:ee:b3:20:ef:eb:66:2c:d5:38:bc:4b:57:aa:
                    da:eb:ca:9f:8b:0b:30:37:ad:67:fb:00:25:55:f7:
                    12:05:e2:b7:ff:d1:ab:75:a2:35:ae:a8:a3:3b:fa:
                    89:4a:45:a3:75:8a:c4:c8:78:1f:60:28:55:eb:8a:
                    2a:40:b8:7b:b9:71:46:4a:41:41:c4:30:00:f2:b3:
                    13:95:d5:3c:a9:6c:a8:81:3b:35:a4:5e:b1:ab:3f:
                    06:46:0f:72:33:c9:6e:f1:97:2e:1f:ac:fa:fe:76:
                    5a:e5:c1:d3:68:06:77:ae:f7:8b:e7:c4:ae:ec:c6:
                    26:52:e3:dd:5d:91:65:3e:de:62:00:6e:f7:ee:3b:
                    28:2a:5a:b0:c9:08:1c:d2:aa:4f:da:28:81:16:dd:
                    b5:5f:3f:2e:6c:cd:cd:40:73:9e:a2:4b:e9:10:18:
                    35:c6:b2:2c:e2:0a:4b:c4:74:8d:aa:0c:8e:b4:37:
                    55:da:6b:1e:de:51:9b:9f:16:b8:23:c7:68:08:63:
                    7c:77:68:88:4c:3a:bb:6e:42:fc:e3:c4:9a:37:db:
                    2d:53:53:2e:82:fe:ab:45:76:9e:8d:88:f8:38:97:
                    ab:a2:80:4d:17:4b:f3:86:5e:28:24:aa:d8:34:46:
                    34:ff:87:81:16:dd:19:17:c6:0e:45:6c:b7:72:89:
                    43:c1:00:12:39:f3:c2:49:34:9c:07:08:a1:dc:dd:
                    40:56:90:a6:73:0f:2e:b5:ab:c5:a2:c4:04:6c:08:
                    86:5d:54:bf:a3:26:5d:3a:a8:4f:4c:07:8f:a6:3d:
                    b0:e4:d6:b4:c6:c7:19:33:4d:50:97:d6:95:cc:be:
                    9e:b2:01:d1:01:cb:d4:a1:be:7d:c0:6d:7e:9e:17:
                    71:e3:e0:68:d3:aa:5a:83:5a:96:7f:98:30:d7:99:
                    8d:ff:7b:4e:f5:a3:23:9a:ac:88:f9:c7:9b:b5:ff:
                    bf:e9:4f:6a:24:86:81:60:a0:77:9f:ba:f6:fb:c8:
                    2d:e2:e5
                Exponent: 65537 (0x10001)
        X509v3 extensions:
            X509v3 Basic Constraints: 
                CA:FALSE
            Netscape Comment: 
                Easy-RSA Generated Certificate
            X509v3 Subject Key Identifier: 
                B2:1A:A3:B1:40:57:B0:C2:38:06:35:E4:8F:BD:10:29:80:8B:E3:6B
            X509v3 Authority Key Identifier: 
                keyid:12:CD:60:04:D2:A0:80:9E:70:ED:C6:99:B8:7B:2C:C6:52:FD:19:A1
                DirName:/C=US/ST=OH/L=Columbus/O=VikingVPN/OU=MyOrganizationalUnit/CN=VikingVPN CA/name=EasyRSA/emailAddress=me@myhost.mydomain
                serial:CF:35:85:EE:80:BF:2A:3E

            X509v3 Extended Key Usage: 
                TLS Web Client Authentication
            X509v3 Key Usage: 
                Digital Signature
    Signature Algorithm: md5WithRSAEncryption
         cd:08:55:8f:22:ee:e1:c5:19:e5:63:59:e0:44:54:9c:82:80:
         5e:41:70:28:6b:dd:dd:bf:c5:2d:d4:c8:64:bb:27:ec:83:26:
         24:ba:bf:43:54:b4:78:b3:e3:59:de:41:09:6c:0b:69:14:a4:
         99:5c:61:86:c9:9d:a4:99:54:79:b6:d0:19:e4:a8:7b:1c:33:
         65:bf:7f:27:2a:f2:92:40:fd:55:fb:ce:b7:6a:11:70:29:08:
         da:e7:b6:65:06:94:30:50:4b:ce:9c:53:54:09:cd:4c:51:9b:
         79:f6:e6:64:6d:61:c2:57:40:38:be:bf:fa:0b:59:86:f8:66:
         25:f7:38:5b:99:8f:c0:6a:e9:b9:05:9b:29:3a:11:fa:d3:a1:
         fe:52:38:30:8a:dd:77:30:29:ae:18:70:5e:3a:d2:c5:e3:c4:
         7c:a8:6e:da:e9:c0:72:be:54:82:e3:43:ae:e1:e6:47:06:d9:
         54:2d:a6:dc:a9:01:92:1b:56:a8:e3:22:81:15:9a:2d:fe:7d:
         06:2c:aa:b1:02:c7:6b:3a:a0:0c:da:25:9d:f8:65:b8:3d:fc:
         d6:99:af:c1:e1:33:22:6f:b9:8b:61:76:dc:85:90:d9:d4:ca:
         46:8a:8c:4b:09:fe:fc:9f:44:eb:34:90:61:1b:9e:8a:c5:0c:
         c7:bc:dc:5b:17:37:28:eb:18:30:48:e9:a0:68:5b:d8:23:02:
         47:88:5a:ec:f2:0d:36:d9:03:74:1b:4a:6b:79:f6:3b:33:1a:
         be:9c:b4:ce:08:de:0f:19:1d:00:ed:55:59:1f:d9:77:b9:fc:
         00:bb:d0:2d:d8:92:5a:c8:d3:cb:db:62:f1:ef:35:ac:4a:ba:
         49:60:12:9a:9f:9d:8a:de:45:3b:6d:bf:3d:45:bb:fd:b5:4e:
         4c:92:b3:6d:5f:f9:d8:2e:10:1d:1e:53:62:1d:1e:77:b1:72:
         b0:c4:2f:af:a4:1a:21:87:a5:57:31:e6:07:f4:f4:91:c4:b7:
         09:0c:fe:8b:7a:f0:a6:b1:74:fb:0a:15:ee:6d:83:a3:7a:32:
         dc:04:b6:cc:81:3c:5c:f8:5c:42:1d:f6:f6:e6:1b:0c:39:aa:
         ad:21:32:47:38:44:37:6c:e7:ea:af:11:e1:35:c5:9b:19:65:
         0f:0d:a5:f6:41:08:93:6c:64:2d:fb:ad:e3:ec:e6:67:fb:e3:
         62:93:5f:3c:cd:55:fe:50:23:39:1f:d7:9c:3a:92:fe:2a:c4:
         bd:ef:f3:6d:9b:c8:a6:4f:66:c9:6d:88:eb:e2:60:76:18:00:
         d7:4a:de:56:2b:1c:be:54:b0:21:1d:e9:92:37:eb:c4:07:e9:
         a0:be:5e:34:42:2d:60:63
-----BEGIN CERTIFICATE-----
MIIGrTCCBJWgAwIBAgICGY4wDQYJKoZIhvcNAQEEBQAwgawxCzAJBgNVBAYTAlVT
MQswCQYDVQQIEwJPSDERMA8GA1UEBxMIQ29sdW1idXMxEjAQBgNVBAoTCVZpa2lu
Z1ZQTjEdMBsGA1UECxMUTXlPcmdhbml6YXRpb25hbFVuaXQxFTATBgNVBAMTDFZp
a2luZ1ZQTiBDQTEQMA4GA1UEKRMHRWFzeVJTQTEhMB8GCSqGSIb3DQEJARYSbWVA
bXlob3N0Lm15ZG9tYWluMB4XDTE1MTAyMTIxNDAxNloXDTI1MTAxODIxNDAxNlow
HzEdMBsGA1UEAxMUQ2xpZW50MjAxMkNlcnRmMjMxMGUwggIiMA0GCSqGSIb3DQEB
AQUAA4ICDwAwggIKAoICAQDT+rEKqfUDi5TH9rcROazUd3wQ01EL5sB2qZG5PNfK
RklwyIDAdf/JEdNOcL9RSCGSrKViNZKYnjV3ve3GTn6WliFmneWHBJzL++ZVujiK
z4xBr0kUuhU/Dwo1ew14N6GCa0bWCzvrAJ57oI8ocJb6eGeuRq6kLnt8grZI8BO9
U0g22YuhAy+47rMg7+tmLNU4vEtXqtrryp+LCzA3rWf7ACVV9xIF4rf/0at1ojWu
qKM7+olKRaN1isTIeB9gKFXriipAuHu5cUZKQUHEMADysxOV1TypbKiBOzWkXrGr
PwZGD3IzyW7xly4frPr+dlrlwdNoBneu94vnxK7sxiZS491dkWU+3mIAbvfuOygq
WrDJCBzSqk/aKIEW3bVfPy5szc1Ac56iS+kQGDXGsiziCkvEdI2qDI60N1Xaax7e
UZufFrgjx2gIY3x3aIhMOrtuQvzjxJo32y1TUy6C/qtFdp6NiPg4l6uigE0XS/OG
Xigkqtg0RjT/h4EW3RkXxg5FbLdyiUPBABI588JJNJwHCKHc3UBWkKZzDy61q8Wi
xARsCIZdVL+jJl06qE9MB4+mPbDk1rTGxxkzTVCX1pXMvp6yAdEBy9Shvn3AbX6e
F3Hj4GjTqlqDWpZ/mDDXmY3/e071oyOarIj5x5u1/7/pT2okhoFgoHefuvb7yC3i
5QIDAQABo4IBYzCCAV8wCQYDVR0TBAIwADAtBglghkgBhvhCAQ0EIBYeRWFzeS1S
U0EgR2VuZXJhdGVkIENlcnRpZmljYXRlMB0GA1UdDgQWBBSyGqOxQFewwjgGNeSP
vRApgIvjazCB4QYDVR0jBIHZMIHWgBQSzWAE0qCAnnDtxpm4eyzGUv0ZoaGBsqSB
rzCBrDELMAkGA1UEBhMCVVMxCzAJBgNVBAgTAk9IMREwDwYDVQQHEwhDb2x1bWJ1
czESMBAGA1UEChMJVmlraW5nVlBOMR0wGwYDVQQLExRNeU9yZ2FuaXphdGlvbmFs
VW5pdDEVMBMGA1UEAxMMVmlraW5nVlBOIENBMRAwDgYDVQQpEwdFYXN5UlNBMSEw
HwYJKoZIhvcNAQkBFhJtZUBteWhvc3QubXlkb21haW6CCQDPNYXugL8qPjATBgNV
HSUEDDAKBggrBgEFBQcDAjALBgNVHQ8EBAMCB4AwDQYJKoZIhvcNAQEEBQADggIB
AM0IVY8i7uHFGeVjWeBEVJyCgF5BcChr3d2/xS3UyGS7J+yDJiS6v0NUtHiz41ne
QQlsC2kUpJlcYYbJnaSZVHm20BnkqHscM2W/fycq8pJA/VX7zrdqEXApCNrntmUG
lDBQS86cU1QJzUxRm3n25mRtYcJXQDi+v/oLWYb4ZiX3OFuZj8Bq6bkFmyk6EfrT
of5SODCK3XcwKa4YcF460sXjxHyobtrpwHK+VILjQ67h5kcG2VQtptypAZIbVqjj
IoEVmi3+fQYsqrECx2s6oAzaJZ34Zbg9/NaZr8HhMyJvuYthdtyFkNnUykaKjEsJ
/vyfROs0kGEbnorFDMe83FsXNyjrGDBI6aBoW9gjAkeIWuzyDTbZA3QbSmt59jsz
Gr6ctM4I3g8ZHQDtVVkf2Xe5/AC70C3YklrI08vbYvHvNaxKuklgEpqfnYreRTtt
vz1Fu/21TkySs21f+dguEB0eU2IdHnexcrDEL6+kGiGHpVcx5gf09JHEtwkM/ot6
8KaxdPsKFe5tg6N6MtwEtsyBPFz4XEId9vbmGww5qq0hMkc4RDds5+qvEeE1xZsZ
ZQ8NpfZBCJNsZC37rePs5mf742KTXzzNVf5QIzkf15w6kv4qxL3v822byKZPZslt
iOviYHYYANdK3lYrHL5UsCEd6ZI368QH6aC+XjRCLWBj
-----END CERTIFICATE-----
