Certificate:
    Data:
        Version: 3 (0x2)
        Serial Number: 1505 (0x5e1)
    Signature Algorithm: md5WithRSAEncryption
        Issuer: C=US, ST=OH, L=Columbus, O=VikingVPN, OU=MyOrganizationalUnit, CN=VikingVPN CA/name=EasyRSA/emailAddress=me@myhost.mydomain
        Validity
            Not Before: Apr  7 12:07:31 2014 GMT
            Not After : Apr  4 12:07:31 2024 GMT
        Subject: CN=Client562Certb9527a
        Subject Public Key Info:
            Public Key Algorithm: rsaEncryption
                Public-Key: (4096 bit)
                Modulus:
                    00:c6:cb:4f:bd:29:ef:02:8f:8f:ae:6a:77:2b:84:
                    41:92:c1:99:5a:27:31:c5:ac:e5:fc:65:fd:40:72:
                    6a:38:a3:38:96:50:28:a2:78:41:52:67:56:cb:3b:
                    d6:f8:9a:ab:a5:46:34:7b:32:6a:14:53:df:60:b4:
                    ae:7d:78:76:5b:e4:c6:61:18:32:11:d7:f2:8c:c8:
                    34:e4:01:68:16:7d:e2:2f:73:f1:4e:e8:ba:62:ad:
                    2e:82:5c:37:9c:2d:86:fd:5d:67:f3:e9:ef:37:88:
                    0d:21:47:0d:2a:a5:59:d0:ba:90:bb:ee:fa:63:16:
                    e2:20:c1:18:f0:41:fb:22:c5:4d:6d:ec:53:4f:d4:
                    b6:20:4c:ed:ba:ac:70:fc:88:da:da:35:d1:1b:13:
                    74:fb:42:86:4a:48:1a:2c:94:11:0a:d5:11:bf:02:
                    2e:e3:34:b2:f9:fb:53:2e:8a:a8:0d:68:8e:60:d6:
                    9f:1e:0f:a8:d5:d8:e9:ad:22:e9:2d:91:7b:f3:f7:
                    05:1d:5f:9f:c4:51:0f:ca:4f:12:64:2d:f4:18:6f:
                    7c:76:55:65:41:ff:bd:93:24:1a:bc:1f:93:21:a1:
                    c2:c7:6d:d8:44:32:b6:00:d0:ba:c1:91:44:53:a5:
                    7a:3c:fe:a8:76:4d:d7:82:1e:2b:30:bc:52:02:e1:
                    25:ca:65:f7:57:98:e2:cb:d1:26:36:2f:21:90:66:
                    83:41:eb:8e:4d:96:91:af:f3:99:90:d1:e7:5d:77:
                    7d:e2:55:7f:ca:d4:31:d6:0c:fc:1b:6b:a3:00:66:
                    76:28:07:ff:2d:c1:3f:7c:bf:49:d1:2d:4c:90:81:
                    7c:de:af:13:a2:9a:eb:8a:52:a6:a6:46:fe:8e:a0:
                    98:81:fb:c2:5f:14:1a:63:af:c3:43:3f:64:d3:41:
                    d2:cf:9b:ad:29:60:d4:a0:8d:3e:5f:38:b6:f8:02:
                    cb:66:8b:1e:25:48:94:21:80:29:4b:f3:f9:25:e9:
                    1e:99:4b:40:af:4d:6e:11:ff:90:46:1d:c1:9c:2f:
                    36:5b:e2:f0:0c:75:46:4e:99:c7:65:1d:40:6f:0b:
                    65:e2:26:69:45:a1:18:82:83:d8:0a:a5:e9:76:a3:
                    cb:aa:40:d5:f4:da:73:e0:62:91:6a:00:ae:cb:71:
                    c3:fa:d3:ed:a1:97:0e:b1:36:76:3f:91:0e:51:40:
                    77:ac:5e:16:ec:93:78:de:b6:5e:e7:54:97:f6:b1:
                    4d:d4:e8:81:8c:46:3b:88:4e:5e:a1:05:60:1b:cb:
                    ce:4d:36:f4:35:74:49:41:15:3c:9c:29:6a:e3:9f:
                    4a:19:ae:4b:03:0f:6f:0b:02:ed:cd:eb:ad:55:fc:
                    c0:78:43
                Exponent: 65537 (0x10001)
        X509v3 extensions:
            X509v3 Basic Constraints: 
                CA:FALSE
            Netscape Comment: 
                Easy-RSA Generated Certificate
            X509v3 Subject Key Identifier: 
                0D:91:A0:C5:73:E8:CB:52:1C:59:FB:C9:83:2F:AF:77:0B:84:8C:8D
            X509v3 Authority Key Identifier: 
                keyid:12:CD:60:04:D2:A0:80:9E:70:ED:C6:99:B8:7B:2C:C6:52:FD:19:A1
                DirName:/C=US/ST=OH/L=Columbus/O=VikingVPN/OU=MyOrganizationalUnit/CN=VikingVPN CA/name=EasyRSA/emailAddress=me@myhost.mydomain
                serial:CF:35:85:EE:80:BF:2A:3E

            X509v3 Extended Key Usage: 
                TLS Web Client Authentication
            X509v3 Key Usage: 
                Digital Signature
    Signature Algorithm: md5WithRSAEncryption
         e8:ed:53:16:fe:fe:41:94:ac:5e:63:c5:97:ca:2c:d9:77:31:
         b6:28:e0:aa:b4:29:7a:44:e9:57:cd:e0:64:d3:5c:ba:49:b7:
         ce:c8:11:4e:a9:89:18:94:6a:f0:3d:9b:61:1d:e0:e6:0d:19:
         44:04:54:ba:6f:e3:f9:77:dc:b5:4f:f9:78:a1:3a:5c:27:b0:
         ae:2d:79:17:6d:14:bb:53:37:b5:43:b9:cc:10:1e:fd:ae:cc:
         93:e9:82:2a:0d:98:e8:25:09:06:83:7b:bf:fd:4f:95:19:d9:
         a1:d5:64:4b:d5:0b:d2:8d:9b:cd:fc:50:3d:62:58:11:89:63:
         8d:dd:e9:4f:b1:4f:5e:80:4d:c1:11:21:af:da:fb:42:94:45:
         02:de:aa:97:1c:f5:e3:4a:56:4b:1d:f2:a7:f0:d2:a9:07:88:
         89:bf:e7:48:4b:2a:e4:41:58:34:5c:af:9e:23:46:53:c9:93:
         77:0e:8c:ab:3f:41:8d:65:93:8b:81:ff:4a:ea:59:2c:f7:94:
         43:ae:ef:a8:38:8c:cf:dd:0f:d6:5b:88:64:1f:18:79:c6:c0:
         c5:ad:01:88:15:01:a2:e4:9d:31:a5:e5:ef:f5:4c:42:9b:30:
         c6:04:ce:3f:0b:bb:44:86:c9:ba:ae:d2:a4:bb:1b:4a:1f:f0:
         41:2d:3b:cc:5f:47:e6:e1:c1:e1:d1:1d:45:1c:e2:8e:86:57:
         7f:f5:d1:7c:1a:3e:5c:46:aa:00:83:40:42:28:4e:8f:f6:ff:
         99:07:6a:a9:d0:ce:99:c4:2e:55:a3:a8:5e:e5:ec:0f:35:c5:
         f9:ba:58:c7:6f:2f:71:13:38:77:6a:a5:48:66:75:10:be:d1:
         29:b3:d4:2d:84:a6:b7:ee:13:12:05:db:93:40:ba:04:17:8a:
         5a:d8:85:c4:45:2b:61:13:6c:3b:87:40:04:c2:d2:6e:92:98:
         b6:36:27:7d:d0:1f:2f:66:8b:2c:36:f9:70:bd:fc:8d:77:04:
         a7:50:a5:37:58:0b:3f:ed:d7:a0:82:e3:42:12:16:4a:41:9e:
         7e:25:3b:fe:82:67:92:7f:7d:4b:97:5f:be:ac:e8:c1:e2:67:
         54:a6:f9:3d:31:8c:cb:4f:26:c2:42:0a:e1:3b:a9:03:0a:cc:
         f6:01:cd:23:27:88:97:1f:bd:dc:56:5d:b9:f8:94:8f:32:99:
         60:bc:c1:ef:df:7d:74:c3:66:ee:86:95:1b:41:ef:65:87:42:
         a0:1d:1e:aa:8d:ea:3c:a4:11:44:14:01:24:7d:05:bd:cb:5f:
         a9:0d:11:df:25:52:e7:1f:c9:42:c5:5a:cd:2c:79:a0:f6:1b:
         9b:f9:c5:dd:9e:76:91:80
-----BEGIN CERTIFICATE-----
MIIGrDCCBJSgAwIBAgICBeEwDQYJKoZIhvcNAQEEBQAwgawxCzAJBgNVBAYTAlVT
MQswCQYDVQQIEwJPSDERMA8GA1UEBxMIQ29sdW1idXMxEjAQBgNVBAoTCVZpa2lu
Z1ZQTjEdMBsGA1UECxMUTXlPcmdhbml6YXRpb25hbFVuaXQxFTATBgNVBAMTDFZp
a2luZ1ZQTiBDQTEQMA4GA1UEKRMHRWFzeVJTQTEhMB8GCSqGSIb3DQEJARYSbWVA
bXlob3N0Lm15ZG9tYWluMB4XDTE0MDQwNzEyMDczMVoXDTI0MDQwNDEyMDczMVow
HjEcMBoGA1UEAxMTQ2xpZW50NTYyQ2VydGI5NTI3YTCCAiIwDQYJKoZIhvcNAQEB
BQADggIPADCCAgoCggIBAMbLT70p7wKPj65qdyuEQZLBmVonMcWs5fxl/UByajij
OJZQKKJ4QVJnVss71viaq6VGNHsyahRT32C0rn14dlvkxmEYMhHX8ozINOQBaBZ9
4i9z8U7oumKtLoJcN5wthv1dZ/Pp7zeIDSFHDSqlWdC6kLvu+mMW4iDBGPBB+yLF
TW3sU0/UtiBM7bqscPyI2to10RsTdPtChkpIGiyUEQrVEb8CLuM0svn7Uy6KqA1o
jmDWnx4PqNXY6a0i6S2Re/P3BR1fn8RRD8pPEmQt9BhvfHZVZUH/vZMkGrwfkyGh
wsdt2EQytgDQusGRRFOlejz+qHZN14IeKzC8UgLhJcpl91eY4svRJjYvIZBmg0Hr
jk2Wka/zmZDR5113feJVf8rUMdYM/BtrowBmdigH/y3BP3y/SdEtTJCBfN6vE6Ka
64pSpqZG/o6gmIH7wl8UGmOvw0M/ZNNB0s+brSlg1KCNPl84tvgCy2aLHiVIlCGA
KUvz+SXpHplLQK9NbhH/kEYdwZwvNlvi8Ax1Rk6Zx2UdQG8LZeImaUWhGIKD2Aql
6Xajy6pA1fTac+BikWoArstxw/rT7aGXDrE2dj+RDlFAd6xeFuyTeN62XudUl/ax
TdTogYxGO4hOXqEFYBvLzk029DV0SUEVPJwpauOfShmuSwMPbwsC7c3rrVX8wHhD
AgMBAAGjggFjMIIBXzAJBgNVHRMEAjAAMC0GCWCGSAGG+EIBDQQgFh5FYXN5LVJT
QSBHZW5lcmF0ZWQgQ2VydGlmaWNhdGUwHQYDVR0OBBYEFA2RoMVz6MtSHFn7yYMv
r3cLhIyNMIHhBgNVHSMEgdkwgdaAFBLNYATSoICecO3Gmbh7LMZS/RmhoYGypIGv
MIGsMQswCQYDVQQGEwJVUzELMAkGA1UECBMCT0gxETAPBgNVBAcTCENvbHVtYnVz
MRIwEAYDVQQKEwlWaWtpbmdWUE4xHTAbBgNVBAsTFE15T3JnYW5pemF0aW9uYWxV
bml0MRUwEwYDVQQDEwxWaWtpbmdWUE4gQ0ExEDAOBgNVBCkTB0Vhc3lSU0ExITAf
BgkqhkiG9w0BCQEWEm1lQG15aG9zdC5teWRvbWFpboIJAM81he6Avyo+MBMGA1Ud
JQQMMAoGCCsGAQUFBwMCMAsGA1UdDwQEAwIHgDANBgkqhkiG9w0BAQQFAAOCAgEA
6O1TFv7+QZSsXmPFl8os2XcxtijgqrQpekTpV83gZNNcukm3zsgRTqmJGJRq8D2b
YR3g5g0ZRARUum/j+XfctU/5eKE6XCewri15F20Uu1M3tUO5zBAe/a7Mk+mCKg2Y
6CUJBoN7v/1PlRnZodVkS9UL0o2bzfxQPWJYEYljjd3pT7FPXoBNwREhr9r7QpRF
At6qlxz140pWSx3yp/DSqQeIib/nSEsq5EFYNFyvniNGU8mTdw6Mqz9BjWWTi4H/
SupZLPeUQ67vqDiMz90P1luIZB8YecbAxa0BiBUBouSdMaXl7/VMQpswxgTOPwu7
RIbJuq7SpLsbSh/wQS07zF9H5uHB4dEdRRzijoZXf/XRfBo+XEaqAINAQihOj/b/
mQdqqdDOmcQuVaOoXuXsDzXF+bpYx28vcRM4d2qlSGZ1EL7RKbPULYSmt+4TEgXb
k0C6BBeKWtiFxEUrYRNsO4dABMLSbpKYtjYnfdAfL2aLLDb5cL38jXcEp1ClN1gL
P+3XoILjQhIWSkGefiU7/oJnkn99S5dfvqzoweJnVKb5PTGMy08mwkIK4TupAwrM
9gHNIyeIlx+93FZdufiUjzKZYLzB7999dMNm7oaVG0HvZYdCoB0eqo3qPKQRRBQB
JH0FvctfqQ0R3yVS5x/JQsVazSx5oPYbm/nF3Z52kYA=
-----END CERTIFICATE-----
