Certificate:
    Data:
        Version: 3 (0x2)
        Serial Number: 4663 (0x1237)
    Signature Algorithm: md5WithRSAEncryption
        Issuer: C=US, ST=OH, L=Columbus, O=VikingVPN, OU=MyOrganizationalUnit, CN=VikingVPN CA/name=EasyRSA/emailAddress=me@myhost.mydomain
        Validity
            Not Before: Mar  5 20:02:33 2015 GMT
            Not After : Mar  2 20:02:33 2025 GMT
        Subject: CN=Client1520Cert89e5fb
        Subject Public Key Info:
            Public Key Algorithm: rsaEncryption
                Public-Key: (4096 bit)
                Modulus:
                    00:b0:5e:21:a0:46:7b:5c:c4:5a:3c:af:91:65:38:
                    a1:ee:72:9e:ea:3e:8b:d1:b4:91:3d:9f:af:52:9f:
                    12:c1:fc:c0:5a:2d:49:1b:70:a0:53:5e:d5:f8:a0:
                    8e:21:b1:bf:85:e1:69:24:87:b9:22:d5:8e:8b:b8:
                    6e:cb:ac:15:77:26:c2:b3:32:e3:51:c3:c3:bc:3a:
                    3a:89:b1:8f:30:f0:56:e9:52:7b:6b:f3:d2:58:2f:
                    dc:33:eb:31:63:fd:57:08:e1:71:9d:e8:44:30:d0:
                    87:e7:9e:64:a6:cb:f4:5f:39:8c:c8:3b:64:ae:c7:
                    ea:ba:df:dd:03:54:d9:89:39:8b:ea:6b:bb:4b:a9:
                    88:3c:35:5f:a3:8d:f7:c6:64:28:63:47:af:c2:13:
                    83:2f:1a:a0:0e:22:84:85:4d:2b:ba:5c:e8:f2:10:
                    5e:dd:77:6f:5f:b7:99:f1:35:a1:69:06:80:5e:9d:
                    c3:ca:c5:6e:31:33:1c:7c:f1:19:29:21:5f:b6:b9:
                    1b:d6:41:ca:be:f7:a7:78:b2:2d:51:6b:23:94:5e:
                    3f:79:79:d7:ab:2e:4f:60:1c:98:d4:5f:dc:20:ac:
                    dd:24:29:0e:05:d4:4b:9b:65:d6:5c:5b:64:ac:d4:
                    06:09:a9:0b:95:cd:d4:d9:46:37:84:54:bc:a6:13:
                    8d:d4:9b:09:9f:db:b9:c7:17:a0:62:d8:8c:f4:2d:
                    15:35:63:59:8b:49:16:d4:94:7d:40:bf:2c:ea:1c:
                    85:ce:9d:a0:de:6a:cd:66:4a:e3:85:a9:f8:1b:ba:
                    01:8b:a5:95:b8:d6:8a:1d:b9:93:66:d6:57:49:f0:
                    fe:dd:c7:db:1e:94:ca:c9:71:e7:fc:16:87:d8:a3:
                    19:59:f2:18:1d:c3:b7:37:f4:b5:1a:62:bb:4c:3d:
                    aa:d3:3a:20:41:2c:94:04:86:87:f2:6d:f8:dc:56:
                    ff:20:42:0b:dd:76:6b:60:3e:54:0b:4b:ea:f6:1f:
                    ea:ac:c6:63:20:00:65:87:9d:d4:3a:af:35:b6:0f:
                    30:4b:80:ce:da:a8:49:09:6a:0b:de:b0:7c:ed:2a:
                    8c:4c:14:9d:b3:de:aa:7e:f7:69:c0:b3:ac:7b:ad:
                    3e:cc:8d:39:fb:52:08:2d:ed:1b:b6:c1:15:36:9a:
                    48:8a:b1:51:88:2c:df:4e:39:5a:c7:d0:60:10:37:
                    cd:ca:1f:58:65:5f:9e:52:c4:16:eb:80:8e:f7:b7:
                    94:d2:68:a1:11:1b:21:a1:52:bd:a2:99:39:f2:bf:
                    9d:c8:22:ae:0c:49:7c:67:5a:52:04:32:84:4c:db:
                    af:d4:45:11:12:a4:f5:e3:c2:43:48:de:c6:17:0a:
                    b3:83:55
                Exponent: 65537 (0x10001)
        X509v3 extensions:
            X509v3 Basic Constraints: 
                CA:FALSE
            Netscape Comment: 
                Easy-RSA Generated Certificate
            X509v3 Subject Key Identifier: 
                C2:27:CE:84:B5:67:50:F4:DB:46:B7:0B:24:68:34:EB:8C:FB:4C:8D
            X509v3 Authority Key Identifier: 
                keyid:12:CD:60:04:D2:A0:80:9E:70:ED:C6:99:B8:7B:2C:C6:52:FD:19:A1
                DirName:/C=US/ST=OH/L=Columbus/O=VikingVPN/OU=MyOrganizationalUnit/CN=VikingVPN CA/name=EasyRSA/emailAddress=me@myhost.mydomain
                serial:CF:35:85:EE:80:BF:2A:3E

            X509v3 Extended Key Usage: 
                TLS Web Client Authentication
            X509v3 Key Usage: 
                Digital Signature
    Signature Algorithm: md5WithRSAEncryption
         a3:90:bc:53:b7:34:da:4c:73:06:c7:91:3a:9b:db:17:32:7f:
         4f:0b:a1:18:58:8f:3d:cb:67:4e:b6:c6:02:03:93:10:64:ed:
         c5:7a:84:6c:52:2d:b4:85:3e:42:9b:9b:a5:9c:35:79:0a:74:
         7c:54:2b:53:da:25:ca:d5:bd:1c:53:2d:34:fb:d9:50:9d:12:
         91:2a:9d:ea:43:42:7b:fe:a6:91:ab:95:08:c9:77:47:44:56:
         00:ca:ed:cc:96:ac:18:c8:28:52:d2:5f:05:fd:61:5e:88:93:
         08:5d:41:60:7a:dc:35:e2:ba:0c:f3:99:77:5f:86:61:07:16:
         90:ed:4a:1d:aa:47:23:90:75:16:8e:5d:8f:4a:83:9f:fc:09:
         dc:d4:f9:b0:43:26:07:db:4d:6d:18:95:62:07:11:89:a9:6b:
         fd:db:70:71:3f:b6:89:20:8b:53:a0:0c:a2:39:b7:4a:78:2d:
         9b:29:5f:49:ce:32:fb:b7:57:37:e9:e6:df:cb:7a:13:d8:e3:
         d5:34:ea:d4:70:ba:f2:0c:e1:5f:fe:bf:2d:a2:39:d4:63:cb:
         b7:08:99:89:28:91:94:5c:63:05:58:09:7d:ec:53:59:d6:de:
         ed:43:34:6d:5c:99:44:5d:60:65:61:26:23:4a:f5:3b:61:35:
         ac:82:10:7d:25:36:e1:9d:b9:a2:82:b8:4b:51:92:33:fb:27:
         4c:45:a0:c4:c6:ef:d7:54:bd:6a:15:a2:0a:81:30:82:22:6e:
         fc:a2:72:c3:b7:6f:aa:57:5f:d2:85:44:89:4a:a7:71:42:37:
         58:ec:c8:a0:3f:30:73:80:ad:1f:26:7c:3e:09:c7:7d:55:0c:
         5a:34:e9:b6:a0:a7:a4:7e:95:8e:39:82:79:aa:d9:4f:b1:91:
         ec:35:79:d5:b5:b1:65:ff:97:8e:67:e6:5e:8b:f2:9a:b0:22:
         a0:a3:b7:e9:98:fc:d5:ff:e2:9c:19:b5:50:a1:57:54:5f:5c:
         c1:b4:fe:44:b5:8a:3b:2c:c4:9b:48:51:a8:c1:3e:6f:41:b3:
         89:12:29:f9:ff:1f:c5:c9:d1:eb:03:c7:8f:8d:ea:9f:5d:81:
         26:75:41:ce:ab:ea:8c:cf:09:e6:87:28:a3:c5:e0:1c:5a:7e:
         b9:4a:b3:32:86:9e:98:f3:ea:a7:9b:e2:9d:63:46:f3:03:a9:
         e5:cd:9f:35:ce:3a:50:58:e1:8d:1b:9f:a8:3c:9c:81:67:ac:
         fa:0b:c9:01:33:9f:e2:67:2c:66:82:2b:5f:38:e7:b2:9d:e7:
         9c:f9:b5:47:50:bf:b5:a1:71:f5:cb:2f:eb:80:ab:d4:59:70:
         38:d2:4b:48:7d:1f:ee:b5
-----BEGIN CERTIFICATE-----
MIIGrTCCBJWgAwIBAgICEjcwDQYJKoZIhvcNAQEEBQAwgawxCzAJBgNVBAYTAlVT
MQswCQYDVQQIEwJPSDERMA8GA1UEBxMIQ29sdW1idXMxEjAQBgNVBAoTCVZpa2lu
Z1ZQTjEdMBsGA1UECxMUTXlPcmdhbml6YXRpb25hbFVuaXQxFTATBgNVBAMTDFZp
a2luZ1ZQTiBDQTEQMA4GA1UEKRMHRWFzeVJTQTEhMB8GCSqGSIb3DQEJARYSbWVA
bXlob3N0Lm15ZG9tYWluMB4XDTE1MDMwNTIwMDIzM1oXDTI1MDMwMjIwMDIzM1ow
HzEdMBsGA1UEAxMUQ2xpZW50MTUyMENlcnQ4OWU1ZmIwggIiMA0GCSqGSIb3DQEB
AQUAA4ICDwAwggIKAoICAQCwXiGgRntcxFo8r5FlOKHucp7qPovRtJE9n69SnxLB
/MBaLUkbcKBTXtX4oI4hsb+F4Wkkh7ki1Y6LuG7LrBV3JsKzMuNRw8O8OjqJsY8w
8FbpUntr89JYL9wz6zFj/VcI4XGd6EQw0IfnnmSmy/RfOYzIO2Sux+q6390DVNmJ
OYvqa7tLqYg8NV+jjffGZChjR6/CE4MvGqAOIoSFTSu6XOjyEF7dd29ft5nxNaFp
BoBencPKxW4xMxx88RkpIV+2uRvWQcq+96d4si1RayOUXj95ederLk9gHJjUX9wg
rN0kKQ4F1EubZdZcW2Ss1AYJqQuVzdTZRjeEVLymE43Umwmf27nHF6Bi2Iz0LRU1
Y1mLSRbUlH1AvyzqHIXOnaDeas1mSuOFqfgbugGLpZW41ooduZNm1ldJ8P7dx9se
lMrJcef8FofYoxlZ8hgdw7c39LUaYrtMParTOiBBLJQEhofybfjcVv8gQgvddmtg
PlQLS+r2H+qsxmMgAGWHndQ6rzW2DzBLgM7aqEkJagvesHztKoxMFJ2z3qp+92nA
s6x7rT7MjTn7Uggt7Ru2wRU2mkiKsVGILN9OOVrH0GAQN83KH1hlX55SxBbrgI73
t5TSaKERGyGhUr2imTnyv53IIq4MSXxnWlIEMoRM26/URRESpPXjwkNI3sYXCrOD
VQIDAQABo4IBYzCCAV8wCQYDVR0TBAIwADAtBglghkgBhvhCAQ0EIBYeRWFzeS1S
U0EgR2VuZXJhdGVkIENlcnRpZmljYXRlMB0GA1UdDgQWBBTCJ86EtWdQ9NtGtwsk
aDTrjPtMjTCB4QYDVR0jBIHZMIHWgBQSzWAE0qCAnnDtxpm4eyzGUv0ZoaGBsqSB
rzCBrDELMAkGA1UEBhMCVVMxCzAJBgNVBAgTAk9IMREwDwYDVQQHEwhDb2x1bWJ1
czESMBAGA1UEChMJVmlraW5nVlBOMR0wGwYDVQQLExRNeU9yZ2FuaXphdGlvbmFs
VW5pdDEVMBMGA1UEAxMMVmlraW5nVlBOIENBMRAwDgYDVQQpEwdFYXN5UlNBMSEw
HwYJKoZIhvcNAQkBFhJtZUBteWhvc3QubXlkb21haW6CCQDPNYXugL8qPjATBgNV
HSUEDDAKBggrBgEFBQcDAjALBgNVHQ8EBAMCB4AwDQYJKoZIhvcNAQEEBQADggIB
AKOQvFO3NNpMcwbHkTqb2xcyf08LoRhYjz3LZ062xgIDkxBk7cV6hGxSLbSFPkKb
m6WcNXkKdHxUK1PaJcrVvRxTLTT72VCdEpEqnepDQnv+ppGrlQjJd0dEVgDK7cyW
rBjIKFLSXwX9YV6IkwhdQWB63DXiugzzmXdfhmEHFpDtSh2qRyOQdRaOXY9Kg5/8
CdzU+bBDJgfbTW0YlWIHEYmpa/3bcHE/tokgi1OgDKI5t0p4LZspX0nOMvu3Vzfp
5t/LehPY49U06tRwuvIM4V/+vy2iOdRjy7cImYkokZRcYwVYCX3sU1nW3u1DNG1c
mURdYGVhJiNK9TthNayCEH0lNuGduaKCuEtRkjP7J0xFoMTG79dUvWoVogqBMIIi
bvyicsO3b6pXX9KFRIlKp3FCN1jsyKA/MHOArR8mfD4Jx31VDFo06bagp6R+lY45
gnmq2U+xkew1edW1sWX/l45n5l6L8pqwIqCjt+mY/NX/4pwZtVChV1RfXMG0/kS1
ijssxJtIUajBPm9Bs4kSKfn/H8XJ0esDx4+N6p9dgSZ1Qc6r6ozPCeaHKKPF4Bxa
frlKszKGnpjz6qeb4p1jRvMDqeXNnzXOOlBY4Y0bn6g8nIFnrPoLyQEzn+JnLGaC
K18457Kd55z5tUdQv7WhcfXLL+uAq9RZcDjSS0h9H+61
-----END CERTIFICATE-----
