Certificate:
    Data:
        Version: 3 (0x2)
        Serial Number: 4655 (0x122f)
    Signature Algorithm: md5WithRSAEncryption
        Issuer: C=US, ST=OH, L=Columbus, O=VikingVPN, OU=MyOrganizationalUnit, CN=VikingVPN CA/name=EasyRSA/emailAddress=me@myhost.mydomain
        Validity
            Not Before: Mar  4 20:09:37 2015 GMT
            Not After : Mar  1 20:09:37 2025 GMT
        Subject: CN=Client1516Certa30c18
        Subject Public Key Info:
            Public Key Algorithm: rsaEncryption
                Public-Key: (4096 bit)
                Modulus:
                    00:cf:0f:73:58:55:7e:bb:ef:af:3c:b0:48:30:d6:
                    7e:ed:3b:c4:32:7f:f6:2d:97:60:79:9f:80:03:8c:
                    8e:23:51:2d:3a:6e:94:c6:c0:21:7b:19:30:ad:68:
                    73:94:ed:f1:69:75:c6:89:01:9e:cb:ea:75:02:c9:
                    af:3b:35:f7:e3:52:f2:98:01:a1:f1:ba:3b:41:91:
                    5e:94:52:b6:44:2d:31:fe:47:32:d2:9f:26:0b:77:
                    38:11:d0:ff:02:a0:07:7c:3f:f0:3f:ba:15:2f:49:
                    46:4a:8b:bb:57:5b:af:fd:9e:d4:54:5a:d7:7f:3f:
                    41:d0:4f:4b:0e:c7:28:c6:74:d5:33:32:8b:7e:18:
                    53:7b:99:31:9a:11:6b:0b:f0:e9:1e:f3:00:af:ad:
                    f8:60:a7:7a:e7:84:40:ac:01:50:a6:6b:be:1e:e6:
                    0a:86:1b:08:31:11:ba:b2:2a:cc:82:41:2f:7d:9d:
                    0b:94:e1:a4:af:be:3b:f8:e1:a5:18:b7:56:9f:75:
                    60:fb:93:c3:aa:d2:fd:7c:cf:b9:f9:51:a9:f9:c2:
                    06:98:bf:fc:2d:14:5a:a6:39:2a:97:41:99:5b:18:
                    44:bf:9d:d5:8f:80:01:2f:79:61:4f:bc:a8:6e:44:
                    ed:74:fe:eb:40:6f:5c:6a:ec:46:06:50:73:d1:e0:
                    eb:c0:e7:af:c3:60:6d:86:f5:d0:5e:fb:1c:59:92:
                    dc:5c:1e:35:0f:d2:91:83:7f:bd:78:9e:21:08:09:
                    14:77:1d:02:80:d0:e2:f2:32:fe:67:71:f8:dc:ff:
                    96:73:2a:d8:4e:e6:08:61:4a:13:1e:98:f6:69:a4:
                    2f:39:e7:5d:bb:3f:ae:dd:2d:ee:11:6e:9b:ed:24:
                    bb:61:e2:f9:a2:13:4f:aa:9e:22:e4:94:b2:ab:13:
                    21:55:8d:48:20:a2:69:a4:a9:c3:04:2b:15:85:5d:
                    47:a6:b0:18:49:c4:87:c7:b1:48:93:0d:2a:51:9c:
                    a8:88:ae:e8:e8:f1:80:d8:03:29:2d:d6:58:89:cc:
                    fb:be:37:77:9c:50:19:99:8c:c4:e8:be:a4:1a:24:
                    f5:1a:ef:04:c3:21:43:5b:00:a8:6e:c0:27:36:e7:
                    e4:45:60:8b:66:5f:c8:16:84:41:47:ae:94:b0:eb:
                    8c:a0:c8:5b:56:c2:33:ae:99:ee:44:a1:31:4d:78:
                    99:5e:e0:00:c1:c5:9e:dd:62:2f:2e:fc:4e:4b:5e:
                    2e:1b:39:a3:eb:7e:43:90:32:1d:a8:15:d7:bf:5e:
                    96:f0:50:b0:2d:09:f8:b8:d7:1a:3b:f7:8e:03:99:
                    d3:ab:6e:bd:5d:e4:83:dc:5a:10:62:60:fb:6a:25:
                    1d:76:c1
                Exponent: 65537 (0x10001)
        X509v3 extensions:
            X509v3 Basic Constraints: 
                CA:FALSE
            Netscape Comment: 
                Easy-RSA Generated Certificate
            X509v3 Subject Key Identifier: 
                87:93:DE:4E:AE:DD:B3:D7:1D:B8:BA:3B:9B:A6:61:78:51:76:1C:01
            X509v3 Authority Key Identifier: 
                keyid:12:CD:60:04:D2:A0:80:9E:70:ED:C6:99:B8:7B:2C:C6:52:FD:19:A1
                DirName:/C=US/ST=OH/L=Columbus/O=VikingVPN/OU=MyOrganizationalUnit/CN=VikingVPN CA/name=EasyRSA/emailAddress=me@myhost.mydomain
                serial:CF:35:85:EE:80:BF:2A:3E

            X509v3 Extended Key Usage: 
                TLS Web Client Authentication
            X509v3 Key Usage: 
                Digital Signature
    Signature Algorithm: md5WithRSAEncryption
         a2:a4:92:4a:a2:d3:17:18:f0:7a:37:ad:b6:04:a9:9e:e7:0a:
         f0:20:d6:59:53:d1:66:59:b4:9d:ba:54:c1:01:21:8f:18:cd:
         70:a6:c8:f1:ec:7e:65:e5:26:1e:db:88:4e:97:13:23:3f:89:
         bf:40:64:ae:6f:bc:bd:1c:74:55:22:82:79:bc:95:16:28:63:
         6d:cc:28:1f:a3:e2:60:be:62:55:20:12:b0:66:47:60:4f:a4:
         c4:75:c6:f8:18:24:6e:df:cf:b0:9a:5e:b7:c3:2d:77:16:6e:
         d0:4a:64:fd:c4:6f:5f:3d:82:8b:d3:f3:79:65:bb:a5:bb:04:
         5e:eb:74:13:3a:96:67:04:ff:8d:19:5e:e3:a8:d1:f6:60:7c:
         7a:cf:4e:d9:5a:74:8a:b7:22:ab:7c:91:59:26:f6:7d:f1:38:
         64:a6:27:df:75:38:ad:3f:c3:97:b7:a8:d0:47:a6:c6:17:6a:
         95:84:dc:d1:d0:15:ab:7c:42:ed:1c:50:fb:18:da:6b:d5:a5:
         68:1c:4f:3d:0c:a0:e1:da:87:f8:95:8b:42:15:18:e3:0d:4a:
         56:16:eb:6f:3e:e7:8c:2e:b7:c6:62:d3:f1:e9:76:40:0d:d6:
         92:0f:d1:c2:36:6b:25:45:fa:3d:f7:04:56:e5:14:2b:6a:d7:
         4e:9c:e0:f1:2e:36:43:d6:cf:7c:55:21:3f:45:29:d7:55:b1:
         11:25:e6:20:5e:a5:c8:7a:b5:a2:70:ca:f3:a1:59:d9:99:c9:
         cf:1a:2d:6d:4c:d8:4d:18:2a:5b:21:99:23:c4:94:98:78:ee:
         49:d0:75:79:b7:3b:24:b5:39:e3:65:a5:b3:2c:9a:51:be:68:
         59:f8:6f:7c:1e:0f:f6:34:af:ba:55:6f:b6:f9:1e:3f:75:23:
         e6:cb:09:d6:52:28:77:15:51:dc:bf:f0:98:d2:80:50:4c:1b:
         10:aa:93:99:d9:ce:1a:18:32:50:d2:11:13:4b:aa:94:7b:9d:
         e7:62:88:46:25:67:90:b1:08:be:1f:ce:2a:ea:0d:a7:51:11:
         bf:ec:c9:ec:76:d1:4c:3d:78:c0:97:f3:b2:b3:e1:14:3b:2c:
         6b:f4:0a:bf:2e:2a:9d:6b:ba:f0:cd:84:10:ba:72:f2:99:b7:
         c4:3c:86:59:8f:f5:dc:41:c4:3a:21:38:6a:93:79:ce:d5:02:
         2d:63:43:d6:1f:99:1c:9e:3b:9e:fb:ef:3a:82:70:cc:4a:32:
         3e:a1:c2:c9:fb:81:26:fc:6c:8d:31:97:d5:4b:16:4a:d2:b3:
         5e:46:b6:22:87:b9:5b:89:7a:d7:a5:76:72:cc:03:fd:c0:fb:
         33:2b:7d:cd:04:f2:8c:a3
-----BEGIN CERTIFICATE-----
MIIGrTCCBJWgAwIBAgICEi8wDQYJKoZIhvcNAQEEBQAwgawxCzAJBgNVBAYTAlVT
MQswCQYDVQQIEwJPSDERMA8GA1UEBxMIQ29sdW1idXMxEjAQBgNVBAoTCVZpa2lu
Z1ZQTjEdMBsGA1UECxMUTXlPcmdhbml6YXRpb25hbFVuaXQxFTATBgNVBAMTDFZp
a2luZ1ZQTiBDQTEQMA4GA1UEKRMHRWFzeVJTQTEhMB8GCSqGSIb3DQEJARYSbWVA
bXlob3N0Lm15ZG9tYWluMB4XDTE1MDMwNDIwMDkzN1oXDTI1MDMwMTIwMDkzN1ow
HzEdMBsGA1UEAxMUQ2xpZW50MTUxNkNlcnRhMzBjMTgwggIiMA0GCSqGSIb3DQEB
AQUAA4ICDwAwggIKAoICAQDPD3NYVX677688sEgw1n7tO8Qyf/Ytl2B5n4ADjI4j
US06bpTGwCF7GTCtaHOU7fFpdcaJAZ7L6nUCya87NffjUvKYAaHxujtBkV6UUrZE
LTH+RzLSnyYLdzgR0P8CoAd8P/A/uhUvSUZKi7tXW6/9ntRUWtd/P0HQT0sOxyjG
dNUzMot+GFN7mTGaEWsL8Oke8wCvrfhgp3rnhECsAVCma74e5gqGGwgxEbqyKsyC
QS99nQuU4aSvvjv44aUYt1afdWD7k8Oq0v18z7n5Uan5wgaYv/wtFFqmOSqXQZlb
GES/ndWPgAEveWFPvKhuRO10/utAb1xq7EYGUHPR4OvA56/DYG2G9dBe+xxZktxc
HjUP0pGDf714niEICRR3HQKA0OLyMv5ncfjc/5ZzKthO5ghhShMemPZppC855127
P67dLe4RbpvtJLth4vmiE0+qniLklLKrEyFVjUggommkqcMEKxWFXUemsBhJxIfH
sUiTDSpRnKiIrujo8YDYAykt1liJzPu+N3ecUBmZjMTovqQaJPUa7wTDIUNbAKhu
wCc25+RFYItmX8gWhEFHrpSw64ygyFtWwjOume5EoTFNeJle4ADBxZ7dYi8u/E5L
Xi4bOaPrfkOQMh2oFde/XpbwULAtCfi41xo7944DmdOrbr1d5IPcWhBiYPtqJR12
wQIDAQABo4IBYzCCAV8wCQYDVR0TBAIwADAtBglghkgBhvhCAQ0EIBYeRWFzeS1S
U0EgR2VuZXJhdGVkIENlcnRpZmljYXRlMB0GA1UdDgQWBBSHk95Ort2z1x24ujub
pmF4UXYcATCB4QYDVR0jBIHZMIHWgBQSzWAE0qCAnnDtxpm4eyzGUv0ZoaGBsqSB
rzCBrDELMAkGA1UEBhMCVVMxCzAJBgNVBAgTAk9IMREwDwYDVQQHEwhDb2x1bWJ1
czESMBAGA1UEChMJVmlraW5nVlBOMR0wGwYDVQQLExRNeU9yZ2FuaXphdGlvbmFs
VW5pdDEVMBMGA1UEAxMMVmlraW5nVlBOIENBMRAwDgYDVQQpEwdFYXN5UlNBMSEw
HwYJKoZIhvcNAQkBFhJtZUBteWhvc3QubXlkb21haW6CCQDPNYXugL8qPjATBgNV
HSUEDDAKBggrBgEFBQcDAjALBgNVHQ8EBAMCB4AwDQYJKoZIhvcNAQEEBQADggIB
AKKkkkqi0xcY8Ho3rbYEqZ7nCvAg1llT0WZZtJ26VMEBIY8YzXCmyPHsfmXlJh7b
iE6XEyM/ib9AZK5vvL0cdFUignm8lRYoY23MKB+j4mC+YlUgErBmR2BPpMR1xvgY
JG7fz7CaXrfDLXcWbtBKZP3Eb189govT83llu6W7BF7rdBM6lmcE/40ZXuOo0fZg
fHrPTtladIq3Iqt8kVkm9n3xOGSmJ991OK0/w5e3qNBHpsYXapWE3NHQFat8Qu0c
UPsY2mvVpWgcTz0MoOHah/iVi0IVGOMNSlYW628+54wut8Zi0/HpdkAN1pIP0cI2
ayVF+j33BFblFCtq106c4PEuNkPWz3xVIT9FKddVsREl5iBepch6taJwyvOhWdmZ
yc8aLW1M2E0YKlshmSPElJh47knQdXm3OyS1OeNlpbMsmlG+aFn4b3weD/Y0r7pV
b7b5Hj91I+bLCdZSKHcVUdy/8JjSgFBMGxCqk5nZzhoYMlDSERNLqpR7nediiEYl
Z5CxCL4fzirqDadREb/syex20Uw9eMCX87Kz4RQ7LGv0Cr8uKp1ruvDNhBC6cvKZ
t8Q8hlmP9dxBxDohOGqTec7VAi1jQ9YfmRyeO5777zqCcMxKMj6hwsn7gSb8bI0x
l9VLFkrSs15GtiKHuVuJeteldnLMA/3A+zMrfc0E8oyj
-----END CERTIFICATE-----
