Certificate:
    Data:
        Version: 3 (0x2)
        Serial Number: 123 (0x7b)
    Signature Algorithm: md5WithRSAEncryption
        Issuer: C=US, ST=OH, L=Columbus, O=VikingVPN, OU=MyOrganizationalUnit, CN=VikingVPN CA/name=EasyRSA/emailAddress=me@myhost.mydomain
        Validity
            Not Before: Sep  1 20:59:03 2013 GMT
            Not After : Aug 30 20:59:03 2023 GMT
        Subject: CN=Client73Cert18bd4e
        Subject Public Key Info:
            Public Key Algorithm: rsaEncryption
                Public-Key: (4096 bit)
                Modulus:
                    00:ae:ca:47:f6:82:25:16:f3:90:93:5a:91:50:8a:
                    21:31:bd:04:1c:72:bf:83:88:ea:c1:6f:43:2e:95:
                    bf:af:be:3a:ae:8b:7e:52:c4:25:dc:23:ef:e9:30:
                    2a:98:bc:fb:a5:b0:b1:40:1f:1f:a0:06:2b:be:5e:
                    12:1a:c1:44:f8:2f:9c:b7:87:4c:91:ca:c6:3a:a6:
                    29:cc:c6:12:8b:a8:11:b4:5b:d1:0f:6e:60:95:5d:
                    3c:82:df:a2:f6:0c:63:10:38:52:51:a0:14:24:1e:
                    c6:17:74:12:92:4e:c6:d5:3f:9d:c0:f5:57:a2:2b:
                    79:ac:05:f2:08:b0:ce:d4:41:80:b4:af:18:c4:70:
                    90:03:51:05:f5:56:b4:23:7f:4d:1f:85:96:60:ec:
                    97:21:63:9d:06:b0:19:1e:ed:53:bf:98:3d:bb:3a:
                    28:b9:49:6e:48:55:56:f6:62:16:80:1d:61:c5:55:
                    63:f5:18:ad:ee:35:51:b0:9a:87:2c:93:29:8f:2c:
                    c7:8d:6b:4b:20:11:b0:65:81:12:1a:66:66:f3:ad:
                    ff:c4:f8:e8:a0:82:15:df:19:34:87:16:d5:7c:55:
                    f9:8e:f9:ac:18:fe:2c:47:14:20:5a:4a:83:fe:44:
                    c3:58:7c:5b:08:21:b2:af:8d:01:66:4a:15:a8:c4:
                    1a:81:0a:2a:1b:b8:01:7f:72:d5:70:81:28:8a:29:
                    33:2a:93:ec:df:13:82:f3:f8:be:63:a5:76:7c:2f:
                    82:fd:5b:d9:55:df:2b:40:3c:5b:3e:d9:75:9d:6f:
                    6f:60:e9:b1:e3:0d:6b:ba:3f:81:dc:a3:9a:20:84:
                    a1:1c:ab:a5:01:7b:0a:63:33:46:21:96:87:fe:7a:
                    69:a0:4b:a3:02:60:1c:44:ba:86:bd:44:f8:e7:49:
                    ed:fa:44:a1:f3:30:24:66:34:f8:ff:f4:a0:70:1b:
                    fd:00:40:76:c8:48:1f:24:a8:f9:46:c7:5e:0b:f5:
                    35:33:53:b9:8a:fd:16:22:6b:e1:e3:f4:1d:d5:68:
                    b0:97:ef:13:07:48:86:50:6d:ae:91:8e:de:85:68:
                    31:74:c0:47:53:ad:50:d6:73:c9:f9:4f:d5:80:17:
                    3c:f6:0e:0e:57:38:79:5b:f8:16:a3:09:9a:8e:40:
                    f5:85:68:50:2f:cf:b2:55:e6:75:d2:60:42:92:c8:
                    4d:eb:56:73:33:fa:db:fa:64:a0:1f:4b:90:05:01:
                    66:72:92:6b:cd:5e:97:29:0e:c7:84:8d:d5:0b:ef:
                    49:df:30:3c:38:c8:85:d7:3b:15:9a:1e:33:0b:eb:
                    e1:70:a0:93:45:49:87:b8:3c:b0:53:a2:49:10:29:
                    4d:5a:3d
                Exponent: 65537 (0x10001)
        X509v3 extensions:
            X509v3 Basic Constraints: 
                CA:FALSE
            Netscape Comment: 
                Easy-RSA Generated Certificate
            X509v3 Subject Key Identifier: 
                B0:54:75:C7:7F:61:FE:2C:70:E3:7E:86:7C:EF:C0:C5:D8:67:D0:1C
            X509v3 Authority Key Identifier: 
                keyid:12:CD:60:04:D2:A0:80:9E:70:ED:C6:99:B8:7B:2C:C6:52:FD:19:A1
                DirName:/C=US/ST=OH/L=Columbus/O=VikingVPN/OU=MyOrganizationalUnit/CN=VikingVPN CA/name=EasyRSA/emailAddress=me@myhost.mydomain
                serial:CF:35:85:EE:80:BF:2A:3E

            X509v3 Extended Key Usage: 
                TLS Web Client Authentication
            X509v3 Key Usage: 
                Digital Signature
    Signature Algorithm: md5WithRSAEncryption
         5a:69:f7:f1:40:89:68:f8:59:be:41:95:0f:23:91:89:ed:c6:
         94:82:38:f8:9c:ba:47:d7:94:28:7f:b3:12:d0:b6:8e:b1:2f:
         7b:6f:c2:3f:24:77:35:a2:7d:84:66:57:03:5e:cb:6d:d6:be:
         b0:dd:44:dd:8b:45:8c:ac:ca:a0:79:a1:fc:90:8f:b8:18:39:
         82:a7:22:08:6b:9a:51:96:49:dd:d3:81:09:6b:ee:8d:93:19:
         85:4c:99:3f:ac:7f:1b:1d:cb:22:17:8e:6f:c0:b4:46:20:43:
         a1:91:c8:b1:13:15:74:9a:f9:f9:00:10:90:07:f3:83:9b:29:
         5c:8c:28:95:cb:81:e8:af:33:ea:31:11:d8:be:c0:6c:ab:be:
         53:d0:56:fe:9d:cf:a1:72:73:de:0b:5c:84:40:58:95:fb:b0:
         87:6f:6d:8b:33:00:fa:20:58:5e:c1:b3:40:98:76:1e:99:f0:
         ba:c1:23:84:a2:15:8a:e9:0c:c7:15:24:29:95:53:c3:d1:9b:
         7f:66:34:10:03:37:91:45:c7:0b:df:de:1c:61:7c:f4:63:03:
         5e:e1:67:1e:a0:82:06:c4:cf:ac:76:80:cb:d4:c7:28:1b:e4:
         2c:e9:cf:9b:da:67:bd:ac:2e:15:2b:ea:b3:4a:ab:31:35:c0:
         22:c5:37:2a:94:1e:c5:93:23:f8:65:31:93:e8:44:44:0c:8a:
         fa:2f:60:9b:27:6f:18:8b:f3:8e:b9:b7:8d:e0:6e:52:0b:7b:
         54:81:69:5c:39:12:34:17:aa:a0:91:8d:8c:ee:1b:6a:4b:61:
         1a:07:88:fe:06:9a:6c:e1:bd:f2:33:9c:68:ab:84:21:a8:6b:
         e6:31:e1:fa:eb:da:6a:d2:d5:f1:a5:08:5a:6b:60:2e:fe:b0:
         ad:23:78:2b:1b:b6:97:8a:a4:37:a2:8a:8e:7a:1a:b2:3f:74:
         ff:eb:ea:45:f7:32:60:37:b2:a8:cc:a2:20:96:11:e2:91:1f:
         ba:7e:45:66:d2:68:f7:3b:19:ad:ce:cc:28:3c:57:5f:00:9c:
         92:3f:0b:cb:32:53:aa:87:c9:9a:41:a9:62:75:63:24:7f:94:
         82:c4:4c:4d:47:d9:1e:ee:d7:32:b7:fb:4b:4b:6f:eb:81:3d:
         4c:ca:aa:47:d4:49:ef:4c:dd:14:64:99:71:15:13:3a:cf:a9:
         98:74:c5:e8:89:bb:00:1f:db:31:27:88:d0:ca:5e:09:1d:72:
         e7:95:44:22:82:cb:a2:70:0d:39:a9:75:a6:6b:83:a7:05:84:
         6e:1c:07:99:47:db:ce:5f:9d:4c:42:73:3d:74:9d:0b:c8:55:
         e7:39:85:c8:bd:31:ee:28
-----BEGIN CERTIFICATE-----
MIIGqjCCBJKgAwIBAgIBezANBgkqhkiG9w0BAQQFADCBrDELMAkGA1UEBhMCVVMx
CzAJBgNVBAgTAk9IMREwDwYDVQQHEwhDb2x1bWJ1czESMBAGA1UEChMJVmlraW5n
VlBOMR0wGwYDVQQLExRNeU9yZ2FuaXphdGlvbmFsVW5pdDEVMBMGA1UEAxMMVmlr
aW5nVlBOIENBMRAwDgYDVQQpEwdFYXN5UlNBMSEwHwYJKoZIhvcNAQkBFhJtZUBt
eWhvc3QubXlkb21haW4wHhcNMTMwOTAxMjA1OTAzWhcNMjMwODMwMjA1OTAzWjAd
MRswGQYDVQQDExJDbGllbnQ3M0NlcnQxOGJkNGUwggIiMA0GCSqGSIb3DQEBAQUA
A4ICDwAwggIKAoICAQCuykf2giUW85CTWpFQiiExvQQccr+DiOrBb0Mulb+vvjqu
i35SxCXcI+/pMCqYvPulsLFAHx+gBiu+XhIawUT4L5y3h0yRysY6pinMxhKLqBG0
W9EPbmCVXTyC36L2DGMQOFJRoBQkHsYXdBKSTsbVP53A9VeiK3msBfIIsM7UQYC0
rxjEcJADUQX1VrQjf00fhZZg7JchY50GsBke7VO/mD27Oii5SW5IVVb2YhaAHWHF
VWP1GK3uNVGwmocskymPLMeNa0sgEbBlgRIaZmbzrf/E+OigghXfGTSHFtV8VfmO
+awY/ixHFCBaSoP+RMNYfFsIIbKvjQFmShWoxBqBCiobuAF/ctVwgSiKKTMqk+zf
E4Lz+L5jpXZ8L4L9W9lV3ytAPFs+2XWdb29g6bHjDWu6P4Hco5oghKEcq6UBewpj
M0Yhlof+emmgS6MCYBxEuoa9RPjnSe36RKHzMCRmNPj/9KBwG/0AQHbISB8kqPlG
x14L9TUzU7mK/RYia+Hj9B3VaLCX7xMHSIZQba6Rjt6FaDF0wEdTrVDWc8n5T9WA
Fzz2Dg5XOHlb+BajCZqOQPWFaFAvz7JV5nXSYEKSyE3rVnMz+tv6ZKAfS5AFAWZy
kmvNXpcpDseEjdUL70nfMDw4yIXXOxWaHjML6+FwoJNFSYe4PLBTokkQKU1aPQID
AQABo4IBYzCCAV8wCQYDVR0TBAIwADAtBglghkgBhvhCAQ0EIBYeRWFzeS1SU0Eg
R2VuZXJhdGVkIENlcnRpZmljYXRlMB0GA1UdDgQWBBSwVHXHf2H+LHDjfoZ878DF
2GfQHDCB4QYDVR0jBIHZMIHWgBQSzWAE0qCAnnDtxpm4eyzGUv0ZoaGBsqSBrzCB
rDELMAkGA1UEBhMCVVMxCzAJBgNVBAgTAk9IMREwDwYDVQQHEwhDb2x1bWJ1czES
MBAGA1UEChMJVmlraW5nVlBOMR0wGwYDVQQLExRNeU9yZ2FuaXphdGlvbmFsVW5p
dDEVMBMGA1UEAxMMVmlraW5nVlBOIENBMRAwDgYDVQQpEwdFYXN5UlNBMSEwHwYJ
KoZIhvcNAQkBFhJtZUBteWhvc3QubXlkb21haW6CCQDPNYXugL8qPjATBgNVHSUE
DDAKBggrBgEFBQcDAjALBgNVHQ8EBAMCB4AwDQYJKoZIhvcNAQEEBQADggIBAFpp
9/FAiWj4Wb5BlQ8jkYntxpSCOPicukfXlCh/sxLQto6xL3tvwj8kdzWifYRmVwNe
y23WvrDdRN2LRYysyqB5ofyQj7gYOYKnIghrmlGWSd3TgQlr7o2TGYVMmT+sfxsd
yyIXjm/AtEYgQ6GRyLETFXSa+fkAEJAH84ObKVyMKJXLgeivM+oxEdi+wGyrvlPQ
Vv6dz6Fyc94LXIRAWJX7sIdvbYszAPogWF7Bs0CYdh6Z8LrBI4SiFYrpDMcVJCmV
U8PRm39mNBADN5FFxwvf3hxhfPRjA17hZx6gggbEz6x2gMvUxygb5Czpz5vaZ72s
LhUr6rNKqzE1wCLFNyqUHsWTI/hlMZPoREQMivovYJsnbxiL8465t43gblILe1SB
aVw5EjQXqqCRjYzuG2pLYRoHiP4GmmzhvfIznGirhCGoa+Yx4frr2mrS1fGlCFpr
YC7+sK0jeCsbtpeKpDeiio56GrI/dP/r6kX3MmA3sqjMoiCWEeKRH7p+RWbSaPc7
Ga3OzCg8V18AnJI/C8syU6qHyZpBqWJ1YyR/lILETE1H2R7u1zK3+0tLb+uBPUzK
qkfUSe9M3RRkmXEVEzrPqZh0xeiJuwAf2zEniNDKXgkdcueVRCKCy6JwDTmpdaZr
g6cFhG4cB5lH285fnUxCcz10nQvIVec5hci9Me4o
-----END CERTIFICATE-----
