Certificate:
    Data:
        Version: 3 (0x2)
        Serial Number: 11312 (0x2c30)
    Signature Algorithm: sha256WithRSAEncryption
        Issuer: C=US, ST=OH, L=Columbus, O=VikingVPN, OU=MyOrganizationalUnit, CN=VikingVPN CA/name=EasyRSA/emailAddress=me@myhost.mydomain
        Validity
            Not Before: Jul 13 05:18:28 2017 GMT
            Not After : Jul 11 05:18:28 2027 GMT
        Subject: CN=Client2990Cert188347
        Subject Public Key Info:
            Public Key Algorithm: rsaEncryption
                Public-Key: (4096 bit)
                Modulus:
                    00:b0:e3:0a:ec:a3:62:3e:29:aa:4b:4d:f4:61:5f:
                    a3:84:81:ce:bc:72:b9:65:d4:cc:e9:be:8c:87:e1:
                    ff:0d:9f:45:0f:05:18:2f:8d:14:b6:0c:98:43:c9:
                    59:dd:d5:45:87:4e:6d:bd:d6:9d:9d:65:a8:06:3e:
                    5e:56:07:8e:8a:98:73:e8:0d:cc:8b:ce:70:7e:a7:
                    37:1c:d6:c6:0e:21:64:83:08:95:85:07:95:1e:61:
                    29:ac:b5:ad:16:99:7a:79:c0:85:30:20:be:5a:a7:
                    c1:62:ef:5f:ea:99:0a:72:f6:46:8c:f8:a1:9a:6a:
                    c1:fc:32:18:24:f6:8a:6e:f4:38:aa:1b:8b:da:0b:
                    30:95:5b:9d:c6:92:aa:9d:ac:8d:c2:76:48:39:f0:
                    aa:61:7f:86:7d:a3:4b:0b:10:32:5c:be:c2:a8:92:
                    6e:24:b2:45:5e:d0:cb:a6:df:ed:17:e6:26:42:eb:
                    ad:27:09:7f:69:7d:9d:18:d4:f2:09:f6:77:1b:ec:
                    45:11:e4:45:72:17:92:7d:ec:38:48:6c:6e:79:5b:
                    06:aa:f5:3d:66:97:cd:6f:e2:c4:b4:eb:8e:0b:42:
                    ef:90:d8:c3:17:8b:d1:ec:55:47:bf:a5:3d:0c:5d:
                    25:eb:f2:bf:68:0b:26:38:c8:e6:f5:e8:5e:aa:c4:
                    32:16:63:0d:f6:6a:54:45:40:f9:c5:ef:e1:93:06:
                    ae:ea:b6:88:52:e2:e1:03:8d:eb:29:6e:6f:62:2d:
                    c4:6e:42:4d:55:0f:7d:cf:d3:6c:51:b6:d5:aa:53:
                    c6:ed:3f:52:76:99:1d:8e:cc:8b:81:ca:17:97:6e:
                    bd:95:b8:40:8a:50:73:a7:d6:55:4a:e0:76:2d:c2:
                    e5:1a:c2:a9:e1:35:02:03:0a:c4:ef:d8:b4:77:b7:
                    3e:ec:0f:7a:54:80:ea:02:ba:df:70:a0:77:8d:2c:
                    1e:fc:1f:b3:8d:38:24:9e:95:81:23:d0:9d:cf:8f:
                    84:38:06:1e:75:eb:20:d4:93:46:fa:6a:c8:18:d8:
                    5f:78:50:82:aa:c6:fe:29:18:33:8e:84:e5:d5:ee:
                    8d:50:2a:dd:99:e2:3c:59:ff:52:71:9d:8e:e2:f9:
                    cd:c7:d6:dc:cb:eb:9f:15:57:de:59:ae:6e:07:c9:
                    30:03:3a:6e:7e:fb:72:f4:7b:3e:15:05:3f:f5:38:
                    cb:86:5e:31:78:5e:ee:b2:de:61:5b:72:7c:12:cd:
                    5b:c7:ee:0e:be:cd:f5:0f:04:ad:d1:ad:8d:fc:b0:
                    b9:2a:a6:5b:90:ab:97:f4:16:a4:79:fc:61:b5:01:
                    c6:36:3f:10:19:c7:19:fe:65:ad:48:36:4f:1d:f7:
                    e6:6b:8f
                Exponent: 65537 (0x10001)
        X509v3 extensions:
            X509v3 Basic Constraints: 
                CA:FALSE
            Netscape Comment: 
                Easy-RSA Generated Certificate
            X509v3 Subject Key Identifier: 
                1E:0F:F8:51:C6:6B:4A:85:32:58:86:7C:9A:6D:C4:1A:CD:2C:62:97
            X509v3 Authority Key Identifier: 
                keyid:12:CD:60:04:D2:A0:80:9E:70:ED:C6:99:B8:7B:2C:C6:52:FD:19:A1
                DirName:/C=US/ST=OH/L=Columbus/O=VikingVPN/OU=MyOrganizationalUnit/CN=VikingVPN CA/name=EasyRSA/emailAddress=me@myhost.mydomain
                serial:CF:35:85:EE:80:BF:2A:3E

            X509v3 Extended Key Usage: 
                TLS Web Client Authentication
            X509v3 Key Usage: 
                Digital Signature
    Signature Algorithm: sha256WithRSAEncryption
         22:df:4c:a7:1d:c6:bf:00:8d:fc:f8:9d:d6:d3:6c:bc:53:ec:
         c4:28:a1:bf:d0:1e:09:7d:71:68:e1:d8:b5:08:ac:9e:6e:7c:
         36:30:90:c0:5b:82:94:62:61:4f:a5:bf:46:f3:34:27:23:a2:
         7a:ef:be:b8:26:67:f5:c8:90:b2:60:f5:a8:f4:65:7e:39:58:
         c9:15:65:dd:55:d9:27:23:7d:53:e8:6b:e2:bd:40:ae:e6:94:
         1e:1a:d3:bc:a8:3d:89:8b:1d:af:c6:89:15:a0:21:ab:77:25:
         d0:11:82:19:bc:b1:f3:f6:41:92:d4:cb:92:54:d0:8c:18:cb:
         30:09:de:76:22:ad:de:75:25:50:6b:93:22:5e:ff:9f:f6:8f:
         e3:c6:74:e9:3c:c3:71:87:bc:45:a7:99:1d:3e:7f:9c:01:d4:
         5e:e8:2c:a9:b6:c8:dd:51:4a:43:df:30:f8:9c:f2:0f:43:1b:
         8b:64:ab:48:1a:d9:4f:88:19:0f:be:51:fe:c0:ed:db:9e:28:
         0c:b3:21:2d:4f:f0:6f:19:b6:81:13:e5:43:69:fd:49:bc:3e:
         43:d4:8f:b1:70:b5:97:4f:de:77:c5:4a:24:09:d4:9b:bb:43:
         23:ef:60:ff:0e:3f:5b:89:07:b7:34:87:e8:e1:02:46:d3:09:
         9e:05:95:f2:86:32:34:bd:e5:fc:a8:f5:46:4f:fd:e1:0a:da:
         e8:fb:95:06:87:60:41:e1:f7:6d:47:86:51:a5:f8:bd:69:91:
         f9:0c:d7:aa:a8:12:23:62:52:43:7d:28:b4:ff:f0:7d:40:16:
         96:0f:99:07:43:02:ef:32:05:76:ae:e9:0d:ca:19:cc:15:3d:
         eb:1a:26:fd:75:84:fe:cf:3b:42:a4:21:e6:88:1b:87:9b:a4:
         10:a7:b8:35:19:c0:7b:cc:ef:59:bd:de:23:52:4a:74:c1:8d:
         60:bd:b6:46:35:7e:db:9d:6c:94:ee:9f:6b:94:26:9b:bf:78:
         7e:f5:11:c4:24:40:6b:23:67:70:92:fe:14:c6:be:4b:06:e4:
         9b:c9:07:95:52:fc:64:0b:51:48:d4:3a:86:e7:35:75:04:99:
         ac:68:1c:c4:45:b3:c8:e6:f3:30:cc:9a:af:e3:33:52:ad:6e:
         f5:be:81:50:97:8e:3e:ae:0c:00:52:4e:12:38:39:d4:7c:33:
         e3:8f:70:15:23:f4:a5:31:9f:e0:0a:85:6d:cc:b8:b0:62:21:
         ec:d3:ae:b0:52:2c:7f:34:54:d8:84:48:6f:10:ff:0b:f3:cb:
         4c:bd:85:71:22:f4:1f:aa:50:28:22:60:30:ec:31:b9:ee:3b:
         83:63:d6:7b:be:b8:96:16
-----BEGIN CERTIFICATE-----
MIIGrTCCBJWgAwIBAgICLDAwDQYJKoZIhvcNAQELBQAwgawxCzAJBgNVBAYTAlVT
MQswCQYDVQQIEwJPSDERMA8GA1UEBxMIQ29sdW1idXMxEjAQBgNVBAoTCVZpa2lu
Z1ZQTjEdMBsGA1UECxMUTXlPcmdhbml6YXRpb25hbFVuaXQxFTATBgNVBAMTDFZp
a2luZ1ZQTiBDQTEQMA4GA1UEKRMHRWFzeVJTQTEhMB8GCSqGSIb3DQEJARYSbWVA
bXlob3N0Lm15ZG9tYWluMB4XDTE3MDcxMzA1MTgyOFoXDTI3MDcxMTA1MTgyOFow
HzEdMBsGA1UEAxMUQ2xpZW50Mjk5MENlcnQxODgzNDcwggIiMA0GCSqGSIb3DQEB
AQUAA4ICDwAwggIKAoICAQCw4wrso2I+KapLTfRhX6OEgc68crll1MzpvoyH4f8N
n0UPBRgvjRS2DJhDyVnd1UWHTm291p2dZagGPl5WB46KmHPoDcyLznB+pzcc1sYO
IWSDCJWFB5UeYSmsta0WmXp5wIUwIL5ap8Fi71/qmQpy9kaM+KGaasH8Mhgk9opu
9DiqG4vaCzCVW53GkqqdrI3Cdkg58Kphf4Z9o0sLEDJcvsKokm4kskVe0Mum3+0X
5iZC660nCX9pfZ0Y1PIJ9ncb7EUR5EVyF5J97DhIbG55Wwaq9T1ml81v4sS0644L
Qu+Q2MMXi9HsVUe/pT0MXSXr8r9oCyY4yOb16F6qxDIWYw32alRFQPnF7+GTBq7q
tohS4uEDjespbm9iLcRuQk1VD33P02xRttWqU8btP1J2mR2OzIuByheXbr2VuECK
UHOn1lVK4HYtwuUawqnhNQIDCsTv2LR3tz7sD3pUgOoCut9woHeNLB78H7ONOCSe
lYEj0J3Pj4Q4Bh516yDUk0b6asgY2F94UIKqxv4pGDOOhOXV7o1QKt2Z4jxZ/1Jx
nY7i+c3H1tzL658VV95Zrm4HyTADOm5++3L0ez4VBT/1OMuGXjF4Xu6y3mFbcnwS
zVvH7g6+zfUPBK3RrY38sLkqpluQq5f0FqR5/GG1AcY2PxAZxxn+Za1INk8d9+Zr
jwIDAQABo4IBYzCCAV8wCQYDVR0TBAIwADAtBglghkgBhvhCAQ0EIBYeRWFzeS1S
U0EgR2VuZXJhdGVkIENlcnRpZmljYXRlMB0GA1UdDgQWBBQeD/hRxmtKhTJYhnya
bcQazSxilzCB4QYDVR0jBIHZMIHWgBQSzWAE0qCAnnDtxpm4eyzGUv0ZoaGBsqSB
rzCBrDELMAkGA1UEBhMCVVMxCzAJBgNVBAgTAk9IMREwDwYDVQQHEwhDb2x1bWJ1
czESMBAGA1UEChMJVmlraW5nVlBOMR0wGwYDVQQLExRNeU9yZ2FuaXphdGlvbmFs
VW5pdDEVMBMGA1UEAxMMVmlraW5nVlBOIENBMRAwDgYDVQQpEwdFYXN5UlNBMSEw
HwYJKoZIhvcNAQkBFhJtZUBteWhvc3QubXlkb21haW6CCQDPNYXugL8qPjATBgNV
HSUEDDAKBggrBgEFBQcDAjALBgNVHQ8EBAMCB4AwDQYJKoZIhvcNAQELBQADggIB
ACLfTKcdxr8Ajfz4ndbTbLxT7MQoob/QHgl9cWjh2LUIrJ5ufDYwkMBbgpRiYU+l
v0bzNCcjonrvvrgmZ/XIkLJg9aj0ZX45WMkVZd1V2ScjfVPoa+K9QK7mlB4a07yo
PYmLHa/GiRWgIat3JdARghm8sfP2QZLUy5JU0IwYyzAJ3nYird51JVBrkyJe/5/2
j+PGdOk8w3GHvEWnmR0+f5wB1F7oLKm2yN1RSkPfMPic8g9DG4tkq0ga2U+IGQ++
Uf7A7dueKAyzIS1P8G8ZtoET5UNp/Um8PkPUj7FwtZdP3nfFSiQJ1Ju7QyPvYP8O
P1uJB7c0h+jhAkbTCZ4FlfKGMjS95fyo9UZP/eEK2uj7lQaHYEHh921HhlGl+L1p
kfkM16qoEiNiUkN9KLT/8H1AFpYPmQdDAu8yBXau6Q3KGcwVPesaJv11hP7PO0Kk
IeaIG4ebpBCnuDUZwHvM71m93iNSSnTBjWC9tkY1ftudbJTun2uUJpu/eH71EcQk
QGsjZ3CS/hTGvksG5JvJB5VS/GQLUUjUOobnNXUEmaxoHMRFs8jm8zDMmq/jM1Kt
bvW+gVCXjj6uDABSThI4OdR8M+OPcBUj9KUxn+AKhW3MuLBiIezTrrBSLH80VNiE
SG8Q/wvzy0y9hXEi9B+qUCgiYDDsMbnuO4Nj1nu+uJYW
-----END CERTIFICATE-----
