Certificate:
    Data:
        Version: 3 (0x2)
        Serial Number: 5340 (0x14dc)
    Signature Algorithm: md5WithRSAEncryption
        Issuer: C=US, ST=OH, L=Columbus, O=VikingVPN, OU=MyOrganizationalUnit, CN=VikingVPN CA/name=EasyRSA/emailAddress=me@myhost.mydomain
        Validity
            Not Before: May 19 19:37:28 2015 GMT
            Not After : May 16 19:37:28 2025 GMT
        Subject: CN=Client1703Cert97a158
        Subject Public Key Info:
            Public Key Algorithm: rsaEncryption
                Public-Key: (4096 bit)
                Modulus:
                    00:bf:e8:ec:8a:ec:b1:a5:65:8d:bd:a3:6d:53:be:
                    d4:b8:30:55:66:8e:2d:86:a7:7b:55:83:65:98:e8:
                    b1:52:27:3e:83:10:18:fc:72:48:a0:49:6d:7e:b5:
                    b3:b9:f9:5c:85:1d:fd:c8:17:d2:01:ba:4f:d2:2c:
                    97:8c:06:a5:e0:8c:ff:8f:0c:e4:3a:46:95:b0:2e:
                    95:c4:12:64:30:82:13:e2:37:a0:b0:2b:bc:b8:da:
                    26:06:20:67:63:88:dd:0e:dd:18:5b:43:72:b5:85:
                    d8:a8:f7:5a:e2:d4:5e:95:55:10:be:1f:d5:ec:ae:
                    66:66:0a:8a:b8:b6:9e:79:c7:3c:74:75:18:8c:b6:
                    4e:a5:88:09:6d:f2:a9:96:e6:da:05:7c:12:88:f4:
                    7a:92:51:8c:bf:20:e8:0a:97:93:b1:d4:aa:eb:ed:
                    11:e7:ce:6b:cc:7f:51:86:41:8e:30:76:7f:63:1b:
                    fe:59:9c:0d:b1:90:45:6c:d0:a1:a7:d5:0a:97:ae:
                    54:1e:5c:48:6f:25:4a:6c:ec:66:21:44:33:4e:33:
                    af:2d:06:0e:15:76:e2:c7:39:39:de:cc:a5:94:7a:
                    be:00:cc:44:c0:f2:93:8b:96:8a:f4:83:7e:db:b0:
                    66:0d:73:19:40:2e:7e:db:81:ad:49:47:f1:fc:38:
                    5c:f0:4d:35:34:67:0f:76:66:d9:63:c6:f0:fb:76:
                    c8:4a:e8:e6:b9:ac:2b:04:41:df:95:a5:e3:19:0b:
                    13:39:dc:dd:e9:8d:a2:46:d1:a2:4a:96:9a:79:75:
                    3b:2a:59:ff:26:bd:2d:e1:c9:4c:9b:21:a9:0f:3c:
                    ca:8c:89:95:95:8a:d0:b4:e4:40:16:a4:35:19:73:
                    44:4f:1e:fc:cf:75:35:59:bb:c9:99:84:97:d0:ce:
                    ab:58:a3:c8:83:1a:03:1b:1d:45:d0:fb:57:ee:a2:
                    0e:18:f5:ec:97:87:80:bb:06:ac:3b:1a:aa:39:59:
                    2b:f4:48:68:ef:15:6b:71:9a:e7:8b:8f:2d:cd:b4:
                    57:64:bf:84:ea:49:e6:b3:75:9e:fd:ed:18:8e:87:
                    b0:8e:01:e2:a4:cc:c9:59:42:07:03:ba:01:f1:92:
                    a8:21:e7:1a:94:cf:92:55:96:b8:b1:78:ab:70:96:
                    4e:9a:53:47:7e:b4:ff:17:3b:6d:31:7f:38:6a:d4:
                    cd:54:28:76:06:02:2f:80:36:e9:3c:62:37:d9:87:
                    f9:d1:8c:e4:3f:ce:66:f8:2f:a0:8f:bd:a4:bb:ac:
                    a7:32:ec:bb:81:c8:61:c9:bc:0a:79:36:4b:47:72:
                    80:78:a0:b7:18:34:2c:f2:3d:a8:2c:5f:bc:80:06:
                    37:79:fd
                Exponent: 65537 (0x10001)
        X509v3 extensions:
            X509v3 Basic Constraints: 
                CA:FALSE
            Netscape Comment: 
                Easy-RSA Generated Certificate
            X509v3 Subject Key Identifier: 
                18:43:F8:5D:A2:FC:16:C7:F6:BD:DB:63:BA:3D:CA:DE:95:6B:2C:9C
            X509v3 Authority Key Identifier: 
                keyid:12:CD:60:04:D2:A0:80:9E:70:ED:C6:99:B8:7B:2C:C6:52:FD:19:A1
                DirName:/C=US/ST=OH/L=Columbus/O=VikingVPN/OU=MyOrganizationalUnit/CN=VikingVPN CA/name=EasyRSA/emailAddress=me@myhost.mydomain
                serial:CF:35:85:EE:80:BF:2A:3E

            X509v3 Extended Key Usage: 
                TLS Web Client Authentication
            X509v3 Key Usage: 
                Digital Signature
    Signature Algorithm: md5WithRSAEncryption
         4e:95:2f:de:5c:84:26:a7:81:c8:82:6d:3b:22:48:97:42:82:
         a7:ee:4a:b6:c3:8f:bd:74:22:91:2e:0f:cc:e4:8c:a7:08:13:
         d5:b0:35:17:b1:ce:cc:73:34:e6:bd:52:25:e9:a3:bd:08:70:
         ec:ff:9e:e7:e6:15:ce:ab:86:ec:5f:d1:86:5f:bd:df:45:74:
         40:86:6b:1d:58:fc:43:d3:63:b0:0a:86:6c:2b:35:7d:69:50:
         6b:90:ec:fc:38:5d:1b:c6:b4:21:d7:ed:d5:b9:fe:74:3c:9a:
         5e:8a:9a:11:33:40:50:7e:f7:f6:19:e1:43:ce:f4:c4:e7:d3:
         c5:4a:cb:d4:6a:50:9e:82:94:e1:72:88:58:50:6f:bd:28:f4:
         bf:36:d4:47:5e:60:90:a3:8d:32:9a:b1:e7:eb:78:39:3c:60:
         c6:93:0f:79:4b:05:0b:66:95:19:4c:8c:25:4b:72:06:e0:0a:
         7c:4e:ac:b1:ba:77:c1:37:af:6f:63:35:a7:c0:5f:93:43:1a:
         41:91:09:02:a9:79:fd:1d:18:b4:74:85:7d:94:ac:a6:6d:a5:
         a8:5f:e3:9a:10:9b:cd:5c:88:32:f1:ff:a3:d7:60:20:d7:85:
         2a:a2:05:f0:f1:c0:87:51:6f:af:da:ff:6f:8b:ef:84:db:89:
         07:e1:d3:0c:ec:bf:02:61:e7:71:6e:57:1a:00:92:29:6f:2f:
         a1:10:08:86:b0:2e:19:01:8c:56:1d:0d:c8:55:ab:b3:fb:0a:
         25:7c:4e:06:dd:cb:2b:b3:89:7a:c0:d1:ab:02:bf:6f:37:f7:
         36:c7:59:4a:ec:2e:96:3e:58:cb:5c:51:f5:69:d0:5b:5a:c0:
         8c:0c:82:f0:58:7a:36:29:37:23:db:b2:8a:ea:df:38:00:96:
         20:d5:0d:c0:4f:b4:b6:99:3f:95:a9:db:11:3c:2e:ba:48:25:
         c7:c1:44:08:21:0c:76:88:26:b0:12:0a:32:65:d2:b7:4a:05:
         ca:bf:8e:8d:23:99:e8:d5:b3:07:6a:5d:55:32:bb:d7:89:81:
         e8:ca:21:6c:f5:9e:71:46:38:be:09:dc:6e:bf:fd:ea:f4:c2:
         59:19:3e:27:81:e9:59:2b:22:e8:a5:2b:b1:d7:c0:44:06:77:
         58:e4:2b:20:3a:31:a8:c2:cf:25:9a:ec:ae:66:80:8f:72:93:
         7a:d9:72:90:9e:0c:fe:40:df:c2:38:84:3b:3a:01:82:3a:78:
         c0:62:47:08:63:83:3c:54:f7:ba:5f:b4:cb:df:96:a9:67:c6:
         a3:7c:cf:48:31:cb:50:bc:20:be:a5:db:90:25:8f:dd:fb:ce:
         4b:7a:e8:0e:ea:91:b6:d7
-----BEGIN CERTIFICATE-----
MIIGrTCCBJWgAwIBAgICFNwwDQYJKoZIhvcNAQEEBQAwgawxCzAJBgNVBAYTAlVT
MQswCQYDVQQIEwJPSDERMA8GA1UEBxMIQ29sdW1idXMxEjAQBgNVBAoTCVZpa2lu
Z1ZQTjEdMBsGA1UECxMUTXlPcmdhbml6YXRpb25hbFVuaXQxFTATBgNVBAMTDFZp
a2luZ1ZQTiBDQTEQMA4GA1UEKRMHRWFzeVJTQTEhMB8GCSqGSIb3DQEJARYSbWVA
bXlob3N0Lm15ZG9tYWluMB4XDTE1MDUxOTE5MzcyOFoXDTI1MDUxNjE5MzcyOFow
HzEdMBsGA1UEAxMUQ2xpZW50MTcwM0NlcnQ5N2ExNTgwggIiMA0GCSqGSIb3DQEB
AQUAA4ICDwAwggIKAoICAQC/6OyK7LGlZY29o21TvtS4MFVmji2Gp3tVg2WY6LFS
Jz6DEBj8ckigSW1+tbO5+VyFHf3IF9IBuk/SLJeMBqXgjP+PDOQ6RpWwLpXEEmQw
ghPiN6CwK7y42iYGIGdjiN0O3RhbQ3K1hdio91ri1F6VVRC+H9XsrmZmCoq4tp55
xzx0dRiMtk6liAlt8qmW5toFfBKI9HqSUYy/IOgKl5Ox1Krr7RHnzmvMf1GGQY4w
dn9jG/5ZnA2xkEVs0KGn1QqXrlQeXEhvJUps7GYhRDNOM68tBg4VduLHOTnezKWU
er4AzETA8pOLlor0g37bsGYNcxlALn7bga1JR/H8OFzwTTU0Zw92ZtljxvD7dshK
6Oa5rCsEQd+VpeMZCxM53N3pjaJG0aJKlpp5dTsqWf8mvS3hyUybIakPPMqMiZWV
itC05EAWpDUZc0RPHvzPdTVZu8mZhJfQzqtYo8iDGgMbHUXQ+1fuog4Y9eyXh4C7
Bqw7Gqo5WSv0SGjvFWtxmueLjy3NtFdkv4TqSeazdZ797RiOh7COAeKkzMlZQgcD
ugHxkqgh5xqUz5JVlrixeKtwlk6aU0d+tP8XO20xfzhq1M1UKHYGAi+ANuk8YjfZ
h/nRjOQ/zmb4L6CPvaS7rKcy7LuByGHJvAp5NktHcoB4oLcYNCzyPagsX7yABjd5
/QIDAQABo4IBYzCCAV8wCQYDVR0TBAIwADAtBglghkgBhvhCAQ0EIBYeRWFzeS1S
U0EgR2VuZXJhdGVkIENlcnRpZmljYXRlMB0GA1UdDgQWBBQYQ/hdovwWx/a922O6
PcrelWssnDCB4QYDVR0jBIHZMIHWgBQSzWAE0qCAnnDtxpm4eyzGUv0ZoaGBsqSB
rzCBrDELMAkGA1UEBhMCVVMxCzAJBgNVBAgTAk9IMREwDwYDVQQHEwhDb2x1bWJ1
czESMBAGA1UEChMJVmlraW5nVlBOMR0wGwYDVQQLExRNeU9yZ2FuaXphdGlvbmFs
VW5pdDEVMBMGA1UEAxMMVmlraW5nVlBOIENBMRAwDgYDVQQpEwdFYXN5UlNBMSEw
HwYJKoZIhvcNAQkBFhJtZUBteWhvc3QubXlkb21haW6CCQDPNYXugL8qPjATBgNV
HSUEDDAKBggrBgEFBQcDAjALBgNVHQ8EBAMCB4AwDQYJKoZIhvcNAQEEBQADggIB
AE6VL95chCangciCbTsiSJdCgqfuSrbDj710IpEuD8zkjKcIE9WwNRexzsxzNOa9
UiXpo70IcOz/nufmFc6rhuxf0YZfvd9FdECGax1Y/EPTY7AKhmwrNX1pUGuQ7Pw4
XRvGtCHX7dW5/nQ8ml6KmhEzQFB+9/YZ4UPO9MTn08VKy9RqUJ6ClOFyiFhQb70o
9L821EdeYJCjjTKasefreDk8YMaTD3lLBQtmlRlMjCVLcgbgCnxOrLG6d8E3r29j
NafAX5NDGkGRCQKpef0dGLR0hX2UrKZtpahf45oQm81ciDLx/6PXYCDXhSqiBfDx
wIdRb6/a/2+L74TbiQfh0wzsvwJh53FuVxoAkilvL6EQCIawLhkBjFYdDchVq7P7
CiV8TgbdyyuziXrA0asCv2839zbHWUrsLpY+WMtcUfVp0FtawIwMgvBYejYpNyPb
sorq3zgAliDVDcBPtLaZP5Wp2xE8LrpIJcfBRAghDHaIJrASCjJl0rdKBcq/jo0j
mejVswdqXVUyu9eJgejKIWz1nnFGOL4J3G6//er0wlkZPieB6VkrIuilK7HXwEQG
d1jkKyA6MajCzyWa7K5mgI9yk3rZcpCeDP5A38I4hDs6AYI6eMBiRwhjgzxU97pf
tMvflqlnxqN8z0gxy1C8IL6l25Alj937zkt66A7qkbbX
-----END CERTIFICATE-----
