Certificate:
    Data:
        Version: 3 (0x2)
        Serial Number: 8348 (0x209c)
    Signature Algorithm: md5WithRSAEncryption
        Issuer: C=US, ST=OH, L=Columbus, O=VikingVPN, OU=MyOrganizationalUnit, CN=VikingVPN CA/name=EasyRSA/emailAddress=me@myhost.mydomain
        Validity
            Not Before: Jun 23 18:15:25 2016 GMT
            Not After : Jun 21 18:15:25 2026 GMT
        Subject: CN=Client1702Cert5f7f7d
        Subject Public Key Info:
            Public Key Algorithm: rsaEncryption
                Public-Key: (4096 bit)
                Modulus:
                    00:d0:28:be:92:c0:6c:75:f3:2e:4d:d9:50:b9:e5:
                    27:23:a7:8e:cb:58:d9:93:8d:1b:2e:71:07:e7:89:
                    e4:78:6c:30:da:cb:34:af:f1:b3:9a:af:4a:b6:09:
                    9b:f4:5f:30:73:af:a1:cb:62:93:17:e5:32:bf:f3:
                    aa:69:e8:96:61:03:5c:b0:8f:a6:ab:2d:97:ae:5f:
                    2d:63:20:ef:01:01:85:97:0a:dc:40:54:bc:e0:03:
                    89:6f:46:55:ae:27:48:b0:64:94:f3:d0:a6:c5:bf:
                    43:18:f1:d8:18:76:79:b8:48:dd:8c:d1:73:7f:18:
                    b9:f0:70:f5:8d:72:32:af:4e:4d:59:53:36:72:a3:
                    32:f6:d1:8a:8a:82:d2:d3:82:42:13:c8:b6:3a:7c:
                    79:cb:c5:eb:c9:34:a9:60:cc:c7:a6:c0:6a:63:39:
                    7b:80:45:9b:85:3b:c0:93:14:5d:f6:29:91:bd:d3:
                    02:c3:65:c3:98:0f:45:d0:3b:59:b8:4d:1f:89:41:
                    66:03:25:81:ae:4f:6f:f3:0b:3f:db:2e:ee:47:d8:
                    0e:34:02:dd:c8:ce:22:1b:2e:d3:ba:45:05:e7:3f:
                    82:db:57:94:e1:08:82:3e:f1:ca:46:13:c2:cd:c0:
                    f8:43:14:4c:80:9e:71:41:d2:47:48:85:ec:51:5a:
                    53:6b:d3:ba:c5:10:c6:34:29:48:5b:5e:4e:3c:b6:
                    fa:8f:8a:3e:2a:12:1e:99:61:45:9f:f1:b4:37:bb:
                    85:52:2a:cb:8b:e1:fc:f6:4c:fb:5b:d5:38:49:c5:
                    ea:8c:ce:ca:d6:76:3f:d4:dc:c9:4e:1b:8e:e4:fe:
                    0e:5a:7d:9a:df:c8:e6:7a:c4:f1:09:2c:9a:11:83:
                    1a:74:02:5c:92:e1:d7:9a:fc:f9:55:d6:15:9c:0b:
                    8d:f6:3f:70:96:2a:23:6e:1d:00:b3:d2:6f:0a:32:
                    04:93:f6:c3:ee:a4:93:e0:a2:21:33:1e:11:72:bd:
                    0b:53:86:14:76:98:b7:77:68:e8:c8:27:6f:65:f8:
                    a5:2a:96:9e:0f:a9:63:93:53:ae:04:71:17:96:59:
                    70:d0:c3:80:25:c3:4a:20:0c:b0:27:6c:4a:b0:6c:
                    9f:5d:bd:92:7b:66:8d:67:a7:ca:e1:ca:ab:b9:86:
                    24:1a:07:23:0c:65:d0:43:83:b5:83:fc:ba:09:14:
                    83:a4:43:c5:0b:64:81:b9:a3:8c:e5:d1:43:53:4e:
                    fe:7f:60:b0:79:e2:2e:1c:19:24:26:c5:46:b9:be:
                    28:8d:33:0f:14:40:92:7a:91:8b:53:8d:52:7e:d0:
                    36:58:9f:c1:a2:ec:36:0d:33:82:6e:da:b3:a4:19:
                    c6:fd:e3
                Exponent: 65537 (0x10001)
        X509v3 extensions:
            X509v3 Basic Constraints: 
                CA:FALSE
            Netscape Comment: 
                Easy-RSA Generated Certificate
            X509v3 Subject Key Identifier: 
                E8:FB:90:C3:69:69:0D:EB:FF:F4:E0:02:33:C4:BC:0C:A0:4F:92:2C
            X509v3 Authority Key Identifier: 
                keyid:12:CD:60:04:D2:A0:80:9E:70:ED:C6:99:B8:7B:2C:C6:52:FD:19:A1
                DirName:/C=US/ST=OH/L=Columbus/O=VikingVPN/OU=MyOrganizationalUnit/CN=VikingVPN CA/name=EasyRSA/emailAddress=me@myhost.mydomain
                serial:CF:35:85:EE:80:BF:2A:3E

            X509v3 Extended Key Usage: 
                TLS Web Client Authentication
            X509v3 Key Usage: 
                Digital Signature
    Signature Algorithm: md5WithRSAEncryption
         07:d4:e5:ff:7a:07:a0:08:2e:12:e8:ec:07:89:52:2e:db:03:
         c9:c2:46:cf:b8:1f:8f:b1:bb:46:0a:bf:30:fb:56:4d:e2:0c:
         6e:29:dd:7e:96:bd:c6:ce:b3:e9:44:0b:0b:49:cf:a5:f6:a6:
         59:58:71:6e:c2:a7:63:a7:64:92:77:15:3d:43:ee:6d:28:89:
         3c:8e:20:5d:43:2a:c1:50:2a:67:aa:5f:66:18:01:a1:a2:98:
         fd:5f:8f:37:77:88:63:07:5d:01:1b:f3:88:13:81:25:de:7e:
         f4:94:88:6c:76:74:27:19:d3:3a:6f:c4:64:6e:c8:bb:0c:dc:
         d0:fb:09:bc:46:df:eb:7c:7e:bd:2b:dd:81:ed:e1:0e:87:d2:
         62:ba:2b:02:7c:a1:c1:16:e9:66:fd:ef:14:42:be:8c:51:16:
         16:12:3d:c9:a7:a2:64:cd:ff:e4:ac:ed:53:41:9e:7a:82:a8:
         b8:97:67:18:2b:96:64:22:4c:aa:d4:5a:3c:cd:88:77:79:5c:
         c6:18:07:27:3a:94:d3:1b:46:5a:ec:f6:a3:c1:ff:c3:22:ef:
         c9:8a:e7:3a:aa:9d:bd:ea:8b:b5:8a:1e:0f:7b:c8:8a:77:d9:
         56:bb:34:35:3a:97:f0:35:a9:eb:3a:06:e6:52:3a:02:b6:f1:
         fe:e3:53:fa:1c:12:df:c1:0b:99:8e:9b:18:6b:fe:3a:fc:dc:
         0c:7d:e5:a9:07:c2:9d:86:a2:63:73:cd:4a:d3:94:fa:d8:e0:
         f5:c3:75:8e:fa:ff:75:56:a1:34:de:74:10:f5:db:93:d0:03:
         89:2d:ac:c7:a7:03:7a:6e:5e:33:5b:18:a3:8b:8b:ef:0b:c5:
         8e:09:6b:df:60:c1:f5:27:a3:2d:b2:b2:7f:22:3f:44:e4:24:
         e3:4f:61:2b:e2:93:e4:3e:d0:3c:71:b0:97:0c:ce:d3:4a:f0:
         e4:73:8a:59:bc:31:6c:4c:bc:a1:89:0e:3f:04:7d:6c:db:61:
         b7:38:b4:3f:59:84:f1:40:cb:aa:94:36:e7:f0:2e:66:44:f4:
         4a:cf:1c:e9:26:c8:2b:76:35:39:a8:57:43:60:bd:55:32:c8:
         d4:5f:36:88:05:f3:8f:43:99:b6:f5:ba:a7:02:21:cb:1e:55:
         39:88:80:5a:6d:63:f3:8b:ea:a5:97:d3:e5:b2:0a:a0:6a:db:
         1a:08:0b:07:6e:f2:52:cb:6c:07:d3:3f:5f:69:72:d4:74:e5:
         fb:a3:eb:3e:44:39:c1:1d:04:0f:29:74:67:f9:6c:8e:5f:04:
         c2:57:c7:c4:37:88:53:b1:eb:06:bc:7a:ad:2f:66:ec:17:c9:
         e8:fa:bf:76:18:32:9c:bb
-----BEGIN CERTIFICATE-----
MIIGrTCCBJWgAwIBAgICIJwwDQYJKoZIhvcNAQEEBQAwgawxCzAJBgNVBAYTAlVT
MQswCQYDVQQIEwJPSDERMA8GA1UEBxMIQ29sdW1idXMxEjAQBgNVBAoTCVZpa2lu
Z1ZQTjEdMBsGA1UECxMUTXlPcmdhbml6YXRpb25hbFVuaXQxFTATBgNVBAMTDFZp
a2luZ1ZQTiBDQTEQMA4GA1UEKRMHRWFzeVJTQTEhMB8GCSqGSIb3DQEJARYSbWVA
bXlob3N0Lm15ZG9tYWluMB4XDTE2MDYyMzE4MTUyNVoXDTI2MDYyMTE4MTUyNVow
HzEdMBsGA1UEAxMUQ2xpZW50MTcwMkNlcnQ1ZjdmN2QwggIiMA0GCSqGSIb3DQEB
AQUAA4ICDwAwggIKAoICAQDQKL6SwGx18y5N2VC55Scjp47LWNmTjRsucQfnieR4
bDDayzSv8bOar0q2CZv0XzBzr6HLYpMX5TK/86pp6JZhA1ywj6arLZeuXy1jIO8B
AYWXCtxAVLzgA4lvRlWuJ0iwZJTz0KbFv0MY8dgYdnm4SN2M0XN/GLnwcPWNcjKv
Tk1ZUzZyozL20YqKgtLTgkITyLY6fHnLxevJNKlgzMemwGpjOXuARZuFO8CTFF32
KZG90wLDZcOYD0XQO1m4TR+JQWYDJYGuT2/zCz/bLu5H2A40At3IziIbLtO6RQXn
P4LbV5ThCII+8cpGE8LNwPhDFEyAnnFB0kdIhexRWlNr07rFEMY0KUhbXk48tvqP
ij4qEh6ZYUWf8bQ3u4VSKsuL4fz2TPtb1ThJxeqMzsrWdj/U3MlOG47k/g5afZrf
yOZ6xPEJLJoRgxp0AlyS4dea/PlV1hWcC432P3CWKiNuHQCz0m8KMgST9sPupJPg
oiEzHhFyvQtThhR2mLd3aOjIJ29l+KUqlp4PqWOTU64EcReWWXDQw4Alw0ogDLAn
bEqwbJ9dvZJ7Zo1np8rhyqu5hiQaByMMZdBDg7WD/LoJFIOkQ8ULZIG5o4zl0UNT
Tv5/YLB54i4cGSQmxUa5viiNMw8UQJJ6kYtTjVJ+0DZYn8Gi7DYNM4Ju2rOkGcb9
4wIDAQABo4IBYzCCAV8wCQYDVR0TBAIwADAtBglghkgBhvhCAQ0EIBYeRWFzeS1S
U0EgR2VuZXJhdGVkIENlcnRpZmljYXRlMB0GA1UdDgQWBBTo+5DDaWkN6//04AIz
xLwMoE+SLDCB4QYDVR0jBIHZMIHWgBQSzWAE0qCAnnDtxpm4eyzGUv0ZoaGBsqSB
rzCBrDELMAkGA1UEBhMCVVMxCzAJBgNVBAgTAk9IMREwDwYDVQQHEwhDb2x1bWJ1
czESMBAGA1UEChMJVmlraW5nVlBOMR0wGwYDVQQLExRNeU9yZ2FuaXphdGlvbmFs
VW5pdDEVMBMGA1UEAxMMVmlraW5nVlBOIENBMRAwDgYDVQQpEwdFYXN5UlNBMSEw
HwYJKoZIhvcNAQkBFhJtZUBteWhvc3QubXlkb21haW6CCQDPNYXugL8qPjATBgNV
HSUEDDAKBggrBgEFBQcDAjALBgNVHQ8EBAMCB4AwDQYJKoZIhvcNAQEEBQADggIB
AAfU5f96B6AILhLo7AeJUi7bA8nCRs+4H4+xu0YKvzD7Vk3iDG4p3X6WvcbOs+lE
CwtJz6X2pllYcW7Cp2OnZJJ3FT1D7m0oiTyOIF1DKsFQKmeqX2YYAaGimP1fjzd3
iGMHXQEb84gTgSXefvSUiGx2dCcZ0zpvxGRuyLsM3ND7CbxG3+t8fr0r3YHt4Q6H
0mK6KwJ8ocEW6Wb97xRCvoxRFhYSPcmnomTN/+Ss7VNBnnqCqLiXZxgrlmQiTKrU
WjzNiHd5XMYYByc6lNMbRlrs9qPB/8Mi78mK5zqqnb3qi7WKHg97yIp32Va7NDU6
l/A1qes6BuZSOgK28f7jU/ocEt/BC5mOmxhr/jr83Ax95akHwp2GomNzzUrTlPrY
4PXDdY76/3VWoTTedBD125PQA4ktrMenA3puXjNbGKOLi+8LxY4Ja99gwfUnoy2y
sn8iP0TkJONPYSvik+Q+0DxxsJcMztNK8ORzilm8MWxMvKGJDj8EfWzbYbc4tD9Z
hPFAy6qUNufwLmZE9ErPHOkmyCt2NTmoV0NgvVUyyNRfNogF849Dmbb1uqcCIcse
VTmIgFptY/OL6qWX0+WyCqBq2xoICwdu8lLLbAfTP19pctR05fuj6z5EOcEdBA8p
dGf5bI5fBMJXx8Q3iFOx6wa8eq0vZuwXyej6v3YYMpy7
-----END CERTIFICATE-----
