Certificate:
    Data:
        Version: 3 (0x2)
        Serial Number: 12258 (0x2fe2)
    Signature Algorithm: sha256WithRSAEncryption
        Issuer: C=US, ST=OH, L=Columbus, O=VikingVPN, OU=MyOrganizationalUnit, CN=VikingVPN CA/name=EasyRSA/emailAddress=me@myhost.mydomain
        Validity
            Not Before: Dec 12 20:07:23 2017 GMT
            Not After : Dec 10 20:07:23 2027 GMT
        Subject: CN=Client2649Certa5184a
        Subject Public Key Info:
            Public Key Algorithm: rsaEncryption
                Public-Key: (4096 bit)
                Modulus:
                    00:b4:86:0a:8b:67:58:85:05:b3:d8:46:ae:c0:8c:
                    88:b7:01:b8:37:31:06:55:b1:b7:e7:2a:18:bc:b8:
                    23:47:a1:f8:10:30:32:f5:4a:7c:f6:cc:38:79:44:
                    1a:3a:88:bb:7e:4d:c5:e7:c3:61:e6:f9:18:97:6c:
                    14:46:80:5c:0a:d6:6a:3c:0e:12:8c:53:f8:cc:ca:
                    d6:8f:33:79:55:2f:f6:2f:76:90:d9:15:a7:c4:7d:
                    9c:52:09:4d:c3:73:32:29:31:9b:62:8c:bd:90:b2:
                    30:67:33:5b:6e:7d:bb:4b:60:24:b5:1c:ee:7d:68:
                    ff:6a:1c:54:d3:8f:0b:62:7b:31:84:f6:19:53:86:
                    1f:f1:65:24:34:24:7b:c3:3b:c5:44:6f:2d:4a:54:
                    2c:27:12:65:42:97:8e:1c:0f:9d:46:65:e5:2f:2c:
                    a1:0c:1e:82:70:e0:f7:8e:1e:aa:17:be:17:46:d6:
                    51:53:3d:74:c2:14:47:80:f1:25:0c:79:1c:d3:94:
                    6a:b2:b6:61:16:18:a6:1a:50:81:6e:2c:89:94:94:
                    c9:be:cd:e6:1b:1d:7e:e2:36:e5:a8:46:ea:53:73:
                    16:72:af:f8:c5:6a:b1:7a:08:02:f7:a0:f3:a3:f7:
                    4d:ee:e8:94:4f:88:0e:84:5f:f9:c5:fd:50:8e:c4:
                    e9:f0:4f:8d:82:31:3f:1c:f9:83:f2:f7:f4:bf:b8:
                    15:83:35:a2:6e:83:ef:56:b9:94:8e:44:ec:31:08:
                    44:b6:45:d7:e4:a3:78:c4:b0:f8:b8:cd:43:4a:7a:
                    0d:4e:cc:ff:4d:0c:4f:7c:66:9a:aa:4e:ae:8f:dd:
                    de:72:d0:73:38:f7:0f:47:dd:61:f9:2a:91:9c:05:
                    f7:93:88:b7:86:19:db:cc:b1:c1:ae:a0:d5:ac:86:
                    73:30:2e:3e:5e:3c:a1:e0:8e:25:55:66:b0:6b:9d:
                    51:ab:11:b1:05:06:af:47:f8:dc:c4:84:f0:5a:9d:
                    8e:b2:cf:77:6c:5f:8b:b2:b8:79:e2:e3:74:8d:5b:
                    cd:a0:fc:06:4b:12:5c:31:dd:fd:6b:f5:db:bf:be:
                    f7:40:7b:68:3f:14:29:ab:a0:6a:05:ec:ab:6c:61:
                    95:87:bd:b3:23:e7:56:62:fe:e5:cc:fa:ba:89:24:
                    15:d9:d5:f2:77:0f:46:28:2b:1f:92:f8:65:f9:b2:
                    3c:58:89:69:73:06:7c:aa:c4:2d:df:94:85:f5:43:
                    a4:94:3d:41:f4:42:dd:10:69:45:40:b8:22:3a:99:
                    bc:f5:bd:4a:a8:65:dc:90:f3:0a:cc:12:0e:0d:5a:
                    db:d1:91:ab:98:c4:15:60:95:05:f9:95:0b:f1:12:
                    93:41:d9
                Exponent: 65537 (0x10001)
        X509v3 extensions:
            X509v3 Basic Constraints: 
                CA:FALSE
            Netscape Comment: 
                Easy-RSA Generated Certificate
            X509v3 Subject Key Identifier: 
                BA:80:EC:A8:5A:62:FF:39:00:D5:AB:3E:3A:96:7A:C1:45:7C:F1:15
            X509v3 Authority Key Identifier: 
                keyid:12:CD:60:04:D2:A0:80:9E:70:ED:C6:99:B8:7B:2C:C6:52:FD:19:A1
                DirName:/C=US/ST=OH/L=Columbus/O=VikingVPN/OU=MyOrganizationalUnit/CN=VikingVPN CA/name=EasyRSA/emailAddress=me@myhost.mydomain
                serial:CF:35:85:EE:80:BF:2A:3E

            X509v3 Extended Key Usage: 
                TLS Web Client Authentication
            X509v3 Key Usage: 
                Digital Signature
    Signature Algorithm: sha256WithRSAEncryption
         28:59:13:64:26:8b:97:98:0a:ce:33:6d:b2:c1:f8:4f:19:45:
         8e:b5:24:fd:07:12:7d:43:2d:30:e2:08:d2:a5:c5:d0:1b:e5:
         9d:e2:ac:cf:ba:e2:b2:ba:17:87:74:f6:5e:0a:89:a1:74:6b:
         39:a7:ee:a8:05:65:a9:cf:8e:2f:fd:46:fc:fd:3a:be:7d:8e:
         f6:91:20:5e:04:25:a8:a5:5c:53:7d:3a:57:40:49:d9:86:ad:
         a9:2a:16:72:3d:ef:09:55:7c:57:5b:19:f1:c9:83:b9:80:86:
         59:5f:56:19:bd:e4:26:bf:86:f0:19:81:f3:20:a8:b7:26:f0:
         85:24:f3:31:19:c7:0f:04:cd:68:18:20:76:da:db:87:ca:22:
         64:78:a0:03:59:73:0a:1e:90:e8:41:41:c3:cb:aa:b9:e0:ca:
         6f:0e:78:40:8c:25:8f:cd:2d:0c:7e:1c:12:55:5c:e1:6b:4e:
         83:0d:8d:18:41:3f:67:ce:9b:b7:49:92:5a:a1:e7:27:07:73:
         5f:c4:f5:d4:ba:16:94:0b:11:fd:52:51:b3:04:17:bc:08:8c:
         62:f1:f1:84:94:19:bb:db:d3:4b:04:91:9d:5a:54:57:29:90:
         30:56:86:90:44:0d:5a:3b:0f:ab:7b:ff:9f:0c:04:7f:59:cb:
         76:6d:14:f2:99:a0:7e:41:23:54:95:0a:39:10:6e:fd:65:39:
         9a:1b:bb:42:35:7e:66:04:54:00:b6:70:cc:e0:2f:cb:e9:b0:
         c3:3b:ba:b7:ec:bf:61:cc:e6:7a:d8:3e:25:60:8d:c0:38:7b:
         33:f8:db:ff:1d:35:64:ec:e7:25:d1:01:ee:0a:00:27:36:81:
         66:4b:88:1e:2d:44:16:d5:64:65:f5:04:f6:2b:3d:3c:d5:b4:
         50:51:48:85:56:b1:38:1f:a0:6a:72:f4:e2:7d:a7:32:4e:c3:
         41:d5:a9:ef:bb:58:7d:36:eb:cd:78:1f:e0:84:fe:3f:60:77:
         e3:68:8c:64:02:83:8e:f6:e9:8c:96:c9:fe:bf:94:4d:de:b2:
         4b:b3:10:34:da:47:5d:8a:3e:52:80:76:8e:c4:26:19:1e:83:
         5c:6b:0d:65:e0:1e:af:1a:02:9f:73:d9:f5:55:fc:ee:44:9c:
         ad:aa:1a:68:26:10:e5:22:03:59:f7:6b:3c:fb:b5:35:07:78:
         02:ef:0e:f2:f9:b4:ff:5c:38:01:14:88:c3:17:68:00:98:92:
         71:9a:75:44:2f:35:72:74:ec:23:ff:9d:d5:42:91:1e:23:3a:
         41:01:14:2c:16:a5:10:c8:37:62:ad:b6:c9:0f:2e:a4:e6:84:
         c8:ce:aa:00:87:79:b3:cb
-----BEGIN CERTIFICATE-----
MIIGrTCCBJWgAwIBAgICL+IwDQYJKoZIhvcNAQELBQAwgawxCzAJBgNVBAYTAlVT
MQswCQYDVQQIEwJPSDERMA8GA1UEBxMIQ29sdW1idXMxEjAQBgNVBAoTCVZpa2lu
Z1ZQTjEdMBsGA1UECxMUTXlPcmdhbml6YXRpb25hbFVuaXQxFTATBgNVBAMTDFZp
a2luZ1ZQTiBDQTEQMA4GA1UEKRMHRWFzeVJTQTEhMB8GCSqGSIb3DQEJARYSbWVA
bXlob3N0Lm15ZG9tYWluMB4XDTE3MTIxMjIwMDcyM1oXDTI3MTIxMDIwMDcyM1ow
HzEdMBsGA1UEAxMUQ2xpZW50MjY0OUNlcnRhNTE4NGEwggIiMA0GCSqGSIb3DQEB
AQUAA4ICDwAwggIKAoICAQC0hgqLZ1iFBbPYRq7AjIi3Abg3MQZVsbfnKhi8uCNH
ofgQMDL1Snz2zDh5RBo6iLt+TcXnw2Hm+RiXbBRGgFwK1mo8DhKMU/jMytaPM3lV
L/YvdpDZFafEfZxSCU3DczIpMZtijL2QsjBnM1tufbtLYCS1HO59aP9qHFTTjwti
ezGE9hlThh/xZSQ0JHvDO8VEby1KVCwnEmVCl44cD51GZeUvLKEMHoJw4PeOHqoX
vhdG1lFTPXTCFEeA8SUMeRzTlGqytmEWGKYaUIFuLImUlMm+zeYbHX7iNuWoRupT
cxZyr/jFarF6CAL3oPOj903u6JRPiA6EX/nF/VCOxOnwT42CMT8c+YPy9/S/uBWD
NaJug+9WuZSOROwxCES2Rdfko3jEsPi4zUNKeg1OzP9NDE98ZpqqTq6P3d5y0HM4
9w9H3WH5KpGcBfeTiLeGGdvMscGuoNWshnMwLj5ePKHgjiVVZrBrnVGrEbEFBq9H
+NzEhPBanY6yz3dsX4uyuHni43SNW82g/AZLElwx3f1r9du/vvdAe2g/FCmroGoF
7KtsYZWHvbMj51Zi/uXM+rqJJBXZ1fJ3D0YoKx+S+GX5sjxYiWlzBnyqxC3flIX1
Q6SUPUH0Qt0QaUVAuCI6mbz1vUqoZdyQ8wrMEg4NWtvRkauYxBVglQX5lQvxEpNB
2QIDAQABo4IBYzCCAV8wCQYDVR0TBAIwADAtBglghkgBhvhCAQ0EIBYeRWFzeS1S
U0EgR2VuZXJhdGVkIENlcnRpZmljYXRlMB0GA1UdDgQWBBS6gOyoWmL/OQDVqz46
lnrBRXzxFTCB4QYDVR0jBIHZMIHWgBQSzWAE0qCAnnDtxpm4eyzGUv0ZoaGBsqSB
rzCBrDELMAkGA1UEBhMCVVMxCzAJBgNVBAgTAk9IMREwDwYDVQQHEwhDb2x1bWJ1
czESMBAGA1UEChMJVmlraW5nVlBOMR0wGwYDVQQLExRNeU9yZ2FuaXphdGlvbmFs
VW5pdDEVMBMGA1UEAxMMVmlraW5nVlBOIENBMRAwDgYDVQQpEwdFYXN5UlNBMSEw
HwYJKoZIhvcNAQkBFhJtZUBteWhvc3QubXlkb21haW6CCQDPNYXugL8qPjATBgNV
HSUEDDAKBggrBgEFBQcDAjALBgNVHQ8EBAMCB4AwDQYJKoZIhvcNAQELBQADggIB
AChZE2Qmi5eYCs4zbbLB+E8ZRY61JP0HEn1DLTDiCNKlxdAb5Z3irM+64rK6F4d0
9l4KiaF0azmn7qgFZanPji/9Rvz9Or59jvaRIF4EJailXFN9OldASdmGrakqFnI9
7wlVfFdbGfHJg7mAhllfVhm95Ca/hvAZgfMgqLcm8IUk8zEZxw8EzWgYIHba24fK
ImR4oANZcwoekOhBQcPLqrngym8OeECMJY/NLQx+HBJVXOFrToMNjRhBP2fOm7dJ
klqh5ycHc1/E9dS6FpQLEf1SUbMEF7wIjGLx8YSUGbvb00sEkZ1aVFcpkDBWhpBE
DVo7D6t7/58MBH9Zy3ZtFPKZoH5BI1SVCjkQbv1lOZobu0I1fmYEVAC2cMzgL8vp
sMM7urfsv2HM5nrYPiVgjcA4ezP42/8dNWTs5yXRAe4KACc2gWZLiB4tRBbVZGX1
BPYrPTzVtFBRSIVWsTgfoGpy9OJ9pzJOw0HVqe+7WH026814H+CE/j9gd+NojGQC
g4726YyWyf6/lE3eskuzEDTaR12KPlKAdo7EJhkeg1xrDWXgHq8aAp9z2fVV/O5E
nK2qGmgmEOUiA1n3azz7tTUHeALvDvL5tP9cOAEUiMMXaACYknGadUQvNXJ07CP/
ndVCkR4jOkEBFCwWpRDIN2KttskPLqTmhMjOqgCHebPL
-----END CERTIFICATE-----
