Certificate:
    Data:
        Version: 3 (0x2)
        Serial Number: 4334 (0x10ee)
    Signature Algorithm: md5WithRSAEncryption
        Issuer: C=US, ST=OH, L=Columbus, O=VikingVPN, OU=MyOrganizationalUnit, CN=VikingVPN CA/name=EasyRSA/emailAddress=me@myhost.mydomain
        Validity
            Not Before: Jan 30 13:08:21 2015 GMT
            Not After : Jan 27 13:08:21 2025 GMT
        Subject: CN=Client1390Certd1e56f
        Subject Public Key Info:
            Public Key Algorithm: rsaEncryption
                Public-Key: (4096 bit)
                Modulus:
                    00:aa:94:79:9f:d6:12:ae:91:ef:1a:41:54:21:09:
                    f8:f8:f2:75:23:b8:98:8f:ca:28:4a:b0:ab:33:bd:
                    d2:2c:9a:0e:73:e7:40:91:95:fb:f5:4b:43:42:a2:
                    7e:d6:e1:15:1b:a2:1a:f3:a1:13:3a:ed:f2:4d:50:
                    7c:cb:be:2c:28:69:f6:ed:f4:00:da:a2:3a:aa:4b:
                    69:93:bf:41:1a:40:db:de:41:ad:33:53:4e:a3:ce:
                    ee:99:40:e8:42:43:00:62:e8:98:0e:8c:60:da:2f:
                    dc:b0:ca:50:b6:fa:0f:d7:4e:58:55:f5:07:b4:87:
                    e9:ad:40:09:7b:36:63:51:19:4c:97:a7:45:db:a9:
                    e5:3e:aa:4a:0d:89:9f:01:6a:75:02:ff:b7:66:b9:
                    2e:94:8b:e0:be:65:c4:41:db:d1:8a:c4:80:0e:4c:
                    bc:d2:47:0b:3f:18:27:7e:4c:0c:64:6c:7a:75:31:
                    e3:d0:e9:e2:5b:b2:44:7b:1b:2f:4f:bf:79:58:83:
                    d9:8a:c3:06:2e:78:5a:73:74:f1:a2:91:30:0c:96:
                    05:77:67:40:52:2f:de:e3:fa:7c:77:4b:66:44:d5:
                    00:fe:93:fc:92:39:56:4e:e3:43:0c:96:36:38:4a:
                    03:7f:81:e9:f5:83:47:20:8c:04:fb:98:5b:87:2c:
                    94:74:ae:5e:9f:23:ab:8d:b2:0b:86:1f:53:e5:fb:
                    49:00:ad:00:d8:3e:d8:58:20:7d:c8:5c:b5:b9:c3:
                    6e:00:91:dd:3f:ce:c9:62:dc:b8:88:ac:49:48:91:
                    d4:4d:ed:83:8a:9b:2a:de:62:80:91:ef:93:85:1b:
                    05:af:37:c4:4b:3f:db:a0:24:3b:fe:53:9e:95:0a:
                    66:6e:1b:d2:ae:e6:f1:b6:26:bb:6d:6e:3d:f5:f6:
                    9a:b4:05:c2:17:90:b3:f9:f7:01:f0:fa:1d:eb:e5:
                    29:c7:04:5a:05:6a:2d:65:f7:45:34:40:04:b2:f4:
                    dd:72:bc:e3:e0:1f:c6:3a:15:08:1b:74:68:44:51:
                    0e:04:29:5e:28:b8:c8:e5:b5:3d:cb:4b:d4:d0:c4:
                    30:3c:26:95:6e:99:97:5b:d8:c9:8d:bd:f5:ee:87:
                    c0:0b:d2:e8:0a:ee:42:6f:e6:59:ad:38:62:e4:1d:
                    1d:01:78:fc:61:60:15:f3:da:e1:48:11:f0:db:12:
                    ae:ab:e6:1e:a6:fc:75:07:3f:a3:e0:80:6d:a5:7a:
                    1a:7c:c1:14:2c:ec:4a:93:fa:9d:f3:12:09:d1:10:
                    9e:44:7d:b3:52:3f:4b:71:cd:75:cb:0e:03:c7:38:
                    91:8e:f2:91:f1:cd:7d:b8:67:0f:33:38:6e:eb:bf:
                    fc:61:e3
                Exponent: 65537 (0x10001)
        X509v3 extensions:
            X509v3 Basic Constraints: 
                CA:FALSE
            Netscape Comment: 
                Easy-RSA Generated Certificate
            X509v3 Subject Key Identifier: 
                28:09:A4:49:69:EE:06:05:EE:27:36:98:8E:FE:B7:21:42:E6:7C:3A
            X509v3 Authority Key Identifier: 
                keyid:12:CD:60:04:D2:A0:80:9E:70:ED:C6:99:B8:7B:2C:C6:52:FD:19:A1
                DirName:/C=US/ST=OH/L=Columbus/O=VikingVPN/OU=MyOrganizationalUnit/CN=VikingVPN CA/name=EasyRSA/emailAddress=me@myhost.mydomain
                serial:CF:35:85:EE:80:BF:2A:3E

            X509v3 Extended Key Usage: 
                TLS Web Client Authentication
            X509v3 Key Usage: 
                Digital Signature
    Signature Algorithm: md5WithRSAEncryption
         d4:fe:b8:b4:99:54:6e:aa:37:53:e6:b6:1d:a8:67:82:d3:77:
         c2:e0:5b:37:ee:15:af:53:0b:3a:87:83:57:77:9c:a0:cf:0f:
         37:5a:3c:16:c6:8a:e6:9e:c6:f0:42:fe:e1:0f:e6:6e:fc:e5:
         d6:04:a6:cd:aa:63:e6:66:4d:06:9f:13:86:b5:5f:e1:39:1e:
         7b:f0:c8:62:59:f5:89:fc:fe:62:d0:d3:da:2e:46:6e:4a:71:
         7a:62:59:d6:8f:1b:25:9f:25:98:55:02:69:fe:39:89:8d:52:
         5a:98:24:ea:e5:d6:54:70:13:b1:00:76:fc:d7:73:cc:cc:14:
         40:93:04:fb:8b:38:24:eb:a5:2f:f0:fa:fa:ef:71:3b:95:d6:
         e5:5b:75:0d:4b:be:85:6b:40:71:3a:34:df:93:f2:1a:c9:72:
         f3:7e:c1:c7:35:70:72:e8:cc:e3:c1:ad:21:25:11:c4:a2:bb:
         03:3f:b4:f1:64:10:b6:20:e7:26:29:4e:e6:e5:35:06:68:21:
         a5:ad:fd:76:0d:56:2f:0d:f3:87:31:5e:80:55:4e:0b:06:9f:
         fe:7e:7c:6e:7a:e8:9d:a5:ce:a5:e3:4e:5e:0e:84:41:5e:36:
         b0:e3:44:d1:c7:55:09:47:1d:94:ef:f2:8e:f7:05:e9:c4:4d:
         f7:58:18:78:2d:a2:1f:94:a0:9d:49:79:67:eb:5f:3e:2f:66:
         1e:82:ee:78:94:17:c2:4f:41:24:13:0a:43:98:bb:1e:6b:a6:
         17:fb:b5:1a:fe:67:a8:a8:69:a9:bb:28:ad:b5:16:1f:90:9a:
         ec:de:c3:01:2f:18:2f:60:11:70:15:0e:da:e9:58:d6:60:5a:
         30:32:3f:76:44:cf:d8:9f:4f:f4:ae:4e:99:04:85:eb:70:de:
         15:d4:2b:b2:8e:ab:51:b1:56:2f:09:94:e1:97:d6:70:b5:69:
         81:09:60:ab:fe:b5:df:fb:b2:ce:e1:8c:23:95:5d:07:cf:e3:
         c1:64:a6:1a:80:56:d0:a0:75:1a:ba:01:f7:73:bd:51:5a:7b:
         50:6e:56:1f:ae:98:02:dc:ce:1b:78:0b:04:f4:1d:33:a6:ee:
         7a:4d:f7:96:87:7f:ca:54:b8:99:74:4e:78:86:9c:ce:f3:c8:
         61:60:24:8c:63:a2:25:26:f5:d7:35:c1:ef:75:2f:14:64:96:
         5a:26:d7:74:71:9a:24:63:ad:34:14:69:4e:9d:9c:4e:9b:07:
         20:01:02:43:df:61:9e:28:0d:83:1d:54:f3:0a:5f:1c:b3:51:
         2a:b2:1c:16:05:77:87:88:03:5e:87:99:36:70:80:3a:55:3f:
         d8:bd:62:49:ab:c5:db:bb
-----BEGIN CERTIFICATE-----
MIIGrTCCBJWgAwIBAgICEO4wDQYJKoZIhvcNAQEEBQAwgawxCzAJBgNVBAYTAlVT
MQswCQYDVQQIEwJPSDERMA8GA1UEBxMIQ29sdW1idXMxEjAQBgNVBAoTCVZpa2lu
Z1ZQTjEdMBsGA1UECxMUTXlPcmdhbml6YXRpb25hbFVuaXQxFTATBgNVBAMTDFZp
a2luZ1ZQTiBDQTEQMA4GA1UEKRMHRWFzeVJTQTEhMB8GCSqGSIb3DQEJARYSbWVA
bXlob3N0Lm15ZG9tYWluMB4XDTE1MDEzMDEzMDgyMVoXDTI1MDEyNzEzMDgyMVow
HzEdMBsGA1UEAxMUQ2xpZW50MTM5MENlcnRkMWU1NmYwggIiMA0GCSqGSIb3DQEB
AQUAA4ICDwAwggIKAoICAQCqlHmf1hKuke8aQVQhCfj48nUjuJiPyihKsKszvdIs
mg5z50CRlfv1S0NCon7W4RUbohrzoRM67fJNUHzLviwoafbt9ADaojqqS2mTv0Ea
QNveQa0zU06jzu6ZQOhCQwBi6JgOjGDaL9ywylC2+g/XTlhV9Qe0h+mtQAl7NmNR
GUyXp0XbqeU+qkoNiZ8BanUC/7dmuS6Ui+C+ZcRB29GKxIAOTLzSRws/GCd+TAxk
bHp1MePQ6eJbskR7Gy9Pv3lYg9mKwwYueFpzdPGikTAMlgV3Z0BSL97j+nx3S2ZE
1QD+k/ySOVZO40MMljY4SgN/gen1g0cgjAT7mFuHLJR0rl6fI6uNsguGH1Pl+0kA
rQDYPthYIH3IXLW5w24Akd0/zsli3LiIrElIkdRN7YOKmyreYoCR75OFGwWvN8RL
P9ugJDv+U56VCmZuG9Ku5vG2Jrttbj319pq0BcIXkLP59wHw+h3r5SnHBFoFai1l
90U0QASy9N1yvOPgH8Y6FQgbdGhEUQ4EKV4ouMjltT3LS9TQxDA8JpVumZdb2MmN
vfXuh8AL0ugK7kJv5lmtOGLkHR0BePxhYBXz2uFIEfDbEq6r5h6m/HUHP6PggG2l
ehp8wRQs7EqT+p3zEgnREJ5EfbNSP0txzXXLDgPHOJGO8pHxzX24Zw8zOG7rv/xh
4wIDAQABo4IBYzCCAV8wCQYDVR0TBAIwADAtBglghkgBhvhCAQ0EIBYeRWFzeS1S
U0EgR2VuZXJhdGVkIENlcnRpZmljYXRlMB0GA1UdDgQWBBQoCaRJae4GBe4nNpiO
/rchQuZ8OjCB4QYDVR0jBIHZMIHWgBQSzWAE0qCAnnDtxpm4eyzGUv0ZoaGBsqSB
rzCBrDELMAkGA1UEBhMCVVMxCzAJBgNVBAgTAk9IMREwDwYDVQQHEwhDb2x1bWJ1
czESMBAGA1UEChMJVmlraW5nVlBOMR0wGwYDVQQLExRNeU9yZ2FuaXphdGlvbmFs
VW5pdDEVMBMGA1UEAxMMVmlraW5nVlBOIENBMRAwDgYDVQQpEwdFYXN5UlNBMSEw
HwYJKoZIhvcNAQkBFhJtZUBteWhvc3QubXlkb21haW6CCQDPNYXugL8qPjATBgNV
HSUEDDAKBggrBgEFBQcDAjALBgNVHQ8EBAMCB4AwDQYJKoZIhvcNAQEEBQADggIB
ANT+uLSZVG6qN1Pmth2oZ4LTd8LgWzfuFa9TCzqHg1d3nKDPDzdaPBbGiuaexvBC
/uEP5m785dYEps2qY+ZmTQafE4a1X+E5HnvwyGJZ9Yn8/mLQ09ouRm5KcXpiWdaP
GyWfJZhVAmn+OYmNUlqYJOrl1lRwE7EAdvzXc8zMFECTBPuLOCTrpS/w+vrvcTuV
1uVbdQ1LvoVrQHE6NN+T8hrJcvN+wcc1cHLozOPBrSElEcSiuwM/tPFkELYg5yYp
TublNQZoIaWt/XYNVi8N84cxXoBVTgsGn/5+fG566J2lzqXjTl4OhEFeNrDjRNHH
VQlHHZTv8o73BenETfdYGHgtoh+UoJ1JeWfrXz4vZh6C7niUF8JPQSQTCkOYux5r
phf7tRr+Z6ioaam7KK21Fh+QmuzewwEvGC9gEXAVDtrpWNZgWjAyP3ZEz9ifT/Su
TpkEhetw3hXUK7KOq1GxVi8JlOGX1nC1aYEJYKv+td/7ss7hjCOVXQfP48FkphqA
VtCgdRq6AfdzvVFae1BuVh+umALczht4CwT0HTOm7npN95aHf8pUuJl0TniGnM7z
yGFgJIxjoiUm9dc1we91LxRkllom13RxmiRjrTQUaU6dnE6bByABAkPfYZ4oDYMd
VPMKXxyzUSqyHBYFd4eIA16HmTZwgDpVP9i9Ykmrxdu7
-----END CERTIFICATE-----
