Certificate:
    Data:
        Version: 3 (0x2)
        Serial Number: 3841 (0xf01)
    Signature Algorithm: md5WithRSAEncryption
        Issuer: C=US, ST=OH, L=Columbus, O=VikingVPN, OU=MyOrganizationalUnit, CN=VikingVPN CA/name=EasyRSA/emailAddress=me@myhost.mydomain
        Validity
            Not Before: Dec 29 21:17:35 2014 GMT
            Not After : Dec 26 21:17:35 2024 GMT
        Subject: CN=Client801Cert93d8fd
        Subject Public Key Info:
            Public Key Algorithm: rsaEncryption
                Public-Key: (4096 bit)
                Modulus:
                    00:cb:a7:35:b4:cc:58:11:c0:4a:e3:5b:1b:6e:c7:
                    f8:4a:68:fd:d5:b5:29:3f:37:34:59:53:a0:5d:b3:
                    40:95:1b:3c:e4:a8:53:2b:17:65:b0:76:e5:75:63:
                    62:f9:d8:b7:8f:63:dc:c7:b2:ac:ec:64:03:b4:06:
                    d4:e5:9a:7b:82:62:64:b0:ca:d8:9e:6f:5f:c0:6d:
                    58:0a:31:4e:e2:01:fd:4f:5a:d0:1f:0b:dc:0b:bd:
                    1d:d4:b2:8b:81:6b:95:69:a3:fd:3d:29:1f:c6:96:
                    59:f3:c4:31:2c:ba:15:9e:69:52:62:27:85:04:88:
                    cc:bc:54:f2:89:df:15:23:cb:08:b6:bf:8e:6b:2b:
                    0e:7a:79:4f:83:84:ea:47:99:3d:0a:81:46:b6:11:
                    4d:46:a5:23:a4:52:ad:80:b9:da:60:f2:67:3e:e3:
                    16:32:3a:81:14:43:85:62:35:18:31:7b:de:a4:90:
                    cd:cf:80:9b:8b:6c:2e:ba:14:ba:59:94:fb:b2:ec:
                    18:ef:e8:61:a3:60:17:dd:9e:d3:aa:f8:d7:1e:d1:
                    d5:f3:1c:5e:36:20:28:d9:00:b6:77:38:77:9c:3a:
                    a6:11:7a:7b:b9:29:35:2b:aa:d7:09:73:06:a1:b1:
                    04:7d:be:de:f5:9a:e6:20:51:dd:c7:fd:0f:ac:ce:
                    78:2e:eb:1b:1f:c4:a9:a6:2a:af:4f:ca:af:27:7b:
                    73:85:cb:a2:b4:0b:b5:6f:d5:00:08:fb:85:11:bd:
                    39:01:01:21:52:b0:30:7f:a9:9f:02:3f:0c:0c:04:
                    76:bb:bf:84:d9:ca:2c:98:e0:a5:22:6a:1b:24:19:
                    8d:65:c3:94:ec:cf:e2:77:f7:8c:46:55:25:b3:04:
                    ce:c0:c5:7c:20:9a:e6:01:60:ac:06:d8:6a:60:b2:
                    f2:92:2e:46:8a:92:8b:bb:f1:91:27:f9:36:e9:2e:
                    06:35:b7:e8:f2:fc:05:46:50:18:da:29:6c:78:f9:
                    a3:71:d7:72:89:52:e5:91:a1:1d:1a:68:d5:40:ca:
                    7a:4b:5c:16:aa:d9:20:5a:9d:c2:9d:c9:50:95:fc:
                    60:77:c9:e8:22:c1:de:bd:4f:87:ea:18:b8:8b:dd:
                    ec:77:82:1d:f9:fd:dd:08:90:66:a5:5c:66:7e:2b:
                    80:a7:40:4b:05:c9:9e:fb:60:9e:2c:76:46:d4:88:
                    74:f2:a4:ac:7b:dc:dc:38:ea:e2:e8:ce:6f:f1:57:
                    42:04:bf:29:8b:88:4b:7a:50:56:5c:f2:b9:d7:c5:
                    92:af:8b:ad:bf:12:c7:38:93:b3:bd:12:7b:62:db:
                    c0:fb:9b:25:9c:d0:44:2f:cb:72:54:02:5e:b9:7a:
                    2c:69:c9
                Exponent: 65537 (0x10001)
        X509v3 extensions:
            X509v3 Basic Constraints: 
                CA:FALSE
            Netscape Comment: 
                Easy-RSA Generated Certificate
            X509v3 Subject Key Identifier: 
                78:5E:71:D4:3D:2E:25:3A:F9:5F:01:2C:5F:30:18:0F:BC:8F:39:66
            X509v3 Authority Key Identifier: 
                keyid:12:CD:60:04:D2:A0:80:9E:70:ED:C6:99:B8:7B:2C:C6:52:FD:19:A1
                DirName:/C=US/ST=OH/L=Columbus/O=VikingVPN/OU=MyOrganizationalUnit/CN=VikingVPN CA/name=EasyRSA/emailAddress=me@myhost.mydomain
                serial:CF:35:85:EE:80:BF:2A:3E

            X509v3 Extended Key Usage: 
                TLS Web Client Authentication
            X509v3 Key Usage: 
                Digital Signature
    Signature Algorithm: md5WithRSAEncryption
         2b:47:49:54:0d:8e:b9:2d:46:86:cd:48:a4:46:74:60:27:8c:
         a3:03:6b:20:b5:89:78:d9:31:63:94:15:28:6c:08:53:19:98:
         23:89:bd:8d:e9:3d:6f:6f:16:7e:05:6c:6c:a7:ad:83:eb:81:
         71:4b:bc:c8:5d:57:eb:86:16:9c:0c:b0:cb:cd:f9:f8:6e:d8:
         8a:f4:f0:d5:d3:c0:84:e0:11:08:37:a6:42:d1:93:d2:ae:96:
         7d:38:ee:c5:bf:64:cb:86:e0:eb:c0:01:51:23:fa:6d:bc:11:
         1e:17:55:d4:67:06:81:12:c6:68:6e:48:ba:c9:78:44:a9:98:
         c1:77:af:4e:bc:13:ec:4c:e5:0d:83:1a:f6:d9:f9:fd:ed:95:
         f5:0c:cc:43:32:5c:83:68:dc:c3:9c:ee:34:58:0a:15:6e:01:
         e8:c1:cb:6a:ae:ea:76:f4:8e:68:0d:f3:1a:fd:ea:c1:80:05:
         60:c3:4b:1c:a5:bd:fc:42:7e:f1:83:9e:03:f6:9b:22:78:54:
         af:05:d9:6c:2a:0d:32:0c:e7:e9:09:a4:50:9e:71:c6:33:d2:
         fc:c4:cc:86:e2:70:ca:98:26:fc:c8:b9:21:c7:80:ac:f8:ef:
         b7:52:74:ec:46:91:4b:0a:64:4d:4a:ca:13:aa:0a:33:0e:7f:
         c3:a0:2c:dc:4b:09:26:7a:69:fe:0c:82:c0:66:53:2b:a7:8e:
         6e:3f:f7:79:01:93:29:71:6a:00:c6:39:bb:70:bf:dc:99:c3:
         89:eb:48:b7:c3:ed:03:3f:d9:da:70:20:c4:46:26:d5:ac:d5:
         ad:96:f5:fe:35:44:c5:f0:93:ba:fb:3f:bb:3d:c8:af:fb:a8:
         d9:c4:42:87:67:ee:22:9e:cb:14:06:21:09:f3:06:fe:57:a0:
         ba:be:9c:cd:0a:36:f3:88:91:cc:88:d7:26:5e:d7:35:4c:d0:
         5d:71:f8:84:83:44:f8:22:33:f5:af:b0:43:b8:eb:27:eb:d9:
         8e:51:1e:3d:8f:21:b5:b5:2e:e7:b5:6b:05:08:20:55:cd:41:
         dd:cf:b8:95:ec:42:82:b1:06:b5:cd:6f:ea:57:bb:31:26:29:
         93:39:91:d5:59:8c:a6:87:1b:9f:23:7b:2f:96:a5:45:78:4f:
         18:c1:89:9e:75:d9:31:17:8c:8b:2b:ec:52:b8:01:2d:ad:5e:
         f5:df:e9:9e:2c:14:84:6c:92:f7:40:68:9c:ee:fe:4b:66:f9:
         80:69:e5:d8:4f:6f:0d:01:74:2f:7d:b4:a8:48:bf:1a:9a:b9:
         57:a9:d4:13:96:cd:c4:e9:81:33:85:5b:70:b8:4b:04:42:b9:
         67:42:a5:9d:66:7b:e5:41
-----BEGIN CERTIFICATE-----
MIIGrDCCBJSgAwIBAgICDwEwDQYJKoZIhvcNAQEEBQAwgawxCzAJBgNVBAYTAlVT
MQswCQYDVQQIEwJPSDERMA8GA1UEBxMIQ29sdW1idXMxEjAQBgNVBAoTCVZpa2lu
Z1ZQTjEdMBsGA1UECxMUTXlPcmdhbml6YXRpb25hbFVuaXQxFTATBgNVBAMTDFZp
a2luZ1ZQTiBDQTEQMA4GA1UEKRMHRWFzeVJTQTEhMB8GCSqGSIb3DQEJARYSbWVA
bXlob3N0Lm15ZG9tYWluMB4XDTE0MTIyOTIxMTczNVoXDTI0MTIyNjIxMTczNVow
HjEcMBoGA1UEAxMTQ2xpZW50ODAxQ2VydDkzZDhmZDCCAiIwDQYJKoZIhvcNAQEB
BQADggIPADCCAgoCggIBAMunNbTMWBHASuNbG27H+Epo/dW1KT83NFlToF2zQJUb
POSoUysXZbB25XVjYvnYt49j3MeyrOxkA7QG1OWae4JiZLDK2J5vX8BtWAoxTuIB
/U9a0B8L3Au9HdSyi4FrlWmj/T0pH8aWWfPEMSy6FZ5pUmInhQSIzLxU8onfFSPL
CLa/jmsrDnp5T4OE6keZPQqBRrYRTUalI6RSrYC52mDyZz7jFjI6gRRDhWI1GDF7
3qSQzc+Am4tsLroUulmU+7LsGO/oYaNgF92e06r41x7R1fMcXjYgKNkAtnc4d5w6
phF6e7kpNSuq1wlzBqGxBH2+3vWa5iBR3cf9D6zOeC7rGx/EqaYqr0/Kryd7c4XL
orQLtW/VAAj7hRG9OQEBIVKwMH+pnwI/DAwEdru/hNnKLJjgpSJqGyQZjWXDlOzP
4nf3jEZVJbMEzsDFfCCa5gFgrAbYamCy8pIuRoqSi7vxkSf5NukuBjW36PL8BUZQ
GNopbHj5o3HXcolS5ZGhHRpo1UDKektcFqrZIFqdwp3JUJX8YHfJ6CLB3r1Ph+oY
uIvd7HeCHfn93QiQZqVcZn4rgKdASwXJnvtgnix2RtSIdPKkrHvc3Djq4ujOb/FX
QgS/KYuIS3pQVlzyudfFkq+Lrb8SxziTs70Se2LbwPubJZzQRC/LclQCXrl6LGnJ
AgMBAAGjggFjMIIBXzAJBgNVHRMEAjAAMC0GCWCGSAGG+EIBDQQgFh5FYXN5LVJT
QSBHZW5lcmF0ZWQgQ2VydGlmaWNhdGUwHQYDVR0OBBYEFHhecdQ9LiU6+V8BLF8w
GA+8jzlmMIHhBgNVHSMEgdkwgdaAFBLNYATSoICecO3Gmbh7LMZS/RmhoYGypIGv
MIGsMQswCQYDVQQGEwJVUzELMAkGA1UECBMCT0gxETAPBgNVBAcTCENvbHVtYnVz
MRIwEAYDVQQKEwlWaWtpbmdWUE4xHTAbBgNVBAsTFE15T3JnYW5pemF0aW9uYWxV
bml0MRUwEwYDVQQDEwxWaWtpbmdWUE4gQ0ExEDAOBgNVBCkTB0Vhc3lSU0ExITAf
BgkqhkiG9w0BCQEWEm1lQG15aG9zdC5teWRvbWFpboIJAM81he6Avyo+MBMGA1Ud
JQQMMAoGCCsGAQUFBwMCMAsGA1UdDwQEAwIHgDANBgkqhkiG9w0BAQQFAAOCAgEA
K0dJVA2OuS1Ghs1IpEZ0YCeMowNrILWJeNkxY5QVKGwIUxmYI4m9jek9b28WfgVs
bKetg+uBcUu8yF1X64YWnAywy835+G7YivTw1dPAhOARCDemQtGT0q6WfTjuxb9k
y4bg68ABUSP6bbwRHhdV1GcGgRLGaG5Iusl4RKmYwXevTrwT7EzlDYMa9tn5/e2V
9QzMQzJcg2jcw5zuNFgKFW4B6MHLaq7qdvSOaA3zGv3qwYAFYMNLHKW9/EJ+8YOe
A/abInhUrwXZbCoNMgzn6QmkUJ5xxjPS/MTMhuJwypgm/Mi5IceArPjvt1J07EaR
SwpkTUrKE6oKMw5/w6As3EsJJnpp/gyCwGZTK6eObj/3eQGTKXFqAMY5u3C/3JnD
ietIt8PtAz/Z2nAgxEYm1azVrZb1/jVExfCTuvs/uz3Ir/uo2cRCh2fuIp7LFAYh
CfMG/legur6czQo284iRzIjXJl7XNUzQXXH4hINE+CIz9a+wQ7jrJ+vZjlEePY8h
tbUu57VrBQggVc1B3c+4lexCgrEGtc1v6le7MSYpkzmR1VmMpocbnyN7L5alRXhP
GMGJnnXZMReMiyvsUrgBLa1e9d/pniwUhGyS90BonO7+S2b5gGnl2E9vDQF0L320
qEi/Gpq5V6nUE5bNxOmBM4VbcLhLBEK5Z0KlnWZ75UE=
-----END CERTIFICATE-----
