Certificate:
    Data:
        Version: 3 (0x2)
        Serial Number: 2630 (0xa46)
    Signature Algorithm: md5WithRSAEncryption
        Issuer: C=US, ST=OH, L=Columbus, O=VikingVPN, OU=MyOrganizationalUnit, CN=VikingVPN CA/name=EasyRSA/emailAddress=me@myhost.mydomain
        Validity
            Not Before: Aug 21 07:56:38 2014 GMT
            Not After : Aug 18 07:56:38 2024 GMT
        Subject: CN=Client3Cert8bd269
        Subject Public Key Info:
            Public Key Algorithm: rsaEncryption
                Public-Key: (4096 bit)
                Modulus:
                    00:d6:09:e8:31:e1:d5:c2:fb:ac:81:8f:17:e0:32:
                    13:6a:5a:d0:9b:a1:b6:c4:ed:de:6e:b2:bc:56:c3:
                    8a:fc:46:be:78:4c:1d:68:53:db:41:62:c5:10:5d:
                    e3:e3:92:81:99:5d:cc:80:43:88:b7:7e:1b:b5:a0:
                    23:4a:41:11:59:33:ae:fa:5c:f8:0d:22:8a:03:49:
                    68:73:43:7b:ce:f2:c4:c4:bd:5c:69:3b:8b:79:5b:
                    60:c2:ed:23:ef:3e:be:6c:41:89:81:78:f9:f2:ab:
                    1f:6a:68:00:54:8c:b4:26:fd:18:f4:b9:f0:7b:dd:
                    82:fc:52:eb:46:d6:f3:81:a0:08:18:1d:c3:0b:ee:
                    64:e4:82:b8:bf:4e:a7:8a:94:03:e0:c3:b6:a4:6c:
                    f2:4c:70:32:97:f0:4d:fb:f6:d2:01:19:3c:fa:ef:
                    37:b7:00:c1:74:39:31:a1:99:e2:f9:9b:b3:2c:5f:
                    cf:ca:94:01:f1:08:9f:22:a3:83:35:7f:2b:4c:e3:
                    b7:d0:01:42:8e:b9:c2:6b:98:8a:22:21:0b:7d:10:
                    b1:ce:9b:b5:fb:00:30:07:a0:82:fc:cd:a7:bb:29:
                    83:ae:f9:b3:ff:12:74:47:25:86:e6:29:c2:14:db:
                    27:63:27:30:42:45:a9:60:1d:4f:bb:1d:4a:54:cb:
                    96:8e:0c:ba:7d:cf:29:0b:bb:5a:44:1e:5d:39:85:
                    1c:b4:1c:e1:c1:31:14:8b:b7:ad:8f:c7:d6:72:5f:
                    c5:10:0f:b9:86:af:1d:62:89:6f:06:07:63:e5:c5:
                    37:18:1d:62:78:33:7c:12:d9:41:b9:4c:ca:dc:f5:
                    8d:41:6a:59:d9:e5:38:4c:a6:6b:79:24:54:fb:20:
                    74:99:9d:02:1c:93:71:47:f8:7f:83:22:8c:89:e8:
                    2a:84:cc:82:85:04:f3:40:de:cc:13:eb:e0:ac:12:
                    04:a4:65:04:54:d2:9c:8c:70:e9:1b:29:00:e6:93:
                    13:5e:41:7a:4f:ed:3e:10:3b:50:f1:f6:f7:0b:8e:
                    91:d7:eb:eb:5a:8f:7c:7b:fc:48:2f:7f:aa:8f:1b:
                    6b:fb:8c:bd:87:bf:3d:41:1e:46:25:9a:28:26:55:
                    37:4e:93:b5:51:48:89:10:1f:8d:a7:e3:f1:60:f1:
                    0e:4b:1b:15:3f:8b:91:4b:ca:f0:af:ae:a0:8b:9f:
                    b7:f0:24:dc:f3:ef:7a:66:5f:55:5e:16:99:3a:b9:
                    ba:f3:92:42:bf:60:f8:3e:73:f3:a3:31:13:a0:15:
                    7b:c5:5e:be:23:c2:2f:a1:cf:bf:ed:bf:e6:74:51:
                    15:e1:14:e1:08:d1:d1:e8:8b:07:66:f1:99:c6:89:
                    b8:c7:3b
                Exponent: 65537 (0x10001)
        X509v3 extensions:
            X509v3 Basic Constraints: 
                CA:FALSE
            Netscape Comment: 
                Easy-RSA Generated Certificate
            X509v3 Subject Key Identifier: 
                18:A5:16:25:A8:E3:BC:BC:48:C6:35:74:86:D5:72:4B:EA:A1:C3:C1
            X509v3 Authority Key Identifier: 
                keyid:12:CD:60:04:D2:A0:80:9E:70:ED:C6:99:B8:7B:2C:C6:52:FD:19:A1
                DirName:/C=US/ST=OH/L=Columbus/O=VikingVPN/OU=MyOrganizationalUnit/CN=VikingVPN CA/name=EasyRSA/emailAddress=me@myhost.mydomain
                serial:CF:35:85:EE:80:BF:2A:3E

            X509v3 Extended Key Usage: 
                TLS Web Client Authentication
            X509v3 Key Usage: 
                Digital Signature
    Signature Algorithm: md5WithRSAEncryption
         c1:be:2b:08:73:b2:d3:b5:a4:16:42:9b:5a:8c:4d:1b:24:20:
         95:e8:ee:84:ac:af:de:ed:4e:be:67:cb:81:5b:97:1a:4d:85:
         cc:cd:38:45:42:9d:65:dc:b7:5a:10:97:cd:af:05:ec:e1:ee:
         70:66:ba:b1:51:bc:a1:b1:3d:be:27:73:f5:8d:3c:16:67:88:
         1e:f0:75:48:97:a4:f6:5e:00:bd:12:a6:e9:f2:05:b0:8b:6c:
         1d:21:81:bd:5d:66:58:90:08:2f:1d:8f:3c:a8:1c:7b:6e:d0:
         c4:60:93:bb:c4:c1:ef:3d:33:eb:19:35:cd:cb:a0:84:be:b4:
         cf:98:7b:5b:da:40:26:e8:c1:96:20:a5:92:80:f5:95:92:0e:
         24:c4:46:b1:96:e7:c3:7a:57:f3:c6:5a:47:23:af:62:70:4b:
         c4:b6:a8:86:dc:8f:92:45:91:8f:10:b9:e6:0f:34:97:fb:7c:
         a3:77:e5:42:54:65:a7:4e:9c:6d:b1:c1:1c:af:2b:0a:d8:39:
         73:6e:60:5c:f0:2c:6e:dd:37:53:bf:10:71:85:3d:54:d6:c0:
         2d:e9:b6:04:81:eb:4f:f0:9c:7b:be:02:c3:d4:a5:df:b0:91:
         24:51:47:9c:70:d2:45:0a:86:de:33:da:9b:dd:90:99:fa:bc:
         62:20:b5:96:e9:fe:cb:8b:d3:f5:01:28:e9:1d:ef:76:89:40:
         34:ff:b0:d4:66:49:59:30:fc:b1:9f:ec:1a:cb:0a:db:03:7c:
         0a:f5:75:65:1b:18:3c:ee:db:00:56:5f:35:1c:de:c4:d7:b1:
         59:ed:31:36:d7:c8:b3:18:81:3a:90:09:e9:f6:19:61:30:a1:
         b2:62:c5:f4:bc:2c:fa:1a:62:3c:48:76:59:0f:c3:88:31:a5:
         79:ff:36:c3:e6:89:7c:b4:36:9d:8a:dc:d2:02:fc:f8:8b:3d:
         09:ab:85:c9:a9:74:77:d0:bb:43:21:70:77:31:ac:0f:69:5e:
         c4:c7:91:84:89:b5:6d:34:d7:15:91:92:03:c4:0c:87:29:3e:
         95:d3:a3:99:9e:06:42:12:35:94:a8:f5:65:f7:ec:b3:7d:9a:
         91:bf:af:93:bb:87:52:af:b5:5a:82:76:51:03:43:5a:34:82:
         a7:f1:c6:3a:77:5b:7d:f0:da:a5:65:f3:a1:ea:36:df:98:00:
         f9:a2:86:a2:ae:c5:2b:d9:8b:ab:8c:29:00:e4:1e:5f:71:0b:
         fa:d7:62:17:26:af:c2:31:58:fe:38:65:3b:dc:fc:24:06:9d:
         07:83:44:cf:9c:b4:f7:0d:c6:e6:be:23:9f:63:6c:84:0e:0d:
         0b:26:da:06:43:2b:a0:ab
-----BEGIN CERTIFICATE-----
MIIGqjCCBJKgAwIBAgICCkYwDQYJKoZIhvcNAQEEBQAwgawxCzAJBgNVBAYTAlVT
MQswCQYDVQQIEwJPSDERMA8GA1UEBxMIQ29sdW1idXMxEjAQBgNVBAoTCVZpa2lu
Z1ZQTjEdMBsGA1UECxMUTXlPcmdhbml6YXRpb25hbFVuaXQxFTATBgNVBAMTDFZp
a2luZ1ZQTiBDQTEQMA4GA1UEKRMHRWFzeVJTQTEhMB8GCSqGSIb3DQEJARYSbWVA
bXlob3N0Lm15ZG9tYWluMB4XDTE0MDgyMTA3NTYzOFoXDTI0MDgxODA3NTYzOFow
HDEaMBgGA1UEAxMRQ2xpZW50M0NlcnQ4YmQyNjkwggIiMA0GCSqGSIb3DQEBAQUA
A4ICDwAwggIKAoICAQDWCegx4dXC+6yBjxfgMhNqWtCbobbE7d5usrxWw4r8Rr54
TB1oU9tBYsUQXePjkoGZXcyAQ4i3fhu1oCNKQRFZM676XPgNIooDSWhzQ3vO8sTE
vVxpO4t5W2DC7SPvPr5sQYmBePnyqx9qaABUjLQm/Rj0ufB73YL8UutG1vOBoAgY
HcML7mTkgri/TqeKlAPgw7akbPJMcDKX8E379tIBGTz67ze3AMF0OTGhmeL5m7Ms
X8/KlAHxCJ8io4M1fytM47fQAUKOucJrmIoiIQt9ELHOm7X7ADAHoIL8zae7KYOu
+bP/EnRHJYbmKcIU2ydjJzBCRalgHU+7HUpUy5aODLp9zykLu1pEHl05hRy0HOHB
MRSLt62Px9ZyX8UQD7mGrx1iiW8GB2PlxTcYHWJ4M3wS2UG5TMrc9Y1BalnZ5ThM
pmt5JFT7IHSZnQIck3FH+H+DIoyJ6CqEzIKFBPNA3swT6+CsEgSkZQRU0pyMcOkb
KQDmkxNeQXpP7T4QO1Dx9vcLjpHX6+taj3x7/Egvf6qPG2v7jL2Hvz1BHkYlmigm
VTdOk7VRSIkQH42n4/Fg8Q5LGxU/i5FLyvCvrqCLn7fwJNzz73pmX1VeFpk6ubrz
kkK/YPg+c/OjMROgFXvFXr4jwi+hz7/tv+Z0URXhFOEI0dHoiwdm8ZnGibjHOwID
AQABo4IBYzCCAV8wCQYDVR0TBAIwADAtBglghkgBhvhCAQ0EIBYeRWFzeS1SU0Eg
R2VuZXJhdGVkIENlcnRpZmljYXRlMB0GA1UdDgQWBBQYpRYlqOO8vEjGNXSG1XJL
6qHDwTCB4QYDVR0jBIHZMIHWgBQSzWAE0qCAnnDtxpm4eyzGUv0ZoaGBsqSBrzCB
rDELMAkGA1UEBhMCVVMxCzAJBgNVBAgTAk9IMREwDwYDVQQHEwhDb2x1bWJ1czES
MBAGA1UEChMJVmlraW5nVlBOMR0wGwYDVQQLExRNeU9yZ2FuaXphdGlvbmFsVW5p
dDEVMBMGA1UEAxMMVmlraW5nVlBOIENBMRAwDgYDVQQpEwdFYXN5UlNBMSEwHwYJ
KoZIhvcNAQkBFhJtZUBteWhvc3QubXlkb21haW6CCQDPNYXugL8qPjATBgNVHSUE
DDAKBggrBgEFBQcDAjALBgNVHQ8EBAMCB4AwDQYJKoZIhvcNAQEEBQADggIBAMG+
KwhzstO1pBZCm1qMTRskIJXo7oSsr97tTr5ny4FblxpNhczNOEVCnWXct1oQl82v
Bezh7nBmurFRvKGxPb4nc/WNPBZniB7wdUiXpPZeAL0SpunyBbCLbB0hgb1dZliQ
CC8djzyoHHtu0MRgk7vEwe89M+sZNc3LoIS+tM+Ye1vaQCbowZYgpZKA9ZWSDiTE
RrGW58N6V/PGWkcjr2JwS8S2qIbcj5JFkY8QueYPNJf7fKN35UJUZadOnG2xwRyv
KwrYOXNuYFzwLG7dN1O/EHGFPVTWwC3ptgSB60/wnHu+AsPUpd+wkSRRR5xw0kUK
ht4z2pvdkJn6vGIgtZbp/suL0/UBKOkd73aJQDT/sNRmSVkw/LGf7BrLCtsDfAr1
dWUbGDzu2wBWXzUc3sTXsVntMTbXyLMYgTqQCen2GWEwobJixfS8LPoaYjxIdlkP
w4gxpXn/NsPmiXy0Np2K3NIC/PiLPQmrhcmpdHfQu0MhcHcxrA9pXsTHkYSJtW00
1xWRkgPEDIcpPpXTo5meBkISNZSo9WX37LN9mpG/r5O7h1KvtVqCdlEDQ1o0gqfx
xjp3W33w2qVl86HqNt+YAPmihqKuxSvZi6uMKQDkHl9xC/rXYhcmr8IxWP44ZTvc
/CQGnQeDRM+ctPcNxua+I59jbIQODQsm2gZDK6Cr
-----END CERTIFICATE-----
