Certificate:
    Data:
        Version: 3 (0x2)
        Serial Number: 3952 (0xf70)
    Signature Algorithm: md5WithRSAEncryption
        Issuer: C=US, ST=OH, L=Columbus, O=VikingVPN, OU=MyOrganizationalUnit, CN=VikingVPN CA/name=EasyRSA/emailAddress=me@myhost.mydomain
        Validity
            Not Before: Jan  2 04:44:53 2015 GMT
            Not After : Dec 30 04:44:53 2024 GMT
        Subject: CN=Client1320Certfbf098
        Subject Public Key Info:
            Public Key Algorithm: rsaEncryption
                Public-Key: (4096 bit)
                Modulus:
                    00:ac:e2:34:80:7b:dd:d1:34:2b:09:ee:c4:ee:df:
                    fc:4b:a7:d3:b0:04:b2:2e:70:7c:65:9d:72:bb:d7:
                    b0:4b:bb:1d:3c:2a:3f:1f:d7:8a:0f:53:28:ea:f2:
                    cf:a2:3c:a0:a4:d7:e2:4b:cd:fa:7e:94:8f:6d:ea:
                    f9:69:00:5e:e9:3c:d3:29:ab:30:5e:0f:62:87:e3:
                    7d:aa:cc:70:d7:6a:fb:a4:b7:16:c7:d3:43:dd:1b:
                    92:60:b0:39:3a:b5:9c:37:2b:a6:67:db:a3:21:7a:
                    10:ff:99:71:56:66:58:81:8f:16:57:b4:11:35:60:
                    e1:59:7d:5f:b9:4a:67:4c:01:90:f5:41:af:a4:b1:
                    f9:80:f8:ed:9d:62:b6:21:ea:db:a6:32:0a:ff:29:
                    89:a6:2a:c4:e9:4d:1b:bc:81:5c:a6:19:fe:07:6c:
                    4e:49:1a:f6:cf:82:11:8b:d7:90:ff:57:9e:5a:f2:
                    d3:48:93:8c:c6:7d:98:28:ea:89:8b:b7:2d:0b:ea:
                    c9:f7:c7:2b:6d:2c:77:94:6b:35:b0:e0:e6:52:8d:
                    8d:34:4f:30:c2:23:f6:96:ef:88:b8:12:39:9a:e6:
                    12:4d:cb:42:11:06:c4:1d:51:6f:57:8d:fc:5b:e4:
                    ec:e1:6b:74:30:88:62:d8:c2:77:20:60:9e:e1:5c:
                    e6:95:6a:93:ae:77:ed:36:0b:48:fb:e8:a1:55:6d:
                    8d:c6:ff:0e:03:45:75:1a:0a:f1:dd:41:b2:c4:db:
                    7e:55:b5:74:d1:fa:7e:90:14:df:3a:90:e7:14:cc:
                    48:b2:fd:fc:4a:3c:bd:64:40:da:88:92:0b:7b:9e:
                    56:1c:80:bc:b9:b3:d9:a3:11:ac:42:7c:92:f3:b2:
                    7c:c5:41:7b:15:ba:97:74:7e:24:2e:21:43:10:32:
                    d1:a9:0a:6d:38:2c:90:04:7e:e3:3e:31:47:8a:41:
                    85:ac:70:4a:95:aa:d9:b6:5f:36:de:6a:b9:aa:69:
                    40:19:90:c7:09:f8:0f:0d:19:2a:d5:e1:74:ab:d6:
                    82:68:59:bd:fc:e0:18:96:7b:07:df:c0:3d:76:09:
                    09:b7:cd:6d:5d:be:aa:5b:9d:66:62:97:ea:c9:c8:
                    92:82:bf:fe:a6:09:04:69:89:fc:c8:de:b2:60:da:
                    93:ed:e1:b5:23:ea:32:d6:95:bb:63:4a:e0:72:35:
                    c8:7c:f0:53:55:a8:92:ca:5a:dd:9e:34:fb:68:7e:
                    6f:2f:d8:d1:47:b5:87:af:1d:ce:c7:ed:71:c8:fd:
                    38:b0:ee:76:a8:25:fa:78:06:61:92:39:d6:cb:32:
                    2d:04:9f:88:ec:a2:f6:98:06:79:34:e0:49:23:20:
                    fc:10:a9
                Exponent: 65537 (0x10001)
        X509v3 extensions:
            X509v3 Basic Constraints: 
                CA:FALSE
            Netscape Comment: 
                Easy-RSA Generated Certificate
            X509v3 Subject Key Identifier: 
                BE:D0:7B:C6:2E:7D:35:68:DF:E6:6D:4A:79:AC:1D:62:1F:19:E2:8A
            X509v3 Authority Key Identifier: 
                keyid:12:CD:60:04:D2:A0:80:9E:70:ED:C6:99:B8:7B:2C:C6:52:FD:19:A1
                DirName:/C=US/ST=OH/L=Columbus/O=VikingVPN/OU=MyOrganizationalUnit/CN=VikingVPN CA/name=EasyRSA/emailAddress=me@myhost.mydomain
                serial:CF:35:85:EE:80:BF:2A:3E

            X509v3 Extended Key Usage: 
                TLS Web Client Authentication
            X509v3 Key Usage: 
                Digital Signature
    Signature Algorithm: md5WithRSAEncryption
         2f:41:05:f5:cc:73:f5:02:84:be:27:0b:72:4c:47:a5:f7:e1:
         57:fe:49:8a:11:e2:13:86:5e:56:bc:03:a4:fd:90:45:c1:0c:
         91:fa:f3:53:30:b6:ec:6d:d6:ae:f8:b0:d7:86:81:b6:a7:88:
         33:4b:f0:8c:ae:20:f1:f8:5a:02:35:41:39:8c:17:1e:5b:c4:
         87:8b:c8:d8:d8:9d:52:8b:13:63:b5:06:ba:53:1e:7e:93:f3:
         9f:cf:53:0b:74:ae:9c:68:97:05:b8:6e:7d:d7:5f:1b:88:e8:
         ad:8a:95:68:be:f6:50:7d:9e:ed:5b:c8:de:ae:eb:ef:f7:b5:
         0f:b9:4a:7d:76:81:ec:d8:98:76:01:4b:c2:db:f7:4e:13:62:
         23:6c:8e:8f:87:31:40:4a:e9:fd:69:14:e3:b7:0f:c1:f6:36:
         8e:08:e7:40:91:6a:43:07:eb:3d:32:c5:34:f6:26:65:83:f0:
         8f:9e:0b:90:97:c7:ab:53:ba:81:41:35:31:cf:f4:df:11:38:
         07:7d:90:63:b5:00:bd:90:14:bc:f2:08:f5:c8:65:25:e7:92:
         46:90:ec:b1:50:e5:dd:2c:16:00:31:c5:b2:4f:d4:0c:fe:f5:
         d0:18:35:72:0c:3e:33:70:91:e1:cc:8e:7a:1c:93:2d:72:e6:
         39:67:b9:fa:26:bc:bb:44:29:75:ec:3c:94:e4:fa:8e:bc:ec:
         d1:6d:f4:90:aa:33:c5:95:56:61:d9:00:f0:c6:80:36:36:aa:
         31:8d:e2:a5:f4:e2:67:db:eb:99:68:83:83:2c:5d:a4:85:24:
         5b:44:22:64:2c:44:d8:ad:66:87:55:e3:8e:8b:bc:32:36:aa:
         11:62:65:17:b1:8c:a6:78:39:41:62:7e:f2:46:3d:bc:46:65:
         fe:cd:26:ad:fb:b9:ec:b1:db:ea:fe:0b:75:b6:c7:c9:10:04:
         94:00:01:7c:e5:58:2d:6c:eb:b0:43:e4:d5:94:cb:55:44:52:
         89:36:b1:ab:b8:47:ae:54:25:f4:72:4b:02:94:99:9b:94:33:
         b8:24:5e:1b:ce:34:2c:2d:67:2f:cd:e6:e5:60:7b:aa:01:8a:
         40:4c:34:0c:ed:33:6f:59:4e:5c:ce:5f:9d:a8:10:5a:9c:d7:
         61:92:61:ed:54:c0:cb:a8:c7:81:36:1b:d7:98:fa:67:2e:12:
         3d:d7:29:4d:37:86:0b:fb:60:86:ee:b0:57:40:84:d3:a5:4b:
         7d:f4:9f:d4:6c:bb:f5:97:eb:4c:8d:49:fd:f2:4e:07:e3:eb:
         40:5e:cf:d3:60:c7:27:d4:33:f7:a7:85:ef:b4:36:42:40:4c:
         f2:00:ea:15:69:69:68:f8
-----BEGIN CERTIFICATE-----
MIIGrTCCBJWgAwIBAgICD3AwDQYJKoZIhvcNAQEEBQAwgawxCzAJBgNVBAYTAlVT
MQswCQYDVQQIEwJPSDERMA8GA1UEBxMIQ29sdW1idXMxEjAQBgNVBAoTCVZpa2lu
Z1ZQTjEdMBsGA1UECxMUTXlPcmdhbml6YXRpb25hbFVuaXQxFTATBgNVBAMTDFZp
a2luZ1ZQTiBDQTEQMA4GA1UEKRMHRWFzeVJTQTEhMB8GCSqGSIb3DQEJARYSbWVA
bXlob3N0Lm15ZG9tYWluMB4XDTE1MDEwMjA0NDQ1M1oXDTI0MTIzMDA0NDQ1M1ow
HzEdMBsGA1UEAxMUQ2xpZW50MTMyMENlcnRmYmYwOTgwggIiMA0GCSqGSIb3DQEB
AQUAA4ICDwAwggIKAoICAQCs4jSAe93RNCsJ7sTu3/xLp9OwBLIucHxlnXK717BL
ux08Kj8f14oPUyjq8s+iPKCk1+JLzfp+lI9t6vlpAF7pPNMpqzBeD2KH432qzHDX
avuktxbH00PdG5JgsDk6tZw3K6Zn26MhehD/mXFWZliBjxZXtBE1YOFZfV+5SmdM
AZD1Qa+ksfmA+O2dYrYh6tumMgr/KYmmKsTpTRu8gVymGf4HbE5JGvbPghGL15D/
V55a8tNIk4zGfZgo6omLty0L6sn3xyttLHeUazWw4OZSjY00TzDCI/aW74i4Ejma
5hJNy0IRBsQdUW9Xjfxb5Ozha3QwiGLYwncgYJ7hXOaVapOud+02C0j76KFVbY3G
/w4DRXUaCvHdQbLE235VtXTR+n6QFN86kOcUzEiy/fxKPL1kQNqIkgt7nlYcgLy5
s9mjEaxCfJLzsnzFQXsVupd0fiQuIUMQMtGpCm04LJAEfuM+MUeKQYWscEqVqtm2
XzbearmqaUAZkMcJ+A8NGSrV4XSr1oJoWb384BiWewffwD12CQm3zW1dvqpbnWZi
l+rJyJKCv/6mCQRpifzI3rJg2pPt4bUj6jLWlbtjSuByNch88FNVqJLKWt2eNPto
fm8v2NFHtYevHc7H7XHI/Tiw7naoJfp4BmGSOdbLMi0En4jsovaYBnk04EkjIPwQ
qQIDAQABo4IBYzCCAV8wCQYDVR0TBAIwADAtBglghkgBhvhCAQ0EIBYeRWFzeS1S
U0EgR2VuZXJhdGVkIENlcnRpZmljYXRlMB0GA1UdDgQWBBS+0HvGLn01aN/mbUp5
rB1iHxniijCB4QYDVR0jBIHZMIHWgBQSzWAE0qCAnnDtxpm4eyzGUv0ZoaGBsqSB
rzCBrDELMAkGA1UEBhMCVVMxCzAJBgNVBAgTAk9IMREwDwYDVQQHEwhDb2x1bWJ1
czESMBAGA1UEChMJVmlraW5nVlBOMR0wGwYDVQQLExRNeU9yZ2FuaXphdGlvbmFs
VW5pdDEVMBMGA1UEAxMMVmlraW5nVlBOIENBMRAwDgYDVQQpEwdFYXN5UlNBMSEw
HwYJKoZIhvcNAQkBFhJtZUBteWhvc3QubXlkb21haW6CCQDPNYXugL8qPjATBgNV
HSUEDDAKBggrBgEFBQcDAjALBgNVHQ8EBAMCB4AwDQYJKoZIhvcNAQEEBQADggIB
AC9BBfXMc/UChL4nC3JMR6X34Vf+SYoR4hOGXla8A6T9kEXBDJH681Mwtuxt1q74
sNeGgbaniDNL8IyuIPH4WgI1QTmMFx5bxIeLyNjYnVKLE2O1BrpTHn6T85/PUwt0
rpxolwW4bn3XXxuI6K2KlWi+9lB9nu1byN6u6+/3tQ+5Sn12gezYmHYBS8Lb904T
YiNsjo+HMUBK6f1pFOO3D8H2No4I50CRakMH6z0yxTT2JmWD8I+eC5CXx6tTuoFB
NTHP9N8ROAd9kGO1AL2QFLzyCPXIZSXnkkaQ7LFQ5d0sFgAxxbJP1Az+9dAYNXIM
PjNwkeHMjnocky1y5jlnufomvLtEKXXsPJTk+o687NFt9JCqM8WVVmHZAPDGgDY2
qjGN4qX04mfb65log4MsXaSFJFtEImQsRNitZodV446LvDI2qhFiZRexjKZ4OUFi
fvJGPbxGZf7NJq37ueyx2+r+C3W2x8kQBJQAAXzlWC1s67BD5NWUy1VEUok2sau4
R65UJfRySwKUmZuUM7gkXhvONCwtZy/N5uVge6oBikBMNAztM29ZTlzOX52oEFqc
12GSYe1UwMuox4E2G9eY+mcuEj3XKU03hgv7YIbusFdAhNOlS330n9Rsu/WX60yN
Sf3yTgfj60Bez9NgxyfUM/enhe+0NkJATPIA6hVpaWj4
-----END CERTIFICATE-----
