Certificate:
    Data:
        Version: 3 (0x2)
        Serial Number: 8988 (0x231c)
    Signature Algorithm: sha256WithRSAEncryption
        Issuer: C=US, ST=OH, L=Columbus, O=VikingVPN, OU=MyOrganizationalUnit, CN=VikingVPN CA/name=EasyRSA/emailAddress=me@myhost.mydomain
        Validity
            Not Before: Sep  5 19:27:55 2016 GMT
            Not After : Sep  3 19:27:55 2026 GMT
        Subject: CN=Client2467Cert8d29fa
        Subject Public Key Info:
            Public Key Algorithm: rsaEncryption
                Public-Key: (4096 bit)
                Modulus:
                    00:d4:61:24:aa:c4:1d:80:bb:27:e0:78:4c:8b:5e:
                    4f:03:9f:a6:a0:3f:b1:fe:fe:a2:29:4f:ab:51:d2:
                    32:66:b2:42:f3:d7:4c:da:a7:eb:4c:2b:bf:31:df:
                    50:ff:28:9d:a8:18:e3:34:aa:04:b5:4b:e0:d3:85:
                    4a:e8:ce:d0:50:c2:e0:ed:86:34:d9:fb:5c:20:b7:
                    cc:75:94:ba:66:bc:db:3d:e7:44:5d:1f:91:48:54:
                    2c:57:ef:52:5a:23:e2:84:e6:f1:30:a1:34:08:6c:
                    6e:c7:78:e3:ce:15:b3:7e:2b:b8:3a:e5:c9:90:cd:
                    ad:eb:3d:a7:73:fb:7a:e3:5d:93:db:9e:7e:e4:6b:
                    15:d7:e6:91:42:53:30:05:b7:3d:ae:48:b6:1f:8a:
                    97:3d:cb:54:17:80:b9:c3:64:c2:0c:33:95:27:ea:
                    40:b7:aa:e6:b6:a9:2d:19:9b:3b:17:dd:28:54:4b:
                    70:a6:b8:32:0e:fc:b3:0b:fc:63:91:a6:be:9b:5c:
                    4d:af:62:28:bd:b5:31:0a:2b:00:10:fc:e3:54:0f:
                    e8:fa:06:58:42:d3:4b:bd:2c:0f:03:8a:f1:73:bd:
                    13:c0:c7:92:98:14:30:5e:8f:2c:c3:8e:fd:b6:3e:
                    f0:2b:c4:2d:91:f6:aa:09:12:5c:09:0d:4f:87:d1:
                    60:89:02:75:e1:20:93:bd:a6:de:81:d8:cc:5a:d8:
                    53:6e:07:61:76:02:5d:16:0e:8d:e0:71:a6:09:e7:
                    eb:f6:c5:96:06:77:6b:56:79:81:de:a6:ec:88:b5:
                    bf:f3:60:1c:dc:dd:fe:c5:94:9f:d1:b7:c7:55:8d:
                    da:4a:d4:fd:9e:ae:05:a4:d7:08:f1:52:42:81:f2:
                    6d:f0:e6:10:8d:0f:ec:20:73:5a:d5:a7:9a:2c:cc:
                    8a:45:08:7a:ff:c5:8a:e3:0e:92:b8:7b:b5:75:55:
                    93:7c:d4:a2:76:ab:a5:72:43:03:20:1b:a2:51:91:
                    e5:1c:b7:34:e5:89:26:3f:ec:1b:72:55:61:02:f8:
                    85:89:31:f6:bf:ad:74:c0:aa:d1:c0:40:ab:50:17:
                    49:35:a5:d4:9d:36:f6:86:2a:e0:84:ec:fa:5d:b1:
                    03:61:11:e0:3c:c2:58:1f:84:69:e8:8c:15:9b:47:
                    6d:8e:01:2c:f1:d3:ab:0f:79:70:37:56:bc:8b:cb:
                    0a:f8:b4:40:0e:00:a7:05:b7:ee:26:d4:41:3f:a2:
                    fc:2c:e5:29:64:74:39:1b:0e:51:06:1d:cf:07:92:
                    d5:f2:47:89:c0:ce:72:c4:ed:f6:34:ae:f1:16:b1:
                    20:4f:fe:ec:fb:ee:1c:b8:46:b2:24:19:22:b7:de:
                    1d:db:0f
                Exponent: 65537 (0x10001)
        X509v3 extensions:
            X509v3 Basic Constraints: 
                CA:FALSE
            Netscape Comment: 
                Easy-RSA Generated Certificate
            X509v3 Subject Key Identifier: 
                42:19:3A:85:11:4D:66:9A:15:68:0D:12:47:47:BE:0F:CC:B9:C2:87
            X509v3 Authority Key Identifier: 
                keyid:12:CD:60:04:D2:A0:80:9E:70:ED:C6:99:B8:7B:2C:C6:52:FD:19:A1
                DirName:/C=US/ST=OH/L=Columbus/O=VikingVPN/OU=MyOrganizationalUnit/CN=VikingVPN CA/name=EasyRSA/emailAddress=me@myhost.mydomain
                serial:CF:35:85:EE:80:BF:2A:3E

            X509v3 Extended Key Usage: 
                TLS Web Client Authentication
            X509v3 Key Usage: 
                Digital Signature
    Signature Algorithm: sha256WithRSAEncryption
         0c:de:53:fa:68:dd:61:db:eb:7a:4a:89:43:bd:76:c2:c4:21:
         b9:9b:0b:d0:ae:d4:74:e6:e3:14:26:5d:e2:9a:81:b0:43:64:
         55:d0:6d:7d:91:78:f2:5c:c1:96:8b:09:62:c1:81:56:86:b6:
         e6:6d:f7:e4:71:95:5e:9c:b7:1f:df:16:ed:a3:3f:63:eb:21:
         70:c5:bf:6f:28:52:49:3c:3c:4a:dc:bc:24:c3:a9:86:3f:62:
         3a:8e:78:bc:6b:9d:c5:3d:91:02:90:b3:4f:75:95:9c:6c:1a:
         53:35:d8:79:7c:e4:14:52:fc:98:b4:cf:92:93:1b:0b:ab:33:
         39:be:dd:9d:6e:60:a4:b3:09:c3:70:a3:e0:22:83:c8:a7:81:
         17:aa:96:84:9f:20:ea:e2:61:12:79:0b:5f:e8:5f:76:fa:80:
         64:da:d6:3f:89:91:e3:4c:41:0a:25:a7:e3:9d:2f:c0:5e:5c:
         ed:4e:d7:51:03:55:be:66:8c:d7:c0:d7:e1:8b:55:1c:65:8e:
         1b:d3:85:80:26:13:74:8d:6c:36:d4:31:1a:fa:50:35:d7:79:
         51:f5:2f:5f:90:3c:b7:17:a4:2a:07:43:a6:5c:49:4e:73:cf:
         96:6f:da:ac:c8:0d:8f:d3:e3:df:83:ae:e0:56:12:27:84:9c:
         9e:0e:c5:a8:82:bf:f0:a3:6d:c7:18:b6:39:65:3e:09:9a:cc:
         15:c4:94:3d:aa:0d:a4:a0:f8:90:d6:84:1a:b4:09:fb:47:9a:
         57:a5:b8:ef:5f:fe:57:79:6d:5c:41:f1:bc:c8:91:6a:a2:b2:
         50:74:0a:da:2e:3a:65:e1:e0:f1:e0:62:85:9f:b3:16:31:ff:
         56:2e:ed:65:63:67:9a:8e:2e:e1:e6:49:b0:76:ed:cb:30:40:
         99:60:37:21:e7:7e:5e:ba:bc:bf:33:1b:4a:79:a9:85:ac:cf:
         29:e0:c0:0d:fb:9b:0c:71:b3:97:21:e0:41:85:d7:53:85:5e:
         d9:4a:a9:02:d6:50:fd:7f:94:10:08:f4:29:6f:73:fc:ac:e9:
         8f:25:37:61:e0:2a:52:94:42:0b:eb:da:f7:34:d7:a0:88:4f:
         ff:26:f7:cb:80:80:38:44:93:86:67:01:4b:2b:45:a2:c3:c8:
         40:a3:35:8d:83:fd:4d:61:b1:dc:43:44:f8:63:26:ad:1d:3d:
         ba:40:6f:14:16:79:ec:9f:85:f3:0d:9d:9f:11:32:73:43:c0:
         6c:5a:d0:c2:12:6f:47:4a:14:3a:f7:55:e7:35:23:19:b6:78:
         d1:fe:cb:80:09:98:46:8b:8f:56:12:32:b4:35:84:ff:3d:a9:
         f2:0d:cf:73:65:77:11:70
-----BEGIN CERTIFICATE-----
MIIGrTCCBJWgAwIBAgICIxwwDQYJKoZIhvcNAQELBQAwgawxCzAJBgNVBAYTAlVT
MQswCQYDVQQIEwJPSDERMA8GA1UEBxMIQ29sdW1idXMxEjAQBgNVBAoTCVZpa2lu
Z1ZQTjEdMBsGA1UECxMUTXlPcmdhbml6YXRpb25hbFVuaXQxFTATBgNVBAMTDFZp
a2luZ1ZQTiBDQTEQMA4GA1UEKRMHRWFzeVJTQTEhMB8GCSqGSIb3DQEJARYSbWVA
bXlob3N0Lm15ZG9tYWluMB4XDTE2MDkwNTE5Mjc1NVoXDTI2MDkwMzE5Mjc1NVow
HzEdMBsGA1UEAxMUQ2xpZW50MjQ2N0NlcnQ4ZDI5ZmEwggIiMA0GCSqGSIb3DQEB
AQUAA4ICDwAwggIKAoICAQDUYSSqxB2AuyfgeEyLXk8Dn6agP7H+/qIpT6tR0jJm
skLz10zap+tMK78x31D/KJ2oGOM0qgS1S+DThUroztBQwuDthjTZ+1wgt8x1lLpm
vNs950RdH5FIVCxX71JaI+KE5vEwoTQIbG7HeOPOFbN+K7g65cmQza3rPadz+3rj
XZPbnn7kaxXX5pFCUzAFtz2uSLYfipc9y1QXgLnDZMIMM5Un6kC3qua2qS0ZmzsX
3ShUS3CmuDIO/LML/GORpr6bXE2vYii9tTEKKwAQ/ONUD+j6BlhC00u9LA8DivFz
vRPAx5KYFDBejyzDjv22PvArxC2R9qoJElwJDU+H0WCJAnXhIJO9pt6B2Mxa2FNu
B2F2Al0WDo3gcaYJ5+v2xZYGd2tWeYHepuyItb/zYBzc3f7FlJ/Rt8dVjdpK1P2e
rgWk1wjxUkKB8m3w5hCND+wgc1rVp5oszIpFCHr/xYrjDpK4e7V1VZN81KJ2q6Vy
QwMgG6JRkeUctzTliSY/7BtyVWEC+IWJMfa/rXTAqtHAQKtQF0k1pdSdNvaGKuCE
7PpdsQNhEeA8wlgfhGnojBWbR22OASzx06sPeXA3VryLywr4tEAOAKcFt+4m1EE/
ovws5SlkdDkbDlEGHc8HktXyR4nAznLE7fY0rvEWsSBP/uz77hy4RrIkGSK33h3b
DwIDAQABo4IBYzCCAV8wCQYDVR0TBAIwADAtBglghkgBhvhCAQ0EIBYeRWFzeS1S
U0EgR2VuZXJhdGVkIENlcnRpZmljYXRlMB0GA1UdDgQWBBRCGTqFEU1mmhVoDRJH
R74PzLnChzCB4QYDVR0jBIHZMIHWgBQSzWAE0qCAnnDtxpm4eyzGUv0ZoaGBsqSB
rzCBrDELMAkGA1UEBhMCVVMxCzAJBgNVBAgTAk9IMREwDwYDVQQHEwhDb2x1bWJ1
czESMBAGA1UEChMJVmlraW5nVlBOMR0wGwYDVQQLExRNeU9yZ2FuaXphdGlvbmFs
VW5pdDEVMBMGA1UEAxMMVmlraW5nVlBOIENBMRAwDgYDVQQpEwdFYXN5UlNBMSEw
HwYJKoZIhvcNAQkBFhJtZUBteWhvc3QubXlkb21haW6CCQDPNYXugL8qPjATBgNV
HSUEDDAKBggrBgEFBQcDAjALBgNVHQ8EBAMCB4AwDQYJKoZIhvcNAQELBQADggIB
AAzeU/po3WHb63pKiUO9dsLEIbmbC9Cu1HTm4xQmXeKagbBDZFXQbX2RePJcwZaL
CWLBgVaGtuZt9+RxlV6ctx/fFu2jP2PrIXDFv28oUkk8PErcvCTDqYY/YjqOeLxr
ncU9kQKQs091lZxsGlM12Hl85BRS/Ji0z5KTGwurMzm+3Z1uYKSzCcNwo+Aig8in
gReqloSfIOriYRJ5C1/oX3b6gGTa1j+JkeNMQQolp+OdL8BeXO1O11EDVb5mjNfA
1+GLVRxljhvThYAmE3SNbDbUMRr6UDXXeVH1L1+QPLcXpCoHQ6ZcSU5zz5Zv2qzI
DY/T49+DruBWEieEnJ4OxaiCv/CjbccYtjllPgmazBXElD2qDaSg+JDWhBq0CftH
mleluO9f/ld5bVxB8bzIkWqislB0CtouOmXh4PHgYoWfsxYx/1Yu7WVjZ5qOLuHm
SbB27cswQJlgNyHnfl66vL8zG0p5qYWszyngwA37mwxxs5ch4EGF11OFXtlKqQLW
UP1/lBAI9Clvc/ys6Y8lN2HgKlKUQgvr2vc016CIT/8m98uAgDhEk4ZnAUsrRaLD
yECjNY2D/U1hsdxDRPhjJq0dPbpAbxQWeeyfhfMNnZ8RMnNDwGxa0MISb0dKFDr3
Vec1Ixm2eNH+y4AJmEaLj1YSMrQ1hP89qfINz3NldxFw
-----END CERTIFICATE-----
