Certificate:
    Data:
        Version: 3 (0x2)
        Serial Number: 8672 (0x21e0)
    Signature Algorithm: sha256WithRSAEncryption
        Issuer: C=US, ST=OH, L=Columbus, O=VikingVPN, OU=MyOrganizationalUnit, CN=VikingVPN CA/name=EasyRSA/emailAddress=me@myhost.mydomain
        Validity
            Not Before: Aug  2 22:22:25 2016 GMT
            Not After : Jul 31 22:22:25 2026 GMT
        Subject: CN=Client2449Certdb2fd4
        Subject Public Key Info:
            Public Key Algorithm: rsaEncryption
                Public-Key: (4096 bit)
                Modulus:
                    00:9d:63:90:26:64:93:af:02:b3:d1:16:ca:79:6d:
                    78:bd:5a:44:89:25:f1:1c:95:94:d4:7e:8c:fc:27:
                    ee:bf:26:a3:5e:af:3e:61:20:ec:0b:f1:6d:18:72:
                    3d:1c:98:4e:92:33:01:59:6d:8b:c1:8e:3f:9d:ef:
                    bb:14:3b:c7:44:38:11:9d:ea:4d:15:fc:da:fd:af:
                    0b:b6:cf:f0:3d:02:a6:03:25:c6:32:05:3e:00:fb:
                    ff:2b:24:73:5e:aa:7c:64:f4:c2:a7:15:c0:35:b9:
                    c4:91:c9:17:54:b8:52:b4:6b:97:58:e9:fe:60:21:
                    7e:c8:f3:20:24:e1:1b:c0:b2:32:c0:11:2f:de:35:
                    86:91:e7:83:61:90:2c:74:5f:11:46:f6:8b:4a:a0:
                    3d:7f:24:7d:8d:a4:2f:a7:78:67:54:96:6c:e5:d9:
                    b0:8f:6a:d7:41:df:d6:4d:9b:44:9c:52:b6:f0:56:
                    c0:64:78:72:6c:7e:a0:b9:1b:c7:a6:80:fb:cd:85:
                    60:70:d4:d9:14:b1:de:25:c8:31:19:c2:d2:a9:dc:
                    62:f6:fa:5f:04:a2:e4:cc:5a:7f:2e:70:1c:95:9c:
                    b8:9f:3c:5b:79:26:38:55:86:7d:e6:b5:f3:e3:37:
                    52:ed:e3:bd:6b:89:32:26:e4:34:6d:bd:c8:93:42:
                    2b:d1:de:f2:c5:ce:db:04:f6:b3:77:1a:fc:24:f2:
                    6c:af:60:8b:9c:d5:11:bd:b1:e0:4d:b0:95:81:73:
                    9b:5b:b3:24:6e:3a:3a:ef:4a:6f:3c:35:dc:b4:ca:
                    a9:9c:ab:6a:93:13:41:2a:06:25:1b:27:24:c8:bb:
                    42:f6:62:42:dc:33:1e:ce:42:76:5c:5e:03:09:37:
                    15:a7:0f:9b:08:9a:da:7c:ed:d0:72:d4:bb:72:5c:
                    3f:8e:5a:cd:3d:19:bc:0c:f3:a1:dc:72:dd:bc:30:
                    2e:9c:4e:44:f8:4f:39:87:e4:c2:7d:f5:f1:95:e6:
                    17:c1:69:a6:d3:ef:16:8b:77:08:4b:11:6c:a7:2f:
                    1d:cc:d7:da:71:87:6a:95:7d:47:04:07:9f:d4:74:
                    13:21:c7:61:6a:6a:7c:e2:40:f0:cd:47:83:48:09:
                    72:85:aa:a2:34:00:aa:5a:80:38:7a:10:2e:63:b1:
                    1f:dd:77:17:48:9c:12:39:61:77:1a:d6:2c:6d:43:
                    22:44:f1:37:c4:fb:a6:3b:62:2f:3e:28:1e:1a:76:
                    5d:05:fa:0c:55:f8:42:56:30:09:67:69:f9:b7:3a:
                    2a:08:8a:ea:d9:9e:d3:2d:2d:7a:01:8f:e8:67:3b:
                    ae:60:e1:71:06:6c:61:3b:ab:3c:37:38:b3:a1:89:
                    96:81:ed
                Exponent: 65537 (0x10001)
        X509v3 extensions:
            X509v3 Basic Constraints: 
                CA:FALSE
            Netscape Comment: 
                Easy-RSA Generated Certificate
            X509v3 Subject Key Identifier: 
                EB:84:C9:F4:BB:42:E2:BB:45:A4:82:E3:14:C2:F3:EE:D0:CB:86:C0
            X509v3 Authority Key Identifier: 
                keyid:12:CD:60:04:D2:A0:80:9E:70:ED:C6:99:B8:7B:2C:C6:52:FD:19:A1
                DirName:/C=US/ST=OH/L=Columbus/O=VikingVPN/OU=MyOrganizationalUnit/CN=VikingVPN CA/name=EasyRSA/emailAddress=me@myhost.mydomain
                serial:CF:35:85:EE:80:BF:2A:3E

            X509v3 Extended Key Usage: 
                TLS Web Client Authentication
            X509v3 Key Usage: 
                Digital Signature
    Signature Algorithm: sha256WithRSAEncryption
         a0:54:22:c9:d9:c1:f8:fd:d1:99:fd:2b:d1:c7:93:d8:1a:6b:
         b2:c0:95:ff:32:4f:d7:e0:9c:91:5e:72:c3:b5:70:86:53:f8:
         69:9f:95:66:6c:e8:96:9f:f9:f8:44:f9:51:18:84:d9:d7:18:
         ff:4e:41:f9:06:f3:27:c8:ca:3b:c2:37:d4:8d:fb:aa:0d:57:
         95:71:53:bd:b5:32:67:10:2d:59:36:12:c3:49:e1:be:cc:c3:
         91:44:da:3d:28:87:b3:4a:53:a1:7d:9f:d3:02:b1:a8:04:59:
         3c:6c:a9:92:8f:40:a6:0e:22:97:28:3d:fd:1e:73:89:f6:15:
         45:bf:99:34:e2:88:23:41:e2:15:7a:f8:de:46:35:ec:29:47:
         02:da:c7:73:1e:dd:fd:4a:40:b6:49:3d:c6:52:03:b6:9b:22:
         9b:86:15:ee:0d:1d:a1:e7:77:6c:95:5d:2e:fe:3b:2b:5e:8d:
         ac:56:7e:e0:6b:4b:0f:39:0d:d3:0b:0f:94:4f:06:5c:ed:02:
         f8:16:e7:50:d3:0b:4c:04:b7:a4:67:46:1d:30:a4:4e:d1:e9:
         f4:07:3b:f5:2c:f9:78:10:f1:2a:97:b9:af:b4:7f:25:1c:ff:
         8e:0a:a5:0e:8a:5f:d2:18:c2:d5:11:d2:1a:9f:ac:8a:44:50:
         86:3a:06:08:84:21:11:78:99:0f:b0:a1:13:b2:44:2a:51:66:
         62:97:20:58:b2:b0:cc:54:e0:1d:60:a8:b7:8a:94:a2:27:e2:
         c2:d6:a0:d7:3d:73:97:41:0a:fb:3d:17:54:87:39:70:1d:75:
         98:92:6c:48:1e:0b:25:8c:05:67:ba:47:28:c1:55:e5:6e:32:
         cb:73:b4:a4:96:cf:ca:d2:bb:31:c6:1a:10:ec:61:75:cc:c0:
         66:45:25:a6:3d:99:1b:e5:16:d2:fa:b3:03:c3:31:dd:54:e1:
         a6:95:48:8b:c7:17:20:e1:6c:35:9f:92:a0:8c:0b:83:8c:d4:
         38:6f:5b:5b:b7:62:8a:1b:26:f4:dc:60:87:bc:d8:a6:0e:08:
         21:68:94:14:9c:4e:ff:b4:3d:2c:a9:ec:f4:d0:3c:c2:ff:55:
         02:4c:f0:4a:b7:c1:26:1d:8b:49:dc:c0:62:d8:df:66:d6:44:
         29:dc:f8:ef:39:d1:b0:9b:d0:c2:6d:8c:f4:f9:68:98:01:09:
         56:1f:bb:5b:07:0e:ec:ef:37:c7:28:e5:fc:77:a3:e1:f5:c2:
         c1:ae:e3:c4:d0:e3:ad:6d:ed:69:6c:90:2a:af:13:3b:ef:a4:
         e5:85:dc:45:f9:73:4c:56:16:0f:d7:57:2c:68:6f:d6:46:fe:
         02:18:4d:3b:06:6f:3e:44
-----BEGIN CERTIFICATE-----
MIIGrTCCBJWgAwIBAgICIeAwDQYJKoZIhvcNAQELBQAwgawxCzAJBgNVBAYTAlVT
MQswCQYDVQQIEwJPSDERMA8GA1UEBxMIQ29sdW1idXMxEjAQBgNVBAoTCVZpa2lu
Z1ZQTjEdMBsGA1UECxMUTXlPcmdhbml6YXRpb25hbFVuaXQxFTATBgNVBAMTDFZp
a2luZ1ZQTiBDQTEQMA4GA1UEKRMHRWFzeVJTQTEhMB8GCSqGSIb3DQEJARYSbWVA
bXlob3N0Lm15ZG9tYWluMB4XDTE2MDgwMjIyMjIyNVoXDTI2MDczMTIyMjIyNVow
HzEdMBsGA1UEAxMUQ2xpZW50MjQ0OUNlcnRkYjJmZDQwggIiMA0GCSqGSIb3DQEB
AQUAA4ICDwAwggIKAoICAQCdY5AmZJOvArPRFsp5bXi9WkSJJfEclZTUfoz8J+6/
JqNerz5hIOwL8W0Ycj0cmE6SMwFZbYvBjj+d77sUO8dEOBGd6k0V/Nr9rwu2z/A9
AqYDJcYyBT4A+/8rJHNeqnxk9MKnFcA1ucSRyRdUuFK0a5dY6f5gIX7I8yAk4RvA
sjLAES/eNYaR54NhkCx0XxFG9otKoD1/JH2NpC+neGdUlmzl2bCPatdB39ZNm0Sc
UrbwVsBkeHJsfqC5G8emgPvNhWBw1NkUsd4lyDEZwtKp3GL2+l8EouTMWn8ucByV
nLifPFt5JjhVhn3mtfPjN1Lt471riTIm5DRtvciTQivR3vLFztsE9rN3Gvwk8myv
YIuc1RG9seBNsJWBc5tbsyRuOjrvSm88Ndy0yqmcq2qTE0EqBiUbJyTIu0L2YkLc
Mx7OQnZcXgMJNxWnD5sImtp87dBy1LtyXD+OWs09GbwM86Hcct28MC6cTkT4TzmH
5MJ99fGV5hfBaabT7xaLdwhLEWynLx3M19pxh2qVfUcEB5/UdBMhx2FqanziQPDN
R4NICXKFqqI0AKpagDh6EC5jsR/ddxdInBI5YXca1ixtQyJE8TfE+6Y7Yi8+KB4a
dl0F+gxV+EJWMAlnafm3OioIiurZntMtLXoBj+hnO65g4XEGbGE7qzw3OLOhiZaB
7QIDAQABo4IBYzCCAV8wCQYDVR0TBAIwADAtBglghkgBhvhCAQ0EIBYeRWFzeS1S
U0EgR2VuZXJhdGVkIENlcnRpZmljYXRlMB0GA1UdDgQWBBTrhMn0u0Liu0WkguMU
wvPu0MuGwDCB4QYDVR0jBIHZMIHWgBQSzWAE0qCAnnDtxpm4eyzGUv0ZoaGBsqSB
rzCBrDELMAkGA1UEBhMCVVMxCzAJBgNVBAgTAk9IMREwDwYDVQQHEwhDb2x1bWJ1
czESMBAGA1UEChMJVmlraW5nVlBOMR0wGwYDVQQLExRNeU9yZ2FuaXphdGlvbmFs
VW5pdDEVMBMGA1UEAxMMVmlraW5nVlBOIENBMRAwDgYDVQQpEwdFYXN5UlNBMSEw
HwYJKoZIhvcNAQkBFhJtZUBteWhvc3QubXlkb21haW6CCQDPNYXugL8qPjATBgNV
HSUEDDAKBggrBgEFBQcDAjALBgNVHQ8EBAMCB4AwDQYJKoZIhvcNAQELBQADggIB
AKBUIsnZwfj90Zn9K9HHk9gaa7LAlf8yT9fgnJFecsO1cIZT+GmflWZs6Jaf+fhE
+VEYhNnXGP9OQfkG8yfIyjvCN9SN+6oNV5VxU721MmcQLVk2EsNJ4b7Mw5FE2j0o
h7NKU6F9n9MCsagEWTxsqZKPQKYOIpcoPf0ec4n2FUW/mTTiiCNB4hV6+N5GNewp
RwLax3Me3f1KQLZJPcZSA7abIpuGFe4NHaHnd2yVXS7+OytejaxWfuBrSw85DdML
D5RPBlztAvgW51DTC0wEt6RnRh0wpE7R6fQHO/Us+XgQ8SqXua+0fyUc/44KpQ6K
X9IYwtUR0hqfrIpEUIY6BgiEIRF4mQ+woROyRCpRZmKXIFiysMxU4B1gqLeKlKIn
4sLWoNc9c5dBCvs9F1SHOXAddZiSbEgeCyWMBWe6RyjBVeVuMstztKSWz8rSuzHG
GhDsYXXMwGZFJaY9mRvlFtL6swPDMd1U4aaVSIvHFyDhbDWfkqCMC4OM1DhvW1u3
YoobJvTcYIe82KYOCCFolBScTv+0PSyp7PTQPML/VQJM8Eq3wSYdi0ncwGLY32bW
RCnc+O850bCb0MJtjPT5aJgBCVYfu1sHDuzvN8co5fx3o+H1wsGu48TQ461t7Wls
kCqvEzvvpOWF3EX5c0xWFg/XVyxob9ZG/gIYTTsGbz5E
-----END CERTIFICATE-----
