Certificate:
    Data:
        Version: 3 (0x2)
        Serial Number: 1706 (0x6aa)
    Signature Algorithm: md5WithRSAEncryption
        Issuer: C=US, ST=OH, L=Columbus, O=VikingVPN, OU=MyOrganizationalUnit, CN=VikingVPN CA/name=EasyRSA/emailAddress=me@myhost.mydomain
        Validity
            Not Before: Apr 23 16:03:00 2014 GMT
            Not After : Apr 20 16:03:00 2024 GMT
        Subject: CN=Client605Cert80df00
        Subject Public Key Info:
            Public Key Algorithm: rsaEncryption
                Public-Key: (4096 bit)
                Modulus:
                    00:d6:54:74:86:fa:82:3a:a7:fe:ef:13:df:14:cd:
                    a1:c5:31:1b:9c:92:67:36:df:9b:d7:6f:e1:5e:f1:
                    7f:86:10:de:27:47:14:bc:9d:99:e5:c4:8e:b6:25:
                    c3:9b:83:f6:ab:2c:f3:72:be:3e:9b:17:15:56:f8:
                    4d:34:51:47:e8:44:22:6e:18:44:fa:29:a9:53:de:
                    9f:93:5a:72:e8:40:49:e7:b5:2d:86:97:a0:ed:55:
                    04:9d:60:f7:3b:ae:37:b1:53:72:56:6c:29:eb:6d:
                    90:d6:00:8e:5e:f4:9c:59:f6:1f:9c:e9:14:c4:8f:
                    7d:4a:77:85:21:62:e1:76:92:1c:5f:ef:72:bc:80:
                    e4:4b:20:f1:37:bc:57:46:7d:75:12:98:40:8a:77:
                    6f:36:b3:df:1c:17:ad:d4:41:7f:ea:6d:e1:76:de:
                    62:cd:9a:79:08:90:11:a8:ac:7e:b6:52:23:50:ca:
                    13:7a:9e:d7:24:38:73:72:0c:4d:95:47:e6:11:39:
                    63:4d:dd:2a:6f:97:bf:58:aa:b0:e8:88:f8:12:0d:
                    42:1b:86:45:ab:1a:0d:01:21:ff:39:62:bb:80:66:
                    c8:a6:7d:ce:27:47:77:b6:2e:51:bd:87:b1:9e:4d:
                    05:93:79:12:75:3d:4f:54:5b:56:75:fc:4b:50:26:
                    d2:13:e3:c2:58:d0:77:af:ee:57:a9:64:4e:a5:12:
                    12:d5:55:e5:81:af:9a:41:54:73:55:ad:3f:04:14:
                    0c:15:7e:c4:1d:8c:51:b4:78:47:e7:ff:aa:31:8e:
                    68:1e:ab:82:b7:77:30:39:94:fc:f9:93:85:a6:d3:
                    61:af:25:49:d1:b2:70:e2:ee:f7:9e:d3:eb:48:f0:
                    42:8b:3d:fb:0a:5e:58:97:8c:45:fc:1e:89:47:4c:
                    e5:d9:66:4c:d6:12:d1:e7:9e:c5:24:8c:e5:f3:bf:
                    bc:d4:bf:b9:4c:45:71:e9:38:a5:f5:48:6e:a5:14:
                    25:27:d6:b3:da:19:35:57:d2:87:72:17:4b:c6:82:
                    bc:5b:91:f1:ac:81:b3:08:35:09:4a:91:48:59:5c:
                    15:59:7c:3f:bc:31:77:f6:43:71:e1:5a:65:fe:43:
                    80:44:7b:25:a4:01:81:5c:a3:f5:7a:34:d1:74:5e:
                    3e:dd:3e:42:70:f0:84:a2:a8:dc:ce:78:be:90:23:
                    0a:ae:58:db:01:12:41:79:93:fc:48:50:18:f6:a9:
                    f4:8c:10:5e:7b:29:ef:d6:55:5e:92:6d:45:22:13:
                    6b:c3:14:20:bc:48:db:01:e1:bc:d4:48:5c:43:7e:
                    59:fd:4b:08:bf:62:6b:32:dc:7d:a4:b6:98:a0:e4:
                    5f:c5:ab
                Exponent: 65537 (0x10001)
        X509v3 extensions:
            X509v3 Basic Constraints: 
                CA:FALSE
            Netscape Comment: 
                Easy-RSA Generated Certificate
            X509v3 Subject Key Identifier: 
                6A:B1:09:D2:CC:90:34:19:47:49:49:D5:78:0F:FB:B8:F2:29:8E:05
            X509v3 Authority Key Identifier: 
                keyid:12:CD:60:04:D2:A0:80:9E:70:ED:C6:99:B8:7B:2C:C6:52:FD:19:A1
                DirName:/C=US/ST=OH/L=Columbus/O=VikingVPN/OU=MyOrganizationalUnit/CN=VikingVPN CA/name=EasyRSA/emailAddress=me@myhost.mydomain
                serial:CF:35:85:EE:80:BF:2A:3E

            X509v3 Extended Key Usage: 
                TLS Web Client Authentication
            X509v3 Key Usage: 
                Digital Signature
    Signature Algorithm: md5WithRSAEncryption
         b3:74:ca:1c:26:f9:d0:40:7d:27:a9:e8:f4:cd:0a:24:4c:8a:
         9f:46:bc:f2:cb:e2:58:9d:8f:4b:cd:61:bc:94:79:2c:f6:27:
         e8:64:62:75:2d:ae:09:0c:cb:4c:bb:74:47:6c:11:8d:7b:ff:
         e6:20:6d:a7:6d:a8:d5:f4:49:1c:3e:86:4d:8c:b7:75:c0:b7:
         2c:5d:39:9b:e8:b1:2a:e5:e4:43:56:f3:7c:2e:67:14:8d:fc:
         67:f5:6d:f9:3c:4c:b4:f0:79:fe:58:57:83:41:d0:97:d4:8e:
         0d:fe:2c:ef:3e:2e:49:60:00:4a:bb:cd:12:a0:d5:90:52:02:
         14:cd:22:c1:38:87:a6:05:3b:cc:71:9b:bb:e9:4b:d2:f1:82:
         10:46:e1:ec:d7:ef:c5:14:f4:4e:08:c3:23:cc:89:5e:fa:ba:
         66:03:91:c7:46:98:9a:70:19:1f:aa:36:ea:75:44:78:a1:88:
         19:13:6b:72:25:e4:aa:e6:18:8c:22:53:58:14:04:a1:2a:28:
         f4:8a:d5:a4:fe:8e:80:33:53:61:aa:17:b5:90:f4:2f:91:b6:
         09:6d:7e:35:6e:86:1c:9e:c5:53:1c:38:e0:27:93:2d:21:2a:
         c1:17:84:e9:1a:4c:6a:96:48:9e:e2:e4:69:15:47:ef:bf:74:
         87:8a:c6:97:5e:11:7d:56:7e:5c:76:98:a3:ea:cd:63:88:a2:
         ea:d5:98:06:8a:02:be:b6:02:28:53:21:4d:b6:47:b0:d2:45:
         73:6c:5f:70:aa:16:cf:1c:fd:2e:40:40:ea:bc:65:48:d4:e6:
         f2:94:18:53:3a:df:51:b7:93:0b:ed:99:04:56:f2:a1:ac:91:
         b2:58:f9:0d:b4:11:41:5c:bd:56:c1:25:f0:f8:74:ad:c9:e5:
         6d:92:fd:30:7c:05:e0:17:43:45:4d:dc:45:2a:e9:29:91:dc:
         23:e6:19:6e:10:18:50:c9:58:02:61:15:79:91:7f:4c:9c:70:
         77:ad:68:f7:ba:25:83:fe:29:98:cf:d0:d9:37:26:f6:ed:c1:
         3f:26:fa:fc:78:fb:36:4a:72:4d:b6:af:b8:57:6e:f1:04:44:
         5b:8d:85:88:2f:08:8b:85:49:18:c3:20:af:60:ae:ad:55:aa:
         44:5b:dc:41:5e:46:05:32:33:0b:59:1f:f0:e8:ac:93:50:26:
         1f:0d:49:63:96:02:22:d8:91:5a:c5:c6:0d:9b:1a:f8:2d:ab:
         0c:c7:fa:c1:91:33:f1:73:02:b9:8f:60:c3:b8:49:f6:ed:33:
         c4:f8:f9:03:44:75:5e:bd:dd:bc:03:94:4e:5f:9d:88:c4:78:
         59:27:cd:1f:52:ac:ca:0c
-----BEGIN CERTIFICATE-----
MIIGrDCCBJSgAwIBAgICBqowDQYJKoZIhvcNAQEEBQAwgawxCzAJBgNVBAYTAlVT
MQswCQYDVQQIEwJPSDERMA8GA1UEBxMIQ29sdW1idXMxEjAQBgNVBAoTCVZpa2lu
Z1ZQTjEdMBsGA1UECxMUTXlPcmdhbml6YXRpb25hbFVuaXQxFTATBgNVBAMTDFZp
a2luZ1ZQTiBDQTEQMA4GA1UEKRMHRWFzeVJTQTEhMB8GCSqGSIb3DQEJARYSbWVA
bXlob3N0Lm15ZG9tYWluMB4XDTE0MDQyMzE2MDMwMFoXDTI0MDQyMDE2MDMwMFow
HjEcMBoGA1UEAxMTQ2xpZW50NjA1Q2VydDgwZGYwMDCCAiIwDQYJKoZIhvcNAQEB
BQADggIPADCCAgoCggIBANZUdIb6gjqn/u8T3xTNocUxG5ySZzbfm9dv4V7xf4YQ
3idHFLydmeXEjrYlw5uD9qss83K+PpsXFVb4TTRRR+hEIm4YRPopqVPen5NacuhA
See1LYaXoO1VBJ1g9zuuN7FTclZsKettkNYAjl70nFn2H5zpFMSPfUp3hSFi4XaS
HF/vcryA5Esg8Te8V0Z9dRKYQIp3bzaz3xwXrdRBf+pt4XbeYs2aeQiQEaisfrZS
I1DKE3qe1yQ4c3IMTZVH5hE5Y03dKm+Xv1iqsOiI+BINQhuGRasaDQEh/zliu4Bm
yKZ9zidHd7YuUb2HsZ5NBZN5EnU9T1RbVnX8S1Am0hPjwljQd6/uV6lkTqUSEtVV
5YGvmkFUc1WtPwQUDBV+xB2MUbR4R+f/qjGOaB6rgrd3MDmU/PmThabTYa8lSdGy
cOLu957T60jwQos9+wpeWJeMRfweiUdM5dlmTNYS0eeexSSM5fO/vNS/uUxFcek4
pfVIbqUUJSfWs9oZNVfSh3IXS8aCvFuR8ayBswg1CUqRSFlcFVl8P7wxd/ZDceFa
Zf5DgER7JaQBgVyj9Xo00XRePt0+QnDwhKKo3M54vpAjCq5Y2wESQXmT/EhQGPap
9IwQXnsp79ZVXpJtRSITa8MUILxI2wHhvNRIXEN+Wf1LCL9iazLcfaS2mKDkX8Wr
AgMBAAGjggFjMIIBXzAJBgNVHRMEAjAAMC0GCWCGSAGG+EIBDQQgFh5FYXN5LVJT
QSBHZW5lcmF0ZWQgQ2VydGlmaWNhdGUwHQYDVR0OBBYEFGqxCdLMkDQZR0lJ1XgP
+7jyKY4FMIHhBgNVHSMEgdkwgdaAFBLNYATSoICecO3Gmbh7LMZS/RmhoYGypIGv
MIGsMQswCQYDVQQGEwJVUzELMAkGA1UECBMCT0gxETAPBgNVBAcTCENvbHVtYnVz
MRIwEAYDVQQKEwlWaWtpbmdWUE4xHTAbBgNVBAsTFE15T3JnYW5pemF0aW9uYWxV
bml0MRUwEwYDVQQDEwxWaWtpbmdWUE4gQ0ExEDAOBgNVBCkTB0Vhc3lSU0ExITAf
BgkqhkiG9w0BCQEWEm1lQG15aG9zdC5teWRvbWFpboIJAM81he6Avyo+MBMGA1Ud
JQQMMAoGCCsGAQUFBwMCMAsGA1UdDwQEAwIHgDANBgkqhkiG9w0BAQQFAAOCAgEA
s3TKHCb50EB9J6no9M0KJEyKn0a88sviWJ2PS81hvJR5LPYn6GRidS2uCQzLTLt0
R2wRjXv/5iBtp22o1fRJHD6GTYy3dcC3LF05m+ixKuXkQ1bzfC5nFI38Z/Vt+TxM
tPB5/lhXg0HQl9SODf4s7z4uSWAASrvNEqDVkFICFM0iwTiHpgU7zHGbu+lL0vGC
EEbh7NfvxRT0TgjDI8yJXvq6ZgORx0aYmnAZH6o26nVEeKGIGRNrciXkquYYjCJT
WBQEoSoo9IrVpP6OgDNTYaoXtZD0L5G2CW1+NW6GHJ7FUxw44CeTLSEqwReE6RpM
apZInuLkaRVH7790h4rGl14RfVZ+XHaYo+rNY4ii6tWYBooCvrYCKFMhTbZHsNJF
c2xfcKoWzxz9LkBA6rxlSNTm8pQYUzrfUbeTC+2ZBFbyoayRslj5DbQRQVy9VsEl
8Ph0rcnlbZL9MHwF4BdDRU3cRSrpKZHcI+YZbhAYUMlYAmEVeZF/TJxwd61o97ol
g/4pmM/Q2Tcm9u3BPyb6/Hj7NkpyTbavuFdu8QREW42FiC8Ii4VJGMMgr2CurVWq
RFvcQV5GBTIzC1kf8Oisk1AmHw1JY5YCItiRWsXGDZsa+C2rDMf6wZEz8XMCuY9g
w7hJ9u0zxPj5A0R1Xr3dvAOUTl+diMR4WSfNH1Ksygw=
-----END CERTIFICATE-----
