Certificate:
    Data:
        Version: 3 (0x2)
        Serial Number: 5380 (0x1504)
    Signature Algorithm: md5WithRSAEncryption
        Issuer: C=US, ST=OH, L=Columbus, O=VikingVPN, OU=MyOrganizationalUnit, CN=VikingVPN CA/name=EasyRSA/emailAddress=me@myhost.mydomain
        Validity
            Not Before: May 25 17:47:17 2015 GMT
            Not After : May 22 17:47:17 2025 GMT
        Subject: CN=Client1714Certac1689
        Subject Public Key Info:
            Public Key Algorithm: rsaEncryption
                Public-Key: (4096 bit)
                Modulus:
                    00:e0:5d:79:21:6f:0e:b1:ec:6a:53:9b:37:54:bf:
                    76:22:af:46:a1:6e:24:c4:47:5b:6e:ea:56:53:38:
                    7b:7b:fb:1f:5f:fe:50:f0:29:21:50:07:55:25:1b:
                    24:a1:55:23:a6:3c:4d:31:db:9c:0f:81:f3:fd:0a:
                    f3:c6:27:e6:26:70:85:6b:4c:b6:1d:47:aa:83:e5:
                    e2:23:5f:24:5c:0e:60:e5:0d:8e:70:be:4a:ec:73:
                    15:02:67:c7:76:82:8c:ab:25:55:53:78:1d:2c:a0:
                    5b:99:f3:c5:ff:7a:c4:71:d8:40:47:28:1d:2c:4a:
                    08:cc:73:c7:3b:71:4e:a5:1b:87:d8:da:1f:89:2b:
                    5f:fc:62:a1:cc:2c:8b:f3:ed:ba:8a:c9:86:76:f3:
                    2f:7a:2f:91:29:5b:c0:d4:78:cd:af:e8:09:ca:d7:
                    11:49:fb:ef:99:a9:7d:5b:6d:8f:90:54:e6:ce:52:
                    77:b0:7b:6b:a3:3e:32:c6:d4:41:ae:47:84:ea:22:
                    de:1c:b7:84:9c:98:09:a8:f3:8a:45:20:00:e9:77:
                    e8:f0:4e:4d:22:8d:da:15:49:d2:ec:82:85:88:a8:
                    ab:e9:a7:08:88:99:58:b3:8d:08:08:94:d3:56:cd:
                    1f:ea:82:14:c8:fb:7e:6b:c2:78:5a:b6:18:6f:24:
                    b4:5f:5b:3b:e3:6a:c8:34:de:ed:be:30:28:ff:43:
                    eb:97:e0:a4:e2:73:b8:b8:a1:2f:3a:e9:3e:3d:ba:
                    16:48:7e:6c:7e:f4:b2:0a:43:9d:56:6e:f2:9b:e2:
                    f9:49:f8:41:91:56:5e:af:cd:7b:69:12:53:b8:3e:
                    26:14:39:9f:c3:d6:a6:b4:db:0f:09:28:c4:8e:4e:
                    70:79:0b:6b:e6:56:d5:58:29:3d:fa:22:ed:5a:aa:
                    9d:65:a0:3d:a1:b1:4b:33:57:57:b8:d2:c7:93:b0:
                    3e:0b:79:b9:72:6d:fc:a7:0c:86:8b:f4:64:e2:16:
                    7f:fe:77:f0:cf:7a:88:c4:ed:d7:96:48:1d:fa:60:
                    d1:7a:f1:60:3f:d9:3e:18:1c:0f:c8:9b:0e:c3:ca:
                    f3:91:e9:e9:fc:61:7f:7d:1d:c5:b9:5d:75:a3:60:
                    2b:c5:e0:05:dc:48:3a:7c:c6:42:38:cc:23:27:f8:
                    16:b3:b9:bf:ae:cc:39:6b:bf:02:65:3d:f7:2f:84:
                    1d:36:a8:d9:a3:db:ad:c4:45:e9:55:d4:ec:03:91:
                    4f:31:c9:49:e1:54:4f:38:9b:6f:43:26:c9:b8:99:
                    4b:50:24:e4:9c:e0:a5:b0:28:c1:63:82:c5:0b:ec:
                    3c:f0:c9:7b:e6:39:36:2a:31:47:50:21:b5:04:2d:
                    b0:f9:79
                Exponent: 65537 (0x10001)
        X509v3 extensions:
            X509v3 Basic Constraints: 
                CA:FALSE
            Netscape Comment: 
                Easy-RSA Generated Certificate
            X509v3 Subject Key Identifier: 
                2D:C9:BA:59:AF:D7:83:12:04:6D:D5:69:8A:84:6D:CA:A8:73:E4:74
            X509v3 Authority Key Identifier: 
                keyid:12:CD:60:04:D2:A0:80:9E:70:ED:C6:99:B8:7B:2C:C6:52:FD:19:A1
                DirName:/C=US/ST=OH/L=Columbus/O=VikingVPN/OU=MyOrganizationalUnit/CN=VikingVPN CA/name=EasyRSA/emailAddress=me@myhost.mydomain
                serial:CF:35:85:EE:80:BF:2A:3E

            X509v3 Extended Key Usage: 
                TLS Web Client Authentication
            X509v3 Key Usage: 
                Digital Signature
    Signature Algorithm: md5WithRSAEncryption
         3a:08:a0:7b:94:bb:c1:f3:43:61:c9:63:4d:10:9f:af:46:d3:
         08:0e:15:0a:4a:96:9c:81:6d:d3:54:c8:19:f1:4b:49:23:ce:
         e5:cd:e5:e6:9f:5d:c6:ca:94:d5:bb:51:f3:bd:82:2e:f0:02:
         f3:17:c9:06:6a:63:6e:4b:66:9d:1b:d8:55:6c:fa:18:0c:6b:
         65:4e:3d:8c:df:b7:cc:49:e3:b4:66:4a:fa:86:d8:18:79:01:
         4b:b5:8a:67:e0:f6:42:8c:e1:ec:87:1f:82:67:ca:39:03:dd:
         54:c7:68:53:60:5f:de:7f:07:d7:29:20:9d:8a:72:08:f9:29:
         9e:80:b8:36:5d:87:72:b0:d6:ef:b9:a0:cb:6c:e3:7c:3a:8e:
         d0:63:f7:c5:dd:01:9e:d8:4b:7e:67:54:82:9a:57:92:54:00:
         55:81:e7:af:49:da:30:3b:8d:c7:7f:40:be:44:86:9d:fd:0d:
         d4:f1:c1:af:bd:5e:54:04:5e:a7:b2:ed:31:81:33:7d:ff:ec:
         14:e7:d8:5f:7a:49:c4:93:c1:7a:de:3a:7f:6b:61:bb:12:d5:
         66:2a:b8:22:b1:07:18:e0:73:e3:8e:bf:d2:cc:72:2d:d5:52:
         5f:fc:7d:cc:30:2c:0f:e2:a9:2b:67:d4:a6:49:97:78:4d:52:
         80:9f:ab:e7:06:58:bb:d7:40:75:7f:32:e6:fb:ad:66:0d:e1:
         44:d0:90:7f:a8:56:68:bb:cf:ee:6a:f1:e4:03:5e:25:be:51:
         29:44:85:f2:ec:4c:63:35:f9:04:f1:79:83:ef:57:1f:ba:fc:
         ef:a8:70:e0:66:07:ec:32:45:d7:f6:dd:3c:07:71:5c:ff:f8:
         2b:0c:74:b3:b5:7f:8f:98:38:80:52:46:35:5e:69:68:a8:ac:
         ff:db:5e:fc:39:b2:e0:38:22:15:b7:0f:78:64:5f:83:4c:65:
         57:9a:f2:c6:1e:41:f2:86:17:9a:2f:f7:9c:01:de:df:a3:b7:
         30:03:8a:51:d3:70:55:52:e6:81:6a:6c:26:f2:a7:70:18:70:
         18:70:4a:7b:52:cb:ad:21:eb:cf:7f:2e:1c:a1:1e:c5:1a:4a:
         c6:02:ba:e2:94:94:8d:5f:f5:12:e5:0d:3f:6b:71:5e:12:29:
         33:1a:0d:21:fe:14:9c:42:14:43:ae:16:c6:f3:71:04:75:df:
         40:75:9a:62:23:b8:47:b3:1f:90:13:44:c1:ed:ef:b0:2c:ea:
         ac:eb:86:eb:8c:c5:39:b4:37:0f:90:95:7f:8d:e0:d2:67:bc:
         3e:45:6d:2c:8d:bb:75:20:40:40:e8:22:66:c5:4c:f8:bf:fb:
         2b:c5:e3:f6:76:04:11:5f
-----BEGIN CERTIFICATE-----
MIIGrTCCBJWgAwIBAgICFQQwDQYJKoZIhvcNAQEEBQAwgawxCzAJBgNVBAYTAlVT
MQswCQYDVQQIEwJPSDERMA8GA1UEBxMIQ29sdW1idXMxEjAQBgNVBAoTCVZpa2lu
Z1ZQTjEdMBsGA1UECxMUTXlPcmdhbml6YXRpb25hbFVuaXQxFTATBgNVBAMTDFZp
a2luZ1ZQTiBDQTEQMA4GA1UEKRMHRWFzeVJTQTEhMB8GCSqGSIb3DQEJARYSbWVA
bXlob3N0Lm15ZG9tYWluMB4XDTE1MDUyNTE3NDcxN1oXDTI1MDUyMjE3NDcxN1ow
HzEdMBsGA1UEAxMUQ2xpZW50MTcxNENlcnRhYzE2ODkwggIiMA0GCSqGSIb3DQEB
AQUAA4ICDwAwggIKAoICAQDgXXkhbw6x7GpTmzdUv3Yir0ahbiTER1tu6lZTOHt7
+x9f/lDwKSFQB1UlGyShVSOmPE0x25wPgfP9CvPGJ+YmcIVrTLYdR6qD5eIjXyRc
DmDlDY5wvkrscxUCZ8d2goyrJVVTeB0soFuZ88X/esRx2EBHKB0sSgjMc8c7cU6l
G4fY2h+JK1/8YqHMLIvz7bqKyYZ28y96L5EpW8DUeM2v6AnK1xFJ+++ZqX1bbY+Q
VObOUnewe2ujPjLG1EGuR4TqIt4ct4ScmAmo84pFIADpd+jwTk0ijdoVSdLsgoWI
qKvppwiImVizjQgIlNNWzR/qghTI+35rwnhathhvJLRfWzvjasg03u2+MCj/Q+uX
4KTic7i4oS866T49uhZIfmx+9LIKQ51WbvKb4vlJ+EGRVl6vzXtpElO4PiYUOZ/D
1qa02w8JKMSOTnB5C2vmVtVYKT36Iu1aqp1loD2hsUszV1e40seTsD4Leblybfyn
DIaL9GTiFn/+d/DPeojE7deWSB36YNF68WA/2T4YHA/Imw7DyvOR6en8YX99HcW5
XXWjYCvF4AXcSDp8xkI4zCMn+Bazub+uzDlrvwJlPfcvhB02qNmj263ERelV1OwD
kU8xyUnhVE84m29DJsm4mUtQJOSc4KWwKMFjgsUL7DzwyXvmOTYqMUdQIbUELbD5
eQIDAQABo4IBYzCCAV8wCQYDVR0TBAIwADAtBglghkgBhvhCAQ0EIBYeRWFzeS1S
U0EgR2VuZXJhdGVkIENlcnRpZmljYXRlMB0GA1UdDgQWBBQtybpZr9eDEgRt1WmK
hG3KqHPkdDCB4QYDVR0jBIHZMIHWgBQSzWAE0qCAnnDtxpm4eyzGUv0ZoaGBsqSB
rzCBrDELMAkGA1UEBhMCVVMxCzAJBgNVBAgTAk9IMREwDwYDVQQHEwhDb2x1bWJ1
czESMBAGA1UEChMJVmlraW5nVlBOMR0wGwYDVQQLExRNeU9yZ2FuaXphdGlvbmFs
VW5pdDEVMBMGA1UEAxMMVmlraW5nVlBOIENBMRAwDgYDVQQpEwdFYXN5UlNBMSEw
HwYJKoZIhvcNAQkBFhJtZUBteWhvc3QubXlkb21haW6CCQDPNYXugL8qPjATBgNV
HSUEDDAKBggrBgEFBQcDAjALBgNVHQ8EBAMCB4AwDQYJKoZIhvcNAQEEBQADggIB
ADoIoHuUu8HzQ2HJY00Qn69G0wgOFQpKlpyBbdNUyBnxS0kjzuXN5eafXcbKlNW7
UfO9gi7wAvMXyQZqY25LZp0b2FVs+hgMa2VOPYzft8xJ47RmSvqG2Bh5AUu1imfg
9kKM4eyHH4JnyjkD3VTHaFNgX95/B9cpIJ2Kcgj5KZ6AuDZdh3Kw1u+5oMts43w6
jtBj98XdAZ7YS35nVIKaV5JUAFWB569J2jA7jcd/QL5Ehp39DdTxwa+9XlQEXqey
7TGBM33/7BTn2F96ScSTwXreOn9rYbsS1WYquCKxBxjgc+OOv9LMci3VUl/8fcww
LA/iqStn1KZJl3hNUoCfq+cGWLvXQHV/Mub7rWYN4UTQkH+oVmi7z+5q8eQDXiW+
USlEhfLsTGM1+QTxeYPvVx+6/O+ocOBmB+wyRdf23TwHcVz/+CsMdLO1f4+YOIBS
RjVeaWiorP/bXvw5suA4IhW3D3hkX4NMZVea8sYeQfKGF5ov95wB3t+jtzADilHT
cFVS5oFqbCbyp3AYcBhwSntSy60h689/LhyhHsUaSsYCuuKUlI1f9RLlDT9rcV4S
KTMaDSH+FJxCFEOuFsbzcQR130B1mmIjuEezH5ATRMHt77As6qzrhuuMxTm0Nw+Q
lX+N4NJnvD5FbSyNu3UgQEDoImbFTPi/+yvF4/Z2BBFf
-----END CERTIFICATE-----
