Certificate:
    Data:
        Version: 3 (0x2)
        Serial Number: 12828 (0x321c)
    Signature Algorithm: sha256WithRSAEncryption
        Issuer: C=US, ST=OH, L=Columbus, O=VikingVPN, OU=MyOrganizationalUnit, CN=VikingVPN CA/name=EasyRSA/emailAddress=me@myhost.mydomain
        Validity
            Not Before: Mar 30 01:48:36 2018 GMT
            Not After : Mar 27 01:48:36 2028 GMT
        Subject: CN=Client1682Cert3148e7
        Subject Public Key Info:
            Public Key Algorithm: rsaEncryption
                Public-Key: (4096 bit)
                Modulus:
                    00:d7:8a:3d:4a:93:db:3f:cd:c2:ad:02:71:22:57:
                    9d:d2:3d:5a:71:e7:71:1e:41:ac:78:39:3a:00:b4:
                    1d:2a:80:51:98:d3:56:d7:93:7e:2d:7b:61:9d:be:
                    f1:d5:58:49:2a:ec:0f:3d:97:0b:70:2e:7d:50:92:
                    38:0e:e5:fb:56:e3:1e:d0:20:e2:3a:49:5e:02:b9:
                    03:2a:eb:ae:2a:98:90:d7:94:a0:be:1a:ca:e5:78:
                    0b:fb:dd:ce:2b:cd:cb:87:b7:2a:59:ca:31:5e:5c:
                    55:f4:13:67:62:ac:c4:ac:48:7b:3b:e2:f9:48:f3:
                    d7:a3:98:8e:88:c2:1d:aa:64:98:0c:ec:e9:8a:bd:
                    36:68:40:5b:0e:a4:b0:36:7e:61:c1:30:59:e7:6c:
                    5b:d2:57:85:92:8a:e8:c4:8f:74:98:7f:eb:b5:19:
                    78:bc:c4:26:44:01:6d:60:ca:47:7d:65:f3:1e:38:
                    a9:d1:e9:4c:2f:e6:23:4e:8d:1d:bb:a7:a0:ce:4f:
                    a0:2b:12:16:4d:d7:d1:36:27:00:10:3d:fc:ce:a1:
                    de:b2:b8:31:5b:68:ff:92:f3:f2:80:dd:15:d7:22:
                    68:83:2e:6b:34:89:93:34:4a:8b:ac:69:1c:0d:63:
                    62:37:c9:1b:51:d3:cd:c1:8b:6c:ed:8f:05:1f:43:
                    c0:b2:6f:90:81:92:8d:bd:7f:a6:ca:67:fa:1f:56:
                    b9:ec:fa:09:24:7a:5e:dc:e0:22:31:23:f2:33:87:
                    8a:aa:a3:74:ce:f2:cf:10:79:44:49:f4:52:77:af:
                    59:04:54:3b:18:9e:bd:4f:e4:0c:53:a8:52:7f:10:
                    f7:94:32:9b:69:7f:3c:07:19:87:cd:f5:d9:e7:4c:
                    df:a4:3a:a7:0a:91:99:2e:1f:78:f3:ad:ca:ab:0a:
                    e1:be:25:30:84:23:55:80:00:56:8c:67:71:93:65:
                    14:38:06:5f:09:4b:16:33:a0:fa:6c:96:6b:76:56:
                    37:b2:19:e7:26:48:a6:90:76:79:64:f6:f5:eb:cd:
                    ff:84:e9:c7:60:ff:92:46:0b:66:aa:0b:76:64:35:
                    d6:71:c1:8a:92:92:02:bd:06:72:dd:b3:a2:dc:38:
                    23:cb:60:90:9d:03:1e:94:4f:11:18:ff:85:51:b5:
                    9e:b3:1a:9a:ec:4b:01:06:4b:f0:ae:b3:6b:df:96:
                    26:45:a9:19:07:aa:98:73:62:9e:8a:7d:dd:e8:da:
                    43:ab:e8:82:98:83:69:60:40:1a:24:70:9b:28:fd:
                    45:d1:a4:5a:06:e8:a7:1e:83:1d:4c:09:5e:9d:15:
                    4d:36:30:31:c9:ad:eb:a5:5c:b9:d4:c4:8a:64:28:
                    0e:63:0f
                Exponent: 65537 (0x10001)
        X509v3 extensions:
            X509v3 Basic Constraints: 
                CA:FALSE
            Netscape Comment: 
                Easy-RSA Generated Certificate
            X509v3 Subject Key Identifier: 
                D5:D0:14:30:8A:08:20:02:6B:6F:C6:F8:94:74:B4:11:FA:74:D2:BE
            X509v3 Authority Key Identifier: 
                keyid:12:CD:60:04:D2:A0:80:9E:70:ED:C6:99:B8:7B:2C:C6:52:FD:19:A1
                DirName:/C=US/ST=OH/L=Columbus/O=VikingVPN/OU=MyOrganizationalUnit/CN=VikingVPN CA/name=EasyRSA/emailAddress=me@myhost.mydomain
                serial:CF:35:85:EE:80:BF:2A:3E

            X509v3 Extended Key Usage: 
                TLS Web Client Authentication
            X509v3 Key Usage: 
                Digital Signature
    Signature Algorithm: sha256WithRSAEncryption
         32:f8:0f:b4:8b:13:50:2a:d9:f5:06:b7:24:4f:c5:89:3a:97:
         f1:0a:d6:ed:2e:68:42:90:df:dc:ab:da:a3:4a:77:e4:a1:7a:
         43:e1:34:a2:d8:4a:76:45:7f:3f:8d:bc:7f:e1:6d:fc:d5:00:
         83:19:b6:20:8b:4d:dc:57:09:16:35:df:22:e4:22:ee:17:16:
         35:33:0d:d3:4c:15:17:86:1c:fe:bf:55:a6:84:2e:00:b0:68:
         c5:6e:9c:0b:eb:ed:86:6d:a5:f3:a8:81:c1:57:ed:cf:7a:4e:
         b8:aa:ef:cb:7b:48:cd:d3:ee:ba:6a:38:74:3d:7f:e4:66:24:
         d4:05:c4:07:8c:82:0b:68:0b:9f:84:97:88:5b:d9:b2:76:c8:
         1b:5d:ce:46:66:9f:26:af:db:69:15:72:7c:5e:bd:7a:2d:a8:
         eb:05:c6:98:32:3b:bb:38:c0:dc:cb:95:2d:88:c7:e7:e8:22:
         ed:cb:71:6a:79:26:88:e3:28:ca:09:2b:02:22:a2:1a:da:00:
         94:86:a7:ef:15:19:37:cc:13:ea:df:a3:9c:f3:03:11:57:17:
         eb:e4:6d:87:14:a9:bf:69:f2:c7:83:f7:15:64:70:68:4d:06:
         c7:05:48:ef:51:61:5b:73:da:f2:1a:a4:d6:de:02:41:f4:ba:
         3b:d5:93:23:70:1c:9d:0b:00:19:39:73:54:e0:41:d9:d9:47:
         67:4b:f3:6b:71:8a:09:24:2b:2c:a4:ff:c7:04:ea:d9:be:bb:
         70:14:fb:4f:b5:b2:1a:c0:ae:4e:cc:c0:ae:41:1b:3d:cc:5b:
         8f:39:43:73:a1:26:06:42:36:3e:99:ea:66:dc:10:50:7a:b6:
         a6:09:1f:13:6b:1b:0d:ff:b7:77:0a:b5:3b:c4:cd:24:60:5e:
         45:1b:c0:c8:ca:39:7d:fc:f8:0a:d7:64:e6:48:53:87:8b:a0:
         17:7b:0e:98:03:14:e3:fd:f6:38:f2:ae:2d:53:9b:cc:1e:51:
         5a:0f:00:5f:24:21:80:17:5e:ad:f5:4e:75:6f:c5:ca:44:f4:
         c4:1f:25:23:98:ef:8f:58:71:54:66:86:56:74:ba:fb:3c:94:
         b4:a7:75:37:77:ba:73:be:a4:08:34:dc:29:2a:e0:f0:2a:4a:
         75:1a:f0:a8:95:46:6b:02:0b:75:bd:b4:6c:89:b5:5b:b5:9a:
         30:fa:24:2b:96:0f:81:23:e4:23:a3:f8:63:8d:a1:04:ae:38:
         4a:fa:9d:20:e2:3b:7d:d6:4b:48:7e:c8:0e:ad:10:80:f5:dd:
         98:dd:0d:e4:51:73:31:15:ea:5a:a2:20:55:32:40:2a:cd:42:
         92:bd:c7:a1:84:96:e5:93
-----BEGIN CERTIFICATE-----
MIIGrTCCBJWgAwIBAgICMhwwDQYJKoZIhvcNAQELBQAwgawxCzAJBgNVBAYTAlVT
MQswCQYDVQQIEwJPSDERMA8GA1UEBxMIQ29sdW1idXMxEjAQBgNVBAoTCVZpa2lu
Z1ZQTjEdMBsGA1UECxMUTXlPcmdhbml6YXRpb25hbFVuaXQxFTATBgNVBAMTDFZp
a2luZ1ZQTiBDQTEQMA4GA1UEKRMHRWFzeVJTQTEhMB8GCSqGSIb3DQEJARYSbWVA
bXlob3N0Lm15ZG9tYWluMB4XDTE4MDMzMDAxNDgzNloXDTI4MDMyNzAxNDgzNlow
HzEdMBsGA1UEAxMUQ2xpZW50MTY4MkNlcnQzMTQ4ZTcwggIiMA0GCSqGSIb3DQEB
AQUAA4ICDwAwggIKAoICAQDXij1Kk9s/zcKtAnEiV53SPVpx53EeQax4OToAtB0q
gFGY01bXk34te2GdvvHVWEkq7A89lwtwLn1QkjgO5ftW4x7QIOI6SV4CuQMq664q
mJDXlKC+GsrleAv73c4rzcuHtypZyjFeXFX0E2dirMSsSHs74vlI89ejmI6Iwh2q
ZJgM7OmKvTZoQFsOpLA2fmHBMFnnbFvSV4WSiujEj3SYf+u1GXi8xCZEAW1gykd9
ZfMeOKnR6Uwv5iNOjR27p6DOT6ArEhZN19E2JwAQPfzOod6yuDFbaP+S8/KA3RXX
ImiDLms0iZM0SousaRwNY2I3yRtR083Bi2ztjwUfQ8Cyb5CBko29f6bKZ/ofVrns
+gkkel7c4CIxI/Izh4qqo3TO8s8QeURJ9FJ3r1kEVDsYnr1P5AxTqFJ/EPeUMptp
fzwHGYfN9dnnTN+kOqcKkZkuH3jzrcqrCuG+JTCEI1WAAFaMZ3GTZRQ4Bl8JSxYz
oPpslmt2VjeyGecmSKaQdnlk9vXrzf+E6cdg/5JGC2aqC3ZkNdZxwYqSkgK9BnLd
s6LcOCPLYJCdAx6UTxEY/4VRtZ6zGprsSwEGS/Cus2vfliZFqRkHqphzYp6Kfd3o
2kOr6IKYg2lgQBokcJso/UXRpFoG6Kcegx1MCV6dFU02MDHJreulXLnUxIpkKA5j
DwIDAQABo4IBYzCCAV8wCQYDVR0TBAIwADAtBglghkgBhvhCAQ0EIBYeRWFzeS1S
U0EgR2VuZXJhdGVkIENlcnRpZmljYXRlMB0GA1UdDgQWBBTV0BQwigggAmtvxviU
dLQR+nTSvjCB4QYDVR0jBIHZMIHWgBQSzWAE0qCAnnDtxpm4eyzGUv0ZoaGBsqSB
rzCBrDELMAkGA1UEBhMCVVMxCzAJBgNVBAgTAk9IMREwDwYDVQQHEwhDb2x1bWJ1
czESMBAGA1UEChMJVmlraW5nVlBOMR0wGwYDVQQLExRNeU9yZ2FuaXphdGlvbmFs
VW5pdDEVMBMGA1UEAxMMVmlraW5nVlBOIENBMRAwDgYDVQQpEwdFYXN5UlNBMSEw
HwYJKoZIhvcNAQkBFhJtZUBteWhvc3QubXlkb21haW6CCQDPNYXugL8qPjATBgNV
HSUEDDAKBggrBgEFBQcDAjALBgNVHQ8EBAMCB4AwDQYJKoZIhvcNAQELBQADggIB
ADL4D7SLE1Aq2fUGtyRPxYk6l/EK1u0uaEKQ39yr2qNKd+ShekPhNKLYSnZFfz+N
vH/hbfzVAIMZtiCLTdxXCRY13yLkIu4XFjUzDdNMFReGHP6/VaaELgCwaMVunAvr
7YZtpfOogcFX7c96Triq78t7SM3T7rpqOHQ9f+RmJNQFxAeMggtoC5+El4hb2bJ2
yBtdzkZmnyav22kVcnxevXotqOsFxpgyO7s4wNzLlS2Ix+foIu3LcWp5JojjKMoJ
KwIiohraAJSGp+8VGTfME+rfo5zzAxFXF+vkbYcUqb9p8seD9xVkcGhNBscFSO9R
YVtz2vIapNbeAkH0ujvVkyNwHJ0LABk5c1TgQdnZR2dL82txigkkKyyk/8cE6tm+
u3AU+0+1shrArk7MwK5BGz3MW485Q3OhJgZCNj6Z6mbcEFB6tqYJHxNrGw3/t3cK
tTvEzSRgXkUbwMjKOX38+ArXZOZIU4eLoBd7DpgDFOP99jjyri1Tm8weUVoPAF8k
IYAXXq31TnVvxcpE9MQfJSOY749YcVRmhlZ0uvs8lLSndTd3unO+pAg03Ckq4PAq
SnUa8KiVRmsCC3W9tGyJtVu1mjD6JCuWD4Ej5COj+GONoQSuOEr6nSDiO33WS0h+
yA6tEID13ZjdDeRRczEV6lqiIFUyQCrNQpK9x6GEluWT
-----END CERTIFICATE-----
