Certificate:
    Data:
        Version: 3 (0x2)
        Serial Number: 10558 (0x293e)
    Signature Algorithm: sha256WithRSAEncryption
        Issuer: C=US, ST=OH, L=Columbus, O=VikingVPN, OU=MyOrganizationalUnit, CN=VikingVPN CA/name=EasyRSA/emailAddress=me@myhost.mydomain
        Validity
            Not Before: Apr  5 22:50:06 2017 GMT
            Not After : Apr  3 22:50:06 2027 GMT
        Subject: CN=Client2392Cert7c07c0
        Subject Public Key Info:
            Public Key Algorithm: rsaEncryption
                Public-Key: (4096 bit)
                Modulus:
                    00:a0:7d:8d:8c:10:21:62:c0:28:df:c6:b3:1b:e1:
                    15:53:cd:56:29:c8:a5:49:65:08:20:8a:ee:53:e2:
                    03:52:1e:97:84:3e:e7:a7:56:13:bd:e4:f8:eb:a4:
                    72:a6:13:79:5a:03:e0:cc:06:95:a5:dc:4e:af:e3:
                    0f:84:2c:14:12:60:18:99:29:93:dd:91:48:c1:78:
                    01:5c:92:85:ed:c1:0a:75:0f:2a:da:25:25:a3:6e:
                    a4:72:b7:69:cf:a2:a8:2c:9d:47:f9:6e:9f:f7:a0:
                    0f:fb:1b:cb:99:9d:41:75:58:ce:32:bc:7d:9c:a7:
                    9f:53:6d:2f:0c:a3:1f:a4:2b:5f:e3:5d:a1:84:aa:
                    70:b0:16:d1:16:d5:2f:d9:48:69:44:54:d7:80:e8:
                    42:e2:5e:d8:fc:c7:0f:47:86:26:03:5b:1a:cb:19:
                    e6:a9:ec:6d:08:0b:db:2c:76:02:68:6e:5e:5e:06:
                    58:19:d2:be:6a:61:5f:c6:0e:79:6e:84:70:6a:8f:
                    1a:c4:f0:25:af:44:9e:5b:0f:65:31:cb:e2:6c:fa:
                    15:8f:ba:23:98:22:be:30:e6:f5:8c:3f:3e:37:5f:
                    81:4d:62:16:04:a9:61:cc:6b:3b:ad:76:31:5f:6f:
                    19:19:ab:f5:6b:4a:0e:31:be:fa:c9:30:18:42:fb:
                    ab:40:fb:56:09:91:88:76:15:95:c3:db:1b:ab:c2:
                    90:b2:d8:db:48:7f:50:6d:c8:3e:fc:bb:dd:03:1e:
                    97:b0:8e:43:39:63:ea:fa:30:02:ed:0e:15:4e:7b:
                    a1:4f:03:d2:94:f9:c4:aa:28:ca:70:19:a5:89:1d:
                    4a:5b:87:1f:a9:34:5f:aa:0d:ec:b3:73:54:46:f5:
                    ce:26:15:ea:5a:e1:f4:21:1c:d3:78:cd:35:5d:31:
                    ca:51:54:58:09:64:6e:e5:59:67:2a:f5:6f:bd:bb:
                    9c:42:92:49:44:6e:ac:d8:eb:dc:7e:20:94:c1:a4:
                    b4:58:d1:7c:31:60:40:2d:09:74:e4:15:ff:51:28:
                    da:b8:8b:86:66:cd:0e:71:84:dc:8b:92:f9:50:53:
                    35:03:69:b2:dc:53:17:89:9b:fa:f0:a9:cc:91:54:
                    76:b6:9b:b8:2d:85:04:53:d6:b8:38:a0:e0:ad:4f:
                    50:e1:66:86:ab:96:58:a3:40:ba:59:45:a6:82:f0:
                    c5:e3:91:b5:7e:56:65:27:c6:6a:a6:bf:d5:a9:e3:
                    5f:5b:99:57:2c:85:47:a5:9e:3c:c5:b6:ff:cf:a1:
                    87:78:18:52:40:da:95:65:30:b6:28:85:5b:fe:6b:
                    50:9b:5a:fd:b8:c0:f6:bd:41:ed:e2:2c:16:c5:f0:
                    71:7e:ab
                Exponent: 65537 (0x10001)
        X509v3 extensions:
            X509v3 Basic Constraints: 
                CA:FALSE
            Netscape Comment: 
                Easy-RSA Generated Certificate
            X509v3 Subject Key Identifier: 
                74:94:32:9D:B2:8B:9D:FF:3B:89:E7:76:6E:9B:BB:91:44:7D:B6:8F
            X509v3 Authority Key Identifier: 
                keyid:12:CD:60:04:D2:A0:80:9E:70:ED:C6:99:B8:7B:2C:C6:52:FD:19:A1
                DirName:/C=US/ST=OH/L=Columbus/O=VikingVPN/OU=MyOrganizationalUnit/CN=VikingVPN CA/name=EasyRSA/emailAddress=me@myhost.mydomain
                serial:CF:35:85:EE:80:BF:2A:3E

            X509v3 Extended Key Usage: 
                TLS Web Client Authentication
            X509v3 Key Usage: 
                Digital Signature
    Signature Algorithm: sha256WithRSAEncryption
         ea:08:6b:ae:9f:58:57:55:f5:3d:e6:f8:d6:26:45:c0:30:d4:
         55:75:b9:08:97:cb:17:65:ac:a1:26:99:ef:ed:83:4d:42:73:
         7a:dc:13:ca:41:dd:1e:c4:5d:a4:5c:f8:ec:66:5e:ff:f2:ba:
         20:bd:43:d2:3c:fd:8d:27:d0:b2:44:b4:48:8c:c6:1d:23:28:
         87:25:34:2c:99:df:56:83:10:05:1e:1d:e9:b0:9d:9a:74:92:
         5e:e3:76:e8:68:7d:4a:7b:66:d4:1e:e9:04:a4:f2:35:8e:d5:
         24:bd:af:d8:b3:e4:58:5e:d6:e7:8c:56:11:96:d7:9e:68:0a:
         b0:56:11:15:ce:6f:49:80:90:09:2f:9f:4e:19:a0:f4:c3:8e:
         0f:bb:f4:c6:f4:90:bc:f9:5b:c9:3b:08:9c:c9:46:13:f9:e0:
         32:b1:1c:02:29:97:fb:21:a6:60:65:2a:cf:0d:be:bc:b2:c9:
         95:02:41:57:01:28:1e:22:9a:30:71:5c:9a:c0:f7:1a:2b:0a:
         a1:f5:18:12:f7:db:bd:6e:d5:9b:12:c8:05:f2:51:5d:cc:8a:
         f3:fc:3d:0b:0e:ee:0e:f9:8a:34:0b:0e:ae:0c:e4:0d:98:68:
         41:d2:34:11:79:23:ef:e1:ab:8a:fe:23:e6:46:28:ba:c3:73:
         d2:99:9c:03:ea:ba:ed:05:7b:2a:51:6a:ee:f1:2e:29:3b:1f:
         22:8b:72:5c:35:b6:eb:05:af:8a:b5:91:f1:d8:a4:4d:45:a4:
         d6:b5:42:e1:35:78:69:99:2e:a6:f5:e8:2f:d3:b6:5f:47:e1:
         ff:fa:17:83:85:2c:72:b6:59:96:a3:c7:b9:2b:66:9a:21:b7:
         ff:09:0d:43:d0:39:2b:ce:c7:23:f5:5e:d9:6a:6e:03:a1:04:
         ab:91:e5:58:25:10:1a:0a:77:67:4b:8b:ac:94:89:df:78:0e:
         1d:31:41:02:74:f7:ea:00:2d:a1:fb:0f:4b:48:ed:e5:37:0f:
         f9:bf:59:73:f0:54:ad:ee:ab:b6:6f:40:43:b7:15:7a:e7:71:
         f7:32:9a:55:6d:65:c4:44:b2:33:8e:64:72:d8:26:12:ae:e4:
         d6:ec:6c:a2:5c:94:b2:88:3e:e0:0b:3a:88:a3:7b:da:0f:dc:
         76:37:07:86:5e:63:11:1c:12:c1:6a:48:f3:0f:2f:40:67:a1:
         09:30:4a:9b:5d:a0:59:d0:3e:86:9a:fe:63:dd:e7:11:1b:f9:
         78:c6:30:7a:b9:b7:10:f4:08:7b:ba:94:f8:d9:b8:55:e1:d2:
         89:3c:0f:0d:f0:69:71:ce:0a:17:1d:50:4a:2b:6e:1a:7e:61:
         fb:e5:0f:7c:b6:1a:bb:c5
-----BEGIN CERTIFICATE-----
MIIGrTCCBJWgAwIBAgICKT4wDQYJKoZIhvcNAQELBQAwgawxCzAJBgNVBAYTAlVT
MQswCQYDVQQIEwJPSDERMA8GA1UEBxMIQ29sdW1idXMxEjAQBgNVBAoTCVZpa2lu
Z1ZQTjEdMBsGA1UECxMUTXlPcmdhbml6YXRpb25hbFVuaXQxFTATBgNVBAMTDFZp
a2luZ1ZQTiBDQTEQMA4GA1UEKRMHRWFzeVJTQTEhMB8GCSqGSIb3DQEJARYSbWVA
bXlob3N0Lm15ZG9tYWluMB4XDTE3MDQwNTIyNTAwNloXDTI3MDQwMzIyNTAwNlow
HzEdMBsGA1UEAxMUQ2xpZW50MjM5MkNlcnQ3YzA3YzAwggIiMA0GCSqGSIb3DQEB
AQUAA4ICDwAwggIKAoICAQCgfY2MECFiwCjfxrMb4RVTzVYpyKVJZQggiu5T4gNS
HpeEPuenVhO95PjrpHKmE3laA+DMBpWl3E6v4w+ELBQSYBiZKZPdkUjBeAFckoXt
wQp1DyraJSWjbqRyt2nPoqgsnUf5bp/3oA/7G8uZnUF1WM4yvH2cp59TbS8Mox+k
K1/jXaGEqnCwFtEW1S/ZSGlEVNeA6ELiXtj8xw9HhiYDWxrLGeap7G0IC9ssdgJo
bl5eBlgZ0r5qYV/GDnluhHBqjxrE8CWvRJ5bD2Uxy+Js+hWPuiOYIr4w5vWMPz43
X4FNYhYEqWHMazutdjFfbxkZq/VrSg4xvvrJMBhC+6tA+1YJkYh2FZXD2xurwpCy
2NtIf1BtyD78u90DHpewjkM5Y+r6MALtDhVOe6FPA9KU+cSqKMpwGaWJHUpbhx+p
NF+qDeyzc1RG9c4mFepa4fQhHNN4zTVdMcpRVFgJZG7lWWcq9W+9u5xCkklEbqzY
69x+IJTBpLRY0XwxYEAtCXTkFf9RKNq4i4ZmzQ5xhNyLkvlQUzUDabLcUxeJm/rw
qcyRVHa2m7gthQRT1rg4oOCtT1DhZoarllijQLpZRaaC8MXjkbV+VmUnxmqmv9Wp
419bmVcshUelnjzFtv/PoYd4GFJA2pVlMLYohVv+a1CbWv24wPa9Qe3iLBbF8HF+
qwIDAQABo4IBYzCCAV8wCQYDVR0TBAIwADAtBglghkgBhvhCAQ0EIBYeRWFzeS1S
U0EgR2VuZXJhdGVkIENlcnRpZmljYXRlMB0GA1UdDgQWBBR0lDKdsoud/zuJ53Zu
m7uRRH22jzCB4QYDVR0jBIHZMIHWgBQSzWAE0qCAnnDtxpm4eyzGUv0ZoaGBsqSB
rzCBrDELMAkGA1UEBhMCVVMxCzAJBgNVBAgTAk9IMREwDwYDVQQHEwhDb2x1bWJ1
czESMBAGA1UEChMJVmlraW5nVlBOMR0wGwYDVQQLExRNeU9yZ2FuaXphdGlvbmFs
VW5pdDEVMBMGA1UEAxMMVmlraW5nVlBOIENBMRAwDgYDVQQpEwdFYXN5UlNBMSEw
HwYJKoZIhvcNAQkBFhJtZUBteWhvc3QubXlkb21haW6CCQDPNYXugL8qPjATBgNV
HSUEDDAKBggrBgEFBQcDAjALBgNVHQ8EBAMCB4AwDQYJKoZIhvcNAQELBQADggIB
AOoIa66fWFdV9T3m+NYmRcAw1FV1uQiXyxdlrKEmme/tg01Cc3rcE8pB3R7EXaRc
+OxmXv/yuiC9Q9I8/Y0n0LJEtEiMxh0jKIclNCyZ31aDEAUeHemwnZp0kl7jduho
fUp7ZtQe6QSk8jWO1SS9r9iz5Fhe1ueMVhGW155oCrBWERXOb0mAkAkvn04ZoPTD
jg+79Mb0kLz5W8k7CJzJRhP54DKxHAIpl/shpmBlKs8NvryyyZUCQVcBKB4imjBx
XJrA9xorCqH1GBL3271u1ZsSyAXyUV3MivP8PQsO7g75ijQLDq4M5A2YaEHSNBF5
I+/hq4r+I+ZGKLrDc9KZnAPquu0FeypRau7xLik7HyKLclw1tusFr4q1kfHYpE1F
pNa1QuE1eGmZLqb16C/Ttl9H4f/6F4OFLHK2WZajx7krZpoht/8JDUPQOSvOxyP1
XtlqbgOhBKuR5VglEBoKd2dLi6yUid94Dh0xQQJ09+oALaH7D0tI7eU3D/m/WXPw
VK3uq7ZvQEO3FXrncfcymlVtZcREsjOOZHLYJhKu5NbsbKJclLKIPuALOoije9oP
3HY3B4ZeYxEcEsFqSPMPL0BnoQkwSptdoFnQPoaa/mPd5xEb+XjGMHq5txD0CHu6
lPjZuFXh0ok8Dw3waXHOChcdUEorbhp+YfvlD3y2GrvF
-----END CERTIFICATE-----
