Certificate:
    Data:
        Version: 3 (0x2)
        Serial Number: 2331 (0x91b)
    Signature Algorithm: md5WithRSAEncryption
        Issuer: C=US, ST=OH, L=Columbus, O=VikingVPN, OU=MyOrganizationalUnit, CN=VikingVPN CA/name=EasyRSA/emailAddress=me@myhost.mydomain
        Validity
            Not Before: Jul 21 02:01:42 2014 GMT
            Not After : Jul 18 02:01:42 2024 GMT
        Subject: CN=Client551Cert07d5ed
        Subject Public Key Info:
            Public Key Algorithm: rsaEncryption
                Public-Key: (4096 bit)
                Modulus:
                    00:b9:9b:be:6a:66:24:23:4b:4e:eb:b8:4e:0a:70:
                    76:13:d6:95:5f:36:cb:c6:7a:c7:8e:da:e2:0c:7b:
                    1f:3b:0a:41:23:67:37:84:10:b1:58:92:f1:82:18:
                    f8:33:97:d7:36:e9:a6:65:5e:91:81:37:be:49:44:
                    71:7d:28:8f:16:22:d3:4b:8d:25:c2:78:b9:0c:cf:
                    74:da:f8:9a:a6:96:d4:b6:e7:8f:4a:dc:16:7f:c7:
                    fe:ae:6f:bc:ef:71:4a:32:39:e5:b8:2e:c8:cd:8b:
                    54:40:ab:89:1a:80:ad:16:cc:e5:10:79:52:cd:2a:
                    b1:ea:d7:a6:70:65:87:7f:86:15:28:e3:6b:e6:7d:
                    90:da:0b:21:02:54:37:1d:2a:df:33:97:41:a7:7f:
                    b3:1c:ad:31:ca:9d:19:7e:50:3f:78:59:ac:c7:ae:
                    e6:cc:f3:9d:7c:ea:a5:7e:64:56:ad:ae:59:2b:d9:
                    50:d8:78:4b:58:50:7f:3a:8d:f7:3c:36:53:02:a2:
                    91:b8:58:c4:54:ef:77:f9:fc:20:66:1c:8e:fe:05:
                    36:d6:2d:c1:2f:11:cd:a8:96:0f:da:a8:5f:67:f3:
                    08:68:65:f0:b2:35:6d:cd:2b:ac:9e:fd:99:5e:1d:
                    c2:fd:ac:c5:76:84:6d:41:33:2a:cd:53:61:2c:73:
                    a2:3b:3e:a3:d7:4e:70:b1:5f:24:fc:0e:27:55:b8:
                    9e:d1:e2:7a:fd:5e:75:7b:a9:b0:b0:7c:00:b6:f1:
                    80:54:c2:f7:6c:3e:bd:c6:c5:18:02:55:5d:7a:ce:
                    b3:5e:76:a1:9f:c1:5b:c9:64:79:e5:85:8c:11:a7:
                    45:47:ef:ce:e2:78:15:84:48:e2:78:a4:18:d0:95:
                    f3:c3:60:af:6e:cd:c1:5c:f4:aa:4b:e9:a1:3b:9f:
                    31:36:25:54:7d:b5:23:b0:71:54:48:ff:e7:e9:6d:
                    ff:a2:32:62:25:40:c6:61:8f:bb:06:3f:13:f6:c0:
                    71:2b:63:a6:00:8d:a7:00:56:f3:db:25:e8:1d:d3:
                    b0:57:9c:17:8f:2c:59:a1:0a:86:38:c6:1d:84:ce:
                    ac:c0:68:4b:b7:54:1d:6a:d7:27:a8:75:4d:ca:52:
                    09:43:40:c5:3d:50:e7:ac:58:28:76:55:ea:9d:d8:
                    b3:b2:e5:5f:a8:d0:2d:28:74:da:72:a1:cb:42:e3:
                    ad:c1:00:0f:1d:0d:d9:d3:02:e1:3f:a8:d7:1c:41:
                    58:5e:c3:4d:f4:08:97:41:45:1f:46:17:3c:6e:72:
                    5c:a3:65:30:f2:37:87:30:12:6a:77:d0:08:9d:6f:
                    17:a4:7a:a3:14:f5:24:06:fc:b2:f0:ce:00:bd:8d:
                    eb:19:ef
                Exponent: 65537 (0x10001)
        X509v3 extensions:
            X509v3 Basic Constraints: 
                CA:FALSE
            Netscape Comment: 
                Easy-RSA Generated Certificate
            X509v3 Subject Key Identifier: 
                15:CE:1E:DD:83:CD:0B:3A:9B:62:6C:C5:BF:71:D9:D5:04:01:1C:4F
            X509v3 Authority Key Identifier: 
                keyid:12:CD:60:04:D2:A0:80:9E:70:ED:C6:99:B8:7B:2C:C6:52:FD:19:A1
                DirName:/C=US/ST=OH/L=Columbus/O=VikingVPN/OU=MyOrganizationalUnit/CN=VikingVPN CA/name=EasyRSA/emailAddress=me@myhost.mydomain
                serial:CF:35:85:EE:80:BF:2A:3E

            X509v3 Extended Key Usage: 
                TLS Web Client Authentication
            X509v3 Key Usage: 
                Digital Signature
    Signature Algorithm: md5WithRSAEncryption
         72:88:30:4f:a4:7e:28:ce:cf:f7:61:19:ae:32:e8:60:73:5e:
         dc:b0:1a:ef:2a:d1:99:8e:be:77:c9:75:9e:c2:4e:94:19:60:
         34:3d:cd:7d:b8:73:c2:35:dc:e4:54:4b:a1:e8:75:24:59:f9:
         50:cb:7c:d5:d9:90:d4:99:6a:bd:3a:2f:e5:ca:71:39:3d:69:
         cb:8e:7a:79:c4:e9:e6:c6:c5:09:fb:9f:32:4e:bb:cc:33:2a:
         19:3d:ea:d8:28:9c:c3:ef:35:97:6d:ea:f4:8d:ca:b4:b7:a1:
         f6:a4:4c:f7:bb:23:e0:b2:b1:68:d6:14:e1:90:da:1a:45:af:
         75:5a:94:c6:ba:79:7d:24:7c:5c:5e:1b:35:b6:79:4c:06:b1:
         89:9b:23:e2:2b:3f:74:5d:b6:c5:4a:04:4e:83:dd:4a:1a:90:
         c4:2f:b8:ca:68:eb:a7:b6:aa:1b:32:ce:99:d1:bd:d8:5a:ad:
         b5:e5:ac:91:ee:6d:48:a8:a6:aa:a9:e3:a1:36:07:42:fa:63:
         98:c0:10:c7:f2:65:32:15:0d:ea:27:0f:fb:b8:06:f1:a0:cb:
         a3:a8:11:a0:5e:52:34:1d:36:8c:4c:b4:20:5e:dc:3b:db:a9:
         a1:f4:69:ea:04:15:0c:52:1e:42:b1:e0:1d:2b:85:58:25:33:
         e6:5d:be:e2:4a:6d:d9:62:16:2b:88:b1:40:56:9b:a7:64:b3:
         54:f1:f4:ff:1b:59:d7:8a:29:18:bb:8f:1c:9e:ec:fb:db:c9:
         22:c6:fa:e6:b4:fd:5e:a3:78:2c:a9:65:af:fe:25:fa:7c:46:
         6d:37:bb:30:7f:de:2b:46:25:a1:aa:a6:f6:bc:b2:c2:55:3a:
         93:71:d2:ba:74:d3:af:8e:1c:e1:40:84:17:a2:24:4d:5b:1f:
         c4:56:f2:6b:37:8f:2d:0e:fc:ee:9a:e9:c9:19:1c:24:e9:9c:
         25:a3:a0:fa:aa:20:15:b2:6d:8a:a2:90:bb:b0:71:ce:58:c9:
         13:c0:6c:a5:42:e3:2f:81:f2:c1:64:22:87:ea:7a:c9:f6:80:
         d0:df:05:49:df:a7:d0:41:4d:06:d2:c4:21:51:ae:39:18:c9:
         51:31:0a:0e:22:f0:a6:86:c7:35:42:4a:30:11:4d:8d:49:e0:
         7e:3b:77:2f:c5:2f:5c:f6:3b:dc:83:09:b3:54:65:96:33:45:
         7e:d7:4a:32:5b:08:fc:42:2e:9b:81:68:87:ec:50:b0:24:9d:
         ba:61:6e:a0:06:a5:d1:05:76:1d:59:52:39:33:99:b2:43:13:
         33:1a:85:73:1f:ba:cd:bb:16:03:1a:db:e8:3a:13:d6:1a:1c:
         0c:7a:d0:9e:20:0a:1e:24
-----BEGIN CERTIFICATE-----
MIIGrDCCBJSgAwIBAgICCRswDQYJKoZIhvcNAQEEBQAwgawxCzAJBgNVBAYTAlVT
MQswCQYDVQQIEwJPSDERMA8GA1UEBxMIQ29sdW1idXMxEjAQBgNVBAoTCVZpa2lu
Z1ZQTjEdMBsGA1UECxMUTXlPcmdhbml6YXRpb25hbFVuaXQxFTATBgNVBAMTDFZp
a2luZ1ZQTiBDQTEQMA4GA1UEKRMHRWFzeVJTQTEhMB8GCSqGSIb3DQEJARYSbWVA
bXlob3N0Lm15ZG9tYWluMB4XDTE0MDcyMTAyMDE0MloXDTI0MDcxODAyMDE0Mlow
HjEcMBoGA1UEAxMTQ2xpZW50NTUxQ2VydDA3ZDVlZDCCAiIwDQYJKoZIhvcNAQEB
BQADggIPADCCAgoCggIBALmbvmpmJCNLTuu4TgpwdhPWlV82y8Z6x47a4gx7HzsK
QSNnN4QQsViS8YIY+DOX1zbppmVekYE3vklEcX0ojxYi00uNJcJ4uQzPdNr4mqaW
1Lbnj0rcFn/H/q5vvO9xSjI55bguyM2LVECriRqArRbM5RB5Us0qserXpnBlh3+G
FSjja+Z9kNoLIQJUNx0q3zOXQad/sxytMcqdGX5QP3hZrMeu5szznXzqpX5kVq2u
WSvZUNh4S1hQfzqN9zw2UwKikbhYxFTvd/n8IGYcjv4FNtYtwS8RzaiWD9qoX2fz
CGhl8LI1bc0rrJ79mV4dwv2sxXaEbUEzKs1TYSxzojs+o9dOcLFfJPwOJ1W4ntHi
ev1edXupsLB8ALbxgFTC92w+vcbFGAJVXXrOs152oZ/BW8lkeeWFjBGnRUfvzuJ4
FYRI4nikGNCV88Ngr27NwVz0qkvpoTufMTYlVH21I7BxVEj/5+lt/6IyYiVAxmGP
uwY/E/bAcStjpgCNpwBW89sl6B3TsFecF48sWaEKhjjGHYTOrMBoS7dUHWrXJ6h1
TcpSCUNAxT1Q56xYKHZV6p3Ys7LlX6jQLSh02nKhy0LjrcEADx0N2dMC4T+o1xxB
WF7DTfQIl0FFH0YXPG5yXKNlMPI3hzASanfQCJ1vF6R6oxT1JAb8svDOAL2N6xnv
AgMBAAGjggFjMIIBXzAJBgNVHRMEAjAAMC0GCWCGSAGG+EIBDQQgFh5FYXN5LVJT
QSBHZW5lcmF0ZWQgQ2VydGlmaWNhdGUwHQYDVR0OBBYEFBXOHt2DzQs6m2Jsxb9x
2dUEARxPMIHhBgNVHSMEgdkwgdaAFBLNYATSoICecO3Gmbh7LMZS/RmhoYGypIGv
MIGsMQswCQYDVQQGEwJVUzELMAkGA1UECBMCT0gxETAPBgNVBAcTCENvbHVtYnVz
MRIwEAYDVQQKEwlWaWtpbmdWUE4xHTAbBgNVBAsTFE15T3JnYW5pemF0aW9uYWxV
bml0MRUwEwYDVQQDEwxWaWtpbmdWUE4gQ0ExEDAOBgNVBCkTB0Vhc3lSU0ExITAf
BgkqhkiG9w0BCQEWEm1lQG15aG9zdC5teWRvbWFpboIJAM81he6Avyo+MBMGA1Ud
JQQMMAoGCCsGAQUFBwMCMAsGA1UdDwQEAwIHgDANBgkqhkiG9w0BAQQFAAOCAgEA
cogwT6R+KM7P92EZrjLoYHNe3LAa7yrRmY6+d8l1nsJOlBlgND3NfbhzwjXc5FRL
oeh1JFn5UMt81dmQ1JlqvTov5cpxOT1py456ecTp5sbFCfufMk67zDMqGT3q2Cic
w+81l23q9I3KtLeh9qRM97sj4LKxaNYU4ZDaGkWvdVqUxrp5fSR8XF4bNbZ5TAax
iZsj4is/dF22xUoEToPdShqQxC+4ymjrp7aqGzLOmdG92FqtteWske5tSKimqqnj
oTYHQvpjmMAQx/JlMhUN6icP+7gG8aDLo6gRoF5SNB02jEy0IF7cO9upofRp6gQV
DFIeQrHgHSuFWCUz5l2+4kpt2WIWK4ixQFabp2SzVPH0/xtZ14opGLuPHJ7s+9vJ
Isb65rT9XqN4LKllr/4l+nxGbTe7MH/eK0Yloaqm9ryywlU6k3HSunTTr44c4UCE
F6IkTVsfxFbyazePLQ787prpyRkcJOmcJaOg+qogFbJtiqKQu7BxzljJE8BspULj
L4HywWQih+p6yfaA0N8FSd+n0EFNBtLEIVGuORjJUTEKDiLwpobHNUJKMBFNjUng
fjt3L8UvXPY73IMJs1RlljNFftdKMlsI/EIum4Foh+xQsCSdumFuoAal0QV2HVlS
OTOZskMTMxqFcx+6zbsWAxrb6DoT1hocDHrQniAKHiQ=
-----END CERTIFICATE-----
