Certificate:
    Data:
        Version: 3 (0x2)
        Serial Number: 7328 (0x1ca0)
    Signature Algorithm: md5WithRSAEncryption
        Issuer: C=US, ST=OH, L=Columbus, O=VikingVPN, OU=MyOrganizationalUnit, CN=VikingVPN CA/name=EasyRSA/emailAddress=me@myhost.mydomain
        Validity
            Not Before: Feb 27 19:57:10 2016 GMT
            Not After : Feb 24 19:57:10 2026 GMT
        Subject: CN=Client802Cert2c6552
        Subject Public Key Info:
            Public Key Algorithm: rsaEncryption
                Public-Key: (4096 bit)
                Modulus:
                    00:e6:7e:55:aa:a5:cc:e8:ec:25:e9:90:65:c9:1e:
                    18:6d:bd:0a:87:c8:55:59:62:ed:da:31:23:a3:46:
                    7c:03:71:fd:5f:d5:6c:8c:39:04:08:8d:6d:8c:6c:
                    0b:0f:99:b3:66:2b:a3:a9:0e:6b:fa:d4:87:0c:6a:
                    59:34:48:a3:a8:06:73:b0:9a:0a:82:a1:df:f0:5b:
                    0f:32:01:84:b4:1c:55:4e:1c:75:40:17:c5:f1:d4:
                    2d:0f:2f:cb:ab:c6:e6:2d:50:f0:e7:f1:73:eb:39:
                    3a:58:5b:86:a2:2c:3d:65:5a:fb:51:94:33:6f:2e:
                    a7:42:f6:9b:1f:a4:03:77:2b:14:1c:bb:19:fa:17:
                    67:85:41:5c:e7:e1:25:80:44:7f:9b:7f:6b:cd:12:
                    00:31:95:30:bc:5f:47:31:0f:76:07:68:33:de:9b:
                    4c:1b:61:ad:eb:f1:5b:ae:bc:e7:d0:e9:c0:46:ca:
                    41:d7:91:d5:8b:e0:a3:9d:11:d8:12:f4:36:c0:7e:
                    67:46:a6:4b:3e:7f:49:18:ba:99:18:72:26:f9:5a:
                    25:cd:c8:0d:bb:21:84:ff:e0:bc:c6:c1:91:70:5b:
                    0f:c6:29:08:4d:3f:85:71:cc:05:31:ac:0a:5c:10:
                    90:a7:a7:44:a7:fc:2f:f2:38:6d:a7:7e:7a:9a:23:
                    eb:c5:4f:8f:b2:14:6f:1f:d9:ae:da:53:a8:09:d7:
                    e0:04:ec:70:67:87:d6:85:89:90:f8:bd:e9:83:a7:
                    da:2f:3d:21:f1:86:2c:b5:4c:d9:4c:d2:43:9f:2a:
                    5b:5d:3c:db:68:c4:5f:8e:29:89:c7:00:7f:12:95:
                    59:45:35:d9:f7:60:15:9e:43:57:57:64:d0:61:77:
                    d0:0c:e8:bf:78:ff:1c:54:42:70:a7:d0:97:45:3d:
                    da:64:f8:0f:63:8a:1f:c1:4e:54:6f:8f:fd:b3:4a:
                    97:fd:54:36:ae:78:d0:d8:9b:9c:0b:94:a5:29:3d:
                    ee:f4:8e:bc:3f:78:4d:82:ca:cf:38:56:a9:1f:c6:
                    24:6d:cb:46:a9:f3:97:c2:13:84:56:be:2e:0b:7f:
                    d6:06:fb:0c:e1:42:c0:75:7e:71:c7:53:bd:77:55:
                    90:a4:90:54:6e:95:5c:22:5a:ab:64:7f:40:41:18:
                    1f:a5:b2:0c:22:b7:fd:7f:56:bc:f5:72:ab:2a:8c:
                    d2:9d:99:9c:40:5f:6f:16:89:30:39:98:7d:78:3f:
                    9a:dc:9f:92:ec:ef:23:79:6e:cc:a8:77:cb:3b:a0:
                    3b:75:ec:55:72:55:05:6c:fc:9f:d7:79:ad:70:56:
                    70:21:d7:68:a5:67:70:5f:eb:9d:32:db:d2:70:ff:
                    45:cb:a1
                Exponent: 65537 (0x10001)
        X509v3 extensions:
            X509v3 Basic Constraints: 
                CA:FALSE
            Netscape Comment: 
                Easy-RSA Generated Certificate
            X509v3 Subject Key Identifier: 
                6A:F8:B6:69:63:47:EA:77:CB:A9:23:83:7A:0E:0F:4C:D7:EC:1C:12
            X509v3 Authority Key Identifier: 
                keyid:12:CD:60:04:D2:A0:80:9E:70:ED:C6:99:B8:7B:2C:C6:52:FD:19:A1
                DirName:/C=US/ST=OH/L=Columbus/O=VikingVPN/OU=MyOrganizationalUnit/CN=VikingVPN CA/name=EasyRSA/emailAddress=me@myhost.mydomain
                serial:CF:35:85:EE:80:BF:2A:3E

            X509v3 Extended Key Usage: 
                TLS Web Client Authentication
            X509v3 Key Usage: 
                Digital Signature
    Signature Algorithm: md5WithRSAEncryption
         e2:f5:a2:d7:4a:57:40:82:6b:7c:2e:16:0b:29:92:73:1e:b4:
         d9:6f:7b:80:01:bb:57:01:46:6c:21:50:56:03:b6:a9:ee:cc:
         47:84:b3:87:72:9d:5b:4f:8c:a4:bd:91:46:de:2b:cb:e5:8e:
         ac:de:76:56:64:37:3e:37:a1:cf:1f:1a:ca:28:f2:ec:29:17:
         49:f7:ad:e9:17:1f:3f:d3:a5:4b:31:dd:27:58:4f:04:e0:cb:
         56:8b:f2:9e:e5:85:60:ea:0f:59:86:ee:12:3a:c2:f9:b8:8e:
         6d:d4:bd:19:c2:e1:1c:d9:fb:b9:d3:f1:8e:33:c3:a4:fe:52:
         a8:a8:4e:04:b9:25:fa:af:c8:73:e6:fa:1b:41:c7:ed:8a:3c:
         a9:e5:fd:f7:71:d7:ad:05:1c:d1:33:e7:68:5c:e8:1c:d1:08:
         70:99:4c:84:c9:fe:96:28:76:06:ea:71:ca:25:d3:a8:b3:2e:
         b9:be:20:43:55:7a:1b:b0:36:6a:a4:1c:cf:a9:9b:b9:3f:96:
         38:c3:a8:2f:6e:e5:8b:f2:eb:62:75:b0:a2:f4:b7:76:4c:c1:
         b1:be:7e:81:1f:23:6d:1b:1c:f0:68:b4:e8:aa:d9:e0:d1:68:
         fe:bf:2b:4c:a2:a9:f7:55:f0:d0:4b:32:38:15:39:fe:b8:a5:
         7f:14:cd:45:21:34:3d:a8:d1:79:d6:bc:6f:ee:d2:ce:5f:e4:
         e8:61:6a:40:72:79:f6:dd:2b:40:ac:7c:ea:c3:a7:11:3d:72:
         d5:7d:26:39:1b:9d:e9:ed:13:02:c8:18:b0:a3:b4:13:22:1e:
         fe:ef:ed:ba:4a:ef:35:dd:1c:d1:f0:18:62:11:9b:9a:b6:ff:
         f1:7e:05:9f:a9:8c:23:7a:0a:6b:39:63:9b:80:9f:9c:d4:67:
         fa:91:5f:44:bd:83:77:d0:33:e2:3d:25:30:1f:c8:59:dd:f1:
         81:0c:62:3e:4d:ef:55:52:a5:25:52:b3:33:f9:49:f2:c9:a2:
         f2:4c:32:2c:79:87:28:fb:57:2b:f9:ff:47:3e:9b:a1:db:77:
         58:0d:8e:b7:a8:8b:46:9f:54:be:07:ce:6d:b7:a0:01:0a:ff:
         ec:c1:2e:ec:ef:19:ae:3d:ab:76:86:00:e5:f8:6b:13:57:b4:
         cb:7e:3e:4e:57:9d:f7:ab:47:d8:8c:02:ed:c4:e8:6e:97:1b:
         ea:27:fc:c2:01:ad:21:54:6a:b1:4c:0a:b0:4c:3e:d3:ca:6a:
         5c:77:7c:ee:9a:e8:cb:b4:7c:6b:5a:b1:58:4b:1b:22:73:a8:
         9c:c4:fd:02:70:a3:e8:d7:2e:b1:70:1c:07:c3:21:e8:2f:76:
         b5:86:8d:47:68:a2:4c:2a
-----BEGIN CERTIFICATE-----
MIIGrDCCBJSgAwIBAgICHKAwDQYJKoZIhvcNAQEEBQAwgawxCzAJBgNVBAYTAlVT
MQswCQYDVQQIEwJPSDERMA8GA1UEBxMIQ29sdW1idXMxEjAQBgNVBAoTCVZpa2lu
Z1ZQTjEdMBsGA1UECxMUTXlPcmdhbml6YXRpb25hbFVuaXQxFTATBgNVBAMTDFZp
a2luZ1ZQTiBDQTEQMA4GA1UEKRMHRWFzeVJTQTEhMB8GCSqGSIb3DQEJARYSbWVA
bXlob3N0Lm15ZG9tYWluMB4XDTE2MDIyNzE5NTcxMFoXDTI2MDIyNDE5NTcxMFow
HjEcMBoGA1UEAxMTQ2xpZW50ODAyQ2VydDJjNjU1MjCCAiIwDQYJKoZIhvcNAQEB
BQADggIPADCCAgoCggIBAOZ+VaqlzOjsJemQZckeGG29CofIVVli7doxI6NGfANx
/V/VbIw5BAiNbYxsCw+Zs2Yro6kOa/rUhwxqWTRIo6gGc7CaCoKh3/BbDzIBhLQc
VU4cdUAXxfHULQ8vy6vG5i1Q8Ofxc+s5OlhbhqIsPWVa+1GUM28up0L2mx+kA3cr
FBy7GfoXZ4VBXOfhJYBEf5t/a80SADGVMLxfRzEPdgdoM96bTBthrevxW66859Dp
wEbKQdeR1Yvgo50R2BL0NsB+Z0amSz5/SRi6mRhyJvlaJc3IDbshhP/gvMbBkXBb
D8YpCE0/hXHMBTGsClwQkKenRKf8L/I4bad+epoj68VPj7IUbx/ZrtpTqAnX4ATs
cGeH1oWJkPi96YOn2i89IfGGLLVM2UzSQ58qW10822jEX44piccAfxKVWUU12fdg
FZ5DV1dk0GF30Azov3j/HFRCcKfQl0U92mT4D2OKH8FOVG+P/bNKl/1UNq540Nib
nAuUpSk97vSOvD94TYLKzzhWqR/GJG3LRqnzl8IThFa+Lgt/1gb7DOFCwHV+ccdT
vXdVkKSQVG6VXCJaq2R/QEEYH6WyDCK3/X9WvPVyqyqM0p2ZnEBfbxaJMDmYfXg/
mtyfkuzvI3luzKh3yzugO3XsVXJVBWz8n9d5rXBWcCHXaKVncF/rnTLb0nD/Rcuh
AgMBAAGjggFjMIIBXzAJBgNVHRMEAjAAMC0GCWCGSAGG+EIBDQQgFh5FYXN5LVJT
QSBHZW5lcmF0ZWQgQ2VydGlmaWNhdGUwHQYDVR0OBBYEFGr4tmljR+p3y6kjg3oO
D0zX7BwSMIHhBgNVHSMEgdkwgdaAFBLNYATSoICecO3Gmbh7LMZS/RmhoYGypIGv
MIGsMQswCQYDVQQGEwJVUzELMAkGA1UECBMCT0gxETAPBgNVBAcTCENvbHVtYnVz
MRIwEAYDVQQKEwlWaWtpbmdWUE4xHTAbBgNVBAsTFE15T3JnYW5pemF0aW9uYWxV
bml0MRUwEwYDVQQDEwxWaWtpbmdWUE4gQ0ExEDAOBgNVBCkTB0Vhc3lSU0ExITAf
BgkqhkiG9w0BCQEWEm1lQG15aG9zdC5teWRvbWFpboIJAM81he6Avyo+MBMGA1Ud
JQQMMAoGCCsGAQUFBwMCMAsGA1UdDwQEAwIHgDANBgkqhkiG9w0BAQQFAAOCAgEA
4vWi10pXQIJrfC4WCymScx602W97gAG7VwFGbCFQVgO2qe7MR4Szh3KdW0+MpL2R
Rt4ry+WOrN52VmQ3Pjehzx8ayijy7CkXSfet6RcfP9OlSzHdJ1hPBODLVovynuWF
YOoPWYbuEjrC+biObdS9GcLhHNn7udPxjjPDpP5SqKhOBLkl+q/Ic+b6G0HH7Yo8
qeX993HXrQUc0TPnaFzoHNEIcJlMhMn+lih2BupxyiXTqLMuub4gQ1V6G7A2aqQc
z6mbuT+WOMOoL27li/LrYnWwovS3dkzBsb5+gR8jbRsc8Gi06KrZ4NFo/r8rTKKp
91Xw0EsyOBU5/rilfxTNRSE0PajReda8b+7Szl/k6GFqQHJ59t0rQKx86sOnET1y
1X0mORud6e0TAsgYsKO0EyIe/u/tukrvNd0c0fAYYhGbmrb/8X4Fn6mMI3oKazlj
m4CfnNRn+pFfRL2Dd9Az4j0lMB/IWd3xgQxiPk3vVVKlJVKzM/lJ8smi8kwyLHmH
KPtXK/n/Rz6bodt3WA2Ot6iLRp9UvgfObbegAQr/7MEu7O8Zrj2rdoYA5fhrE1e0
y34+Tled96tH2IwC7cTobpcb6if8wgGtIVRqsUwKsEw+08pqXHd87proy7R8a1qx
WEsbInOonMT9AnCj6NcusXAcB8Mh6C92tYaNR2iiTCo=
-----END CERTIFICATE-----
