Certificate:
    Data:
        Version: 3 (0x2)
        Serial Number: 8237 (0x202d)
    Signature Algorithm: md5WithRSAEncryption
        Issuer: C=US, ST=OH, L=Columbus, O=VikingVPN, OU=MyOrganizationalUnit, CN=VikingVPN CA/name=EasyRSA/emailAddress=me@myhost.mydomain
        Validity
            Not Before: Jun 10 19:43:00 2016 GMT
            Not After : Jun  8 19:43:00 2026 GMT
        Subject: CN=Client2389Certedc875
        Subject Public Key Info:
            Public Key Algorithm: rsaEncryption
                Public-Key: (4096 bit)
                Modulus:
                    00:cd:d2:a6:b9:cc:7c:0a:ad:46:8d:13:c4:a5:53:
                    a8:c3:5e:03:31:ae:48:eb:71:c4:96:60:b8:3c:8a:
                    94:e6:f9:e6:6e:85:9c:98:f9:cf:96:0d:76:3e:21:
                    40:09:88:1f:2b:0e:40:7e:6d:16:a4:e7:f4:ff:d7:
                    8f:ee:9c:33:3f:00:20:89:fa:4b:ca:5c:d0:71:ee:
                    44:6e:e6:4b:47:5e:44:c0:c7:52:e4:00:71:36:7f:
                    4b:9e:b3:a4:70:08:04:64:e5:03:d4:66:7e:f9:ac:
                    57:52:95:d1:1e:1d:69:02:e0:de:24:4f:09:33:b0:
                    35:19:69:f7:d4:25:81:c4:18:7f:85:ec:45:9b:14:
                    34:b6:d9:0f:4b:86:29:0c:bd:e6:53:f2:d3:b5:da:
                    3f:da:ed:75:02:c3:88:50:24:dd:3a:3b:50:e3:bc:
                    a9:06:2d:9a:2f:1a:a4:6b:9d:06:9c:27:63:9b:ee:
                    43:02:df:73:f3:b3:47:93:a4:93:66:9e:7e:d2:f8:
                    0f:73:32:62:23:3f:16:88:c1:16:8a:27:65:b5:4a:
                    55:27:bf:ec:d9:ff:cd:71:18:99:c9:5e:6d:d6:86:
                    22:ac:90:47:b2:fa:b3:d6:c5:64:0c:f0:1c:bf:c3:
                    c7:d2:d4:f8:47:26:82:46:2d:20:c0:c7:8a:93:71:
                    d2:2d:7a:8a:19:aa:44:17:78:bd:ed:6a:bb:b7:be:
                    39:27:63:bb:df:2c:a6:4d:35:b2:33:3b:35:55:a6:
                    39:c8:a1:2d:d1:64:e5:17:a4:f9:59:43:87:3d:8d:
                    5b:e4:12:ad:88:ae:f8:54:5b:92:6f:22:3f:19:fc:
                    a7:a4:87:dc:8c:d7:c1:65:ec:ee:47:9f:6c:d2:74:
                    78:e4:56:23:4e:b9:a2:87:b9:9e:eb:2c:78:cb:69:
                    81:5c:27:35:5f:3d:64:83:36:c2:af:6b:0d:b3:2d:
                    4d:24:52:24:59:ce:b0:ca:bd:c6:af:86:6a:7a:84:
                    2c:0f:96:d8:82:7f:d0:7a:ea:e2:a3:74:7a:29:24:
                    ea:37:12:37:51:76:5a:bc:c3:c2:5d:90:b7:2c:b2:
                    80:88:7b:04:d3:45:b0:af:ab:b0:ab:c4:ee:af:1e:
                    d7:59:55:7b:ec:80:52:b8:12:91:02:2a:e4:a7:c6:
                    1c:d9:f8:fa:96:ba:18:f6:2f:62:f2:f0:3b:25:65:
                    0a:92:8c:24:26:96:96:33:bc:3b:62:93:1c:a0:9f:
                    61:5b:ae:0f:0d:6d:44:81:3d:5a:34:c2:30:09:0d:
                    5d:86:04:7a:f1:f1:53:15:31:c1:c7:3a:a7:09:cf:
                    04:20:b6:b5:24:37:84:60:7d:e6:0d:f7:c9:b8:fc:
                    bd:68:05
                Exponent: 65537 (0x10001)
        X509v3 extensions:
            X509v3 Basic Constraints: 
                CA:FALSE
            Netscape Comment: 
                Easy-RSA Generated Certificate
            X509v3 Subject Key Identifier: 
                1D:65:D8:B9:AE:7D:DB:F2:2C:2E:91:B4:4F:97:3B:4E:A6:DF:BE:D7
            X509v3 Authority Key Identifier: 
                keyid:12:CD:60:04:D2:A0:80:9E:70:ED:C6:99:B8:7B:2C:C6:52:FD:19:A1
                DirName:/C=US/ST=OH/L=Columbus/O=VikingVPN/OU=MyOrganizationalUnit/CN=VikingVPN CA/name=EasyRSA/emailAddress=me@myhost.mydomain
                serial:CF:35:85:EE:80:BF:2A:3E

            X509v3 Extended Key Usage: 
                TLS Web Client Authentication
            X509v3 Key Usage: 
                Digital Signature
    Signature Algorithm: md5WithRSAEncryption
         dc:d4:f1:27:7c:1f:fd:23:ce:5a:1c:97:51:e1:9f:bb:70:ac:
         59:7c:52:d8:56:76:b3:ff:8b:a3:bb:8b:9c:28:48:b9:01:df:
         2a:0d:a1:4a:63:45:9c:20:2f:50:70:6e:3d:eb:cf:9f:73:dd:
         d9:91:fb:05:57:a0:d9:69:69:64:cb:5a:65:9a:a9:98:16:b5:
         3e:81:af:60:01:1f:39:5d:aa:12:d5:e4:53:8d:8e:43:8f:07:
         2f:9c:32:d4:2b:57:cc:0f:1e:75:29:ec:f6:60:70:cb:d1:37:
         cb:78:f8:99:68:ab:dc:d0:c9:23:bd:6a:df:21:8e:ef:68:a2:
         08:ba:8b:fb:17:1c:00:5d:c7:f3:47:a3:d1:d8:48:b7:7d:d7:
         4c:ee:48:bd:51:e3:3b:6f:02:36:c2:71:fa:2a:b9:c1:2c:f8:
         68:c4:9b:c9:8a:ae:b5:a0:b0:fe:2a:70:6f:49:ab:2d:cb:3e:
         cd:31:b0:d4:00:68:8e:0c:35:cc:e4:b9:32:1c:0c:83:f9:f2:
         e5:48:42:57:5e:bf:5a:6b:3e:db:37:83:4f:19:1d:7b:33:f3:
         55:14:ba:17:8c:b1:fd:d6:ba:46:97:df:d2:96:19:1b:27:d3:
         fb:f9:1a:f4:39:97:be:e1:9c:90:d0:8e:25:96:b3:85:ac:cd:
         28:d8:5e:38:a8:1c:76:0b:cd:0f:f1:a3:03:00:28:9f:99:42:
         c5:f2:ad:67:86:c7:a9:72:eb:73:64:e4:88:26:2e:c8:5e:0b:
         05:50:07:33:94:85:6d:de:87:7b:73:94:97:5b:46:75:c1:b0:
         f8:45:d6:61:7c:56:fd:87:c6:30:de:c1:61:f6:db:73:64:7d:
         7c:e9:74:32:78:54:02:15:34:bc:1c:07:8b:6e:58:29:65:64:
         b0:95:76:66:4a:fd:32:1f:95:53:c0:69:1a:7f:02:d6:30:3f:
         4a:64:78:c8:2a:59:1f:d8:db:86:c9:22:04:66:19:b4:03:cd:
         ca:90:ef:e8:6e:ba:29:48:c7:75:52:57:7c:01:1b:f6:12:dc:
         61:0b:59:a1:0f:a7:53:7f:6f:a7:db:ea:88:27:58:de:c7:56:
         7e:ef:16:c0:f8:05:b8:aa:59:fb:47:5a:78:65:c2:c7:ef:da:
         85:0c:62:4f:7f:c4:5c:cb:e2:bd:fc:a1:b8:0a:4b:cb:80:ce:
         de:54:4f:00:12:25:0d:73:89:be:65:80:d8:83:4e:7a:75:3b:
         d5:24:01:a3:aa:2c:ae:5f:56:67:c6:8c:f2:c1:e0:20:65:49:
         22:14:97:f9:57:9b:c6:41:0e:e3:83:fe:68:1e:9c:c6:5a:d1:
         c8:f9:e2:1e:c7:63:a8:78
-----BEGIN CERTIFICATE-----
MIIGrTCCBJWgAwIBAgICIC0wDQYJKoZIhvcNAQEEBQAwgawxCzAJBgNVBAYTAlVT
MQswCQYDVQQIEwJPSDERMA8GA1UEBxMIQ29sdW1idXMxEjAQBgNVBAoTCVZpa2lu
Z1ZQTjEdMBsGA1UECxMUTXlPcmdhbml6YXRpb25hbFVuaXQxFTATBgNVBAMTDFZp
a2luZ1ZQTiBDQTEQMA4GA1UEKRMHRWFzeVJTQTEhMB8GCSqGSIb3DQEJARYSbWVA
bXlob3N0Lm15ZG9tYWluMB4XDTE2MDYxMDE5NDMwMFoXDTI2MDYwODE5NDMwMFow
HzEdMBsGA1UEAxMUQ2xpZW50MjM4OUNlcnRlZGM4NzUwggIiMA0GCSqGSIb3DQEB
AQUAA4ICDwAwggIKAoICAQDN0qa5zHwKrUaNE8SlU6jDXgMxrkjrccSWYLg8ipTm
+eZuhZyY+c+WDXY+IUAJiB8rDkB+bRak5/T/14/unDM/ACCJ+kvKXNBx7kRu5ktH
XkTAx1LkAHE2f0ues6RwCARk5QPUZn75rFdSldEeHWkC4N4kTwkzsDUZaffUJYHE
GH+F7EWbFDS22Q9LhikMveZT8tO12j/a7XUCw4hQJN06O1DjvKkGLZovGqRrnQac
J2Ob7kMC33Pzs0eTpJNmnn7S+A9zMmIjPxaIwRaKJ2W1SlUnv+zZ/81xGJnJXm3W
hiKskEey+rPWxWQM8By/w8fS1PhHJoJGLSDAx4qTcdIteooZqkQXeL3taru3vjkn
Y7vfLKZNNbIzOzVVpjnIoS3RZOUXpPlZQ4c9jVvkEq2IrvhUW5JvIj8Z/Kekh9yM
18Fl7O5Hn2zSdHjkViNOuaKHuZ7rLHjLaYFcJzVfPWSDNsKvaw2zLU0kUiRZzrDK
vcavhmp6hCwPltiCf9B66uKjdHopJOo3EjdRdlq8w8JdkLcssoCIewTTRbCvq7Cr
xO6vHtdZVXvsgFK4EpECKuSnxhzZ+PqWuhj2L2Ly8DslZQqSjCQmlpYzvDtikxyg
n2Fbrg8NbUSBPVo0wjAJDV2GBHrx8VMVMcHHOqcJzwQgtrUkN4RgfeYN98m4/L1o
BQIDAQABo4IBYzCCAV8wCQYDVR0TBAIwADAtBglghkgBhvhCAQ0EIBYeRWFzeS1S
U0EgR2VuZXJhdGVkIENlcnRpZmljYXRlMB0GA1UdDgQWBBQdZdi5rn3b8iwukbRP
lztOpt++1zCB4QYDVR0jBIHZMIHWgBQSzWAE0qCAnnDtxpm4eyzGUv0ZoaGBsqSB
rzCBrDELMAkGA1UEBhMCVVMxCzAJBgNVBAgTAk9IMREwDwYDVQQHEwhDb2x1bWJ1
czESMBAGA1UEChMJVmlraW5nVlBOMR0wGwYDVQQLExRNeU9yZ2FuaXphdGlvbmFs
VW5pdDEVMBMGA1UEAxMMVmlraW5nVlBOIENBMRAwDgYDVQQpEwdFYXN5UlNBMSEw
HwYJKoZIhvcNAQkBFhJtZUBteWhvc3QubXlkb21haW6CCQDPNYXugL8qPjATBgNV
HSUEDDAKBggrBgEFBQcDAjALBgNVHQ8EBAMCB4AwDQYJKoZIhvcNAQEEBQADggIB
ANzU8Sd8H/0jzlocl1Hhn7twrFl8UthWdrP/i6O7i5woSLkB3yoNoUpjRZwgL1Bw
bj3rz59z3dmR+wVXoNlpaWTLWmWaqZgWtT6Br2ABHzldqhLV5FONjkOPBy+cMtQr
V8wPHnUp7PZgcMvRN8t4+Jloq9zQySO9at8hju9oogi6i/sXHABdx/NHo9HYSLd9
10zuSL1R4ztvAjbCcfoqucEs+GjEm8mKrrWgsP4qcG9Jqy3LPs0xsNQAaI4MNczk
uTIcDIP58uVIQldev1prPts3g08ZHXsz81UUuheMsf3WukaX39KWGRsn0/v5GvQ5
l77hnJDQjiWWs4WszSjYXjioHHYLzQ/xowMAKJ+ZQsXyrWeGx6ly63Nk5IgmLshe
CwVQBzOUhW3eh3tzlJdbRnXBsPhF1mF8Vv2HxjDewWH223NkfXzpdDJ4VAIVNLwc
B4tuWCllZLCVdmZK/TIflVPAaRp/AtYwP0pkeMgqWR/Y24bJIgRmGbQDzcqQ7+hu
uilIx3VSV3wBG/YS3GELWaEPp1N/b6fb6ognWN7HVn7vFsD4BbiqWftHWnhlwsfv
2oUMYk9/xFzL4r38obgKS8uAzt5UTwASJQ1zib5lgNiDTnp1O9UkAaOqLK5fVmfG
jPLB4CBlSSIUl/lXm8ZBDuOD/mgenMZa0cj54h7HY6h4
-----END CERTIFICATE-----
