Certificate:
    Data:
        Version: 3 (0x2)
        Serial Number: 3677 (0xe5d)
    Signature Algorithm: md5WithRSAEncryption
        Issuer: C=US, ST=OH, L=Columbus, O=VikingVPN, OU=MyOrganizationalUnit, CN=VikingVPN CA/name=EasyRSA/emailAddress=me@myhost.mydomain
        Validity
            Not Before: Dec 15 10:51:18 2014 GMT
            Not After : Dec 12 10:51:18 2024 GMT
        Subject: CN=Client1269Certce0391
        Subject Public Key Info:
            Public Key Algorithm: rsaEncryption
                Public-Key: (4096 bit)
                Modulus:
                    00:df:7c:de:52:86:07:03:bc:31:a1:41:0c:99:6e:
                    43:95:90:ba:0f:23:33:59:84:59:11:3a:bb:99:63:
                    9f:89:38:ee:09:53:b5:84:c9:b5:b8:f7:12:54:fc:
                    fb:c9:8f:62:00:57:f3:5f:fa:18:61:1e:00:ab:ab:
                    70:5f:15:14:9b:24:92:f2:a6:04:b7:fd:62:7e:48:
                    46:0e:3a:37:d7:a9:d4:23:d5:0f:8f:91:a8:54:8c:
                    3b:01:d9:3b:d7:ba:69:32:10:8e:d3:14:aa:50:32:
                    39:07:65:08:51:19:0e:42:83:4a:d2:42:60:70:fb:
                    a0:40:72:8f:f1:47:5f:5b:e7:9f:b3:87:b8:ec:54:
                    de:26:d7:e0:e8:57:b3:86:82:ea:64:fd:6f:d0:15:
                    c7:a7:fe:f9:07:e3:50:e3:6c:df:eb:d8:d2:9d:ee:
                    19:73:b8:ff:57:82:bd:90:cb:ae:44:83:04:cd:15:
                    ad:d3:7d:2c:8e:69:8c:88:5b:a5:59:e3:7b:a9:c8:
                    53:62:43:2c:72:fa:17:cf:4d:e3:9d:43:0e:56:92:
                    9b:67:d3:31:cb:76:e0:ad:fa:a6:6a:2b:53:be:fe:
                    11:37:35:e9:8e:18:51:b7:65:09:f6:58:a7:8c:96:
                    63:4f:c8:a7:4f:6f:64:5e:2a:f8:b2:7d:f5:24:62:
                    0f:42:9d:42:0a:ec:70:c0:3e:a2:b7:be:9f:d0:2f:
                    2a:1b:4f:2f:33:02:97:a1:cb:bb:07:ed:10:c6:07:
                    64:b7:70:46:7c:4e:51:3a:f6:9a:57:c0:6f:99:ad:
                    e0:1e:c6:13:4e:85:e6:fd:da:6b:86:e0:4f:e7:89:
                    cf:c5:41:f0:5f:23:c4:49:68:00:3e:cf:25:3a:55:
                    c2:b2:4e:5a:ea:44:d5:c9:0f:ec:bb:a5:dd:ea:81:
                    46:85:a5:74:1f:83:41:62:68:cd:46:d7:22:c0:07:
                    d3:12:04:30:1b:36:88:8e:b1:96:07:89:5d:ab:30:
                    71:8a:fd:79:2e:a4:82:cb:0a:89:13:1a:cd:4f:1c:
                    81:61:40:2c:32:ef:b8:01:70:ce:a0:f1:59:03:1c:
                    2e:e3:15:d5:c8:77:71:8c:75:fb:92:a7:9c:9a:95:
                    65:f8:51:db:e5:9a:77:b5:a7:b0:15:5a:0a:ff:8f:
                    3a:f9:e5:0a:61:4e:47:c4:b5:6b:cb:2c:f6:0a:18:
                    2e:a8:9c:58:84:cd:39:bd:0d:b5:cb:e7:de:f1:64:
                    dc:08:fc:77:a6:8e:e4:db:61:05:de:74:e0:b2:99:
                    88:31:bf:3e:3f:0e:34:54:41:ba:d1:e3:77:ed:2c:
                    5a:e1:b0:ea:48:fd:98:40:c4:57:b8:cf:94:c4:d5:
                    07:e0:9b
                Exponent: 65537 (0x10001)
        X509v3 extensions:
            X509v3 Basic Constraints: 
                CA:FALSE
            Netscape Comment: 
                Easy-RSA Generated Certificate
            X509v3 Subject Key Identifier: 
                2F:2B:DE:6F:D4:88:F0:EA:41:12:38:68:B2:C3:6F:41:70:5F:14:2E
            X509v3 Authority Key Identifier: 
                keyid:12:CD:60:04:D2:A0:80:9E:70:ED:C6:99:B8:7B:2C:C6:52:FD:19:A1
                DirName:/C=US/ST=OH/L=Columbus/O=VikingVPN/OU=MyOrganizationalUnit/CN=VikingVPN CA/name=EasyRSA/emailAddress=me@myhost.mydomain
                serial:CF:35:85:EE:80:BF:2A:3E

            X509v3 Extended Key Usage: 
                TLS Web Client Authentication
            X509v3 Key Usage: 
                Digital Signature
    Signature Algorithm: md5WithRSAEncryption
         89:d0:94:f2:4c:01:20:cd:41:30:7e:72:d0:2d:4c:fa:3a:be:
         1b:01:40:e9:49:1d:96:13:78:de:21:93:f4:69:2c:04:54:69:
         25:f6:dd:42:6b:8b:c7:b9:de:53:d2:00:fd:51:8f:a3:02:ff:
         c7:2c:a2:5b:a4:f4:19:ae:69:86:e5:0b:1a:ee:5e:f7:7f:84:
         81:9d:ec:1d:10:a2:e4:bc:17:62:25:95:83:5a:11:f3:ab:07:
         00:93:38:e8:18:fc:d2:e6:5d:88:69:48:77:5c:29:20:28:1e:
         e6:bb:2a:1b:78:9b:c7:7e:ab:3b:1b:68:a0:b0:b3:d8:82:8d:
         a2:89:02:04:95:c6:e6:78:5e:54:ac:db:a2:92:32:4c:f2:c7:
         94:b0:e9:4f:5d:91:06:43:4b:55:d2:cd:6e:f6:fb:23:8e:81:
         3d:3b:9a:44:bc:d2:2b:10:63:bd:0e:2a:56:83:dc:e9:f9:46:
         b6:29:6f:ce:7d:76:51:a3:79:bb:8f:50:f4:25:2c:ae:b2:fe:
         5e:6e:b4:fa:1a:fb:2e:f3:a6:b2:2b:5e:7a:7e:8a:8f:3a:ec:
         a3:db:b2:8a:75:12:61:a1:b7:c8:91:85:f6:04:dd:73:c1:0b:
         9a:73:4f:88:ae:60:d2:b0:d2:b7:ac:b7:5f:ab:32:f6:89:9b:
         a8:bd:67:45:ba:f1:84:9d:34:fd:90:8c:b5:ad:b3:08:aa:4c:
         0c:75:0c:7c:3f:dd:2a:43:03:e7:4e:05:a4:d5:c4:50:a1:eb:
         f2:99:92:ee:7b:af:73:d1:3f:9f:cf:01:61:9c:94:87:13:d1:
         39:00:6a:a9:2e:78:f8:19:81:5c:c4:c5:a9:4c:62:8a:fb:13:
         8a:31:eb:26:1b:6d:e0:b9:78:0e:f4:63:0a:18:f1:c9:12:3f:
         58:71:fa:e9:87:6b:5f:f7:23:08:10:26:88:65:af:b4:9d:a9:
         92:c3:b1:09:97:2b:b4:a5:d1:af:93:5e:b6:42:e6:4e:f2:20:
         42:9f:57:1a:1a:29:b9:6f:ee:09:5a:b7:4e:60:59:58:7e:e6:
         96:66:71:bf:3c:96:ef:16:b1:93:5e:82:5b:d5:74:95:83:bc:
         75:4e:a9:ce:8b:ed:5a:18:bf:37:69:01:1a:61:55:17:f5:54:
         2a:f6:a5:e9:fa:e0:8d:8d:96:48:f0:43:9f:6a:bf:cb:35:64:
         e8:c5:bc:d9:38:f2:8b:bb:2e:48:cb:2b:ed:09:fe:3c:b2:87:
         d7:7a:f7:3f:b7:12:78:d8:f9:d4:f2:06:70:d7:92:61:d0:98:
         eb:ad:1c:07:fb:45:f2:62:d4:e3:b9:b8:1a:32:92:0b:d4:c7:
         da:f3:33:e0:57:6d:c5:55
-----BEGIN CERTIFICATE-----
MIIGrTCCBJWgAwIBAgICDl0wDQYJKoZIhvcNAQEEBQAwgawxCzAJBgNVBAYTAlVT
MQswCQYDVQQIEwJPSDERMA8GA1UEBxMIQ29sdW1idXMxEjAQBgNVBAoTCVZpa2lu
Z1ZQTjEdMBsGA1UECxMUTXlPcmdhbml6YXRpb25hbFVuaXQxFTATBgNVBAMTDFZp
a2luZ1ZQTiBDQTEQMA4GA1UEKRMHRWFzeVJTQTEhMB8GCSqGSIb3DQEJARYSbWVA
bXlob3N0Lm15ZG9tYWluMB4XDTE0MTIxNTEwNTExOFoXDTI0MTIxMjEwNTExOFow
HzEdMBsGA1UEAxMUQ2xpZW50MTI2OUNlcnRjZTAzOTEwggIiMA0GCSqGSIb3DQEB
AQUAA4ICDwAwggIKAoICAQDffN5ShgcDvDGhQQyZbkOVkLoPIzNZhFkROruZY5+J
OO4JU7WEybW49xJU/PvJj2IAV/Nf+hhhHgCrq3BfFRSbJJLypgS3/WJ+SEYOOjfX
qdQj1Q+PkahUjDsB2TvXumkyEI7TFKpQMjkHZQhRGQ5Cg0rSQmBw+6BAco/xR19b
55+zh7jsVN4m1+DoV7OGgupk/W/QFcen/vkH41DjbN/r2NKd7hlzuP9Xgr2Qy65E
gwTNFa3TfSyOaYyIW6VZ43upyFNiQyxy+hfPTeOdQw5Wkptn0zHLduCt+qZqK1O+
/hE3NemOGFG3ZQn2WKeMlmNPyKdPb2ReKviyffUkYg9CnUIK7HDAPqK3vp/QLyob
Ty8zApehy7sH7RDGB2S3cEZ8TlE69ppXwG+ZreAexhNOheb92muG4E/nic/FQfBf
I8RJaAA+zyU6VcKyTlrqRNXJD+y7pd3qgUaFpXQfg0FiaM1G1yLAB9MSBDAbNoiO
sZYHiV2rMHGK/XkupILLCokTGs1PHIFhQCwy77gBcM6g8VkDHC7jFdXId3GMdfuS
p5yalWX4Udvlmne1p7AVWgr/jzr55QphTkfEtWvLLPYKGC6onFiEzTm9DbXL597x
ZNwI/HemjuTbYQXedOCymYgxvz4/DjRUQbrR43ftLFrhsOpI/ZhAxFe4z5TE1Qfg
mwIDAQABo4IBYzCCAV8wCQYDVR0TBAIwADAtBglghkgBhvhCAQ0EIBYeRWFzeS1S
U0EgR2VuZXJhdGVkIENlcnRpZmljYXRlMB0GA1UdDgQWBBQvK95v1Ijw6kESOGiy
w29BcF8ULjCB4QYDVR0jBIHZMIHWgBQSzWAE0qCAnnDtxpm4eyzGUv0ZoaGBsqSB
rzCBrDELMAkGA1UEBhMCVVMxCzAJBgNVBAgTAk9IMREwDwYDVQQHEwhDb2x1bWJ1
czESMBAGA1UEChMJVmlraW5nVlBOMR0wGwYDVQQLExRNeU9yZ2FuaXphdGlvbmFs
VW5pdDEVMBMGA1UEAxMMVmlraW5nVlBOIENBMRAwDgYDVQQpEwdFYXN5UlNBMSEw
HwYJKoZIhvcNAQkBFhJtZUBteWhvc3QubXlkb21haW6CCQDPNYXugL8qPjATBgNV
HSUEDDAKBggrBgEFBQcDAjALBgNVHQ8EBAMCB4AwDQYJKoZIhvcNAQEEBQADggIB
AInQlPJMASDNQTB+ctAtTPo6vhsBQOlJHZYTeN4hk/RpLARUaSX23UJri8e53lPS
AP1Rj6MC/8csoluk9BmuaYblCxruXvd/hIGd7B0QouS8F2IllYNaEfOrBwCTOOgY
/NLmXYhpSHdcKSAoHua7Kht4m8d+qzsbaKCws9iCjaKJAgSVxuZ4XlSs26KSMkzy
x5Sw6U9dkQZDS1XSzW72+yOOgT07mkS80isQY70OKlaD3On5RrYpb859dlGjebuP
UPQlLK6y/l5utPoa+y7zprIrXnp+io867KPbsop1EmGht8iRhfYE3XPBC5pzT4iu
YNKw0rest1+rMvaJm6i9Z0W68YSdNP2QjLWtswiqTAx1DHw/3SpDA+dOBaTVxFCh
6/KZku57r3PRP5/PAWGclIcT0TkAaqkuePgZgVzExalMYor7E4ox6yYbbeC5eA70
YwoY8ckSP1hx+umHa1/3IwgQJohlr7SdqZLDsQmXK7Sl0a+TXrZC5k7yIEKfVxoa
Kblv7glat05gWVh+5pZmcb88lu8WsZNeglvVdJWDvHVOqc6L7VoYvzdpARphVRf1
VCr2pen64I2NlkjwQ59qv8s1ZOjFvNk48ou7LkjLK+0J/jyyh9d69z+3EnjY+dTy
BnDXkmHQmOutHAf7RfJi1OO5uBoykgvUx9rzM+BXbcVV
-----END CERTIFICATE-----
