Certificate:
    Data:
        Version: 3 (0x2)
        Serial Number: 12459 (0x30ab)
    Signature Algorithm: sha256WithRSAEncryption
        Issuer: C=US, ST=OH, L=Columbus, O=VikingVPN, OU=MyOrganizationalUnit, CN=VikingVPN CA/name=EasyRSA/emailAddress=me@myhost.mydomain
        Validity
            Not Before: Jan 21 22:29:59 2018 GMT
            Not After : Jan 19 22:29:59 2028 GMT
        Subject: CN=Client3208Cert7f5dc5
        Subject Public Key Info:
            Public Key Algorithm: rsaEncryption
                Public-Key: (4096 bit)
                Modulus:
                    00:d8:0f:b7:2a:af:38:86:22:da:8c:f8:7d:00:f7:
                    c1:08:fd:9c:b7:b2:4a:bb:49:c3:c1:b5:b8:ae:a6:
                    9d:3d:34:2f:72:26:5c:6b:bc:66:25:28:b0:9e:ef:
                    a2:98:fb:13:55:53:6f:6d:c4:bb:8f:9d:29:81:9f:
                    1c:5a:82:be:d7:b8:49:c5:cb:d8:a0:95:8f:2b:c5:
                    5f:e0:1b:07:17:88:ee:38:cc:37:26:4e:a8:d3:1e:
                    19:72:e6:de:06:6a:bb:8d:43:fe:cb:8d:f3:04:55:
                    37:38:62:89:91:c6:f6:d1:a3:9a:5d:d0:ae:b3:ce:
                    5c:5a:68:d5:8f:19:c2:0c:db:df:e0:7d:e0:37:c0:
                    68:5c:20:a5:cb:17:c4:7c:e9:69:61:86:a8:f6:32:
                    f3:7f:14:5f:3a:43:ce:a9:54:25:79:b6:95:09:d9:
                    5e:94:89:4c:0f:11:91:02:b4:e4:37:a5:5b:56:40:
                    f3:f5:ee:b8:7a:e6:ac:6e:52:05:72:5d:96:7f:3b:
                    61:1c:45:e4:04:7e:8d:a4:57:1d:10:5e:72:56:64:
                    9d:3a:81:b1:00:7f:8b:a2:ef:79:bb:80:d9:7e:49:
                    7e:65:7d:44:5c:7a:33:3d:06:19:af:86:a1:a5:28:
                    f8:79:52:99:88:ce:8d:f8:26:c2:b3:ad:21:94:f7:
                    ac:77:ea:37:65:8c:f9:d4:4b:9d:64:eb:c7:34:9c:
                    f8:0e:68:10:42:05:17:f7:c5:d2:cc:b4:7f:59:d7:
                    82:2c:7a:eb:65:5c:93:74:42:d6:53:21:7b:b0:5f:
                    9f:31:db:bc:9a:98:83:88:9b:f2:f9:ae:46:f5:ad:
                    71:cd:67:c3:05:c6:5c:57:c1:1a:27:2f:ab:44:85:
                    e7:29:7d:0d:a1:8a:89:87:95:2c:7c:da:dd:38:43:
                    c0:86:6c:ea:de:40:81:11:34:83:dc:41:1f:5b:28:
                    a2:a5:22:96:4e:0d:28:37:24:32:e6:dd:a2:10:27:
                    6b:8c:fe:44:f9:cc:bc:08:59:6c:9f:b7:07:9b:db:
                    fd:39:30:be:f3:9f:c7:d3:18:7f:16:f4:89:72:ed:
                    53:02:f1:75:b6:3b:af:4d:c3:b9:e2:d4:79:b9:41:
                    ac:8e:dc:70:2f:28:b3:4c:e4:b8:67:ca:d4:ec:62:
                    02:bb:1c:99:4f:ba:4e:9a:d7:6b:bf:89:7c:1c:35:
                    d9:1f:89:a2:84:71:68:7d:25:7c:0d:91:e7:99:8f:
                    54:40:d8:08:20:ac:f7:4c:70:ec:ba:7c:cd:d3:1b:
                    05:f9:75:da:26:3c:6b:46:38:9f:41:ac:1f:fa:74:
                    33:07:21:af:b1:f9:d4:62:df:85:21:bb:53:d8:e9:
                    99:3f:e1
                Exponent: 65537 (0x10001)
        X509v3 extensions:
            X509v3 Basic Constraints: 
                CA:FALSE
            Netscape Comment: 
                Easy-RSA Generated Certificate
            X509v3 Subject Key Identifier: 
                26:45:55:AA:9C:D0:18:53:BB:82:67:D1:22:75:9C:7F:25:BB:EE:86
            X509v3 Authority Key Identifier: 
                keyid:12:CD:60:04:D2:A0:80:9E:70:ED:C6:99:B8:7B:2C:C6:52:FD:19:A1
                DirName:/C=US/ST=OH/L=Columbus/O=VikingVPN/OU=MyOrganizationalUnit/CN=VikingVPN CA/name=EasyRSA/emailAddress=me@myhost.mydomain
                serial:CF:35:85:EE:80:BF:2A:3E

            X509v3 Extended Key Usage: 
                TLS Web Client Authentication
            X509v3 Key Usage: 
                Digital Signature
    Signature Algorithm: sha256WithRSAEncryption
         cf:2f:df:eb:1e:24:a3:8c:97:11:3a:09:57:2b:0b:e5:44:aa:
         d6:cd:5f:7b:41:61:85:6a:c1:5f:89:28:ae:ca:f7:00:dc:53:
         4a:f3:1d:c8:43:79:32:21:c3:91:e2:80:cc:7e:f8:5c:6d:62:
         a1:91:4c:b4:d5:5d:b4:9f:07:df:19:26:24:8e:c9:11:3c:28:
         3a:ca:b2:8f:a7:d8:cf:03:6b:cf:c3:52:d0:31:f1:66:1d:b7:
         30:b7:ed:fc:c4:16:5b:46:d6:ce:e5:da:5a:9a:2a:cd:66:0d:
         c2:3f:87:ae:33:92:e0:04:f9:74:50:c3:3f:36:f6:f7:8c:8a:
         ed:d7:6e:8c:6d:a4:44:9e:9a:f9:f7:90:46:28:99:52:cd:41:
         5a:e8:91:4e:8a:86:d5:e4:da:52:23:a6:09:36:f1:fb:a7:95:
         e6:b4:4f:bb:e3:c3:8f:5b:67:96:b9:49:03:77:6a:8f:08:8f:
         5c:a1:57:33:2f:e8:29:e0:06:8a:5f:5f:2f:89:ef:35:2e:fd:
         41:28:e0:81:8d:71:d2:3c:8e:f1:33:22:10:97:2b:96:81:b1:
         47:9b:8f:bc:d0:af:fe:2a:69:89:66:5d:4f:d6:c1:d6:c9:83:
         53:df:f9:35:8c:75:cc:f7:3f:9f:57:b7:c5:06:04:28:f2:b0:
         39:ea:27:f1:b7:08:86:ad:c9:af:3f:ef:c6:3d:f4:10:b1:ae:
         de:62:74:26:32:75:de:c4:8e:31:f4:62:30:7f:88:19:56:59:
         9f:fc:ac:68:25:a1:19:17:19:f5:a6:e4:61:00:a6:57:35:d7:
         6f:09:5f:98:a2:5b:4f:c9:4c:8a:0d:15:c2:13:27:43:14:55:
         eb:17:06:de:92:55:40:50:a4:4b:10:24:33:c2:6f:47:27:32:
         d6:41:b0:5d:8e:dc:cb:8b:00:85:4d:6a:e7:f0:ea:8a:4b:d8:
         16:1d:11:48:9f:a4:93:b1:fe:01:1b:85:8b:13:ad:5c:87:4e:
         9e:3d:43:fd:93:56:c5:a4:56:2f:ff:7e:cc:c6:f0:21:0b:b6:
         b5:34:cc:06:bf:13:b5:68:8e:38:7f:63:d3:db:47:bd:da:c7:
         4f:78:31:31:bb:e4:85:ed:93:ee:84:4f:92:5c:fa:73:44:48:
         5d:39:d1:8d:79:bc:aa:96:fd:51:93:0c:6e:eb:30:73:49:2f:
         8e:72:f8:4c:7c:1a:f6:e3:76:a9:5e:fc:b6:c8:63:c7:9a:b1:
         96:ee:a8:01:1c:8c:de:37:4f:12:1d:65:16:ce:eb:62:ce:aa:
         0a:1e:53:e8:8e:b2:47:7b:aa:74:78:e2:57:1e:5f:ff:d7:6f:
         27:40:7f:84:3c:ae:89:57
-----BEGIN CERTIFICATE-----
MIIGrTCCBJWgAwIBAgICMKswDQYJKoZIhvcNAQELBQAwgawxCzAJBgNVBAYTAlVT
MQswCQYDVQQIEwJPSDERMA8GA1UEBxMIQ29sdW1idXMxEjAQBgNVBAoTCVZpa2lu
Z1ZQTjEdMBsGA1UECxMUTXlPcmdhbml6YXRpb25hbFVuaXQxFTATBgNVBAMTDFZp
a2luZ1ZQTiBDQTEQMA4GA1UEKRMHRWFzeVJTQTEhMB8GCSqGSIb3DQEJARYSbWVA
bXlob3N0Lm15ZG9tYWluMB4XDTE4MDEyMTIyMjk1OVoXDTI4MDExOTIyMjk1OVow
HzEdMBsGA1UEAxMUQ2xpZW50MzIwOENlcnQ3ZjVkYzUwggIiMA0GCSqGSIb3DQEB
AQUAA4ICDwAwggIKAoICAQDYD7cqrziGItqM+H0A98EI/Zy3skq7ScPBtbiupp09
NC9yJlxrvGYlKLCe76KY+xNVU29txLuPnSmBnxxagr7XuEnFy9iglY8rxV/gGwcX
iO44zDcmTqjTHhly5t4GaruNQ/7LjfMEVTc4YomRxvbRo5pd0K6zzlxaaNWPGcIM
29/gfeA3wGhcIKXLF8R86Wlhhqj2MvN/FF86Q86pVCV5tpUJ2V6UiUwPEZECtOQ3
pVtWQPP17rh65qxuUgVyXZZ/O2EcReQEfo2kVx0QXnJWZJ06gbEAf4ui73m7gNl+
SX5lfURcejM9BhmvhqGlKPh5UpmIzo34JsKzrSGU96x36jdljPnUS51k68c0nPgO
aBBCBRf3xdLMtH9Z14IseutlXJN0QtZTIXuwX58x27yamIOIm/L5rkb1rXHNZ8MF
xlxXwRonL6tEhecpfQ2hiomHlSx82t04Q8CGbOreQIERNIPcQR9bKKKlIpZODSg3
JDLm3aIQJ2uM/kT5zLwIWWyftweb2/05ML7zn8fTGH8W9Ily7VMC8XW2O69Nw7ni
1Hm5QayO3HAvKLNM5LhnytTsYgK7HJlPuk6a12u/iXwcNdkfiaKEcWh9JXwNkeeZ
j1RA2AggrPdMcOy6fM3TGwX5ddomPGtGOJ9BrB/6dDMHIa+x+dRi34Uhu1PY6Zk/
4QIDAQABo4IBYzCCAV8wCQYDVR0TBAIwADAtBglghkgBhvhCAQ0EIBYeRWFzeS1S
U0EgR2VuZXJhdGVkIENlcnRpZmljYXRlMB0GA1UdDgQWBBQmRVWqnNAYU7uCZ9Ei
dZx/JbvuhjCB4QYDVR0jBIHZMIHWgBQSzWAE0qCAnnDtxpm4eyzGUv0ZoaGBsqSB
rzCBrDELMAkGA1UEBhMCVVMxCzAJBgNVBAgTAk9IMREwDwYDVQQHEwhDb2x1bWJ1
czESMBAGA1UEChMJVmlraW5nVlBOMR0wGwYDVQQLExRNeU9yZ2FuaXphdGlvbmFs
VW5pdDEVMBMGA1UEAxMMVmlraW5nVlBOIENBMRAwDgYDVQQpEwdFYXN5UlNBMSEw
HwYJKoZIhvcNAQkBFhJtZUBteWhvc3QubXlkb21haW6CCQDPNYXugL8qPjATBgNV
HSUEDDAKBggrBgEFBQcDAjALBgNVHQ8EBAMCB4AwDQYJKoZIhvcNAQELBQADggIB
AM8v3+seJKOMlxE6CVcrC+VEqtbNX3tBYYVqwV+JKK7K9wDcU0rzHchDeTIhw5Hi
gMx++FxtYqGRTLTVXbSfB98ZJiSOyRE8KDrKso+n2M8Da8/DUtAx8WYdtzC37fzE
FltG1s7l2lqaKs1mDcI/h64zkuAE+XRQwz829veMiu3XboxtpESemvn3kEYomVLN
QVrokU6KhtXk2lIjpgk28funlea0T7vjw49bZ5a5SQN3ao8Ij1yhVzMv6CngBopf
Xy+J7zUu/UEo4IGNcdI8jvEzIhCXK5aBsUebj7zQr/4qaYlmXU/WwdbJg1Pf+TWM
dcz3P59Xt8UGBCjysDnqJ/G3CIatya8/78Y99BCxrt5idCYydd7EjjH0YjB/iBlW
WZ/8rGgloRkXGfWm5GEAplc1128JX5iiW0/JTIoNFcITJ0MUVesXBt6SVUBQpEsQ
JDPCb0cnMtZBsF2O3MuLAIVNaufw6opL2BYdEUifpJOx/gEbhYsTrVyHTp49Q/2T
VsWkVi//fszG8CELtrU0zAa/E7Vojjh/Y9PbR73ax094MTG75IXtk+6ET5Jc+nNE
SF050Y15vKqW/VGTDG7rMHNJL45y+Ex8Gvbjdqle/LbIY8easZbuqAEcjN43TxId
ZRbO62LOqgoeU+iOskd7qnR44lceX//XbydAf4Q8rolX
-----END CERTIFICATE-----
