Certificate:
    Data:
        Version: 3 (0x2)
        Serial Number: 6604 (0x19cc)
    Signature Algorithm: md5WithRSAEncryption
        Issuer: C=US, ST=OH, L=Columbus, O=VikingVPN, OU=MyOrganizationalUnit, CN=VikingVPN CA/name=EasyRSA/emailAddress=me@myhost.mydomain
        Validity
            Not Before: Nov  1 20:55:57 2015 GMT
            Not After : Oct 29 20:55:57 2025 GMT
        Subject: CN=Client1152Cert705b1f
        Subject Public Key Info:
            Public Key Algorithm: rsaEncryption
                Public-Key: (4096 bit)
                Modulus:
                    00:b6:2e:bf:c7:c2:9a:43:59:ae:0e:44:ee:59:85:
                    71:f8:ac:a8:8e:1f:19:b6:32:9a:5b:e3:42:b7:d7:
                    5f:ad:2c:e2:bf:a7:a2:30:21:ad:25:58:d3:27:62:
                    83:4a:d2:e8:90:c1:62:c9:d3:a1:d0:09:6f:cd:0f:
                    62:39:64:ec:3a:1c:9d:54:5d:86:01:98:d2:db:32:
                    2f:5e:d3:c2:ce:f2:7a:59:c7:c9:ae:9d:96:92:77:
                    7e:80:3a:4e:03:6b:6e:91:f5:b4:36:22:ca:b0:2c:
                    96:a6:a5:e6:35:17:59:d5:9c:1b:87:74:35:20:15:
                    6b:0b:8e:93:14:00:2c:63:b9:77:e5:e9:de:a9:b1:
                    52:56:e0:3b:ff:60:23:c5:d9:b8:83:92:3a:45:48:
                    14:fe:6c:5c:d2:37:23:2a:43:fe:b4:dc:3e:4d:37:
                    5c:3a:6a:f3:98:9c:76:88:73:2c:aa:1c:a5:12:ee:
                    96:09:ed:20:49:26:1d:06:50:44:8b:b4:84:b1:83:
                    de:d1:ae:3e:b4:c2:34:81:39:68:ac:e5:1c:88:66:
                    2c:b9:06:e7:ac:2d:0e:72:51:81:86:06:e5:0b:b7:
                    ff:9d:65:58:5d:a6:84:0e:de:fb:c1:37:59:ba:7d:
                    e5:24:70:5e:19:b8:82:08:14:02:ec:31:71:80:56:
                    73:e5:5d:65:b2:4d:5d:1b:72:de:8d:75:37:6a:55:
                    38:bd:8d:33:6e:fd:11:a1:7a:6a:86:5f:93:62:4c:
                    75:0f:43:ea:ab:96:57:b7:fa:c0:5c:e2:5b:42:1d:
                    38:08:79:4d:f9:36:a7:15:f9:e5:20:40:64:dc:54:
                    b8:db:1d:de:ef:e0:86:e9:70:73:b7:38:36:64:14:
                    5b:b0:4e:7d:6d:40:2e:c5:24:c0:a5:1b:ec:bf:61:
                    f5:05:c0:a4:8e:8a:ce:f6:6c:84:0d:d1:73:5e:32:
                    4f:df:65:6e:3a:08:98:88:7e:ae:c2:d7:a8:53:5d:
                    54:ae:35:9d:e4:0d:3c:c8:71:00:f9:bd:7d:a3:62:
                    9d:6b:43:65:c5:8a:58:29:88:f1:5f:1d:c4:c5:60:
                    f6:36:54:e1:e8:19:94:50:f6:8c:3a:43:6b:43:82:
                    12:fb:6c:8a:ca:00:76:d3:3e:87:0f:8c:56:d0:1c:
                    b0:a1:f3:cd:81:c3:36:87:e5:2d:f9:ac:1f:50:68:
                    56:46:61:d8:34:81:6b:6b:fd:3d:2b:99:d5:0f:30:
                    68:06:7d:99:8f:c2:ee:00:a5:ee:3e:e8:d5:5f:7c:
                    c8:9d:7d:05:73:c0:cc:b6:4c:a9:d7:fa:14:f6:bc:
                    4b:ea:32:72:de:32:75:ee:5d:ba:0a:4e:61:33:44:
                    9f:22:1f
                Exponent: 65537 (0x10001)
        X509v3 extensions:
            X509v3 Basic Constraints: 
                CA:FALSE
            Netscape Comment: 
                Easy-RSA Generated Certificate
            X509v3 Subject Key Identifier: 
                DF:28:D7:C2:71:D9:00:03:88:27:71:7B:27:72:A8:ED:38:3E:DF:AE
            X509v3 Authority Key Identifier: 
                keyid:12:CD:60:04:D2:A0:80:9E:70:ED:C6:99:B8:7B:2C:C6:52:FD:19:A1
                DirName:/C=US/ST=OH/L=Columbus/O=VikingVPN/OU=MyOrganizationalUnit/CN=VikingVPN CA/name=EasyRSA/emailAddress=me@myhost.mydomain
                serial:CF:35:85:EE:80:BF:2A:3E

            X509v3 Extended Key Usage: 
                TLS Web Client Authentication
            X509v3 Key Usage: 
                Digital Signature
    Signature Algorithm: md5WithRSAEncryption
         4a:52:b0:42:56:5c:ff:f1:b7:4c:f2:7a:c2:8c:fe:e9:34:a0:
         47:f8:e6:e0:3d:8c:5d:1b:e9:6a:01:b6:c3:9e:c8:c7:3f:47:
         61:e3:c8:e7:c3:33:ba:c3:7a:bd:db:97:df:8f:e8:af:bc:e0:
         41:c9:4e:8e:b1:94:63:db:a1:59:ed:49:a4:59:e8:72:06:85:
         33:f1:60:b9:ad:c6:7d:22:23:ed:f9:6e:a8:9b:05:c4:a2:8a:
         52:76:d9:bb:40:61:45:f5:a7:51:53:21:4d:4e:21:5d:2f:30:
         ae:41:d8:0a:c8:75:29:bc:f9:bb:b9:00:31:c9:7d:53:0c:e1:
         d2:ef:2a:f6:01:0c:75:d7:bd:4e:4e:38:39:19:cb:be:64:68:
         94:ad:46:4f:ed:85:5c:4f:f8:6c:6a:ef:a1:79:50:26:c5:9b:
         aa:70:21:f8:c9:04:e3:76:52:ad:37:f3:97:83:d9:94:67:14:
         22:c2:ef:0c:5e:4b:88:5c:51:3d:ce:69:e8:47:05:05:db:d5:
         2b:7d:c1:1c:14:52:1f:0a:a7:ee:39:76:72:e5:dc:f8:47:81:
         47:7a:e4:e3:93:c5:ef:1b:17:71:ff:1a:e9:45:2b:5a:3b:50:
         41:bd:11:e7:eb:79:ac:00:aa:61:6e:db:de:7d:89:ea:31:10:
         15:ee:2a:bd:ba:d2:85:36:55:bf:c5:ac:12:7e:a5:a5:04:b5:
         6c:d8:cb:32:6c:79:be:60:fd:23:4a:ac:20:d5:b8:f0:95:32:
         e2:ce:8b:3f:56:3e:b4:68:bd:ab:68:ee:e5:39:47:a5:5c:bc:
         33:4c:09:d7:5d:28:06:59:c4:aa:2c:bd:8e:cf:f9:aa:e2:76:
         16:50:82:55:f7:d1:0e:52:95:d7:de:76:ff:6b:91:b8:c8:f2:
         f6:39:55:93:5a:ab:41:ee:6a:1e:e8:30:61:61:a0:a5:c3:bc:
         00:04:84:1b:c8:12:53:9c:96:09:08:50:6c:9f:dc:e0:ac:27:
         33:1c:fe:5f:ea:29:44:a5:29:51:27:63:1e:af:0a:df:14:ef:
         39:6a:be:06:c2:b7:36:ae:fb:84:9c:fd:4a:29:23:b1:a2:f7:
         40:00:50:8b:78:ec:f9:2f:44:87:e1:c3:d7:2f:53:70:57:3e:
         e3:ec:af:77:62:e5:f4:09:7c:e9:de:cc:36:26:03:7d:4f:3b:
         f9:ce:6a:f5:4a:17:51:1e:74:da:0f:a5:5a:43:93:a4:ef:9c:
         cc:de:5c:02:65:6b:03:40:de:37:54:af:ad:e4:2d:98:36:db:
         87:5d:49:9e:2b:b8:d6:a9:99:12:c2:61:be:dd:06:e1:79:32:
         54:20:05:52:2b:c0:8d:4c
-----BEGIN CERTIFICATE-----
MIIGrTCCBJWgAwIBAgICGcwwDQYJKoZIhvcNAQEEBQAwgawxCzAJBgNVBAYTAlVT
MQswCQYDVQQIEwJPSDERMA8GA1UEBxMIQ29sdW1idXMxEjAQBgNVBAoTCVZpa2lu
Z1ZQTjEdMBsGA1UECxMUTXlPcmdhbml6YXRpb25hbFVuaXQxFTATBgNVBAMTDFZp
a2luZ1ZQTiBDQTEQMA4GA1UEKRMHRWFzeVJTQTEhMB8GCSqGSIb3DQEJARYSbWVA
bXlob3N0Lm15ZG9tYWluMB4XDTE1MTEwMTIwNTU1N1oXDTI1MTAyOTIwNTU1N1ow
HzEdMBsGA1UEAxMUQ2xpZW50MTE1MkNlcnQ3MDViMWYwggIiMA0GCSqGSIb3DQEB
AQUAA4ICDwAwggIKAoICAQC2Lr/HwppDWa4ORO5ZhXH4rKiOHxm2Mppb40K311+t
LOK/p6IwIa0lWNMnYoNK0uiQwWLJ06HQCW/ND2I5ZOw6HJ1UXYYBmNLbMi9e08LO
8npZx8munZaSd36AOk4Da26R9bQ2IsqwLJampeY1F1nVnBuHdDUgFWsLjpMUACxj
uXfl6d6psVJW4Dv/YCPF2biDkjpFSBT+bFzSNyMqQ/603D5NN1w6avOYnHaIcyyq
HKUS7pYJ7SBJJh0GUESLtISxg97Rrj60wjSBOWis5RyIZiy5BuesLQ5yUYGGBuUL
t/+dZVhdpoQO3vvBN1m6feUkcF4ZuIIIFALsMXGAVnPlXWWyTV0bct6NdTdqVTi9
jTNu/RGhemqGX5NiTHUPQ+qrlle3+sBc4ltCHTgIeU35NqcV+eUgQGTcVLjbHd7v
4IbpcHO3ODZkFFuwTn1tQC7FJMClG+y/YfUFwKSOis72bIQN0XNeMk/fZW46CJiI
fq7C16hTXVSuNZ3kDTzIcQD5vX2jYp1rQ2XFilgpiPFfHcTFYPY2VOHoGZRQ9ow6
Q2tDghL7bIrKAHbTPocPjFbQHLCh882BwzaH5S35rB9QaFZGYdg0gWtr/T0rmdUP
MGgGfZmPwu4Ape4+6NVffMidfQVzwMy2TKnX+hT2vEvqMnLeMnXuXboKTmEzRJ8i
HwIDAQABo4IBYzCCAV8wCQYDVR0TBAIwADAtBglghkgBhvhCAQ0EIBYeRWFzeS1S
U0EgR2VuZXJhdGVkIENlcnRpZmljYXRlMB0GA1UdDgQWBBTfKNfCcdkAA4gncXsn
cqjtOD7frjCB4QYDVR0jBIHZMIHWgBQSzWAE0qCAnnDtxpm4eyzGUv0ZoaGBsqSB
rzCBrDELMAkGA1UEBhMCVVMxCzAJBgNVBAgTAk9IMREwDwYDVQQHEwhDb2x1bWJ1
czESMBAGA1UEChMJVmlraW5nVlBOMR0wGwYDVQQLExRNeU9yZ2FuaXphdGlvbmFs
VW5pdDEVMBMGA1UEAxMMVmlraW5nVlBOIENBMRAwDgYDVQQpEwdFYXN5UlNBMSEw
HwYJKoZIhvcNAQkBFhJtZUBteWhvc3QubXlkb21haW6CCQDPNYXugL8qPjATBgNV
HSUEDDAKBggrBgEFBQcDAjALBgNVHQ8EBAMCB4AwDQYJKoZIhvcNAQEEBQADggIB
AEpSsEJWXP/xt0zyesKM/uk0oEf45uA9jF0b6WoBtsOeyMc/R2HjyOfDM7rDer3b
l9+P6K+84EHJTo6xlGPboVntSaRZ6HIGhTPxYLmtxn0iI+35bqibBcSiilJ22btA
YUX1p1FTIU1OIV0vMK5B2ArIdSm8+bu5ADHJfVMM4dLvKvYBDHXXvU5OODkZy75k
aJStRk/thVxP+Gxq76F5UCbFm6pwIfjJBON2Uq0385eD2ZRnFCLC7wxeS4hcUT3O
aehHBQXb1St9wRwUUh8Kp+45dnLl3PhHgUd65OOTxe8bF3H/GulFK1o7UEG9Eefr
eawAqmFu2959ieoxEBXuKr260oU2Vb/FrBJ+paUEtWzYyzJseb5g/SNKrCDVuPCV
MuLOiz9WPrRovato7uU5R6VcvDNMCdddKAZZxKosvY7P+aridhZQglX30Q5Sldfe
dv9rkbjI8vY5VZNaq0Huah7oMGFhoKXDvAAEhBvIElOclgkIUGyf3OCsJzMc/l/q
KUSlKVEnYx6vCt8U7zlqvgbCtzau+4Sc/UopI7Gi90AAUIt47PkvRIfhw9cvU3BX
PuPsr3di5fQJfOnezDYmA31PO/nOavVKF1EedNoPpVpDk6TvnMzeXAJlawNA3jdU
r63kLZg224ddSZ4ruNapmRLCYb7dBuF5MlQgBVIrwI1M
-----END CERTIFICATE-----
