Certificate:
    Data:
        Version: 3 (0x2)
        Serial Number: 943 (0x3af)
    Signature Algorithm: md5WithRSAEncryption
        Issuer: C=US, ST=OH, L=Columbus, O=VikingVPN, OU=MyOrganizationalUnit, CN=VikingVPN CA/name=EasyRSA/emailAddress=me@myhost.mydomain
        Validity
            Not Before: Feb  3 07:51:38 2014 GMT
            Not After : Feb  1 07:51:38 2024 GMT
        Subject: CN=Client349Cert8bd440
        Subject Public Key Info:
            Public Key Algorithm: rsaEncryption
                Public-Key: (4096 bit)
                Modulus:
                    00:d6:09:54:74:ec:36:c2:a5:cf:3b:9f:38:60:fa:
                    2f:0f:2a:0a:44:14:d7:dd:8a:cf:4c:6f:32:72:c6:
                    75:8b:22:53:eb:e4:53:3a:cf:01:f2:2c:4f:c1:f6:
                    89:2c:62:ce:7c:08:37:c2:ec:50:f8:ec:61:47:a6:
                    ce:a6:71:2f:28:fe:bd:3c:f4:96:99:16:04:24:7c:
                    cb:ec:cf:4e:e6:7a:98:51:b9:bf:3c:99:e8:df:ce:
                    24:4f:db:75:7b:cb:a3:0c:5f:9d:5d:8c:92:4c:62:
                    00:e5:33:b0:cc:58:92:80:3e:23:ae:30:d2:f5:ca:
                    a4:76:ed:83:21:a9:53:c9:d1:c4:42:c5:55:5d:e3:
                    f5:66:f3:b8:77:4a:6a:ba:50:10:f4:81:da:60:94:
                    e3:6c:45:df:bf:29:c5:31:8e:90:15:1f:8d:fe:28:
                    90:f9:1f:3c:c0:91:19:91:94:4a:c0:06:cc:74:5e:
                    59:1c:ab:75:c4:c1:ec:c7:78:ff:10:3f:bc:4e:38:
                    ee:b7:91:1d:e8:20:98:f5:7b:09:a8:61:3b:87:cd:
                    8c:13:c7:f4:98:67:0b:f8:42:25:67:8a:01:cf:70:
                    83:e5:3e:0c:6f:ec:ea:cb:f7:9b:14:0b:5b:ce:e0:
                    09:6d:59:65:f4:be:6b:2c:0b:16:a0:37:01:dd:89:
                    d9:ed:26:a6:3b:f7:69:48:51:0b:a7:78:20:07:92:
                    98:30:93:c9:39:2a:3e:c1:d6:31:fd:23:b4:16:18:
                    10:00:80:81:c5:9d:ae:4b:8a:cf:d6:f0:8c:96:fa:
                    72:ff:e2:92:9f:96:0f:7b:06:00:e1:c9:6d:08:35:
                    d4:f2:55:60:1b:66:9a:f7:ef:4f:18:6c:5c:85:79:
                    b1:5f:11:77:07:9d:9e:31:43:97:42:9f:a5:2b:d3:
                    86:0a:8e:80:fa:d9:b0:1d:17:5e:5c:d1:46:a2:ad:
                    8a:c6:3e:68:d4:91:d3:88:de:ab:ef:a2:79:d8:79:
                    cd:f7:39:9b:e6:c7:2b:d6:6a:f6:13:eb:7b:75:5d:
                    01:53:7f:3d:42:d8:66:22:e1:52:2c:38:ce:2a:df:
                    01:a7:9e:11:a6:9f:9f:cb:12:66:30:5e:8d:96:12:
                    10:d3:65:53:2a:3a:c6:f9:d9:06:18:78:d3:96:aa:
                    d5:39:02:35:80:a5:a6:eb:d3:19:fe:c4:c8:5c:98:
                    08:d6:e0:c0:cb:a0:d3:e1:5e:5b:35:46:4e:5e:63:
                    7c:61:9c:a6:c8:2e:0c:ef:ac:2e:02:0e:56:ed:e6:
                    5e:f6:a2:27:82:68:6c:5c:3c:10:4d:90:43:f4:f2:
                    a7:07:93:fd:4b:b0:ad:a5:f3:c8:f4:28:c9:02:22:
                    51:17:f5
                Exponent: 65537 (0x10001)
        X509v3 extensions:
            X509v3 Basic Constraints: 
                CA:FALSE
            Netscape Comment: 
                Easy-RSA Generated Certificate
            X509v3 Subject Key Identifier: 
                DA:AE:CD:8A:EE:8D:8D:D4:CE:8B:A2:9D:F2:E7:95:EE:11:64:CC:2A
            X509v3 Authority Key Identifier: 
                keyid:12:CD:60:04:D2:A0:80:9E:70:ED:C6:99:B8:7B:2C:C6:52:FD:19:A1
                DirName:/C=US/ST=OH/L=Columbus/O=VikingVPN/OU=MyOrganizationalUnit/CN=VikingVPN CA/name=EasyRSA/emailAddress=me@myhost.mydomain
                serial:CF:35:85:EE:80:BF:2A:3E

            X509v3 Extended Key Usage: 
                TLS Web Client Authentication
            X509v3 Key Usage: 
                Digital Signature
    Signature Algorithm: md5WithRSAEncryption
         24:a9:be:ab:b1:7d:a1:3d:14:aa:35:66:f6:88:31:74:88:56:
         03:5e:4d:46:cc:78:f4:c6:05:17:6b:80:43:2d:97:05:88:f9:
         13:08:1b:64:79:49:eb:98:c7:6f:c5:15:40:45:7b:aa:ac:19:
         00:81:c3:25:4f:d4:0d:92:43:75:65:0e:b5:16:bc:29:b5:40:
         da:e1:85:1b:21:76:1d:fd:ba:18:3d:e8:8b:11:74:d0:62:75:
         25:81:27:a6:af:ec:af:ca:c5:df:1d:d9:b0:21:e5:da:b9:fc:
         da:f6:82:ae:42:a4:77:12:27:a6:70:4e:14:63:ad:c8:41:aa:
         80:1b:e5:fe:51:de:93:e4:75:a3:63:73:d2:f3:20:de:72:81:
         15:10:75:0f:33:0d:93:b9:a2:32:49:9b:b1:18:ec:67:1d:b8:
         b2:ec:22:0d:d3:e4:ed:aa:0d:49:79:2b:af:62:08:51:1f:48:
         1f:df:d9:e7:83:00:03:6b:6d:cd:cd:a4:d4:51:a0:c7:91:75:
         2e:a7:e2:1a:06:c4:f7:71:4a:19:77:19:8d:42:fb:4c:f7:bf:
         02:ff:7d:56:f2:5c:41:13:bd:75:af:33:95:fb:b1:96:c9:54:
         1e:e0:5c:a6:a2:a1:fb:15:6c:c9:f6:66:ee:e6:fd:ce:f0:1d:
         fc:f1:45:0f:a6:fd:71:1a:80:79:ad:67:2d:8e:d5:38:e9:69:
         ae:e6:5b:d2:7c:e2:0a:f3:bc:1d:86:6f:9d:8e:27:2d:86:7c:
         97:f4:21:e1:c5:d4:25:bb:a5:0c:32:8c:04:aa:e9:94:2f:e3:
         17:c3:6b:42:34:a3:12:21:e6:50:65:13:12:7d:65:1c:9a:19:
         af:d5:80:b3:bb:1e:92:79:45:bf:fd:c4:4e:91:8e:0b:09:bb:
         2b:1b:2d:20:7c:57:ed:d6:51:00:f1:28:dc:9b:58:3d:2f:93:
         16:b3:c5:1c:c6:e2:b1:67:58:af:6e:8d:a5:9d:8b:08:48:8f:
         3b:e5:b9:52:16:2f:0a:fc:ef:73:f2:29:08:82:a4:64:c4:13:
         8c:1c:f2:b8:76:5f:54:5c:e3:01:8f:d3:84:ce:17:79:23:4b:
         2e:7f:40:05:9b:07:03:4d:1a:a1:63:a2:24:f3:5f:54:1c:61:
         3f:38:de:fd:04:1c:f7:92:5f:85:b8:f7:06:99:d1:2d:b2:69:
         17:d0:6a:4e:27:01:1b:0c:19:42:bf:24:6e:4f:e8:68:7e:92:
         3c:31:92:52:4f:9c:dd:0f:58:46:12:8a:05:cf:23:b5:e1:7c:
         4a:3d:84:ed:ce:e7:c0:ab:56:b8:ad:dd:c2:13:cc:91:40:4d:
         04:69:60:13:f6:0d:e9:24
-----BEGIN CERTIFICATE-----
MIIGrDCCBJSgAwIBAgICA68wDQYJKoZIhvcNAQEEBQAwgawxCzAJBgNVBAYTAlVT
MQswCQYDVQQIEwJPSDERMA8GA1UEBxMIQ29sdW1idXMxEjAQBgNVBAoTCVZpa2lu
Z1ZQTjEdMBsGA1UECxMUTXlPcmdhbml6YXRpb25hbFVuaXQxFTATBgNVBAMTDFZp
a2luZ1ZQTiBDQTEQMA4GA1UEKRMHRWFzeVJTQTEhMB8GCSqGSIb3DQEJARYSbWVA
bXlob3N0Lm15ZG9tYWluMB4XDTE0MDIwMzA3NTEzOFoXDTI0MDIwMTA3NTEzOFow
HjEcMBoGA1UEAxMTQ2xpZW50MzQ5Q2VydDhiZDQ0MDCCAiIwDQYJKoZIhvcNAQEB
BQADggIPADCCAgoCggIBANYJVHTsNsKlzzufOGD6Lw8qCkQU192Kz0xvMnLGdYsi
U+vkUzrPAfIsT8H2iSxiznwIN8LsUPjsYUemzqZxLyj+vTz0lpkWBCR8y+zPTuZ6
mFG5vzyZ6N/OJE/bdXvLowxfnV2MkkxiAOUzsMxYkoA+I64w0vXKpHbtgyGpU8nR
xELFVV3j9WbzuHdKarpQEPSB2mCU42xF378pxTGOkBUfjf4okPkfPMCRGZGUSsAG
zHReWRyrdcTB7Md4/xA/vE447reRHeggmPV7CahhO4fNjBPH9JhnC/hCJWeKAc9w
g+U+DG/s6sv3mxQLW87gCW1ZZfS+aywLFqA3Ad2J2e0mpjv3aUhRC6d4IAeSmDCT
yTkqPsHWMf0jtBYYEACAgcWdrkuKz9bwjJb6cv/ikp+WD3sGAOHJbQg11PJVYBtm
mvfvTxhsXIV5sV8RdwednjFDl0KfpSvThgqOgPrZsB0XXlzRRqKtisY+aNSR04je
q++iedh5zfc5m+bHK9Zq9hPre3VdAVN/PULYZiLhUiw4zirfAaeeEaafn8sSZjBe
jZYSENNlUyo6xvnZBhh405aq1TkCNYClpuvTGf7EyFyYCNbgwMug0+FeWzVGTl5j
fGGcpsguDO+sLgIOVu3mXvaiJ4JobFw8EE2QQ/TypweT/UuwraXzyPQoyQIiURf1
AgMBAAGjggFjMIIBXzAJBgNVHRMEAjAAMC0GCWCGSAGG+EIBDQQgFh5FYXN5LVJT
QSBHZW5lcmF0ZWQgQ2VydGlmaWNhdGUwHQYDVR0OBBYEFNquzYrujY3UzouinfLn
le4RZMwqMIHhBgNVHSMEgdkwgdaAFBLNYATSoICecO3Gmbh7LMZS/RmhoYGypIGv
MIGsMQswCQYDVQQGEwJVUzELMAkGA1UECBMCT0gxETAPBgNVBAcTCENvbHVtYnVz
MRIwEAYDVQQKEwlWaWtpbmdWUE4xHTAbBgNVBAsTFE15T3JnYW5pemF0aW9uYWxV
bml0MRUwEwYDVQQDEwxWaWtpbmdWUE4gQ0ExEDAOBgNVBCkTB0Vhc3lSU0ExITAf
BgkqhkiG9w0BCQEWEm1lQG15aG9zdC5teWRvbWFpboIJAM81he6Avyo+MBMGA1Ud
JQQMMAoGCCsGAQUFBwMCMAsGA1UdDwQEAwIHgDANBgkqhkiG9w0BAQQFAAOCAgEA
JKm+q7F9oT0UqjVm9ogxdIhWA15NRsx49MYFF2uAQy2XBYj5EwgbZHlJ65jHb8UV
QEV7qqwZAIHDJU/UDZJDdWUOtRa8KbVA2uGFGyF2Hf26GD3oixF00GJ1JYEnpq/s
r8rF3x3ZsCHl2rn82vaCrkKkdxInpnBOFGOtyEGqgBvl/lHek+R1o2Nz0vMg3nKB
FRB1DzMNk7miMkmbsRjsZx24suwiDdPk7aoNSXkrr2IIUR9IH9/Z54MAA2ttzc2k
1FGgx5F1LqfiGgbE93FKGXcZjUL7TPe/Av99VvJcQRO9da8zlfuxlslUHuBcpqKh
+xVsyfZm7ub9zvAd/PFFD6b9cRqAea1nLY7VOOlpruZb0nziCvO8HYZvnY4nLYZ8
l/Qh4cXUJbulDDKMBKrplC/jF8NrQjSjEiHmUGUTEn1lHJoZr9WAs7seknlFv/3E
TpGOCwm7KxstIHxX7dZRAPEo3JtYPS+TFrPFHMbisWdYr26NpZ2LCEiPO+W5UhYv
Cvzvc/IpCIKkZMQTjBzyuHZfVFzjAY/ThM4XeSNLLn9ABZsHA00aoWOiJPNfVBxh
Pzje/QQc95Jfhbj3BpnRLbJpF9BqTicBGwwZQr8kbk/oaH6SPDGSUk+c3Q9YRhKK
Bc8jteF8Sj2E7c7nwKtWuK3dwhPMkUBNBGlgE/YN6SQ=
-----END CERTIFICATE-----
