Certificate:
    Data:
        Version: 3 (0x2)
        Serial Number: 2143 (0x85f)
    Signature Algorithm: md5WithRSAEncryption
        Issuer: C=US, ST=OH, L=Columbus, O=VikingVPN, OU=MyOrganizationalUnit, CN=VikingVPN CA/name=EasyRSA/emailAddress=me@myhost.mydomain
        Validity
            Not Before: Jun 20 13:12:44 2014 GMT
            Not After : Jun 17 13:12:44 2024 GMT
        Subject: CN=Client749Certd8b299
        Subject Public Key Info:
            Public Key Algorithm: rsaEncryption
                Public-Key: (4096 bit)
                Modulus:
                    00:b3:6c:a2:35:df:ce:39:b0:7a:82:37:55:c0:18:
                    d8:cb:2a:26:fb:4b:cc:34:35:1d:05:cc:10:8a:b7:
                    d0:58:8a:f2:45:bc:6f:6e:ab:0c:6f:03:bd:cb:d2:
                    b6:9e:cc:e8:8d:04:eb:0b:f8:b6:7b:8f:27:46:05:
                    bc:e2:8f:39:25:6b:7a:9f:66:4f:1d:ef:f3:59:18:
                    19:34:40:8e:35:b2:23:53:46:a4:f2:52:50:4d:01:
                    0d:a1:fb:aa:37:3c:55:ec:1b:20:5f:9e:a4:e0:59:
                    d7:5d:71:a8:35:80:53:7b:17:a8:38:73:6b:ca:3c:
                    6e:53:7d:2e:03:c7:89:ca:2a:4c:26:11:be:44:e9:
                    fb:89:61:1b:f0:a7:d3:10:51:af:45:79:9d:05:c0:
                    8b:b3:46:df:78:40:2d:ff:a8:81:07:91:50:93:cf:
                    f7:e5:2e:42:9d:63:c5:53:63:0e:9d:18:37:7a:85:
                    94:13:9b:00:96:02:e7:a0:8f:42:0d:97:bd:75:d5:
                    1a:42:32:27:c0:19:3c:8f:ec:0f:46:1f:2a:ed:38:
                    33:62:d5:eb:65:e9:3f:ee:65:8a:df:2d:b6:df:dc:
                    4e:44:ba:2c:84:04:d3:6c:df:a1:2a:56:35:ce:23:
                    47:22:21:e1:e0:8d:1f:c6:4c:38:0f:c1:5b:05:89:
                    e3:6a:27:8b:4e:1f:67:2e:86:af:ab:ca:04:3e:21:
                    4b:83:54:a1:a5:6b:77:2b:c4:d2:b1:0d:28:5f:c3:
                    55:b6:0d:c2:dc:9b:75:ec:ed:5b:ac:a4:e7:1d:74:
                    26:25:1d:b4:19:3f:fe:06:b8:32:12:d4:77:0f:b9:
                    d9:96:9f:c4:2a:f1:2f:b3:b5:1c:a5:5f:e4:b7:3b:
                    f4:ad:0f:f9:2c:9e:2d:1d:9c:f3:d8:57:4b:6f:4a:
                    73:62:12:03:6b:b1:c7:01:7e:f3:62:cf:e2:b8:a8:
                    44:0c:b3:7e:85:48:1f:a8:b1:50:26:cd:53:11:0b:
                    d9:e2:bd:72:8b:f1:25:29:f1:e2:8c:49:84:26:81:
                    a5:a6:49:e1:88:b6:a1:ce:ac:e6:17:e6:72:9d:c4:
                    24:f2:1f:c6:53:14:a1:4d:0c:66:ff:60:64:c1:fa:
                    a5:14:cb:05:b5:cc:99:65:93:a8:0f:2f:f0:43:6c:
                    a4:0e:b5:36:f4:47:47:6d:c0:65:e1:de:74:2a:a7:
                    56:cc:85:4f:a7:07:49:d6:4e:40:b8:ba:c2:ec:18:
                    25:ac:09:45:61:d2:52:4f:b6:96:84:fb:db:cf:b9:
                    2e:30:05:da:cf:38:f6:25:c4:1c:e3:1c:38:62:d4:
                    3f:40:74:64:4b:b8:1d:62:d3:45:60:04:04:37:73:
                    0d:c6:65
                Exponent: 65537 (0x10001)
        X509v3 extensions:
            X509v3 Basic Constraints: 
                CA:FALSE
            Netscape Comment: 
                Easy-RSA Generated Certificate
            X509v3 Subject Key Identifier: 
                BD:E0:79:4C:57:44:D7:B1:7C:E5:59:69:4B:DF:06:82:DB:94:2B:73
            X509v3 Authority Key Identifier: 
                keyid:12:CD:60:04:D2:A0:80:9E:70:ED:C6:99:B8:7B:2C:C6:52:FD:19:A1
                DirName:/C=US/ST=OH/L=Columbus/O=VikingVPN/OU=MyOrganizationalUnit/CN=VikingVPN CA/name=EasyRSA/emailAddress=me@myhost.mydomain
                serial:CF:35:85:EE:80:BF:2A:3E

            X509v3 Extended Key Usage: 
                TLS Web Client Authentication
            X509v3 Key Usage: 
                Digital Signature
    Signature Algorithm: md5WithRSAEncryption
         e3:59:8b:22:18:25:7d:98:2c:bd:50:a4:25:58:df:8f:db:62:
         02:39:e7:2a:85:c7:c9:8f:6b:35:7e:40:ae:ab:c3:15:32:48:
         90:47:76:e2:d7:44:85:0a:e2:29:83:b6:5d:44:d7:55:81:04:
         22:6b:ee:61:68:25:04:0f:ed:dc:6a:2e:ae:21:08:e7:ea:7e:
         b6:88:88:0f:7f:9c:03:38:eb:2a:c0:4f:5a:10:51:81:fa:16:
         36:98:9a:5c:74:ab:96:50:96:56:1e:38:d6:a2:94:5e:1c:99:
         7f:4d:15:40:63:14:64:78:7f:78:f6:87:c3:db:e4:c7:7e:30:
         4b:51:18:6f:6d:43:a5:e1:98:10:f5:e8:d9:94:b2:92:29:29:
         3f:81:ed:4e:ef:0a:9e:c5:a1:3f:6d:09:3a:94:52:4b:a8:77:
         5f:01:21:8a:f0:83:47:0c:d9:63:a0:08:36:43:3c:e1:0e:07:
         b0:fe:8e:0d:ab:35:9c:66:06:7a:3c:d6:e5:44:33:ae:cc:7c:
         2b:43:06:77:08:cf:29:0f:43:82:55:c9:dd:d1:0d:00:75:d7:
         29:fe:d0:63:2b:3a:30:80:80:d9:16:5f:dc:b9:a4:28:7a:2c:
         6e:c7:db:e5:56:ae:73:bc:08:e5:b1:bc:a7:d4:d1:d3:0e:88:
         10:18:34:96:90:2a:dd:d7:96:06:b8:f1:a1:36:15:e5:4e:9e:
         9f:1c:b7:24:7a:6b:75:aa:3e:69:47:ca:9d:78:13:e6:13:db:
         79:f5:cf:20:31:e2:9c:69:c4:d9:d1:e2:89:61:21:9d:5d:44:
         29:3a:33:f7:69:a0:fa:1d:b3:63:31:49:f7:0e:57:a8:50:a4:
         bc:65:e0:57:45:54:79:5d:3e:12:8f:36:58:11:d4:28:54:73:
         f1:3e:49:ca:31:dd:df:8b:7b:bc:09:09:f1:d3:86:02:75:1e:
         9a:e2:3e:55:ea:fe:8c:07:46:57:31:b6:e3:f8:2a:ca:7f:d1:
         72:94:f1:32:a2:8f:7d:f7:ec:70:90:78:ae:74:e0:f8:40:34:
         06:d9:19:73:74:15:43:6d:0c:9a:d7:7c:06:d7:b8:71:ec:86:
         8f:d5:a6:d0:ab:f2:a7:12:15:37:a0:81:95:3b:e1:50:d6:b7:
         cf:9a:d4:b9:f2:6c:f5:74:71:78:45:ec:8f:d5:ff:13:1f:38:
         53:e4:27:43:3c:bc:49:a7:b7:60:d9:22:67:64:30:c4:42:a6:
         a9:5c:21:e0:90:24:9a:e7:33:35:e9:11:09:bb:a1:e7:f2:9f:
         0a:fd:e4:ac:1d:ec:39:6d:26:7a:0b:b0:7b:0b:c6:3c:70:8d:
         70:04:95:d2:28:9f:da:41
-----BEGIN CERTIFICATE-----
MIIGrDCCBJSgAwIBAgICCF8wDQYJKoZIhvcNAQEEBQAwgawxCzAJBgNVBAYTAlVT
MQswCQYDVQQIEwJPSDERMA8GA1UEBxMIQ29sdW1idXMxEjAQBgNVBAoTCVZpa2lu
Z1ZQTjEdMBsGA1UECxMUTXlPcmdhbml6YXRpb25hbFVuaXQxFTATBgNVBAMTDFZp
a2luZ1ZQTiBDQTEQMA4GA1UEKRMHRWFzeVJTQTEhMB8GCSqGSIb3DQEJARYSbWVA
bXlob3N0Lm15ZG9tYWluMB4XDTE0MDYyMDEzMTI0NFoXDTI0MDYxNzEzMTI0NFow
HjEcMBoGA1UEAxMTQ2xpZW50NzQ5Q2VydGQ4YjI5OTCCAiIwDQYJKoZIhvcNAQEB
BQADggIPADCCAgoCggIBALNsojXfzjmweoI3VcAY2MsqJvtLzDQ1HQXMEIq30FiK
8kW8b26rDG8DvcvStp7M6I0E6wv4tnuPJ0YFvOKPOSVrep9mTx3v81kYGTRAjjWy
I1NGpPJSUE0BDaH7qjc8VewbIF+epOBZ111xqDWAU3sXqDhza8o8blN9LgPHicoq
TCYRvkTp+4lhG/Cn0xBRr0V5nQXAi7NG33hALf+ogQeRUJPP9+UuQp1jxVNjDp0Y
N3qFlBObAJYC56CPQg2XvXXVGkIyJ8AZPI/sD0YfKu04M2LV62XpP+5lit8ttt/c
TkS6LIQE02zfoSpWNc4jRyIh4eCNH8ZMOA/BWwWJ42oni04fZy6Gr6vKBD4hS4NU
oaVrdyvE0rENKF/DVbYNwtybdeztW6yk5x10JiUdtBk//ga4MhLUdw+52ZafxCrx
L7O1HKVf5Lc79K0P+SyeLR2c89hXS29Kc2ISA2uxxwF+82LP4rioRAyzfoVIH6ix
UCbNUxEL2eK9covxJSnx4oxJhCaBpaZJ4Yi2oc6s5hfmcp3EJPIfxlMUoU0MZv9g
ZMH6pRTLBbXMmWWTqA8v8ENspA61NvRHR23AZeHedCqnVsyFT6cHSdZOQLi6wuwY
JawJRWHSUk+2loT728+5LjAF2s849iXEHOMcOGLUP0B0ZEu4HWLTRWAEBDdzDcZl
AgMBAAGjggFjMIIBXzAJBgNVHRMEAjAAMC0GCWCGSAGG+EIBDQQgFh5FYXN5LVJT
QSBHZW5lcmF0ZWQgQ2VydGlmaWNhdGUwHQYDVR0OBBYEFL3geUxXRNexfOVZaUvf
BoLblCtzMIHhBgNVHSMEgdkwgdaAFBLNYATSoICecO3Gmbh7LMZS/RmhoYGypIGv
MIGsMQswCQYDVQQGEwJVUzELMAkGA1UECBMCT0gxETAPBgNVBAcTCENvbHVtYnVz
MRIwEAYDVQQKEwlWaWtpbmdWUE4xHTAbBgNVBAsTFE15T3JnYW5pemF0aW9uYWxV
bml0MRUwEwYDVQQDEwxWaWtpbmdWUE4gQ0ExEDAOBgNVBCkTB0Vhc3lSU0ExITAf
BgkqhkiG9w0BCQEWEm1lQG15aG9zdC5teWRvbWFpboIJAM81he6Avyo+MBMGA1Ud
JQQMMAoGCCsGAQUFBwMCMAsGA1UdDwQEAwIHgDANBgkqhkiG9w0BAQQFAAOCAgEA
41mLIhglfZgsvVCkJVjfj9tiAjnnKoXHyY9rNX5ArqvDFTJIkEd24tdEhQriKYO2
XUTXVYEEImvuYWglBA/t3GouriEI5+p+toiID3+cAzjrKsBPWhBRgfoWNpiaXHSr
llCWVh441qKUXhyZf00VQGMUZHh/ePaHw9vkx34wS1EYb21DpeGYEPXo2ZSykikp
P4HtTu8KnsWhP20JOpRSS6h3XwEhivCDRwzZY6AINkM84Q4HsP6ODas1nGYGejzW
5UQzrsx8K0MGdwjPKQ9DglXJ3dENAHXXKf7QYys6MICA2RZf3LmkKHosbsfb5Vau
c7wI5bG8p9TR0w6IEBg0lpAq3deWBrjxoTYV5U6enxy3JHprdao+aUfKnXgT5hPb
efXPIDHinGnE2dHiiWEhnV1EKToz92mg+h2zYzFJ9w5XqFCkvGXgV0VUeV0+Eo82
WBHUKFRz8T5JyjHd34t7vAkJ8dOGAnUemuI+Ver+jAdGVzG24/gqyn/RcpTxMqKP
fffscJB4rnTg+EA0BtkZc3QVQ20Mmtd8Bte4ceyGj9Wm0KvypxIVN6CBlTvhUNa3
z5rUufJs9XRxeEXsj9X/Ex84U+QnQzy8Sae3YNkiZ2QwxEKmqVwh4JAkmuczNekR
Cbuh5/KfCv3krB3sOW0meguwewvGPHCNcASV0iif2kE=
-----END CERTIFICATE-----
