Certificate:
    Data:
        Version: 3 (0x2)
        Serial Number: 631 (0x277)
    Signature Algorithm: md5WithRSAEncryption
        Issuer: C=US, ST=OH, L=Columbus, O=VikingVPN, OU=MyOrganizationalUnit, CN=VikingVPN CA/name=EasyRSA/emailAddress=me@myhost.mydomain
        Validity
            Not Before: Dec 20 17:51:56 2013 GMT
            Not After : Dec 18 17:51:56 2023 GMT
        Subject: CN=Client242Cert4ed75d
        Subject Public Key Info:
            Public Key Algorithm: rsaEncryption
                Public-Key: (4096 bit)
                Modulus:
                    00:e6:68:29:3f:f7:91:27:bc:bf:57:c7:1b:f2:00:
                    83:17:92:60:6e:12:84:68:e5:60:70:a3:01:11:30:
                    82:e0:b0:34:57:8c:e3:dc:c1:d2:23:45:d5:08:42:
                    fd:0f:c6:a9:fd:ae:b0:3d:a2:9c:a1:9c:ec:43:f2:
                    c3:92:b3:a2:bc:5e:3d:3d:d7:7a:33:f3:5f:20:cf:
                    23:00:b9:e8:13:18:c2:7e:8e:55:3e:fa:fc:f2:06:
                    a3:92:5f:ff:c0:76:f7:2c:a6:f0:e5:d2:d8:26:d6:
                    7c:71:14:ea:7f:83:f2:9f:c9:11:b1:41:7e:10:cc:
                    09:16:23:ad:29:78:f5:ba:bc:70:b2:96:3f:ac:9f:
                    c6:75:dc:69:e3:94:79:2a:d2:9f:cd:fe:61:95:66:
                    b9:68:8a:d3:b0:31:c2:a7:c3:64:38:80:d1:b8:77:
                    ef:a7:c8:b3:0e:78:a2:e8:53:b5:73:f5:e3:70:7e:
                    c5:9e:7b:87:f4:c7:29:e3:f3:23:7b:68:a1:cc:31:
                    ce:86:4c:f3:86:3d:07:66:d5:2d:99:3d:61:a0:02:
                    ef:90:e1:28:b8:1c:ca:41:c8:94:40:c4:17:c4:7d:
                    a6:de:ff:b3:82:e5:99:7d:46:a7:bf:84:2f:a0:a3:
                    4e:23:d3:b3:2c:7d:74:cd:d9:e8:6b:9f:21:aa:12:
                    42:a9:29:d9:7a:38:74:12:4b:5e:a6:ab:12:04:80:
                    49:c5:b7:0c:9f:86:14:1c:0b:41:a7:9e:91:ab:dc:
                    1d:92:25:89:4e:b5:fa:64:45:74:33:e2:1e:f1:6d:
                    df:1a:9b:5f:9d:a2:1c:18:46:5a:1b:75:6b:15:95:
                    d9:d6:9e:6e:cd:d9:7e:85:9d:18:65:e2:42:fd:c6:
                    16:77:34:0b:2e:64:b7:ff:2c:8c:3d:9b:25:c4:a7:
                    83:f1:10:e3:3f:1a:da:36:cc:5f:64:95:8d:4c:7b:
                    27:a3:94:93:0b:69:0b:f4:59:9e:00:2c:b0:37:a5:
                    ea:a0:3d:ab:52:d2:02:1c:d4:e3:1f:21:6b:96:cc:
                    e5:4b:f6:6b:d9:7e:c3:4b:93:7e:c2:fb:97:1d:ce:
                    c5:01:e8:bd:23:7b:08:df:bb:08:af:b9:ac:00:62:
                    00:fa:05:cf:df:c7:11:59:df:1c:70:84:2b:b3:56:
                    4a:0b:fe:fb:d5:15:e3:9a:f3:2e:95:a3:95:ce:22:
                    24:02:ad:bc:99:29:dc:3b:a6:58:14:cd:1d:a0:69:
                    f1:f6:2d:42:5f:58:cf:dd:33:71:ab:11:94:32:73:
                    14:2d:ed:3a:68:9e:81:54:dc:f5:51:86:95:98:e5:
                    49:82:42:78:d8:4f:63:3b:5d:9e:c5:ae:33:d0:71:
                    41:7a:2f
                Exponent: 65537 (0x10001)
        X509v3 extensions:
            X509v3 Basic Constraints: 
                CA:FALSE
            Netscape Comment: 
                Easy-RSA Generated Certificate
            X509v3 Subject Key Identifier: 
                23:D9:A5:2F:EA:92:48:68:60:0D:FB:12:32:A7:F3:AD:E0:20:34:E4
            X509v3 Authority Key Identifier: 
                keyid:12:CD:60:04:D2:A0:80:9E:70:ED:C6:99:B8:7B:2C:C6:52:FD:19:A1
                DirName:/C=US/ST=OH/L=Columbus/O=VikingVPN/OU=MyOrganizationalUnit/CN=VikingVPN CA/name=EasyRSA/emailAddress=me@myhost.mydomain
                serial:CF:35:85:EE:80:BF:2A:3E

            X509v3 Extended Key Usage: 
                TLS Web Client Authentication
            X509v3 Key Usage: 
                Digital Signature
    Signature Algorithm: md5WithRSAEncryption
         63:b8:79:4c:bd:6a:03:d3:80:83:d9:0d:3b:79:76:65:d7:9b:
         ed:c6:34:cc:98:54:fd:33:1e:e9:c5:b6:a2:4e:15:d9:19:18:
         30:a8:4a:18:66:49:01:30:f4:36:eb:72:0e:c2:66:16:72:14:
         3c:ac:93:82:0a:c3:da:19:d9:7f:d4:fe:13:7f:b9:72:12:70:
         dc:b9:da:4d:01:af:74:37:0f:b1:89:6b:97:4a:6b:41:a3:dc:
         82:82:61:73:49:01:ff:84:58:97:cd:1f:17:47:d2:6e:7f:5b:
         33:2a:66:00:78:24:e0:59:e3:fb:b3:ae:4e:1e:43:4c:b4:99:
         92:71:a4:74:26:ef:c6:47:de:04:d8:65:05:a0:95:43:7e:5f:
         c0:1f:97:b9:3e:26:79:4f:79:cc:41:51:6e:b3:05:39:c8:dd:
         a9:db:77:b2:af:e1:a0:f1:28:09:7f:21:e0:c7:48:c0:90:d0:
         0a:7b:9e:c9:db:a4:b5:a7:36:70:79:18:35:2a:3a:6e:3e:84:
         b1:a8:b6:26:4b:33:a4:cb:11:1f:86:f4:85:73:95:6f:80:76:
         73:e1:13:55:8b:5e:aa:a0:99:59:17:47:8c:21:50:00:ba:ea:
         de:c1:e0:6c:7e:3d:4e:30:cb:87:d5:af:ec:61:31:9a:fd:70:
         af:21:09:8c:f1:8d:a1:8a:ae:1f:8e:8b:2f:4a:06:07:c3:09:
         1a:4f:2d:65:38:9f:fa:d7:61:a8:38:6d:56:a2:5d:48:45:37:
         fd:5f:84:e3:20:61:25:44:96:99:8b:5d:c8:cc:d6:25:da:8d:
         48:0f:71:c9:63:f8:e3:7f:be:b8:1e:e0:8e:e2:43:7a:58:22:
         14:af:21:2b:dc:c5:ca:f3:6f:cc:7b:66:8e:2f:bf:0d:63:e2:
         26:0c:75:e8:0a:a8:8b:11:33:86:a8:17:cf:34:9f:95:57:df:
         fd:83:8e:a2:98:68:41:7c:b1:1f:b6:c7:5e:07:f9:35:d9:50:
         90:ed:36:37:f9:04:be:ee:c6:0c:0b:55:99:73:d0:7e:9d:bb:
         c9:7c:85:4a:9e:d3:e0:05:ae:2a:8e:b1:ce:c6:38:bb:96:8f:
         15:59:a9:65:3b:3c:63:e4:cc:6b:1e:78:a9:0c:23:ed:de:72:
         11:d1:2a:b6:62:7a:01:0f:82:00:61:89:b9:01:6f:ed:97:2a:
         6c:1f:24:fb:14:49:6b:1e:e6:65:80:b3:36:43:7b:53:76:4f:
         a0:86:81:3e:b7:bb:60:05:0f:54:e9:a0:31:ff:55:f3:dd:6c:
         c4:bd:82:1b:1c:b0:fc:45:8b:fa:ad:63:03:ca:df:89:9c:12:
         a0:87:51:c5:ae:66:e0:fb
-----BEGIN CERTIFICATE-----
MIIGrDCCBJSgAwIBAgICAncwDQYJKoZIhvcNAQEEBQAwgawxCzAJBgNVBAYTAlVT
MQswCQYDVQQIEwJPSDERMA8GA1UEBxMIQ29sdW1idXMxEjAQBgNVBAoTCVZpa2lu
Z1ZQTjEdMBsGA1UECxMUTXlPcmdhbml6YXRpb25hbFVuaXQxFTATBgNVBAMTDFZp
a2luZ1ZQTiBDQTEQMA4GA1UEKRMHRWFzeVJTQTEhMB8GCSqGSIb3DQEJARYSbWVA
bXlob3N0Lm15ZG9tYWluMB4XDTEzMTIyMDE3NTE1NloXDTIzMTIxODE3NTE1Nlow
HjEcMBoGA1UEAxMTQ2xpZW50MjQyQ2VydDRlZDc1ZDCCAiIwDQYJKoZIhvcNAQEB
BQADggIPADCCAgoCggIBAOZoKT/3kSe8v1fHG/IAgxeSYG4ShGjlYHCjAREwguCw
NFeM49zB0iNF1QhC/Q/Gqf2usD2inKGc7EPyw5KzorxePT3XejPzXyDPIwC56BMY
wn6OVT76/PIGo5Jf/8B29yym8OXS2CbWfHEU6n+D8p/JEbFBfhDMCRYjrSl49bq8
cLKWP6yfxnXcaeOUeSrSn83+YZVmuWiK07AxwqfDZDiA0bh376fIsw54ouhTtXP1
43B+xZ57h/THKePzI3toocwxzoZM84Y9B2bVLZk9YaAC75DhKLgcykHIlEDEF8R9
pt7/s4LlmX1Gp7+EL6CjTiPTsyx9dM3Z6GufIaoSQqkp2Xo4dBJLXqarEgSAScW3
DJ+GFBwLQaeekavcHZIliU61+mRFdDPiHvFt3xqbX52iHBhGWht1axWV2daebs3Z
foWdGGXiQv3GFnc0Cy5kt/8sjD2bJcSng/EQ4z8a2jbMX2SVjUx7J6OUkwtpC/RZ
ngAssDel6qA9q1LSAhzU4x8ha5bM5Uv2a9l+w0uTfsL7lx3OxQHovSN7CN+7CK+5
rABiAPoFz9/HEVnfHHCEK7NWSgv++9UV45rzLpWjlc4iJAKtvJkp3DumWBTNHaBp
8fYtQl9Yz90zcasRlDJzFC3tOmiegVTc9VGGlZjlSYJCeNhPYztdnsWuM9BxQXov
AgMBAAGjggFjMIIBXzAJBgNVHRMEAjAAMC0GCWCGSAGG+EIBDQQgFh5FYXN5LVJT
QSBHZW5lcmF0ZWQgQ2VydGlmaWNhdGUwHQYDVR0OBBYEFCPZpS/qkkhoYA37EjKn
863gIDTkMIHhBgNVHSMEgdkwgdaAFBLNYATSoICecO3Gmbh7LMZS/RmhoYGypIGv
MIGsMQswCQYDVQQGEwJVUzELMAkGA1UECBMCT0gxETAPBgNVBAcTCENvbHVtYnVz
MRIwEAYDVQQKEwlWaWtpbmdWUE4xHTAbBgNVBAsTFE15T3JnYW5pemF0aW9uYWxV
bml0MRUwEwYDVQQDEwxWaWtpbmdWUE4gQ0ExEDAOBgNVBCkTB0Vhc3lSU0ExITAf
BgkqhkiG9w0BCQEWEm1lQG15aG9zdC5teWRvbWFpboIJAM81he6Avyo+MBMGA1Ud
JQQMMAoGCCsGAQUFBwMCMAsGA1UdDwQEAwIHgDANBgkqhkiG9w0BAQQFAAOCAgEA
Y7h5TL1qA9OAg9kNO3l2Zdeb7cY0zJhU/TMe6cW2ok4V2RkYMKhKGGZJATD0Nuty
DsJmFnIUPKyTggrD2hnZf9T+E3+5chJw3LnaTQGvdDcPsYlrl0prQaPcgoJhc0kB
/4RYl80fF0fSbn9bMypmAHgk4Fnj+7OuTh5DTLSZknGkdCbvxkfeBNhlBaCVQ35f
wB+XuT4meU95zEFRbrMFOcjdqdt3sq/hoPEoCX8h4MdIwJDQCnueyduktac2cHkY
NSo6bj6Esai2JkszpMsRH4b0hXOVb4B2c+ETVYteqqCZWRdHjCFQALrq3sHgbH49
TjDLh9Wv7GExmv1wryEJjPGNoYquH46LL0oGB8MJGk8tZTif+tdhqDhtVqJdSEU3
/V+E4yBhJUSWmYtdyMzWJdqNSA9xyWP443++uB7gjuJDelgiFK8hK9zFyvNvzHtm
ji+/DWPiJgx16AqoixEzhqgXzzSflVff/YOOophoQXyxH7bHXgf5NdlQkO02N/kE
vu7GDAtVmXPQfp27yXyFSp7T4AWuKo6xzsY4u5aPFVmpZTs8Y+TMax54qQwj7d5y
EdEqtmJ6AQ+CAGGJuQFv7ZcqbB8k+xRJax7mZYCzNkN7U3ZPoIaBPre7YAUPVOmg
Mf9V891sxL2CGxyw/EWL+q1jA8rfiZwSoIdRxa5m4Ps=
-----END CERTIFICATE-----
