Certificate:
    Data:
        Version: 3 (0x2)
        Serial Number: 12470 (0x30b6)
    Signature Algorithm: sha256WithRSAEncryption
        Issuer: C=US, ST=OH, L=Columbus, O=VikingVPN, OU=MyOrganizationalUnit, CN=VikingVPN CA/name=EasyRSA/emailAddress=me@myhost.mydomain
        Validity
            Not Before: Jan 23 20:01:29 2018 GMT
            Not After : Jan 21 20:01:29 2028 GMT
        Subject: CN=Client3204Certcbaca7
        Subject Public Key Info:
            Public Key Algorithm: rsaEncryption
                Public-Key: (4096 bit)
                Modulus:
                    00:9e:25:1a:41:b2:2f:7b:2c:46:ec:82:e7:ff:df:
                    83:49:9d:1f:b5:9c:f5:9a:4a:31:e5:e3:3b:47:17:
                    55:2d:a4:27:56:be:42:9c:f9:9b:03:e0:ef:d6:57:
                    cf:cd:6d:ae:e7:d7:72:3a:4f:cc:df:91:ed:67:73:
                    94:dd:53:a9:b2:b3:ba:2f:bb:12:0c:50:e9:d1:7a:
                    76:d4:1f:93:27:66:e5:6c:ef:96:b1:e0:93:78:78:
                    c9:16:d2:c3:13:d4:77:70:b0:f2:57:c6:81:06:3d:
                    fd:b0:e6:a4:47:57:d8:fd:77:75:fd:14:22:12:dc:
                    cd:63:ce:06:2f:c0:4d:d0:41:89:ec:ff:a9:28:6e:
                    4b:bf:2b:ff:4d:4c:55:ba:da:43:77:59:a8:a0:6c:
                    cd:3b:2b:ea:f2:bf:14:6d:82:df:0f:0d:be:5e:9f:
                    1d:e2:68:ad:60:ae:bf:33:6e:52:71:94:c8:e2:21:
                    1e:79:27:b7:bc:73:e3:a4:5a:c4:49:d4:31:6f:4b:
                    c5:d5:2f:aa:09:84:5b:0e:3b:3d:2f:6c:db:af:de:
                    5a:b1:e5:37:b8:fd:6b:bd:c4:c5:c0:f5:33:1a:1d:
                    37:bf:1d:9d:09:aa:54:8d:3c:e8:8f:4d:23:7c:9b:
                    ae:b2:0f:eb:71:cf:97:c6:ff:ff:47:52:72:3b:fc:
                    bd:39:42:ef:0b:5a:7a:c3:3c:47:9a:b3:05:f3:4c:
                    b9:54:8c:d1:bd:59:b5:23:8d:24:8a:b2:e4:ca:aa:
                    41:bb:a6:75:bc:a6:36:1b:2e:c2:92:35:ba:2d:f6:
                    c5:4d:6b:2a:81:2c:9a:03:eb:20:90:8e:de:96:1b:
                    fc:7e:bb:d2:ae:5f:e7:f5:b7:6f:13:e8:05:98:d7:
                    d5:7a:7b:4c:0d:a5:83:77:78:f6:f5:57:f4:07:ea:
                    fb:df:47:47:3a:df:44:41:a6:fe:eb:09:20:31:6c:
                    b7:bc:a5:f2:95:82:55:23:b8:c6:9d:f7:c8:93:30:
                    10:ef:2a:b2:fe:cb:e6:2d:37:a6:c4:a2:42:a1:3d:
                    e5:a0:d8:5a:65:14:78:3e:9d:96:cc:15:4a:3b:97:
                    cf:72:e9:91:6f:de:48:87:c9:f8:79:5c:fb:71:bd:
                    78:3b:3e:86:25:83:8f:12:0b:62:3a:5e:e1:9d:f9:
                    c8:71:e7:fa:61:bd:b6:32:e9:95:ed:aa:e2:1d:a6:
                    4a:6a:cd:73:57:fb:8a:5a:28:dd:bd:05:f5:d1:d9:
                    72:33:21:c0:2e:ed:a6:cf:55:99:07:70:ab:55:31:
                    36:9c:05:49:57:4c:c9:b5:5f:b2:34:32:df:f5:b5:
                    c9:8d:46:bf:f6:f5:f7:66:b3:0d:24:18:8b:43:ef:
                    29:62:65
                Exponent: 65537 (0x10001)
        X509v3 extensions:
            X509v3 Basic Constraints: 
                CA:FALSE
            Netscape Comment: 
                Easy-RSA Generated Certificate
            X509v3 Subject Key Identifier: 
                4D:EC:94:F7:6C:B2:B9:7E:7A:A2:C6:2A:5E:94:20:40:EB:5F:21:D2
            X509v3 Authority Key Identifier: 
                keyid:12:CD:60:04:D2:A0:80:9E:70:ED:C6:99:B8:7B:2C:C6:52:FD:19:A1
                DirName:/C=US/ST=OH/L=Columbus/O=VikingVPN/OU=MyOrganizationalUnit/CN=VikingVPN CA/name=EasyRSA/emailAddress=me@myhost.mydomain
                serial:CF:35:85:EE:80:BF:2A:3E

            X509v3 Extended Key Usage: 
                TLS Web Client Authentication
            X509v3 Key Usage: 
                Digital Signature
    Signature Algorithm: sha256WithRSAEncryption
         c4:7e:97:ba:96:93:e8:f9:8c:33:3a:5b:d1:a9:3c:41:d8:4b:
         c8:af:13:fc:7e:32:8e:a0:d5:51:88:5b:e9:4c:84:60:ce:a0:
         72:d6:08:c2:85:1a:93:33:e6:2b:61:66:f5:21:01:37:c0:6b:
         6d:97:33:44:06:7e:c4:01:ba:7b:34:04:1c:08:33:1b:c7:6e:
         77:56:01:32:ed:da:67:04:32:a7:8a:35:23:23:5b:61:8e:e1:
         ff:2f:87:bd:21:f8:72:3f:23:a5:cf:cc:c2:bf:5b:1a:0f:4f:
         17:c1:82:59:9a:ad:6b:18:53:ea:0b:03:0e:c5:a8:d8:92:28:
         1d:fe:6b:15:7e:e0:28:3f:94:25:c1:57:02:5e:85:1b:d0:55:
         62:b8:a8:43:92:20:0a:f4:78:b4:1e:48:93:42:97:06:42:8a:
         6f:86:a6:76:a1:20:03:89:1e:df:3b:dc:72:99:4a:02:34:74:
         35:29:b0:35:6b:76:6d:a9:4f:c6:fa:af:58:58:13:62:67:5c:
         fd:f9:25:6d:1e:8a:b6:31:bf:16:ef:8a:cb:8b:08:59:03:74:
         23:02:62:37:91:4d:d6:4d:21:ac:3e:12:d8:3d:bb:05:ce:45:
         a7:45:7f:aa:1a:e8:1a:1d:f0:70:f8:bb:2d:21:34:5f:ae:ac:
         1b:98:9d:62:a0:8b:01:9e:a4:da:10:1d:35:f4:ef:15:f7:d9:
         11:67:79:46:00:70:cd:b8:6e:6e:e8:63:ef:db:23:d1:34:4a:
         79:28:31:02:82:b9:51:5b:10:b7:77:40:1d:df:32:b3:cd:82:
         29:30:b5:5f:df:b2:e9:4b:10:62:3d:01:05:00:43:29:a8:f1:
         56:25:ab:e8:14:54:32:cc:52:69:6b:42:3f:a7:9b:70:5a:b7:
         17:12:2e:8e:b0:cb:fe:3e:b2:5c:d0:0a:1a:9b:4d:63:fa:12:
         2d:63:bf:36:f5:61:3d:80:97:d2:c2:a9:79:34:17:8d:7c:7d:
         fa:3d:d4:68:15:f3:be:d6:ee:a7:a7:43:7a:cb:0e:44:41:43:
         08:35:72:d6:4b:84:b3:55:ad:2b:f6:db:01:90:1d:5e:06:83:
         c0:db:4d:74:56:59:0e:22:53:ba:a5:2b:f4:ae:b4:09:bd:29:
         61:3a:a4:80:f9:55:32:25:de:26:62:3a:cb:d2:63:60:87:49:
         c2:8e:19:e5:a8:87:54:9d:51:fd:e1:31:fd:d4:70:10:7a:8a:
         dc:ed:20:4c:1c:6e:49:43:48:c3:b7:1d:5a:20:56:d0:2b:b8:
         14:f9:39:27:de:33:fd:40:93:5b:71:6c:a0:49:f0:d9:74:22:
         86:6c:be:3b:eb:cf:7a:36
-----BEGIN CERTIFICATE-----
MIIGrTCCBJWgAwIBAgICMLYwDQYJKoZIhvcNAQELBQAwgawxCzAJBgNVBAYTAlVT
MQswCQYDVQQIEwJPSDERMA8GA1UEBxMIQ29sdW1idXMxEjAQBgNVBAoTCVZpa2lu
Z1ZQTjEdMBsGA1UECxMUTXlPcmdhbml6YXRpb25hbFVuaXQxFTATBgNVBAMTDFZp
a2luZ1ZQTiBDQTEQMA4GA1UEKRMHRWFzeVJTQTEhMB8GCSqGSIb3DQEJARYSbWVA
bXlob3N0Lm15ZG9tYWluMB4XDTE4MDEyMzIwMDEyOVoXDTI4MDEyMTIwMDEyOVow
HzEdMBsGA1UEAxMUQ2xpZW50MzIwNENlcnRjYmFjYTcwggIiMA0GCSqGSIb3DQEB
AQUAA4ICDwAwggIKAoICAQCeJRpBsi97LEbsguf/34NJnR+1nPWaSjHl4ztHF1Ut
pCdWvkKc+ZsD4O/WV8/Nba7n13I6T8zfke1nc5TdU6mys7ovuxIMUOnRenbUH5Mn
ZuVs75ax4JN4eMkW0sMT1HdwsPJXxoEGPf2w5qRHV9j9d3X9FCIS3M1jzgYvwE3Q
QYns/6kobku/K/9NTFW62kN3WaigbM07K+ryvxRtgt8PDb5enx3iaK1grr8zblJx
lMjiIR55J7e8c+OkWsRJ1DFvS8XVL6oJhFsOOz0vbNuv3lqx5Te4/Wu9xMXA9TMa
HTe/HZ0JqlSNPOiPTSN8m66yD+txz5fG//9HUnI7/L05Qu8LWnrDPEeaswXzTLlU
jNG9WbUjjSSKsuTKqkG7pnW8pjYbLsKSNbot9sVNayqBLJoD6yCQjt6WG/x+u9Ku
X+f1t28T6AWY19V6e0wNpYN3ePb1V/QH6vvfR0c630RBpv7rCSAxbLe8pfKVglUj
uMad98iTMBDvKrL+y+YtN6bEokKhPeWg2FplFHg+nZbMFUo7l89y6ZFv3kiHyfh5
XPtxvXg7PoYlg48SC2I6XuGd+chx5/phvbYy6ZXtquIdpkpqzXNX+4paKN29BfXR
2XIzIcAu7abPVZkHcKtVMTacBUlXTMm1X7I0Mt/1tcmNRr/29fdmsw0kGItD7yli
ZQIDAQABo4IBYzCCAV8wCQYDVR0TBAIwADAtBglghkgBhvhCAQ0EIBYeRWFzeS1S
U0EgR2VuZXJhdGVkIENlcnRpZmljYXRlMB0GA1UdDgQWBBRN7JT3bLK5fnqixipe
lCBA618h0jCB4QYDVR0jBIHZMIHWgBQSzWAE0qCAnnDtxpm4eyzGUv0ZoaGBsqSB
rzCBrDELMAkGA1UEBhMCVVMxCzAJBgNVBAgTAk9IMREwDwYDVQQHEwhDb2x1bWJ1
czESMBAGA1UEChMJVmlraW5nVlBOMR0wGwYDVQQLExRNeU9yZ2FuaXphdGlvbmFs
VW5pdDEVMBMGA1UEAxMMVmlraW5nVlBOIENBMRAwDgYDVQQpEwdFYXN5UlNBMSEw
HwYJKoZIhvcNAQkBFhJtZUBteWhvc3QubXlkb21haW6CCQDPNYXugL8qPjATBgNV
HSUEDDAKBggrBgEFBQcDAjALBgNVHQ8EBAMCB4AwDQYJKoZIhvcNAQELBQADggIB
AMR+l7qWk+j5jDM6W9GpPEHYS8ivE/x+Mo6g1VGIW+lMhGDOoHLWCMKFGpMz5ith
ZvUhATfAa22XM0QGfsQBuns0BBwIMxvHbndWATLt2mcEMqeKNSMjW2GO4f8vh70h
+HI/I6XPzMK/WxoPTxfBglmarWsYU+oLAw7FqNiSKB3+axV+4Cg/lCXBVwJehRvQ
VWK4qEOSIAr0eLQeSJNClwZCim+GpnahIAOJHt873HKZSgI0dDUpsDVrdm2pT8b6
r1hYE2JnXP35JW0eirYxvxbvisuLCFkDdCMCYjeRTdZNIaw+Etg9uwXORadFf6oa
6Bod8HD4uy0hNF+urBuYnWKgiwGepNoQHTX07xX32RFneUYAcM24bm7oY+/bI9E0
SnkoMQKCuVFbELd3QB3fMrPNgikwtV/fsulLEGI9AQUAQymo8VYlq+gUVDLMUmlr
Qj+nm3BatxcSLo6wy/4+slzQChqbTWP6Ei1jvzb1YT2Al9LCqXk0F418ffo91GgV
877W7qenQ3rLDkRBQwg1ctZLhLNVrSv22wGQHV4Gg8DbTXRWWQ4iU7qlK/SutAm9
KWE6pID5VTIl3iZiOsvSY2CHScKOGeWoh1SdUf3hMf3UcBB6itztIEwcbklDSMO3
HVogVtAruBT5OSfeM/1Ak1txbKBJ8Nl0IoZsvjvrz3o2
-----END CERTIFICATE-----
