Certificate:
    Data:
        Version: 3 (0x2)
        Serial Number: 12411 (0x307b)
    Signature Algorithm: sha256WithRSAEncryption
        Issuer: C=US, ST=OH, L=Columbus, O=VikingVPN, OU=MyOrganizationalUnit, CN=VikingVPN CA/name=EasyRSA/emailAddress=me@myhost.mydomain
        Validity
            Not Before: Jan 15 03:32:22 2018 GMT
            Not After : Jan 13 03:32:22 2028 GMT
        Subject: CN=Client2920Certf16c3f
        Subject Public Key Info:
            Public Key Algorithm: rsaEncryption
                Public-Key: (4096 bit)
                Modulus:
                    00:c3:42:0b:47:d2:89:03:86:66:0a:16:b8:ac:33:
                    99:02:07:f5:c5:c8:ad:d1:5b:1a:31:63:89:7f:f4:
                    ab:43:15:62:5f:88:7b:e6:af:92:25:4e:1d:17:d3:
                    6e:3e:bd:87:1d:15:a1:18:c8:49:f8:81:83:de:b9:
                    2a:34:fc:0a:56:b7:a5:e3:52:b3:69:70:51:7f:cb:
                    eb:4c:c7:b1:bc:6a:ed:93:77:43:f0:21:af:23:bf:
                    eb:12:39:8f:14:34:ee:8d:72:10:dc:c0:18:54:50:
                    7f:a4:59:32:5e:98:45:2e:59:db:06:12:24:11:5f:
                    0d:f1:00:f5:f9:fb:05:2d:ff:e2:2b:28:91:4b:02:
                    1d:5c:cc:41:1e:ce:0a:5f:0a:f4:c9:a5:fe:6d:fb:
                    30:11:8e:ab:4e:a5:30:ad:7a:a5:c9:02:97:7c:42:
                    85:4e:d5:07:89:fb:8c:28:a4:c4:09:b4:5f:e9:d0:
                    4b:ce:09:18:4e:e8:86:a0:41:4a:78:46:a9:43:a3:
                    a1:6f:dd:ea:98:5a:cb:f8:3d:c6:c5:29:c9:ae:2c:
                    e8:10:f9:92:c7:cc:7d:f7:64:5c:22:37:82:57:74:
                    6b:14:31:40:98:86:bd:9a:d0:83:34:84:06:2c:fd:
                    24:65:7f:b0:15:52:fc:35:51:36:76:5d:9b:76:2b:
                    b5:4d:c6:9e:03:1f:06:1e:2a:8f:0d:54:83:61:0c:
                    b7:ba:14:61:7c:66:69:9a:c5:55:ff:2a:b4:dd:db:
                    0a:0b:a6:7d:b4:9e:27:49:db:1e:2a:6d:0c:a2:58:
                    54:9d:22:4f:20:60:72:12:12:56:20:f7:7b:34:ca:
                    1a:f7:8d:78:ab:a0:ca:b7:22:70:e1:6c:74:ec:5f:
                    74:49:28:98:d0:f4:20:d1:7c:17:ab:82:02:1f:5d:
                    b5:4d:21:d8:05:4b:5e:78:70:38:31:15:99:73:46:
                    b1:23:5c:5c:19:41:92:f3:95:25:08:ca:8c:19:3d:
                    ac:e7:00:a4:3e:bb:b3:ee:8f:46:9f:59:87:94:ab:
                    5d:d6:93:5f:6b:96:73:de:3c:c3:39:ba:e1:fb:5b:
                    c2:dc:aa:ec:4d:e4:f3:5d:54:3f:ab:bd:bb:c6:78:
                    f5:cf:da:7d:0a:85:da:db:ae:20:1d:cd:de:c1:70:
                    92:1f:31:be:8e:8e:5f:88:5a:c9:05:c5:38:42:d4:
                    cf:fa:18:76:ea:83:18:9c:ba:52:b6:e4:7c:13:dd:
                    12:ba:9c:1f:e6:84:36:cf:6c:50:2f:1e:30:eb:d3:
                    45:4a:74:9d:43:88:7c:e8:6f:f5:2b:10:cf:47:05:
                    cb:b4:95:38:8e:3b:f8:38:5b:c3:62:ad:c8:0f:1e:
                    12:c8:19
                Exponent: 65537 (0x10001)
        X509v3 extensions:
            X509v3 Basic Constraints: 
                CA:FALSE
            Netscape Comment: 
                Easy-RSA Generated Certificate
            X509v3 Subject Key Identifier: 
                1B:E5:54:18:F2:72:CD:D0:E5:A4:6B:00:3D:0F:F1:51:1A:F5:47:2D
            X509v3 Authority Key Identifier: 
                keyid:12:CD:60:04:D2:A0:80:9E:70:ED:C6:99:B8:7B:2C:C6:52:FD:19:A1
                DirName:/C=US/ST=OH/L=Columbus/O=VikingVPN/OU=MyOrganizationalUnit/CN=VikingVPN CA/name=EasyRSA/emailAddress=me@myhost.mydomain
                serial:CF:35:85:EE:80:BF:2A:3E

            X509v3 Extended Key Usage: 
                TLS Web Client Authentication
            X509v3 Key Usage: 
                Digital Signature
    Signature Algorithm: sha256WithRSAEncryption
         93:b9:bc:7f:84:a9:f0:91:01:e3:2d:61:d0:12:b4:90:67:5a:
         dd:cc:02:b6:3f:b3:e4:23:2a:4a:13:a7:ed:14:2a:cc:f6:74:
         a5:12:ad:57:35:f7:b8:2d:49:2e:96:6f:ee:ca:1e:f2:93:d6:
         d8:75:5a:14:44:77:a3:2d:15:1d:c0:ca:03:1a:cb:71:f3:96:
         2a:67:6c:75:25:5c:f2:b4:08:bc:e2:d8:53:05:32:22:97:85:
         e5:97:97:60:bd:ca:94:a4:30:51:d3:ed:3d:5c:95:43:70:72:
         52:31:60:89:4d:ac:bd:3d:b5:52:60:de:12:86:c8:f7:5f:42:
         c0:d5:26:77:ae:cb:e8:6a:1f:2b:73:c4:db:61:fd:1d:a2:4a:
         a6:4b:12:46:14:eb:26:ec:1b:fa:62:00:d4:fe:07:e7:18:cc:
         1b:4f:94:dd:e9:f9:e4:a2:96:96:4e:e7:2c:68:2e:41:dc:80:
         7f:d2:01:88:2a:bb:ee:60:f9:f8:d4:db:3c:68:cc:78:59:98:
         42:2f:f6:72:e8:bb:dd:d6:8c:9a:9b:df:64:69:87:e9:d1:98:
         f5:ea:fa:31:6c:70:47:83:8a:82:34:2e:4a:0d:f6:95:7c:27:
         8b:e5:0e:a3:12:c8:79:13:1f:14:74:d2:a3:db:1d:43:5f:48:
         71:3f:22:de:62:48:86:ef:69:d5:a6:03:42:aa:29:9e:32:44:
         e4:dd:11:9f:74:fa:e8:d3:2c:c0:64:75:6c:41:47:d5:9a:88:
         83:f3:5f:4d:1b:6d:42:ae:3e:25:c3:16:b1:58:7e:a6:64:a1:
         92:6c:53:ff:28:70:53:d8:ea:2b:a6:a4:b8:1a:05:d3:47:a8:
         ae:0d:47:6d:34:82:c2:41:5d:d7:78:34:58:f4:d0:5e:6f:60:
         de:cf:70:de:39:80:04:29:3e:fd:ac:e8:cd:43:83:99:36:73:
         91:bf:66:49:20:9e:b8:5a:ae:06:3c:a2:6f:41:f7:96:0e:75:
         2e:a5:77:5d:d4:66:34:4c:d4:ff:c0:9c:b7:14:40:9d:16:16:
         d5:c0:a1:7d:98:e8:7d:2b:89:09:f7:49:8d:f9:d4:bd:d0:5a:
         5c:be:74:05:5b:91:00:d2:37:1a:47:e6:98:83:d6:a3:86:70:
         94:e2:55:6a:36:84:e6:36:36:d2:c4:c0:02:76:95:86:c4:aa:
         9e:2a:8e:2a:c3:77:36:83:f0:19:c5:bb:a5:c7:4e:95:91:b6:
         73:4b:9d:b2:85:ef:2c:30:4c:04:23:dc:b3:79:1e:fd:5a:16:
         c4:43:c4:7a:1b:8b:b4:5a:2c:84:82:d5:4e:a9:c0:02:51:ac:
         9c:4e:94:e4:56:58:19:52
-----BEGIN CERTIFICATE-----
MIIGrTCCBJWgAwIBAgICMHswDQYJKoZIhvcNAQELBQAwgawxCzAJBgNVBAYTAlVT
MQswCQYDVQQIEwJPSDERMA8GA1UEBxMIQ29sdW1idXMxEjAQBgNVBAoTCVZpa2lu
Z1ZQTjEdMBsGA1UECxMUTXlPcmdhbml6YXRpb25hbFVuaXQxFTATBgNVBAMTDFZp
a2luZ1ZQTiBDQTEQMA4GA1UEKRMHRWFzeVJTQTEhMB8GCSqGSIb3DQEJARYSbWVA
bXlob3N0Lm15ZG9tYWluMB4XDTE4MDExNTAzMzIyMloXDTI4MDExMzAzMzIyMlow
HzEdMBsGA1UEAxMUQ2xpZW50MjkyMENlcnRmMTZjM2YwggIiMA0GCSqGSIb3DQEB
AQUAA4ICDwAwggIKAoICAQDDQgtH0okDhmYKFrisM5kCB/XFyK3RWxoxY4l/9KtD
FWJfiHvmr5IlTh0X024+vYcdFaEYyEn4gYPeuSo0/ApWt6XjUrNpcFF/y+tMx7G8
au2Td0PwIa8jv+sSOY8UNO6NchDcwBhUUH+kWTJemEUuWdsGEiQRXw3xAPX5+wUt
/+IrKJFLAh1czEEezgpfCvTJpf5t+zARjqtOpTCteqXJApd8QoVO1QeJ+4wopMQJ
tF/p0EvOCRhO6IagQUp4RqlDo6Fv3eqYWsv4PcbFKcmuLOgQ+ZLHzH33ZFwiN4JX
dGsUMUCYhr2a0IM0hAYs/SRlf7AVUvw1UTZ2XZt2K7VNxp4DHwYeKo8NVINhDLe6
FGF8ZmmaxVX/KrTd2woLpn20nidJ2x4qbQyiWFSdIk8gYHISElYg93s0yhr3jXir
oMq3InDhbHTsX3RJKJjQ9CDRfBerggIfXbVNIdgFS154cDgxFZlzRrEjXFwZQZLz
lSUIyowZPaznAKQ+u7Puj0afWYeUq13Wk19rlnPePMM5uuH7W8LcquxN5PNdVD+r
vbvGePXP2n0KhdrbriAdzd7BcJIfMb6Ojl+IWskFxThC1M/6GHbqgxiculK25HwT
3RK6nB/mhDbPbFAvHjDr00VKdJ1DiHzob/UrEM9HBcu0lTiOO/g4W8NircgPHhLI
GQIDAQABo4IBYzCCAV8wCQYDVR0TBAIwADAtBglghkgBhvhCAQ0EIBYeRWFzeS1S
U0EgR2VuZXJhdGVkIENlcnRpZmljYXRlMB0GA1UdDgQWBBQb5VQY8nLN0OWkawA9
D/FRGvVHLTCB4QYDVR0jBIHZMIHWgBQSzWAE0qCAnnDtxpm4eyzGUv0ZoaGBsqSB
rzCBrDELMAkGA1UEBhMCVVMxCzAJBgNVBAgTAk9IMREwDwYDVQQHEwhDb2x1bWJ1
czESMBAGA1UEChMJVmlraW5nVlBOMR0wGwYDVQQLExRNeU9yZ2FuaXphdGlvbmFs
VW5pdDEVMBMGA1UEAxMMVmlraW5nVlBOIENBMRAwDgYDVQQpEwdFYXN5UlNBMSEw
HwYJKoZIhvcNAQkBFhJtZUBteWhvc3QubXlkb21haW6CCQDPNYXugL8qPjATBgNV
HSUEDDAKBggrBgEFBQcDAjALBgNVHQ8EBAMCB4AwDQYJKoZIhvcNAQELBQADggIB
AJO5vH+EqfCRAeMtYdAStJBnWt3MArY/s+QjKkoTp+0UKsz2dKUSrVc197gtSS6W
b+7KHvKT1th1WhREd6MtFR3AygMay3HzlipnbHUlXPK0CLzi2FMFMiKXheWXl2C9
ypSkMFHT7T1clUNwclIxYIlNrL09tVJg3hKGyPdfQsDVJneuy+hqHytzxNth/R2i
SqZLEkYU6ybsG/piANT+B+cYzBtPlN3p+eSilpZO5yxoLkHcgH/SAYgqu+5g+fjU
2zxozHhZmEIv9nLou93WjJqb32Rph+nRmPXq+jFscEeDioI0LkoN9pV8J4vlDqMS
yHkTHxR00qPbHUNfSHE/It5iSIbvadWmA0KqKZ4yROTdEZ90+ujTLMBkdWxBR9Wa
iIPzX00bbUKuPiXDFrFYfqZkoZJsU/8ocFPY6iumpLgaBdNHqK4NR200gsJBXdd4
NFj00F5vYN7PcN45gAQpPv2s6M1Dg5k2c5G/ZkkgnrhargY8om9B95YOdS6ld13U
ZjRM1P/AnLcUQJ0WFtXAoX2Y6H0riQn3SY351L3QWly+dAVbkQDSNxpH5piD1qOG
cJTiVWo2hOY2NtLEwAJ2lYbEqp4qjirDdzaD8BnFu6XHTpWRtnNLnbKF7ywwTAQj
3LN5Hv1aFsRDxHobi7RaLISC1U6pwAJRrJxOlORWWBlS
-----END CERTIFICATE-----
