Certificate:
    Data:
        Version: 3 (0x2)
        Serial Number: 767 (0x2ff)
    Signature Algorithm: md5WithRSAEncryption
        Issuer: C=US, ST=OH, L=Columbus, O=VikingVPN, OU=MyOrganizationalUnit, CN=VikingVPN CA/name=EasyRSA/emailAddress=me@myhost.mydomain
        Validity
            Not Before: Jan 16 01:55:25 2014 GMT
            Not After : Jan 14 01:55:25 2024 GMT
        Subject: CN=Client308Certf0cd58
        Subject Public Key Info:
            Public Key Algorithm: rsaEncryption
                Public-Key: (4096 bit)
                Modulus:
                    00:c5:13:29:2f:ad:db:27:82:58:2a:54:92:a7:88:
                    63:6c:e6:48:80:2c:7d:1e:96:18:0d:d4:5a:b6:7a:
                    d3:89:d3:6f:8f:96:09:7a:ee:f6:ac:4f:88:4d:c5:
                    8c:f1:6b:a4:33:6d:50:55:31:84:63:8a:ea:6d:27:
                    e3:e7:92:4b:af:bd:e5:cd:8f:07:67:35:43:f1:d4:
                    49:10:ba:39:8c:f8:16:ad:c2:a4:bd:38:b0:23:4c:
                    1d:c7:c2:ae:fc:76:9b:6a:ed:99:91:38:5a:cf:cd:
                    5f:51:9a:8b:83:85:67:86:36:77:37:eb:ff:bb:a4:
                    51:f9:e5:53:a0:0a:45:de:1f:5d:1a:b2:20:15:a7:
                    f2:75:04:bb:e4:4f:b2:ca:aa:cd:ad:1a:26:60:b0:
                    70:4c:28:bd:75:ba:a7:a3:ce:f7:85:ff:43:ab:63:
                    8a:6b:fc:e6:9b:54:8f:7a:6a:b2:0f:10:97:0d:15:
                    4b:83:81:32:ca:a5:a3:0d:14:52:d1:6c:16:95:56:
                    fa:40:29:be:4f:0a:16:1a:27:b5:fb:83:97:00:5e:
                    14:45:8c:24:f2:fd:1e:0a:9c:b1:f8:f0:13:ad:d4:
                    5e:9c:8f:84:e3:91:87:15:8f:d0:fa:66:6e:6e:37:
                    b4:74:7d:a2:64:ee:ef:5a:6f:a7:3e:6f:5d:10:0e:
                    9a:a0:35:c7:7c:26:00:99:fd:da:7f:6b:4a:c5:93:
                    b8:c4:5e:4b:3a:4c:7a:0a:df:cb:57:72:70:7f:6c:
                    53:c3:84:60:43:f3:81:e7:b3:30:d0:b0:ac:64:64:
                    1c:8b:3a:ae:e3:6a:fa:65:08:87:0f:62:d8:cd:76:
                    91:c9:0f:07:13:12:58:94:cb:fb:e9:8c:7f:17:95:
                    62:ac:b0:ef:db:58:f7:00:2a:07:65:23:d6:92:6e:
                    c0:32:39:ae:b2:97:86:4b:5b:76:9c:cb:7d:6c:3c:
                    a5:77:00:18:6e:b3:e3:a6:ce:f6:80:b0:2c:f9:f9:
                    11:25:e0:d9:80:a7:7d:06:9e:0b:ea:a1:29:92:91:
                    06:93:8d:c2:72:23:9d:04:e3:97:31:7d:76:b4:92:
                    8e:bd:09:91:8d:6a:09:a1:4c:34:b2:62:2d:78:4c:
                    2a:56:81:a7:64:91:4c:11:f4:81:36:eb:ea:aa:ed:
                    43:93:1c:dd:40:43:d9:a1:d3:24:3c:04:c5:4e:e6:
                    cc:81:d1:13:1f:0e:c6:f6:cc:95:7c:e3:8b:ec:98:
                    7b:e2:3b:dc:96:5b:b3:5e:d7:49:b2:db:4b:0b:e1:
                    85:d9:f0:95:1f:23:1a:b6:ef:cd:0b:6a:53:49:0e:
                    c0:2d:a0:71:19:88:b5:c5:df:b0:df:3a:b9:74:b5:
                    e6:9d:23
                Exponent: 65537 (0x10001)
        X509v3 extensions:
            X509v3 Basic Constraints: 
                CA:FALSE
            Netscape Comment: 
                Easy-RSA Generated Certificate
            X509v3 Subject Key Identifier: 
                57:FC:6B:E8:D1:EC:EE:98:C7:76:B9:68:0C:95:9B:4F:13:E1:EC:DB
            X509v3 Authority Key Identifier: 
                keyid:12:CD:60:04:D2:A0:80:9E:70:ED:C6:99:B8:7B:2C:C6:52:FD:19:A1
                DirName:/C=US/ST=OH/L=Columbus/O=VikingVPN/OU=MyOrganizationalUnit/CN=VikingVPN CA/name=EasyRSA/emailAddress=me@myhost.mydomain
                serial:CF:35:85:EE:80:BF:2A:3E

            X509v3 Extended Key Usage: 
                TLS Web Client Authentication
            X509v3 Key Usage: 
                Digital Signature
    Signature Algorithm: md5WithRSAEncryption
         11:e7:e8:b4:fc:08:c6:47:62:9b:41:88:20:e8:f1:b3:ea:33:
         11:e1:d4:2c:8a:b6:37:b4:b1:a4:f6:5b:66:6f:ce:01:5f:58:
         3f:d7:98:ac:f4:e9:67:28:ab:3a:58:8d:fa:2f:09:cc:d2:d0:
         bf:c2:46:88:fc:6a:11:a1:1a:e2:53:ce:37:7d:09:45:d1:20:
         34:79:44:75:fb:81:bc:bb:65:6d:41:36:c9:61:3f:e5:9a:13:
         e0:3e:68:c3:a8:54:a6:6a:6b:23:be:9b:69:6b:6c:71:89:b8:
         ac:7a:b8:dd:98:69:50:d9:ab:f4:0f:2f:17:d8:90:84:d9:04:
         aa:00:47:31:39:c6:a5:3d:c4:51:aa:1b:64:63:4d:8e:ce:44:
         17:a4:fc:43:97:ff:bb:e2:2b:0c:1d:e5:b8:5b:58:e4:05:7a:
         33:37:62:86:28:c8:a8:52:be:da:0d:fa:87:5b:2c:76:ac:de:
         ae:5b:9c:d4:cc:e1:0f:35:ee:87:a9:70:5d:0a:ce:b4:b3:89:
         be:d5:62:fe:9e:a6:18:ef:ff:ec:d5:38:10:39:e6:94:d1:8f:
         5e:41:bb:a8:92:c8:9d:97:66:44:f7:48:ec:1d:4e:f9:ee:8e:
         33:67:8e:10:78:8f:42:f0:08:e5:37:c6:36:be:44:23:09:0c:
         55:00:1e:c2:2b:df:4c:e6:1b:07:f7:0d:f1:df:2f:a1:c7:3d:
         41:c8:9b:75:47:b5:ce:f8:a4:d9:90:b1:0b:87:80:7e:23:54:
         8d:f7:55:10:de:05:72:56:0b:22:9b:ec:3d:ac:a2:2e:92:89:
         f3:f5:1d:73:9a:54:d1:13:39:cf:61:6b:ad:55:cb:d4:96:0a:
         06:d8:c9:fe:9d:b0:ab:8d:58:d0:2c:bd:f7:3a:ce:f9:5c:5b:
         67:5a:56:c8:76:64:05:5f:bf:00:58:3c:be:df:19:65:3b:c7:
         ff:a6:fe:1f:db:7e:a1:53:a9:f9:56:7e:11:7f:ae:49:96:9f:
         01:58:c7:7a:13:ef:9f:af:54:c2:ed:35:29:58:f3:b0:76:86:
         08:e6:c6:c9:2d:bf:17:f7:a1:4f:a3:d7:7e:4e:56:32:8e:2d:
         db:70:83:76:3a:66:8a:4a:24:bd:c9:6c:42:6f:7d:9e:e8:97:
         3e:59:60:61:45:2d:b9:a1:b7:0a:aa:cc:34:93:8a:0e:7c:15:
         cc:52:ec:8b:87:e1:1d:f4:bb:9f:ab:33:06:77:dc:84:c6:f2:
         a2:ba:d2:00:07:0e:7d:fd:8a:47:ed:f1:da:8a:b6:ab:2d:96:
         9f:a8:2a:42:98:e7:c6:9d:84:e2:7d:37:91:09:86:ff:dc:d0:
         be:77:59:54:13:33:f2:7d
-----BEGIN CERTIFICATE-----
MIIGrDCCBJSgAwIBAgICAv8wDQYJKoZIhvcNAQEEBQAwgawxCzAJBgNVBAYTAlVT
MQswCQYDVQQIEwJPSDERMA8GA1UEBxMIQ29sdW1idXMxEjAQBgNVBAoTCVZpa2lu
Z1ZQTjEdMBsGA1UECxMUTXlPcmdhbml6YXRpb25hbFVuaXQxFTATBgNVBAMTDFZp
a2luZ1ZQTiBDQTEQMA4GA1UEKRMHRWFzeVJTQTEhMB8GCSqGSIb3DQEJARYSbWVA
bXlob3N0Lm15ZG9tYWluMB4XDTE0MDExNjAxNTUyNVoXDTI0MDExNDAxNTUyNVow
HjEcMBoGA1UEAxMTQ2xpZW50MzA4Q2VydGYwY2Q1ODCCAiIwDQYJKoZIhvcNAQEB
BQADggIPADCCAgoCggIBAMUTKS+t2yeCWCpUkqeIY2zmSIAsfR6WGA3UWrZ604nT
b4+WCXru9qxPiE3FjPFrpDNtUFUxhGOK6m0n4+eSS6+95c2PB2c1Q/HUSRC6OYz4
Fq3CpL04sCNMHcfCrvx2m2rtmZE4Ws/NX1Gai4OFZ4Y2dzfr/7ukUfnlU6AKRd4f
XRqyIBWn8nUEu+RPssqqza0aJmCwcEwovXW6p6PO94X/Q6tjimv85ptUj3pqsg8Q
lw0VS4OBMsqlow0UUtFsFpVW+kApvk8KFhontfuDlwBeFEWMJPL9HgqcsfjwE63U
XpyPhOORhxWP0Ppmbm43tHR9omTu71pvpz5vXRAOmqA1x3wmAJn92n9rSsWTuMRe
SzpMegrfy1dycH9sU8OEYEPzgeezMNCwrGRkHIs6ruNq+mUIhw9i2M12kckPBxMS
WJTL++mMfxeVYqyw79tY9wAqB2Uj1pJuwDI5rrKXhktbdpzLfWw8pXcAGG6z46bO
9oCwLPn5ESXg2YCnfQaeC+qhKZKRBpONwnIjnQTjlzF9drSSjr0JkY1qCaFMNLJi
LXhMKlaBp2SRTBH0gTbr6qrtQ5Mc3UBD2aHTJDwExU7mzIHREx8OxvbMlXzji+yY
e+I73JZbs17XSbLbSwvhhdnwlR8jGrbvzQtqU0kOwC2gcRmItcXfsN86uXS15p0j
AgMBAAGjggFjMIIBXzAJBgNVHRMEAjAAMC0GCWCGSAGG+EIBDQQgFh5FYXN5LVJT
QSBHZW5lcmF0ZWQgQ2VydGlmaWNhdGUwHQYDVR0OBBYEFFf8a+jR7O6Yx3a5aAyV
m08T4ezbMIHhBgNVHSMEgdkwgdaAFBLNYATSoICecO3Gmbh7LMZS/RmhoYGypIGv
MIGsMQswCQYDVQQGEwJVUzELMAkGA1UECBMCT0gxETAPBgNVBAcTCENvbHVtYnVz
MRIwEAYDVQQKEwlWaWtpbmdWUE4xHTAbBgNVBAsTFE15T3JnYW5pemF0aW9uYWxV
bml0MRUwEwYDVQQDEwxWaWtpbmdWUE4gQ0ExEDAOBgNVBCkTB0Vhc3lSU0ExITAf
BgkqhkiG9w0BCQEWEm1lQG15aG9zdC5teWRvbWFpboIJAM81he6Avyo+MBMGA1Ud
JQQMMAoGCCsGAQUFBwMCMAsGA1UdDwQEAwIHgDANBgkqhkiG9w0BAQQFAAOCAgEA
EefotPwIxkdim0GIIOjxs+ozEeHULIq2N7SxpPZbZm/OAV9YP9eYrPTpZyirOliN
+i8JzNLQv8JGiPxqEaEa4lPON30JRdEgNHlEdfuBvLtlbUE2yWE/5ZoT4D5ow6hU
pmprI76baWtscYm4rHq43ZhpUNmr9A8vF9iQhNkEqgBHMTnGpT3EUaobZGNNjs5E
F6T8Q5f/u+IrDB3luFtY5AV6MzdihijIqFK+2g36h1ssdqzerluc1MzhDzXuh6lw
XQrOtLOJvtVi/p6mGO//7NU4EDnmlNGPXkG7qJLInZdmRPdI7B1O+e6OM2eOEHiP
QvAI5TfGNr5EIwkMVQAewivfTOYbB/cN8d8vocc9QcibdUe1zvik2ZCxC4eAfiNU
jfdVEN4FclYLIpvsPayiLpKJ8/Udc5pU0RM5z2FrrVXL1JYKBtjJ/p2wq41Y0Cy9
9zrO+VxbZ1pWyHZkBV+/AFg8vt8ZZTvH/6b+H9t+oVOp+VZ+EX+uSZafAVjHehPv
n69Uwu01KVjzsHaGCObGyS2/F/ehT6PXfk5WMo4t23CDdjpmikokvclsQm99nuiX
PllgYUUtuaG3CqrMNJOKDnwVzFLsi4fhHfS7n6szBnfchMbyorrSAAcOff2KR+3x
2oq2qy2Wn6gqQpjnxp2E4n03kQmG/9zQvndZVBMz8n0=
-----END CERTIFICATE-----
