Certificate:
    Data:
        Version: 3 (0x2)
        Serial Number: 4287 (0x10bf)
    Signature Algorithm: md5WithRSAEncryption
        Issuer: C=US, ST=OH, L=Columbus, O=VikingVPN, OU=MyOrganizationalUnit, CN=VikingVPN CA/name=EasyRSA/emailAddress=me@myhost.mydomain
        Validity
            Not Before: Jan 26 19:20:17 2015 GMT
            Not After : Jan 23 19:20:17 2025 GMT
        Subject: CN=Client1405Cert3c11ee
        Subject Public Key Info:
            Public Key Algorithm: rsaEncryption
                Public-Key: (4096 bit)
                Modulus:
                    00:af:69:ad:ec:34:fd:97:44:67:56:31:85:dc:e6:
                    2b:c8:02:90:30:b3:c3:1f:40:08:29:d6:f5:5f:63:
                    76:61:a5:1e:15:b0:67:36:4c:72:54:c5:56:87:d4:
                    31:7b:e4:a3:b4:31:9d:82:cd:33:f2:31:17:3c:ac:
                    84:d4:da:0c:d4:47:64:86:2a:33:dc:21:39:cc:83:
                    f7:24:24:d0:ab:e1:4f:43:1c:98:6e:05:82:10:f2:
                    27:6e:38:29:56:a3:9b:59:3f:0d:a5:3b:7a:1a:53:
                    e6:e4:97:83:9b:df:e6:a8:b3:9d:47:85:0f:28:5c:
                    63:db:e7:19:72:2a:6f:1b:72:19:35:5d:2a:b5:6c:
                    70:1f:22:76:0e:f2:2c:e4:5f:55:4d:93:87:27:55:
                    33:a0:93:b2:28:be:94:0b:e2:d6:cf:bc:48:8d:e3:
                    9f:91:6b:9f:70:8f:d6:fb:ee:6e:41:19:26:a7:d0:
                    6a:a1:92:18:5e:b9:1d:a4:58:40:18:26:b5:55:bb:
                    ff:83:f1:3f:2a:16:a2:08:52:14:c0:af:56:8b:81:
                    8e:9a:a5:ee:e5:91:66:ba:cb:17:6d:a1:f2:30:13:
                    c5:67:92:d2:fe:26:c7:ce:19:74:25:2e:dd:64:57:
                    f3:5f:0f:69:87:a4:95:e2:29:48:00:f3:59:2b:62:
                    1f:76:26:94:7d:a4:c9:68:cc:55:45:42:3c:3a:8a:
                    fd:d3:a5:a6:7b:35:7d:5b:4b:71:20:14:1b:8c:d4:
                    b7:05:92:e4:18:1a:0a:0c:c4:3b:2a:99:f5:d5:e9:
                    54:09:4f:e5:1d:76:e2:17:b9:59:a0:ad:b4:e3:92:
                    be:8a:ac:7e:16:a1:e4:ab:d6:9f:92:f4:0c:a9:d7:
                    b2:dc:e6:c4:a5:18:12:26:05:ba:69:5f:b0:92:d4:
                    c6:3a:95:21:b6:da:bc:a0:c7:8e:36:31:27:23:03:
                    e8:eb:4c:cc:5e:c0:22:5b:2f:87:52:d1:70:52:5e:
                    34:8c:13:05:c9:35:d6:86:6e:16:2c:45:51:0b:f6:
                    ee:df:4e:8e:7e:3c:c5:d8:1b:c2:11:a6:fd:5e:f8:
                    a4:10:81:f4:f9:6a:55:f5:ed:e7:84:7b:6a:f9:86:
                    0a:7f:47:f1:a8:1a:97:6f:6e:65:53:9f:31:3a:81:
                    39:86:c4:8a:7c:8a:dc:d7:25:7e:2d:e4:fe:5e:eb:
                    ed:9e:eb:0a:96:56:3a:3c:13:c1:03:2e:c5:57:72:
                    71:ae:50:85:35:0c:5b:0d:33:1e:df:8b:ee:4f:9a:
                    dd:47:5f:bd:54:08:05:f3:b8:9e:59:ea:e9:2f:58:
                    a3:9b:d8:61:91:31:95:12:ba:66:f1:67:1e:d7:4a:
                    a0:e8:e1
                Exponent: 65537 (0x10001)
        X509v3 extensions:
            X509v3 Basic Constraints: 
                CA:FALSE
            Netscape Comment: 
                Easy-RSA Generated Certificate
            X509v3 Subject Key Identifier: 
                26:F3:C0:5B:CB:B7:99:FA:A8:A2:91:3F:16:AA:B9:A4:20:C6:57:12
            X509v3 Authority Key Identifier: 
                keyid:12:CD:60:04:D2:A0:80:9E:70:ED:C6:99:B8:7B:2C:C6:52:FD:19:A1
                DirName:/C=US/ST=OH/L=Columbus/O=VikingVPN/OU=MyOrganizationalUnit/CN=VikingVPN CA/name=EasyRSA/emailAddress=me@myhost.mydomain
                serial:CF:35:85:EE:80:BF:2A:3E

            X509v3 Extended Key Usage: 
                TLS Web Client Authentication
            X509v3 Key Usage: 
                Digital Signature
    Signature Algorithm: md5WithRSAEncryption
         14:25:9a:32:3e:91:49:f0:33:6a:fc:19:b5:b0:89:a8:f2:97:
         5c:6f:98:af:c9:0c:a0:88:e2:2b:ae:db:e1:2d:77:00:d5:31:
         6a:b5:9e:f1:00:08:15:32:67:de:17:ea:85:da:95:d6:ee:98:
         3e:15:53:86:ec:d5:b4:56:8b:99:86:46:29:d8:26:fb:a2:fb:
         93:f8:ff:97:59:a4:2e:91:45:d8:58:1a:1d:ef:32:00:24:ae:
         c8:25:d1:58:c4:5e:94:d1:53:60:7a:78:b0:b8:70:8f:ef:00:
         11:ce:59:74:c6:ad:42:13:96:f0:fb:27:96:98:47:bb:59:27:
         1f:31:9d:50:be:e2:06:13:cb:97:93:bc:f7:5b:79:7a:f3:e4:
         6d:e9:90:f1:dc:7b:b0:29:0b:cc:e0:16:77:78:08:fa:70:43:
         6f:8e:71:5f:6b:e0:59:b3:74:53:d1:2f:c3:e5:4c:b3:93:06:
         56:a4:3a:47:41:af:53:99:75:bf:a4:8b:1c:74:13:21:6b:f2:
         90:26:47:cf:4f:f5:a2:a4:80:4f:fa:22:69:2d:eb:2f:a8:0a:
         2a:bb:66:61:68:b5:fd:29:30:48:39:53:df:d2:95:59:22:5e:
         d8:ad:c2:10:0f:c6:3d:d3:6b:e5:74:9f:33:9c:a4:e8:39:44:
         e3:77:3c:a1:fc:e2:bd:87:0d:d3:f4:70:e8:de:d9:f6:0b:91:
         e0:31:5a:72:a0:c2:40:11:a2:02:7d:0b:fc:4a:98:bf:d3:f7:
         aa:f2:ef:86:1e:32:c8:8e:cf:54:c7:a9:bb:0a:13:e7:0f:08:
         12:aa:55:e0:6a:34:44:a2:a5:8e:81:e2:c1:28:76:c0:44:88:
         50:25:98:18:35:0f:37:10:23:36:25:72:d3:b8:d1:c3:f9:21:
         5c:77:db:6b:ae:17:05:d7:b9:c5:9e:88:19:44:fb:36:48:4e:
         f2:3a:e5:42:72:fc:13:40:3f:9b:7a:55:9d:ff:c6:d1:b8:b0:
         71:92:ea:4a:c1:c1:af:52:e6:98:88:e2:47:42:de:6a:2c:cc:
         97:51:26:06:6e:fa:4a:8b:07:ac:71:6e:16:e6:50:f4:21:98:
         7c:14:52:24:de:64:8c:c5:92:08:d7:db:66:f9:2e:33:23:66:
         bd:ec:08:03:64:18:b1:89:de:2d:37:53:3f:06:53:93:d6:c1:
         55:72:fd:70:15:5c:93:8f:81:f3:7c:b4:ba:2f:cf:b6:d1:1a:
         1f:06:78:05:ff:16:94:53:75:77:b3:d0:e9:ba:49:1a:0f:30:
         ac:37:c4:7f:35:b4:34:17:a9:1e:ea:89:66:77:87:83:41:29:
         ae:48:7c:7d:dc:0c:8d:36
-----BEGIN CERTIFICATE-----
MIIGrTCCBJWgAwIBAgICEL8wDQYJKoZIhvcNAQEEBQAwgawxCzAJBgNVBAYTAlVT
MQswCQYDVQQIEwJPSDERMA8GA1UEBxMIQ29sdW1idXMxEjAQBgNVBAoTCVZpa2lu
Z1ZQTjEdMBsGA1UECxMUTXlPcmdhbml6YXRpb25hbFVuaXQxFTATBgNVBAMTDFZp
a2luZ1ZQTiBDQTEQMA4GA1UEKRMHRWFzeVJTQTEhMB8GCSqGSIb3DQEJARYSbWVA
bXlob3N0Lm15ZG9tYWluMB4XDTE1MDEyNjE5MjAxN1oXDTI1MDEyMzE5MjAxN1ow
HzEdMBsGA1UEAxMUQ2xpZW50MTQwNUNlcnQzYzExZWUwggIiMA0GCSqGSIb3DQEB
AQUAA4ICDwAwggIKAoICAQCvaa3sNP2XRGdWMYXc5ivIApAws8MfQAgp1vVfY3Zh
pR4VsGc2THJUxVaH1DF75KO0MZ2CzTPyMRc8rITU2gzUR2SGKjPcITnMg/ckJNCr
4U9DHJhuBYIQ8iduOClWo5tZPw2lO3oaU+bkl4Ob3+aos51HhQ8oXGPb5xlyKm8b
chk1XSq1bHAfInYO8izkX1VNk4cnVTOgk7IovpQL4tbPvEiN45+Ra59wj9b77m5B
GSan0GqhkhheuR2kWEAYJrVVu/+D8T8qFqIIUhTAr1aLgY6ape7lkWa6yxdtofIw
E8VnktL+JsfOGXQlLt1kV/NfD2mHpJXiKUgA81krYh92JpR9pMlozFVFQjw6iv3T
paZ7NX1bS3EgFBuM1LcFkuQYGgoMxDsqmfXV6VQJT+UdduIXuVmgrbTjkr6KrH4W
oeSr1p+S9Ayp17Lc5sSlGBImBbppX7CS1MY6lSG22rygx442MScjA+jrTMxewCJb
L4dS0XBSXjSMEwXJNdaGbhYsRVEL9u7fTo5+PMXYG8IRpv1e+KQQgfT5alX17eeE
e2r5hgp/R/GoGpdvbmVTnzE6gTmGxIp8itzXJX4t5P5e6+2e6wqWVjo8E8EDLsVX
cnGuUIU1DFsNMx7fi+5Pmt1HX71UCAXzuJ5Z6ukvWKOb2GGRMZUSumbxZx7XSqDo
4QIDAQABo4IBYzCCAV8wCQYDVR0TBAIwADAtBglghkgBhvhCAQ0EIBYeRWFzeS1S
U0EgR2VuZXJhdGVkIENlcnRpZmljYXRlMB0GA1UdDgQWBBQm88Bby7eZ+qiikT8W
qrmkIMZXEjCB4QYDVR0jBIHZMIHWgBQSzWAE0qCAnnDtxpm4eyzGUv0ZoaGBsqSB
rzCBrDELMAkGA1UEBhMCVVMxCzAJBgNVBAgTAk9IMREwDwYDVQQHEwhDb2x1bWJ1
czESMBAGA1UEChMJVmlraW5nVlBOMR0wGwYDVQQLExRNeU9yZ2FuaXphdGlvbmFs
VW5pdDEVMBMGA1UEAxMMVmlraW5nVlBOIENBMRAwDgYDVQQpEwdFYXN5UlNBMSEw
HwYJKoZIhvcNAQkBFhJtZUBteWhvc3QubXlkb21haW6CCQDPNYXugL8qPjATBgNV
HSUEDDAKBggrBgEFBQcDAjALBgNVHQ8EBAMCB4AwDQYJKoZIhvcNAQEEBQADggIB
ABQlmjI+kUnwM2r8GbWwiajyl1xvmK/JDKCI4iuu2+EtdwDVMWq1nvEACBUyZ94X
6oXaldbumD4VU4bs1bRWi5mGRinYJvui+5P4/5dZpC6RRdhYGh3vMgAkrsgl0VjE
XpTRU2B6eLC4cI/vABHOWXTGrUITlvD7J5aYR7tZJx8xnVC+4gYTy5eTvPdbeXrz
5G3pkPHce7ApC8zgFnd4CPpwQ2+OcV9r4FmzdFPRL8PlTLOTBlakOkdBr1OZdb+k
ixx0EyFr8pAmR89P9aKkgE/6Imkt6y+oCiq7ZmFotf0pMEg5U9/SlVkiXtitwhAP
xj3Ta+V0nzOcpOg5RON3PKH84r2HDdP0cOje2fYLkeAxWnKgwkARogJ9C/xKmL/T
96ry74YeMsiOz1THqbsKE+cPCBKqVeBqNESipY6B4sEodsBEiFAlmBg1DzcQIzYl
ctO40cP5IVx322uuFwXXucWeiBlE+zZITvI65UJy/BNAP5t6VZ3/xtG4sHGS6krB
wa9S5piI4kdC3moszJdRJgZu+kqLB6xxbhbmUPQhmHwUUiTeZIzFkgjX22b5LjMj
Zr3sCANkGLGJ3i03Uz8GU5PWwVVy/XAVXJOPgfN8tLovz7bRGh8GeAX/FpRTdXez
0Om6SRoPMKw3xH81tDQXqR7qiWZ3h4NBKa5IfH3cDI02
-----END CERTIFICATE-----
