Certificate:
    Data:
        Version: 3 (0x2)
        Serial Number: 9917 (0x26bd)
    Signature Algorithm: sha256WithRSAEncryption
        Issuer: C=US, ST=OH, L=Columbus, O=VikingVPN, OU=MyOrganizationalUnit, CN=VikingVPN CA/name=EasyRSA/emailAddress=me@myhost.mydomain
        Validity
            Not Before: Jan 16 03:43:29 2017 GMT
            Not After : Jan 14 03:43:29 2027 GMT
        Subject: CN=Client2067Cert3d62c7
        Subject Public Key Info:
            Public Key Algorithm: rsaEncryption
                Public-Key: (4096 bit)
                Modulus:
                    00:c4:d4:ab:ad:31:b1:9d:ed:a3:9a:ef:83:a1:8d:
                    a4:b2:1f:0d:b8:4d:6f:44:a6:2b:c0:2f:9d:20:c2:
                    fd:d2:95:bb:8f:62:0b:9c:bc:13:78:43:0c:2a:d1:
                    9c:8f:6e:9b:cb:c9:e7:71:d4:00:24:e7:f3:0b:65:
                    e4:19:bf:f5:1d:c3:50:7e:5b:56:cf:e0:e9:05:0d:
                    29:8a:30:f6:61:00:d3:de:21:a7:65:95:48:2e:cc:
                    63:f8:d5:7a:6b:b9:98:5f:7a:92:3d:f9:87:9b:b4:
                    7f:cc:43:b6:e7:bb:4b:fc:fc:2d:a1:31:b7:2e:48:
                    28:29:06:c0:f3:af:9f:12:a6:93:0b:6e:a2:24:9a:
                    77:1d:67:ee:4f:2e:97:73:32:7c:df:9c:5d:47:7a:
                    13:25:72:6d:17:15:b1:6e:57:fd:00:8e:0a:79:f5:
                    7f:17:d0:db:50:7d:42:36:51:fa:5e:0c:2b:45:4d:
                    90:95:89:7c:a9:73:90:22:01:84:59:07:74:a8:6c:
                    8a:62:b8:a4:56:b2:3a:9f:b5:e1:b3:f6:ca:c2:06:
                    a1:62:08:11:ec:ff:d5:c6:fe:fc:03:9c:ea:20:92:
                    29:53:8b:92:42:66:0a:d5:f2:ea:fe:e4:03:f1:bb:
                    b0:b4:a6:68:d6:4f:f4:12:fd:a4:0a:7e:cd:99:79:
                    e7:ce:75:71:4e:c4:d2:23:fc:32:50:60:75:66:54:
                    9d:94:26:e9:aa:47:6a:3a:98:73:e6:38:7a:b4:1a:
                    2b:af:23:e0:cf:0a:d4:dd:b7:cc:8b:4e:f9:c2:c4:
                    ec:57:4f:6d:95:8f:b2:c0:4c:e9:7b:4b:c0:24:de:
                    12:c0:76:53:f6:50:21:0a:e8:5c:8c:4e:23:ea:22:
                    6e:74:0e:82:73:51:ab:c9:00:9a:48:7c:73:8c:6c:
                    e5:9a:87:c7:02:39:77:58:ec:dd:c9:18:0e:2a:e6:
                    4b:52:9a:41:be:0c:40:6f:61:0d:21:44:db:ce:dc:
                    fc:f0:06:c9:c0:1b:32:3d:03:eb:4c:24:71:2a:ea:
                    e2:e4:2f:e8:04:1b:71:97:bf:ab:b3:57:e1:4a:6e:
                    aa:cb:12:76:9e:0b:d7:2d:0a:5f:f8:bd:c1:65:36:
                    c4:2e:01:1a:e7:2b:a5:56:63:65:51:20:8f:aa:78:
                    1e:c6:51:6c:f9:17:4c:af:0e:f7:12:21:2b:2f:55:
                    5f:11:01:ea:e2:b8:94:e2:9b:2f:3f:e1:ed:22:72:
                    41:4e:f9:98:32:77:50:dd:d8:7d:52:3b:da:a5:e2:
                    53:ef:87:a1:79:1d:53:66:78:04:10:c9:b2:00:b6:
                    c3:c3:cf:92:d7:c4:fd:0a:df:8c:4f:f8:85:ce:6f:
                    fa:61:3f
                Exponent: 65537 (0x10001)
        X509v3 extensions:
            X509v3 Basic Constraints: 
                CA:FALSE
            Netscape Comment: 
                Easy-RSA Generated Certificate
            X509v3 Subject Key Identifier: 
                81:03:7D:82:4E:A8:1C:0E:3A:F2:C4:7F:88:E0:E4:87:A0:B2:67:94
            X509v3 Authority Key Identifier: 
                keyid:12:CD:60:04:D2:A0:80:9E:70:ED:C6:99:B8:7B:2C:C6:52:FD:19:A1
                DirName:/C=US/ST=OH/L=Columbus/O=VikingVPN/OU=MyOrganizationalUnit/CN=VikingVPN CA/name=EasyRSA/emailAddress=me@myhost.mydomain
                serial:CF:35:85:EE:80:BF:2A:3E

            X509v3 Extended Key Usage: 
                TLS Web Client Authentication
            X509v3 Key Usage: 
                Digital Signature
    Signature Algorithm: sha256WithRSAEncryption
         4c:86:68:40:3e:66:18:6b:4e:9e:12:df:08:69:c0:8e:cd:03:
         0f:d1:4e:01:88:e0:06:1f:3c:6d:76:fe:bb:31:50:85:37:41:
         4f:d8:62:47:fc:a6:37:bf:e4:c7:f0:e3:d1:3b:69:da:87:3c:
         4e:3f:d9:a3:29:00:23:05:33:b4:2a:65:6e:b9:61:10:72:15:
         5e:4e:45:4a:c8:ea:74:08:31:74:2f:62:b3:38:91:ee:c5:6b:
         77:42:d0:f7:13:d2:88:d4:31:2a:19:7e:63:c7:1f:04:5f:b3:
         5e:50:ed:42:29:c2:c3:91:60:19:2c:39:7a:47:00:00:c9:ff:
         dd:81:10:0b:2c:57:49:08:74:7f:31:e8:7c:b1:de:4f:8c:d9:
         6d:9d:3b:33:83:40:1d:9e:ad:8b:f4:06:0d:58:13:33:d8:73:
         cf:ba:b6:f8:d1:7e:2f:60:b8:5d:a4:c5:ec:73:bb:76:99:ad:
         f9:08:94:d0:22:e7:36:e4:34:51:c1:17:ad:6c:6a:9c:7a:fc:
         40:4a:2d:57:f1:2a:dc:4b:59:94:4a:eb:72:74:7d:e5:7d:72:
         eb:88:c2:21:0f:6f:fd:22:e6:7d:48:7d:58:68:64:9e:f9:a9:
         75:11:7d:b3:22:7c:24:b9:89:78:c4:09:90:8a:56:cc:e2:ab:
         15:89:14:78:4d:33:fe:c2:d3:c1:19:c7:a8:5b:d4:9f:65:eb:
         fa:b3:f1:40:ee:7d:49:52:d7:45:b8:71:ce:93:85:7a:0a:50:
         72:6b:15:b4:39:f2:2e:57:6c:ae:05:77:e0:83:05:fb:6b:9c:
         f5:f7:db:87:40:de:bd:61:27:1a:08:6f:bb:a0:61:f3:17:2d:
         07:db:82:45:f8:cb:3a:e0:86:1f:6f:4a:08:67:ed:ac:3d:1f:
         83:4f:75:39:e7:d6:4c:9f:0a:8a:63:a0:5e:3d:f6:17:fa:2c:
         14:57:03:68:75:d6:30:40:ce:f1:36:23:5e:be:30:7b:46:fe:
         30:08:1b:66:aa:de:0c:7d:2f:47:15:63:77:fe:24:c0:1e:6c:
         c5:72:5b:47:8d:ee:c5:38:b9:f5:b0:61:d9:f0:3c:4b:f8:db:
         dd:4d:3f:15:06:10:5d:6c:b9:a5:07:bd:16:07:c7:60:b0:73:
         9d:34:1b:58:50:c1:1d:dc:99:1e:0b:ab:44:9e:92:29:79:cb:
         c6:f8:d8:6a:0c:70:68:a4:90:c0:bf:07:ac:5b:76:70:f9:04:
         cd:a3:36:7d:42:83:60:87:46:8b:c1:b9:8f:cb:bf:53:4d:35:
         70:3a:f3:b8:37:ef:f8:68:e3:22:a1:22:1e:b6:81:f9:e1:d9:
         70:bc:f5:cb:65:7e:1c:46
-----BEGIN CERTIFICATE-----
MIIGrTCCBJWgAwIBAgICJr0wDQYJKoZIhvcNAQELBQAwgawxCzAJBgNVBAYTAlVT
MQswCQYDVQQIEwJPSDERMA8GA1UEBxMIQ29sdW1idXMxEjAQBgNVBAoTCVZpa2lu
Z1ZQTjEdMBsGA1UECxMUTXlPcmdhbml6YXRpb25hbFVuaXQxFTATBgNVBAMTDFZp
a2luZ1ZQTiBDQTEQMA4GA1UEKRMHRWFzeVJTQTEhMB8GCSqGSIb3DQEJARYSbWVA
bXlob3N0Lm15ZG9tYWluMB4XDTE3MDExNjAzNDMyOVoXDTI3MDExNDAzNDMyOVow
HzEdMBsGA1UEAxMUQ2xpZW50MjA2N0NlcnQzZDYyYzcwggIiMA0GCSqGSIb3DQEB
AQUAA4ICDwAwggIKAoICAQDE1KutMbGd7aOa74OhjaSyHw24TW9EpivAL50gwv3S
lbuPYgucvBN4Qwwq0ZyPbpvLyedx1AAk5/MLZeQZv/Udw1B+W1bP4OkFDSmKMPZh
ANPeIadllUguzGP41XpruZhfepI9+YebtH/MQ7bnu0v8/C2hMbcuSCgpBsDzr58S
ppMLbqIkmncdZ+5PLpdzMnzfnF1HehMlcm0XFbFuV/0Ajgp59X8X0NtQfUI2Ufpe
DCtFTZCViXypc5AiAYRZB3SobIpiuKRWsjqfteGz9srCBqFiCBHs/9XG/vwDnOog
kilTi5JCZgrV8ur+5APxu7C0pmjWT/QS/aQKfs2ZeefOdXFOxNIj/DJQYHVmVJ2U
JumqR2o6mHPmOHq0GiuvI+DPCtTdt8yLTvnCxOxXT22Vj7LATOl7S8Ak3hLAdlP2
UCEK6FyMTiPqIm50DoJzUavJAJpIfHOMbOWah8cCOXdY7N3JGA4q5ktSmkG+DEBv
YQ0hRNvO3PzwBsnAGzI9A+tMJHEq6uLkL+gEG3GXv6uzV+FKbqrLEnaeC9ctCl/4
vcFlNsQuARrnK6VWY2VRII+qeB7GUWz5F0yvDvcSISsvVV8RAeriuJTimy8/4e0i
ckFO+Zgyd1Dd2H1SO9ql4lPvh6F5HVNmeAQQybIAtsPDz5LXxP0K34xP+IXOb/ph
PwIDAQABo4IBYzCCAV8wCQYDVR0TBAIwADAtBglghkgBhvhCAQ0EIBYeRWFzeS1S
U0EgR2VuZXJhdGVkIENlcnRpZmljYXRlMB0GA1UdDgQWBBSBA32CTqgcDjryxH+I
4OSHoLJnlDCB4QYDVR0jBIHZMIHWgBQSzWAE0qCAnnDtxpm4eyzGUv0ZoaGBsqSB
rzCBrDELMAkGA1UEBhMCVVMxCzAJBgNVBAgTAk9IMREwDwYDVQQHEwhDb2x1bWJ1
czESMBAGA1UEChMJVmlraW5nVlBOMR0wGwYDVQQLExRNeU9yZ2FuaXphdGlvbmFs
VW5pdDEVMBMGA1UEAxMMVmlraW5nVlBOIENBMRAwDgYDVQQpEwdFYXN5UlNBMSEw
HwYJKoZIhvcNAQkBFhJtZUBteWhvc3QubXlkb21haW6CCQDPNYXugL8qPjATBgNV
HSUEDDAKBggrBgEFBQcDAjALBgNVHQ8EBAMCB4AwDQYJKoZIhvcNAQELBQADggIB
AEyGaEA+ZhhrTp4S3whpwI7NAw/RTgGI4AYfPG12/rsxUIU3QU/YYkf8pje/5Mfw
49E7adqHPE4/2aMpACMFM7QqZW65YRByFV5ORUrI6nQIMXQvYrM4ke7Fa3dC0PcT
0ojUMSoZfmPHHwRfs15Q7UIpwsORYBksOXpHAADJ/92BEAssV0kIdH8x6Hyx3k+M
2W2dOzODQB2erYv0Bg1YEzPYc8+6tvjRfi9guF2kxexzu3aZrfkIlNAi5zbkNFHB
F61sapx6/EBKLVfxKtxLWZRK63J0feV9cuuIwiEPb/0i5n1IfVhoZJ75qXURfbMi
fCS5iXjECZCKVsziqxWJFHhNM/7C08EZx6hb1J9l6/qz8UDufUlS10W4cc6ThXoK
UHJrFbQ58i5XbK4Fd+CDBftrnPX324dA3r1hJxoIb7ugYfMXLQfbgkX4yzrghh9v
Sghn7aw9H4NPdTnn1kyfCopjoF499hf6LBRXA2h11jBAzvE2I16+MHtG/jAIG2aq
3gx9L0cVY3f+JMAebMVyW0eN7sU4ufWwYdnwPEv4291NPxUGEF1suaUHvRYHx2Cw
c500G1hQwR3cmR4Lq0Sekil5y8b42GoMcGikkMC/B6xbdnD5BM2jNn1Cg2CHRovB
uY/Lv1NNNXA687g37/ho4yKhIh62gfnh2XC89ctlfhxG
-----END CERTIFICATE-----
