Certificate:
    Data:
        Version: 3 (0x2)
        Serial Number: 5814 (0x16b6)
    Signature Algorithm: md5WithRSAEncryption
        Issuer: C=US, ST=OH, L=Columbus, O=VikingVPN, OU=MyOrganizationalUnit, CN=VikingVPN CA/name=EasyRSA/emailAddress=me@myhost.mydomain
        Validity
            Not Before: Jul 16 15:31:50 2015 GMT
            Not After : Jul 13 15:31:50 2025 GMT
        Subject: CN=Client1214Cert62046b
        Subject Public Key Info:
            Public Key Algorithm: rsaEncryption
                Public-Key: (4096 bit)
                Modulus:
                    00:bf:45:ee:24:e8:f1:d0:eb:a5:de:88:60:ee:17:
                    74:f0:99:2c:27:81:8a:c3:1f:01:ba:86:7e:3c:0e:
                    21:27:15:0d:93:38:e2:95:39:01:b4:21:26:2e:56:
                    06:a4:e1:f5:e1:ed:bb:be:1a:00:b3:84:13:8b:ca:
                    b6:23:97:55:2a:01:14:9b:e6:03:df:cf:86:b8:79:
                    92:67:1a:a1:ea:87:d2:3b:4d:4f:49:ad:9a:d9:62:
                    ef:c0:c5:bd:01:95:76:2f:e4:8b:0b:fd:8c:70:e4:
                    d5:31:3e:84:2f:c6:f2:a0:fa:50:19:52:16:58:10:
                    8c:68:3d:38:10:ed:cf:6b:7e:3a:ad:0c:ae:8f:ef:
                    e1:60:c7:28:f5:55:d9:6d:a3:0b:f7:09:bc:43:f5:
                    13:62:8e:ae:d2:41:86:9d:b5:4c:a4:64:d6:51:58:
                    33:4d:d1:e0:15:00:09:f5:8e:7e:c7:32:28:3a:27:
                    4f:5d:75:7e:44:6f:fa:ae:51:93:43:76:2b:81:49:
                    fc:56:92:81:0a:f8:3d:6d:2d:8f:84:3c:dd:05:f9:
                    14:cd:df:a9:7d:ee:8e:e3:af:23:1d:2e:48:1f:ac:
                    4d:37:60:8e:a0:1a:8e:fd:e5:e4:9a:7b:a5:91:64:
                    b4:b4:2f:04:75:2b:83:a6:4c:60:bd:11:16:22:72:
                    29:d5:7f:94:53:3c:9f:40:c0:87:67:46:62:cd:79:
                    a1:4a:db:bb:67:85:40:0e:7a:be:cb:cf:36:6b:fd:
                    1c:46:cc:f4:ce:e4:8b:0b:41:11:fb:5c:04:59:e7:
                    41:79:8a:6c:05:4a:bf:4d:92:a1:36:d6:33:67:2e:
                    94:18:7d:44:26:98:3f:7a:33:96:2f:2c:4f:aa:16:
                    47:ce:98:84:bd:e3:f0:ed:75:43:3f:c0:a8:c4:44:
                    17:29:c7:b3:dd:67:94:bf:3d:bb:b7:c7:06:a0:34:
                    2b:81:d2:b9:3e:20:de:06:86:4f:23:0c:54:ff:3e:
                    3a:0e:97:d5:28:1b:0e:00:dc:4a:ce:59:84:1b:96:
                    f8:68:bd:8f:d3:a5:7c:ba:05:ea:7d:24:74:45:98:
                    73:86:2e:58:b4:d8:ae:4a:29:35:ea:2f:85:40:a0:
                    f0:88:dd:bb:f2:b3:6c:b5:00:b1:5e:30:71:6c:33:
                    64:00:9e:c7:c0:c8:16:83:e6:3e:34:d5:99:e4:08:
                    37:4f:af:c8:59:4a:a8:cb:4a:a1:1f:24:7d:7f:ab:
                    3f:ca:08:8d:ab:b9:94:0c:23:99:c2:e4:e4:fb:70:
                    bf:b8:d3:d0:93:53:c3:18:d4:71:5f:56:f0:ff:43:
                    94:1d:e6:c1:74:61:4b:2b:7c:85:7a:a2:0d:e8:6e:
                    65:56:ad
                Exponent: 65537 (0x10001)
        X509v3 extensions:
            X509v3 Basic Constraints: 
                CA:FALSE
            Netscape Comment: 
                Easy-RSA Generated Certificate
            X509v3 Subject Key Identifier: 
                D2:FF:86:BF:F6:C6:17:0D:05:85:F6:EC:A8:A0:5D:19:5E:28:E6:28
            X509v3 Authority Key Identifier: 
                keyid:12:CD:60:04:D2:A0:80:9E:70:ED:C6:99:B8:7B:2C:C6:52:FD:19:A1
                DirName:/C=US/ST=OH/L=Columbus/O=VikingVPN/OU=MyOrganizationalUnit/CN=VikingVPN CA/name=EasyRSA/emailAddress=me@myhost.mydomain
                serial:CF:35:85:EE:80:BF:2A:3E

            X509v3 Extended Key Usage: 
                TLS Web Client Authentication
            X509v3 Key Usage: 
                Digital Signature
    Signature Algorithm: md5WithRSAEncryption
         94:a0:d9:38:87:0e:f7:20:2c:f1:e0:9c:1d:4d:59:de:ec:b8:
         d1:06:f6:a5:34:20:36:6a:f9:7a:78:99:8b:04:f3:3d:97:38:
         98:67:94:f3:85:3e:5a:00:ee:95:fb:6a:66:f9:60:40:82:bc:
         92:57:d2:52:14:1a:ad:17:3f:24:80:b7:14:a4:34:23:78:06:
         80:d9:d1:93:01:8d:9a:ca:b8:7a:3a:81:50:cb:2d:48:01:61:
         41:3e:d0:f9:33:ce:32:2a:53:10:a6:d4:3d:12:a9:c4:82:98:
         b5:41:c0:ae:4d:b3:5e:ac:93:36:cb:64:cf:fe:51:01:77:7e:
         cd:3b:5b:43:9f:f1:a2:b8:93:5a:15:74:7c:c7:14:00:51:db:
         e6:11:2d:73:5a:2e:f2:b4:6d:27:32:26:1f:fd:d9:28:78:03:
         a2:36:b8:45:7d:00:0f:b8:3c:fe:08:20:02:f7:20:44:db:da:
         ab:b9:9c:2a:19:98:af:ed:ec:98:a1:38:5d:2a:6c:81:1d:04:
         80:2c:a5:87:07:38:7b:42:1e:4d:cd:b1:31:fc:27:29:78:2b:
         b5:87:5c:59:67:98:90:08:7d:40:01:d7:06:2f:ed:45:a6:8b:
         d2:cd:56:99:0a:bc:0a:0a:b2:f6:c2:27:84:78:1d:ae:9e:46:
         c2:b8:b2:8d:65:cc:4a:c3:47:7e:8a:88:10:19:ea:d5:72:e9:
         86:b0:c8:bb:fd:f4:3c:f0:19:fc:31:ed:c0:53:d7:6a:46:c1:
         d7:00:c1:7a:12:d3:8a:d9:81:c2:fd:a8:72:c6:59:34:e1:ad:
         56:ab:9a:b4:2c:e0:f4:28:a1:f4:dc:e9:b6:3e:28:73:af:cc:
         da:62:c5:eb:75:f0:42:2c:f1:bb:4c:68:51:a6:a1:0e:21:d0:
         b7:6e:f8:ee:66:50:8d:86:f9:93:b8:d4:24:37:00:8b:37:7c:
         63:38:55:2b:46:b8:f0:fa:7e:22:f7:70:ab:90:34:72:4c:04:
         83:e4:41:d5:66:ea:71:3c:47:d8:ad:a0:f1:ee:58:fa:95:34:
         9a:e0:37:c7:6f:1b:59:80:4f:ab:d2:a6:40:24:4f:fd:f7:d2:
         01:82:cc:a0:f7:8a:88:5d:48:2b:ec:ff:32:fc:b3:4a:49:3d:
         32:c0:b3:25:52:12:30:b6:99:fd:27:7c:5c:e2:2e:0a:55:dd:
         d8:39:a7:8b:2c:a3:97:f8:12:f9:85:50:b8:b9:40:f1:27:65:
         8e:08:b1:85:73:03:3c:8b:d4:f4:82:79:38:3a:6b:51:ff:6f:
         48:9b:b1:af:04:af:23:ab:19:ef:c0:77:23:ca:23:6f:3c:69:
         5c:cb:9b:99:6b:be:56:97
-----BEGIN CERTIFICATE-----
MIIGrTCCBJWgAwIBAgICFrYwDQYJKoZIhvcNAQEEBQAwgawxCzAJBgNVBAYTAlVT
MQswCQYDVQQIEwJPSDERMA8GA1UEBxMIQ29sdW1idXMxEjAQBgNVBAoTCVZpa2lu
Z1ZQTjEdMBsGA1UECxMUTXlPcmdhbml6YXRpb25hbFVuaXQxFTATBgNVBAMTDFZp
a2luZ1ZQTiBDQTEQMA4GA1UEKRMHRWFzeVJTQTEhMB8GCSqGSIb3DQEJARYSbWVA
bXlob3N0Lm15ZG9tYWluMB4XDTE1MDcxNjE1MzE1MFoXDTI1MDcxMzE1MzE1MFow
HzEdMBsGA1UEAxMUQ2xpZW50MTIxNENlcnQ2MjA0NmIwggIiMA0GCSqGSIb3DQEB
AQUAA4ICDwAwggIKAoICAQC/Re4k6PHQ66XeiGDuF3TwmSwngYrDHwG6hn48DiEn
FQ2TOOKVOQG0ISYuVgak4fXh7bu+GgCzhBOLyrYjl1UqARSb5gPfz4a4eZJnGqHq
h9I7TU9JrZrZYu/Axb0BlXYv5IsL/Yxw5NUxPoQvxvKg+lAZUhZYEIxoPTgQ7c9r
fjqtDK6P7+Fgxyj1Vdltowv3CbxD9RNijq7SQYadtUykZNZRWDNN0eAVAAn1jn7H
Mig6J09ddX5Eb/quUZNDdiuBSfxWkoEK+D1tLY+EPN0F+RTN36l97o7jryMdLkgf
rE03YI6gGo795eSae6WRZLS0LwR1K4OmTGC9ERYicinVf5RTPJ9AwIdnRmLNeaFK
27tnhUAOer7LzzZr/RxGzPTO5IsLQRH7XARZ50F5imwFSr9NkqE21jNnLpQYfUQm
mD96M5YvLE+qFkfOmIS94/DtdUM/wKjERBcpx7PdZ5S/Pbu3xwagNCuB0rk+IN4G
hk8jDFT/PjoOl9UoGw4A3ErOWYQblvhovY/TpXy6Bep9JHRFmHOGLli02K5KKTXq
L4VAoPCI3bvys2y1ALFeMHFsM2QAnsfAyBaD5j401ZnkCDdPr8hZSqjLSqEfJH1/
qz/KCI2ruZQMI5nC5OT7cL+409CTU8MY1HFfVvD/Q5Qd5sF0YUsrfIV6og3obmVW
rQIDAQABo4IBYzCCAV8wCQYDVR0TBAIwADAtBglghkgBhvhCAQ0EIBYeRWFzeS1S
U0EgR2VuZXJhdGVkIENlcnRpZmljYXRlMB0GA1UdDgQWBBTS/4a/9sYXDQWF9uyo
oF0ZXijmKDCB4QYDVR0jBIHZMIHWgBQSzWAE0qCAnnDtxpm4eyzGUv0ZoaGBsqSB
rzCBrDELMAkGA1UEBhMCVVMxCzAJBgNVBAgTAk9IMREwDwYDVQQHEwhDb2x1bWJ1
czESMBAGA1UEChMJVmlraW5nVlBOMR0wGwYDVQQLExRNeU9yZ2FuaXphdGlvbmFs
VW5pdDEVMBMGA1UEAxMMVmlraW5nVlBOIENBMRAwDgYDVQQpEwdFYXN5UlNBMSEw
HwYJKoZIhvcNAQkBFhJtZUBteWhvc3QubXlkb21haW6CCQDPNYXugL8qPjATBgNV
HSUEDDAKBggrBgEFBQcDAjALBgNVHQ8EBAMCB4AwDQYJKoZIhvcNAQEEBQADggIB
AJSg2TiHDvcgLPHgnB1NWd7suNEG9qU0IDZq+Xp4mYsE8z2XOJhnlPOFPloA7pX7
amb5YECCvJJX0lIUGq0XPySAtxSkNCN4BoDZ0ZMBjZrKuHo6gVDLLUgBYUE+0Pkz
zjIqUxCm1D0SqcSCmLVBwK5Ns16skzbLZM/+UQF3fs07W0Of8aK4k1oVdHzHFABR
2+YRLXNaLvK0bScyJh/92Sh4A6I2uEV9AA+4PP4IIAL3IETb2qu5nCoZmK/t7Jih
OF0qbIEdBIAspYcHOHtCHk3NsTH8Jyl4K7WHXFlnmJAIfUAB1wYv7UWmi9LNVpkK
vAoKsvbCJ4R4Ha6eRsK4so1lzErDR36KiBAZ6tVy6YawyLv99DzwGfwx7cBT12pG
wdcAwXoS04rZgcL9qHLGWTThrVarmrQs4PQoofTc6bY+KHOvzNpixet18EIs8btM
aFGmoQ4h0Ldu+O5mUI2G+ZO41CQ3AIs3fGM4VStGuPD6fiL3cKuQNHJMBIPkQdVm
6nE8R9itoPHuWPqVNJrgN8dvG1mAT6vSpkAkT/330gGCzKD3iohdSCvs/zL8s0pJ
PTLAsyVSEjC2mf0nfFziLgpV3dg5p4sso5f4EvmFULi5QPEnZY4IsYVzAzyL1PSC
eTg6a1H/b0ibsa8EryOrGe/AdyPKI288aVzLm5lrvlaX
-----END CERTIFICATE-----
