Certificate:
    Data:
        Version: 3 (0x2)
        Serial Number: 3732 (0xe94)
    Signature Algorithm: md5WithRSAEncryption
        Issuer: C=US, ST=OH, L=Columbus, O=VikingVPN, OU=MyOrganizationalUnit, CN=VikingVPN CA/name=EasyRSA/emailAddress=me@myhost.mydomain
        Validity
            Not Before: Dec 19 12:22:15 2014 GMT
            Not After : Dec 16 12:22:15 2024 GMT
        Subject: CN=Client1281Certb260db
        Subject Public Key Info:
            Public Key Algorithm: rsaEncryption
                Public-Key: (4096 bit)
                Modulus:
                    00:b4:8e:cd:5c:dd:0b:8c:e8:76:b3:e5:f3:c8:59:
                    84:78:11:5f:c4:49:a8:34:b7:7b:89:12:18:6b:7f:
                    e7:8f:a1:88:8c:c9:eb:3d:9f:59:1c:92:31:9b:ee:
                    bf:0c:73:e9:95:0c:3d:72:60:79:b0:0e:77:26:50:
                    42:99:de:58:bb:56:4b:d2:a6:f9:c8:86:66:ab:c3:
                    3d:16:96:89:38:3b:21:fb:ff:db:f9:33:e8:44:50:
                    2f:02:1a:00:0a:f2:1f:e3:40:55:98:cb:cf:12:18:
                    a8:14:c8:96:c2:58:3e:06:e9:c1:9c:4a:0e:27:5b:
                    4e:c8:c2:ba:48:c9:00:64:21:34:9a:7b:5f:0d:8b:
                    5a:70:56:ca:73:7d:eb:5f:1c:6a:d3:81:36:a2:32:
                    d4:60:4d:c0:12:63:f4:2d:41:ee:f6:e9:6d:50:3d:
                    a7:56:de:7f:e1:bd:a5:8b:c5:e8:f6:76:35:a5:b7:
                    ad:75:ec:08:ac:07:ac:cf:30:bc:fb:37:00:66:9c:
                    b4:60:9d:ad:d9:8e:3b:d8:ae:22:2c:b7:c6:b6:a1:
                    d7:c5:b4:9b:86:75:14:de:f1:1d:b0:4a:a0:a4:52:
                    8b:a4:23:3e:08:76:9e:44:14:75:97:a4:24:15:78:
                    7c:e5:0f:8c:cf:df:51:0d:21:df:b0:f9:ad:eb:87:
                    99:2b:ba:d1:5e:9f:3c:e9:ad:33:03:4e:5b:0e:9f:
                    ac:82:41:a2:59:ca:97:d0:c3:f6:3a:61:d3:68:b4:
                    6f:44:c8:28:3f:be:1a:f4:25:24:78:e1:32:f3:c4:
                    f5:9a:7c:4f:fe:5b:78:33:73:0e:de:ba:88:69:a1:
                    ac:09:08:60:27:df:84:e1:46:39:81:fc:5f:85:6e:
                    36:7c:22:06:17:c6:ae:d4:84:7f:3d:4f:ee:c2:02:
                    83:65:24:73:a4:16:e6:44:8a:e2:bc:23:37:ee:41:
                    62:c9:d5:a6:b6:bd:28:b7:16:39:84:89:ee:1e:d7:
                    7f:b2:37:db:a3:f3:a2:5b:83:0a:2e:6b:0e:bf:e3:
                    48:74:40:51:6a:e4:cc:3f:2a:a6:21:5a:e8:b5:03:
                    9c:b5:98:ab:bb:7f:24:e1:8d:20:2a:73:13:dc:28:
                    02:72:0a:62:7c:21:52:10:ee:59:c0:48:e1:f9:6d:
                    46:9f:85:59:5b:dd:4f:72:be:6b:39:de:94:d9:f5:
                    07:53:81:70:b2:6e:ab:33:5a:07:fb:78:2a:5f:91:
                    df:4b:d1:f6:46:c6:01:c0:df:72:2c:bd:a6:41:84:
                    b9:fb:ba:59:17:1e:74:56:4c:92:93:da:d3:35:c4:
                    22:04:d2:b3:f9:e7:b5:be:8b:f2:48:52:65:8f:c0:
                    4c:00:93
                Exponent: 65537 (0x10001)
        X509v3 extensions:
            X509v3 Basic Constraints: 
                CA:FALSE
            Netscape Comment: 
                Easy-RSA Generated Certificate
            X509v3 Subject Key Identifier: 
                E1:8B:C8:47:45:26:FA:F3:65:5D:AA:ED:6D:81:49:EC:DA:EC:AA:26
            X509v3 Authority Key Identifier: 
                keyid:12:CD:60:04:D2:A0:80:9E:70:ED:C6:99:B8:7B:2C:C6:52:FD:19:A1
                DirName:/C=US/ST=OH/L=Columbus/O=VikingVPN/OU=MyOrganizationalUnit/CN=VikingVPN CA/name=EasyRSA/emailAddress=me@myhost.mydomain
                serial:CF:35:85:EE:80:BF:2A:3E

            X509v3 Extended Key Usage: 
                TLS Web Client Authentication
            X509v3 Key Usage: 
                Digital Signature
    Signature Algorithm: md5WithRSAEncryption
         9b:45:b3:d3:ae:38:c4:ba:95:70:6b:6e:ac:a6:04:df:11:d3:
         b6:f7:7b:bb:1e:05:39:5b:e7:6f:e1:47:cb:c5:92:c8:06:9c:
         3b:29:12:1d:4b:11:6f:61:e1:09:30:46:58:8b:2e:86:37:d3:
         0d:4b:01:c3:0d:7e:ae:b5:99:3b:18:2b:5f:d6:4b:40:85:3b:
         2a:ca:6b:36:9b:6f:32:b8:11:e6:0d:6f:80:65:e6:fa:9b:e5:
         ae:33:23:5c:5e:f2:dc:55:53:0d:e2:dd:ff:63:75:2d:b7:f4:
         77:e8:7f:c7:4b:89:eb:ff:fb:8b:56:ac:b9:44:e0:94:f3:e8:
         80:a2:1f:cf:98:e0:d6:56:53:56:65:10:9d:90:fe:b6:d6:80:
         9b:b7:c2:89:bb:b3:22:10:63:3f:39:95:a3:e3:0e:a2:d4:66:
         c6:d1:86:42:91:b6:36:22:2b:20:3b:5c:ad:f9:c4:6e:dd:b3:
         bb:6f:28:07:64:84:03:2f:8a:6f:8e:51:9f:61:06:07:f2:ab:
         82:8f:3c:ae:03:59:12:60:24:71:72:66:d7:69:74:37:05:61:
         98:ce:43:2e:09:5e:5d:bf:af:57:3e:1f:03:8a:54:68:80:71:
         9e:4f:ee:51:0f:a0:53:47:eb:f5:9f:53:86:86:af:e7:7d:eb:
         91:9a:9d:5c:4b:56:f5:c3:40:e8:d4:26:4b:4e:82:0b:c7:c4:
         5d:90:63:22:b6:9b:78:31:b2:f0:6f:aa:3e:ea:6f:c7:f6:8c:
         8e:c1:53:cf:81:06:f5:a5:38:89:85:65:b6:b4:fa:18:03:5a:
         f1:32:80:bf:f6:2d:fd:b8:f1:8a:5d:28:95:66:64:91:12:a4:
         ef:f7:fc:f3:08:1d:78:12:ae:22:d1:e6:14:4e:21:d2:10:a7:
         80:16:44:d8:8d:87:e7:ce:bc:61:15:e5:88:5a:1e:37:88:00:
         9e:13:13:44:57:aa:ee:de:f9:b4:f4:27:be:e6:15:d3:74:44:
         17:4a:1d:4d:53:56:e9:45:35:ce:32:0b:9a:0a:eb:a1:53:2e:
         8e:62:19:06:46:0c:90:8a:f1:dd:ac:62:8e:46:aa:73:79:0a:
         e1:f9:e8:d5:cf:76:9d:a7:71:62:04:17:5a:f8:07:79:b3:f0:
         2b:f2:d7:a2:27:d7:c3:2a:00:7f:44:f8:fd:b2:1e:43:e6:50:
         43:a6:72:4f:2a:34:61:06:39:8c:3d:b8:c9:b1:c4:37:09:36:
         b9:c8:65:fd:50:9e:25:62:c2:fb:a2:54:ef:a3:15:93:d2:1a:
         a8:47:0e:ad:6e:db:5a:25:f8:41:b0:08:81:0d:8c:1a:8f:0b:
         e9:64:a2:bf:fc:b4:dc:9d
-----BEGIN CERTIFICATE-----
MIIGrTCCBJWgAwIBAgICDpQwDQYJKoZIhvcNAQEEBQAwgawxCzAJBgNVBAYTAlVT
MQswCQYDVQQIEwJPSDERMA8GA1UEBxMIQ29sdW1idXMxEjAQBgNVBAoTCVZpa2lu
Z1ZQTjEdMBsGA1UECxMUTXlPcmdhbml6YXRpb25hbFVuaXQxFTATBgNVBAMTDFZp
a2luZ1ZQTiBDQTEQMA4GA1UEKRMHRWFzeVJTQTEhMB8GCSqGSIb3DQEJARYSbWVA
bXlob3N0Lm15ZG9tYWluMB4XDTE0MTIxOTEyMjIxNVoXDTI0MTIxNjEyMjIxNVow
HzEdMBsGA1UEAxMUQ2xpZW50MTI4MUNlcnRiMjYwZGIwggIiMA0GCSqGSIb3DQEB
AQUAA4ICDwAwggIKAoICAQC0js1c3QuM6Haz5fPIWYR4EV/ESag0t3uJEhhrf+eP
oYiMyes9n1kckjGb7r8Mc+mVDD1yYHmwDncmUEKZ3li7VkvSpvnIhmarwz0Wlok4
OyH7/9v5M+hEUC8CGgAK8h/jQFWYy88SGKgUyJbCWD4G6cGcSg4nW07IwrpIyQBk
ITSae18Ni1pwVspzfetfHGrTgTaiMtRgTcASY/QtQe726W1QPadW3n/hvaWLxej2
djWlt6117AisB6zPMLz7NwBmnLRgna3ZjjvYriIst8a2odfFtJuGdRTe8R2wSqCk
UoukIz4Idp5EFHWXpCQVeHzlD4zP31ENId+w+a3rh5krutFenzzprTMDTlsOn6yC
QaJZypfQw/Y6YdNotG9EyCg/vhr0JSR44TLzxPWafE/+W3gzcw7euohpoawJCGAn
34ThRjmB/F+FbjZ8IgYXxq7UhH89T+7CAoNlJHOkFuZEiuK8IzfuQWLJ1aa2vSi3
FjmEie4e13+yN9uj86Jbgwouaw6/40h0QFFq5Mw/KqYhWui1A5y1mKu7fyThjSAq
cxPcKAJyCmJ8IVIQ7lnASOH5bUafhVlb3U9yvms53pTZ9QdTgXCybqszWgf7eCpf
kd9L0fZGxgHA33IsvaZBhLn7ulkXHnRWTJKT2tM1xCIE0rP557W+i/JIUmWPwEwA
kwIDAQABo4IBYzCCAV8wCQYDVR0TBAIwADAtBglghkgBhvhCAQ0EIBYeRWFzeS1S
U0EgR2VuZXJhdGVkIENlcnRpZmljYXRlMB0GA1UdDgQWBBThi8hHRSb682Vdqu1t
gUns2uyqJjCB4QYDVR0jBIHZMIHWgBQSzWAE0qCAnnDtxpm4eyzGUv0ZoaGBsqSB
rzCBrDELMAkGA1UEBhMCVVMxCzAJBgNVBAgTAk9IMREwDwYDVQQHEwhDb2x1bWJ1
czESMBAGA1UEChMJVmlraW5nVlBOMR0wGwYDVQQLExRNeU9yZ2FuaXphdGlvbmFs
VW5pdDEVMBMGA1UEAxMMVmlraW5nVlBOIENBMRAwDgYDVQQpEwdFYXN5UlNBMSEw
HwYJKoZIhvcNAQkBFhJtZUBteWhvc3QubXlkb21haW6CCQDPNYXugL8qPjATBgNV
HSUEDDAKBggrBgEFBQcDAjALBgNVHQ8EBAMCB4AwDQYJKoZIhvcNAQEEBQADggIB
AJtFs9OuOMS6lXBrbqymBN8R07b3e7seBTlb52/hR8vFksgGnDspEh1LEW9h4Qkw
RliLLoY30w1LAcMNfq61mTsYK1/WS0CFOyrKazabbzK4EeYNb4Bl5vqb5a4zI1xe
8txVUw3i3f9jdS239Hfof8dLiev/+4tWrLlE4JTz6ICiH8+Y4NZWU1ZlEJ2Q/rbW
gJu3wom7syIQYz85laPjDqLUZsbRhkKRtjYiKyA7XK35xG7ds7tvKAdkhAMvim+O
UZ9hBgfyq4KPPK4DWRJgJHFyZtdpdDcFYZjOQy4JXl2/r1c+HwOKVGiAcZ5P7lEP
oFNH6/WfU4aGr+d965GanVxLVvXDQOjUJktOggvHxF2QYyK2m3gxsvBvqj7qb8f2
jI7BU8+BBvWlOImFZba0+hgDWvEygL/2Lf248YpdKJVmZJESpO/3/PMIHXgSriLR
5hROIdIQp4AWRNiNh+fOvGEV5YhaHjeIAJ4TE0RXqu7e+bT0J77mFdN0RBdKHU1T
VulFNc4yC5oK66FTLo5iGQZGDJCK8d2sYo5GqnN5CuH56NXPdp2ncWIEF1r4B3mz
8Cvy16In18MqAH9E+P2yHkPmUEOmck8qNGEGOYw9uMmxxDcJNrnIZf1QniViwvui
VO+jFZPSGqhHDq1u21ol+EGwCIENjBqPC+lkor/8tNyd
-----END CERTIFICATE-----
