Certificate:
    Data:
        Version: 3 (0x2)
        Serial Number: 12177 (0x2f91)
    Signature Algorithm: sha256WithRSAEncryption
        Issuer: C=US, ST=OH, L=Columbus, O=VikingVPN, OU=MyOrganizationalUnit, CN=VikingVPN CA/name=EasyRSA/emailAddress=me@myhost.mydomain
        Validity
            Not Before: Nov 28 03:56:13 2017 GMT
            Not After : Nov 26 03:56:13 2027 GMT
        Subject: CN=Client3169Certd259c2
        Subject Public Key Info:
            Public Key Algorithm: rsaEncryption
                Public-Key: (4096 bit)
                Modulus:
                    00:e9:c4:0c:93:26:5f:5f:83:a8:b0:f2:9f:3f:c2:
                    e9:18:89:88:1e:aa:cb:1c:8b:5b:1d:83:45:b9:f1:
                    2e:af:73:f3:8a:a9:65:aa:1f:02:0c:06:92:a2:34:
                    9d:da:37:77:df:0d:87:ee:73:83:95:35:25:21:4b:
                    2f:d9:81:03:c5:0a:e0:ee:4e:7a:d7:08:59:68:a6:
                    7d:f5:00:a8:8c:e0:80:29:f5:b0:8b:c1:99:bd:2f:
                    ed:33:02:1e:aa:10:eb:ce:99:5a:e8:33:e1:d1:bf:
                    67:4e:b5:aa:77:e6:2f:30:c5:d8:dd:59:b4:eb:a5:
                    03:de:6e:3d:aa:ad:86:ba:a9:bd:3c:76:a0:c5:86:
                    ae:94:90:3a:db:a5:c0:c6:67:ea:06:ed:e3:18:21:
                    69:8b:f2:0c:0f:d5:89:38:81:28:00:9d:ec:fd:f1:
                    af:00:95:9b:30:87:d1:45:ce:de:1c:07:00:d4:f1:
                    0d:9a:20:64:d1:a3:d1:ed:8b:57:93:84:ec:1a:1d:
                    6b:c4:54:e6:c1:0b:43:12:29:bf:a6:d2:7b:88:eb:
                    2f:93:a7:a8:14:1c:6d:bd:aa:92:5f:a0:b0:2c:f8:
                    f2:13:30:8b:ea:4f:ca:cb:66:ce:2e:b0:d3:02:a5:
                    ee:1d:24:78:1b:2e:20:36:87:3c:57:3b:f6:15:61:
                    87:98:2c:c1:03:5b:06:42:20:3f:49:2b:a3:d2:61:
                    1d:4f:95:56:80:4b:c4:73:70:77:b1:c1:7b:b5:9b:
                    92:c4:d1:5c:07:a7:ee:29:b6:16:6a:69:28:eb:19:
                    20:35:6e:a5:25:ac:2c:9b:4a:69:fe:7c:93:97:6c:
                    a3:64:b9:a4:07:26:d0:ce:e6:16:7b:5e:4b:22:c2:
                    8d:2e:c4:95:ca:83:f2:fd:22:59:f2:74:82:2a:08:
                    f3:4e:e9:d7:ae:6e:b8:43:d2:d4:ae:f7:66:d6:3d:
                    13:c8:18:ff:e6:c4:df:ff:9b:bf:78:5a:cd:74:c7:
                    b2:81:67:4e:29:19:c6:75:ec:41:76:bf:d7:35:4b:
                    0e:8a:fe:1c:a2:22:d7:f8:10:54:0d:a4:9f:5e:d5:
                    d2:6f:66:70:ad:81:1d:94:21:cd:55:f7:1e:bd:9c:
                    93:81:c4:59:2b:f3:d5:8b:8d:0b:cb:3a:0a:08:f7:
                    9c:87:fc:c5:35:ee:e3:ce:cf:04:b1:e1:fa:06:a7:
                    f3:b2:54:8d:b2:13:94:0e:3b:dc:5b:c7:0c:b5:d0:
                    2b:41:84:69:af:2e:bd:51:10:09:70:64:58:ad:64:
                    8c:4f:0f:b3:16:26:a5:18:45:4b:4f:21:5d:f1:92:
                    f1:17:c6:56:be:3a:06:ed:cb:4f:d2:53:2b:7c:dd:
                    85:25:89
                Exponent: 65537 (0x10001)
        X509v3 extensions:
            X509v3 Basic Constraints: 
                CA:FALSE
            Netscape Comment: 
                Easy-RSA Generated Certificate
            X509v3 Subject Key Identifier: 
                14:46:B2:CC:C5:FB:B7:75:BB:38:B9:59:2D:5C:FF:49:6B:A2:25:7A
            X509v3 Authority Key Identifier: 
                keyid:12:CD:60:04:D2:A0:80:9E:70:ED:C6:99:B8:7B:2C:C6:52:FD:19:A1
                DirName:/C=US/ST=OH/L=Columbus/O=VikingVPN/OU=MyOrganizationalUnit/CN=VikingVPN CA/name=EasyRSA/emailAddress=me@myhost.mydomain
                serial:CF:35:85:EE:80:BF:2A:3E

            X509v3 Extended Key Usage: 
                TLS Web Client Authentication
            X509v3 Key Usage: 
                Digital Signature
    Signature Algorithm: sha256WithRSAEncryption
         a3:17:16:a4:40:fe:98:b2:ab:93:31:e5:8e:94:61:3d:b9:15:
         06:7e:21:d0:f7:6d:c0:7c:1a:1a:53:ce:50:b5:d6:94:b0:28:
         18:4e:86:ab:ab:9b:2d:cd:a5:55:41:59:15:a8:3a:b2:de:51:
         ba:c4:ce:52:96:eb:81:96:89:17:f0:29:4a:40:86:42:79:9b:
         ed:a1:aa:ee:83:43:11:80:a0:14:fa:3c:0a:a4:39:ee:00:2b:
         86:5f:63:67:03:ad:b7:a0:f2:0e:20:b1:b0:fb:7a:67:d9:2c:
         e0:1e:71:79:8e:aa:cf:3b:d0:77:8f:3b:a9:98:e4:20:3e:4f:
         18:eb:a0:5b:bd:54:44:8e:77:e5:e0:e6:a4:05:6b:30:3f:b2:
         53:9e:34:4e:9b:cc:bf:df:9e:97:48:8e:d6:49:2e:d9:ba:8b:
         67:0b:81:05:53:7a:de:00:af:03:6b:53:41:5f:3a:d6:96:1f:
         d1:0f:51:97:fd:7d:fd:d0:31:e6:55:f6:e2:2c:5d:88:e5:ec:
         dc:a4:a6:b1:06:e9:f7:1a:b5:c0:ea:90:24:7d:72:29:cf:f9:
         63:b7:96:56:7b:81:ca:ab:77:64:60:91:f0:7c:69:92:ee:59:
         0e:28:ea:fe:da:b9:56:e1:6f:d7:2a:17:1a:34:ee:75:a3:e9:
         33:5d:f3:b7:93:1a:b1:5d:e6:45:b2:3f:09:95:9a:1c:f5:fb:
         f8:39:4e:b9:41:f8:2a:11:53:e6:89:19:18:44:8c:ac:1b:b5:
         e2:97:6d:09:3b:32:2c:27:52:46:2b:3d:f4:0a:14:7e:f8:1f:
         1c:98:2e:0e:38:53:ee:2b:79:03:49:7b:34:7f:57:d8:c2:31:
         b4:6a:62:34:38:f1:fc:1f:7e:92:dc:1a:e6:f9:6a:da:d0:7f:
         14:ac:5a:a1:15:6f:cf:57:49:59:a9:57:12:c8:55:a9:7b:41:
         d4:0f:ed:73:5f:82:ca:c3:ef:fc:9f:ac:2c:eb:ff:97:97:59:
         20:8b:79:09:76:50:86:22:5f:f6:35:ce:48:af:f8:a2:9e:63:
         f9:39:19:d8:32:05:64:c5:c1:4c:f7:62:c0:3c:52:d1:d6:99:
         4a:4f:1d:c8:5c:d2:5f:c4:03:63:26:c2:6e:f9:59:61:84:bd:
         71:fc:70:c7:13:e8:cd:a1:68:a3:1b:ce:6d:0e:20:ce:08:79:
         1a:1a:ed:12:2b:f8:44:46:45:9d:ee:76:c7:b7:1f:23:aa:3e:
         79:15:c7:2b:df:14:a7:03:d9:ca:8f:04:7d:6c:cf:3c:76:03:
         38:30:db:67:19:03:cd:49:46:d6:81:d6:55:cd:82:17:5e:71:
         0b:70:cf:ba:88:ce:f6:df
-----BEGIN CERTIFICATE-----
MIIGrTCCBJWgAwIBAgICL5EwDQYJKoZIhvcNAQELBQAwgawxCzAJBgNVBAYTAlVT
MQswCQYDVQQIEwJPSDERMA8GA1UEBxMIQ29sdW1idXMxEjAQBgNVBAoTCVZpa2lu
Z1ZQTjEdMBsGA1UECxMUTXlPcmdhbml6YXRpb25hbFVuaXQxFTATBgNVBAMTDFZp
a2luZ1ZQTiBDQTEQMA4GA1UEKRMHRWFzeVJTQTEhMB8GCSqGSIb3DQEJARYSbWVA
bXlob3N0Lm15ZG9tYWluMB4XDTE3MTEyODAzNTYxM1oXDTI3MTEyNjAzNTYxM1ow
HzEdMBsGA1UEAxMUQ2xpZW50MzE2OUNlcnRkMjU5YzIwggIiMA0GCSqGSIb3DQEB
AQUAA4ICDwAwggIKAoICAQDpxAyTJl9fg6iw8p8/wukYiYgeqssci1sdg0W58S6v
c/OKqWWqHwIMBpKiNJ3aN3ffDYfuc4OVNSUhSy/ZgQPFCuDuTnrXCFlopn31AKiM
4IAp9bCLwZm9L+0zAh6qEOvOmVroM+HRv2dOtap35i8wxdjdWbTrpQPebj2qrYa6
qb08dqDFhq6UkDrbpcDGZ+oG7eMYIWmL8gwP1Yk4gSgAnez98a8AlZswh9FFzt4c
BwDU8Q2aIGTRo9Hti1eThOwaHWvEVObBC0MSKb+m0nuI6y+Tp6gUHG29qpJfoLAs
+PITMIvqT8rLZs4usNMCpe4dJHgbLiA2hzxXO/YVYYeYLMEDWwZCID9JK6PSYR1P
lVaAS8RzcHexwXu1m5LE0VwHp+4pthZqaSjrGSA1bqUlrCybSmn+fJOXbKNkuaQH
JtDO5hZ7Xksiwo0uxJXKg/L9IlnydIIqCPNO6deubrhD0tSu92bWPRPIGP/mxN//
m794Ws10x7KBZ04pGcZ17EF2v9c1Sw6K/hyiItf4EFQNpJ9e1dJvZnCtgR2UIc1V
9x69nJOBxFkr89WLjQvLOgoI95yH/MU17uPOzwSx4foGp/OyVI2yE5QOO9xbxwy1
0CtBhGmvLr1REAlwZFitZIxPD7MWJqUYRUtPIV3xkvEXxla+Ogbty0/SUyt83YUl
iQIDAQABo4IBYzCCAV8wCQYDVR0TBAIwADAtBglghkgBhvhCAQ0EIBYeRWFzeS1S
U0EgR2VuZXJhdGVkIENlcnRpZmljYXRlMB0GA1UdDgQWBBQURrLMxfu3dbs4uVkt
XP9Ja6IlejCB4QYDVR0jBIHZMIHWgBQSzWAE0qCAnnDtxpm4eyzGUv0ZoaGBsqSB
rzCBrDELMAkGA1UEBhMCVVMxCzAJBgNVBAgTAk9IMREwDwYDVQQHEwhDb2x1bWJ1
czESMBAGA1UEChMJVmlraW5nVlBOMR0wGwYDVQQLExRNeU9yZ2FuaXphdGlvbmFs
VW5pdDEVMBMGA1UEAxMMVmlraW5nVlBOIENBMRAwDgYDVQQpEwdFYXN5UlNBMSEw
HwYJKoZIhvcNAQkBFhJtZUBteWhvc3QubXlkb21haW6CCQDPNYXugL8qPjATBgNV
HSUEDDAKBggrBgEFBQcDAjALBgNVHQ8EBAMCB4AwDQYJKoZIhvcNAQELBQADggIB
AKMXFqRA/piyq5Mx5Y6UYT25FQZ+IdD3bcB8GhpTzlC11pSwKBhOhqurmy3NpVVB
WRWoOrLeUbrEzlKW64GWiRfwKUpAhkJ5m+2hqu6DQxGAoBT6PAqkOe4AK4ZfY2cD
rbeg8g4gsbD7emfZLOAecXmOqs870HePO6mY5CA+TxjroFu9VESOd+Xg5qQFazA/
slOeNE6bzL/fnpdIjtZJLtm6i2cLgQVTet4ArwNrU0FfOtaWH9EPUZf9ff3QMeZV
9uIsXYjl7NykprEG6fcatcDqkCR9cinP+WO3llZ7gcqrd2RgkfB8aZLuWQ4o6v7a
uVbhb9cqFxo07nWj6TNd87eTGrFd5kWyPwmVmhz1+/g5TrlB+CoRU+aJGRhEjKwb
teKXbQk7MiwnUkYrPfQKFH74HxyYLg44U+4reQNJezR/V9jCMbRqYjQ48fwffpLc
Gub5atrQfxSsWqEVb89XSVmpVxLIVal7QdQP7XNfgsrD7/yfrCzr/5eXWSCLeQl2
UIYiX/Y1zkiv+KKeY/k5GdgyBWTFwUz3YsA8UtHWmUpPHchc0l/EA2Mmwm75WWGE
vXH8cMcT6M2haKMbzm0OIM4IeRoa7RIr+ERGRZ3udse3HyOqPnkVxyvfFKcD2cqP
BH1szzx2Azgw22cZA81JRtaB1lXNghdecQtwz7qIzvbf
-----END CERTIFICATE-----
