Certificate:
    Data:
        Version: 3 (0x2)
        Serial Number: 7606 (0x1db6)
    Signature Algorithm: md5WithRSAEncryption
        Issuer: C=US, ST=OH, L=Columbus, O=VikingVPN, OU=MyOrganizationalUnit, CN=VikingVPN CA/name=EasyRSA/emailAddress=me@myhost.mydomain
        Validity
            Not Before: Mar 25 21:16:06 2016 GMT
            Not After : Mar 23 21:16:06 2026 GMT
        Subject: CN=Client1643Cert1d60f3
        Subject Public Key Info:
            Public Key Algorithm: rsaEncryption
                Public-Key: (4096 bit)
                Modulus:
                    00:bc:5c:77:40:15:6d:b6:0b:de:46:2c:b2:9f:5e:
                    a4:92:c8:d2:e3:83:34:8b:08:c6:78:c7:cf:aa:bc:
                    b6:9d:a0:5c:1a:38:fc:6c:7a:f5:45:18:cc:bc:f1:
                    11:3a:8d:b4:b0:20:23:e9:7d:96:1f:77:10:76:27:
                    f1:55:78:87:cd:ed:19:b8:61:b6:8b:3c:d7:5e:27:
                    fc:25:51:70:00:4b:ce:76:e8:c4:2a:37:aa:5e:6f:
                    84:ca:96:4b:12:87:b3:63:f4:38:de:33:20:30:7f:
                    64:57:99:85:a3:73:b0:19:7d:84:c7:4f:3a:e2:8f:
                    d8:75:03:91:12:f6:ef:39:95:4d:3d:cc:79:fe:e4:
                    2b:9e:26:21:63:25:ce:cf:79:50:3b:15:10:05:48:
                    08:f0:78:25:ea:0b:e4:d3:71:dd:8c:18:48:72:f0:
                    77:57:82:33:ea:7d:07:66:80:5b:21:86:cc:c5:bf:
                    b3:d4:38:7e:d8:ee:a9:f4:36:d0:63:5d:4f:f6:cc:
                    8b:ae:70:50:7b:04:b5:6d:af:9b:b5:67:c4:83:c7:
                    ec:5e:a5:35:f4:cc:68:b3:8d:75:ae:15:fb:4f:ef:
                    85:b5:fb:3d:fe:50:59:f5:08:81:86:50:fd:f7:17:
                    df:94:20:ff:df:dc:f2:b4:a2:a1:ab:3e:04:1a:60:
                    3f:9d:21:e0:a6:3f:f7:81:f9:3a:e0:5f:d9:d8:4b:
                    c3:23:ac:db:f2:e5:86:d3:89:ca:3c:03:74:56:f5:
                    3e:08:e4:37:70:3f:e7:ff:ea:45:24:17:af:d8:a2:
                    1b:95:7f:1f:be:99:69:45:6c:fa:a9:4b:7d:19:08:
                    bb:d1:7d:0e:cc:ab:94:0b:30:70:92:9c:d6:49:0e:
                    6a:9e:b5:d4:bf:ac:fa:27:82:22:4f:24:65:c5:ca:
                    c7:e6:f0:c2:16:54:11:03:6e:ee:58:8e:18:60:f0:
                    d2:42:36:8d:36:ce:87:eb:19:29:fa:0b:49:78:33:
                    52:52:7d:ee:26:5e:bc:34:3c:7b:ec:e0:b1:5a:82:
                    4d:63:db:67:6d:28:24:88:b5:76:ea:e5:35:b7:e8:
                    22:f7:41:0c:cc:e1:91:bc:d3:32:1b:8a:35:61:3a:
                    82:c5:08:ca:a5:52:51:fe:a1:b4:e0:7b:ce:f6:a3:
                    cd:62:c7:21:97:7b:97:af:11:49:2a:ba:94:23:6c:
                    87:ed:48:f1:a4:d6:f5:86:e2:d8:65:4e:b6:b6:8b:
                    fb:83:91:94:a3:fa:1a:4b:95:5f:7b:c4:37:7d:bc:
                    fc:fa:82:c7:20:f0:52:89:b2:02:78:47:28:b1:fd:
                    79:a5:13:29:ca:49:d1:55:01:18:4a:1b:59:37:01:
                    24:e5:cf
                Exponent: 65537 (0x10001)
        X509v3 extensions:
            X509v3 Basic Constraints: 
                CA:FALSE
            Netscape Comment: 
                Easy-RSA Generated Certificate
            X509v3 Subject Key Identifier: 
                C0:72:89:C3:BC:69:FF:B3:2F:3A:F4:97:27:C0:19:CB:7A:53:C6:B4
            X509v3 Authority Key Identifier: 
                keyid:12:CD:60:04:D2:A0:80:9E:70:ED:C6:99:B8:7B:2C:C6:52:FD:19:A1
                DirName:/C=US/ST=OH/L=Columbus/O=VikingVPN/OU=MyOrganizationalUnit/CN=VikingVPN CA/name=EasyRSA/emailAddress=me@myhost.mydomain
                serial:CF:35:85:EE:80:BF:2A:3E

            X509v3 Extended Key Usage: 
                TLS Web Client Authentication
            X509v3 Key Usage: 
                Digital Signature
    Signature Algorithm: md5WithRSAEncryption
         a3:16:7a:a1:8c:6b:76:7d:3b:b3:1c:ed:a5:f3:1c:39:b0:27:
         ee:1a:80:2c:7b:e3:ff:6e:5b:52:28:15:5e:bc:e2:a8:83:58:
         53:5e:97:eb:8a:b7:d8:72:4a:03:e9:34:15:77:f3:ce:19:18:
         7e:bb:06:31:8f:01:1f:f0:fa:92:d3:f1:02:65:0e:e1:bc:97:
         9a:60:cc:3d:02:b2:9b:ff:56:bc:96:0e:03:13:e1:40:d8:d1:
         6a:29:3a:cf:78:ba:40:01:bd:65:f7:92:4a:fe:63:97:9f:a3:
         e6:ff:b6:92:05:2e:7b:2b:d5:61:77:5f:57:36:a0:e3:ef:e5:
         61:1e:3b:39:63:ab:e2:3c:2c:e2:e3:1e:d4:62:11:cb:4c:31:
         23:53:8d:28:71:7f:d3:ca:9e:f2:e5:cf:ff:6f:e8:dd:f5:73:
         0e:c0:23:f8:65:92:04:95:06:48:79:ac:22:d6:37:77:52:12:
         7a:80:8f:33:50:a6:8e:4e:25:8a:94:2f:69:4a:41:c7:65:43:
         b7:76:75:70:ba:01:d2:4f:10:1f:df:ff:c1:f9:79:24:3f:02:
         7e:3c:3f:ef:6a:4f:7e:bb:fa:9f:91:b2:28:f1:ce:70:93:27:
         3e:59:a5:ad:e9:b9:7b:4a:6f:4a:69:86:0e:4b:68:7b:be:d2:
         36:a0:57:db:9c:c3:37:8d:e3:11:3a:cc:48:70:07:fc:71:f5:
         f7:99:aa:c2:2f:27:8a:06:92:c9:db:48:ed:f3:6a:c0:98:ac:
         fc:65:bb:d1:25:6e:0d:50:42:a7:1a:b3:e2:58:5d:4a:e9:2e:
         de:45:99:85:d4:47:a0:dc:60:67:47:1f:e2:23:86:f4:f8:9b:
         0f:be:7e:9e:7f:a0:c8:97:85:d5:81:bb:49:fd:e4:58:80:56:
         e1:64:83:09:9a:06:bd:5a:60:b5:f1:70:91:99:b4:91:d6:18:
         78:ad:a1:fa:ec:ee:bf:db:8b:9e:6c:c4:59:bd:3b:1e:31:c3:
         ac:78:68:0f:2a:57:fa:c3:95:69:e2:7e:94:73:a4:04:88:29:
         62:66:9f:80:7f:5e:12:59:b6:a0:e9:ed:b7:e6:98:f6:e2:23:
         24:03:f6:b7:55:97:b9:c2:1a:1c:f2:23:60:4f:60:f4:bc:d9:
         8d:de:f1:ae:12:1a:a7:45:67:aa:9b:36:4e:be:bb:1a:0b:6d:
         eb:9f:c2:47:5a:7e:4c:bc:50:c0:87:27:ed:4c:8c:dc:f4:10:
         dc:91:16:69:c3:7a:59:94:92:8c:b4:9d:4e:61:98:05:96:43:
         f6:c9:71:42:80:57:dc:b8:8d:3b:be:46:0e:61:b3:f2:4d:ee:
         2a:61:3f:46:d7:fc:ca:ff
-----BEGIN CERTIFICATE-----
MIIGrTCCBJWgAwIBAgICHbYwDQYJKoZIhvcNAQEEBQAwgawxCzAJBgNVBAYTAlVT
MQswCQYDVQQIEwJPSDERMA8GA1UEBxMIQ29sdW1idXMxEjAQBgNVBAoTCVZpa2lu
Z1ZQTjEdMBsGA1UECxMUTXlPcmdhbml6YXRpb25hbFVuaXQxFTATBgNVBAMTDFZp
a2luZ1ZQTiBDQTEQMA4GA1UEKRMHRWFzeVJTQTEhMB8GCSqGSIb3DQEJARYSbWVA
bXlob3N0Lm15ZG9tYWluMB4XDTE2MDMyNTIxMTYwNloXDTI2MDMyMzIxMTYwNlow
HzEdMBsGA1UEAxMUQ2xpZW50MTY0M0NlcnQxZDYwZjMwggIiMA0GCSqGSIb3DQEB
AQUAA4ICDwAwggIKAoICAQC8XHdAFW22C95GLLKfXqSSyNLjgzSLCMZ4x8+qvLad
oFwaOPxsevVFGMy88RE6jbSwICPpfZYfdxB2J/FVeIfN7Rm4YbaLPNdeJ/wlUXAA
S8526MQqN6peb4TKlksSh7Nj9DjeMyAwf2RXmYWjc7AZfYTHTzrij9h1A5ES9u85
lU09zHn+5CueJiFjJc7PeVA7FRAFSAjweCXqC+TTcd2MGEhy8HdXgjPqfQdmgFsh
hszFv7PUOH7Y7qn0NtBjXU/2zIuucFB7BLVtr5u1Z8SDx+xepTX0zGizjXWuFftP
74W1+z3+UFn1CIGGUP33F9+UIP/f3PK0oqGrPgQaYD+dIeCmP/eB+TrgX9nYS8Mj
rNvy5YbTico8A3RW9T4I5DdwP+f/6kUkF6/YohuVfx++mWlFbPqpS30ZCLvRfQ7M
q5QLMHCSnNZJDmqetdS/rPongiJPJGXFysfm8MIWVBEDbu5Yjhhg8NJCNo02zofr
GSn6C0l4M1JSfe4mXrw0PHvs4LFagk1j22dtKCSItXbq5TW36CL3QQzM4ZG80zIb
ijVhOoLFCMqlUlH+obTge872o81ixyGXe5evEUkqupQjbIftSPGk1vWG4thlTra2
i/uDkZSj+hpLlV97xDd9vPz6gscg8FKJsgJ4Ryix/XmlEynKSdFVARhKG1k3ASTl
zwIDAQABo4IBYzCCAV8wCQYDVR0TBAIwADAtBglghkgBhvhCAQ0EIBYeRWFzeS1S
U0EgR2VuZXJhdGVkIENlcnRpZmljYXRlMB0GA1UdDgQWBBTAconDvGn/sy869Jcn
wBnLelPGtDCB4QYDVR0jBIHZMIHWgBQSzWAE0qCAnnDtxpm4eyzGUv0ZoaGBsqSB
rzCBrDELMAkGA1UEBhMCVVMxCzAJBgNVBAgTAk9IMREwDwYDVQQHEwhDb2x1bWJ1
czESMBAGA1UEChMJVmlraW5nVlBOMR0wGwYDVQQLExRNeU9yZ2FuaXphdGlvbmFs
VW5pdDEVMBMGA1UEAxMMVmlraW5nVlBOIENBMRAwDgYDVQQpEwdFYXN5UlNBMSEw
HwYJKoZIhvcNAQkBFhJtZUBteWhvc3QubXlkb21haW6CCQDPNYXugL8qPjATBgNV
HSUEDDAKBggrBgEFBQcDAjALBgNVHQ8EBAMCB4AwDQYJKoZIhvcNAQEEBQADggIB
AKMWeqGMa3Z9O7Mc7aXzHDmwJ+4agCx74/9uW1IoFV684qiDWFNel+uKt9hySgPp
NBV3884ZGH67BjGPAR/w+pLT8QJlDuG8l5pgzD0Cspv/VryWDgMT4UDY0WopOs94
ukABvWX3kkr+Y5efo+b/tpIFLnsr1WF3X1c2oOPv5WEeOzljq+I8LOLjHtRiEctM
MSNTjShxf9PKnvLlz/9v6N31cw7AI/hlkgSVBkh5rCLWN3dSEnqAjzNQpo5OJYqU
L2lKQcdlQ7d2dXC6AdJPEB/f/8H5eSQ/An48P+9qT367+p+RsijxznCTJz5Zpa3p
uXtKb0pphg5LaHu+0jagV9ucwzeN4xE6zEhwB/xx9feZqsIvJ4oGksnbSO3zasCY
rPxlu9Elbg1QQqcas+JYXUrpLt5FmYXUR6DcYGdHH+IjhvT4mw++fp5/oMiXhdWB
u0n95FiAVuFkgwmaBr1aYLXxcJGZtJHWGHitofrs7r/bi55sxFm9Ox4xw6x4aA8q
V/rDlWnifpRzpASIKWJmn4B/XhJZtqDp7bfmmPbiIyQD9rdVl7nCGhzyI2BPYPS8
2Y3e8a4SGqdFZ6qbNk6+uxoLbeufwkdafky8UMCHJ+1MjNz0ENyRFmnDelmUkoy0
nU5hmAWWQ/bJcUKAV9y4jTu+Rg5hs/JN7iphP0bX/Mr/
-----END CERTIFICATE-----
