Certificate:
    Data:
        Version: 3 (0x2)
        Serial Number: 1153 (0x481)
    Signature Algorithm: md5WithRSAEncryption
        Issuer: C=US, ST=OH, L=Columbus, O=VikingVPN, OU=MyOrganizationalUnit, CN=VikingVPN CA/name=EasyRSA/emailAddress=me@myhost.mydomain
        Validity
            Not Before: Feb 25 23:04:49 2014 GMT
            Not After : Feb 23 23:04:49 2024 GMT
        Subject: CN=Client421Cert5b5607
        Subject Public Key Info:
            Public Key Algorithm: rsaEncryption
                Public-Key: (4096 bit)
                Modulus:
                    00:d1:54:9e:b0:53:60:78:70:20:2e:44:ba:a2:75:
                    2c:a0:4e:fd:5e:c4:ce:a9:6e:a4:3a:48:64:25:4b:
                    ce:71:93:86:17:50:97:14:59:61:0c:b5:95:99:78:
                    11:b1:a3:58:ce:ea:d9:f1:d2:ca:11:c9:de:ff:f5:
                    3f:76:92:3a:85:8f:c4:48:2a:85:17:0f:0f:90:17:
                    00:fa:a2:0b:83:a8:aa:16:80:9e:b4:e9:90:a1:a0:
                    cc:1a:1d:e6:14:f1:d1:b5:ca:fc:85:df:ca:16:ee:
                    18:f7:3a:d1:40:22:e5:df:7e:06:4a:8b:b4:a9:f0:
                    8d:5f:cc:ec:b3:5a:fa:07:ce:c3:02:e7:5f:6a:f8:
                    0d:fc:58:30:47:d8:1b:64:ff:f8:95:a0:1a:d1:3c:
                    09:b3:06:9e:c7:60:68:82:94:44:be:ff:c9:d0:89:
                    c1:3f:1e:64:58:9b:49:35:06:0d:5f:e8:ff:ae:df:
                    86:eb:5a:16:b7:d2:4f:dd:42:af:8b:c7:6d:9f:ae:
                    d7:4c:dc:65:51:fc:57:15:89:1f:62:bc:c5:f7:2c:
                    a1:34:77:63:11:52:e9:45:0e:ff:d5:3b:64:19:08:
                    51:1d:25:9f:4e:38:dd:36:0e:b7:15:6c:66:c8:12:
                    31:3f:6c:a0:48:1d:6a:67:e6:91:ba:be:b8:b3:63:
                    ac:fb:ef:91:33:db:94:d9:f0:27:db:0a:03:92:9b:
                    97:70:46:cf:19:b8:d5:6d:c3:8c:8f:3c:5a:81:4a:
                    25:53:00:66:b3:01:92:a5:9d:58:ce:75:e0:1c:67:
                    9e:53:22:1a:87:a0:f0:8a:d2:70:05:6e:5b:87:fd:
                    d4:59:c6:b4:d4:1c:f8:06:bc:8d:f8:bc:8d:39:0b:
                    db:4f:b1:ac:15:1b:42:c8:81:77:a4:0c:2b:0f:88:
                    ee:9f:e4:ed:84:6a:93:e2:7e:0f:89:d3:dc:45:85:
                    65:8e:3a:10:1e:3c:54:80:e1:04:37:82:f0:65:79:
                    1b:fa:c5:46:1c:95:d3:1a:5e:d8:13:77:1f:22:69:
                    cf:b7:a4:0e:4d:49:45:5a:6a:63:4b:d7:fe:51:c1:
                    68:48:fa:b1:1c:68:1f:16:0d:d4:38:ce:6d:2b:4d:
                    6d:a6:b7:b9:5b:13:0a:f2:45:fe:b6:6e:60:c4:4d:
                    c6:e3:a2:ca:1c:b1:43:2f:4f:a5:2e:53:58:9f:7c:
                    4a:0b:e8:7c:d2:d0:78:4c:0e:9f:4b:96:01:38:f5:
                    f9:15:06:1d:69:a1:02:42:e7:70:e5:74:85:9d:a4:
                    8c:54:2e:e2:70:8a:c3:a9:41:2c:af:6d:31:4f:4c:
                    8f:92:7b:41:51:ca:80:fc:4f:78:f4:f2:14:da:ef:
                    34:84:ff
                Exponent: 65537 (0x10001)
        X509v3 extensions:
            X509v3 Basic Constraints: 
                CA:FALSE
            Netscape Comment: 
                Easy-RSA Generated Certificate
            X509v3 Subject Key Identifier: 
                03:38:A6:50:ED:4B:FB:5F:08:16:A2:FA:0A:EB:62:0F:02:70:94:0E
            X509v3 Authority Key Identifier: 
                keyid:12:CD:60:04:D2:A0:80:9E:70:ED:C6:99:B8:7B:2C:C6:52:FD:19:A1
                DirName:/C=US/ST=OH/L=Columbus/O=VikingVPN/OU=MyOrganizationalUnit/CN=VikingVPN CA/name=EasyRSA/emailAddress=me@myhost.mydomain
                serial:CF:35:85:EE:80:BF:2A:3E

            X509v3 Extended Key Usage: 
                TLS Web Client Authentication
            X509v3 Key Usage: 
                Digital Signature
    Signature Algorithm: md5WithRSAEncryption
         e6:61:09:23:eb:a9:5f:3c:e6:e2:03:43:9e:b9:9b:e0:cd:53:
         84:ef:c1:23:45:10:3e:2c:5a:82:b8:bb:55:d2:0e:99:31:79:
         01:a4:0e:b2:03:f5:df:ca:42:40:16:b6:1a:73:fa:d0:5c:46:
         e4:f7:81:ec:64:43:1e:d0:35:f1:72:6f:7b:6c:1d:64:2e:65:
         a6:62:db:de:ca:c1:09:55:6f:21:83:01:b7:f8:1b:fe:dd:5e:
         ea:cc:e9:86:30:93:ef:44:8e:1a:5e:16:bb:01:2e:ec:6e:2a:
         43:9d:ef:d3:3e:d1:91:3c:8b:e5:e9:e9:85:30:b1:b6:2c:d6:
         2b:10:82:96:07:9b:2a:6e:b0:38:cc:73:f1:11:c4:c2:b6:72:
         0f:9b:31:77:1c:4b:74:2f:e9:ab:69:3f:06:ca:ef:39:b1:c3:
         5e:2e:41:e6:17:a4:d2:c9:32:fd:7c:0a:5a:7b:47:45:c0:3a:
         bf:ef:bf:f5:73:2b:b3:ec:69:4e:e1:88:92:58:fc:16:85:cc:
         d3:25:22:ab:f8:66:d1:76:e0:5e:54:4f:25:74:35:9b:fb:a9:
         ba:8f:31:e6:e8:f8:81:af:7b:75:1c:9a:60:ac:95:ae:04:d2:
         73:6b:e9:79:0b:0d:42:3c:3e:94:84:8e:17:bc:6d:d0:c0:e9:
         b0:f1:eb:31:8d:45:68:73:d0:88:b6:10:34:f8:d3:82:75:42:
         21:fd:a7:7a:f0:2c:ad:40:fe:44:1a:7c:ea:ba:79:b3:f5:c3:
         f4:10:52:a0:be:54:48:33:36:ec:64:13:b0:43:76:e8:34:d7:
         24:58:5e:f4:d1:8f:0c:6d:c9:0c:95:21:d0:e1:98:36:cb:07:
         5c:a5:9e:61:37:df:d2:d6:96:99:b9:f5:4a:04:40:84:a8:e0:
         07:0b:f3:37:46:d3:f8:a6:2b:de:e6:f0:38:6d:06:8a:af:12:
         c3:2d:a9:a5:ee:a8:1a:c9:fb:cd:da:76:02:eb:9c:d7:b1:78:
         f5:a7:9f:5a:29:0f:84:06:b4:99:a3:bc:30:23:ef:75:f8:4a:
         fe:42:d0:ae:45:70:e0:b2:2e:15:4f:c5:af:0c:48:2f:c2:1d:
         75:f5:2d:83:9f:df:dd:8a:45:ac:35:f1:ee:44:2d:b1:a5:69:
         dd:d7:fd:5f:ab:e1:9a:a1:13:60:13:bb:90:69:fd:4b:f1:6b:
         b6:ad:f6:6f:9f:a7:9a:32:d9:ab:9f:cc:1a:2c:9f:eb:36:68:
         79:10:00:64:87:47:75:b6:c9:a0:b1:a0:56:83:13:13:04:4a:
         48:c4:6b:59:e6:30:60:6e:e5:4f:b6:6f:16:42:8e:47:23:62:
         22:a5:75:5a:14:3f:87:f5
-----BEGIN CERTIFICATE-----
MIIGrDCCBJSgAwIBAgICBIEwDQYJKoZIhvcNAQEEBQAwgawxCzAJBgNVBAYTAlVT
MQswCQYDVQQIEwJPSDERMA8GA1UEBxMIQ29sdW1idXMxEjAQBgNVBAoTCVZpa2lu
Z1ZQTjEdMBsGA1UECxMUTXlPcmdhbml6YXRpb25hbFVuaXQxFTATBgNVBAMTDFZp
a2luZ1ZQTiBDQTEQMA4GA1UEKRMHRWFzeVJTQTEhMB8GCSqGSIb3DQEJARYSbWVA
bXlob3N0Lm15ZG9tYWluMB4XDTE0MDIyNTIzMDQ0OVoXDTI0MDIyMzIzMDQ0OVow
HjEcMBoGA1UEAxMTQ2xpZW50NDIxQ2VydDViNTYwNzCCAiIwDQYJKoZIhvcNAQEB
BQADggIPADCCAgoCggIBANFUnrBTYHhwIC5EuqJ1LKBO/V7EzqlupDpIZCVLznGT
hhdQlxRZYQy1lZl4EbGjWM7q2fHSyhHJ3v/1P3aSOoWPxEgqhRcPD5AXAPqiC4Oo
qhaAnrTpkKGgzBod5hTx0bXK/IXfyhbuGPc60UAi5d9+BkqLtKnwjV/M7LNa+gfO
wwLnX2r4DfxYMEfYG2T/+JWgGtE8CbMGnsdgaIKURL7/ydCJwT8eZFibSTUGDV/o
/67fhutaFrfST91Cr4vHbZ+u10zcZVH8VxWJH2K8xfcsoTR3YxFS6UUO/9U7ZBkI
UR0ln0443TYOtxVsZsgSMT9soEgdamfmkbq+uLNjrPvvkTPblNnwJ9sKA5Kbl3BG
zxm41W3DjI88WoFKJVMAZrMBkqWdWM514BxnnlMiGoeg8IrScAVuW4f91FnGtNQc
+Aa8jfi8jTkL20+xrBUbQsiBd6QMKw+I7p/k7YRqk+J+D4nT3EWFZY46EB48VIDh
BDeC8GV5G/rFRhyV0xpe2BN3HyJpz7ekDk1JRVpqY0vX/lHBaEj6sRxoHxYN1DjO
bStNbaa3uVsTCvJF/rZuYMRNxuOiyhyxQy9PpS5TWJ98SgvofNLQeEwOn0uWATj1
+RUGHWmhAkLncOV0hZ2kjFQu4nCKw6lBLK9tMU9Mj5J7QVHKgPxPePTyFNrvNIT/
AgMBAAGjggFjMIIBXzAJBgNVHRMEAjAAMC0GCWCGSAGG+EIBDQQgFh5FYXN5LVJT
QSBHZW5lcmF0ZWQgQ2VydGlmaWNhdGUwHQYDVR0OBBYEFAM4plDtS/tfCBai+grr
Yg8CcJQOMIHhBgNVHSMEgdkwgdaAFBLNYATSoICecO3Gmbh7LMZS/RmhoYGypIGv
MIGsMQswCQYDVQQGEwJVUzELMAkGA1UECBMCT0gxETAPBgNVBAcTCENvbHVtYnVz
MRIwEAYDVQQKEwlWaWtpbmdWUE4xHTAbBgNVBAsTFE15T3JnYW5pemF0aW9uYWxV
bml0MRUwEwYDVQQDEwxWaWtpbmdWUE4gQ0ExEDAOBgNVBCkTB0Vhc3lSU0ExITAf
BgkqhkiG9w0BCQEWEm1lQG15aG9zdC5teWRvbWFpboIJAM81he6Avyo+MBMGA1Ud
JQQMMAoGCCsGAQUFBwMCMAsGA1UdDwQEAwIHgDANBgkqhkiG9w0BAQQFAAOCAgEA
5mEJI+upXzzm4gNDnrmb4M1ThO/BI0UQPixagri7VdIOmTF5AaQOsgP138pCQBa2
GnP60FxG5PeB7GRDHtA18XJve2wdZC5lpmLb3srBCVVvIYMBt/gb/t1e6szphjCT
70SOGl4WuwEu7G4qQ53v0z7RkTyL5enphTCxtizWKxCClgebKm6wOMxz8RHEwrZy
D5sxdxxLdC/pq2k/BsrvObHDXi5B5hek0sky/XwKWntHRcA6v++/9XMrs+xpTuGI
klj8FoXM0yUiq/hm0XbgXlRPJXQ1m/upuo8x5uj4ga97dRyaYKyVrgTSc2vpeQsN
Qjw+lISOF7xt0MDpsPHrMY1FaHPQiLYQNPjTgnVCIf2nevAsrUD+RBp86rp5s/XD
9BBSoL5USDM27GQTsEN26DTXJFhe9NGPDG3JDJUh0OGYNssHXKWeYTff0taWmbn1
SgRAhKjgBwvzN0bT+KYr3ubwOG0Giq8Swy2ppe6oGsn7zdp2Auuc17F49aefWikP
hAa0maO8MCPvdfhK/kLQrkVw4LIuFU/FrwxIL8IddfUtg5/f3YpFrDXx7kQtsaVp
3df9X6vhmqETYBO7kGn9S/Frtq32b5+nmjLZq5/MGiyf6zZoeRAAZIdHdbbJoLGg
VoMTEwRKSMRrWeYwYG7lT7ZvFkKORyNiIqV1WhQ/h/U=
-----END CERTIFICATE-----
