Certificate:
    Data:
        Version: 3 (0x2)
        Serial Number: 9674 (0x25ca)
    Signature Algorithm: sha256WithRSAEncryption
        Issuer: C=US, ST=OH, L=Columbus, O=VikingVPN, OU=MyOrganizationalUnit, CN=VikingVPN CA/name=EasyRSA/emailAddress=me@myhost.mydomain
        Validity
            Not Before: Dec  7 17:09:17 2016 GMT
            Not After : Dec  5 17:09:17 2026 GMT
        Subject: CN=Client1713Certb61e82
        Subject Public Key Info:
            Public Key Algorithm: rsaEncryption
                Public-Key: (4096 bit)
                Modulus:
                    00:b1:3c:73:79:27:c3:1e:76:e7:78:17:80:5c:36:
                    6d:1e:27:b7:49:e0:37:d1:0d:07:41:35:03:f0:c3:
                    0f:66:e5:d8:1f:6a:72:30:f4:ee:56:2c:96:6b:aa:
                    9d:af:c9:58:d0:b7:99:40:5d:eb:4b:cd:ce:ff:f5:
                    04:c4:c7:24:08:86:9d:bf:5f:eb:e6:70:36:36:f3:
                    67:bd:9f:dc:e0:d8:86:fd:b6:39:9b:af:18:0b:2c:
                    56:ef:02:58:88:8b:48:ae:cb:10:08:17:f0:cc:2f:
                    38:18:b8:a1:aa:fa:34:c0:b0:4c:24:f4:ce:a8:34:
                    e2:5d:21:61:db:19:fc:56:71:e9:6c:0d:74:ae:81:
                    7d:e2:c5:1e:20:b5:92:b3:7c:9a:e3:a8:f0:5a:cd:
                    1d:6f:ba:69:08:22:11:44:70:f9:bf:ec:1b:dc:50:
                    11:f1:3e:44:08:2b:d1:23:03:f5:4d:b1:82:3e:85:
                    7c:65:39:38:59:6a:7a:e7:d7:1a:50:38:be:3e:55:
                    c9:f2:6e:a7:33:5e:21:14:db:80:b3:14:08:d8:f8:
                    fc:85:02:3f:21:2f:f9:67:34:31:07:44:47:38:c3:
                    b2:f1:17:93:12:5d:03:bd:9d:90:23:a1:11:f8:0b:
                    6c:8b:19:56:70:a9:f0:ac:a6:4c:51:f7:cc:f6:47:
                    db:f2:87:35:9e:ac:ae:8a:da:c8:33:4d:6c:3f:21:
                    cb:fa:c6:14:46:e0:11:a5:f5:5a:f6:d8:f8:c2:e2:
                    ad:f2:de:c5:92:f9:c1:7c:80:1f:fb:f7:77:a5:57:
                    08:a6:19:d4:ac:0d:0e:6b:12:47:f3:f7:f4:92:05:
                    d1:b2:a0:2c:91:ae:e5:14:e5:fc:19:93:3c:fa:8e:
                    97:7f:89:ac:cb:bd:76:0c:69:f5:cd:61:e1:5d:2a:
                    83:1d:4a:77:1a:99:e3:d3:e2:0b:51:5f:b9:b8:47:
                    9b:35:ec:38:28:20:48:7b:45:17:37:23:f0:a0:e7:
                    2f:11:a9:f6:26:3e:7a:fd:26:77:f4:8c:df:8c:cf:
                    7a:c5:fc:03:1e:b4:5c:7e:96:06:2d:b9:6c:6f:35:
                    14:81:6b:6a:80:78:bc:62:7b:d1:2d:36:9f:c6:01:
                    a6:b4:fc:2d:b0:87:34:7e:80:a4:95:cb:75:af:e5:
                    bc:e8:5f:d3:28:1f:c2:5e:d4:ec:cd:26:fc:ff:b1:
                    56:67:27:15:75:d5:39:04:58:b6:55:cd:4e:3a:c0:
                    f8:94:55:66:66:a6:5f:f2:7b:00:77:41:42:62:9a:
                    78:56:21:49:d1:a3:50:f9:7f:9b:dc:65:46:b8:37:
                    f4:f0:9f:38:90:8d:30:33:bf:09:a7:2a:c3:54:77:
                    55:4d:a1
                Exponent: 65537 (0x10001)
        X509v3 extensions:
            X509v3 Basic Constraints: 
                CA:FALSE
            Netscape Comment: 
                Easy-RSA Generated Certificate
            X509v3 Subject Key Identifier: 
                E2:89:8A:9C:B0:3E:12:42:66:8B:0C:69:05:06:64:F9:79:81:92:C7
            X509v3 Authority Key Identifier: 
                keyid:12:CD:60:04:D2:A0:80:9E:70:ED:C6:99:B8:7B:2C:C6:52:FD:19:A1
                DirName:/C=US/ST=OH/L=Columbus/O=VikingVPN/OU=MyOrganizationalUnit/CN=VikingVPN CA/name=EasyRSA/emailAddress=me@myhost.mydomain
                serial:CF:35:85:EE:80:BF:2A:3E

            X509v3 Extended Key Usage: 
                TLS Web Client Authentication
            X509v3 Key Usage: 
                Digital Signature
    Signature Algorithm: sha256WithRSAEncryption
         49:06:b3:01:eb:64:e6:5d:4b:2c:ac:c1:53:88:e8:c2:89:6d:
         0f:34:19:40:82:0f:2d:c2:e2:8d:47:c5:96:5a:35:05:df:09:
         9c:43:8d:f9:10:f1:48:58:4e:0b:69:bc:11:b4:11:bc:16:f4:
         12:57:18:f6:7b:df:a2:13:72:ed:b1:5a:20:f1:5b:36:c8:71:
         4d:37:c2:8d:8a:bb:cb:56:f5:ec:96:0e:26:b4:bb:73:3c:3f:
         90:9f:1c:bf:90:f3:a3:60:cf:bd:31:76:32:b1:b9:4f:8e:6b:
         f9:33:6c:bd:1b:7a:2b:3b:b3:cc:9e:24:f2:7a:bc:91:16:06:
         67:4e:a6:e0:fa:73:37:b3:1e:e3:b6:ae:fe:8f:96:81:49:bb:
         c9:5c:18:56:4c:44:50:3e:13:2d:70:2f:74:5f:15:6c:83:77:
         55:54:bf:4d:ba:83:e2:a2:f6:e8:f9:69:de:ed:ee:51:15:cb:
         59:d9:a8:6e:d9:3a:bc:6b:ee:1c:f0:9a:9a:7a:f8:a7:53:97:
         ab:04:42:f8:4e:f9:28:42:98:ef:c7:c2:65:ad:14:f8:37:1d:
         85:9c:88:dc:4b:e1:0d:ac:d1:81:ac:36:0f:e0:ae:f8:98:17:
         c3:8e:2c:6a:6f:8b:0f:c7:5f:fb:f6:8a:12:c8:86:8b:53:e7:
         ac:7d:34:1f:d0:c1:f0:2d:80:da:63:c4:cc:fe:a8:db:8a:cb:
         49:34:6e:b7:3a:12:11:03:97:65:8c:70:4c:3d:7b:86:a5:fe:
         d3:cd:7b:4a:66:8b:ba:dc:d1:cf:8c:7f:45:2a:50:66:ce:bd:
         dd:35:11:ef:f1:3b:ce:d6:9f:47:3c:05:f5:89:91:72:63:2d:
         83:be:9e:4a:55:06:18:00:8f:ce:4a:ec:bb:84:b6:5a:b8:ea:
         80:b1:53:df:ba:5d:f4:f7:76:a1:c0:30:49:94:1f:7b:3c:3d:
         f4:59:3c:98:c2:70:e9:f4:eb:99:71:c2:f2:63:31:89:68:32:
         e9:53:fc:32:63:11:de:ef:86:73:e3:82:59:20:11:35:6e:01:
         8b:b5:48:21:8e:41:0f:84:9b:70:1f:c2:42:cb:68:4b:07:0e:
         fb:10:fb:bb:94:e9:6b:b2:18:23:80:88:75:5a:5b:5b:b3:e0:
         99:4f:26:a0:e3:da:91:e6:b4:87:cf:75:27:dd:3d:74:94:b7:
         00:42:95:c5:2c:72:3b:b2:e2:49:98:b1:9c:a3:88:21:08:ba:
         9a:af:22:e1:39:ac:89:eb:89:1f:37:df:57:b1:ce:5e:cf:94:
         fe:aa:20:41:a5:6a:a8:5d:af:c6:6e:61:24:31:0c:70:39:87:
         c1:8b:1a:fa:89:ae:4a:a7
-----BEGIN CERTIFICATE-----
MIIGrTCCBJWgAwIBAgICJcowDQYJKoZIhvcNAQELBQAwgawxCzAJBgNVBAYTAlVT
MQswCQYDVQQIEwJPSDERMA8GA1UEBxMIQ29sdW1idXMxEjAQBgNVBAoTCVZpa2lu
Z1ZQTjEdMBsGA1UECxMUTXlPcmdhbml6YXRpb25hbFVuaXQxFTATBgNVBAMTDFZp
a2luZ1ZQTiBDQTEQMA4GA1UEKRMHRWFzeVJTQTEhMB8GCSqGSIb3DQEJARYSbWVA
bXlob3N0Lm15ZG9tYWluMB4XDTE2MTIwNzE3MDkxN1oXDTI2MTIwNTE3MDkxN1ow
HzEdMBsGA1UEAxMUQ2xpZW50MTcxM0NlcnRiNjFlODIwggIiMA0GCSqGSIb3DQEB
AQUAA4ICDwAwggIKAoICAQCxPHN5J8Medud4F4BcNm0eJ7dJ4DfRDQdBNQPwww9m
5dgfanIw9O5WLJZrqp2vyVjQt5lAXetLzc7/9QTExyQIhp2/X+vmcDY282e9n9zg
2Ib9tjmbrxgLLFbvAliIi0iuyxAIF/DMLzgYuKGq+jTAsEwk9M6oNOJdIWHbGfxW
celsDXSugX3ixR4gtZKzfJrjqPBazR1vumkIIhFEcPm/7BvcUBHxPkQIK9EjA/VN
sYI+hXxlOThZanrn1xpQOL4+VcnybqczXiEU24CzFAjY+PyFAj8hL/lnNDEHREc4
w7LxF5MSXQO9nZAjoRH4C2yLGVZwqfCspkxR98z2R9vyhzWerK6K2sgzTWw/Icv6
xhRG4BGl9Vr22PjC4q3y3sWS+cF8gB/793elVwimGdSsDQ5rEkfz9/SSBdGyoCyR
ruUU5fwZkzz6jpd/iazLvXYMafXNYeFdKoMdSncamePT4gtRX7m4R5s17DgoIEh7
RRc3I/Cg5y8RqfYmPnr9Jnf0jN+Mz3rF/AMetFx+lgYtuWxvNRSBa2qAeLxie9Et
Np/GAaa0/C2whzR+gKSVy3Wv5bzoX9MoH8Je1OzNJvz/sVZnJxV11TkEWLZVzU46
wPiUVWZmpl/yewB3QUJimnhWIUnRo1D5f5vcZUa4N/TwnziQjTAzvwmnKsNUd1VN
oQIDAQABo4IBYzCCAV8wCQYDVR0TBAIwADAtBglghkgBhvhCAQ0EIBYeRWFzeS1S
U0EgR2VuZXJhdGVkIENlcnRpZmljYXRlMB0GA1UdDgQWBBTiiYqcsD4SQmaLDGkF
BmT5eYGSxzCB4QYDVR0jBIHZMIHWgBQSzWAE0qCAnnDtxpm4eyzGUv0ZoaGBsqSB
rzCBrDELMAkGA1UEBhMCVVMxCzAJBgNVBAgTAk9IMREwDwYDVQQHEwhDb2x1bWJ1
czESMBAGA1UEChMJVmlraW5nVlBOMR0wGwYDVQQLExRNeU9yZ2FuaXphdGlvbmFs
VW5pdDEVMBMGA1UEAxMMVmlraW5nVlBOIENBMRAwDgYDVQQpEwdFYXN5UlNBMSEw
HwYJKoZIhvcNAQkBFhJtZUBteWhvc3QubXlkb21haW6CCQDPNYXugL8qPjATBgNV
HSUEDDAKBggrBgEFBQcDAjALBgNVHQ8EBAMCB4AwDQYJKoZIhvcNAQELBQADggIB
AEkGswHrZOZdSyyswVOI6MKJbQ80GUCCDy3C4o1HxZZaNQXfCZxDjfkQ8UhYTgtp
vBG0EbwW9BJXGPZ736ITcu2xWiDxWzbIcU03wo2Ku8tW9eyWDia0u3M8P5CfHL+Q
86Ngz70xdjKxuU+Oa/kzbL0beis7s8yeJPJ6vJEWBmdOpuD6czezHuO2rv6PloFJ
u8lcGFZMRFA+Ey1wL3RfFWyDd1VUv026g+Ki9uj5ad7t7lEVy1nZqG7ZOrxr7hzw
mpp6+KdTl6sEQvhO+ShCmO/HwmWtFPg3HYWciNxL4Q2s0YGsNg/grviYF8OOLGpv
iw/HX/v2ihLIhotT56x9NB/QwfAtgNpjxMz+qNuKy0k0brc6EhEDl2WMcEw9e4al
/tPNe0pmi7rc0c+Mf0UqUGbOvd01Ee/xO87Wn0c8BfWJkXJjLYO+nkpVBhgAj85K
7LuEtlq46oCxU9+6XfT3dqHAMEmUH3s8PfRZPJjCcOn065lxwvJjMYloMulT/DJj
Ed7vhnPjglkgETVuAYu1SCGOQQ+Em3AfwkLLaEsHDvsQ+7uU6WuyGCOAiHVaW1uz
4JlPJqDj2pHmtIfPdSfdPXSUtwBClcUscjuy4kmYsZyjiCEIupqvIuE5rInriR83
31exzl7PlP6qIEGlaqhdr8ZuYSQxDHA5h8GLGvqJrkqn
-----END CERTIFICATE-----
