Certificate:
    Data:
        Version: 3 (0x2)
        Serial Number: 6127 (0x17ef)
    Signature Algorithm: md5WithRSAEncryption
        Issuer: C=US, ST=OH, L=Columbus, O=VikingVPN, OU=MyOrganizationalUnit, CN=VikingVPN CA/name=EasyRSA/emailAddress=me@myhost.mydomain
        Validity
            Not Before: Aug 25 01:59:08 2015 GMT
            Not After : Aug 22 01:59:08 2025 GMT
        Subject: CN=Client327Cert9719aa
        Subject Public Key Info:
            Public Key Algorithm: rsaEncryption
                Public-Key: (4096 bit)
                Modulus:
                    00:b4:ca:5e:10:74:26:6e:59:f8:fd:73:da:0a:0f:
                    52:2d:89:76:df:65:09:d0:9c:6e:74:22:92:b0:0e:
                    d9:b1:49:7c:fc:31:45:81:17:48:23:f6:f9:2a:01:
                    64:2f:d5:bc:60:19:ad:44:d3:1a:df:ba:af:d2:c6:
                    18:2f:5c:b2:4c:6b:cd:e8:6a:84:a8:bc:21:17:7b:
                    88:52:0c:4d:95:fa:93:ab:e6:ce:a6:82:48:ff:e8:
                    ba:98:1a:49:c7:74:12:1e:49:be:03:ef:3e:66:1d:
                    00:2d:dc:05:c3:d6:4d:b9:7f:09:25:71:ec:9a:7e:
                    17:7a:3a:cf:c0:bf:ed:b1:63:a3:d4:61:0b:a6:5a:
                    e9:7a:88:41:40:c1:14:d3:37:b3:24:a9:3f:fb:fc:
                    d4:b5:64:00:0e:de:16:95:89:22:34:da:ad:99:ab:
                    5d:84:b3:2d:c0:57:04:53:21:bb:ef:15:c7:b8:23:
                    89:ec:a4:fe:8b:fb:3e:72:a6:28:7d:38:54:fd:75:
                    67:d2:08:20:44:f9:4d:31:43:40:3c:50:04:0f:e8:
                    80:81:da:da:66:eb:3b:2c:53:65:8c:7a:e1:6a:7a:
                    07:12:b8:2d:54:e9:1a:c6:d1:fe:fe:48:8e:0d:a9:
                    a9:73:f1:78:f8:04:7d:db:bf:b1:80:1b:7f:9e:5f:
                    ab:3b:fd:c0:ad:ad:52:8d:07:2e:cc:b0:fa:3c:66:
                    02:1f:30:3a:0b:0d:f5:56:2b:e7:02:a2:34:94:6e:
                    27:26:14:ca:e3:e8:97:37:74:6a:60:ae:74:4c:3e:
                    06:ce:8b:42:01:f0:d0:67:93:1b:8b:57:cc:bb:3e:
                    88:0d:b4:e0:c0:69:71:63:7b:e1:59:3a:c4:ca:19:
                    cd:e4:91:cd:16:6e:7e:2c:b6:58:4d:cb:b6:81:45:
                    9e:a1:06:88:08:2f:27:74:b5:e1:2e:96:61:62:eb:
                    58:54:e8:98:63:37:15:88:5f:53:02:78:2c:4a:e7:
                    b9:eb:35:40:de:3f:1c:15:86:01:9b:4a:fc:48:82:
                    4e:09:24:0f:24:93:ba:e9:4b:34:45:25:c9:6d:97:
                    3d:e9:04:39:44:9f:a4:c2:2e:3e:a2:0a:5e:84:32:
                    63:bf:c4:ff:6a:cd:15:f3:ec:d4:2f:06:8c:c9:76:
                    aa:6b:f5:7f:13:20:02:ae:b1:0d:7b:61:5f:15:76:
                    07:ae:04:53:98:98:73:60:83:8a:25:99:40:8f:7e:
                    c1:0c:74:7b:70:fd:22:ae:fd:e2:ea:8a:90:c8:05:
                    96:f9:19:82:d0:8c:cb:5b:73:11:59:13:a5:55:bd:
                    01:eb:09:54:b5:e6:7a:fc:14:6d:80:08:3b:f1:9b:
                    18:c8:4f
                Exponent: 65537 (0x10001)
        X509v3 extensions:
            X509v3 Basic Constraints: 
                CA:FALSE
            Netscape Comment: 
                Easy-RSA Generated Certificate
            X509v3 Subject Key Identifier: 
                52:EB:7F:03:43:D7:46:EF:69:60:F1:E1:A1:61:D7:50:12:DD:64:8E
            X509v3 Authority Key Identifier: 
                keyid:12:CD:60:04:D2:A0:80:9E:70:ED:C6:99:B8:7B:2C:C6:52:FD:19:A1
                DirName:/C=US/ST=OH/L=Columbus/O=VikingVPN/OU=MyOrganizationalUnit/CN=VikingVPN CA/name=EasyRSA/emailAddress=me@myhost.mydomain
                serial:CF:35:85:EE:80:BF:2A:3E

            X509v3 Extended Key Usage: 
                TLS Web Client Authentication
            X509v3 Key Usage: 
                Digital Signature
    Signature Algorithm: md5WithRSAEncryption
         95:7d:2e:e2:9b:88:64:73:9c:c3:0f:07:19:98:06:c8:f4:c0:
         b8:a8:37:2f:c6:74:35:b9:1b:97:92:a8:32:fa:87:16:ee:55:
         9d:01:ea:f2:9e:29:92:18:63:3e:9c:15:cb:7a:24:e1:ee:96:
         78:fc:2e:e8:bd:0f:20:f1:7b:7d:2e:2b:69:f4:d6:f9:65:13:
         b4:2b:27:1d:8c:35:e8:e6:73:4c:95:e1:7e:77:04:d2:57:eb:
         0d:39:a6:dd:64:04:b7:04:e2:bb:a7:fa:42:09:18:cd:1b:f6:
         90:31:f5:11:60:5f:df:8c:b8:de:d6:c4:10:d0:b5:49:45:5a:
         16:64:3f:c8:9e:49:8e:f6:ef:08:a1:78:f9:4c:dc:ee:b8:f5:
         d7:76:62:c7:dc:2a:56:4f:f3:ca:7f:30:cf:51:e3:ee:17:99:
         37:c2:4a:77:49:75:97:bc:78:43:d1:20:2f:96:fd:a9:fd:a3:
         ec:79:e4:8b:bd:50:5b:fc:4e:e1:93:3f:5c:bb:f4:d1:ad:cf:
         a9:12:55:58:e5:68:36:48:08:1d:f8:26:1b:ce:23:fc:e6:1b:
         cd:23:4d:91:16:2a:88:21:7b:14:c3:66:e6:a8:f0:76:1b:b6:
         8f:73:81:02:03:ff:bb:a9:d3:2f:03:3c:ab:4e:41:82:d8:08:
         60:d4:e2:15:a1:19:a1:b7:2e:9e:d4:a3:f1:33:e1:8c:60:33:
         b5:90:62:5b:33:1a:a1:cb:b4:50:80:61:9a:46:6a:b6:2f:26:
         54:8c:40:17:47:7f:65:5c:25:d8:c3:d0:24:de:5f:a9:28:d2:
         7c:2b:20:73:87:0f:81:12:e8:0a:5c:ea:3b:ed:68:0f:9e:62:
         f6:90:8d:6b:8f:fa:40:de:83:4f:ba:ef:17:f5:6f:50:ce:a5:
         6c:f3:18:52:89:c8:10:2a:32:c7:62:5b:01:b5:07:11:84:4b:
         4e:1b:b6:bb:b5:2f:68:f7:72:53:db:a2:7e:0b:ce:f5:4e:63:
         a0:b6:42:dd:cb:80:75:fd:78:a6:8e:43:c5:b2:b7:79:b8:d7:
         71:aa:19:61:aa:22:eb:6d:40:1d:8d:1a:3a:43:d1:30:23:b1:
         92:2d:d3:d3:eb:7f:08:e1:85:8f:fa:7e:f1:de:13:1a:6b:90:
         df:f0:b5:9e:90:9b:64:0a:b0:66:bd:63:c5:5f:b4:13:b0:27:
         9a:30:cb:ca:4f:1d:56:05:ce:af:4a:ea:39:eb:6c:81:df:38:
         13:a4:a4:9b:c5:2f:96:31:40:e2:40:4c:a6:2b:00:15:f1:4c:
         7a:f5:16:b7:39:dc:7c:e2:d6:f4:f5:9e:0d:3a:42:e8:a7:4e:
         b9:61:5e:2e:36:79:88:23
-----BEGIN CERTIFICATE-----
MIIGrDCCBJSgAwIBAgICF+8wDQYJKoZIhvcNAQEEBQAwgawxCzAJBgNVBAYTAlVT
MQswCQYDVQQIEwJPSDERMA8GA1UEBxMIQ29sdW1idXMxEjAQBgNVBAoTCVZpa2lu
Z1ZQTjEdMBsGA1UECxMUTXlPcmdhbml6YXRpb25hbFVuaXQxFTATBgNVBAMTDFZp
a2luZ1ZQTiBDQTEQMA4GA1UEKRMHRWFzeVJTQTEhMB8GCSqGSIb3DQEJARYSbWVA
bXlob3N0Lm15ZG9tYWluMB4XDTE1MDgyNTAxNTkwOFoXDTI1MDgyMjAxNTkwOFow
HjEcMBoGA1UEAxMTQ2xpZW50MzI3Q2VydDk3MTlhYTCCAiIwDQYJKoZIhvcNAQEB
BQADggIPADCCAgoCggIBALTKXhB0Jm5Z+P1z2goPUi2Jdt9lCdCcbnQikrAO2bFJ
fPwxRYEXSCP2+SoBZC/VvGAZrUTTGt+6r9LGGC9cskxrzehqhKi8IRd7iFIMTZX6
k6vmzqaCSP/oupgaScd0Eh5JvgPvPmYdAC3cBcPWTbl/CSVx7Jp+F3o6z8C/7bFj
o9RhC6Za6XqIQUDBFNM3sySpP/v81LVkAA7eFpWJIjTarZmrXYSzLcBXBFMhu+8V
x7gjieyk/ov7PnKmKH04VP11Z9IIIET5TTFDQDxQBA/ogIHa2mbrOyxTZYx64Wp6
BxK4LVTpGsbR/v5Ijg2pqXPxePgEfdu/sYAbf55fqzv9wK2tUo0HLsyw+jxmAh8w
OgsN9VYr5wKiNJRuJyYUyuPolzd0amCudEw+Bs6LQgHw0GeTG4tXzLs+iA204MBp
cWN74Vk6xMoZzeSRzRZufiy2WE3LtoFFnqEGiAgvJ3S14S6WYWLrWFTomGM3FYhf
UwJ4LErnues1QN4/HBWGAZtK/EiCTgkkDySTuulLNEUlyW2XPekEOUSfpMIuPqIK
XoQyY7/E/2rNFfPs1C8GjMl2qmv1fxMgAq6xDXthXxV2B64EU5iYc2CDiiWZQI9+
wQx0e3D9Iq794uqKkMgFlvkZgtCMy1tzEVkTpVW9AesJVLXmevwUbYAIO/GbGMhP
AgMBAAGjggFjMIIBXzAJBgNVHRMEAjAAMC0GCWCGSAGG+EIBDQQgFh5FYXN5LVJT
QSBHZW5lcmF0ZWQgQ2VydGlmaWNhdGUwHQYDVR0OBBYEFFLrfwND10bvaWDx4aFh
11AS3WSOMIHhBgNVHSMEgdkwgdaAFBLNYATSoICecO3Gmbh7LMZS/RmhoYGypIGv
MIGsMQswCQYDVQQGEwJVUzELMAkGA1UECBMCT0gxETAPBgNVBAcTCENvbHVtYnVz
MRIwEAYDVQQKEwlWaWtpbmdWUE4xHTAbBgNVBAsTFE15T3JnYW5pemF0aW9uYWxV
bml0MRUwEwYDVQQDEwxWaWtpbmdWUE4gQ0ExEDAOBgNVBCkTB0Vhc3lSU0ExITAf
BgkqhkiG9w0BCQEWEm1lQG15aG9zdC5teWRvbWFpboIJAM81he6Avyo+MBMGA1Ud
JQQMMAoGCCsGAQUFBwMCMAsGA1UdDwQEAwIHgDANBgkqhkiG9w0BAQQFAAOCAgEA
lX0u4puIZHOcww8HGZgGyPTAuKg3L8Z0Nbkbl5KoMvqHFu5VnQHq8p4pkhhjPpwV
y3ok4e6WePwu6L0PIPF7fS4rafTW+WUTtCsnHYw16OZzTJXhfncE0lfrDTmm3WQE
twTiu6f6QgkYzRv2kDH1EWBf34y43tbEENC1SUVaFmQ/yJ5JjvbvCKF4+Uzc7rj1
13Zix9wqVk/zyn8wz1Hj7heZN8JKd0l1l7x4Q9EgL5b9qf2j7Hnki71QW/xO4ZM/
XLv00a3PqRJVWOVoNkgIHfgmG84j/OYbzSNNkRYqiCF7FMNm5qjwdhu2j3OBAgP/
u6nTLwM8q05BgtgIYNTiFaEZobcuntSj8TPhjGAztZBiWzMaocu0UIBhmkZqti8m
VIxAF0d/ZVwl2MPQJN5fqSjSfCsgc4cPgRLoClzqO+1oD55i9pCNa4/6QN6DT7rv
F/VvUM6lbPMYUonIECoyx2JbAbUHEYRLThu2u7UvaPdyU9uifgvO9U5joLZC3cuA
df14po5DxbK3ebjXcaoZYaoi621AHY0aOkPRMCOxki3T0+t/COGFj/p+8d4TGmuQ
3/C1npCbZAqwZr1jxV+0E7AnmjDLyk8dVgXOr0rqOetsgd84E6Skm8UvljFA4kBM
pisAFfFMevUWtzncfOLW9PWeDTpC6KdOuWFeLjZ5iCM=
-----END CERTIFICATE-----
