Certificate:
    Data:
        Version: 3 (0x2)
        Serial Number: 9698 (0x25e2)
    Signature Algorithm: sha256WithRSAEncryption
        Issuer: C=US, ST=OH, L=Columbus, O=VikingVPN, OU=MyOrganizationalUnit, CN=VikingVPN CA/name=EasyRSA/emailAddress=me@myhost.mydomain
        Validity
            Not Before: Dec 12 03:20:52 2016 GMT
            Not After : Dec 10 03:20:52 2026 GMT
        Subject: CN=Client2643Cert00b4a8
        Subject Public Key Info:
            Public Key Algorithm: rsaEncryption
                Public-Key: (4096 bit)
                Modulus:
                    00:c8:78:b1:44:c3:00:68:93:92:62:13:85:9a:e2:
                    e6:d6:6d:91:9e:bf:30:c3:87:e6:a1:c4:bb:5e:9c:
                    10:93:61:f9:36:12:97:66:52:12:c4:d9:85:55:64:
                    81:90:23:78:9f:83:1b:c7:f0:84:a9:57:e3:86:6d:
                    9c:32:ab:7a:44:a5:60:dc:3c:b2:9a:15:26:3a:ef:
                    cf:1d:2a:e3:72:1a:4e:19:42:52:a0:a5:18:0b:b1:
                    21:c7:40:3f:3c:2f:e7:1c:58:7e:e2:dc:bf:11:23:
                    ea:41:82:73:22:49:4c:ab:0a:52:b1:2d:f5:2d:bd:
                    38:a0:ef:e3:e8:d3:6a:de:1d:2e:d1:2a:14:ff:35:
                    cf:fe:39:3b:9a:23:29:77:1e:ea:53:ff:cf:63:33:
                    20:8e:f0:cf:b1:f6:32:86:57:3a:95:78:d4:66:23:
                    54:e4:18:3b:2d:5c:c3:2a:43:5d:7a:57:88:0a:ef:
                    35:66:8b:81:f5:c4:f3:09:d3:5b:7d:ae:86:1e:a2:
                    17:bd:b3:d2:48:0c:d7:e0:f7:71:0d:8c:81:15:9b:
                    57:3d:e2:61:c3:a0:80:f4:38:02:85:c4:44:e4:3f:
                    12:f2:ce:f0:bc:d6:62:af:f9:07:e9:f0:66:3f:83:
                    18:0a:4e:d9:a5:37:65:82:34:98:7e:34:ce:74:b6:
                    f0:04:b4:4a:a5:a9:f8:c1:0e:84:6e:8b:55:cb:07:
                    92:78:73:23:b4:d8:c7:db:10:fe:8d:db:68:54:f1:
                    30:a4:48:7d:09:94:14:96:02:66:2f:9b:83:38:7a:
                    f9:70:12:f4:1d:46:c3:fb:09:9a:26:77:74:f5:a1:
                    8b:f2:c8:5d:e1:05:45:89:49:e3:a3:b5:8d:65:dd:
                    e1:64:38:c2:b8:74:e3:a8:bd:09:dd:c6:07:fa:f2:
                    a8:c3:12:1b:68:54:69:dc:8f:5d:58:c2:2f:14:7b:
                    3c:29:07:16:81:c0:68:26:c5:10:3e:c1:8b:d2:12:
                    17:0a:55:53:7e:f9:ba:7b:56:fd:d9:03:31:a4:bd:
                    5e:3b:fb:47:09:45:0d:1d:0b:8f:19:d1:c8:33:17:
                    3b:e9:d0:25:04:cf:bd:7a:ec:02:54:49:a2:ae:2d:
                    0b:c6:4c:5a:ca:86:a9:eb:84:53:29:97:e9:1a:db:
                    8c:25:c9:89:42:a1:4f:72:ea:56:48:01:84:7e:8b:
                    79:ad:1b:cc:90:d8:55:53:b4:a0:b9:df:03:1d:d6:
                    18:cb:0f:66:9f:be:d3:43:ea:a3:6a:ca:99:88:4f:
                    5e:c5:44:47:7a:ad:b9:33:b6:93:81:33:0f:b3:74:
                    7d:37:57:04:57:22:f6:8e:fb:b7:ee:b1:fa:79:75:
                    ad:99:13
                Exponent: 65537 (0x10001)
        X509v3 extensions:
            X509v3 Basic Constraints: 
                CA:FALSE
            Netscape Comment: 
                Easy-RSA Generated Certificate
            X509v3 Subject Key Identifier: 
                9A:92:34:32:CD:B6:1C:21:4A:3B:64:D8:D5:06:F9:DC:EC:07:BC:12
            X509v3 Authority Key Identifier: 
                keyid:12:CD:60:04:D2:A0:80:9E:70:ED:C6:99:B8:7B:2C:C6:52:FD:19:A1
                DirName:/C=US/ST=OH/L=Columbus/O=VikingVPN/OU=MyOrganizationalUnit/CN=VikingVPN CA/name=EasyRSA/emailAddress=me@myhost.mydomain
                serial:CF:35:85:EE:80:BF:2A:3E

            X509v3 Extended Key Usage: 
                TLS Web Client Authentication
            X509v3 Key Usage: 
                Digital Signature
    Signature Algorithm: sha256WithRSAEncryption
         81:73:eb:4f:63:57:91:2e:e8:40:bf:9c:32:ea:84:9c:e4:09:
         ff:97:32:44:1a:f8:d6:7b:d6:4b:7b:48:b9:82:1a:42:ff:75:
         59:85:f6:d4:d5:d0:91:8d:ab:81:30:38:75:00:d9:9c:30:4a:
         6c:02:3a:5e:c0:b7:6a:c9:2e:90:5f:71:4d:e7:5b:89:e2:4a:
         52:0d:3d:8d:6c:6d:50:6a:29:7a:60:3c:a3:3d:45:ea:7c:70:
         c6:ed:fc:17:83:be:30:49:e0:c7:e7:fd:4a:5f:55:72:46:da:
         3f:a6:1d:f9:b6:ee:79:f4:09:e9:2a:77:a3:85:0f:6a:00:c9:
         ab:61:30:fd:c9:b5:12:98:5a:1f:ce:9e:b2:9f:d3:69:87:3a:
         af:e5:12:a8:20:d1:81:3d:f6:ad:9d:8a:74:72:18:7d:71:d3:
         1d:a0:1b:1c:9d:22:e3:75:ea:23:15:4f:36:ec:f7:ff:38:0b:
         28:ed:6c:56:f2:3f:8a:38:1c:10:33:76:db:74:cc:34:12:c7:
         17:0c:9d:fd:3a:cd:2c:c2:f6:91:a9:57:d5:78:42:65:09:d7:
         65:ad:e1:cb:56:0e:9a:d6:40:f1:63:f6:f7:8a:d5:55:ba:a5:
         75:5a:67:f8:55:c9:c8:8f:ea:97:28:78:ac:7b:5d:d9:4d:8a:
         c1:b5:75:63:c5:db:f5:c6:ff:13:74:7d:f7:d9:2f:76:62:ef:
         8d:5a:71:49:34:64:74:8d:bb:93:f5:84:55:08:24:cc:ce:c5:
         e2:9f:39:3a:7b:13:6f:e4:b2:04:61:86:a4:5a:dd:89:1f:dc:
         ad:9d:6e:5c:79:73:b8:38:15:99:03:f8:e2:1b:f2:a1:4d:55:
         0c:7b:23:33:ec:2c:2c:03:96:a0:50:bd:5f:50:93:82:14:7a:
         ac:29:61:5d:9a:ac:39:fe:6a:ce:b7:90:a0:8e:0a:5b:f1:c3:
         11:b2:47:df:5b:8c:49:36:4f:50:83:d6:8b:65:41:df:18:2b:
         2f:ea:70:f8:1d:ed:4a:e6:2b:18:fb:b1:d3:95:22:75:c6:45:
         86:64:98:06:d4:97:73:1b:e5:e2:f7:50:99:76:3f:b8:f1:94:
         13:b9:05:64:60:96:79:a3:6f:94:1d:96:5b:af:20:fd:dc:fd:
         a5:84:c1:fc:22:78:7d:c8:bb:5a:38:d4:a0:8c:5b:e7:4e:5f:
         e1:42:43:d5:ca:7a:0d:29:f1:73:46:54:6d:ae:3d:d2:09:ea:
         2c:63:88:07:82:3f:64:1d:74:c7:49:66:86:b7:18:5f:f1:ac:
         16:f0:8a:82:7a:45:2b:98:b5:81:7b:1a:56:75:a7:5a:47:a0:
         20:85:a8:db:13:17:d2:ba
-----BEGIN CERTIFICATE-----
MIIGrTCCBJWgAwIBAgICJeIwDQYJKoZIhvcNAQELBQAwgawxCzAJBgNVBAYTAlVT
MQswCQYDVQQIEwJPSDERMA8GA1UEBxMIQ29sdW1idXMxEjAQBgNVBAoTCVZpa2lu
Z1ZQTjEdMBsGA1UECxMUTXlPcmdhbml6YXRpb25hbFVuaXQxFTATBgNVBAMTDFZp
a2luZ1ZQTiBDQTEQMA4GA1UEKRMHRWFzeVJTQTEhMB8GCSqGSIb3DQEJARYSbWVA
bXlob3N0Lm15ZG9tYWluMB4XDTE2MTIxMjAzMjA1MloXDTI2MTIxMDAzMjA1Mlow
HzEdMBsGA1UEAxMUQ2xpZW50MjY0M0NlcnQwMGI0YTgwggIiMA0GCSqGSIb3DQEB
AQUAA4ICDwAwggIKAoICAQDIeLFEwwBok5JiE4Wa4ubWbZGevzDDh+ahxLtenBCT
Yfk2EpdmUhLE2YVVZIGQI3ifgxvH8ISpV+OGbZwyq3pEpWDcPLKaFSY6788dKuNy
Gk4ZQlKgpRgLsSHHQD88L+ccWH7i3L8RI+pBgnMiSUyrClKxLfUtvTig7+Po02re
HS7RKhT/Nc/+OTuaIyl3HupT/89jMyCO8M+x9jKGVzqVeNRmI1TkGDstXMMqQ116
V4gK7zVmi4H1xPMJ01t9roYeohe9s9JIDNfg93ENjIEVm1c94mHDoID0OAKFxETk
PxLyzvC81mKv+Qfp8GY/gxgKTtmlN2WCNJh+NM50tvAEtEqlqfjBDoRui1XLB5J4
cyO02MfbEP6N22hU8TCkSH0JlBSWAmYvm4M4evlwEvQdRsP7CZomd3T1oYvyyF3h
BUWJSeOjtY1l3eFkOMK4dOOovQndxgf68qjDEhtoVGncj11Ywi8UezwpBxaBwGgm
xRA+wYvSEhcKVVN++bp7Vv3ZAzGkvV47+0cJRQ0dC48Z0cgzFzvp0CUEz7167AJU
SaKuLQvGTFrKhqnrhFMpl+ka24wlyYlCoU9y6lZIAYR+i3mtG8yQ2FVTtKC53wMd
1hjLD2afvtND6qNqypmIT17FREd6rbkztpOBMw+zdH03VwRXIvaO+7fusfp5da2Z
EwIDAQABo4IBYzCCAV8wCQYDVR0TBAIwADAtBglghkgBhvhCAQ0EIBYeRWFzeS1S
U0EgR2VuZXJhdGVkIENlcnRpZmljYXRlMB0GA1UdDgQWBBSakjQyzbYcIUo7ZNjV
Bvnc7Ae8EjCB4QYDVR0jBIHZMIHWgBQSzWAE0qCAnnDtxpm4eyzGUv0ZoaGBsqSB
rzCBrDELMAkGA1UEBhMCVVMxCzAJBgNVBAgTAk9IMREwDwYDVQQHEwhDb2x1bWJ1
czESMBAGA1UEChMJVmlraW5nVlBOMR0wGwYDVQQLExRNeU9yZ2FuaXphdGlvbmFs
VW5pdDEVMBMGA1UEAxMMVmlraW5nVlBOIENBMRAwDgYDVQQpEwdFYXN5UlNBMSEw
HwYJKoZIhvcNAQkBFhJtZUBteWhvc3QubXlkb21haW6CCQDPNYXugL8qPjATBgNV
HSUEDDAKBggrBgEFBQcDAjALBgNVHQ8EBAMCB4AwDQYJKoZIhvcNAQELBQADggIB
AIFz609jV5Eu6EC/nDLqhJzkCf+XMkQa+NZ71kt7SLmCGkL/dVmF9tTV0JGNq4Ew
OHUA2ZwwSmwCOl7At2rJLpBfcU3nW4niSlINPY1sbVBqKXpgPKM9Rep8cMbt/BeD
vjBJ4Mfn/UpfVXJG2j+mHfm27nn0Cekqd6OFD2oAyathMP3JtRKYWh/OnrKf02mH
Oq/lEqgg0YE99q2dinRyGH1x0x2gGxydIuN16iMVTzbs9/84CyjtbFbyP4o4HBAz
dtt0zDQSxxcMnf06zSzC9pGpV9V4QmUJ12Wt4ctWDprWQPFj9veK1VW6pXVaZ/hV
yciP6pcoeKx7XdlNisG1dWPF2/XG/xN0fffZL3Zi741acUk0ZHSNu5P1hFUIJMzO
xeKfOTp7E2/ksgRhhqRa3Ykf3K2dblx5c7g4FZkD+OIb8qFNVQx7IzPsLCwDlqBQ
vV9Qk4IUeqwpYV2arDn+as63kKCOClvxwxGyR99bjEk2T1CD1otlQd8YKy/qcPgd
7UrmKxj7sdOVInXGRYZkmAbUl3Mb5eL3UJl2P7jxlBO5BWRglnmjb5QdlluvIP3c
/aWEwfwieH3Iu1o41KCMW+dOX+FCQ9XKeg0p8XNGVG2uPdIJ6ixjiAeCP2QddMdJ
Zoa3GF/xrBbwioJ6RSuYtYF7GlZ1p1pHoCCFqNsTF9K6
-----END CERTIFICATE-----
