Certificate:
    Data:
        Version: 3 (0x2)
        Serial Number: 2543 (0x9ef)
    Signature Algorithm: md5WithRSAEncryption
        Issuer: C=US, ST=OH, L=Columbus, O=VikingVPN, OU=MyOrganizationalUnit, CN=VikingVPN CA/name=EasyRSA/emailAddress=me@myhost.mydomain
        Validity
            Not Before: Aug 11 22:16:11 2014 GMT
            Not After : Aug  8 22:16:11 2024 GMT
        Subject: CN=Client881Cert512e3e
        Subject Public Key Info:
            Public Key Algorithm: rsaEncryption
                Public-Key: (4096 bit)
                Modulus:
                    00:ab:56:9b:56:7e:d8:97:f0:de:83:b1:18:f8:69:
                    bb:5c:fe:21:8a:2c:92:9b:cb:30:ec:4d:cb:b2:00:
                    df:bc:71:96:8b:75:9f:2f:9c:97:17:43:13:62:5e:
                    9c:9d:26:6c:a6:78:37:22:be:74:b1:b6:a0:f1:1c:
                    a9:0a:1c:4d:1a:bb:db:7b:61:14:a9:c4:bd:48:54:
                    4f:69:dd:fa:92:b4:7d:1d:fa:2f:1a:a6:db:38:32:
                    51:03:1f:5a:19:fc:76:74:e6:5b:ad:a4:d5:f6:bd:
                    01:ff:af:23:99:b9:b7:0b:55:a9:ee:e6:09:7b:34:
                    f2:a1:2a:ba:5d:b3:db:b4:e0:49:2e:54:8e:69:b2:
                    c2:97:87:16:0b:37:8d:8e:81:22:b8:e4:a2:32:5b:
                    e2:84:2d:01:04:f3:ba:83:a1:eb:40:b0:60:95:00:
                    67:c9:f3:11:7d:03:82:59:a4:e0:0a:0f:1d:8b:1a:
                    00:9d:73:9d:f4:0f:75:14:74:3e:9e:2d:24:e4:e3:
                    45:b0:be:f4:33:48:70:aa:a2:e9:b8:cb:f9:19:4b:
                    14:5e:cc:a5:bd:0c:90:cc:5f:af:5e:23:5e:cb:69:
                    e3:dd:f2:3c:99:83:4d:bb:8d:e5:7a:a2:30:b7:8c:
                    6b:35:24:a4:92:ce:f5:ee:32:9b:5a:8a:77:a6:b4:
                    ea:94:b9:b4:ce:93:ee:14:2b:fc:f6:60:6d:30:b6:
                    b3:6f:66:8b:ed:4d:89:7f:00:c2:59:9b:53:44:e0:
                    a3:e3:fa:74:ef:b3:0f:cd:a6:62:17:4d:ad:b8:a2:
                    bd:69:5d:5b:31:a8:df:61:d1:0d:a6:f2:69:ca:3c:
                    ae:f4:c4:da:8d:98:27:6a:e9:99:d3:bf:70:fd:b4:
                    ee:44:cb:aa:ab:e8:45:a6:4e:1e:ff:f4:43:e5:9b:
                    7c:db:d2:66:4c:cb:10:1c:8a:c7:16:7c:fa:9e:ac:
                    a8:b5:9d:41:c5:c7:63:df:0b:86:23:4d:79:6c:b3:
                    fc:3c:a4:65:ee:19:38:c6:63:dc:05:8f:70:38:b7:
                    7c:84:ce:fa:d9:fb:15:24:a9:ce:e9:01:49:07:bd:
                    f3:ba:22:8c:ac:4f:79:f2:16:59:b3:2b:e4:bf:b3:
                    21:80:56:43:42:50:c4:0b:c6:36:e9:83:5a:63:44:
                    95:42:c8:f1:cb:5d:94:2c:fe:be:f7:6e:d5:7f:8f:
                    f6:e8:4a:0a:cb:16:64:f8:24:84:5b:63:9b:8c:9f:
                    f2:0e:af:56:3b:48:1f:46:be:db:6a:26:62:a9:f9:
                    7f:61:27:8d:0e:6a:7b:55:0f:4a:21:96:08:fc:a9:
                    09:b1:d8:0d:d9:1d:54:59:07:b3:49:60:4e:40:07:
                    4f:d7:95
                Exponent: 65537 (0x10001)
        X509v3 extensions:
            X509v3 Basic Constraints: 
                CA:FALSE
            Netscape Comment: 
                Easy-RSA Generated Certificate
            X509v3 Subject Key Identifier: 
                85:51:D2:68:A5:34:E9:D0:65:26:76:7F:71:03:39:D7:27:31:F2:E2
            X509v3 Authority Key Identifier: 
                keyid:12:CD:60:04:D2:A0:80:9E:70:ED:C6:99:B8:7B:2C:C6:52:FD:19:A1
                DirName:/C=US/ST=OH/L=Columbus/O=VikingVPN/OU=MyOrganizationalUnit/CN=VikingVPN CA/name=EasyRSA/emailAddress=me@myhost.mydomain
                serial:CF:35:85:EE:80:BF:2A:3E

            X509v3 Extended Key Usage: 
                TLS Web Client Authentication
            X509v3 Key Usage: 
                Digital Signature
    Signature Algorithm: md5WithRSAEncryption
         15:d8:a3:d2:34:29:7a:cb:f3:c2:6b:05:22:01:01:41:f2:05:
         8d:3f:a1:ef:61:07:57:76:6b:71:8e:c9:7f:d3:dc:ef:23:7a:
         8a:47:e0:26:20:8e:41:6e:8d:e9:d7:22:32:77:ed:fe:b0:4b:
         25:19:21:8e:87:5d:b0:73:06:60:44:b3:52:37:ee:6a:01:41:
         f9:ee:3f:0b:14:d5:2f:27:fc:d1:66:d7:1f:d1:ca:28:88:f9:
         9c:9f:58:10:2e:4d:7c:e1:1f:52:29:89:14:fd:7f:b9:65:ef:
         03:50:82:cb:21:22:90:2e:91:bf:f6:93:90:9c:2d:a1:a8:f9:
         d1:97:4a:10:37:fe:38:c7:5c:cf:0d:71:ff:bb:88:6b:8a:54:
         30:b7:96:27:90:41:64:2d:be:f4:a1:d3:c1:61:47:5a:26:c8:
         91:ab:08:4e:b4:7e:e2:f9:b1:ee:49:ec:42:4d:67:c8:0f:6a:
         99:55:1d:7c:a1:ab:42:da:d7:e9:e6:ed:4d:27:f8:81:23:da:
         7a:54:13:7e:35:31:3e:ca:47:7a:d2:a1:9c:40:b6:2b:94:02:
         be:9b:4d:8e:15:9f:3f:60:74:17:d9:dd:dd:43:39:d9:ca:30:
         4a:88:8e:19:75:c5:03:65:b1:54:24:4d:08:ee:9c:fe:dc:2a:
         1d:99:26:29:4c:aa:2f:57:e4:b3:9c:72:60:ef:19:c2:d7:51:
         e6:cb:ec:92:41:6f:91:d2:4c:44:18:54:4f:42:8c:3c:22:ab:
         33:46:53:ab:d0:a6:1d:ad:56:91:96:3c:02:35:f8:fa:2d:ff:
         ce:bb:1b:0a:1c:0b:c2:9c:1e:6f:d5:de:0c:45:08:f4:b2:7f:
         2b:4b:98:be:30:9a:50:50:54:f7:d2:0c:a4:d2:df:6d:04:02:
         73:61:85:17:cc:c6:a4:7a:03:77:0f:c9:3e:a8:8c:71:55:7d:
         bd:6c:e9:18:17:4a:05:23:a2:74:4c:11:71:5d:81:a1:13:fb:
         d1:f0:ab:21:91:89:ef:e0:fb:83:e6:95:ce:d1:73:04:fd:1c:
         45:21:46:82:03:a2:52:b9:cf:3a:b8:f9:27:ac:19:40:a3:ab:
         ef:d6:d0:f2:5f:46:31:91:31:a1:89:e8:6b:02:79:bb:8c:a4:
         dd:15:4b:85:f2:86:ec:cb:13:e7:ae:1c:6a:43:58:d6:a6:4c:
         d3:a4:1e:17:2d:a3:34:19:9a:19:d0:8c:09:2c:4b:6c:87:e1:
         46:33:ae:e2:e6:1c:11:59:94:d4:3d:12:f8:ec:80:28:33:67:
         78:42:c2:61:84:d0:6d:af:33:98:9d:b2:1a:92:32:1e:21:f2:
         0c:89:02:b6:de:55:06:7c
-----BEGIN CERTIFICATE-----
MIIGrDCCBJSgAwIBAgICCe8wDQYJKoZIhvcNAQEEBQAwgawxCzAJBgNVBAYTAlVT
MQswCQYDVQQIEwJPSDERMA8GA1UEBxMIQ29sdW1idXMxEjAQBgNVBAoTCVZpa2lu
Z1ZQTjEdMBsGA1UECxMUTXlPcmdhbml6YXRpb25hbFVuaXQxFTATBgNVBAMTDFZp
a2luZ1ZQTiBDQTEQMA4GA1UEKRMHRWFzeVJTQTEhMB8GCSqGSIb3DQEJARYSbWVA
bXlob3N0Lm15ZG9tYWluMB4XDTE0MDgxMTIyMTYxMVoXDTI0MDgwODIyMTYxMVow
HjEcMBoGA1UEAxMTQ2xpZW50ODgxQ2VydDUxMmUzZTCCAiIwDQYJKoZIhvcNAQEB
BQADggIPADCCAgoCggIBAKtWm1Z+2Jfw3oOxGPhpu1z+IYoskpvLMOxNy7IA37xx
lot1ny+clxdDE2JenJ0mbKZ4NyK+dLG2oPEcqQocTRq723thFKnEvUhUT2nd+pK0
fR36Lxqm2zgyUQMfWhn8dnTmW62k1fa9Af+vI5m5twtVqe7mCXs08qEqul2z27Tg
SS5UjmmywpeHFgs3jY6BIrjkojJb4oQtAQTzuoOh60CwYJUAZ8nzEX0Dglmk4AoP
HYsaAJ1znfQPdRR0Pp4tJOTjRbC+9DNIcKqi6bjL+RlLFF7Mpb0MkMxfr14jXstp
493yPJmDTbuN5XqiMLeMazUkpJLO9e4ym1qKd6a06pS5tM6T7hQr/PZgbTC2s29m
i+1NiX8AwlmbU0Tgo+P6dO+zD82mYhdNrbiivWldWzGo32HRDabyaco8rvTE2o2Y
J2rpmdO/cP207kTLqqvoRaZOHv/0Q+WbfNvSZkzLEByKxxZ8+p6sqLWdQcXHY98L
hiNNeWyz/DykZe4ZOMZj3AWPcDi3fITO+tn7FSSpzukBSQe987oijKxPefIWWbMr
5L+zIYBWQ0JQxAvGNumDWmNElULI8ctdlCz+vvdu1X+P9uhKCssWZPgkhFtjm4yf
8g6vVjtIH0a+22omYqn5f2EnjQ5qe1UPSiGWCPypCbHYDdkdVFkHs0lgTkAHT9eV
AgMBAAGjggFjMIIBXzAJBgNVHRMEAjAAMC0GCWCGSAGG+EIBDQQgFh5FYXN5LVJT
QSBHZW5lcmF0ZWQgQ2VydGlmaWNhdGUwHQYDVR0OBBYEFIVR0milNOnQZSZ2f3ED
OdcnMfLiMIHhBgNVHSMEgdkwgdaAFBLNYATSoICecO3Gmbh7LMZS/RmhoYGypIGv
MIGsMQswCQYDVQQGEwJVUzELMAkGA1UECBMCT0gxETAPBgNVBAcTCENvbHVtYnVz
MRIwEAYDVQQKEwlWaWtpbmdWUE4xHTAbBgNVBAsTFE15T3JnYW5pemF0aW9uYWxV
bml0MRUwEwYDVQQDEwxWaWtpbmdWUE4gQ0ExEDAOBgNVBCkTB0Vhc3lSU0ExITAf
BgkqhkiG9w0BCQEWEm1lQG15aG9zdC5teWRvbWFpboIJAM81he6Avyo+MBMGA1Ud
JQQMMAoGCCsGAQUFBwMCMAsGA1UdDwQEAwIHgDANBgkqhkiG9w0BAQQFAAOCAgEA
Fdij0jQpesvzwmsFIgEBQfIFjT+h72EHV3ZrcY7Jf9Pc7yN6ikfgJiCOQW6N6dci
Mnft/rBLJRkhjoddsHMGYESzUjfuagFB+e4/CxTVLyf80WbXH9HKKIj5nJ9YEC5N
fOEfUimJFP1/uWXvA1CCyyEikC6Rv/aTkJwtoaj50ZdKEDf+OMdczw1x/7uIa4pU
MLeWJ5BBZC2+9KHTwWFHWibIkasITrR+4vmx7knsQk1nyA9qmVUdfKGrQtrX6ebt
TSf4gSPaelQTfjUxPspHetKhnEC2K5QCvptNjhWfP2B0F9nd3UM52cowSoiOGXXF
A2WxVCRNCO6c/twqHZkmKUyqL1fks5xyYO8ZwtdR5svskkFvkdJMRBhUT0KMPCKr
M0ZTq9CmHa1WkZY8AjX4+i3/zrsbChwLwpweb9XeDEUI9LJ/K0uYvjCaUFBU99IM
pNLfbQQCc2GFF8zGpHoDdw/JPqiMcVV9vWzpGBdKBSOidEwRcV2BoRP70fCrIZGJ
7+D7g+aVztFzBP0cRSFGggOiUrnPOrj5J6wZQKOr79bQ8l9GMZExoYnoawJ5u4yk
3RVLhfKG7MsT564cakNY1qZM06QeFy2jNBmaGdCMCSxLbIfhRjOu4uYcEVmU1D0S
+OyAKDNneELCYYTQba8zmJ2yGpIyHiHyDIkCtt5VBnw=
-----END CERTIFICATE-----
