Certificate:
    Data:
        Version: 3 (0x2)
        Serial Number: 11352 (0x2c58)
    Signature Algorithm: sha256WithRSAEncryption
        Issuer: C=US, ST=OH, L=Columbus, O=VikingVPN, OU=MyOrganizationalUnit, CN=VikingVPN CA/name=EasyRSA/emailAddress=me@myhost.mydomain
        Validity
            Not Before: Jul 18 02:47:06 2017 GMT
            Not After : Jul 16 02:47:06 2027 GMT
        Subject: CN=Client1731Cert4cc2dd
        Subject Public Key Info:
            Public Key Algorithm: rsaEncryption
                Public-Key: (4096 bit)
                Modulus:
                    00:e6:7d:34:29:4b:a5:2d:ac:e9:75:4e:ba:23:8f:
                    4d:ad:e2:18:72:e8:5b:96:11:54:a8:7b:1e:a2:da:
                    27:e9:63:05:29:30:b7:2c:c5:7a:4c:08:1a:af:79:
                    ed:5a:b9:b9:0b:01:20:c0:5f:b0:b2:74:b1:00:b1:
                    40:66:43:7d:36:bd:f4:c5:1e:22:8b:37:ef:1d:38:
                    99:ba:16:7c:51:8b:e0:0e:3d:25:e6:2a:02:95:b8:
                    fc:ce:8b:8b:f7:2a:ac:0a:f6:5f:10:2d:45:27:7c:
                    2a:36:d8:ff:df:04:13:8c:37:53:dd:e3:d3:48:48:
                    c8:1c:b3:d5:fa:c1:76:72:cf:6a:2b:b3:14:d2:a9:
                    96:e9:de:60:81:47:c0:15:f1:9b:a1:da:18:fc:b8:
                    f6:1d:76:7a:3f:20:08:bc:78:96:6e:57:c2:54:a8:
                    d9:c2:2b:90:88:ca:f7:31:d7:2c:39:22:0b:55:8f:
                    95:86:18:24:12:9c:47:e4:9e:1f:75:38:97:c1:3e:
                    19:28:5c:00:1e:42:18:f2:00:dd:39:f3:78:a7:80:
                    65:26:44:04:83:63:5d:38:88:25:13:6b:41:03:0c:
                    bf:89:21:c4:d1:66:f4:1e:57:5c:c8:45:30:82:d1:
                    78:b0:69:c6:26:7a:57:f9:d4:64:de:50:f4:f1:0e:
                    c0:4a:89:a8:4d:0d:68:19:65:f3:5f:30:35:3c:e8:
                    88:cf:79:be:d9:d4:e8:14:53:51:1a:ee:57:dd:09:
                    68:bf:42:dd:76:00:5a:ea:c1:a8:64:68:c9:91:c5:
                    62:ba:5a:9f:4c:2f:a6:88:5a:b3:85:11:06:81:5f:
                    c2:42:8d:1a:8c:4f:21:54:08:eb:b5:b3:31:ea:64:
                    e0:a4:14:55:66:83:db:1e:0f:32:81:61:f9:86:8b:
                    d9:1d:7e:08:b5:f1:de:55:b8:f2:da:38:73:34:80:
                    2e:04:a2:82:a2:85:2b:e9:39:ec:2f:44:2d:61:48:
                    8f:d2:f8:9e:de:4f:9b:00:db:bc:8b:77:13:4e:1f:
                    1e:c1:a4:c9:ab:5b:75:6d:02:67:bf:31:c1:72:d4:
                    59:5b:c7:bc:37:07:6a:a2:8e:f5:7f:1c:17:6c:7f:
                    57:92:5f:97:bf:d4:23:53:b0:9b:58:79:68:56:0c:
                    4f:f0:54:82:2f:99:d2:69:30:85:a9:ec:55:a7:aa:
                    30:28:1f:05:d9:32:4f:a6:12:bc:86:30:80:ea:c4:
                    32:34:da:fd:c1:21:c5:71:a6:c8:72:21:1c:63:bc:
                    fb:e5:40:84:48:a3:ba:55:88:25:13:82:b7:39:62:
                    7b:7b:c3:27:4e:88:7d:24:fa:2c:f6:a5:e2:8e:18:
                    ab:fe:bb
                Exponent: 65537 (0x10001)
        X509v3 extensions:
            X509v3 Basic Constraints: 
                CA:FALSE
            Netscape Comment: 
                Easy-RSA Generated Certificate
            X509v3 Subject Key Identifier: 
                38:E9:52:B8:89:23:FA:95:85:BD:C3:05:92:6B:E0:45:A1:03:D2:B6
            X509v3 Authority Key Identifier: 
                keyid:12:CD:60:04:D2:A0:80:9E:70:ED:C6:99:B8:7B:2C:C6:52:FD:19:A1
                DirName:/C=US/ST=OH/L=Columbus/O=VikingVPN/OU=MyOrganizationalUnit/CN=VikingVPN CA/name=EasyRSA/emailAddress=me@myhost.mydomain
                serial:CF:35:85:EE:80:BF:2A:3E

            X509v3 Extended Key Usage: 
                TLS Web Client Authentication
            X509v3 Key Usage: 
                Digital Signature
    Signature Algorithm: sha256WithRSAEncryption
         5b:b3:4c:17:0b:b3:4f:91:a5:db:e4:11:33:e9:b8:ff:c0:1c:
         94:e9:45:13:ee:14:e9:9e:ce:99:71:44:f6:8d:f9:1f:85:42:
         dd:03:bb:b8:fc:14:37:8e:84:ae:df:d1:f6:ec:3b:be:f8:cd:
         f7:94:9d:4f:a1:63:84:cc:0a:a2:42:0a:8a:6a:57:b5:c1:28:
         ec:74:84:f1:a5:d5:d2:50:f0:19:16:b8:d6:d3:96:da:62:a0:
         21:1e:15:73:c3:05:cf:dc:f1:96:3f:7e:e6:7a:d8:75:e2:67:
         33:a9:a2:1f:a7:9f:1e:74:f7:40:8a:df:8d:bc:42:a2:81:ea:
         3c:8c:67:c5:6d:b4:e4:8c:9a:4e:a0:56:d5:02:32:a8:20:c4:
         cf:b6:4c:64:2c:5a:39:29:f3:89:27:60:ad:f2:af:ae:4c:b5:
         e8:e7:e3:9a:79:f2:9c:12:56:62:f5:bb:4d:5e:7d:f4:da:88:
         a2:c2:31:84:4d:b0:c9:9c:8e:c3:f3:e8:9f:0d:a6:4c:a1:d5:
         d8:0d:05:24:28:8d:69:0f:d2:c9:1d:4e:4e:b7:99:51:55:63:
         de:2a:c0:eb:b8:3f:07:ba:aa:3d:3c:91:13:2b:6f:f4:5a:27:
         3b:3c:f0:4b:29:92:5b:ba:4d:81:b0:80:e1:5b:92:23:0a:4f:
         1d:03:61:c3:69:ea:45:c1:fe:0c:be:30:d1:73:9c:bb:83:4c:
         7e:72:8c:19:5e:b4:f6:1a:7e:f9:ab:61:1d:97:ff:8f:a6:5d:
         ba:2e:19:c3:61:e4:6e:3d:a4:e6:ab:49:fb:07:5a:04:b7:ec:
         07:3d:5e:32:0e:99:9d:16:98:25:31:e2:f6:22:89:a9:3b:ca:
         6e:f4:2c:d4:77:ba:15:47:5d:4d:35:8c:cc:d9:5f:ff:95:9c:
         ea:5e:67:bf:cb:02:49:86:1b:b7:65:96:a0:24:fe:83:b2:c1:
         3d:94:14:12:04:16:b4:d4:9a:ed:3f:3b:fd:eb:6a:1b:0f:74:
         28:69:ca:81:55:58:d3:a1:1a:e2:45:45:a0:e1:d3:bf:7e:5a:
         0c:d6:a3:4a:19:80:07:a8:4f:1e:29:17:2a:ff:de:9c:53:40:
         91:f4:a8:66:0a:68:f7:0d:90:19:cd:6d:27:56:ad:7f:db:6e:
         7f:2f:e6:a8:28:d5:bf:1c:bc:4f:27:e8:1b:d9:97:d9:4f:48:
         da:91:8c:91:b2:ba:fe:77:4e:7d:54:53:4d:74:7f:22:84:d7:
         75:bf:b0:48:6c:b1:4b:3e:cb:0c:cf:44:10:0a:4d:c9:e5:a4:
         ed:b4:f6:0c:c5:af:d2:95:41:4b:4e:fa:ba:9b:cf:04:cf:61:
         4b:14:26:b6:84:a9:8e:63
-----BEGIN CERTIFICATE-----
MIIGrTCCBJWgAwIBAgICLFgwDQYJKoZIhvcNAQELBQAwgawxCzAJBgNVBAYTAlVT
MQswCQYDVQQIEwJPSDERMA8GA1UEBxMIQ29sdW1idXMxEjAQBgNVBAoTCVZpa2lu
Z1ZQTjEdMBsGA1UECxMUTXlPcmdhbml6YXRpb25hbFVuaXQxFTATBgNVBAMTDFZp
a2luZ1ZQTiBDQTEQMA4GA1UEKRMHRWFzeVJTQTEhMB8GCSqGSIb3DQEJARYSbWVA
bXlob3N0Lm15ZG9tYWluMB4XDTE3MDcxODAyNDcwNloXDTI3MDcxNjAyNDcwNlow
HzEdMBsGA1UEAxMUQ2xpZW50MTczMUNlcnQ0Y2MyZGQwggIiMA0GCSqGSIb3DQEB
AQUAA4ICDwAwggIKAoICAQDmfTQpS6UtrOl1Trojj02t4hhy6FuWEVSoex6i2ifp
YwUpMLcsxXpMCBqvee1aubkLASDAX7CydLEAsUBmQ302vfTFHiKLN+8dOJm6FnxR
i+AOPSXmKgKVuPzOi4v3KqwK9l8QLUUnfCo22P/fBBOMN1Pd49NISMgcs9X6wXZy
z2orsxTSqZbp3mCBR8AV8Zuh2hj8uPYddno/IAi8eJZuV8JUqNnCK5CIyvcx1yw5
IgtVj5WGGCQSnEfknh91OJfBPhkoXAAeQhjyAN0583ingGUmRASDY104iCUTa0ED
DL+JIcTRZvQeV1zIRTCC0XiwacYmelf51GTeUPTxDsBKiahNDWgZZfNfMDU86IjP
eb7Z1OgUU1Ea7lfdCWi/Qt12AFrqwahkaMmRxWK6Wp9ML6aIWrOFEQaBX8JCjRqM
TyFUCOu1szHqZOCkFFVmg9seDzKBYfmGi9kdfgi18d5VuPLaOHM0gC4EooKihSvp
OewvRC1hSI/S+J7eT5sA27yLdxNOHx7BpMmrW3VtAme/McFy1Flbx7w3B2qijvV/
HBdsf1eSX5e/1CNTsJtYeWhWDE/wVIIvmdJpMIWp7FWnqjAoHwXZMk+mEryGMIDq
xDI02v3BIcVxpshyIRxjvPvlQIRIo7pViCUTgrc5Ynt7wydOiH0k+iz2peKOGKv+
uwIDAQABo4IBYzCCAV8wCQYDVR0TBAIwADAtBglghkgBhvhCAQ0EIBYeRWFzeS1S
U0EgR2VuZXJhdGVkIENlcnRpZmljYXRlMB0GA1UdDgQWBBQ46VK4iSP6lYW9wwWS
a+BFoQPStjCB4QYDVR0jBIHZMIHWgBQSzWAE0qCAnnDtxpm4eyzGUv0ZoaGBsqSB
rzCBrDELMAkGA1UEBhMCVVMxCzAJBgNVBAgTAk9IMREwDwYDVQQHEwhDb2x1bWJ1
czESMBAGA1UEChMJVmlraW5nVlBOMR0wGwYDVQQLExRNeU9yZ2FuaXphdGlvbmFs
VW5pdDEVMBMGA1UEAxMMVmlraW5nVlBOIENBMRAwDgYDVQQpEwdFYXN5UlNBMSEw
HwYJKoZIhvcNAQkBFhJtZUBteWhvc3QubXlkb21haW6CCQDPNYXugL8qPjATBgNV
HSUEDDAKBggrBgEFBQcDAjALBgNVHQ8EBAMCB4AwDQYJKoZIhvcNAQELBQADggIB
AFuzTBcLs0+RpdvkETPpuP/AHJTpRRPuFOmezplxRPaN+R+FQt0Du7j8FDeOhK7f
0fbsO774zfeUnU+hY4TMCqJCCopqV7XBKOx0hPGl1dJQ8BkWuNbTltpioCEeFXPD
Bc/c8ZY/fuZ62HXiZzOpoh+nnx5090CK3428QqKB6jyMZ8VttOSMmk6gVtUCMqgg
xM+2TGQsWjkp84knYK3yr65Mtejn45p58pwSVmL1u01effTaiKLCMYRNsMmcjsPz
6J8Npkyh1dgNBSQojWkP0skdTk63mVFVY94qwOu4Pwe6qj08kRMrb/RaJzs88Esp
klu6TYGwgOFbkiMKTx0DYcNp6kXB/gy+MNFznLuDTH5yjBletPYafvmrYR2X/4+m
XbouGcNh5G49pOarSfsHWgS37Ac9XjIOmZ0WmCUx4vYiiak7ym70LNR3uhVHXU01
jMzZX/+VnOpeZ7/LAkmGG7dllqAk/oOywT2UFBIEFrTUmu0/O/3rahsPdChpyoFV
WNOhGuJFRaDh079+WgzWo0oZgAeoTx4pFyr/3pxTQJH0qGYKaPcNkBnNbSdWrX/b
bn8v5qgo1b8cvE8n6BvZl9lPSNqRjJGyuv53Tn1UU010fyKE13W/sEhssUs+ywzP
RBAKTcnlpO209gzFr9KVQUtO+rqbzwTPYUsUJraEqY5j
-----END CERTIFICATE-----
