Certificate:
    Data:
        Version: 3 (0x2)
        Serial Number: 11507 (0x2cf3)
    Signature Algorithm: sha256WithRSAEncryption
        Issuer: C=US, ST=OH, L=Columbus, O=VikingVPN, OU=MyOrganizationalUnit, CN=VikingVPN CA/name=EasyRSA/emailAddress=me@myhost.mydomain
        Validity
            Not Before: Aug  8 22:48:23 2017 GMT
            Not After : Aug  6 22:48:23 2027 GMT
        Subject: CN=Client3037Certd589e7
        Subject Public Key Info:
            Public Key Algorithm: rsaEncryption
                Public-Key: (4096 bit)
                Modulus:
                    00:ba:36:01:98:de:3f:de:47:f5:fb:c7:5c:f3:ce:
                    c9:b3:9f:62:68:b7:55:7e:e7:0a:d0:5d:56:22:71:
                    7c:28:ee:ba:7b:7d:18:7d:0f:66:6c:8d:65:60:6f:
                    12:ac:86:14:e3:31:50:7e:fb:db:5d:98:ec:7b:ac:
                    cc:00:9b:4a:47:2f:00:d6:4a:95:f7:0b:31:5a:92:
                    c9:88:3c:c5:12:cf:48:4d:c7:17:50:ff:2e:7e:44:
                    82:d1:bf:7a:f7:2a:3b:fb:76:47:a0:83:a0:2e:14:
                    42:2c:76:8c:e5:f7:ea:11:77:b8:99:2c:b9:68:5f:
                    4a:f4:b4:02:7a:1c:a5:7e:52:0b:dc:f9:98:ed:df:
                    71:04:57:f7:97:e2:bf:99:9b:f2:92:74:be:08:25:
                    a3:92:cd:c5:10:cb:ea:9b:98:d9:d7:1a:32:ec:b5:
                    0e:ef:07:86:81:53:db:d1:08:0e:e2:7f:2e:88:9f:
                    92:61:74:8b:99:c1:02:3c:a7:1d:87:1c:47:02:a1:
                    d3:c8:33:e1:f0:cf:10:62:55:95:c3:24:4a:6e:8a:
                    88:3e:cf:ca:a8:00:85:46:82:cd:4d:80:d9:cb:1a:
                    b2:d3:03:3c:09:12:b8:3b:94:2e:2a:aa:bb:ba:7a:
                    16:4f:09:b7:55:f9:f3:c7:59:94:fa:9f:8f:0d:9c:
                    a9:03:19:15:3a:8b:a6:05:a6:e7:6b:fd:5c:7e:5a:
                    60:32:1b:19:80:83:8b:c5:3b:c6:8b:50:19:9f:92:
                    be:84:0d:7a:19:ff:64:7d:54:e5:bd:f5:ba:ed:36:
                    eb:c2:c7:c7:84:0a:46:a0:b0:c4:f9:7e:60:2f:0b:
                    bc:9e:d1:f3:68:e4:98:b0:25:22:07:91:13:3b:23:
                    60:f7:24:41:a6:7d:ed:18:b4:bb:e5:bf:b4:3c:f1:
                    76:b7:3a:c8:1c:6b:3f:27:98:2f:ff:6b:f7:18:d1:
                    98:ef:46:02:ad:cc:6b:a6:5a:36:e0:59:87:12:e0:
                    90:b6:d9:c7:a2:a0:5b:4e:33:32:59:ea:47:f2:8b:
                    ec:d2:41:6a:34:8b:29:c3:8c:b5:32:32:64:d2:63:
                    8c:b8:51:e7:9a:8a:20:e8:85:2a:e8:da:4f:af:46:
                    3c:26:a2:70:8a:58:17:d0:93:12:13:a5:ff:60:28:
                    77:58:57:dd:a7:03:63:21:dd:53:e2:3a:17:1d:5c:
                    52:7f:52:c7:c5:7f:e9:72:46:5e:4b:6c:26:13:ed:
                    ed:70:f1:aa:ae:7f:9a:db:db:3b:69:19:f9:e3:a9:
                    48:80:a5:d4:91:7f:ae:aa:dc:86:6e:b2:79:d9:77:
                    5c:a7:74:31:db:e4:49:3f:bd:69:91:85:3f:5b:1b:
                    6b:11:25
                Exponent: 65537 (0x10001)
        X509v3 extensions:
            X509v3 Basic Constraints: 
                CA:FALSE
            Netscape Comment: 
                Easy-RSA Generated Certificate
            X509v3 Subject Key Identifier: 
                95:42:C7:99:75:2D:0A:BC:5F:8C:CD:22:3E:1D:60:DD:B5:45:5D:DA
            X509v3 Authority Key Identifier: 
                keyid:12:CD:60:04:D2:A0:80:9E:70:ED:C6:99:B8:7B:2C:C6:52:FD:19:A1
                DirName:/C=US/ST=OH/L=Columbus/O=VikingVPN/OU=MyOrganizationalUnit/CN=VikingVPN CA/name=EasyRSA/emailAddress=me@myhost.mydomain
                serial:CF:35:85:EE:80:BF:2A:3E

            X509v3 Extended Key Usage: 
                TLS Web Client Authentication
            X509v3 Key Usage: 
                Digital Signature
    Signature Algorithm: sha256WithRSAEncryption
         b4:dd:79:2a:3d:03:21:8f:2b:02:33:ff:bc:72:77:ea:a8:b6:
         77:40:6e:38:7b:20:50:43:c2:68:47:d8:3d:c2:e1:35:62:78:
         46:46:8b:68:51:7a:dd:cd:b1:0f:ea:9e:a8:21:a9:41:18:ab:
         df:34:d5:60:cb:39:da:2b:87:64:d2:4d:f1:f0:e8:1a:2c:29:
         d8:bf:2f:9e:14:fa:7c:11:98:2b:52:df:80:ab:35:17:37:38:
         9c:a2:82:3d:90:55:07:af:9c:98:71:62:6d:a6:8f:88:63:d3:
         2d:65:5e:81:67:73:a1:fa:80:e1:d0:c5:f4:b7:37:ae:10:ba:
         25:a3:75:5c:07:f7:8a:1f:87:d1:58:2c:99:66:d4:e8:af:1d:
         60:a1:59:56:10:2f:f5:fe:d6:ab:dc:97:a1:60:f7:9b:e1:22:
         91:07:25:5a:a9:2b:b2:3d:e9:49:01:2e:66:c2:86:9b:b2:0f:
         e5:b9:51:19:c4:04:61:e1:1c:83:ba:cc:0a:db:36:69:74:a8:
         95:fc:1e:2a:8f:0c:ab:5c:4f:1f:08:c6:fb:5b:8c:07:cf:79:
         ff:f4:cb:fb:5c:3e:0a:63:67:66:2b:70:ba:03:e5:fc:b6:99:
         d7:17:ff:d1:9c:6f:6f:57:27:5a:96:c0:cf:39:7f:67:ed:e0:
         c6:fe:d5:5e:fa:fd:ba:13:1a:f1:9e:00:80:74:e8:58:06:47:
         b2:4c:2b:da:55:69:3b:2b:b2:a8:6f:f0:c9:7f:a9:4b:d6:91:
         31:41:87:c9:fa:aa:42:d3:99:fc:74:c0:79:0e:e4:0d:6f:cd:
         1f:a1:02:f3:03:82:48:f6:e2:23:54:ad:5c:11:36:9f:d6:31:
         c8:28:3d:63:e8:03:30:ec:37:0f:09:ed:d4:92:7f:d9:83:8b:
         ff:08:20:f0:02:2c:bf:92:ff:ff:07:e7:4c:b5:9a:11:86:88:
         43:23:a1:1a:41:95:82:ae:23:0b:87:2e:ed:e0:ff:bd:59:df:
         09:ef:69:36:de:ae:36:8e:98:64:22:ba:1b:cd:b2:7e:6c:df:
         25:80:98:80:62:a0:35:09:da:40:60:b6:08:de:01:e2:20:a7:
         93:e2:8b:8f:2c:2b:aa:82:47:43:d5:4c:fb:91:b8:fb:65:ed:
         54:20:16:65:d4:f0:b3:cb:59:ed:43:35:50:15:be:ba:04:4a:
         0c:45:73:99:56:05:f6:ae:bc:61:87:b1:67:a5:9c:fe:9d:61:
         5d:90:9c:31:eb:1a:07:e2:84:08:c7:66:d4:4b:bb:aa:b7:5e:
         88:af:a3:3a:07:31:3b:79:47:82:4c:d2:3e:a3:95:8e:96:35:
         77:f5:c5:58:cc:31:b9:80
-----BEGIN CERTIFICATE-----
MIIGrTCCBJWgAwIBAgICLPMwDQYJKoZIhvcNAQELBQAwgawxCzAJBgNVBAYTAlVT
MQswCQYDVQQIEwJPSDERMA8GA1UEBxMIQ29sdW1idXMxEjAQBgNVBAoTCVZpa2lu
Z1ZQTjEdMBsGA1UECxMUTXlPcmdhbml6YXRpb25hbFVuaXQxFTATBgNVBAMTDFZp
a2luZ1ZQTiBDQTEQMA4GA1UEKRMHRWFzeVJTQTEhMB8GCSqGSIb3DQEJARYSbWVA
bXlob3N0Lm15ZG9tYWluMB4XDTE3MDgwODIyNDgyM1oXDTI3MDgwNjIyNDgyM1ow
HzEdMBsGA1UEAxMUQ2xpZW50MzAzN0NlcnRkNTg5ZTcwggIiMA0GCSqGSIb3DQEB
AQUAA4ICDwAwggIKAoICAQC6NgGY3j/eR/X7x1zzzsmzn2Jot1V+5wrQXVYicXwo
7rp7fRh9D2ZsjWVgbxKshhTjMVB++9tdmOx7rMwAm0pHLwDWSpX3CzFaksmIPMUS
z0hNxxdQ/y5+RILRv3r3Kjv7dkegg6AuFEIsdozl9+oRd7iZLLloX0r0tAJ6HKV+
Ugvc+Zjt33EEV/eX4r+Zm/KSdL4IJaOSzcUQy+qbmNnXGjLstQ7vB4aBU9vRCA7i
fy6In5JhdIuZwQI8px2HHEcCodPIM+HwzxBiVZXDJEpuiog+z8qoAIVGgs1NgNnL
GrLTAzwJErg7lC4qqru6ehZPCbdV+fPHWZT6n48NnKkDGRU6i6YFpudr/Vx+WmAy
GxmAg4vFO8aLUBmfkr6EDXoZ/2R9VOW99brtNuvCx8eECkagsMT5fmAvC7ye0fNo
5JiwJSIHkRM7I2D3JEGmfe0YtLvlv7Q88Xa3Osgcaz8nmC//a/cY0ZjvRgKtzGum
WjbgWYcS4JC22ceioFtOMzJZ6kfyi+zSQWo0iynDjLUyMmTSY4y4UeeaiiDohSro
2k+vRjwmonCKWBfQkxITpf9gKHdYV92nA2Mh3VPiOhcdXFJ/UsfFf+lyRl5LbCYT
7e1w8aquf5rb2ztpGfnjqUiApdSRf66q3IZusnnZd1yndDHb5Ek/vWmRhT9bG2sR
JQIDAQABo4IBYzCCAV8wCQYDVR0TBAIwADAtBglghkgBhvhCAQ0EIBYeRWFzeS1S
U0EgR2VuZXJhdGVkIENlcnRpZmljYXRlMB0GA1UdDgQWBBSVQseZdS0KvF+MzSI+
HWDdtUVd2jCB4QYDVR0jBIHZMIHWgBQSzWAE0qCAnnDtxpm4eyzGUv0ZoaGBsqSB
rzCBrDELMAkGA1UEBhMCVVMxCzAJBgNVBAgTAk9IMREwDwYDVQQHEwhDb2x1bWJ1
czESMBAGA1UEChMJVmlraW5nVlBOMR0wGwYDVQQLExRNeU9yZ2FuaXphdGlvbmFs
VW5pdDEVMBMGA1UEAxMMVmlraW5nVlBOIENBMRAwDgYDVQQpEwdFYXN5UlNBMSEw
HwYJKoZIhvcNAQkBFhJtZUBteWhvc3QubXlkb21haW6CCQDPNYXugL8qPjATBgNV
HSUEDDAKBggrBgEFBQcDAjALBgNVHQ8EBAMCB4AwDQYJKoZIhvcNAQELBQADggIB
ALTdeSo9AyGPKwIz/7xyd+qotndAbjh7IFBDwmhH2D3C4TVieEZGi2hRet3NsQ/q
nqghqUEYq9801WDLOdorh2TSTfHw6BosKdi/L54U+nwRmCtS34CrNRc3OJyigj2Q
VQevnJhxYm2mj4hj0y1lXoFnc6H6gOHQxfS3N64QuiWjdVwH94ofh9FYLJlm1Oiv
HWChWVYQL/X+1qvcl6Fg95vhIpEHJVqpK7I96UkBLmbChpuyD+W5URnEBGHhHIO6
zArbNml0qJX8HiqPDKtcTx8IxvtbjAfPef/0y/tcPgpjZ2YrcLoD5fy2mdcX/9Gc
b29XJ1qWwM85f2ft4Mb+1V76/boTGvGeAIB06FgGR7JMK9pVaTsrsqhv8Ml/qUvW
kTFBh8n6qkLTmfx0wHkO5A1vzR+hAvMDgkj24iNUrVwRNp/WMcgoPWPoAzDsNw8J
7dSSf9mDi/8IIPACLL+S//8H50y1mhGGiEMjoRpBlYKuIwuHLu3g/71Z3wnvaTbe
rjaOmGQiuhvNsn5s3yWAmIBioDUJ2kBgtgjeAeIgp5Pii48sK6qCR0PVTPuRuPtl
7VQgFmXU8LPLWe1DNVAVvroESgxFc5lWBfauvGGHsWelnP6dYV2QnDHrGgfihAjH
ZtRLu6q3XoivozoHMTt5R4JM0j6jlY6WNXf1xVjMMbmA
-----END CERTIFICATE-----
