Certificate:
    Data:
        Version: 3 (0x2)
        Serial Number: 5720 (0x1658)
    Signature Algorithm: md5WithRSAEncryption
        Issuer: C=US, ST=OH, L=Columbus, O=VikingVPN, OU=MyOrganizationalUnit, CN=VikingVPN CA/name=EasyRSA/emailAddress=me@myhost.mydomain
        Validity
            Not Before: Jul  7 04:43:31 2015 GMT
            Not After : Jul  4 04:43:31 2025 GMT
        Subject: CN=Client1817Certf85c69
        Subject Public Key Info:
            Public Key Algorithm: rsaEncryption
                Public-Key: (4096 bit)
                Modulus:
                    00:cc:ee:6a:69:28:d5:ea:de:79:22:60:bc:e0:06:
                    82:3f:30:0f:dd:2f:b6:8f:0a:e7:0c:b9:03:38:15:
                    4e:80:f8:2f:73:83:68:f8:4e:35:e5:41:e2:87:a9:
                    20:86:ed:be:2e:65:c8:06:b8:e5:67:c8:f7:b6:e2:
                    32:a5:01:dc:b2:10:98:27:48:4b:c0:bc:20:6e:95:
                    b7:3e:a8:1b:95:e3:b7:4e:eb:aa:3c:8c:92:12:4d:
                    bc:cd:cd:2d:34:ef:9d:82:3b:fd:ae:1b:ef:61:84:
                    e4:c2:f8:18:cb:99:d7:e8:fe:a5:fa:04:d9:34:19:
                    47:08:39:0b:38:38:89:28:f3:cf:df:d0:bb:c8:6e:
                    1b:ef:46:87:40:e8:be:30:81:e6:72:5e:9c:be:95:
                    61:4a:64:7a:7c:f9:a8:73:75:66:cd:0b:5d:a8:64:
                    5b:ba:d9:d1:f0:06:11:da:ca:af:f4:ce:9d:bb:7b:
                    cd:f4:89:c2:2f:8c:7a:e4:4a:ac:41:64:53:4f:91:
                    2d:15:44:4e:b6:9f:b6:5d:b7:72:7f:6d:8f:e1:61:
                    cf:66:3a:2a:f3:f3:a4:b8:03:f5:a7:7f:5b:1a:97:
                    83:42:ec:29:c1:0b:7d:ab:92:c9:f8:d6:2f:41:f9:
                    0d:68:3f:1f:8d:38:c4:06:de:2f:c2:63:ee:7c:14:
                    b8:1e:44:68:9f:eb:3d:f8:26:63:06:b0:93:50:7e:
                    ad:3f:c2:17:d7:ef:f7:c9:5a:0d:e8:1d:02:97:17:
                    dd:fe:80:a1:80:13:52:74:41:03:d8:44:bc:1e:94:
                    79:be:5f:84:73:bf:19:a6:1d:c4:45:54:1f:45:e4:
                    cd:fe:4d:01:a8:f8:36:b8:82:4a:e6:b6:f8:a1:ad:
                    a0:a8:78:bc:d5:10:19:39:54:33:03:30:69:5f:92:
                    46:6d:63:f0:0b:33:3c:85:fb:3a:85:75:c3:07:ac:
                    ea:9f:8e:97:4d:64:3d:b2:fe:5d:98:10:a9:95:93:
                    38:71:0f:8e:1a:9e:88:25:4c:3c:28:ec:5f:6a:01:
                    53:60:ae:c7:c0:ff:88:c5:ad:1d:08:dd:c4:3a:f8:
                    f0:6b:6b:46:61:dc:91:44:30:54:f7:34:1e:22:57:
                    92:4d:73:67:f2:27:ae:e2:6c:c4:45:64:e3:fd:2b:
                    0f:be:43:01:37:fd:ac:f5:df:8e:93:c2:d5:61:b0:
                    ae:80:d2:6b:75:8c:20:80:60:c9:32:ae:3d:93:be:
                    7f:94:14:c1:c4:40:77:b3:42:04:15:70:13:d2:e2:
                    5e:45:77:97:fd:f3:4a:63:9b:a5:d8:4a:db:43:66:
                    3f:9e:e2:41:7f:5a:66:e9:1c:47:8d:60:37:57:ce:
                    46:e7:33
                Exponent: 65537 (0x10001)
        X509v3 extensions:
            X509v3 Basic Constraints: 
                CA:FALSE
            Netscape Comment: 
                Easy-RSA Generated Certificate
            X509v3 Subject Key Identifier: 
                40:41:73:DB:99:45:F6:8D:29:5D:4C:3F:73:0B:9C:08:1B:AE:29:31
            X509v3 Authority Key Identifier: 
                keyid:12:CD:60:04:D2:A0:80:9E:70:ED:C6:99:B8:7B:2C:C6:52:FD:19:A1
                DirName:/C=US/ST=OH/L=Columbus/O=VikingVPN/OU=MyOrganizationalUnit/CN=VikingVPN CA/name=EasyRSA/emailAddress=me@myhost.mydomain
                serial:CF:35:85:EE:80:BF:2A:3E

            X509v3 Extended Key Usage: 
                TLS Web Client Authentication
            X509v3 Key Usage: 
                Digital Signature
    Signature Algorithm: md5WithRSAEncryption
         14:d4:ec:9f:20:a8:15:2a:2e:1a:25:dd:21:94:88:1c:19:0a:
         06:fc:41:7a:6c:81:2a:11:0b:4e:73:fe:f2:99:12:93:dd:0c:
         07:a2:13:68:94:72:6f:43:4b:24:bb:1a:be:eb:28:fa:6e:66:
         54:bc:b7:b1:fb:bb:a2:9e:e4:be:d3:ed:8f:62:6e:2f:32:06:
         18:e3:a8:a4:8d:49:9e:99:09:b3:90:ec:15:2a:da:e3:66:aa:
         80:5a:c1:28:64:63:2a:72:c0:49:f4:ce:4a:c1:ee:be:d6:d9:
         3b:32:2d:45:f5:e9:b3:69:b5:f7:52:41:7c:65:f8:8a:86:60:
         3c:ff:df:08:00:8c:cc:09:82:16:90:d1:3b:a0:ec:2a:33:d6:
         0b:04:86:25:ee:52:7b:3e:a4:bc:df:81:73:77:9e:c7:4f:e8:
         e8:6d:bc:c1:ce:85:98:7c:6d:48:ff:37:44:16:2c:a8:7c:87:
         1d:0e:d0:72:a7:ae:0a:ac:94:97:e6:d8:bb:02:db:01:14:99:
         39:6e:28:04:2a:63:6e:57:5e:85:de:26:05:4f:9b:38:43:2c:
         85:9f:2b:74:31:d9:5b:b3:52:73:32:b7:d3:66:27:c6:74:7a:
         d7:14:23:71:d6:8f:05:69:d5:e5:ab:19:78:69:91:49:1b:cd:
         e8:ab:8d:1e:9e:77:67:69:1b:cf:d9:9c:4f:26:e7:d3:b0:7f:
         ec:ba:88:52:3e:7f:4e:60:60:4e:22:10:b2:b4:78:f5:ee:8b:
         d9:53:17:e1:6c:cb:b2:27:65:1d:3b:9a:1c:81:69:41:12:e8:
         aa:7d:20:08:9c:53:8d:64:a5:b2:42:87:99:3e:45:51:6f:f1:
         e6:01:c0:d6:f0:75:32:73:5d:e8:38:9f:e8:43:3b:7d:53:13:
         08:fe:de:5d:2f:21:86:8a:4e:d4:c6:9c:aa:8c:c0:3d:de:1a:
         c8:19:f7:05:83:91:c7:96:d4:8f:fe:2a:46:ad:ab:e9:22:82:
         a2:75:9b:fa:9a:e5:a5:57:ab:c9:5e:30:98:a7:26:25:96:ee:
         56:d7:ca:4c:8d:ef:72:ac:4d:d9:e8:38:5d:8b:a9:80:5c:f6:
         ba:40:5b:7b:49:ea:7d:4d:8f:b2:14:3c:33:70:ae:a7:f0:61:
         9e:ac:74:78:97:21:dd:63:8e:0d:0e:36:14:45:2b:03:4f:40:
         60:f9:2d:4f:54:7a:ca:ee:5f:46:e9:1c:4f:c6:89:01:5e:e9:
         cd:24:49:e9:e2:20:20:4c:f0:f4:11:dd:f9:87:88:1d:4f:fe:
         1c:b5:ad:b1:bd:32:50:f2:93:73:65:09:a1:09:04:bc:66:f2:
         f0:ad:a3:9d:44:9e:33:92
-----BEGIN CERTIFICATE-----
MIIGrTCCBJWgAwIBAgICFlgwDQYJKoZIhvcNAQEEBQAwgawxCzAJBgNVBAYTAlVT
MQswCQYDVQQIEwJPSDERMA8GA1UEBxMIQ29sdW1idXMxEjAQBgNVBAoTCVZpa2lu
Z1ZQTjEdMBsGA1UECxMUTXlPcmdhbml6YXRpb25hbFVuaXQxFTATBgNVBAMTDFZp
a2luZ1ZQTiBDQTEQMA4GA1UEKRMHRWFzeVJTQTEhMB8GCSqGSIb3DQEJARYSbWVA
bXlob3N0Lm15ZG9tYWluMB4XDTE1MDcwNzA0NDMzMVoXDTI1MDcwNDA0NDMzMVow
HzEdMBsGA1UEAxMUQ2xpZW50MTgxN0NlcnRmODVjNjkwggIiMA0GCSqGSIb3DQEB
AQUAA4ICDwAwggIKAoICAQDM7mppKNXq3nkiYLzgBoI/MA/dL7aPCucMuQM4FU6A
+C9zg2j4TjXlQeKHqSCG7b4uZcgGuOVnyPe24jKlAdyyEJgnSEvAvCBulbc+qBuV
47dO66o8jJISTbzNzS00752CO/2uG+9hhOTC+BjLmdfo/qX6BNk0GUcIOQs4OIko
88/f0LvIbhvvRodA6L4wgeZyXpy+lWFKZHp8+ahzdWbNC12oZFu62dHwBhHayq/0
zp27e830icIvjHrkSqxBZFNPkS0VRE62n7Zdt3J/bY/hYc9mOirz86S4A/Wnf1sa
l4NC7CnBC32rksn41i9B+Q1oPx+NOMQG3i/CY+58FLgeRGif6z34JmMGsJNQfq0/
whfX7/fJWg3oHQKXF93+gKGAE1J0QQPYRLwelHm+X4RzvxmmHcRFVB9F5M3+TQGo
+Da4gkrmtvihraCoeLzVEBk5VDMDMGlfkkZtY/ALMzyF+zqFdcMHrOqfjpdNZD2y
/l2YEKmVkzhxD44anoglTDwo7F9qAVNgrsfA/4jFrR0I3cQ6+PBra0Zh3JFEMFT3
NB4iV5JNc2fyJ67ibMRFZOP9Kw++QwE3/az1346TwtVhsK6A0mt1jCCAYMkyrj2T
vn+UFMHEQHezQgQVcBPS4l5Fd5f980pjm6XYSttDZj+e4kF/WmbpHEeNYDdXzkbn
MwIDAQABo4IBYzCCAV8wCQYDVR0TBAIwADAtBglghkgBhvhCAQ0EIBYeRWFzeS1S
U0EgR2VuZXJhdGVkIENlcnRpZmljYXRlMB0GA1UdDgQWBBRAQXPbmUX2jSldTD9z
C5wIG64pMTCB4QYDVR0jBIHZMIHWgBQSzWAE0qCAnnDtxpm4eyzGUv0ZoaGBsqSB
rzCBrDELMAkGA1UEBhMCVVMxCzAJBgNVBAgTAk9IMREwDwYDVQQHEwhDb2x1bWJ1
czESMBAGA1UEChMJVmlraW5nVlBOMR0wGwYDVQQLExRNeU9yZ2FuaXphdGlvbmFs
VW5pdDEVMBMGA1UEAxMMVmlraW5nVlBOIENBMRAwDgYDVQQpEwdFYXN5UlNBMSEw
HwYJKoZIhvcNAQkBFhJtZUBteWhvc3QubXlkb21haW6CCQDPNYXugL8qPjATBgNV
HSUEDDAKBggrBgEFBQcDAjALBgNVHQ8EBAMCB4AwDQYJKoZIhvcNAQEEBQADggIB
ABTU7J8gqBUqLhol3SGUiBwZCgb8QXpsgSoRC05z/vKZEpPdDAeiE2iUcm9DSyS7
Gr7rKPpuZlS8t7H7u6Ke5L7T7Y9ibi8yBhjjqKSNSZ6ZCbOQ7BUq2uNmqoBawShk
YypywEn0zkrB7r7W2TsyLUX16bNptfdSQXxl+IqGYDz/3wgAjMwJghaQ0Tug7Coz
1gsEhiXuUns+pLzfgXN3nsdP6OhtvMHOhZh8bUj/N0QWLKh8hx0O0HKnrgqslJfm
2LsC2wEUmTluKAQqY25XXoXeJgVPmzhDLIWfK3Qx2VuzUnMyt9NmJ8Z0etcUI3HW
jwVp1eWrGXhpkUkbzeirjR6ed2dpG8/ZnE8m59Owf+y6iFI+f05gYE4iELK0ePXu
i9lTF+Fsy7InZR07mhyBaUES6Kp9IAicU41kpbJCh5k+RVFv8eYBwNbwdTJzXeg4
n+hDO31TEwj+3l0vIYaKTtTGnKqMwD3eGsgZ9wWDkceW1I/+Kkatq+kigqJ1m/qa
5aVXq8leMJinJiWW7lbXykyN73KsTdnoOF2LqYBc9rpAW3tJ6n1Nj7IUPDNwrqfw
YZ6sdHiXId1jjg0ONhRFKwNPQGD5LU9UesruX0bpHE/GiQFe6c0kSeniICBM8PQR
3fmHiB1P/hy1rbG9MlDyk3NlCaEJBLxm8vCto51EnjOS
-----END CERTIFICATE-----
