Certificate:
    Data:
        Version: 3 (0x2)
        Serial Number: 6104 (0x17d8)
    Signature Algorithm: md5WithRSAEncryption
        Issuer: C=US, ST=OH, L=Columbus, O=VikingVPN, OU=MyOrganizationalUnit, CN=VikingVPN CA/name=EasyRSA/emailAddress=me@myhost.mydomain
        Validity
            Not Before: Aug 21 04:48:43 2015 GMT
            Not After : Aug 18 04:48:43 2025 GMT
        Subject: CN=Client1912Certb9e5ec
        Subject Public Key Info:
            Public Key Algorithm: rsaEncryption
                Public-Key: (4096 bit)
                Modulus:
                    00:cc:8b:9c:40:16:c4:a0:4a:a9:84:88:ca:00:57:
                    a6:28:e2:09:00:99:b3:a2:12:22:08:fe:9c:1a:f6:
                    e8:f2:0d:a9:f9:fe:91:a4:d8:15:2e:43:ef:06:49:
                    53:b0:ea:e1:44:ba:04:42:25:4e:a2:55:f9:0e:96:
                    19:c8:97:f1:27:46:75:1e:0d:1f:c1:68:52:b2:9d:
                    09:bd:c7:ad:3c:ac:e1:df:2f:c9:9c:44:dd:f2:f1:
                    1f:42:bb:28:42:b2:96:15:0f:fb:f9:7e:14:45:4e:
                    46:6b:55:2b:dd:31:00:1a:54:2d:47:30:bc:54:38:
                    3b:c6:50:fe:40:0a:36:07:1b:a1:69:3d:b9:ee:67:
                    d0:8d:b6:3e:af:11:b0:0b:01:66:e4:47:04:44:ed:
                    65:bc:5a:cb:2d:c7:b7:5c:0a:5d:2f:0d:58:66:01:
                    8b:0a:0b:14:2b:8d:28:c2:ca:d5:10:e1:83:86:f9:
                    96:37:11:f4:5f:36:c6:a0:d3:1e:bd:34:fa:94:7d:
                    17:28:89:72:e4:ea:a5:5a:13:60:07:72:e0:18:35:
                    fc:c0:3c:2e:29:21:88:9f:aa:43:9a:de:92:93:97:
                    2f:45:65:41:9e:7d:22:67:fe:46:9d:55:9b:ff:f2:
                    b4:da:fa:30:a2:01:e0:61:d2:46:1a:3c:13:2a:78:
                    2b:02:15:b8:1e:1b:85:2e:2e:34:f7:c7:1f:7b:b7:
                    2b:e5:4d:3c:17:98:b8:2e:8a:2a:65:b4:2e:55:5f:
                    23:ef:3a:b2:f8:53:5b:77:65:67:a8:87:30:5d:38:
                    88:df:ba:6c:6d:7a:8e:d7:bd:ca:6d:d2:57:65:5f:
                    85:d8:b8:e8:40:d0:3c:3e:d5:97:31:9a:68:34:d5:
                    a0:2f:e8:72:0e:58:83:af:4b:4f:cf:37:8f:49:0a:
                    50:2c:ce:53:c3:b1:b7:b2:57:a3:8c:2c:90:46:99:
                    8f:5c:a9:0f:24:1e:d3:25:52:d2:78:18:a9:1a:bd:
                    de:c2:e7:66:8a:10:49:24:15:5e:3b:ad:3d:1b:8c:
                    b8:a3:08:83:81:c3:77:9f:b3:6f:23:ed:0f:45:f4:
                    23:14:53:53:8c:0d:3e:57:ac:aa:74:63:0d:fc:fd:
                    39:46:03:e7:c2:7c:99:cf:7e:4f:4a:1a:49:da:10:
                    1c:4c:93:62:3a:6f:f1:0b:8d:5d:3b:bd:3a:a8:7f:
                    02:51:9b:b1:45:79:2b:2a:86:cc:a7:88:4f:8c:e4:
                    f9:dc:fa:d7:5c:e3:67:12:50:4e:f9:89:0f:df:f4:
                    db:78:6e:f1:75:90:02:a0:41:58:51:8c:fd:48:b1:
                    58:e5:67:2c:87:8a:73:c4:9f:79:52:ba:58:1e:b6:
                    5e:d6:1f
                Exponent: 65537 (0x10001)
        X509v3 extensions:
            X509v3 Basic Constraints: 
                CA:FALSE
            Netscape Comment: 
                Easy-RSA Generated Certificate
            X509v3 Subject Key Identifier: 
                94:1C:9E:EE:74:C3:F5:A5:1B:66:01:E9:10:6B:8A:D1:A3:E1:40:57
            X509v3 Authority Key Identifier: 
                keyid:12:CD:60:04:D2:A0:80:9E:70:ED:C6:99:B8:7B:2C:C6:52:FD:19:A1
                DirName:/C=US/ST=OH/L=Columbus/O=VikingVPN/OU=MyOrganizationalUnit/CN=VikingVPN CA/name=EasyRSA/emailAddress=me@myhost.mydomain
                serial:CF:35:85:EE:80:BF:2A:3E

            X509v3 Extended Key Usage: 
                TLS Web Client Authentication
            X509v3 Key Usage: 
                Digital Signature
    Signature Algorithm: md5WithRSAEncryption
         b6:eb:4f:ba:ed:4c:e4:29:5d:01:36:1f:e3:02:56:f3:bd:f6:
         a0:d5:97:a7:12:70:46:59:59:fd:8d:11:0f:dd:26:02:4c:33:
         d6:5f:94:2e:21:4f:35:b6:d4:db:ac:66:46:36:26:b8:a7:e7:
         38:63:a7:bb:54:4a:31:9d:b3:00:a4:ec:b6:27:c3:90:83:22:
         27:7a:b8:a3:61:75:83:f8:d2:74:4d:7e:08:cd:8b:eb:71:c8:
         c3:3f:d4:c8:ff:5f:8a:26:c3:be:32:fd:fa:13:fe:66:a3:e6:
         48:5b:14:32:7a:fc:f2:b9:20:d4:e0:d4:82:d5:a3:06:7a:d8:
         8d:22:0e:ea:8e:a8:05:f5:a9:78:ab:ef:f3:d8:79:39:27:00:
         db:08:ee:e6:23:19:d0:27:06:0b:6f:c6:98:6f:81:67:6b:96:
         99:7f:aa:ef:16:d4:d6:4f:13:80:cf:66:28:b4:83:c7:0c:ab:
         bd:07:7e:25:56:58:bd:8a:31:ab:85:2b:02:dd:75:e2:1c:8a:
         58:8b:09:a5:d5:63:07:b7:36:ec:cc:a3:a0:f8:54:72:03:ea:
         8e:9c:7a:bb:fe:8d:e8:8a:9c:39:69:65:50:72:0f:4b:54:13:
         e8:3c:52:e0:78:6b:a7:b7:7c:d6:53:af:e4:37:3f:1d:25:57:
         ad:e0:9c:d3:b9:69:ca:db:09:e6:37:92:d1:f9:d7:49:9c:e4:
         b1:b2:aa:59:81:70:4c:52:53:f4:c0:78:ac:a8:a5:83:e6:80:
         77:26:93:63:68:95:60:f5:d7:7e:aa:6c:b6:77:ae:b9:a7:99:
         a8:67:a5:17:4e:e6:47:ca:d7:18:0f:93:e1:c2:39:80:10:12:
         39:09:25:b1:61:33:bb:ec:ea:ae:4d:2f:57:9e:a2:21:14:f6:
         64:8b:ad:eb:e2:5d:66:25:72:c1:60:4b:9f:1a:38:fe:13:78:
         e3:59:02:40:b8:1a:c0:dc:ef:6e:29:8b:36:b6:81:ac:a1:32:
         38:1e:a4:84:bb:9b:2b:ec:14:e1:b1:77:c3:ab:64:54:62:df:
         e1:51:80:b2:9f:67:db:fa:8f:75:a3:c2:6a:30:55:1d:23:8a:
         ee:8f:fa:16:63:26:67:27:82:d0:a6:85:dd:2c:99:9c:a9:30:
         1c:4c:67:23:fe:36:82:1d:0f:c0:04:74:6c:16:da:44:75:95:
         9f:bc:97:37:6e:89:cf:9d:5e:f1:fc:e7:72:9f:07:ce:ce:f4:
         d2:09:d2:84:df:43:86:66:14:71:2f:38:35:73:10:9a:7c:56:
         ca:04:4e:79:42:55:a5:e8:db:cf:fb:b5:81:03:e1:e2:f3:40:
         2c:ae:c9:3e:e6:88:3f:92
-----BEGIN CERTIFICATE-----
MIIGrTCCBJWgAwIBAgICF9gwDQYJKoZIhvcNAQEEBQAwgawxCzAJBgNVBAYTAlVT
MQswCQYDVQQIEwJPSDERMA8GA1UEBxMIQ29sdW1idXMxEjAQBgNVBAoTCVZpa2lu
Z1ZQTjEdMBsGA1UECxMUTXlPcmdhbml6YXRpb25hbFVuaXQxFTATBgNVBAMTDFZp
a2luZ1ZQTiBDQTEQMA4GA1UEKRMHRWFzeVJTQTEhMB8GCSqGSIb3DQEJARYSbWVA
bXlob3N0Lm15ZG9tYWluMB4XDTE1MDgyMTA0NDg0M1oXDTI1MDgxODA0NDg0M1ow
HzEdMBsGA1UEAxMUQ2xpZW50MTkxMkNlcnRiOWU1ZWMwggIiMA0GCSqGSIb3DQEB
AQUAA4ICDwAwggIKAoICAQDMi5xAFsSgSqmEiMoAV6Yo4gkAmbOiEiII/pwa9ujy
Dan5/pGk2BUuQ+8GSVOw6uFEugRCJU6iVfkOlhnIl/EnRnUeDR/BaFKynQm9x608
rOHfL8mcRN3y8R9CuyhCspYVD/v5fhRFTkZrVSvdMQAaVC1HMLxUODvGUP5ACjYH
G6FpPbnuZ9CNtj6vEbALAWbkRwRE7WW8Wsstx7dcCl0vDVhmAYsKCxQrjSjCytUQ
4YOG+ZY3EfRfNsag0x69NPqUfRcoiXLk6qVaE2AHcuAYNfzAPC4pIYifqkOa3pKT
ly9FZUGefSJn/kadVZv/8rTa+jCiAeBh0kYaPBMqeCsCFbgeG4UuLjT3xx97tyvl
TTwXmLguiipltC5VXyPvOrL4U1t3ZWeohzBdOIjfumxteo7Xvcpt0ldlX4XYuOhA
0Dw+1Zcxmmg01aAv6HIOWIOvS0/PN49JClAszlPDsbeyV6OMLJBGmY9cqQ8kHtMl
UtJ4GKkavd7C52aKEEkkFV47rT0bjLijCIOBw3efs28j7Q9F9CMUU1OMDT5XrKp0
Yw38/TlGA+fCfJnPfk9KGknaEBxMk2I6b/ELjV07vTqofwJRm7FFeSsqhsyniE+M
5Pnc+tdc42cSUE75iQ/f9Nt4bvF1kAKgQVhRjP1IsVjlZyyHinPEn3lSulgetl7W
HwIDAQABo4IBYzCCAV8wCQYDVR0TBAIwADAtBglghkgBhvhCAQ0EIBYeRWFzeS1S
U0EgR2VuZXJhdGVkIENlcnRpZmljYXRlMB0GA1UdDgQWBBSUHJ7udMP1pRtmAekQ
a4rRo+FAVzCB4QYDVR0jBIHZMIHWgBQSzWAE0qCAnnDtxpm4eyzGUv0ZoaGBsqSB
rzCBrDELMAkGA1UEBhMCVVMxCzAJBgNVBAgTAk9IMREwDwYDVQQHEwhDb2x1bWJ1
czESMBAGA1UEChMJVmlraW5nVlBOMR0wGwYDVQQLExRNeU9yZ2FuaXphdGlvbmFs
VW5pdDEVMBMGA1UEAxMMVmlraW5nVlBOIENBMRAwDgYDVQQpEwdFYXN5UlNBMSEw
HwYJKoZIhvcNAQkBFhJtZUBteWhvc3QubXlkb21haW6CCQDPNYXugL8qPjATBgNV
HSUEDDAKBggrBgEFBQcDAjALBgNVHQ8EBAMCB4AwDQYJKoZIhvcNAQEEBQADggIB
ALbrT7rtTOQpXQE2H+MCVvO99qDVl6cScEZZWf2NEQ/dJgJMM9ZflC4hTzW21Nus
ZkY2Jrin5zhjp7tUSjGdswCk7LYnw5CDIid6uKNhdYP40nRNfgjNi+txyMM/1Mj/
X4omw74y/foT/maj5khbFDJ6/PK5INTg1ILVowZ62I0iDuqOqAX1qXir7/PYeTkn
ANsI7uYjGdAnBgtvxphvgWdrlpl/qu8W1NZPE4DPZii0g8cMq70HfiVWWL2KMauF
KwLddeIciliLCaXVYwe3NuzMo6D4VHID6o6cerv+jeiKnDlpZVByD0tUE+g8UuB4
a6e3fNZTr+Q3Px0lV63gnNO5acrbCeY3ktH510mc5LGyqlmBcExSU/TAeKyopYPm
gHcmk2NolWD1136qbLZ3rrmnmahnpRdO5kfK1xgPk+HCOYAQEjkJJbFhM7vs6q5N
L1eeoiEU9mSLreviXWYlcsFgS58aOP4TeONZAkC4GsDc724piza2gayhMjgepIS7
myvsFOGxd8OrZFRi3+FRgLKfZ9v6j3WjwmowVR0jiu6P+hZjJmcngtCmhd0smZyp
MBxMZyP+NoIdD8AEdGwW2kR1lZ+8lzduic+dXvH853KfB87O9NIJ0oTfQ4ZmFHEv
ODVzEJp8VsoETnlCVaXo28/7tYED4eLzQCyuyT7miD+S
-----END CERTIFICATE-----
