Certificate:
    Data:
        Version: 3 (0x2)
        Serial Number: 3191 (0xc77)
    Signature Algorithm: md5WithRSAEncryption
        Issuer: C=US, ST=OH, L=Columbus, O=VikingVPN, OU=MyOrganizationalUnit, CN=VikingVPN CA/name=EasyRSA/emailAddress=me@myhost.mydomain
        Validity
            Not Before: Oct 24 21:02:23 2014 GMT
            Not After : Oct 21 21:02:23 2024 GMT
        Subject: CN=Client1105Cert165a35
        Subject Public Key Info:
            Public Key Algorithm: rsaEncryption
                Public-Key: (4096 bit)
                Modulus:
                    00:db:2c:b3:86:80:64:08:a2:99:57:35:e2:1f:04:
                    e3:61:3a:b8:61:ee:ab:11:c6:63:7b:01:b4:9f:0d:
                    bf:a4:68:97:35:6e:e4:5f:3a:cd:48:5c:95:91:69:
                    9b:d4:48:90:59:75:74:e5:71:67:41:88:b2:ce:80:
                    ff:30:a7:39:b1:06:7c:8c:e4:49:e0:a2:4b:10:34:
                    bb:c1:4b:d9:37:08:73:35:72:2f:27:03:f7:99:f7:
                    08:ce:59:8d:58:94:19:64:1e:b6:84:d7:ec:18:d4:
                    bb:e0:6d:8b:76:d4:eb:82:de:04:af:4d:82:0b:dd:
                    cc:b8:f0:3b:58:94:d6:b2:be:ab:7e:e4:04:4e:2a:
                    39:be:14:65:e7:ce:a7:82:73:69:e8:e1:44:da:0e:
                    27:3a:b5:bb:4a:ed:2f:24:8d:cd:e3:ad:73:70:ed:
                    8d:7c:66:61:8f:c5:22:98:14:2e:e5:17:dd:a3:7d:
                    f3:e7:c5:6c:4a:f2:ca:b9:fe:8d:3f:a0:48:e3:64:
                    55:2d:8a:ce:df:10:bb:84:1f:f9:8f:0b:e2:b2:c4:
                    d5:60:75:81:d8:09:98:e5:5a:d8:83:ef:14:07:ee:
                    4e:79:6a:a2:8f:c2:b7:c9:2f:0f:62:d5:95:ff:32:
                    04:af:d0:65:c7:6b:e9:a9:20:7b:30:c2:3f:d7:2f:
                    06:07:3c:c8:5e:9b:5d:2e:a5:f7:b4:2d:10:4f:87:
                    4d:3b:12:de:7b:de:06:0d:ab:f4:bc:15:ef:81:69:
                    7d:8a:9f:98:57:12:6a:5a:19:f0:cf:97:9f:c0:ec:
                    29:95:4c:5f:bb:b3:54:6d:91:49:d0:c0:3b:a9:e4:
                    64:35:a7:79:61:38:97:60:23:ca:29:37:9e:06:98:
                    5e:23:6b:c1:39:4c:7d:cf:e0:17:20:af:07:26:b3:
                    e0:e5:b8:4a:1d:40:cc:dc:d9:40:e0:63:a6:47:68:
                    13:7e:ae:f0:e7:ac:ec:96:1b:35:b1:74:fd:44:9e:
                    bc:17:f9:b2:fe:71:24:d7:8f:dc:22:84:a4:9d:87:
                    82:e5:17:f8:3e:fa:96:60:d5:53:08:f6:b1:ff:7e:
                    2b:db:19:66:70:b8:d1:c4:24:49:3f:ec:62:ad:cc:
                    a7:3c:ca:a3:27:22:c9:60:2f:d3:34:b8:f8:b9:78:
                    21:40:b6:65:0e:9c:fc:61:92:a5:83:77:08:7d:df:
                    72:89:5d:52:09:d8:30:b9:df:41:6a:cd:0d:59:93:
                    e3:24:49:9e:99:09:4c:1e:f3:56:67:d4:d2:01:af:
                    ad:c1:74:5b:ad:2d:b5:16:83:f3:37:45:ad:7e:2c:
                    30:64:97:7f:ae:ee:85:76:80:89:94:9e:b0:01:68:
                    ba:32:ad
                Exponent: 65537 (0x10001)
        X509v3 extensions:
            X509v3 Basic Constraints: 
                CA:FALSE
            Netscape Comment: 
                Easy-RSA Generated Certificate
            X509v3 Subject Key Identifier: 
                86:3D:C0:C3:27:6A:DA:E5:88:35:40:A2:01:B6:7D:5D:75:3E:71:18
            X509v3 Authority Key Identifier: 
                keyid:12:CD:60:04:D2:A0:80:9E:70:ED:C6:99:B8:7B:2C:C6:52:FD:19:A1
                DirName:/C=US/ST=OH/L=Columbus/O=VikingVPN/OU=MyOrganizationalUnit/CN=VikingVPN CA/name=EasyRSA/emailAddress=me@myhost.mydomain
                serial:CF:35:85:EE:80:BF:2A:3E

            X509v3 Extended Key Usage: 
                TLS Web Client Authentication
            X509v3 Key Usage: 
                Digital Signature
    Signature Algorithm: md5WithRSAEncryption
         a6:b2:f9:01:97:dc:d2:31:12:14:94:2f:36:ab:02:b1:ec:9d:
         15:30:9e:f4:32:8d:3a:ce:d1:4e:f8:16:26:43:f9:b0:7f:9f:
         64:5b:fe:41:d2:c5:12:25:65:c9:79:b8:d0:08:34:28:f4:ae:
         9c:df:d7:20:9c:c8:7a:e4:76:8d:95:85:2b:2f:a6:cb:86:59:
         69:2a:64:4f:6f:7b:7f:96:5b:e4:c9:7b:33:4b:8b:5d:43:0c:
         1f:96:e1:d8:89:60:a4:0a:de:7e:2d:5b:47:b1:ed:a4:c5:7e:
         e2:ec:87:97:a7:f7:27:cf:e4:83:e8:39:93:7a:aa:97:fc:03:
         bf:b1:0d:78:2c:a8:05:7e:62:97:9c:2b:ac:fe:37:52:db:fe:
         84:41:45:74:b0:0e:7a:ee:d5:90:3d:79:f0:e1:fa:a7:bf:c5:
         46:db:ab:6b:69:de:f4:b9:e1:30:bb:f9:4b:47:d0:ea:3c:d0:
         ad:61:65:25:02:f4:29:66:c2:32:49:eb:ae:d0:2e:01:85:17:
         b4:a5:57:7f:63:b7:56:73:e6:c1:54:f3:2d:c1:c0:07:d7:e8:
         70:7b:31:22:ba:97:8c:b3:52:d8:fe:e7:bd:07:19:66:dd:f8:
         4e:c4:96:b6:7a:4b:07:6b:cb:32:c3:d4:e7:28:bb:49:3b:06:
         60:bd:e2:47:45:5e:a8:fe:65:b4:b6:1a:d7:f1:cf:cb:29:4d:
         e3:e7:ec:3b:b8:22:eb:bd:99:0f:1a:25:29:46:88:14:c7:b3:
         a5:23:8a:5f:38:72:7d:da:b6:2a:dc:ba:b2:65:f7:64:84:0d:
         88:03:00:7e:90:e9:e2:f8:35:9b:63:ae:ad:7a:db:e3:79:9d:
         20:c5:88:7f:81:65:6d:e1:b6:f2:d9:39:a2:09:de:df:35:85:
         3a:6d:e9:59:a4:f6:3a:d7:77:5e:c4:cc:af:3c:18:32:50:a4:
         fc:4b:99:e2:42:2f:a3:94:20:c1:d9:57:10:fb:cb:73:75:63:
         27:61:e8:f8:29:6e:f8:0f:95:bd:39:17:8d:27:c2:a0:6d:80:
         f6:39:80:2d:1d:b8:10:1d:d9:c9:31:7d:79:fe:18:75:4b:2c:
         4e:a1:53:8b:ba:f2:dd:70:84:50:66:d4:2f:37:53:4b:13:14:
         2d:0a:f5:e8:a8:7e:7b:5f:5c:df:e4:8e:9c:26:53:78:a4:ae:
         11:1d:13:8c:5d:36:77:13:3a:9c:dd:88:68:b0:da:f0:27:9c:
         54:a7:8f:38:a0:d6:32:7d:32:05:3c:48:8b:03:98:eb:f8:83:
         7d:c8:5c:17:d4:c1:53:de:ce:9e:8f:c2:e0:e7:bf:a0:4a:6d:
         29:b9:fe:b9:4d:ce:d7:53
-----BEGIN CERTIFICATE-----
MIIGrTCCBJWgAwIBAgICDHcwDQYJKoZIhvcNAQEEBQAwgawxCzAJBgNVBAYTAlVT
MQswCQYDVQQIEwJPSDERMA8GA1UEBxMIQ29sdW1idXMxEjAQBgNVBAoTCVZpa2lu
Z1ZQTjEdMBsGA1UECxMUTXlPcmdhbml6YXRpb25hbFVuaXQxFTATBgNVBAMTDFZp
a2luZ1ZQTiBDQTEQMA4GA1UEKRMHRWFzeVJTQTEhMB8GCSqGSIb3DQEJARYSbWVA
bXlob3N0Lm15ZG9tYWluMB4XDTE0MTAyNDIxMDIyM1oXDTI0MTAyMTIxMDIyM1ow
HzEdMBsGA1UEAxMUQ2xpZW50MTEwNUNlcnQxNjVhMzUwggIiMA0GCSqGSIb3DQEB
AQUAA4ICDwAwggIKAoICAQDbLLOGgGQIoplXNeIfBONhOrhh7qsRxmN7AbSfDb+k
aJc1buRfOs1IXJWRaZvUSJBZdXTlcWdBiLLOgP8wpzmxBnyM5EngoksQNLvBS9k3
CHM1ci8nA/eZ9wjOWY1YlBlkHraE1+wY1LvgbYt21OuC3gSvTYIL3cy48DtYlNay
vqt+5AROKjm+FGXnzqeCc2no4UTaDic6tbtK7S8kjc3jrXNw7Y18ZmGPxSKYFC7l
F92jffPnxWxK8sq5/o0/oEjjZFUtis7fELuEH/mPC+KyxNVgdYHYCZjlWtiD7xQH
7k55aqKPwrfJLw9i1ZX/MgSv0GXHa+mpIHswwj/XLwYHPMhem10upfe0LRBPh007
Et573gYNq/S8Fe+BaX2Kn5hXEmpaGfDPl5/A7CmVTF+7s1RtkUnQwDup5GQ1p3lh
OJdgI8opN54GmF4ja8E5TH3P4Bcgrwcms+DluEodQMzc2UDgY6ZHaBN+rvDnrOyW
GzWxdP1EnrwX+bL+cSTXj9wihKSdh4LlF/g++pZg1VMI9rH/fivbGWZwuNHEJEk/
7GKtzKc8yqMnIslgL9M0uPi5eCFAtmUOnPxhkqWDdwh933KJXVIJ2DC530FqzQ1Z
k+MkSZ6ZCUwe81Zn1NIBr63BdFutLbUWg/M3Ra1+LDBkl3+u7oV2gImUnrABaLoy
rQIDAQABo4IBYzCCAV8wCQYDVR0TBAIwADAtBglghkgBhvhCAQ0EIBYeRWFzeS1S
U0EgR2VuZXJhdGVkIENlcnRpZmljYXRlMB0GA1UdDgQWBBSGPcDDJ2ra5Yg1QKIB
tn1ddT5xGDCB4QYDVR0jBIHZMIHWgBQSzWAE0qCAnnDtxpm4eyzGUv0ZoaGBsqSB
rzCBrDELMAkGA1UEBhMCVVMxCzAJBgNVBAgTAk9IMREwDwYDVQQHEwhDb2x1bWJ1
czESMBAGA1UEChMJVmlraW5nVlBOMR0wGwYDVQQLExRNeU9yZ2FuaXphdGlvbmFs
VW5pdDEVMBMGA1UEAxMMVmlraW5nVlBOIENBMRAwDgYDVQQpEwdFYXN5UlNBMSEw
HwYJKoZIhvcNAQkBFhJtZUBteWhvc3QubXlkb21haW6CCQDPNYXugL8qPjATBgNV
HSUEDDAKBggrBgEFBQcDAjALBgNVHQ8EBAMCB4AwDQYJKoZIhvcNAQEEBQADggIB
AKay+QGX3NIxEhSULzarArHsnRUwnvQyjTrO0U74FiZD+bB/n2Rb/kHSxRIlZcl5
uNAINCj0rpzf1yCcyHrkdo2VhSsvpsuGWWkqZE9ve3+WW+TJezNLi11DDB+W4diJ
YKQK3n4tW0ex7aTFfuLsh5en9yfP5IPoOZN6qpf8A7+xDXgsqAV+YpecK6z+N1Lb
/oRBRXSwDnru1ZA9efDh+qe/xUbbq2tp3vS54TC7+UtH0Oo80K1hZSUC9ClmwjJJ
667QLgGFF7SlV39jt1Zz5sFU8y3BwAfX6HB7MSK6l4yzUtj+570HGWbd+E7ElrZ6
SwdryzLD1Ocou0k7BmC94kdFXqj+ZbS2Gtfxz8spTePn7Du4Iuu9mQ8aJSlGiBTH
s6Ujil84cn3atircurJl92SEDYgDAH6Q6eL4NZtjrq162+N5nSDFiH+BZW3htvLZ
OaIJ3t81hTpt6Vmk9jrXd17EzK88GDJQpPxLmeJCL6OUIMHZVxD7y3N1Yydh6Pgp
bvgPlb05F40nwqBtgPY5gC0duBAd2ckxfXn+GHVLLE6hU4u68t1whFBm1C83U0sT
FC0K9eiofntfXN/kjpwmU3ikrhEdE4xdNncTOpzdiGiw2vAnnFSnjzig1jJ9MgU8
SIsDmOv4g33IXBfUwVPezp6PwuDnv6BKbSm5/rlNztdT
-----END CERTIFICATE-----
