Certificate:
    Data:
        Version: 3 (0x2)
        Serial Number: 4533 (0x11b5)
    Signature Algorithm: md5WithRSAEncryption
        Issuer: C=US, ST=OH, L=Columbus, O=VikingVPN, OU=MyOrganizationalUnit, CN=VikingVPN CA/name=EasyRSA/emailAddress=me@myhost.mydomain
        Validity
            Not Before: Feb 21 01:28:48 2015 GMT
            Not After : Feb 18 01:28:48 2025 GMT
        Subject: CN=Client1154Cert82fc83
        Subject Public Key Info:
            Public Key Algorithm: rsaEncryption
                Public-Key: (4096 bit)
                Modulus:
                    00:bb:e6:95:30:22:b0:e1:da:82:77:5a:c1:fa:57:
                    43:0f:40:c0:ad:23:d1:6a:8c:14:35:bf:90:4c:ee:
                    76:ed:f2:5b:49:75:eb:15:d4:5d:cf:77:65:36:67:
                    b3:c0:1b:aa:c6:a2:99:61:7d:7d:7f:c4:fb:98:12:
                    1a:af:09:dd:fb:a4:9e:5a:ea:6a:a1:a2:c7:73:24:
                    85:95:18:69:7b:2a:b3:b5:9f:66:e1:0d:fe:6d:47:
                    5f:e5:5f:98:8b:86:aa:3d:c0:d7:43:54:4a:c9:34:
                    d8:c2:ca:83:50:cd:77:5c:63:2d:0c:9a:51:4d:5b:
                    e6:20:5a:a1:e2:ee:6e:f4:d4:91:ad:88:fd:90:0b:
                    ac:ff:88:ac:b3:80:dd:d1:06:09:ed:c7:d2:a0:59:
                    7b:ad:3d:3e:b6:2a:fd:4a:b4:27:b8:72:da:4e:7d:
                    90:8e:70:84:30:2f:2f:d5:0e:93:af:ac:a6:cd:25:
                    76:05:92:d2:75:d4:98:53:ce:e1:b3:86:59:1b:9e:
                    e2:34:49:ac:84:bc:80:5a:54:04:b8:0b:08:c7:27:
                    e8:8f:cf:5a:43:54:2d:75:c5:b5:77:68:15:9c:ee:
                    d9:d1:f8:2b:6d:41:d1:c6:22:18:ca:ea:6e:28:0b:
                    d8:2d:ed:5e:32:2f:f5:7a:f0:b2:fe:ed:ba:b7:a1:
                    8c:92:fa:48:fc:1d:a5:55:48:b5:c9:0a:77:49:7c:
                    b6:40:9e:c5:e9:50:87:1f:c3:6d:10:6a:1b:9d:89:
                    fb:5b:31:33:d7:60:03:c3:cb:a4:e4:fa:81:97:a6:
                    51:ab:e5:3c:52:d5:8a:2d:d2:8e:5a:58:65:68:8f:
                    df:20:b4:3d:82:a5:4d:66:d0:b1:53:fb:9d:6b:0e:
                    d3:6e:f3:38:11:13:e8:39:96:ec:30:ac:40:4a:77:
                    ab:1d:77:dc:80:cf:de:e3:58:03:a2:c6:c9:a9:ab:
                    00:71:41:15:47:f6:42:42:86:6e:a1:34:09:8c:2b:
                    3f:5e:99:7e:59:09:9e:e6:68:2d:38:2c:fb:a4:ec:
                    b7:8c:1a:66:db:ca:b9:ea:2d:a3:48:fc:62:99:56:
                    78:08:c9:31:ec:8e:d8:8e:dd:0e:73:5e:25:bf:18:
                    0b:dc:9c:fc:53:44:d7:9c:62:09:d2:0f:2d:a2:85:
                    1d:c2:0e:39:b9:17:ee:57:44:ad:7e:b2:0d:19:03:
                    9a:38:14:7a:06:0a:c8:66:cf:5d:52:7a:0e:a0:80:
                    27:d9:fb:af:b6:da:17:06:92:9d:6b:d2:2b:e2:a2:
                    4f:86:d3:c5:de:80:77:31:7f:0b:2c:95:8f:83:f3:
                    14:bc:2d:21:74:73:46:03:9f:71:80:d1:d8:47:30:
                    28:32:af
                Exponent: 65537 (0x10001)
        X509v3 extensions:
            X509v3 Basic Constraints: 
                CA:FALSE
            Netscape Comment: 
                Easy-RSA Generated Certificate
            X509v3 Subject Key Identifier: 
                B0:A1:99:B3:A2:4E:69:CE:BF:BF:1B:A9:E4:CD:1A:1B:BD:31:4E:79
            X509v3 Authority Key Identifier: 
                keyid:12:CD:60:04:D2:A0:80:9E:70:ED:C6:99:B8:7B:2C:C6:52:FD:19:A1
                DirName:/C=US/ST=OH/L=Columbus/O=VikingVPN/OU=MyOrganizationalUnit/CN=VikingVPN CA/name=EasyRSA/emailAddress=me@myhost.mydomain
                serial:CF:35:85:EE:80:BF:2A:3E

            X509v3 Extended Key Usage: 
                TLS Web Client Authentication
            X509v3 Key Usage: 
                Digital Signature
    Signature Algorithm: md5WithRSAEncryption
         10:1a:45:56:d8:52:f8:72:bb:66:d1:0f:62:c3:06:2e:09:d8:
         32:5c:0e:6f:df:b1:7a:57:18:8f:0e:f8:f6:12:93:cc:8a:8f:
         43:3a:6b:1a:8f:f8:09:40:fd:03:c7:d8:d3:a8:ac:24:ae:8f:
         c6:98:05:e8:bb:b0:48:18:e9:c2:8f:35:b7:2d:24:b8:c3:3a:
         96:a7:7b:95:0e:cf:0c:f0:7d:9e:29:bf:24:8a:4e:3e:f9:cc:
         cc:69:ed:5e:c8:6d:90:bb:02:88:05:0b:30:0d:33:c5:7b:02:
         e3:2f:22:fd:35:02:b7:04:d6:b1:50:f9:f6:fe:ee:71:c2:d5:
         bd:d4:e4:e3:94:93:48:51:1d:6f:e5:1b:a4:a6:b7:5a:00:25:
         b5:d6:72:98:d0:2b:f3:5e:2e:da:e9:c4:47:4f:0d:74:c2:3b:
         1a:dc:cc:55:6e:61:b3:78:3d:a1:98:fb:c3:45:e9:ef:2c:a1:
         76:be:70:06:c1:54:b5:72:48:2a:77:54:3f:5c:25:b3:55:47:
         90:42:f0:c1:b0:76:ee:08:f8:9d:92:d0:65:be:4b:d7:06:6c:
         ed:42:06:7f:71:48:9c:4e:62:e2:bd:f3:dd:35:10:06:dd:7a:
         9a:7d:5e:e9:12:1e:1a:c1:0c:68:c1:bd:7a:6b:2b:9b:71:bf:
         a4:46:9a:01:35:27:c2:98:fc:bf:89:81:3d:a4:cd:34:a1:1a:
         57:03:53:3c:0d:45:54:63:69:e3:9c:21:46:cf:dc:12:3f:40:
         75:fb:83:41:ac:97:3e:87:e3:02:83:f1:6f:62:64:08:83:5d:
         10:65:f6:14:d7:9c:a2:76:75:dc:92:d3:aa:bb:23:8d:87:9b:
         de:b5:4b:f4:1e:61:83:7d:56:8e:61:04:f7:c1:c4:c5:ba:1c:
         c5:a8:fb:34:56:55:7c:b6:aa:30:f7:c6:15:ba:74:96:07:1d:
         52:37:0c:4d:41:53:92:48:cb:f9:ac:04:48:e9:69:33:d4:d1:
         c5:e5:c8:ff:e4:40:0f:99:6e:cf:c0:34:5d:0d:9e:eb:e2:ae:
         1e:e5:9f:7b:8a:72:ab:d2:05:36:09:42:80:b6:fd:06:0f:93:
         a2:e9:37:d6:ed:b6:7b:81:c8:a2:78:4a:c1:f6:be:90:c2:5b:
         43:b1:f6:c3:22:ac:40:31:57:29:df:44:d5:c9:56:3a:d8:44:
         e1:c0:aa:da:bd:63:99:cc:95:92:d7:6c:29:cd:46:2c:d2:3c:
         1a:30:9c:31:c0:ee:6f:be:2e:92:50:be:b4:b7:5e:eb:9f:23:
         7a:2c:1c:d5:31:9c:76:8a:e1:3e:c6:28:93:04:19:a8:e4:cf:
         02:02:1a:f0:33:93:01:be
-----BEGIN CERTIFICATE-----
MIIGrTCCBJWgAwIBAgICEbUwDQYJKoZIhvcNAQEEBQAwgawxCzAJBgNVBAYTAlVT
MQswCQYDVQQIEwJPSDERMA8GA1UEBxMIQ29sdW1idXMxEjAQBgNVBAoTCVZpa2lu
Z1ZQTjEdMBsGA1UECxMUTXlPcmdhbml6YXRpb25hbFVuaXQxFTATBgNVBAMTDFZp
a2luZ1ZQTiBDQTEQMA4GA1UEKRMHRWFzeVJTQTEhMB8GCSqGSIb3DQEJARYSbWVA
bXlob3N0Lm15ZG9tYWluMB4XDTE1MDIyMTAxMjg0OFoXDTI1MDIxODAxMjg0OFow
HzEdMBsGA1UEAxMUQ2xpZW50MTE1NENlcnQ4MmZjODMwggIiMA0GCSqGSIb3DQEB
AQUAA4ICDwAwggIKAoICAQC75pUwIrDh2oJ3WsH6V0MPQMCtI9FqjBQ1v5BM7nbt
8ltJdesV1F3Pd2U2Z7PAG6rGoplhfX1/xPuYEhqvCd37pJ5a6mqhosdzJIWVGGl7
KrO1n2bhDf5tR1/lX5iLhqo9wNdDVErJNNjCyoNQzXdcYy0MmlFNW+YgWqHi7m70
1JGtiP2QC6z/iKyzgN3RBgntx9KgWXutPT62Kv1KtCe4ctpOfZCOcIQwLy/VDpOv
rKbNJXYFktJ11JhTzuGzhlkbnuI0SayEvIBaVAS4CwjHJ+iPz1pDVC11xbV3aBWc
7tnR+CttQdHGIhjK6m4oC9gt7V4yL/V68LL+7bq3oYyS+kj8HaVVSLXJCndJfLZA
nsXpUIcfw20QahudiftbMTPXYAPDy6Tk+oGXplGr5TxS1Yot0o5aWGVoj98gtD2C
pU1m0LFT+51rDtNu8zgRE+g5luwwrEBKd6sdd9yAz97jWAOixsmpqwBxQRVH9kJC
hm6hNAmMKz9emX5ZCZ7maC04LPuk7LeMGmbbyrnqLaNI/GKZVngIyTHsjtiO3Q5z
XiW/GAvcnPxTRNecYgnSDy2ihR3CDjm5F+5XRK1+sg0ZA5o4FHoGCshmz11Seg6g
gCfZ+6+22hcGkp1r0iviok+G08XegHcxfwsslY+D8xS8LSF0c0YDn3GA0dhHMCgy
rwIDAQABo4IBYzCCAV8wCQYDVR0TBAIwADAtBglghkgBhvhCAQ0EIBYeRWFzeS1S
U0EgR2VuZXJhdGVkIENlcnRpZmljYXRlMB0GA1UdDgQWBBSwoZmzok5pzr+/G6nk
zRobvTFOeTCB4QYDVR0jBIHZMIHWgBQSzWAE0qCAnnDtxpm4eyzGUv0ZoaGBsqSB
rzCBrDELMAkGA1UEBhMCVVMxCzAJBgNVBAgTAk9IMREwDwYDVQQHEwhDb2x1bWJ1
czESMBAGA1UEChMJVmlraW5nVlBOMR0wGwYDVQQLExRNeU9yZ2FuaXphdGlvbmFs
VW5pdDEVMBMGA1UEAxMMVmlraW5nVlBOIENBMRAwDgYDVQQpEwdFYXN5UlNBMSEw
HwYJKoZIhvcNAQkBFhJtZUBteWhvc3QubXlkb21haW6CCQDPNYXugL8qPjATBgNV
HSUEDDAKBggrBgEFBQcDAjALBgNVHQ8EBAMCB4AwDQYJKoZIhvcNAQEEBQADggIB
ABAaRVbYUvhyu2bRD2LDBi4J2DJcDm/fsXpXGI8O+PYSk8yKj0M6axqP+AlA/QPH
2NOorCSuj8aYBei7sEgY6cKPNbctJLjDOpane5UOzwzwfZ4pvySKTj75zMxp7V7I
bZC7AogFCzANM8V7AuMvIv01ArcE1rFQ+fb+7nHC1b3U5OOUk0hRHW/lG6Smt1oA
JbXWcpjQK/NeLtrpxEdPDXTCOxrczFVuYbN4PaGY+8NF6e8soXa+cAbBVLVySCp3
VD9cJbNVR5BC8MGwdu4I+J2S0GW+S9cGbO1CBn9xSJxOYuK98901EAbdepp9XukS
HhrBDGjBvXprK5txv6RGmgE1J8KY/L+JgT2kzTShGlcDUzwNRVRjaeOcIUbP3BI/
QHX7g0Gslz6H4wKD8W9iZAiDXRBl9hTXnKJ2ddyS06q7I42Hm961S/QeYYN9Vo5h
BPfBxMW6HMWo+zRWVXy2qjD3xhW6dJYHHVI3DE1BU5JIy/msBEjpaTPU0cXlyP/k
QA+Zbs/ANF0Nnuvirh7ln3uKcqvSBTYJQoC2/QYPk6LpN9bttnuByKJ4SsH2vpDC
W0Ox9sMirEAxVynfRNXJVjrYROHAqtq9Y5nMlZLXbCnNRizSPBownDHA7m++LpJQ
vrS3XuufI3osHNUxnHaK4T7GKJMEGajkzwICGvAzkwG+
-----END CERTIFICATE-----
