Certificate:
    Data:
        Version: 3 (0x2)
        Serial Number: 6011 (0x177b)
    Signature Algorithm: md5WithRSAEncryption
        Issuer: C=US, ST=OH, L=Columbus, O=VikingVPN, OU=MyOrganizationalUnit, CN=VikingVPN CA/name=EasyRSA/emailAddress=me@myhost.mydomain
        Validity
            Not Before: Aug  5 01:51:42 2015 GMT
            Not After : Aug  2 01:51:42 2025 GMT
        Subject: CN=Client1675Certd57b7d
        Subject Public Key Info:
            Public Key Algorithm: rsaEncryption
                Public-Key: (4096 bit)
                Modulus:
                    00:c9:25:57:d2:7d:4a:52:95:8f:fa:57:ba:16:c4:
                    fa:ca:f4:c6:75:2b:97:00:15:38:06:ff:7f:e0:fa:
                    d8:be:a2:f5:31:ae:fe:d1:ca:2d:44:32:33:8a:c5:
                    85:34:04:63:c8:b1:22:91:37:9c:67:3c:3a:f1:0b:
                    15:65:7f:99:b7:1d:0a:af:a3:34:23:af:0b:62:b8:
                    0c:17:bf:4c:08:9f:4f:4a:b1:6d:b9:36:a4:29:f5:
                    ce:65:be:cf:25:28:1c:cd:a7:62:06:07:0a:22:c1:
                    d5:95:8a:98:83:e1:24:a4:e0:2e:bd:9f:90:1d:04:
                    d2:64:1c:37:eb:e9:79:0f:41:33:d5:46:0c:c2:1b:
                    f5:68:bc:c1:ce:56:89:bf:63:5e:a8:17:cd:86:1d:
                    83:e9:22:31:31:a5:1f:b4:4f:3f:b9:e1:6c:48:c8:
                    40:97:13:26:1c:52:a9:2e:0c:8b:2d:57:2f:5e:07:
                    99:13:1b:a7:3b:8f:f8:9c:16:1b:a1:e1:46:96:d9:
                    d2:f1:8b:45:e7:42:d8:3f:ca:08:76:5d:71:b6:e9:
                    d7:9e:6f:f5:7d:ed:0f:bc:5c:7e:ba:6c:a6:f7:e6:
                    9b:70:0f:60:f4:0e:b8:2d:49:f2:3d:7c:25:39:71:
                    c0:97:67:63:9c:5d:25:a9:8f:4e:59:3f:59:8b:e0:
                    06:a8:56:0e:8b:b9:3a:58:1c:f4:b9:36:a6:80:c5:
                    5f:d7:db:5a:18:79:a6:90:7f:95:18:3c:34:a1:60:
                    88:96:c7:0f:51:26:3e:dc:11:00:34:66:d3:96:97:
                    b7:98:76:21:6c:04:36:be:b3:f6:fc:2a:df:85:e4:
                    f7:33:b4:45:41:49:18:38:7d:f4:d5:da:cb:fc:98:
                    84:ef:81:3c:32:88:f5:a2:12:19:95:a7:6a:76:10:
                    08:cf:d3:2d:ce:f2:3f:1a:45:0f:56:4a:c6:a3:b1:
                    4c:f0:17:5b:cc:ba:b7:b3:32:c9:22:d3:ea:96:86:
                    52:31:eb:85:d6:03:93:f5:7c:f4:a1:5d:63:ec:bc:
                    b9:ac:50:2c:49:a9:7e:b3:a9:1f:0c:a9:97:f4:f9:
                    e9:4d:f6:9a:15:35:e7:9b:13:bb:cd:ae:30:5b:1c:
                    72:35:35:db:e9:40:95:35:06:b9:03:31:f7:7f:04:
                    8c:b3:4b:65:e9:06:22:39:1f:c3:ed:83:b8:5b:40:
                    73:5e:1f:6a:ae:32:f9:b4:4a:8d:8c:b4:e5:48:6e:
                    ac:60:45:d6:75:4a:b3:6d:18:48:5f:4b:8b:8b:e4:
                    79:64:fc:d6:bb:29:64:01:a4:5e:d2:c6:a6:8e:d1:
                    bd:9f:3a:cd:7f:cf:ff:47:bb:3a:12:a2:82:05:da:
                    38:a9:a9
                Exponent: 65537 (0x10001)
        X509v3 extensions:
            X509v3 Basic Constraints: 
                CA:FALSE
            Netscape Comment: 
                Easy-RSA Generated Certificate
            X509v3 Subject Key Identifier: 
                21:5C:1F:8D:0B:B8:3E:84:63:47:26:0F:4D:D9:B6:F8:4E:23:9C:CD
            X509v3 Authority Key Identifier: 
                keyid:12:CD:60:04:D2:A0:80:9E:70:ED:C6:99:B8:7B:2C:C6:52:FD:19:A1
                DirName:/C=US/ST=OH/L=Columbus/O=VikingVPN/OU=MyOrganizationalUnit/CN=VikingVPN CA/name=EasyRSA/emailAddress=me@myhost.mydomain
                serial:CF:35:85:EE:80:BF:2A:3E

            X509v3 Extended Key Usage: 
                TLS Web Client Authentication
            X509v3 Key Usage: 
                Digital Signature
    Signature Algorithm: md5WithRSAEncryption
         04:71:5e:45:a5:7e:f2:48:04:56:e9:6f:76:d1:83:6f:ec:ea:
         6e:41:af:a9:6a:a5:bb:4c:54:fd:d7:1d:c4:d6:97:f8:63:f2:
         d2:17:a6:82:9f:37:10:ba:61:fe:f7:d3:ce:2a:db:01:bc:42:
         75:8e:16:d8:eb:e4:31:df:76:69:a3:e6:b1:88:92:e6:56:14:
         9d:c6:4a:73:8d:b4:9e:24:84:ab:67:3c:85:bd:7e:a5:e8:28:
         65:19:d4:8d:2e:f6:90:3b:d6:11:da:d1:ed:01:26:23:f1:6b:
         79:af:de:f2:ee:bc:d5:01:aa:a6:34:20:27:fb:29:80:33:5a:
         bb:a9:ea:5f:31:cb:03:a6:a1:83:cc:c2:f0:ce:91:b3:3a:09:
         3a:5a:d5:25:db:74:a7:1c:09:a7:a3:ec:f6:af:b8:f1:57:8c:
         8e:40:3e:c2:08:14:4a:a3:af:a0:aa:d8:02:0e:55:d7:b4:f9:
         70:8e:12:a7:76:4e:f5:fc:8d:c5:8c:40:c1:1b:20:8c:60:5e:
         8c:42:ed:76:b9:24:88:58:0d:e6:e0:44:31:e8:55:39:c8:f3:
         c0:a0:3e:75:b6:88:05:7a:43:2c:2d:3b:48:cf:47:de:d1:6c:
         70:6a:2f:09:a5:95:3a:25:cf:29:50:63:52:31:90:29:3a:68:
         24:ad:ba:70:d6:6c:0a:f0:64:08:0f:71:4e:d1:7a:bb:e7:7f:
         d9:a5:fb:9a:c6:61:8b:65:d0:0d:95:5a:3d:11:d1:50:dc:2a:
         11:fb:d2:05:d1:46:66:63:60:94:b5:f3:ab:c1:50:55:d0:39:
         3c:f1:4c:d0:e9:de:db:ef:6c:15:db:3e:c9:4c:58:48:04:be:
         3a:db:ce:e5:45:6f:22:af:d7:11:69:e3:33:67:2d:eb:87:93:
         1f:3f:24:a1:33:b5:a7:48:bc:dd:3f:1f:58:0d:d6:da:86:6c:
         cf:a5:9d:11:2d:41:92:3f:7b:2b:7b:a4:4d:c0:fa:e0:07:c4:
         a5:8e:54:3c:a0:70:17:93:f6:71:9a:c0:13:a1:b5:6e:4e:29:
         cc:4b:ff:00:83:f4:86:07:15:84:4e:35:e1:92:1a:73:ad:cf:
         1c:9b:8b:43:b3:35:2d:51:5f:f0:9f:80:d4:ef:52:3c:7d:ec:
         a5:a2:89:ea:69:ca:18:fe:85:92:a0:7f:0b:db:c3:ab:a8:f6:
         b9:bf:38:9f:3e:05:22:08:c2:be:6c:ce:6d:36:76:62:83:63:
         59:c0:96:5b:df:a1:28:dc:40:d7:ac:5a:9d:ae:ef:db:b7:4b:
         55:36:18:9f:4a:27:a6:19:ae:49:a3:a7:20:fd:b2:f8:c4:fb:
         66:52:e3:5f:e5:d8:01:1e
-----BEGIN CERTIFICATE-----
MIIGrTCCBJWgAwIBAgICF3swDQYJKoZIhvcNAQEEBQAwgawxCzAJBgNVBAYTAlVT
MQswCQYDVQQIEwJPSDERMA8GA1UEBxMIQ29sdW1idXMxEjAQBgNVBAoTCVZpa2lu
Z1ZQTjEdMBsGA1UECxMUTXlPcmdhbml6YXRpb25hbFVuaXQxFTATBgNVBAMTDFZp
a2luZ1ZQTiBDQTEQMA4GA1UEKRMHRWFzeVJTQTEhMB8GCSqGSIb3DQEJARYSbWVA
bXlob3N0Lm15ZG9tYWluMB4XDTE1MDgwNTAxNTE0MloXDTI1MDgwMjAxNTE0Mlow
HzEdMBsGA1UEAxMUQ2xpZW50MTY3NUNlcnRkNTdiN2QwggIiMA0GCSqGSIb3DQEB
AQUAA4ICDwAwggIKAoICAQDJJVfSfUpSlY/6V7oWxPrK9MZ1K5cAFTgG/3/g+ti+
ovUxrv7Ryi1EMjOKxYU0BGPIsSKRN5xnPDrxCxVlf5m3HQqvozQjrwtiuAwXv0wI
n09KsW25NqQp9c5lvs8lKBzNp2IGBwoiwdWVipiD4SSk4C69n5AdBNJkHDfr6XkP
QTPVRgzCG/VovMHOVom/Y16oF82GHYPpIjExpR+0Tz+54WxIyECXEyYcUqkuDIst
Vy9eB5kTG6c7j/icFhuh4UaW2dLxi0XnQtg/ygh2XXG26deeb/V97Q+8XH66bKb3
5ptwD2D0DrgtSfI9fCU5ccCXZ2OcXSWpj05ZP1mL4AaoVg6LuTpYHPS5NqaAxV/X
21oYeaaQf5UYPDShYIiWxw9RJj7cEQA0ZtOWl7eYdiFsBDa+s/b8Kt+F5PcztEVB
SRg4ffTV2sv8mITvgTwyiPWiEhmVp2p2EAjP0y3O8j8aRQ9WSsajsUzwF1vMurez
Mski0+qWhlIx64XWA5P1fPShXWPsvLmsUCxJqX6zqR8MqZf0+elN9poVNeebE7vN
rjBbHHI1NdvpQJU1BrkDMfd/BIyzS2XpBiI5H8Ptg7hbQHNeH2quMvm0So2MtOVI
bqxgRdZ1SrNtGEhfS4uL5Hlk/Na7KWQBpF7SxqaO0b2fOs1/z/9HuzoSooIF2jip
qQIDAQABo4IBYzCCAV8wCQYDVR0TBAIwADAtBglghkgBhvhCAQ0EIBYeRWFzeS1S
U0EgR2VuZXJhdGVkIENlcnRpZmljYXRlMB0GA1UdDgQWBBQhXB+NC7g+hGNHJg9N
2bb4TiOczTCB4QYDVR0jBIHZMIHWgBQSzWAE0qCAnnDtxpm4eyzGUv0ZoaGBsqSB
rzCBrDELMAkGA1UEBhMCVVMxCzAJBgNVBAgTAk9IMREwDwYDVQQHEwhDb2x1bWJ1
czESMBAGA1UEChMJVmlraW5nVlBOMR0wGwYDVQQLExRNeU9yZ2FuaXphdGlvbmFs
VW5pdDEVMBMGA1UEAxMMVmlraW5nVlBOIENBMRAwDgYDVQQpEwdFYXN5UlNBMSEw
HwYJKoZIhvcNAQkBFhJtZUBteWhvc3QubXlkb21haW6CCQDPNYXugL8qPjATBgNV
HSUEDDAKBggrBgEFBQcDAjALBgNVHQ8EBAMCB4AwDQYJKoZIhvcNAQEEBQADggIB
AARxXkWlfvJIBFbpb3bRg2/s6m5Br6lqpbtMVP3XHcTWl/hj8tIXpoKfNxC6Yf73
084q2wG8QnWOFtjr5DHfdmmj5rGIkuZWFJ3GSnONtJ4khKtnPIW9fqXoKGUZ1I0u
9pA71hHa0e0BJiPxa3mv3vLuvNUBqqY0ICf7KYAzWrup6l8xywOmoYPMwvDOkbM6
CTpa1SXbdKccCaej7PavuPFXjI5APsIIFEqjr6Cq2AIOVde0+XCOEqd2TvX8jcWM
QMEbIIxgXoxC7Xa5JIhYDebgRDHoVTnI88CgPnW2iAV6QywtO0jPR97RbHBqLwml
lTolzylQY1IxkCk6aCStunDWbArwZAgPcU7Rervnf9ml+5rGYYtl0A2VWj0R0VDc
KhH70gXRRmZjYJS186vBUFXQOTzxTNDp3tvvbBXbPslMWEgEvjrbzuVFbyKv1xFp
4zNnLeuHkx8/JKEztadIvN0/H1gN1tqGbM+lnREtQZI/eyt7pE3A+uAHxKWOVDyg
cBeT9nGawBOhtW5OKcxL/wCD9IYHFYRONeGSGnOtzxybi0OzNS1RX/CfgNTvUjx9
7KWiieppyhj+hZKgfwvbw6uo9rm/OJ8+BSIIwr5szm02dmKDY1nAllvfoSjcQNes
Wp2u79u3S1U2GJ9KJ6YZrkmjpyD9svjE+2ZS41/l2AEe
-----END CERTIFICATE-----
