Certificate:
    Data:
        Version: 3 (0x2)
        Serial Number: 2962 (0xb92)
    Signature Algorithm: md5WithRSAEncryption
        Issuer: C=US, ST=OH, L=Columbus, O=VikingVPN, OU=MyOrganizationalUnit, CN=VikingVPN CA/name=EasyRSA/emailAddress=me@myhost.mydomain
        Validity
            Not Before: Sep 26 10:39:24 2014 GMT
            Not After : Sep 23 10:39:24 2024 GMT
        Subject: CN=Client1016Cert008437
        Subject Public Key Info:
            Public Key Algorithm: rsaEncryption
                Public-Key: (4096 bit)
                Modulus:
                    00:c5:3f:de:e8:eb:99:71:f1:95:77:e7:c2:83:f8:
                    a8:82:28:08:b6:f6:cf:9b:20:a1:1a:24:7c:48:e4:
                    af:dd:34:af:07:03:0a:8c:59:9a:20:d2:7a:d6:55:
                    d2:36:64:f4:b3:e5:9c:9e:02:17:ea:c3:eb:25:91:
                    a1:d3:62:a6:78:33:4b:f0:17:ce:1a:5d:b1:39:c1:
                    7f:4d:d3:03:f4:84:5f:5f:62:15:eb:a8:e7:6e:65:
                    1b:fb:a6:7c:26:d7:66:78:2d:eb:c5:13:53:24:3c:
                    08:fb:c8:34:46:e1:51:7e:22:37:3b:b0:b2:30:40:
                    a3:e8:94:50:e8:b0:66:ab:1e:26:b3:53:a9:d5:7f:
                    af:dd:50:33:ed:7a:e7:d4:23:b7:1a:68:04:f2:48:
                    e4:db:41:8c:4a:5b:52:7b:1d:73:4e:f3:ba:53:1d:
                    9b:e0:f6:e4:a2:d2:c4:87:29:1e:85:63:91:3b:14:
                    65:d9:03:0b:f9:65:56:af:2d:93:d3:2d:26:63:28:
                    d6:3f:f8:71:c7:e7:66:1d:88:2c:5c:34:6a:ce:c8:
                    72:b4:60:5a:ce:e5:27:83:12:f3:62:8a:75:b0:33:
                    f5:dd:8f:e5:69:81:d9:3d:16:68:bd:55:4e:4d:6b:
                    47:41:4c:36:3e:25:23:ff:22:d9:dd:6f:98:cb:80:
                    d9:38:42:06:f2:8f:82:46:02:47:59:77:42:66:89:
                    86:df:fe:3b:cd:a3:0a:34:ac:89:4e:d1:70:4c:e1:
                    c1:2b:46:89:7d:1a:7d:6c:00:84:35:3c:e7:c7:e1:
                    38:b3:93:c2:ea:e3:78:63:06:94:d9:b9:82:55:01:
                    5e:35:f9:b8:43:39:e4:78:98:1f:d6:50:17:ae:1b:
                    c1:fa:f4:4b:d3:45:13:9c:52:75:4e:07:4d:35:2e:
                    82:24:ef:5c:33:bc:74:1a:58:15:2c:9f:ab:1a:61:
                    42:62:2f:bd:a4:08:a7:9c:02:a5:b7:d4:71:23:d2:
                    b3:95:6d:d6:cc:09:79:5d:d3:1e:b7:36:52:91:c8:
                    af:3d:46:45:6a:29:65:48:ac:3e:48:c4:90:d4:8b:
                    1e:71:17:66:4a:14:a2:8b:c3:d3:8f:f5:54:84:a7:
                    7b:df:9a:aa:05:d0:c1:ef:e5:15:03:ff:86:80:b5:
                    1f:5e:b4:75:b8:3c:28:81:8a:0e:47:07:92:0e:91:
                    01:17:57:21:e0:be:3e:c0:f3:c0:87:7f:aa:df:fc:
                    a0:30:12:25:56:71:92:fe:c0:b2:fd:ba:43:c9:c4:
                    b0:8c:a5:a5:bd:8b:0d:52:63:0e:16:10:01:f0:11:
                    1d:eb:94:94:fa:a5:5a:d4:4f:2b:37:18:64:16:a8:
                    f9:0b:d7
                Exponent: 65537 (0x10001)
        X509v3 extensions:
            X509v3 Basic Constraints: 
                CA:FALSE
            Netscape Comment: 
                Easy-RSA Generated Certificate
            X509v3 Subject Key Identifier: 
                23:2C:6C:B0:5A:26:C5:E2:4F:86:94:55:88:D2:A3:28:B2:D5:FA:DB
            X509v3 Authority Key Identifier: 
                keyid:12:CD:60:04:D2:A0:80:9E:70:ED:C6:99:B8:7B:2C:C6:52:FD:19:A1
                DirName:/C=US/ST=OH/L=Columbus/O=VikingVPN/OU=MyOrganizationalUnit/CN=VikingVPN CA/name=EasyRSA/emailAddress=me@myhost.mydomain
                serial:CF:35:85:EE:80:BF:2A:3E

            X509v3 Extended Key Usage: 
                TLS Web Client Authentication
            X509v3 Key Usage: 
                Digital Signature
    Signature Algorithm: md5WithRSAEncryption
         ba:84:f6:8c:60:76:ef:aa:45:70:b1:e1:4a:9e:88:47:c6:02:
         9a:e6:3d:f0:ae:09:98:05:ad:b7:11:14:6d:a3:16:06:8f:d3:
         e5:3b:90:57:5b:09:eb:61:70:4e:d2:90:99:cf:9d:d7:7f:e8:
         1e:20:3c:0e:e0:3e:3d:91:51:d9:9e:b6:fe:c4:b0:e8:66:6e:
         41:47:48:e0:bc:ce:92:40:18:7a:26:0f:db:5f:d9:c7:13:77:
         8c:c1:b1:8c:4f:6e:ad:a0:24:8d:14:ea:85:00:34:af:4f:4e:
         dc:d6:44:b9:1a:ae:b4:0e:fc:33:94:5e:f7:53:7a:2a:a9:cb:
         cb:b1:10:51:4f:5e:d0:de:6f:38:95:6a:77:8d:60:d8:5d:ff:
         7c:02:a7:d6:93:62:b0:55:46:b4:b8:26:6c:56:34:4d:b9:ff:
         e1:44:40:9a:c5:63:97:7a:6d:02:8b:51:56:9e:81:5f:f7:8b:
         57:d5:5d:b3:76:43:51:4d:5d:e6:ba:a9:21:e7:21:c9:e9:f3:
         bf:37:5c:11:38:00:2c:34:55:9b:9c:ce:b9:9c:a5:ac:d0:c6:
         b6:88:3f:c9:6f:35:63:3a:10:4b:82:b4:1a:75:1f:93:30:3e:
         99:4a:f0:ba:3e:e2:3b:f8:c1:eb:9d:49:e8:cb:a4:c1:0a:f5:
         6a:b5:28:a8:cf:73:20:48:1f:3f:91:57:dd:93:0a:f2:4a:8e:
         2e:99:a8:f9:ff:04:48:d0:e4:88:81:1f:a9:9e:d5:0b:78:64:
         5d:77:01:b8:bd:eb:74:4c:40:08:98:dc:91:6a:ca:bf:01:e8:
         1d:60:36:0a:69:54:cd:c3:00:19:9c:54:0f:01:b7:f9:f9:66:
         9b:e6:17:b4:52:e7:ab:53:ac:ba:2b:8f:cc:93:4b:5a:b5:b3:
         7e:16:0b:2c:74:97:89:2e:e2:af:0f:79:11:73:ea:bc:ed:e3:
         06:d8:1f:35:ef:76:57:6a:ee:31:87:79:ee:34:ac:44:da:2d:
         1a:1e:69:08:fb:63:20:07:ad:7a:81:d8:59:0b:76:13:a5:d0:
         85:bd:a6:b5:da:f0:35:e8:d7:a3:b4:f1:7f:3b:3a:f1:b3:32:
         19:1e:04:6e:14:b7:8b:97:cd:82:e2:17:9b:d0:33:2b:4e:62:
         bc:ea:80:78:16:0c:7e:3d:4a:a7:09:96:fb:2d:ae:c2:56:f3:
         b9:51:8a:58:4b:d6:cb:2a:c8:6a:29:0d:32:b8:49:15:ec:43:
         2d:3f:2c:8d:ea:20:d4:c2:87:73:14:1b:b8:7f:6e:64:0d:b7:
         b0:31:64:8b:6a:c0:89:17:a4:54:9c:be:47:b5:a9:b8:3e:f7:
         a8:bb:40:d6:d7:f4:b4:92
-----BEGIN CERTIFICATE-----
MIIGrTCCBJWgAwIBAgICC5IwDQYJKoZIhvcNAQEEBQAwgawxCzAJBgNVBAYTAlVT
MQswCQYDVQQIEwJPSDERMA8GA1UEBxMIQ29sdW1idXMxEjAQBgNVBAoTCVZpa2lu
Z1ZQTjEdMBsGA1UECxMUTXlPcmdhbml6YXRpb25hbFVuaXQxFTATBgNVBAMTDFZp
a2luZ1ZQTiBDQTEQMA4GA1UEKRMHRWFzeVJTQTEhMB8GCSqGSIb3DQEJARYSbWVA
bXlob3N0Lm15ZG9tYWluMB4XDTE0MDkyNjEwMzkyNFoXDTI0MDkyMzEwMzkyNFow
HzEdMBsGA1UEAxMUQ2xpZW50MTAxNkNlcnQwMDg0MzcwggIiMA0GCSqGSIb3DQEB
AQUAA4ICDwAwggIKAoICAQDFP97o65lx8ZV358KD+KiCKAi29s+bIKEaJHxI5K/d
NK8HAwqMWZog0nrWVdI2ZPSz5ZyeAhfqw+slkaHTYqZ4M0vwF84aXbE5wX9N0wP0
hF9fYhXrqOduZRv7pnwm12Z4LevFE1MkPAj7yDRG4VF+Ijc7sLIwQKPolFDosGar
HiazU6nVf6/dUDPteufUI7caaATySOTbQYxKW1J7HXNO87pTHZvg9uSi0sSHKR6F
Y5E7FGXZAwv5ZVavLZPTLSZjKNY/+HHH52YdiCxcNGrOyHK0YFrO5SeDEvNiinWw
M/Xdj+Vpgdk9Fmi9VU5Na0dBTDY+JSP/Itndb5jLgNk4Qgbyj4JGAkdZd0JmiYbf
/jvNowo0rIlO0XBM4cErRol9Gn1sAIQ1POfH4Tizk8Lq43hjBpTZuYJVAV41+bhD
OeR4mB/WUBeuG8H69EvTRROcUnVOB001LoIk71wzvHQaWBUsn6saYUJiL72kCKec
AqW31HEj0rOVbdbMCXld0x63NlKRyK89RkVqKWVIrD5IxJDUix5xF2ZKFKKLw9OP
9VSEp3vfmqoF0MHv5RUD/4aAtR9etHW4PCiBig5HB5IOkQEXVyHgvj7A88CHf6rf
/KAwEiVWcZL+wLL9ukPJxLCMpaW9iw1SYw4WEAHwER3rlJT6pVrUTys3GGQWqPkL
1wIDAQABo4IBYzCCAV8wCQYDVR0TBAIwADAtBglghkgBhvhCAQ0EIBYeRWFzeS1S
U0EgR2VuZXJhdGVkIENlcnRpZmljYXRlMB0GA1UdDgQWBBQjLGywWibF4k+GlFWI
0qMostX62zCB4QYDVR0jBIHZMIHWgBQSzWAE0qCAnnDtxpm4eyzGUv0ZoaGBsqSB
rzCBrDELMAkGA1UEBhMCVVMxCzAJBgNVBAgTAk9IMREwDwYDVQQHEwhDb2x1bWJ1
czESMBAGA1UEChMJVmlraW5nVlBOMR0wGwYDVQQLExRNeU9yZ2FuaXphdGlvbmFs
VW5pdDEVMBMGA1UEAxMMVmlraW5nVlBOIENBMRAwDgYDVQQpEwdFYXN5UlNBMSEw
HwYJKoZIhvcNAQkBFhJtZUBteWhvc3QubXlkb21haW6CCQDPNYXugL8qPjATBgNV
HSUEDDAKBggrBgEFBQcDAjALBgNVHQ8EBAMCB4AwDQYJKoZIhvcNAQEEBQADggIB
ALqE9oxgdu+qRXCx4UqeiEfGAprmPfCuCZgFrbcRFG2jFgaP0+U7kFdbCethcE7S
kJnPndd/6B4gPA7gPj2RUdmetv7EsOhmbkFHSOC8zpJAGHomD9tf2ccTd4zBsYxP
bq2gJI0U6oUANK9PTtzWRLkarrQO/DOUXvdTeiqpy8uxEFFPXtDebziVaneNYNhd
/3wCp9aTYrBVRrS4JmxWNE25/+FEQJrFY5d6bQKLUVaegV/3i1fVXbN2Q1FNXea6
qSHnIcnp8783XBE4ACw0VZuczrmcpazQxraIP8lvNWM6EEuCtBp1H5MwPplK8Lo+
4jv4weudSejLpMEK9Wq1KKjPcyBIHz+RV92TCvJKji6ZqPn/BEjQ5IiBH6me1Qt4
ZF13Abi963RMQAiY3JFqyr8B6B1gNgppVM3DABmcVA8Bt/n5ZpvmF7RS56tTrLor
j8yTS1q1s34WCyx0l4ku4q8PeRFz6rzt4wbYHzXvdldq7jGHee40rETaLRoeaQj7
YyAHrXqB2FkLdhOl0IW9prXa8DXo16O08X87OvGzMhkeBG4Ut4uXzYLiF5vQMytO
YrzqgHgWDH49SqcJlvstrsJW87lRilhL1ssqyGopDTK4SRXsQy0/LI3qINTCh3MU
G7h/bmQNt7AxZItqwIkXpFScvke1qbg+96i7QNbX9LSS
-----END CERTIFICATE-----
