Certificate:
    Data:
        Version: 3 (0x2)
        Serial Number: 7060 (0x1b94)
    Signature Algorithm: md5WithRSAEncryption
        Issuer: C=US, ST=OH, L=Columbus, O=VikingVPN, OU=MyOrganizationalUnit, CN=VikingVPN CA/name=EasyRSA/emailAddress=me@myhost.mydomain
        Validity
            Not Before: Jan 19 23:17:57 2016 GMT
            Not After : Jan 16 23:17:57 2026 GMT
        Subject: CN=Client2145Cert3bde68
        Subject Public Key Info:
            Public Key Algorithm: rsaEncryption
                Public-Key: (4096 bit)
                Modulus:
                    00:b9:50:ac:d3:d6:cb:c9:7d:d4:97:fd:b0:15:86:
                    fb:ad:32:23:32:8f:95:2d:2a:9f:5e:c7:a1:9a:db:
                    ef:7c:d8:8d:1e:e9:76:55:45:c7:06:db:f1:b6:a6:
                    fa:d9:46:8f:6e:cd:20:90:d0:85:e1:2c:a7:5e:15:
                    b9:49:ab:d3:0b:04:5b:72:f6:d9:ab:cf:31:5a:ac:
                    6f:b4:75:d8:df:ab:64:4d:5b:71:7b:55:a3:be:b3:
                    b7:7a:d3:51:4a:ca:44:b3:a0:7c:eb:ab:4f:5c:93:
                    3b:49:70:07:78:52:38:48:88:39:bb:cc:67:27:d6:
                    4f:fd:c8:95:2c:96:f8:fc:7f:22:2e:eb:6b:35:ab:
                    33:7c:70:3f:67:e7:e2:36:83:e7:cd:5d:da:88:d8:
                    7c:5c:f7:27:a5:1f:c0:38:e9:dd:49:21:2d:fb:50:
                    eb:95:aa:76:be:f0:88:23:5c:93:30:ee:8c:24:15:
                    48:da:2f:67:c6:2c:08:f3:17:6a:9c:45:5d:d8:52:
                    9d:92:e6:67:04:36:28:d3:d3:a2:c8:d4:1c:a1:9a:
                    a0:db:c3:af:9f:0a:05:a7:b5:3b:59:2c:51:7b:87:
                    d4:12:ac:48:3c:b5:1f:77:1a:af:49:af:76:98:59:
                    19:de:bd:b4:85:89:83:75:ad:b2:24:0a:98:b4:b9:
                    88:92:c4:3b:dc:a7:fb:4a:af:ef:9b:4a:ea:bd:3b:
                    11:ac:53:c2:cb:5c:97:b5:b9:f0:79:b5:81:be:2a:
                    f9:cb:49:e4:da:cb:3a:ad:2a:bc:dd:12:a7:69:05:
                    3d:ff:0a:1c:af:b7:b5:f8:98:33:e7:aa:30:97:40:
                    b7:f8:02:4f:18:6e:47:7a:9a:71:f1:bb:9c:67:cc:
                    a5:4c:7c:f0:88:8b:32:59:a9:ff:7d:9f:1f:c1:77:
                    e8:1f:94:00:8c:3d:7b:4e:17:5b:a7:99:7f:c4:c1:
                    7c:b5:ed:de:3b:8d:af:31:84:2c:8b:06:fa:7e:72:
                    82:f0:5b:5c:53:7d:89:11:65:70:e9:7a:9b:11:88:
                    46:5f:a8:c4:c6:e9:f4:24:8f:b0:7d:19:f9:1b:47:
                    8f:74:a6:9a:4a:84:d8:22:e4:00:75:71:9e:07:46:
                    fe:20:f1:39:44:cc:19:15:b7:c7:0e:0b:81:ac:e8:
                    af:2a:a9:c0:e2:cc:6a:48:b5:e0:ed:f9:8a:6a:2d:
                    65:38:c9:6f:a9:ca:16:ca:da:05:5a:1d:15:1a:a9:
                    f2:3a:9c:2d:68:6c:58:1e:ae:73:f4:4c:f1:d8:4e:
                    42:2f:49:e3:dc:b6:ec:58:6b:db:b2:ed:ef:e2:3f:
                    3e:8d:0a:dd:9e:a5:a9:1f:db:1e:88:05:79:a1:e2:
                    9c:59:b1
                Exponent: 65537 (0x10001)
        X509v3 extensions:
            X509v3 Basic Constraints: 
                CA:FALSE
            Netscape Comment: 
                Easy-RSA Generated Certificate
            X509v3 Subject Key Identifier: 
                E4:76:B9:46:C6:F6:DC:BD:FB:98:7F:51:1D:F9:51:FE:78:AB:FA:37
            X509v3 Authority Key Identifier: 
                keyid:12:CD:60:04:D2:A0:80:9E:70:ED:C6:99:B8:7B:2C:C6:52:FD:19:A1
                DirName:/C=US/ST=OH/L=Columbus/O=VikingVPN/OU=MyOrganizationalUnit/CN=VikingVPN CA/name=EasyRSA/emailAddress=me@myhost.mydomain
                serial:CF:35:85:EE:80:BF:2A:3E

            X509v3 Extended Key Usage: 
                TLS Web Client Authentication
            X509v3 Key Usage: 
                Digital Signature
    Signature Algorithm: md5WithRSAEncryption
         94:96:49:01:4a:8b:a6:56:db:50:b0:db:e1:6e:df:91:c8:52:
         7f:05:61:3f:34:b0:e3:3b:06:ab:19:b4:47:d2:10:c0:6a:06:
         8f:52:55:66:bb:e4:52:6a:58:98:b7:aa:5f:5e:94:16:dd:95:
         f8:d4:02:cf:44:72:e7:95:20:bd:22:e6:44:e1:2b:92:ad:0b:
         6b:c4:e4:bf:f5:dd:bc:97:a5:12:c1:01:6d:85:d1:a6:6e:4f:
         c9:21:4b:52:a6:48:2c:f4:1b:e1:0a:94:41:00:51:67:11:75:
         64:1c:bd:83:f4:bb:99:e2:99:14:50:21:51:14:57:1e:d1:db:
         09:18:c5:ef:3e:da:03:1f:cc:cc:8a:7c:14:09:3e:f1:ff:05:
         08:cc:a5:dc:ba:26:73:6f:e7:82:50:74:91:c9:d0:8d:1b:f5:
         50:3a:6d:49:15:fa:eb:cb:d0:6e:47:ba:97:2a:96:c2:49:46:
         10:f4:51:c3:a7:ff:77:d5:27:82:a0:d2:97:18:be:2a:e6:18:
         2c:df:f1:e9:37:3d:94:fc:be:a4:f5:31:00:fc:89:66:b7:a0:
         56:66:d3:42:06:04:c6:06:07:5c:df:80:ac:b8:89:10:97:f0:
         b6:be:b6:16:5a:42:f2:ff:3f:5a:90:c9:c7:6d:b7:9d:31:d1:
         f6:a5:04:db:b5:c3:61:3a:91:ae:db:de:d0:3b:6d:44:80:68:
         a7:a1:f9:ab:28:34:ad:be:72:71:0a:4c:c5:36:fc:be:8f:6f:
         cd:21:4e:d8:8d:0c:de:d5:72:4e:72:f3:df:73:56:27:8e:4e:
         9c:49:a7:09:37:e8:e4:dd:a0:69:15:c1:d2:c1:7b:cd:d1:61:
         66:00:ca:61:d3:88:36:70:1f:39:33:51:7a:3f:21:fd:40:8d:
         f5:a0:cb:e9:4b:93:29:e8:93:d8:50:72:7c:f5:a9:e5:6f:df:
         7e:99:34:81:97:b0:81:1f:20:1e:5a:c0:6d:0c:42:ab:9a:94:
         68:81:27:0c:9e:27:7c:f0:ec:8b:15:04:9c:98:9b:e3:ac:14:
         f9:ab:35:4d:fc:8d:07:6f:ba:ef:30:ea:72:ea:17:4f:fb:59:
         76:ba:3d:ae:40:db:20:8c:3c:f4:fa:26:a5:02:1d:b9:1d:ad:
         f7:57:bb:dd:aa:22:3d:43:1e:9b:49:85:ae:ab:3e:1d:e2:f4:
         d0:ce:4b:0c:2d:3e:b1:a9:b5:79:39:69:05:c7:20:7a:bc:b1:
         0f:fc:1a:16:5a:97:c2:0e:66:de:65:5d:90:d7:2b:89:c1:2f:
         11:3d:fe:51:e4:a0:95:d9:09:b4:63:2b:7c:00:f2:51:0e:c7:
         c8:38:51:26:30:07:53:d5
-----BEGIN CERTIFICATE-----
MIIGrTCCBJWgAwIBAgICG5QwDQYJKoZIhvcNAQEEBQAwgawxCzAJBgNVBAYTAlVT
MQswCQYDVQQIEwJPSDERMA8GA1UEBxMIQ29sdW1idXMxEjAQBgNVBAoTCVZpa2lu
Z1ZQTjEdMBsGA1UECxMUTXlPcmdhbml6YXRpb25hbFVuaXQxFTATBgNVBAMTDFZp
a2luZ1ZQTiBDQTEQMA4GA1UEKRMHRWFzeVJTQTEhMB8GCSqGSIb3DQEJARYSbWVA
bXlob3N0Lm15ZG9tYWluMB4XDTE2MDExOTIzMTc1N1oXDTI2MDExNjIzMTc1N1ow
HzEdMBsGA1UEAxMUQ2xpZW50MjE0NUNlcnQzYmRlNjgwggIiMA0GCSqGSIb3DQEB
AQUAA4ICDwAwggIKAoICAQC5UKzT1svJfdSX/bAVhvutMiMyj5UtKp9ex6Ga2+98
2I0e6XZVRccG2/G2pvrZRo9uzSCQ0IXhLKdeFblJq9MLBFty9tmrzzFarG+0ddjf
q2RNW3F7VaO+s7d601FKykSzoHzrq09ckztJcAd4UjhIiDm7zGcn1k/9yJUslvj8
fyIu62s1qzN8cD9n5+I2g+fNXdqI2Hxc9yelH8A46d1JIS37UOuVqna+8IgjXJMw
7owkFUjaL2fGLAjzF2qcRV3YUp2S5mcENijT06LI1ByhmqDbw6+fCgWntTtZLFF7
h9QSrEg8tR93Gq9Jr3aYWRnevbSFiYN1rbIkCpi0uYiSxDvcp/tKr++bSuq9OxGs
U8LLXJe1ufB5tYG+KvnLSeTayzqtKrzdEqdpBT3/Chyvt7X4mDPnqjCXQLf4Ak8Y
bkd6mnHxu5xnzKVMfPCIizJZqf99nx/Bd+gflACMPXtOF1unmX/EwXy17d47ja8x
hCyLBvp+coLwW1xTfYkRZXDpepsRiEZfqMTG6fQkj7B9GfkbR490pppKhNgi5AB1
cZ4HRv4g8TlEzBkVt8cOC4Gs6K8qqcDizGpIteDt+YpqLWU4yW+pyhbK2gVaHRUa
qfI6nC1obFgernP0TPHYTkIvSePctuxYa9uy7e/iPz6NCt2epakf2x6IBXmh4pxZ
sQIDAQABo4IBYzCCAV8wCQYDVR0TBAIwADAtBglghkgBhvhCAQ0EIBYeRWFzeS1S
U0EgR2VuZXJhdGVkIENlcnRpZmljYXRlMB0GA1UdDgQWBBTkdrlGxvbcvfuYf1Ed
+VH+eKv6NzCB4QYDVR0jBIHZMIHWgBQSzWAE0qCAnnDtxpm4eyzGUv0ZoaGBsqSB
rzCBrDELMAkGA1UEBhMCVVMxCzAJBgNVBAgTAk9IMREwDwYDVQQHEwhDb2x1bWJ1
czESMBAGA1UEChMJVmlraW5nVlBOMR0wGwYDVQQLExRNeU9yZ2FuaXphdGlvbmFs
VW5pdDEVMBMGA1UEAxMMVmlraW5nVlBOIENBMRAwDgYDVQQpEwdFYXN5UlNBMSEw
HwYJKoZIhvcNAQkBFhJtZUBteWhvc3QubXlkb21haW6CCQDPNYXugL8qPjATBgNV
HSUEDDAKBggrBgEFBQcDAjALBgNVHQ8EBAMCB4AwDQYJKoZIhvcNAQEEBQADggIB
AJSWSQFKi6ZW21Cw2+Fu35HIUn8FYT80sOM7BqsZtEfSEMBqBo9SVWa75FJqWJi3
ql9elBbdlfjUAs9EcueVIL0i5kThK5KtC2vE5L/13byXpRLBAW2F0aZuT8khS1Km
SCz0G+EKlEEAUWcRdWQcvYP0u5nimRRQIVEUVx7R2wkYxe8+2gMfzMyKfBQJPvH/
BQjMpdy6JnNv54JQdJHJ0I0b9VA6bUkV+uvL0G5HupcqlsJJRhD0UcOn/3fVJ4Kg
0pcYvirmGCzf8ek3PZT8vqT1MQD8iWa3oFZm00IGBMYGB1zfgKy4iRCX8La+thZa
QvL/P1qQycdtt50x0falBNu1w2E6ka7b3tA7bUSAaKeh+asoNK2+cnEKTMU2/L6P
b80hTtiNDN7Vck5y899zVieOTpxJpwk36OTdoGkVwdLBe83RYWYAymHTiDZwHzkz
UXo/If1AjfWgy+lLkynok9hQcnz1qeVv336ZNIGXsIEfIB5awG0MQqualGiBJwye
J3zw7IsVBJyYm+OsFPmrNU38jQdvuu8w6nLqF0/7WXa6Pa5A2yCMPPT6JqUCHbkd
rfdXu92qIj1DHptJha6rPh3i9NDOSwwtPrGptXk5aQXHIHq8sQ/8GhZal8IOZt5l
XZDXK4nBLxE9/lHkoJXZCbRjK3wA8lEOx8g4USYwB1PV
-----END CERTIFICATE-----
