Certificate:
    Data:
        Version: 3 (0x2)
        Serial Number: 8497 (0x2131)
    Signature Algorithm: sha256WithRSAEncryption
        Issuer: C=US, ST=OH, L=Columbus, O=VikingVPN, OU=MyOrganizationalUnit, CN=VikingVPN CA/name=EasyRSA/emailAddress=me@myhost.mydomain
        Validity
            Not Before: Jul 16 07:50:40 2016 GMT
            Not After : Jul 14 07:50:40 2026 GMT
        Subject: CN=Client2Cert9da7cc
        Subject Public Key Info:
            Public Key Algorithm: rsaEncryption
                Public-Key: (4096 bit)
                Modulus:
                    00:cf:48:d2:99:bb:dd:fb:5d:a7:3f:84:03:1b:7a:
                    cc:85:4e:15:e7:66:fa:eb:16:59:ea:2a:65:5b:99:
                    88:76:6e:49:9d:fb:e2:dc:f6:59:14:60:e1:35:ea:
                    d6:99:e5:da:27:3d:b2:8a:e0:78:db:bb:64:8f:1e:
                    45:59:b4:22:16:4a:eb:4a:77:2c:ca:19:7e:b8:77:
                    7e:0b:a7:8f:96:05:e7:a5:33:57:95:a3:90:a5:2e:
                    a1:46:cc:91:3e:cc:75:7d:46:00:f3:50:d9:eb:de:
                    d8:97:a4:2d:4e:bf:6a:e6:ae:91:75:af:7c:9c:59:
                    b3:6e:07:97:99:b5:bd:68:5d:01:2e:d3:a9:1e:42:
                    14:cc:85:a0:20:c3:52:ab:14:ac:a5:cd:31:2a:eb:
                    f1:f4:62:2d:0e:dc:09:88:b7:06:6a:fd:fd:3b:09:
                    74:14:ad:06:e8:29:11:25:45:47:7d:d8:8d:32:c2:
                    68:c7:7a:c8:57:6a:1c:64:98:b8:53:b2:a2:f5:42:
                    19:68:2e:10:2f:74:ac:d3:b8:0c:b3:54:d5:46:80:
                    d6:3d:f7:ed:fd:30:14:dd:21:cc:8b:5e:11:5e:dc:
                    01:59:8c:bf:f0:a0:e5:b7:90:84:c0:f8:54:82:ab:
                    e1:83:b4:44:e7:0f:09:f2:2a:4b:be:e9:f8:23:54:
                    ed:7b:ce:bb:4f:42:14:3e:87:e3:57:43:d4:ef:34:
                    cb:1d:81:7d:f3:07:43:a5:aa:88:8f:84:49:61:0d:
                    97:32:7f:5c:ca:6c:81:8e:3e:53:68:a2:7f:f2:64:
                    cc:dd:d7:b7:09:15:be:c9:09:c1:2b:68:cb:97:54:
                    a1:c8:68:37:cb:27:ed:09:e0:9d:09:1c:29:28:11:
                    b0:bf:04:d7:be:b9:b1:74:03:17:d7:e6:63:cf:ed:
                    1d:d4:f6:7d:b1:2d:28:3d:3a:92:1e:db:c3:90:ed:
                    fc:e4:d3:f5:5e:2c:f5:bd:09:1b:19:d5:59:d3:c7:
                    1b:bb:fa:c7:2c:6a:11:30:49:47:72:a8:a0:40:ed:
                    ea:48:c7:32:e0:cf:c0:98:96:cd:62:57:d1:c8:75:
                    e4:70:0c:8b:ea:be:cf:9c:3a:e2:6b:0a:1d:3f:77:
                    eb:88:dd:50:4a:83:ef:26:f0:44:58:ed:ab:34:b2:
                    c6:67:81:53:c6:fc:ac:94:f7:9c:93:37:9f:41:be:
                    7f:81:93:7a:f2:22:ed:7f:c9:b3:c9:3b:51:37:70:
                    c9:ef:7f:c0:a9:fd:8d:5b:7b:3a:d9:64:c0:03:0d:
                    4f:a1:f6:92:37:cf:54:12:2e:ef:8f:73:f6:27:3c:
                    8a:47:fd:64:31:8b:93:eb:b5:6d:1f:74:33:a0:7f:
                    0e:6b:9f
                Exponent: 65537 (0x10001)
        X509v3 extensions:
            X509v3 Basic Constraints: 
                CA:FALSE
            Netscape Comment: 
                Easy-RSA Generated Certificate
            X509v3 Subject Key Identifier: 
                77:94:37:42:6D:93:E3:6D:86:C3:D6:D7:21:4A:BB:C4:5F:71:92:CA
            X509v3 Authority Key Identifier: 
                keyid:12:CD:60:04:D2:A0:80:9E:70:ED:C6:99:B8:7B:2C:C6:52:FD:19:A1
                DirName:/C=US/ST=OH/L=Columbus/O=VikingVPN/OU=MyOrganizationalUnit/CN=VikingVPN CA/name=EasyRSA/emailAddress=me@myhost.mydomain
                serial:CF:35:85:EE:80:BF:2A:3E

            X509v3 Extended Key Usage: 
                TLS Web Client Authentication
            X509v3 Key Usage: 
                Digital Signature
    Signature Algorithm: sha256WithRSAEncryption
         d2:25:9d:5f:5e:b3:42:78:21:b3:01:b1:08:65:0f:98:ef:0a:
         a8:4e:3e:84:a4:ac:cc:84:10:11:88:0c:11:92:f2:cf:70:6e:
         a7:f8:5a:eb:7d:59:64:dd:dc:80:f5:86:eb:d9:e2:c9:2f:9d:
         47:93:98:d8:f2:3e:ee:15:a6:58:68:a5:40:a9:44:b2:12:31:
         f0:54:76:41:3f:01:6a:54:0f:24:ed:74:55:88:6b:59:39:88:
         ed:2d:1d:ef:92:6a:dc:57:d8:2d:ff:af:99:cb:08:b8:ce:86:
         0b:47:75:dd:2f:ff:0a:6c:90:7d:3f:9c:bd:4c:7e:18:a6:35:
         5a:d4:af:34:06:74:cc:14:7f:17:fb:76:4d:ba:ec:19:d7:de:
         82:cb:09:95:06:ef:a1:d8:a8:87:8e:eb:22:f2:e2:50:0f:e2:
         46:14:61:3d:40:49:a1:a5:d9:62:20:a2:0c:55:b3:0e:8b:fe:
         1c:e0:8c:1b:58:13:97:7a:fd:00:28:c5:2c:b0:6a:1c:25:6d:
         b0:0e:62:6d:3f:8c:74:99:4f:59:8e:a6:80:32:aa:21:9d:b9:
         f1:ae:2e:67:2d:84:97:1f:58:df:50:6b:1c:a2:1d:68:97:30:
         27:32:4c:eb:bb:5a:6d:fa:ed:34:f2:9d:c1:43:66:32:3f:73:
         eb:85:d5:a1:b5:79:2d:c0:c6:d6:79:01:c9:a9:43:d8:40:33:
         aa:a9:bc:16:e9:01:e2:63:32:b2:57:1d:f4:ea:7c:33:9d:2f:
         34:37:e4:4d:b7:6d:6b:89:b4:a4:7d:60:8f:8c:4e:4a:13:fe:
         e3:0d:c3:ee:9f:33:96:ea:0c:13:de:c4:0f:94:c1:bf:da:f1:
         3b:ee:37:6f:49:3c:dc:d1:ee:aa:a3:c0:ba:aa:fb:9e:41:ad:
         5b:20:81:25:27:bc:7f:69:d0:04:67:bd:6a:4b:a3:98:53:c1:
         ac:a4:7a:fa:4f:95:31:e7:a2:63:5b:3a:58:2e:9c:aa:4e:a9:
         e5:b6:a7:b9:19:47:c8:b2:3d:b0:6f:e1:18:9e:ec:2c:45:cf:
         ad:1e:20:8f:90:35:67:16:06:04:ce:1e:0c:eb:ce:95:fc:84:
         55:c2:77:0f:74:c9:b6:74:51:5e:25:6c:07:be:d8:44:2c:d8:
         5d:bd:b7:5f:d5:36:bb:6e:6b:a7:dd:6d:4d:97:26:85:ea:1c:
         7e:70:e9:d7:de:ab:3b:cb:da:8b:57:cd:bb:55:97:b3:29:9b:
         cd:f4:23:92:9a:7c:b3:b8:e8:56:77:d2:ca:bb:17:46:e6:e9:
         d4:33:ed:0a:61:82:35:bb:7c:41:90:5f:5a:1d:c5:90:2e:99:
         81:98:6c:6b:ab:7b:f2:d6
-----BEGIN CERTIFICATE-----
MIIGqjCCBJKgAwIBAgICITEwDQYJKoZIhvcNAQELBQAwgawxCzAJBgNVBAYTAlVT
MQswCQYDVQQIEwJPSDERMA8GA1UEBxMIQ29sdW1idXMxEjAQBgNVBAoTCVZpa2lu
Z1ZQTjEdMBsGA1UECxMUTXlPcmdhbml6YXRpb25hbFVuaXQxFTATBgNVBAMTDFZp
a2luZ1ZQTiBDQTEQMA4GA1UEKRMHRWFzeVJTQTEhMB8GCSqGSIb3DQEJARYSbWVA
bXlob3N0Lm15ZG9tYWluMB4XDTE2MDcxNjA3NTA0MFoXDTI2MDcxNDA3NTA0MFow
HDEaMBgGA1UEAxMRQ2xpZW50MkNlcnQ5ZGE3Y2MwggIiMA0GCSqGSIb3DQEBAQUA
A4ICDwAwggIKAoICAQDPSNKZu937Xac/hAMbesyFThXnZvrrFlnqKmVbmYh2bkmd
++Lc9lkUYOE16taZ5donPbKK4Hjbu2SPHkVZtCIWSutKdyzKGX64d34Lp4+WBeel
M1eVo5ClLqFGzJE+zHV9RgDzUNnr3tiXpC1Ov2rmrpF1r3ycWbNuB5eZtb1oXQEu
06keQhTMhaAgw1KrFKylzTEq6/H0Yi0O3AmItwZq/f07CXQUrQboKRElRUd92I0y
wmjHeshXahxkmLhTsqL1QhloLhAvdKzTuAyzVNVGgNY99+39MBTdIcyLXhFe3AFZ
jL/woOW3kITA+FSCq+GDtETnDwnyKku+6fgjVO17zrtPQhQ+h+NXQ9TvNMsdgX3z
B0OlqoiPhElhDZcyf1zKbIGOPlNoon/yZMzd17cJFb7JCcEraMuXVKHIaDfLJ+0J
4J0JHCkoEbC/BNe+ubF0AxfX5mPP7R3U9n2xLSg9OpIe28OQ7fzk0/VeLPW9CRsZ
1VnTxxu7+scsahEwSUdyqKBA7epIxzLgz8CYls1iV9HIdeRwDIvqvs+cOuJrCh0/
d+uI3VBKg+8m8ERY7as0ssZngVPG/KyU95yTN59Bvn+Bk3ryIu1/ybPJO1E3cMnv
f8Cp/Y1bezrZZMADDU+h9pI3z1QSLu+Pc/YnPIpH/WQxi5PrtW0fdDOgfw5rnwID
AQABo4IBYzCCAV8wCQYDVR0TBAIwADAtBglghkgBhvhCAQ0EIBYeRWFzeS1SU0Eg
R2VuZXJhdGVkIENlcnRpZmljYXRlMB0GA1UdDgQWBBR3lDdCbZPjbYbD1tchSrvE
X3GSyjCB4QYDVR0jBIHZMIHWgBQSzWAE0qCAnnDtxpm4eyzGUv0ZoaGBsqSBrzCB
rDELMAkGA1UEBhMCVVMxCzAJBgNVBAgTAk9IMREwDwYDVQQHEwhDb2x1bWJ1czES
MBAGA1UEChMJVmlraW5nVlBOMR0wGwYDVQQLExRNeU9yZ2FuaXphdGlvbmFsVW5p
dDEVMBMGA1UEAxMMVmlraW5nVlBOIENBMRAwDgYDVQQpEwdFYXN5UlNBMSEwHwYJ
KoZIhvcNAQkBFhJtZUBteWhvc3QubXlkb21haW6CCQDPNYXugL8qPjATBgNVHSUE
DDAKBggrBgEFBQcDAjALBgNVHQ8EBAMCB4AwDQYJKoZIhvcNAQELBQADggIBANIl
nV9es0J4IbMBsQhlD5jvCqhOPoSkrMyEEBGIDBGS8s9wbqf4Wut9WWTd3ID1huvZ
4skvnUeTmNjyPu4VplhopUCpRLISMfBUdkE/AWpUDyTtdFWIa1k5iO0tHe+SatxX
2C3/r5nLCLjOhgtHdd0v/wpskH0/nL1MfhimNVrUrzQGdMwUfxf7dk267BnX3oLL
CZUG76HYqIeO6yLy4lAP4kYUYT1ASaGl2WIgogxVsw6L/hzgjBtYE5d6/QAoxSyw
ahwlbbAOYm0/jHSZT1mOpoAyqiGdufGuLmcthJcfWN9QaxyiHWiXMCcyTOu7Wm36
7TTyncFDZjI/c+uF1aG1eS3AxtZ5AcmpQ9hAM6qpvBbpAeJjMrJXHfTqfDOdLzQ3
5E23bWuJtKR9YI+MTkoT/uMNw+6fM5bqDBPexA+Uwb/a8TvuN29JPNzR7qqjwLqq
+55BrVsggSUnvH9p0ARnvWpLo5hTwaykevpPlTHnomNbOlgunKpOqeW2p7kZR8iy
PbBv4Rie7CxFz60eII+QNWcWBgTOHgzrzpX8hFXCdw90ybZ0UV4lbAe+2EQs2F29
t1/VNrtua6fdbU2XJoXqHH5w6dfeqzvL2otXzbtVl7Mpm830I5KafLO46FZ30sq7
F0bm6dQz7QphgjW7fEGQX1odxZAumYGYbGure/LW
-----END CERTIFICATE-----
