Certificate:
    Data:
        Version: 3 (0x2)
        Serial Number: 6315 (0x18ab)
    Signature Algorithm: md5WithRSAEncryption
        Issuer: C=US, ST=OH, L=Columbus, O=VikingVPN, OU=MyOrganizationalUnit, CN=VikingVPN CA/name=EasyRSA/emailAddress=me@myhost.mydomain
        Validity
            Not Before: Sep 20 03:10:51 2015 GMT
            Not After : Sep 17 03:10:51 2025 GMT
        Subject: CN=Client1Certca310d
        Subject Public Key Info:
            Public Key Algorithm: rsaEncryption
                Public-Key: (4096 bit)
                Modulus:
                    00:ee:90:78:1b:b4:3d:e4:d5:78:2d:4d:1b:b9:bb:
                    c7:6a:aa:dd:e3:93:5c:a4:c8:8b:20:51:0b:ca:ac:
                    67:b4:09:18:2c:dc:47:44:80:e4:11:f1:2a:b3:d4:
                    d8:32:41:17:85:63:95:62:a0:90:b7:e6:a6:be:a8:
                    85:c5:10:b9:fd:e0:3d:fe:90:06:1c:db:f1:1e:40:
                    2f:a1:40:03:57:c1:af:22:aa:92:e5:d8:a0:01:52:
                    79:ac:1f:d7:14:69:08:35:aa:c0:24:12:7a:35:cf:
                    5a:f5:a0:1f:58:de:36:80:4a:a2:36:78:64:57:d7:
                    85:66:7b:21:78:d7:f0:d0:48:63:fb:21:5e:f8:71:
                    d0:5a:ca:72:3e:a1:b6:be:20:64:07:5c:50:22:78:
                    81:cc:45:34:64:15:54:bf:6c:c4:1c:90:67:73:41:
                    ba:43:48:bb:e8:db:31:80:51:fe:49:a3:22:3a:1e:
                    29:cc:6e:6c:76:88:a6:7e:8c:8c:48:99:16:d2:50:
                    92:0c:b2:65:e2:a0:65:0b:e2:96:9f:a0:c1:78:21:
                    d9:52:2e:dd:91:77:dc:81:20:c3:3a:c1:e9:86:19:
                    97:db:da:ca:89:99:3a:1a:6b:95:6d:c8:f9:ed:64:
                    db:8f:dd:ec:46:d8:ad:21:9c:72:78:94:23:66:4a:
                    53:0c:1a:58:a9:e1:df:ed:77:af:01:02:48:9d:e9:
                    83:e5:06:73:cc:c9:c1:34:e4:c6:c8:4f:fe:c5:19:
                    bb:2a:37:cb:da:dd:79:27:f5:50:b4:f2:e3:18:5f:
                    92:21:fe:27:a6:c7:0f:ea:f0:50:50:fd:7f:ac:7d:
                    88:f5:b1:21:af:55:ed:e7:93:2c:d5:08:51:99:e2:
                    32:ba:56:30:97:be:10:f7:c6:c4:f9:60:3a:bf:72:
                    3e:32:10:e6:d7:29:dd:d9:4d:84:ba:6e:34:8a:b8:
                    74:0a:5d:ca:91:c0:b7:42:99:58:fb:56:32:0e:18:
                    e4:91:05:6d:9e:d2:72:3c:56:23:94:72:4c:e6:ed:
                    15:07:ed:1c:89:c8:7f:c4:f7:26:c7:13:d3:2c:fe:
                    2b:3e:8c:48:02:ed:a5:f1:b5:17:85:ba:3c:ba:99:
                    70:66:77:50:a0:81:71:a5:24:63:e9:08:47:24:e7:
                    cc:9f:a9:ef:ac:ce:29:2e:8a:80:c2:2c:65:04:57:
                    94:dd:04:81:24:25:7e:3b:63:9a:c5:96:92:e4:de:
                    6a:d9:1c:42:54:6e:39:6f:0f:b2:3a:0d:96:f6:08:
                    fc:c4:be:2a:81:10:cf:3c:21:ae:5c:4a:3c:e0:dd:
                    98:38:90:4c:d6:fc:63:b8:4b:4a:29:12:39:76:fb:
                    50:6c:9b
                Exponent: 65537 (0x10001)
        X509v3 extensions:
            X509v3 Basic Constraints: 
                CA:FALSE
            Netscape Comment: 
                Easy-RSA Generated Certificate
            X509v3 Subject Key Identifier: 
                8D:78:5A:30:60:27:9F:2A:C4:07:3B:B3:59:48:4D:57:75:14:68:DC
            X509v3 Authority Key Identifier: 
                keyid:12:CD:60:04:D2:A0:80:9E:70:ED:C6:99:B8:7B:2C:C6:52:FD:19:A1
                DirName:/C=US/ST=OH/L=Columbus/O=VikingVPN/OU=MyOrganizationalUnit/CN=VikingVPN CA/name=EasyRSA/emailAddress=me@myhost.mydomain
                serial:CF:35:85:EE:80:BF:2A:3E

            X509v3 Extended Key Usage: 
                TLS Web Client Authentication
            X509v3 Key Usage: 
                Digital Signature
    Signature Algorithm: md5WithRSAEncryption
         ad:1c:b0:1c:b8:54:0b:d6:fc:40:fb:d4:c4:99:aa:d1:1f:56:
         03:11:99:80:4c:88:07:49:f6:12:23:87:ef:8d:70:84:41:79:
         3a:b9:25:4a:28:a1:d6:6d:cd:b1:12:d5:82:70:3f:96:40:d5:
         c0:f4:14:a2:51:7d:23:28:18:c3:01:7d:04:3a:58:f6:4a:0b:
         4b:23:6d:80:f8:30:8d:1f:de:03:eb:7b:16:af:73:49:41:3f:
         93:83:07:b5:c6:42:9e:fc:e8:9a:f6:73:7d:7d:bd:fb:be:50:
         24:c3:f4:8f:61:e8:83:78:00:ac:07:e4:ed:ac:05:ac:f8:18:
         d1:15:a9:50:dd:4a:97:f6:9b:0d:ec:ef:38:25:f0:4a:fb:5d:
         e9:28:bd:e0:07:0c:6a:85:4d:3c:5f:ef:cc:ba:0a:c0:25:75:
         48:d9:5c:cb:50:eb:35:2d:5b:47:39:5e:c9:f6:eb:20:49:33:
         78:7a:bc:03:05:fe:1c:73:85:80:7e:38:70:b3:45:94:17:dd:
         a5:d4:13:b1:5f:24:51:fa:46:9e:b3:f0:a7:05:54:bd:a8:72:
         2e:03:2c:9b:df:36:5e:74:8b:e9:3d:4e:79:c9:60:7a:c7:6e:
         c1:9d:6b:b4:d8:c0:ae:3f:b2:a7:c9:04:77:ae:8b:3d:f1:1e:
         0f:ce:ed:ec:b8:15:a4:8c:fc:7c:bd:b2:86:50:ac:7e:b9:a3:
         dd:c6:a8:e9:6f:92:b2:e4:02:0c:43:71:ff:6e:bd:d2:d9:eb:
         b9:8f:29:c2:c3:22:0c:e0:29:4c:93:93:a8:1e:4b:f6:f3:68:
         30:69:c9:4a:bc:fc:97:4e:68:2a:62:98:bb:fe:6f:9f:84:66:
         2f:cb:94:72:09:f8:87:b5:5a:b4:b1:8c:85:6d:92:09:e1:41:
         48:bc:41:c7:96:2e:58:f8:53:33:b7:f1:5e:5d:77:c5:c2:89:
         50:78:86:84:60:2f:5b:04:3f:b4:1a:6e:58:34:9a:49:fe:cc:
         9a:af:55:bc:50:cc:82:e1:12:02:f2:93:b2:01:2f:ef:b7:4a:
         04:69:44:a2:78:67:67:3a:38:dc:46:5d:9d:f8:48:b9:37:78:
         c0:5c:93:91:2c:db:ac:58:be:cd:40:c8:9d:5b:e9:9b:54:b6:
         06:a8:92:87:c8:87:10:4f:72:0e:2b:1c:31:a8:55:3f:f3:ec:
         8a:df:5d:e2:77:57:8d:3a:7b:73:97:58:e7:a8:f2:3c:81:07:
         da:58:34:da:9a:d0:05:21:b0:3b:f0:03:bb:2f:57:f1:06:34:
         90:ae:c3:23:f5:01:21:ae:11:d7:6c:1a:02:19:cd:30:91:e3:
         85:bb:0a:96:90:36:92:14
-----BEGIN CERTIFICATE-----
MIIGqjCCBJKgAwIBAgICGKswDQYJKoZIhvcNAQEEBQAwgawxCzAJBgNVBAYTAlVT
MQswCQYDVQQIEwJPSDERMA8GA1UEBxMIQ29sdW1idXMxEjAQBgNVBAoTCVZpa2lu
Z1ZQTjEdMBsGA1UECxMUTXlPcmdhbml6YXRpb25hbFVuaXQxFTATBgNVBAMTDFZp
a2luZ1ZQTiBDQTEQMA4GA1UEKRMHRWFzeVJTQTEhMB8GCSqGSIb3DQEJARYSbWVA
bXlob3N0Lm15ZG9tYWluMB4XDTE1MDkyMDAzMTA1MVoXDTI1MDkxNzAzMTA1MVow
HDEaMBgGA1UEAxMRQ2xpZW50MUNlcnRjYTMxMGQwggIiMA0GCSqGSIb3DQEBAQUA
A4ICDwAwggIKAoICAQDukHgbtD3k1XgtTRu5u8dqqt3jk1ykyIsgUQvKrGe0CRgs
3EdEgOQR8Sqz1NgyQReFY5VioJC35qa+qIXFELn94D3+kAYc2/EeQC+hQANXwa8i
qpLl2KABUnmsH9cUaQg1qsAkEno1z1r1oB9Y3jaASqI2eGRX14VmeyF41/DQSGP7
IV74cdBaynI+oba+IGQHXFAieIHMRTRkFVS/bMQckGdzQbpDSLvo2zGAUf5JoyI6
HinMbmx2iKZ+jIxImRbSUJIMsmXioGUL4pafoMF4IdlSLt2Rd9yBIMM6wemGGZfb
2sqJmToaa5VtyPntZNuP3exG2K0hnHJ4lCNmSlMMGlip4d/td68BAkid6YPlBnPM
ycE05MbIT/7FGbsqN8va3Xkn9VC08uMYX5Ih/iemxw/q8FBQ/X+sfYj1sSGvVe3n
kyzVCFGZ4jK6VjCXvhD3xsT5YDq/cj4yEObXKd3ZTYS6bjSKuHQKXcqRwLdCmVj7
VjIOGOSRBW2e0nI8ViOUckzm7RUH7RyJyH/E9ybHE9Ms/is+jEgC7aXxtReFujy6
mXBmd1CggXGlJGPpCEck58yfqe+szikuioDCLGUEV5TdBIEkJX47Y5rFlpLk3mrZ
HEJUbjlvD7I6DZb2CPzEviqBEM88Ia5cSjzg3Zg4kEzW/GO4S0opEjl2+1BsmwID
AQABo4IBYzCCAV8wCQYDVR0TBAIwADAtBglghkgBhvhCAQ0EIBYeRWFzeS1SU0Eg
R2VuZXJhdGVkIENlcnRpZmljYXRlMB0GA1UdDgQWBBSNeFowYCefKsQHO7NZSE1X
dRRo3DCB4QYDVR0jBIHZMIHWgBQSzWAE0qCAnnDtxpm4eyzGUv0ZoaGBsqSBrzCB
rDELMAkGA1UEBhMCVVMxCzAJBgNVBAgTAk9IMREwDwYDVQQHEwhDb2x1bWJ1czES
MBAGA1UEChMJVmlraW5nVlBOMR0wGwYDVQQLExRNeU9yZ2FuaXphdGlvbmFsVW5p
dDEVMBMGA1UEAxMMVmlraW5nVlBOIENBMRAwDgYDVQQpEwdFYXN5UlNBMSEwHwYJ
KoZIhvcNAQkBFhJtZUBteWhvc3QubXlkb21haW6CCQDPNYXugL8qPjATBgNVHSUE
DDAKBggrBgEFBQcDAjALBgNVHQ8EBAMCB4AwDQYJKoZIhvcNAQEEBQADggIBAK0c
sBy4VAvW/ED71MSZqtEfVgMRmYBMiAdJ9hIjh++NcIRBeTq5JUooodZtzbES1YJw
P5ZA1cD0FKJRfSMoGMMBfQQ6WPZKC0sjbYD4MI0f3gPrexavc0lBP5ODB7XGQp78
6Jr2c319vfu+UCTD9I9h6IN4AKwH5O2sBaz4GNEVqVDdSpf2mw3s7zgl8Er7Xeko
veAHDGqFTTxf78y6CsAldUjZXMtQ6zUtW0c5Xsn26yBJM3h6vAMF/hxzhYB+OHCz
RZQX3aXUE7FfJFH6Rp6z8KcFVL2oci4DLJvfNl50i+k9TnnJYHrHbsGda7TYwK4/
sqfJBHeuiz3xHg/O7ey4FaSM/Hy9soZQrH65o93GqOlvkrLkAgxDcf9uvdLZ67mP
KcLDIgzgKUyTk6geS/bzaDBpyUq8/JdOaCpimLv+b5+EZi/LlHIJ+Ie1WrSxjIVt
kgnhQUi8QceWLlj4UzO38V5dd8XCiVB4hoRgL1sEP7Qablg0mkn+zJqvVbxQzILh
EgLyk7IBL++3SgRpRKJ4Z2c6ONxGXZ34SLk3eMBck5Es26xYvs1AyJ1b6ZtUtgao
kofIhxBPcg4rHDGoVT/z7IrfXeJ3V406e3OXWOeo8jyBB9pYNNqa0AUhsDvwA7sv
V/EGNJCuwyP1ASGuEddsGgIZzTCR44W7CpaQNpIU
-----END CERTIFICATE-----
