Certificate:
    Data:
        Version: 3 (0x2)
        Serial Number: 10601 (0x2969)
    Signature Algorithm: sha256WithRSAEncryption
        Issuer: C=US, ST=OH, L=Columbus, O=VikingVPN, OU=MyOrganizationalUnit, CN=VikingVPN CA/name=EasyRSA/emailAddress=me@myhost.mydomain
        Validity
            Not Before: Apr  8 17:30:20 2017 GMT
            Not After : Apr  6 17:30:20 2027 GMT
        Subject: CN=Client2854Cert9437f4
        Subject Public Key Info:
            Public Key Algorithm: rsaEncryption
                Public-Key: (4096 bit)
                Modulus:
                    00:d6:91:dd:37:42:5b:1a:2c:b4:ec:23:b0:0b:b9:
                    c0:73:26:9c:54:1a:93:95:29:de:af:96:f7:7d:34:
                    3a:ab:7e:d4:7d:24:04:36:6d:12:78:ba:fb:ca:2a:
                    80:76:27:bd:69:b7:09:6a:a2:3e:f2:9c:d1:9d:23:
                    f6:88:d5:ff:40:99:be:57:f2:1c:d0:28:9f:0d:0a:
                    3e:46:88:41:26:0e:85:a6:22:08:3f:0f:5e:7f:e2:
                    c6:4b:75:30:9a:93:e7:4d:8f:fc:e1:f9:8d:02:b4:
                    05:14:43:6c:a8:24:fb:7f:48:46:3a:b9:f8:8e:00:
                    41:69:0b:e6:40:11:d4:c3:13:6d:e2:bc:f1:1f:c8:
                    62:d9:ef:8e:da:7d:a1:85:20:9f:32:fd:ac:77:05:
                    bc:cb:b6:d9:2f:b9:e5:84:ce:95:6e:6b:ab:4e:2c:
                    d5:bb:ed:94:18:ba:95:64:d9:c7:17:82:39:85:04:
                    83:da:bd:8b:81:4f:e5:b2:a2:9e:f3:2e:b9:65:35:
                    6b:5f:5c:7a:a9:a4:7c:d4:bc:e5:10:73:d1:32:d1:
                    85:15:2b:7c:44:a8:1d:a8:a1:ee:d4:93:61:f1:4b:
                    fc:5f:6d:69:97:45:e6:de:2c:d9:29:b5:4b:49:47:
                    48:e9:62:25:a0:ae:d7:51:fe:82:99:bf:66:aa:9d:
                    97:b9:ad:af:75:4e:62:82:72:29:03:b6:99:bd:99:
                    33:e7:f3:d6:7f:db:ed:b2:7c:34:5e:f1:4a:ec:c5:
                    27:a8:46:34:60:7a:33:4f:a5:ce:b2:26:4c:83:9c:
                    5d:f2:1e:92:2d:14:57:90:ef:35:9e:19:db:f3:96:
                    94:13:ab:01:61:87:ae:0e:19:20:c0:f2:0f:69:c4:
                    be:f2:76:10:23:96:c4:34:50:4a:f0:b5:7e:46:77:
                    ab:e8:29:52:14:3d:74:e9:91:19:41:ec:45:4a:19:
                    2a:ed:d1:75:53:5a:14:b6:db:0f:52:01:7c:c6:0e:
                    d5:3d:1c:c0:d8:9b:cd:5b:ec:b4:8d:6d:de:c5:9f:
                    0c:8e:7a:42:43:eb:58:8f:a4:b0:23:f5:92:0e:43:
                    2a:c1:52:65:25:3f:e5:e4:87:ab:24:6a:09:67:80:
                    d8:8b:d4:85:23:13:bf:c6:7e:41:83:0f:3f:fe:75:
                    15:25:ff:75:4b:48:4e:31:59:6a:88:30:63:b2:0c:
                    64:06:38:8d:89:21:2d:bb:b1:db:f5:6b:cc:bc:f2:
                    a4:f5:7d:6d:d0:0b:86:2f:d8:10:f5:43:3b:5e:f1:
                    d4:31:e1:a4:d4:8e:69:4b:e2:9b:c1:5f:79:13:ab:
                    8d:8b:9a:94:34:84:ff:3f:c3:74:ac:f1:32:df:f1:
                    58:11:13
                Exponent: 65537 (0x10001)
        X509v3 extensions:
            X509v3 Basic Constraints: 
                CA:FALSE
            Netscape Comment: 
                Easy-RSA Generated Certificate
            X509v3 Subject Key Identifier: 
                DF:96:7A:39:87:76:8D:D5:3C:D0:80:76:79:4B:34:3F:0B:C5:0D:1A
            X509v3 Authority Key Identifier: 
                keyid:12:CD:60:04:D2:A0:80:9E:70:ED:C6:99:B8:7B:2C:C6:52:FD:19:A1
                DirName:/C=US/ST=OH/L=Columbus/O=VikingVPN/OU=MyOrganizationalUnit/CN=VikingVPN CA/name=EasyRSA/emailAddress=me@myhost.mydomain
                serial:CF:35:85:EE:80:BF:2A:3E

            X509v3 Extended Key Usage: 
                TLS Web Client Authentication
            X509v3 Key Usage: 
                Digital Signature
    Signature Algorithm: sha256WithRSAEncryption
         79:26:4b:2e:5e:be:a5:80:01:6c:53:62:86:38:3d:74:1a:7d:
         af:ab:dc:2f:7f:68:09:fb:80:81:fc:fc:32:95:12:d1:2b:3d:
         8f:56:35:15:89:85:b8:b4:92:b9:3b:84:6e:7e:43:2c:65:6b:
         b7:3c:39:89:9f:48:00:9d:7a:c6:54:55:20:cf:8d:3d:cf:f3:
         2c:44:e0:28:7b:33:f6:ed:b5:42:e6:0f:49:17:3c:5b:40:4e:
         02:a2:ed:79:a3:02:fc:bd:18:3c:40:c7:67:bf:2a:46:42:98:
         82:9c:6f:b1:08:92:83:45:3a:01:2d:62:32:61:4f:4b:3a:5d:
         8d:fd:9c:ff:48:34:64:56:86:60:fe:16:50:73:db:57:63:2d:
         95:c0:70:99:64:3a:ef:60:c2:2d:f8:0d:95:d0:ef:96:27:e7:
         5d:af:e9:4b:37:e1:6b:ce:4c:42:30:1e:68:f8:88:13:4c:5c:
         75:d6:5a:55:22:3d:26:cb:bd:06:5a:d7:6e:33:82:ef:55:15:
         af:74:a5:d4:23:85:4a:46:cf:7b:7b:99:d7:cd:da:6e:c2:0f:
         26:2a:81:0e:0a:21:d7:3e:f9:75:e8:85:98:ec:7b:9b:f9:b9:
         6c:f2:5a:a9:11:f0:2f:18:a1:e1:6e:69:79:0e:6d:29:6f:84:
         83:1e:b3:01:e5:c3:31:32:91:5f:02:d2:5d:05:b2:ba:ae:a7:
         a5:bd:1a:4f:6f:32:12:92:d6:84:90:cb:72:8d:53:a6:e2:2d:
         37:50:2c:78:3c:dc:68:15:c0:2f:92:83:ad:ea:71:01:73:d8:
         f4:cf:56:6e:56:f5:cf:12:80:e9:7e:c0:37:ca:f3:02:7e:4f:
         6e:a5:e1:0b:88:0f:f8:a8:b3:0b:10:d0:6c:b8:d5:c3:13:ed:
         e3:ca:82:e5:4b:9b:e9:1f:d5:e5:29:c3:cb:e1:30:69:3f:3f:
         50:d9:2b:dd:70:d0:f9:62:ae:55:c3:0e:69:9b:6d:53:bd:29:
         6f:5f:cd:6d:76:7f:55:6e:73:e5:34:12:d2:1f:fe:2b:7b:09:
         fa:07:57:60:3e:b9:18:08:ed:25:80:37:78:40:61:3d:e2:b9:
         5f:d2:71:cd:f7:d5:72:b5:2e:fd:70:b7:18:33:52:f6:88:7b:
         5b:08:20:7c:55:81:d7:43:dd:00:ec:0c:af:4e:1a:6e:de:c6:
         61:c0:aa:a6:97:0f:e2:5d:ec:58:8c:88:26:ff:a2:8c:76:e4:
         38:37:c8:1c:b2:00:5c:26:66:20:3d:f7:ce:76:ad:d5:69:1a:
         63:54:fd:d5:c8:07:2f:13:cc:2e:81:8c:57:3f:c5:a5:89:34:
         b1:04:c0:8a:81:33:fb:f3
-----BEGIN CERTIFICATE-----
MIIGrTCCBJWgAwIBAgICKWkwDQYJKoZIhvcNAQELBQAwgawxCzAJBgNVBAYTAlVT
MQswCQYDVQQIEwJPSDERMA8GA1UEBxMIQ29sdW1idXMxEjAQBgNVBAoTCVZpa2lu
Z1ZQTjEdMBsGA1UECxMUTXlPcmdhbml6YXRpb25hbFVuaXQxFTATBgNVBAMTDFZp
a2luZ1ZQTiBDQTEQMA4GA1UEKRMHRWFzeVJTQTEhMB8GCSqGSIb3DQEJARYSbWVA
bXlob3N0Lm15ZG9tYWluMB4XDTE3MDQwODE3MzAyMFoXDTI3MDQwNjE3MzAyMFow
HzEdMBsGA1UEAxMUQ2xpZW50Mjg1NENlcnQ5NDM3ZjQwggIiMA0GCSqGSIb3DQEB
AQUAA4ICDwAwggIKAoICAQDWkd03QlsaLLTsI7ALucBzJpxUGpOVKd6vlvd9NDqr
ftR9JAQ2bRJ4uvvKKoB2J71ptwlqoj7ynNGdI/aI1f9Amb5X8hzQKJ8NCj5GiEEm
DoWmIgg/D15/4sZLdTCak+dNj/zh+Y0CtAUUQ2yoJPt/SEY6ufiOAEFpC+ZAEdTD
E23ivPEfyGLZ747afaGFIJ8y/ax3BbzLttkvueWEzpVua6tOLNW77ZQYupVk2ccX
gjmFBIPavYuBT+Wyop7zLrllNWtfXHqppHzUvOUQc9Ey0YUVK3xEqB2ooe7Uk2Hx
S/xfbWmXRebeLNkptUtJR0jpYiWgrtdR/oKZv2aqnZe5ra91TmKCcikDtpm9mTPn
89Z/2+2yfDRe8UrsxSeoRjRgejNPpc6yJkyDnF3yHpItFFeQ7zWeGdvzlpQTqwFh
h64OGSDA8g9pxL7ydhAjlsQ0UErwtX5Gd6voKVIUPXTpkRlB7EVKGSrt0XVTWhS2
2w9SAXzGDtU9HMDYm81b7LSNbd7FnwyOekJD61iPpLAj9ZIOQyrBUmUlP+Xkh6sk
aglngNiL1IUjE7/GfkGDDz/+dRUl/3VLSE4xWWqIMGOyDGQGOI2JIS27sdv1a8y8
8qT1fW3QC4Yv2BD1Qzte8dQx4aTUjmlL4pvBX3kTq42LmpQ0hP8/w3Ss8TLf8VgR
EwIDAQABo4IBYzCCAV8wCQYDVR0TBAIwADAtBglghkgBhvhCAQ0EIBYeRWFzeS1S
U0EgR2VuZXJhdGVkIENlcnRpZmljYXRlMB0GA1UdDgQWBBTflno5h3aN1TzQgHZ5
SzQ/C8UNGjCB4QYDVR0jBIHZMIHWgBQSzWAE0qCAnnDtxpm4eyzGUv0ZoaGBsqSB
rzCBrDELMAkGA1UEBhMCVVMxCzAJBgNVBAgTAk9IMREwDwYDVQQHEwhDb2x1bWJ1
czESMBAGA1UEChMJVmlraW5nVlBOMR0wGwYDVQQLExRNeU9yZ2FuaXphdGlvbmFs
VW5pdDEVMBMGA1UEAxMMVmlraW5nVlBOIENBMRAwDgYDVQQpEwdFYXN5UlNBMSEw
HwYJKoZIhvcNAQkBFhJtZUBteWhvc3QubXlkb21haW6CCQDPNYXugL8qPjATBgNV
HSUEDDAKBggrBgEFBQcDAjALBgNVHQ8EBAMCB4AwDQYJKoZIhvcNAQELBQADggIB
AHkmSy5evqWAAWxTYoY4PXQafa+r3C9/aAn7gIH8/DKVEtErPY9WNRWJhbi0krk7
hG5+Qyxla7c8OYmfSACdesZUVSDPjT3P8yxE4Ch7M/bttULmD0kXPFtATgKi7Xmj
Avy9GDxAx2e/KkZCmIKcb7EIkoNFOgEtYjJhT0s6XY39nP9INGRWhmD+FlBz21dj
LZXAcJlkOu9gwi34DZXQ75Yn512v6Us34WvOTEIwHmj4iBNMXHXWWlUiPSbLvQZa
124zgu9VFa90pdQjhUpGz3t7mdfN2m7CDyYqgQ4KIdc++XXohZjse5v5uWzyWqkR
8C8YoeFuaXkObSlvhIMeswHlwzEykV8C0l0Fsrqup6W9Gk9vMhKS1oSQy3KNU6bi
LTdQLHg83GgVwC+Sg63qcQFz2PTPVm5W9c8SgOl+wDfK8wJ+T26l4QuID/ioswsQ
0Gy41cMT7ePKguVLm+kf1eUpw8vhMGk/P1DZK91w0PlirlXDDmmbbVO9KW9fzW12
f1Vuc+U0EtIf/it7CfoHV2A+uRgI7SWAN3hAYT3iuV/Scc331XK1Lv1wtxgzUvaI
e1sIIHxVgddD3QDsDK9OGm7exmHAqqaXD+Jd7FiMiCb/oox25Dg3yByyAFwmZiA9
9852rdVpGmNU/dXIBy8TzC6BjFc/xaWJNLEEwIqBM/vz
-----END CERTIFICATE-----
