Certificate:
    Data:
        Version: 3 (0x2)
        Serial Number: 4480 (0x1180)
    Signature Algorithm: md5WithRSAEncryption
        Issuer: C=US, ST=OH, L=Columbus, O=VikingVPN, OU=MyOrganizationalUnit, CN=VikingVPN CA/name=EasyRSA/emailAddress=me@myhost.mydomain
        Validity
            Not Before: Feb 16 15:05:34 2015 GMT
            Not After : Feb 13 15:05:34 2025 GMT
        Subject: CN=Client259Certf5d905
        Subject Public Key Info:
            Public Key Algorithm: rsaEncryption
                Public-Key: (4096 bit)
                Modulus:
                    00:d4:01:37:a1:d9:6d:45:e0:78:3a:80:a4:a5:ff:
                    03:09:87:9a:3c:0a:a1:6b:5f:ea:e6:7c:c2:3b:97:
                    95:1c:b6:0f:8f:20:10:ef:18:67:b1:15:0c:26:39:
                    dd:bc:11:9d:ab:83:62:ef:d9:4c:aa:82:df:34:c5:
                    51:c3:4e:91:97:4d:9d:a5:a3:14:46:f7:9c:c0:14:
                    d3:b6:32:69:fc:c6:5a:68:ff:ba:6e:57:ca:15:d4:
                    68:05:72:da:d0:20:71:4c:1b:d7:52:ed:97:01:e8:
                    96:b0:80:a1:d7:df:fd:41:fe:3f:b0:76:ec:60:e2:
                    dc:6c:ad:64:f8:ba:89:49:e4:cf:e1:c6:20:54:ae:
                    20:b5:af:75:82:c4:6c:1e:5f:e5:20:a0:14:56:55:
                    62:ea:a2:eb:46:ab:88:b0:17:88:0a:d7:55:6a:6e:
                    c5:59:37:f1:d6:8a:61:07:47:31:dd:2d:9b:93:95:
                    40:ef:f9:b7:c3:84:a2:02:a4:a2:03:28:b0:f7:33:
                    c7:a1:5e:1a:f1:75:9c:8a:ac:08:b4:14:10:3b:29:
                    54:cc:de:c8:9f:73:c9:da:f1:1a:8d:06:8c:e9:d6:
                    93:26:83:ca:0b:d2:7e:d9:90:c5:e0:3c:e4:55:50:
                    79:df:8b:d0:55:21:67:85:db:da:21:37:49:3c:b6:
                    91:ae:eb:f5:69:11:14:3a:c8:57:bf:2c:20:52:b4:
                    19:0f:02:1a:09:65:ac:68:0f:1b:2e:a0:69:a9:e8:
                    28:2d:2d:72:82:ae:1b:1c:36:e7:31:38:05:2d:32:
                    06:92:4b:80:42:ff:a2:b8:00:c3:6b:1c:07:c2:d8:
                    7e:00:cf:94:5f:74:c3:73:9c:26:fb:c4:51:e5:ea:
                    ed:64:1e:b8:b5:7c:1a:63:60:c5:b8:16:9e:bb:33:
                    14:b5:9d:85:7e:27:67:c5:34:5a:8c:0a:c0:ce:7d:
                    e3:da:6e:16:e4:a8:ff:1b:52:f7:1a:8e:f5:8e:28:
                    8a:3f:7a:dd:17:6b:6f:c3:89:97:e9:4a:89:39:88:
                    96:8d:a2:74:81:c2:12:e2:37:d5:26:71:c6:68:f4:
                    29:ca:9a:d8:23:c1:8b:f2:99:68:8e:55:29:2e:fd:
                    bc:1b:56:42:02:9d:b3:a5:b6:06:a3:c1:3b:15:8e:
                    63:19:26:4a:65:de:2e:b0:51:18:8d:64:4e:5f:fb:
                    8c:87:23:7c:42:b0:14:8c:af:65:f5:e0:e2:bf:48:
                    cf:b2:d6:e7:48:26:ae:c1:de:68:fe:4a:30:b9:76:
                    63:a6:fe:27:f6:04:1b:73:01:f7:6c:3a:90:35:d6:
                    61:28:6a:c5:0f:f6:3a:d9:1e:52:f3:ae:ea:66:9e:
                    40:e8:1f
                Exponent: 65537 (0x10001)
        X509v3 extensions:
            X509v3 Basic Constraints: 
                CA:FALSE
            Netscape Comment: 
                Easy-RSA Generated Certificate
            X509v3 Subject Key Identifier: 
                48:92:4B:E7:90:71:F3:44:D7:C5:87:42:B3:DE:5F:6B:10:4B:6F:35
            X509v3 Authority Key Identifier: 
                keyid:12:CD:60:04:D2:A0:80:9E:70:ED:C6:99:B8:7B:2C:C6:52:FD:19:A1
                DirName:/C=US/ST=OH/L=Columbus/O=VikingVPN/OU=MyOrganizationalUnit/CN=VikingVPN CA/name=EasyRSA/emailAddress=me@myhost.mydomain
                serial:CF:35:85:EE:80:BF:2A:3E

            X509v3 Extended Key Usage: 
                TLS Web Client Authentication
            X509v3 Key Usage: 
                Digital Signature
    Signature Algorithm: md5WithRSAEncryption
         c5:a3:82:31:e8:08:fc:0c:20:c7:51:18:2d:5c:49:75:dc:15:
         6d:38:0a:a9:a0:79:2d:34:78:07:1b:d3:5f:d4:c7:c8:91:98:
         e3:fe:55:4f:9b:a8:92:68:ab:f6:ca:47:3f:86:23:a3:5e:62:
         17:62:2f:18:74:35:28:26:de:c5:de:b0:f6:d4:86:d5:c9:52:
         cf:57:84:fd:ea:cd:00:42:7d:75:30:c4:09:1d:6d:14:21:d0:
         cf:a9:fc:f7:de:24:1f:60:76:3f:d2:42:b4:42:66:c1:b7:e2:
         63:2e:93:6c:24:f4:c4:41:8d:94:c4:eb:59:47:83:0b:6d:84:
         b8:7f:42:ae:80:4f:b7:06:1d:12:5b:6a:53:43:0c:b2:5c:d7:
         73:6a:bd:87:07:e1:da:eb:ba:f8:1d:80:fc:31:76:2f:31:75:
         f6:8f:96:fa:cc:36:59:bb:25:23:e0:e1:55:4d:9a:c0:25:07:
         71:49:48:0c:99:e8:d6:ef:28:e2:06:c2:40:8b:a1:e2:04:68:
         d9:ab:9c:6e:4f:f4:dc:20:08:60:77:0a:f8:24:61:39:22:db:
         40:ca:da:87:89:46:0a:6b:47:28:b5:a1:4a:7c:ad:c4:a2:23:
         cc:cb:39:8a:21:ec:ca:9c:10:d8:34:9f:d4:51:a8:a7:89:22:
         54:b9:fc:71:d2:2a:be:2b:d0:23:36:f3:60:0d:b8:2c:89:e7:
         e6:7c:9d:c1:ea:3d:27:21:f8:6b:d3:5d:96:17:df:d5:d3:ac:
         b7:86:4e:cc:e6:e2:a5:c9:62:56:90:c7:32:40:4a:69:4d:8a:
         83:d1:d1:39:e3:d2:43:09:b3:b1:e7:2f:95:88:7a:da:77:de:
         33:bb:6a:a1:c2:3d:a6:f1:b7:ea:63:df:22:2f:7f:e5:0c:a8:
         59:78:a9:51:1a:fe:7c:47:e4:23:ee:df:19:71:75:93:cf:0c:
         65:57:c8:85:0b:79:81:d1:dc:5a:ea:a9:90:4d:34:a8:b7:18:
         9b:57:43:6e:2c:5a:29:96:52:cd:f6:80:37:20:6f:bd:e5:64:
         c4:10:70:da:0c:cc:12:f7:84:48:16:70:91:7b:e8:26:38:14:
         7e:6c:12:0b:5f:06:52:0e:f3:3f:1f:57:a1:40:84:00:56:3e:
         34:a4:04:a2:61:00:a9:c4:8a:17:5e:48:9d:8f:7e:e0:15:bf:
         50:84:15:97:9a:9a:6c:ec:d3:c9:a4:c8:dd:06:21:b1:02:31:
         0c:d8:da:eb:16:e1:17:b4:00:07:8c:b0:66:72:c8:8c:36:7a:
         c1:48:cb:b4:1c:d1:9b:15:e3:3b:34:98:ef:f3:ec:35:e1:e3:
         a8:b0:54:17:d0:fb:8a:17
-----BEGIN CERTIFICATE-----
MIIGrDCCBJSgAwIBAgICEYAwDQYJKoZIhvcNAQEEBQAwgawxCzAJBgNVBAYTAlVT
MQswCQYDVQQIEwJPSDERMA8GA1UEBxMIQ29sdW1idXMxEjAQBgNVBAoTCVZpa2lu
Z1ZQTjEdMBsGA1UECxMUTXlPcmdhbml6YXRpb25hbFVuaXQxFTATBgNVBAMTDFZp
a2luZ1ZQTiBDQTEQMA4GA1UEKRMHRWFzeVJTQTEhMB8GCSqGSIb3DQEJARYSbWVA
bXlob3N0Lm15ZG9tYWluMB4XDTE1MDIxNjE1MDUzNFoXDTI1MDIxMzE1MDUzNFow
HjEcMBoGA1UEAxMTQ2xpZW50MjU5Q2VydGY1ZDkwNTCCAiIwDQYJKoZIhvcNAQEB
BQADggIPADCCAgoCggIBANQBN6HZbUXgeDqApKX/AwmHmjwKoWtf6uZ8wjuXlRy2
D48gEO8YZ7EVDCY53bwRnauDYu/ZTKqC3zTFUcNOkZdNnaWjFEb3nMAU07YyafzG
Wmj/um5XyhXUaAVy2tAgcUwb11LtlwHolrCAodff/UH+P7B27GDi3GytZPi6iUnk
z+HGIFSuILWvdYLEbB5f5SCgFFZVYuqi60ariLAXiArXVWpuxVk38daKYQdHMd0t
m5OVQO/5t8OEogKkogMosPczx6FeGvF1nIqsCLQUEDspVMzeyJ9zydrxGo0GjOnW
kyaDygvSftmQxeA85FVQed+L0FUhZ4Xb2iE3STy2ka7r9WkRFDrIV78sIFK0GQ8C
GgllrGgPGy6gaanoKC0tcoKuGxw25zE4BS0yBpJLgEL/orgAw2scB8LYfgDPlF90
w3OcJvvEUeXq7WQeuLV8GmNgxbgWnrszFLWdhX4nZ8U0WowKwM5949puFuSo/xtS
9xqO9Y4oij963Rdrb8OJl+lKiTmIlo2idIHCEuI31SZxxmj0Kcqa2CPBi/KZaI5V
KS79vBtWQgKds6W2BqPBOxWOYxkmSmXeLrBRGI1kTl/7jIcjfEKwFIyvZfXg4r9I
z7LW50gmrsHeaP5KMLl2Y6b+J/YEG3MB92w6kDXWYShqxQ/2OtkeUvOu6maeQOgf
AgMBAAGjggFjMIIBXzAJBgNVHRMEAjAAMC0GCWCGSAGG+EIBDQQgFh5FYXN5LVJT
QSBHZW5lcmF0ZWQgQ2VydGlmaWNhdGUwHQYDVR0OBBYEFEiSS+eQcfNE18WHQrPe
X2sQS281MIHhBgNVHSMEgdkwgdaAFBLNYATSoICecO3Gmbh7LMZS/RmhoYGypIGv
MIGsMQswCQYDVQQGEwJVUzELMAkGA1UECBMCT0gxETAPBgNVBAcTCENvbHVtYnVz
MRIwEAYDVQQKEwlWaWtpbmdWUE4xHTAbBgNVBAsTFE15T3JnYW5pemF0aW9uYWxV
bml0MRUwEwYDVQQDEwxWaWtpbmdWUE4gQ0ExEDAOBgNVBCkTB0Vhc3lSU0ExITAf
BgkqhkiG9w0BCQEWEm1lQG15aG9zdC5teWRvbWFpboIJAM81he6Avyo+MBMGA1Ud
JQQMMAoGCCsGAQUFBwMCMAsGA1UdDwQEAwIHgDANBgkqhkiG9w0BAQQFAAOCAgEA
xaOCMegI/Awgx1EYLVxJddwVbTgKqaB5LTR4BxvTX9THyJGY4/5VT5uokmir9spH
P4Yjo15iF2IvGHQ1KCbexd6w9tSG1clSz1eE/erNAEJ9dTDECR1tFCHQz6n8994k
H2B2P9JCtEJmwbfiYy6TbCT0xEGNlMTrWUeDC22EuH9CroBPtwYdEltqU0MMslzX
c2q9hwfh2uu6+B2A/DF2LzF19o+W+sw2WbslI+DhVU2awCUHcUlIDJno1u8o4gbC
QIuh4gRo2aucbk/03CAIYHcK+CRhOSLbQMrah4lGCmtHKLWhSnytxKIjzMs5iiHs
ypwQ2DSf1FGop4kiVLn8cdIqvivQIzbzYA24LInn5nydweo9JyH4a9Ndlhff1dOs
t4ZOzObipcliVpDHMkBKaU2Kg9HROePSQwmzsecvlYh62nfeM7tqocI9pvG36mPf
Ii9/5QyoWXipURr+fEfkI+7fGXF1k88MZVfIhQt5gdHcWuqpkE00qLcYm1dDbixa
KZZSzfaANyBvveVkxBBw2gzMEveESBZwkXvoJjgUfmwSC18GUg7zPx9XoUCEAFY+
NKQEomEAqcSKF15InY9+4BW/UIQVl5qabOzTyaTI3QYhsQIxDNja6xbhF7QAB4yw
ZnLIjDZ6wUjLtBzRmxXjOzSY7/PsNeHjqLBUF9D7ihc=
-----END CERTIFICATE-----
