Certificate:
    Data:
        Version: 3 (0x2)
        Serial Number: 3994 (0xf9a)
    Signature Algorithm: md5WithRSAEncryption
        Issuer: C=US, ST=OH, L=Columbus, O=VikingVPN, OU=MyOrganizationalUnit, CN=VikingVPN CA/name=EasyRSA/emailAddress=me@myhost.mydomain
        Validity
            Not Before: Jan  3 15:02:12 2015 GMT
            Not After : Dec 31 15:02:12 2024 GMT
        Subject: CN=Client1327Cert25c909
        Subject Public Key Info:
            Public Key Algorithm: rsaEncryption
                Public-Key: (4096 bit)
                Modulus:
                    00:9e:71:5b:95:46:b5:3e:e5:a7:88:97:c7:33:7c:
                    c6:28:4b:07:51:38:91:69:53:d3:66:f6:a6:44:66:
                    a3:46:4f:ad:8d:98:95:a3:dc:2d:55:fa:6c:46:ac:
                    39:5a:1d:a4:59:0d:27:6c:94:09:c9:6c:c3:89:29:
                    dd:f7:8a:26:48:c3:cc:e4:63:63:3c:68:6e:cc:4f:
                    75:b0:0b:05:b4:6d:66:f7:d5:97:58:98:5e:a9:a3:
                    e3:52:ed:ee:82:90:eb:67:0f:56:18:2b:ba:b7:f7:
                    ef:ea:ed:94:a2:7f:cd:fe:60:00:2d:93:76:4f:45:
                    b5:9e:5a:e5:47:81:42:32:cf:38:9d:fb:b4:b4:12:
                    bf:b0:b3:7b:96:52:71:4a:23:55:2e:e7:1f:cb:9c:
                    25:f4:76:0d:57:13:51:2a:4b:76:ed:75:4d:7b:39:
                    22:95:20:ed:5c:57:19:d8:2a:ef:3a:aa:35:75:4c:
                    8e:62:38:bf:3d:d2:3b:01:ec:38:5f:88:2f:a4:08:
                    30:2c:ed:fc:01:ef:38:7b:5d:79:39:d7:4f:58:48:
                    d3:24:74:30:d0:13:d9:44:2e:88:60:58:03:a2:6f:
                    55:6d:80:c1:e4:1d:63:31:c9:e6:cd:fd:0d:0c:cb:
                    61:1a:86:38:e4:b8:47:a9:99:e5:78:92:95:f5:63:
                    95:15:c9:88:e5:61:69:01:ec:7e:3b:24:bf:1c:70:
                    8a:3b:d8:84:d4:ea:51:51:fc:ff:c3:db:73:20:57:
                    3a:3e:0e:b9:73:80:74:53:11:44:be:95:2c:00:bd:
                    85:f9:a8:db:0c:7f:8d:58:1a:c7:b6:5e:7d:7f:ff:
                    7c:e6:c8:66:28:78:65:19:41:80:c7:31:92:13:32:
                    59:c3:ca:26:b5:b0:da:22:c9:65:92:2b:ed:06:29:
                    96:62:0a:94:b1:27:11:e0:31:fa:1f:c4:1f:de:4f:
                    42:fd:32:82:bf:6f:96:e6:8e:5f:0a:d5:13:cd:b4:
                    ae:ad:f7:7e:7f:ab:68:c6:6a:43:c7:c4:b6:73:2b:
                    e8:1b:29:bc:8d:9f:6c:59:05:d4:ce:77:e4:19:14:
                    88:1b:fd:09:86:29:a3:3f:0e:82:67:33:6b:81:1b:
                    c2:89:14:fa:38:22:0d:81:4d:4a:2e:31:54:70:28:
                    3f:f4:a0:4e:3c:18:0c:9d:6e:72:20:7b:75:9b:94:
                    68:61:27:6c:f6:0a:c2:4f:d1:4c:13:8b:c1:40:89:
                    a1:0b:2b:fe:75:da:94:f9:d6:02:6a:db:d9:94:4d:
                    40:0c:e7:2f:cb:91:f5:cf:0e:bf:14:9c:f0:f3:b9:
                    be:be:7f:1a:6a:a7:4d:ad:bb:0e:b1:0d:ea:fb:2b:
                    48:02:5f
                Exponent: 65537 (0x10001)
        X509v3 extensions:
            X509v3 Basic Constraints: 
                CA:FALSE
            Netscape Comment: 
                Easy-RSA Generated Certificate
            X509v3 Subject Key Identifier: 
                72:41:82:12:E1:CE:8A:EE:2B:CB:50:7F:19:66:A0:8C:F5:FA:CE:D0
            X509v3 Authority Key Identifier: 
                keyid:12:CD:60:04:D2:A0:80:9E:70:ED:C6:99:B8:7B:2C:C6:52:FD:19:A1
                DirName:/C=US/ST=OH/L=Columbus/O=VikingVPN/OU=MyOrganizationalUnit/CN=VikingVPN CA/name=EasyRSA/emailAddress=me@myhost.mydomain
                serial:CF:35:85:EE:80:BF:2A:3E

            X509v3 Extended Key Usage: 
                TLS Web Client Authentication
            X509v3 Key Usage: 
                Digital Signature
    Signature Algorithm: md5WithRSAEncryption
         85:f9:24:79:a1:2c:32:a2:83:20:d9:40:49:79:f6:a7:96:af:
         c7:3b:77:63:c4:46:ff:c8:13:12:df:38:dc:81:17:6c:47:28:
         91:6c:9d:9b:dd:1b:1c:04:a9:8b:f3:86:89:6c:6d:2b:17:51:
         7e:52:82:e7:96:26:8d:6d:13:8d:d8:ba:56:cb:e4:1f:0b:b6:
         d3:7e:a7:ea:f8:e4:e5:0a:74:18:c1:d6:91:06:be:c0:f7:1b:
         80:12:0d:f6:f9:0e:f3:f8:07:df:cc:8e:0a:c2:bb:18:33:a5:
         12:44:da:41:71:a6:eb:aa:7e:e8:89:fc:54:e5:a7:1b:2f:2b:
         f9:1f:45:1a:4f:b0:76:40:56:4e:9c:27:ef:3d:76:85:52:42:
         42:1d:31:e0:05:2e:dc:ce:8c:04:c7:c6:1b:51:2c:3f:43:4f:
         c0:c6:fe:2e:fd:ad:b9:8f:90:ca:a3:f1:36:fb:49:1f:f6:db:
         a1:55:6b:0f:35:17:d5:b3:1f:ed:70:08:ff:7c:85:70:1e:e6:
         a5:7e:38:9e:4c:85:f5:d5:a4:a0:fb:85:c3:9d:f9:22:21:85:
         ab:6f:49:66:c1:be:f7:3a:46:c4:5f:30:ff:fc:f6:25:a0:09:
         fa:f5:fb:4a:b3:17:f4:8c:78:dd:cc:2d:db:23:0a:ec:af:ce:
         db:1a:f3:07:a5:d8:59:17:8c:53:5f:96:14:e2:9b:03:6c:fb:
         5c:e6:17:63:09:40:98:4b:4a:a8:df:33:2d:99:86:ff:5a:52:
         47:06:25:c3:be:49:4b:aa:ab:32:92:53:10:55:93:ba:7a:fb:
         51:4a:05:09:c9:ed:1e:6b:44:e6:93:d0:46:d3:a9:71:fc:a9:
         19:20:b7:c8:cb:91:c7:90:95:3e:cb:16:c0:e9:8a:84:cf:62:
         0a:d8:49:2d:89:be:07:3e:2e:b0:72:b2:9d:02:03:81:66:c8:
         30:67:34:72:8c:45:21:2e:32:68:4e:0f:b6:30:a1:ea:8f:42:
         89:26:6d:a0:c6:ae:21:e6:c0:47:45:7a:7d:d7:de:53:c6:3a:
         eb:b4:2b:62:e8:bb:8b:bf:e0:60:9d:08:30:82:05:b8:24:8c:
         b8:8f:93:bb:3f:94:32:e0:23:cc:f1:a4:24:c6:fc:c1:52:fa:
         a3:0b:79:01:19:78:2b:d9:0e:e5:19:79:78:1f:f0:2b:e6:30:
         e6:aa:93:ca:ad:3c:da:d4:02:38:43:fe:9a:07:d2:24:6b:fe:
         e4:49:a5:42:55:30:71:97:cb:48:96:22:8b:36:2b:4d:de:8c:
         93:ab:6e:0f:ab:48:3b:3a:b2:69:93:bf:87:15:70:1a:f0:36:
         f8:08:41:e8:ed:6b:7f:65
-----BEGIN CERTIFICATE-----
MIIGrTCCBJWgAwIBAgICD5owDQYJKoZIhvcNAQEEBQAwgawxCzAJBgNVBAYTAlVT
MQswCQYDVQQIEwJPSDERMA8GA1UEBxMIQ29sdW1idXMxEjAQBgNVBAoTCVZpa2lu
Z1ZQTjEdMBsGA1UECxMUTXlPcmdhbml6YXRpb25hbFVuaXQxFTATBgNVBAMTDFZp
a2luZ1ZQTiBDQTEQMA4GA1UEKRMHRWFzeVJTQTEhMB8GCSqGSIb3DQEJARYSbWVA
bXlob3N0Lm15ZG9tYWluMB4XDTE1MDEwMzE1MDIxMloXDTI0MTIzMTE1MDIxMlow
HzEdMBsGA1UEAxMUQ2xpZW50MTMyN0NlcnQyNWM5MDkwggIiMA0GCSqGSIb3DQEB
AQUAA4ICDwAwggIKAoICAQCecVuVRrU+5aeIl8czfMYoSwdROJFpU9Nm9qZEZqNG
T62NmJWj3C1V+mxGrDlaHaRZDSdslAnJbMOJKd33iiZIw8zkY2M8aG7MT3WwCwW0
bWb31ZdYmF6po+NS7e6CkOtnD1YYK7q39+/q7ZSif83+YAAtk3ZPRbWeWuVHgUIy
zzid+7S0Er+ws3uWUnFKI1Uu5x/LnCX0dg1XE1EqS3btdU17OSKVIO1cVxnYKu86
qjV1TI5iOL890jsB7DhfiC+kCDAs7fwB7zh7XXk5109YSNMkdDDQE9lELohgWAOi
b1VtgMHkHWMxyebN/Q0My2EahjjkuEepmeV4kpX1Y5UVyYjlYWkB7H47JL8ccIo7
2ITU6lFR/P/D23MgVzo+DrlzgHRTEUS+lSwAvYX5qNsMf41YGse2Xn1//3zmyGYo
eGUZQYDHMZITMlnDyia1sNoiyWWSK+0GKZZiCpSxJxHgMfofxB/eT0L9MoK/b5bm
jl8K1RPNtK6t935/q2jGakPHxLZzK+gbKbyNn2xZBdTOd+QZFIgb/QmGKaM/DoJn
M2uBG8KJFPo4Ig2BTUouMVRwKD/0oE48GAydbnIge3WblGhhJ2z2CsJP0UwTi8FA
iaELK/512pT51gJq29mUTUAM5y/LkfXPDr8UnPDzub6+fxpqp02tuw6xDer7K0gC
XwIDAQABo4IBYzCCAV8wCQYDVR0TBAIwADAtBglghkgBhvhCAQ0EIBYeRWFzeS1S
U0EgR2VuZXJhdGVkIENlcnRpZmljYXRlMB0GA1UdDgQWBBRyQYIS4c6K7ivLUH8Z
ZqCM9frO0DCB4QYDVR0jBIHZMIHWgBQSzWAE0qCAnnDtxpm4eyzGUv0ZoaGBsqSB
rzCBrDELMAkGA1UEBhMCVVMxCzAJBgNVBAgTAk9IMREwDwYDVQQHEwhDb2x1bWJ1
czESMBAGA1UEChMJVmlraW5nVlBOMR0wGwYDVQQLExRNeU9yZ2FuaXphdGlvbmFs
VW5pdDEVMBMGA1UEAxMMVmlraW5nVlBOIENBMRAwDgYDVQQpEwdFYXN5UlNBMSEw
HwYJKoZIhvcNAQkBFhJtZUBteWhvc3QubXlkb21haW6CCQDPNYXugL8qPjATBgNV
HSUEDDAKBggrBgEFBQcDAjALBgNVHQ8EBAMCB4AwDQYJKoZIhvcNAQEEBQADggIB
AIX5JHmhLDKigyDZQEl59qeWr8c7d2PERv/IExLfONyBF2xHKJFsnZvdGxwEqYvz
holsbSsXUX5SgueWJo1tE43YulbL5B8LttN+p+r45OUKdBjB1pEGvsD3G4ASDfb5
DvP4B9/MjgrCuxgzpRJE2kFxpuuqfuiJ/FTlpxsvK/kfRRpPsHZAVk6cJ+89doVS
QkIdMeAFLtzOjATHxhtRLD9DT8DG/i79rbmPkMqj8Tb7SR/226FVaw81F9WzH+1w
CP98hXAe5qV+OJ5MhfXVpKD7hcOd+SIhhatvSWbBvvc6RsRfMP/89iWgCfr1+0qz
F/SMeN3MLdsjCuyvztsa8wel2FkXjFNflhTimwNs+1zmF2MJQJhLSqjfMy2Zhv9a
UkcGJcO+SUuqqzKSUxBVk7p6+1FKBQnJ7R5rROaT0EbTqXH8qRkgt8jLkceQlT7L
FsDpioTPYgrYSS2Jvgc+LrBysp0CA4FmyDBnNHKMRSEuMmhOD7YwoeqPQokmbaDG
riHmwEdFen3X3lPGOuu0K2Lou4u/4GCdCDCCBbgkjLiPk7s/lDLgI8zxpCTG/MFS
+qMLeQEZeCvZDuUZeXgf8CvmMOaqk8qtPNrUAjhD/poH0iRr/uRJpUJVMHGXy0iW
Ios2K03ejJOrbg+rSDs6smmTv4cVcBrwNvgIQejta39l
-----END CERTIFICATE-----
