Certificate:
    Data:
        Version: 3 (0x2)
        Serial Number: 9460 (0x24f4)
    Signature Algorithm: sha256WithRSAEncryption
        Issuer: C=US, ST=OH, L=Columbus, O=VikingVPN, OU=MyOrganizationalUnit, CN=VikingVPN CA/name=EasyRSA/emailAddress=me@myhost.mydomain
        Validity
            Not Before: Nov 15 14:14:11 2016 GMT
            Not After : Nov 13 14:14:11 2026 GMT
        Subject: CN=Client2586Cert8bb2e0
        Subject Public Key Info:
            Public Key Algorithm: rsaEncryption
                Public-Key: (4096 bit)
                Modulus:
                    00:e3:2d:89:52:01:f3:aa:68:b8:29:ee:4d:73:1a:
                    ae:fd:a0:93:5b:08:3f:92:11:77:1f:91:bd:e6:b6:
                    f4:7e:27:d5:53:e5:4e:7a:45:2a:6e:da:67:24:54:
                    ca:db:d0:94:df:1f:fa:66:d5:5c:f7:2f:6f:c9:09:
                    11:d8:5c:17:08:49:60:1b:d6:39:eb:34:e0:d6:47:
                    63:07:4d:dd:43:ea:59:f3:4c:e4:e8:5f:97:ce:3b:
                    a7:34:d6:c9:38:da:4d:eb:1b:18:be:69:ea:bb:62:
                    4f:86:a6:96:02:e4:d5:ef:fa:d2:c1:4f:d0:df:e9:
                    53:0d:95:e7:0d:eb:bb:0e:cc:2d:07:38:48:42:e7:
                    40:e4:df:31:92:da:89:1d:71:9d:f2:06:24:c5:09:
                    f1:48:37:95:e4:0c:67:9e:74:17:8f:14:bb:9b:c5:
                    a6:a0:e0:69:10:a9:e2:5e:72:90:be:9c:fd:70:68:
                    e6:0c:03:82:ee:b6:94:ed:63:b1:fc:15:f2:dd:34:
                    33:6f:8e:c5:d4:54:18:35:a8:2f:a1:15:73:46:df:
                    1b:c1:17:3f:83:0c:c4:c6:43:65:74:6a:bb:a6:f4:
                    57:20:8a:3f:ee:1c:8f:2b:d5:9b:cd:68:fd:3e:6a:
                    07:b1:e0:e9:49:87:e5:59:76:25:5f:ce:c4:d9:1f:
                    ed:20:13:9e:57:7f:50:42:f5:ae:74:3f:b5:0a:9b:
                    2c:43:c6:c3:f5:a1:de:e8:e4:3a:15:fd:90:65:27:
                    3e:0d:8d:cd:7a:05:db:fa:e7:86:da:e3:48:61:cb:
                    f5:62:06:dc:7e:dc:13:37:5b:00:c5:50:1f:0b:41:
                    4a:91:1f:71:f0:07:05:e0:74:96:54:82:b5:f4:55:
                    94:b1:f1:f8:20:da:03:62:61:c5:d8:da:24:9c:a7:
                    e2:de:34:dd:11:04:b4:c8:95:99:e6:ac:7c:73:6f:
                    3f:21:c2:a7:0b:fc:40:a7:18:16:68:44:ec:99:bd:
                    64:fb:56:a6:45:43:c9:1e:e4:d9:5d:42:13:f5:cb:
                    f5:3e:e5:99:70:90:ce:17:de:93:ba:77:12:83:57:
                    30:eb:f2:68:cb:79:71:f5:b9:61:f4:19:e1:90:e1:
                    90:66:19:55:1b:7f:ea:19:e2:27:f5:78:88:03:09:
                    11:fc:bf:02:cc:50:11:a3:34:bc:63:5f:f7:2f:d6:
                    37:55:63:bb:d8:34:fd:a8:46:08:07:8c:fc:32:aa:
                    4f:8b:f5:42:5c:ac:6a:af:e0:5f:e2:5b:da:22:78:
                    40:15:1d:e0:bf:24:60:2d:8b:94:e5:6e:d1:8c:8b:
                    9f:54:45:1a:c1:a1:06:95:0d:78:47:44:62:a3:22:
                    f4:3a:4f
                Exponent: 65537 (0x10001)
        X509v3 extensions:
            X509v3 Basic Constraints: 
                CA:FALSE
            Netscape Comment: 
                Easy-RSA Generated Certificate
            X509v3 Subject Key Identifier: 
                D6:B4:2C:F3:1A:8F:26:A6:C2:BC:24:AE:BC:65:E1:EA:31:22:03:77
            X509v3 Authority Key Identifier: 
                keyid:12:CD:60:04:D2:A0:80:9E:70:ED:C6:99:B8:7B:2C:C6:52:FD:19:A1
                DirName:/C=US/ST=OH/L=Columbus/O=VikingVPN/OU=MyOrganizationalUnit/CN=VikingVPN CA/name=EasyRSA/emailAddress=me@myhost.mydomain
                serial:CF:35:85:EE:80:BF:2A:3E

            X509v3 Extended Key Usage: 
                TLS Web Client Authentication
            X509v3 Key Usage: 
                Digital Signature
    Signature Algorithm: sha256WithRSAEncryption
         3a:aa:03:18:9d:ce:c2:47:72:28:92:ac:0b:83:2a:33:f2:b2:
         6d:7c:50:76:84:a9:2e:ee:e1:78:74:93:57:da:fb:c7:01:cf:
         5a:65:27:f5:e3:86:91:71:e9:5e:b5:e7:38:2a:22:1a:89:d2:
         22:65:03:14:2e:96:0e:be:72:38:47:69:cf:f9:9b:40:04:fd:
         47:07:65:58:37:01:48:99:4e:fa:e3:bc:f4:63:7c:85:13:f6:
         2b:e0:d9:b9:e7:e7:c1:5d:23:e9:75:7a:fc:e2:e5:2c:12:f4:
         79:ca:79:d6:53:0b:1c:27:b4:cd:c0:ad:b2:28:0d:16:92:d5:
         3f:1c:b7:b6:c1:fa:e4:fc:35:4f:00:fe:17:b0:80:a4:17:78:
         fb:16:c3:81:e0:d8:a6:89:c9:5b:79:fa:7d:df:6a:65:4c:2c:
         d1:78:8f:dc:1c:df:54:b3:f9:1f:e0:e1:83:f0:54:97:02:c8:
         4c:43:1f:ae:3a:95:62:0f:79:da:07:9f:1d:9d:34:55:fb:5a:
         d4:a6:cc:91:8f:35:4b:87:c1:cd:19:4d:8e:66:3e:39:63:f6:
         57:a7:2f:7d:e0:58:36:cd:8d:9c:e0:42:fe:a6:ad:96:ac:cd:
         5a:e5:da:7f:8f:0d:6a:0b:cc:28:80:55:f3:22:26:9d:88:36:
         cc:c5:f1:50:b1:77:af:c0:0a:cc:d4:fe:a0:fb:b4:10:26:21:
         3c:57:d7:18:2e:62:b7:8d:36:fc:2d:9c:af:af:d4:15:58:f9:
         60:e8:08:be:36:89:da:39:fc:11:97:ee:04:db:89:e5:aa:c2:
         49:1a:30:d1:f8:98:69:8a:87:1a:db:6a:68:ea:ae:b1:d1:e6:
         c4:ec:a8:fd:26:94:f2:46:ca:bb:d5:1f:93:1b:28:46:93:84:
         53:4f:3a:0a:16:8a:2e:c7:3e:da:d6:05:c7:bf:29:22:54:ef:
         ad:bd:37:c7:3e:34:f7:af:35:bc:89:b2:e4:be:02:b3:55:cc:
         41:87:45:74:b3:8d:5e:2f:31:2e:33:b0:c3:a7:9c:bb:4c:46:
         39:85:4d:a0:2f:67:12:42:34:0c:45:41:bb:97:ef:78:6a:22:
         8c:34:20:f3:cb:69:5a:85:92:5c:78:c1:2b:5d:f7:18:28:e3:
         01:6b:cf:c2:3e:74:15:10:c1:d7:c5:b1:de:66:97:cb:c4:1b:
         00:c5:73:85:83:c6:e9:1e:88:30:58:0d:a8:ee:c9:a0:08:21:
         b0:11:f9:68:44:72:a1:3d:0f:15:92:55:1a:7b:26:53:9f:92:
         68:22:f6:58:cf:9d:35:e9:fe:0e:dc:6f:2e:0c:48:b3:ec:67:
         b3:5d:8c:fa:6a:c0:83:68
-----BEGIN CERTIFICATE-----
MIIGrTCCBJWgAwIBAgICJPQwDQYJKoZIhvcNAQELBQAwgawxCzAJBgNVBAYTAlVT
MQswCQYDVQQIEwJPSDERMA8GA1UEBxMIQ29sdW1idXMxEjAQBgNVBAoTCVZpa2lu
Z1ZQTjEdMBsGA1UECxMUTXlPcmdhbml6YXRpb25hbFVuaXQxFTATBgNVBAMTDFZp
a2luZ1ZQTiBDQTEQMA4GA1UEKRMHRWFzeVJTQTEhMB8GCSqGSIb3DQEJARYSbWVA
bXlob3N0Lm15ZG9tYWluMB4XDTE2MTExNTE0MTQxMVoXDTI2MTExMzE0MTQxMVow
HzEdMBsGA1UEAxMUQ2xpZW50MjU4NkNlcnQ4YmIyZTAwggIiMA0GCSqGSIb3DQEB
AQUAA4ICDwAwggIKAoICAQDjLYlSAfOqaLgp7k1zGq79oJNbCD+SEXcfkb3mtvR+
J9VT5U56RSpu2mckVMrb0JTfH/pm1Vz3L2/JCRHYXBcISWAb1jnrNODWR2MHTd1D
6lnzTOToX5fOO6c01sk42k3rGxi+aeq7Yk+GppYC5NXv+tLBT9Df6VMNlecN67sO
zC0HOEhC50Dk3zGS2okdcZ3yBiTFCfFIN5XkDGeedBePFLubxaag4GkQqeJecpC+
nP1waOYMA4LutpTtY7H8FfLdNDNvjsXUVBg1qC+hFXNG3xvBFz+DDMTGQ2V0arum
9Fcgij/uHI8r1ZvNaP0+agex4OlJh+VZdiVfzsTZH+0gE55Xf1BC9a50P7UKmyxD
xsP1od7o5DoV/ZBlJz4Njc16Bdv654ba40hhy/ViBtx+3BM3WwDFUB8LQUqRH3Hw
BwXgdJZUgrX0VZSx8fgg2gNiYcXY2iScp+LeNN0RBLTIlZnmrHxzbz8hwqcL/ECn
GBZoROyZvWT7VqZFQ8ke5NldQhP1y/U+5ZlwkM4X3pO6dxKDVzDr8mjLeXH1uWH0
GeGQ4ZBmGVUbf+oZ4if1eIgDCRH8vwLMUBGjNLxjX/cv1jdVY7vYNP2oRggHjPwy
qk+L9UJcrGqv4F/iW9oieEAVHeC/JGAti5TlbtGMi59URRrBoQaVDXhHRGKjIvQ6
TwIDAQABo4IBYzCCAV8wCQYDVR0TBAIwADAtBglghkgBhvhCAQ0EIBYeRWFzeS1S
U0EgR2VuZXJhdGVkIENlcnRpZmljYXRlMB0GA1UdDgQWBBTWtCzzGo8mpsK8JK68
ZeHqMSIDdzCB4QYDVR0jBIHZMIHWgBQSzWAE0qCAnnDtxpm4eyzGUv0ZoaGBsqSB
rzCBrDELMAkGA1UEBhMCVVMxCzAJBgNVBAgTAk9IMREwDwYDVQQHEwhDb2x1bWJ1
czESMBAGA1UEChMJVmlraW5nVlBOMR0wGwYDVQQLExRNeU9yZ2FuaXphdGlvbmFs
VW5pdDEVMBMGA1UEAxMMVmlraW5nVlBOIENBMRAwDgYDVQQpEwdFYXN5UlNBMSEw
HwYJKoZIhvcNAQkBFhJtZUBteWhvc3QubXlkb21haW6CCQDPNYXugL8qPjATBgNV
HSUEDDAKBggrBgEFBQcDAjALBgNVHQ8EBAMCB4AwDQYJKoZIhvcNAQELBQADggIB
ADqqAxidzsJHciiSrAuDKjPysm18UHaEqS7u4Xh0k1fa+8cBz1plJ/XjhpFx6V61
5zgqIhqJ0iJlAxQulg6+cjhHac/5m0AE/UcHZVg3AUiZTvrjvPRjfIUT9ivg2bnn
58FdI+l1evzi5SwS9HnKedZTCxwntM3ArbIoDRaS1T8ct7bB+uT8NU8A/hewgKQX
ePsWw4Hg2KaJyVt5+n3famVMLNF4j9wc31Sz+R/g4YPwVJcCyExDH646lWIPedoH
nx2dNFX7WtSmzJGPNUuHwc0ZTY5mPjlj9lenL33gWDbNjZzgQv6mrZaszVrl2n+P
DWoLzCiAVfMiJp2INszF8VCxd6/ACszU/qD7tBAmITxX1xguYreNNvwtnK+v1BVY
+WDoCL42ido5/BGX7gTbieWqwkkaMNH4mGmKhxrbamjqrrHR5sTsqP0mlPJGyrvV
H5MbKEaThFNPOgoWii7HPtrWBce/KSJU7629N8c+NPevNbyJsuS+ArNVzEGHRXSz
jV4vMS4zsMOnnLtMRjmFTaAvZxJCNAxFQbuX73hqIow0IPPLaVqFklx4wStd9xgo
4wFrz8I+dBUQwdfFsd5ml8vEGwDFc4WDxukeiDBYDajuyaAIIbAR+WhEcqE9DxWS
VRp7JlOfkmgi9ljPnTXp/g7cby4MSLPsZ7NdjPpqwINo
-----END CERTIFICATE-----
