Certificate:
    Data:
        Version: 3 (0x2)
        Serial Number: 2221 (0x8ad)
    Signature Algorithm: md5WithRSAEncryption
        Issuer: C=US, ST=OH, L=Columbus, O=VikingVPN, OU=MyOrganizationalUnit, CN=VikingVPN CA/name=EasyRSA/emailAddress=me@myhost.mydomain
        Validity
            Not Before: Jul  6 04:16:25 2014 GMT
            Not After : Jul  3 04:16:25 2024 GMT
        Subject: CN=Client782Certfd74ba
        Subject Public Key Info:
            Public Key Algorithm: rsaEncryption
                Public-Key: (4096 bit)
                Modulus:
                    00:dc:ed:31:83:cb:7d:1b:41:51:19:19:b0:d5:a6:
                    f1:07:c7:5b:d2:5e:77:ec:02:46:f7:22:84:4e:65:
                    9e:7a:88:2b:c8:7a:46:33:85:ba:0b:b3:0c:31:57:
                    eb:66:b9:1c:de:ce:26:53:e4:d4:67:8a:9c:ef:ba:
                    cf:5d:34:4e:f8:ff:f5:37:a8:77:41:67:3b:42:33:
                    19:21:ef:a0:b8:a9:e0:42:32:f7:96:12:5c:38:83:
                    41:0a:fd:87:8d:1f:b7:32:14:0d:3e:05:4d:c4:55:
                    12:d0:9e:c6:f8:24:c0:e2:d2:d8:03:b6:76:a6:ec:
                    e7:3d:ce:09:90:c9:c6:58:af:bd:3c:b2:7a:4b:8f:
                    34:78:9e:ab:85:0e:55:c1:ed:71:a3:ab:16:4b:e4:
                    c5:fb:f6:d9:fc:8a:c9:b7:b9:0a:81:98:5b:2e:43:
                    fa:2b:a5:d3:f0:04:bf:5c:2b:c5:fd:98:b4:d6:a6:
                    00:fc:7e:0c:22:fa:31:fe:be:7e:a7:42:82:d3:3d:
                    db:ab:ae:b2:5a:c8:3a:57:fe:3c:12:ee:29:a7:75:
                    0c:61:25:59:5b:ca:ee:95:a8:67:22:32:f4:c9:c1:
                    c1:24:93:56:9f:8a:d6:31:ca:0e:3c:dd:c9:1c:10:
                    29:11:27:e7:40:b4:a2:fa:18:e9:56:99:2d:fc:a2:
                    b0:30:52:8d:67:e9:ac:e8:08:84:36:e1:25:9f:aa:
                    30:79:6f:fa:40:17:c5:3a:7b:db:74:41:57:52:3b:
                    b6:2a:97:1b:9c:af:3b:9e:66:8f:8c:1f:be:d0:50:
                    72:31:21:4f:a0:e2:93:d6:81:5d:f7:de:fa:73:08:
                    b7:b1:e8:14:16:47:c9:a3:08:3f:e8:9d:8c:5a:f2:
                    8f:73:26:ee:0e:1f:4e:2b:17:f6:71:2b:64:02:3b:
                    b5:11:55:02:f2:21:bc:b6:da:ed:4b:e3:f0:7d:8f:
                    ae:42:8c:44:66:39:15:d6:53:8a:34:00:20:f6:ee:
                    31:fd:63:45:af:ba:5d:59:7a:c9:59:79:1e:f4:2c:
                    32:e3:c0:85:a6:f6:e1:cd:d0:21:80:55:0f:fe:07:
                    7d:4d:09:0b:45:79:85:e2:0a:e3:aa:23:95:79:a2:
                    76:3a:4f:89:58:5d:ad:d7:07:cb:dc:15:36:f9:df:
                    a2:53:1f:36:6e:ee:35:ff:3c:cc:9e:1a:78:ea:15:
                    03:0b:11:6b:8d:b5:76:eb:5b:75:39:b9:72:65:6d:
                    18:7a:48:53:00:0d:20:f3:ff:c6:a5:b5:17:67:01:
                    84:d5:a7:4b:76:da:e1:5f:99:cf:78:93:83:aa:05:
                    38:dc:f9:9d:aa:29:47:bd:9e:33:f6:1a:49:8f:94:
                    c9:25:25
                Exponent: 65537 (0x10001)
        X509v3 extensions:
            X509v3 Basic Constraints: 
                CA:FALSE
            Netscape Comment: 
                Easy-RSA Generated Certificate
            X509v3 Subject Key Identifier: 
                A5:70:A3:19:7F:C9:B3:FA:95:70:79:F9:9E:7F:20:DB:27:31:9D:E0
            X509v3 Authority Key Identifier: 
                keyid:12:CD:60:04:D2:A0:80:9E:70:ED:C6:99:B8:7B:2C:C6:52:FD:19:A1
                DirName:/C=US/ST=OH/L=Columbus/O=VikingVPN/OU=MyOrganizationalUnit/CN=VikingVPN CA/name=EasyRSA/emailAddress=me@myhost.mydomain
                serial:CF:35:85:EE:80:BF:2A:3E

            X509v3 Extended Key Usage: 
                TLS Web Client Authentication
            X509v3 Key Usage: 
                Digital Signature
    Signature Algorithm: md5WithRSAEncryption
         d1:fb:9d:12:f2:ed:8f:0f:6d:e4:c5:b8:1a:1f:99:8e:43:64:
         29:67:3e:84:56:60:ef:8c:5b:90:cc:f8:95:b1:e0:04:49:c5:
         58:b3:33:81:c0:ff:9b:bb:a2:26:ba:72:65:44:43:2d:ce:84:
         bd:d3:42:a4:40:29:0f:3a:47:96:82:19:79:91:7f:54:c8:5f:
         d3:c4:b0:6f:ff:b9:34:8d:01:64:17:fc:85:67:65:85:a0:e1:
         4b:f3:5e:77:7c:44:99:1f:fd:42:54:51:20:9c:f3:d8:3a:35:
         e4:47:9f:fd:0f:61:a1:6a:ea:5d:10:96:8b:b2:71:7f:1a:83:
         bb:2a:f6:e2:6d:d2:0a:1a:48:63:3d:7c:7d:aa:24:26:e5:95:
         5f:74:df:dc:56:ab:db:bc:91:bd:70:09:50:88:c7:d8:f6:62:
         90:1a:16:d9:b4:94:0b:d4:6a:0a:2c:2f:4b:c2:ec:86:46:f3:
         a4:c0:f4:8e:7b:9d:e9:97:07:32:b1:89:9a:38:ce:10:10:d2:
         dc:dd:c4:f1:ed:8c:e1:9d:c3:b3:84:d6:5d:49:35:55:a3:51:
         15:73:4d:24:50:e3:0c:a3:f7:91:bd:dd:33:ce:91:ac:4a:03:
         78:f6:77:b3:02:39:27:93:d3:8a:8e:b9:69:4a:2e:a7:a2:21:
         b6:3d:59:e3:fb:dc:0d:cb:2a:5a:20:38:36:45:09:de:51:4f:
         55:24:b8:72:6e:0a:f8:76:c3:e1:1f:20:ec:32:e9:34:5b:c2:
         0b:b8:7e:27:a3:c2:8f:db:a8:cb:a8:81:9d:68:e9:bc:35:cd:
         78:22:9a:87:26:7e:f5:84:94:59:96:c3:7a:06:7d:b0:da:7a:
         b8:3f:93:05:cc:1a:53:65:bb:7a:f2:4d:a5:56:ad:7a:26:b4:
         6b:c8:5e:06:d6:e9:43:b5:ca:75:2a:e4:16:45:8c:8c:d6:5e:
         18:d7:9e:9f:c0:b9:ed:70:84:8a:7f:bb:00:b5:85:02:5f:6c:
         48:af:8b:26:cf:e3:8b:35:66:85:b5:dc:76:81:64:66:45:94:
         ca:ab:27:a6:7f:44:bd:ac:7f:3b:ff:3e:bc:5e:3b:31:24:dc:
         8d:75:37:50:8d:67:88:34:9d:68:f6:f0:fa:69:2d:0a:f0:22:
         49:df:74:83:24:9d:d1:af:a7:fa:6a:70:9d:6f:29:c1:f3:3a:
         75:f6:b9:9a:3d:29:17:f3:66:39:8b:b9:43:50:1a:e1:05:21:
         f2:e0:c7:66:6b:e6:97:51:3f:9f:fe:8f:e1:1f:d0:03:05:8e:
         81:62:28:5b:a0:a2:bf:13:67:12:b7:79:88:5a:da:36:c0:35:
         b1:11:b9:fd:d7:e0:2d:6f
-----BEGIN CERTIFICATE-----
MIIGrDCCBJSgAwIBAgICCK0wDQYJKoZIhvcNAQEEBQAwgawxCzAJBgNVBAYTAlVT
MQswCQYDVQQIEwJPSDERMA8GA1UEBxMIQ29sdW1idXMxEjAQBgNVBAoTCVZpa2lu
Z1ZQTjEdMBsGA1UECxMUTXlPcmdhbml6YXRpb25hbFVuaXQxFTATBgNVBAMTDFZp
a2luZ1ZQTiBDQTEQMA4GA1UEKRMHRWFzeVJTQTEhMB8GCSqGSIb3DQEJARYSbWVA
bXlob3N0Lm15ZG9tYWluMB4XDTE0MDcwNjA0MTYyNVoXDTI0MDcwMzA0MTYyNVow
HjEcMBoGA1UEAxMTQ2xpZW50NzgyQ2VydGZkNzRiYTCCAiIwDQYJKoZIhvcNAQEB
BQADggIPADCCAgoCggIBANztMYPLfRtBURkZsNWm8QfHW9Jed+wCRvcihE5lnnqI
K8h6RjOFuguzDDFX62a5HN7OJlPk1GeKnO+6z100Tvj/9Teod0FnO0IzGSHvoLip
4EIy95YSXDiDQQr9h40ftzIUDT4FTcRVEtCexvgkwOLS2AO2dqbs5z3OCZDJxliv
vTyyekuPNHieq4UOVcHtcaOrFkvkxfv22fyKybe5CoGYWy5D+iul0/AEv1wrxf2Y
tNamAPx+DCL6Mf6+fqdCgtM926uuslrIOlf+PBLuKad1DGElWVvK7pWoZyIy9MnB
wSSTVp+K1jHKDjzdyRwQKREn50C0ovoY6VaZLfyisDBSjWfprOgIhDbhJZ+qMHlv
+kAXxTp723RBV1I7tiqXG5yvO55mj4wfvtBQcjEhT6Dik9aBXffe+nMIt7HoFBZH
yaMIP+idjFryj3Mm7g4fTisX9nErZAI7tRFVAvIhvLba7Uvj8H2PrkKMRGY5FdZT
ijQAIPbuMf1jRa+6XVl6yVl5HvQsMuPAhab24c3QIYBVD/4HfU0JC0V5heIK46oj
lXmidjpPiVhdrdcHy9wVNvnfolMfNm7uNf88zJ4aeOoVAwsRa421dutbdTm5cmVt
GHpIUwANIPP/xqW1F2cBhNWnS3ba4V+Zz3iTg6oFONz5naopR72eM/YaSY+UySUl
AgMBAAGjggFjMIIBXzAJBgNVHRMEAjAAMC0GCWCGSAGG+EIBDQQgFh5FYXN5LVJT
QSBHZW5lcmF0ZWQgQ2VydGlmaWNhdGUwHQYDVR0OBBYEFKVwoxl/ybP6lXB5+Z5/
INsnMZ3gMIHhBgNVHSMEgdkwgdaAFBLNYATSoICecO3Gmbh7LMZS/RmhoYGypIGv
MIGsMQswCQYDVQQGEwJVUzELMAkGA1UECBMCT0gxETAPBgNVBAcTCENvbHVtYnVz
MRIwEAYDVQQKEwlWaWtpbmdWUE4xHTAbBgNVBAsTFE15T3JnYW5pemF0aW9uYWxV
bml0MRUwEwYDVQQDEwxWaWtpbmdWUE4gQ0ExEDAOBgNVBCkTB0Vhc3lSU0ExITAf
BgkqhkiG9w0BCQEWEm1lQG15aG9zdC5teWRvbWFpboIJAM81he6Avyo+MBMGA1Ud
JQQMMAoGCCsGAQUFBwMCMAsGA1UdDwQEAwIHgDANBgkqhkiG9w0BAQQFAAOCAgEA
0fudEvLtjw9t5MW4Gh+ZjkNkKWc+hFZg74xbkMz4lbHgBEnFWLMzgcD/m7uiJrpy
ZURDLc6EvdNCpEApDzpHloIZeZF/VMhf08Swb/+5NI0BZBf8hWdlhaDhS/Ned3xE
mR/9QlRRIJzz2Do15Eef/Q9hoWrqXRCWi7JxfxqDuyr24m3SChpIYz18faokJuWV
X3Tf3Far27yRvXAJUIjH2PZikBoW2bSUC9RqCiwvS8LshkbzpMD0jnud6ZcHMrGJ
mjjOEBDS3N3E8e2M4Z3Ds4TWXUk1VaNRFXNNJFDjDKP3kb3dM86RrEoDePZ3swI5
J5PTio65aUoup6Ihtj1Z4/vcDcsqWiA4NkUJ3lFPVSS4cm4K+HbD4R8g7DLpNFvC
C7h+J6PCj9uoy6iBnWjpvDXNeCKahyZ+9YSUWZbDegZ9sNp6uD+TBcwaU2W7evJN
pVateia0a8heBtbpQ7XKdSrkFkWMjNZeGNeen8C57XCEin+7ALWFAl9sSK+LJs/j
izVmhbXcdoFkZkWUyqsnpn9Evax/O/8+vF47MSTcjXU3UI1niDSdaPbw+mktCvAi
Sd90gySd0a+n+mpwnW8pwfM6dfa5mj0pF/NmOYu5Q1Aa4QUh8uDHZmvml1E/n/6P
4R/QAwWOgWIoW6CivxNnErd5iFraNsA1sRG5/dfgLW8=
-----END CERTIFICATE-----
