Certificate:
    Data:
        Version: 3 (0x2)
        Serial Number: 1338 (0x53a)
    Signature Algorithm: md5WithRSAEncryption
        Issuer: C=US, ST=OH, L=Columbus, O=VikingVPN, OU=MyOrganizationalUnit, CN=VikingVPN CA/name=EasyRSA/emailAddress=me@myhost.mydomain
        Validity
            Not Before: Mar 22 00:57:57 2014 GMT
            Not After : Mar 19 00:57:57 2024 GMT
        Subject: CN=Client498Cert10fbe5
        Subject Public Key Info:
            Public Key Algorithm: rsaEncryption
                Public-Key: (4096 bit)
                Modulus:
                    00:b0:89:29:23:15:16:9a:7c:54:18:4c:b8:00:f2:
                    5f:ee:dc:6d:57:ba:fe:48:b0:ff:84:ef:12:5b:41:
                    c0:df:b3:94:c5:b3:e3:4f:87:dc:21:33:8a:5c:59:
                    73:58:51:63:7b:76:3c:db:db:ee:66:70:46:8e:0e:
                    0b:91:3a:e7:88:f1:c7:9e:5d:4a:d3:a3:a3:e5:25:
                    1b:23:e0:ba:eb:67:ed:0c:c8:13:af:0e:9d:cf:03:
                    12:3a:eb:44:2d:33:a5:35:d2:f0:f9:b7:32:21:4c:
                    53:cc:15:63:51:63:86:77:57:d4:18:19:5b:60:03:
                    6c:0e:df:df:bf:18:4f:a1:61:43:88:ae:df:cd:d9:
                    42:06:2e:85:2e:28:99:ea:6d:6e:89:a4:7f:ed:49:
                    9a:81:d3:b8:9b:a3:b1:6c:90:f1:c3:09:06:bb:f5:
                    c0:b7:f5:63:bf:e7:75:92:34:50:ae:5b:ca:29:4e:
                    22:76:ba:6c:df:6c:26:56:5a:eb:bf:65:9a:03:0d:
                    c3:e9:18:0f:2b:d7:9f:7c:2e:ff:b4:12:23:35:bd:
                    8b:22:02:5e:0e:75:41:6c:5b:25:24:57:21:9f:c1:
                    2e:7d:02:e2:b9:a2:89:66:5c:ec:d1:d6:16:6f:99:
                    8f:86:0c:ba:09:10:ef:9d:53:65:02:76:9d:65:51:
                    78:40:24:c7:b2:ab:de:c5:bc:be:2d:5b:4c:d5:bd:
                    2a:3e:62:e2:91:45:3f:d0:82:7a:d0:a9:23:02:31:
                    60:46:da:39:99:c4:e9:d5:ce:11:ca:e6:8b:f9:c0:
                    d8:60:ef:43:51:c2:9d:5e:48:4e:95:b2:4e:7c:7e:
                    a4:e6:d5:4d:a1:d5:46:f5:03:1d:60:c2:87:bc:6f:
                    44:0a:d2:b9:1e:b8:88:86:84:47:33:49:9b:72:55:
                    45:7c:36:ff:9d:8a:79:9a:5b:3a:58:ff:5f:23:31:
                    20:6f:28:0b:d5:5e:aa:4d:1e:23:e6:3d:1b:db:b0:
                    82:c8:0b:39:5c:9a:5f:8c:7e:a8:7e:9b:4c:ef:c7:
                    5c:97:6c:be:a6:96:c2:1b:fe:77:c0:83:96:00:b8:
                    b7:15:48:60:a9:ef:11:4b:6a:40:c8:db:88:fb:52:
                    b0:33:75:c2:95:af:4d:30:73:60:05:08:2f:5e:d6:
                    ac:52:5e:1b:af:fc:0d:eb:c4:02:9a:71:86:4b:5c:
                    cc:ad:a0:cd:6b:11:6f:6f:8c:32:e1:2f:24:42:89:
                    58:fb:c0:04:7c:b4:c4:a7:63:c5:e3:75:08:80:86:
                    a2:3c:59:40:85:bb:70:4d:06:43:10:11:7b:cc:b5:
                    4d:29:eb:5b:73:f1:79:0f:d4:54:17:24:03:2a:ef:
                    f8:b1:11
                Exponent: 65537 (0x10001)
        X509v3 extensions:
            X509v3 Basic Constraints: 
                CA:FALSE
            Netscape Comment: 
                Easy-RSA Generated Certificate
            X509v3 Subject Key Identifier: 
                ED:23:4F:CB:9B:17:37:A7:45:EE:CF:19:1E:B5:9C:AF:63:78:C2:3A
            X509v3 Authority Key Identifier: 
                keyid:12:CD:60:04:D2:A0:80:9E:70:ED:C6:99:B8:7B:2C:C6:52:FD:19:A1
                DirName:/C=US/ST=OH/L=Columbus/O=VikingVPN/OU=MyOrganizationalUnit/CN=VikingVPN CA/name=EasyRSA/emailAddress=me@myhost.mydomain
                serial:CF:35:85:EE:80:BF:2A:3E

            X509v3 Extended Key Usage: 
                TLS Web Client Authentication
            X509v3 Key Usage: 
                Digital Signature
    Signature Algorithm: md5WithRSAEncryption
         78:93:53:ea:c2:12:b5:2a:1c:74:0b:c7:2e:e6:e4:1a:64:af:
         df:81:dd:c5:d0:00:a9:f1:1e:92:c0:0c:f0:73:7c:8b:03:41:
         ae:1d:9a:ae:a8:66:7b:ca:18:23:15:38:7d:d4:45:3d:14:c8:
         0a:17:87:c0:e3:25:5b:48:92:f9:2e:50:cc:34:67:dc:d9:42:
         3c:69:f5:97:87:01:26:36:29:4d:44:cc:e2:cd:ec:53:aa:04:
         3f:9a:1d:c7:eb:14:0d:2e:c5:74:02:d8:7f:a9:4d:92:0b:b1:
         85:3f:93:b0:c2:88:de:ed:f4:d6:95:73:41:fb:38:82:84:36:
         e3:d7:1c:2e:19:ac:61:b4:61:4d:07:ee:c4:fd:65:2e:d7:a3:
         f3:41:fc:24:a9:04:f1:2b:78:55:dc:b1:ad:d7:7a:e1:7a:f4:
         d8:77:fa:91:8e:4e:00:e5:a4:6e:60:b0:d7:83:2e:6b:c0:59:
         64:1e:0b:b7:6c:b4:99:2d:c3:f0:9a:26:bb:41:e6:b3:ca:f7:
         92:38:0c:47:b6:52:81:b4:96:67:3e:41:a7:d4:93:d2:1f:aa:
         cd:4f:ae:8e:97:81:6c:27:c6:ec:de:4b:f5:3f:59:6f:65:4b:
         0e:4f:2e:7c:ab:0b:b4:78:37:0e:b3:50:64:38:5d:d1:97:56:
         3c:42:d8:5b:94:60:5c:45:10:e7:2e:36:ca:6a:c4:28:78:57:
         ca:3b:09:d9:e0:5b:c5:2d:9b:ff:6a:fd:81:10:df:d3:13:28:
         de:af:04:c9:90:7c:13:2b:73:1a:c3:c7:f6:81:d8:85:7b:d5:
         0c:7b:ff:95:65:cf:54:6b:9e:15:53:96:f1:78:82:cf:06:28:
         ea:ab:9e:3a:2e:fa:2a:54:35:eb:ea:3f:4e:4b:e2:63:67:7c:
         b2:da:df:5c:06:e6:91:a5:44:2c:9a:3a:86:bd:df:b0:92:eb:
         f8:2f:dc:64:b7:01:64:9e:a6:dd:f2:df:88:68:bb:b2:1d:10:
         47:cb:be:81:9d:43:48:98:37:f9:de:08:9b:fe:d8:55:b1:f4:
         d5:89:b8:98:45:17:93:e9:08:3a:9c:f1:65:1c:7e:79:ab:92:
         c9:ec:73:51:28:e2:98:62:00:04:fb:8f:c0:a9:a0:ef:cf:76:
         8c:f5:bf:f9:f6:08:d8:79:2e:ff:ac:ef:82:39:51:b0:e5:af:
         9f:4d:d3:1d:2c:00:7c:3d:18:a8:10:85:9b:7e:59:b9:e8:e6:
         26:1a:52:8f:29:33:1d:cd:41:0b:d8:18:b6:f1:f4:b3:49:84:
         89:95:26:56:e6:b1:cf:03:02:82:87:57:ba:a1:f2:ad:db:40:
         d4:6d:f4:e5:43:9f:1d:29
-----BEGIN CERTIFICATE-----
MIIGrDCCBJSgAwIBAgICBTowDQYJKoZIhvcNAQEEBQAwgawxCzAJBgNVBAYTAlVT
MQswCQYDVQQIEwJPSDERMA8GA1UEBxMIQ29sdW1idXMxEjAQBgNVBAoTCVZpa2lu
Z1ZQTjEdMBsGA1UECxMUTXlPcmdhbml6YXRpb25hbFVuaXQxFTATBgNVBAMTDFZp
a2luZ1ZQTiBDQTEQMA4GA1UEKRMHRWFzeVJTQTEhMB8GCSqGSIb3DQEJARYSbWVA
bXlob3N0Lm15ZG9tYWluMB4XDTE0MDMyMjAwNTc1N1oXDTI0MDMxOTAwNTc1N1ow
HjEcMBoGA1UEAxMTQ2xpZW50NDk4Q2VydDEwZmJlNTCCAiIwDQYJKoZIhvcNAQEB
BQADggIPADCCAgoCggIBALCJKSMVFpp8VBhMuADyX+7cbVe6/kiw/4TvEltBwN+z
lMWz40+H3CEzilxZc1hRY3t2PNvb7mZwRo4OC5E654jxx55dStOjo+UlGyPguutn
7QzIE68Onc8DEjrrRC0zpTXS8Pm3MiFMU8wVY1FjhndX1BgZW2ADbA7f378YT6Fh
Q4iu383ZQgYuhS4omeptbomkf+1JmoHTuJujsWyQ8cMJBrv1wLf1Y7/ndZI0UK5b
yilOIna6bN9sJlZa679lmgMNw+kYDyvXn3wu/7QSIzW9iyICXg51QWxbJSRXIZ/B
Ln0C4rmiiWZc7NHWFm+Zj4YMugkQ751TZQJ2nWVReEAkx7Kr3sW8vi1bTNW9Kj5i
4pFFP9CCetCpIwIxYEbaOZnE6dXOEcrmi/nA2GDvQ1HCnV5ITpWyTnx+pObVTaHV
RvUDHWDCh7xvRArSuR64iIaERzNJm3JVRXw2/52KeZpbOlj/XyMxIG8oC9Veqk0e
I+Y9G9uwgsgLOVyaX4x+qH6bTO/HXJdsvqaWwhv+d8CDlgC4txVIYKnvEUtqQMjb
iPtSsDN1wpWvTTBzYAUIL17WrFJeG6/8DevEAppxhktczK2gzWsRb2+MMuEvJEKJ
WPvABHy0xKdjxeN1CICGojxZQIW7cE0GQxARe8y1TSnrW3PxeQ/UVBckAyrv+LER
AgMBAAGjggFjMIIBXzAJBgNVHRMEAjAAMC0GCWCGSAGG+EIBDQQgFh5FYXN5LVJT
QSBHZW5lcmF0ZWQgQ2VydGlmaWNhdGUwHQYDVR0OBBYEFO0jT8ubFzenRe7PGR61
nK9jeMI6MIHhBgNVHSMEgdkwgdaAFBLNYATSoICecO3Gmbh7LMZS/RmhoYGypIGv
MIGsMQswCQYDVQQGEwJVUzELMAkGA1UECBMCT0gxETAPBgNVBAcTCENvbHVtYnVz
MRIwEAYDVQQKEwlWaWtpbmdWUE4xHTAbBgNVBAsTFE15T3JnYW5pemF0aW9uYWxV
bml0MRUwEwYDVQQDEwxWaWtpbmdWUE4gQ0ExEDAOBgNVBCkTB0Vhc3lSU0ExITAf
BgkqhkiG9w0BCQEWEm1lQG15aG9zdC5teWRvbWFpboIJAM81he6Avyo+MBMGA1Ud
JQQMMAoGCCsGAQUFBwMCMAsGA1UdDwQEAwIHgDANBgkqhkiG9w0BAQQFAAOCAgEA
eJNT6sIStSocdAvHLubkGmSv34HdxdAAqfEeksAM8HN8iwNBrh2arqhme8oYIxU4
fdRFPRTICheHwOMlW0iS+S5QzDRn3NlCPGn1l4cBJjYpTUTM4s3sU6oEP5odx+sU
DS7FdALYf6lNkguxhT+TsMKI3u301pVzQfs4goQ249ccLhmsYbRhTQfuxP1lLtej
80H8JKkE8St4Vdyxrdd64Xr02Hf6kY5OAOWkbmCw14Mua8BZZB4Lt2y0mS3D8Jom
u0Hms8r3kjgMR7ZSgbSWZz5Bp9ST0h+qzU+ujpeBbCfG7N5L9T9Zb2VLDk8ufKsL
tHg3DrNQZDhd0ZdWPELYW5RgXEUQ5y42ymrEKHhXyjsJ2eBbxS2b/2r9gRDf0xMo
3q8EyZB8EytzGsPH9oHYhXvVDHv/lWXPVGueFVOW8XiCzwYo6queOi76KlQ16+o/
TkviY2d8strfXAbmkaVELJo6hr3fsJLr+C/cZLcBZJ6m3fLfiGi7sh0QR8u+gZ1D
SJg3+d4Im/7YVbH01Ym4mEUXk+kIOpzxZRx+eauSyexzUSjimGIABPuPwKmg7892
jPW/+fYI2Hku/6zvgjlRsOWvn03THSwAfD0YqBCFm35ZuejmJhpSjykzHc1BC9gY
tvH0s0mEiZUmVuaxzwMCgodXuqHyrdtA1G305UOfHSk=
-----END CERTIFICATE-----
