Certificate:
    Data:
        Version: 3 (0x2)
        Serial Number: 2053 (0x805)
    Signature Algorithm: md5WithRSAEncryption
        Issuer: C=US, ST=OH, L=Columbus, O=VikingVPN, OU=MyOrganizationalUnit, CN=VikingVPN CA/name=EasyRSA/emailAddress=me@myhost.mydomain
        Validity
            Not Before: Jun  7 18:40:00 2014 GMT
            Not After : Jun  4 18:40:00 2024 GMT
        Subject: CN=Client380Cert4add19
        Subject Public Key Info:
            Public Key Algorithm: rsaEncryption
                Public-Key: (4096 bit)
                Modulus:
                    00:a8:ee:4d:e2:43:60:a9:5f:30:5d:c8:27:f2:ff:
                    f5:11:92:60:7c:fc:0a:86:7c:aa:53:65:38:f8:01:
                    68:26:19:8b:8a:ce:84:11:ee:d6:0c:aa:e1:b3:79:
                    2f:d7:e4:9f:cb:9a:2b:2e:fa:7e:d9:5d:46:ca:f9:
                    a8:a7:4a:6e:94:ea:ef:28:ad:03:36:96:92:82:be:
                    a3:cf:44:e7:1d:1b:a5:9d:c8:9e:56:0f:5b:74:63:
                    dc:bf:42:e3:b6:4a:7d:a6:6d:34:22:40:ec:c4:1d:
                    7e:4b:0c:74:ba:ec:98:de:44:5b:0b:ee:8c:24:65:
                    a0:d4:70:46:78:84:66:40:3e:2a:e5:a4:94:2d:c6:
                    bf:19:4c:f3:a7:2a:91:51:73:5a:21:1c:df:ec:6b:
                    2e:b2:4b:17:3d:ee:84:81:04:60:7a:14:23:57:75:
                    94:a2:45:f5:d3:d8:c9:60:18:78:f9:b4:58:38:77:
                    23:42:6b:4b:bd:70:d9:df:42:78:b8:88:9f:7c:6c:
                    e4:f6:b6:80:4b:c5:91:e1:cc:ad:c6:03:f7:f5:a7:
                    91:04:86:79:ff:01:67:47:6b:b0:35:0b:68:9a:80:
                    a6:dd:2b:d0:56:03:05:8d:9b:2f:4a:1a:46:9c:10:
                    a7:4b:a3:9f:09:db:36:08:f1:86:f8:34:6a:33:c1:
                    cf:3b:e9:ae:ce:9e:0d:47:32:7a:f6:de:6d:5c:0d:
                    f2:aa:d7:5f:d3:55:d8:8c:c2:9f:80:0a:16:83:6c:
                    c6:4b:8a:a7:9e:c3:4d:59:d0:d2:b6:0f:0d:60:37:
                    59:a8:be:50:43:7a:4d:53:00:fd:2d:6e:ae:5e:c9:
                    c4:ff:ad:9b:c7:b0:3f:ec:24:7d:72:1b:a3:e8:e9:
                    15:d2:19:f9:b1:7b:04:3a:50:7c:56:dc:9f:13:29:
                    5b:3f:a6:3d:19:38:12:e4:fa:36:b8:3e:21:0e:a3:
                    a2:89:55:80:5b:f8:1e:05:06:d1:23:6c:6b:ff:fc:
                    82:e1:66:c4:6d:94:ae:d6:6a:bb:c8:c2:45:1c:d3:
                    a0:5d:9f:5e:31:f6:8f:9d:c3:d7:54:9f:27:92:2e:
                    0e:bc:a6:11:55:4f:3f:14:46:9c:2c:66:62:08:6c:
                    b5:b8:59:d3:f3:13:89:85:3c:8d:ee:5c:86:12:21:
                    dd:75:cf:50:87:ac:6d:de:9b:fb:33:3c:c6:85:9e:
                    1b:e7:af:28:6c:f4:d4:24:48:2c:4b:af:03:69:b2:
                    89:c6:de:e9:24:c8:3f:1d:0b:4b:8d:ed:50:a6:2e:
                    3c:ac:8c:34:29:7b:ec:aa:5f:30:ff:7c:6f:b9:6d:
                    fc:48:3c:ab:28:d0:97:d6:70:b9:2a:59:63:5b:94:
                    0b:e3:3b
                Exponent: 65537 (0x10001)
        X509v3 extensions:
            X509v3 Basic Constraints: 
                CA:FALSE
            Netscape Comment: 
                Easy-RSA Generated Certificate
            X509v3 Subject Key Identifier: 
                01:BF:7F:0F:CE:61:AE:1B:27:B4:A4:1F:6F:F6:1B:11:1D:6A:27:66
            X509v3 Authority Key Identifier: 
                keyid:12:CD:60:04:D2:A0:80:9E:70:ED:C6:99:B8:7B:2C:C6:52:FD:19:A1
                DirName:/C=US/ST=OH/L=Columbus/O=VikingVPN/OU=MyOrganizationalUnit/CN=VikingVPN CA/name=EasyRSA/emailAddress=me@myhost.mydomain
                serial:CF:35:85:EE:80:BF:2A:3E

            X509v3 Extended Key Usage: 
                TLS Web Client Authentication
            X509v3 Key Usage: 
                Digital Signature
    Signature Algorithm: md5WithRSAEncryption
         da:6f:df:b3:f5:2f:1e:ec:90:d5:9b:5e:82:1d:85:e4:a5:7a:
         0f:26:87:2a:e9:f3:65:6d:2f:b1:6c:fe:85:db:c0:cf:7f:ae:
         4c:e2:34:f8:cc:6e:e1:f4:ef:0d:a1:fa:71:c4:94:27:1a:22:
         81:30:10:6f:c1:57:9e:b2:a2:c7:c3:46:b0:e2:c6:45:8f:6d:
         f9:94:0d:a6:ef:a4:fa:8d:5f:47:a6:63:2b:09:8e:33:b5:26:
         ee:cc:0b:5f:9b:64:5a:fb:c8:49:cf:8f:00:70:55:eb:ab:f9:
         24:70:63:3f:88:7f:15:01:84:45:b2:74:ec:86:74:59:4f:92:
         de:91:9f:22:12:40:dd:f4:bc:28:5b:11:19:29:ed:b7:a4:02:
         5b:a8:c3:0f:b6:4f:91:fd:73:d0:3e:ec:7a:8a:f1:b6:ed:04:
         de:ea:e2:18:86:b9:b8:66:c2:4a:03:12:d4:6e:62:f9:5d:ab:
         12:31:04:7c:c2:19:7f:11:de:21:3e:b8:96:11:16:83:0e:3e:
         c8:d3:05:fe:90:ac:bd:6d:ee:92:a4:1f:1b:dc:4c:49:93:75:
         86:a3:54:2d:89:27:8c:b7:4e:b7:ef:c7:db:62:4f:dc:63:8d:
         1f:af:11:69:a0:f1:ff:bd:14:a1:41:d4:cf:71:9d:50:74:7d:
         b0:65:7e:5f:ad:55:27:7f:cc:ad:7d:af:f9:a0:b1:e9:be:e8:
         fc:44:44:27:65:35:d4:73:9b:1b:c2:50:35:a4:a8:a6:08:44:
         ca:d8:0d:06:b3:0e:55:26:ae:69:3d:0c:ef:0b:cc:1d:cd:bb:
         35:de:4e:23:02:7e:6c:91:ac:11:1f:09:9f:47:59:c6:5d:23:
         f6:75:36:2b:13:6a:d7:f2:73:7c:7e:8a:3b:72:28:04:91:87:
         f9:ea:28:de:c8:a0:cd:b7:29:a9:e8:72:e3:63:bc:a5:52:33:
         c7:a4:54:2a:23:6b:f2:de:50:1c:5c:6a:65:39:ba:21:17:11:
         33:91:47:41:42:00:f0:cf:67:20:a4:c3:d9:39:1e:65:50:96:
         aa:60:e7:8c:41:a9:47:42:46:83:23:8a:00:b9:81:3a:c5:88:
         7e:0e:76:75:35:b6:eb:d5:5c:1f:e0:56:ff:7a:27:0b:7c:e6:
         ab:a6:34:ee:1e:91:14:9a:56:6c:d7:d7:12:31:ac:af:13:94:
         99:aa:29:5f:99:42:73:9d:02:84:3a:eb:ce:04:05:18:a8:5a:
         36:84:6b:5e:f6:ae:02:9e:b9:45:97:55:ac:d0:c0:81:ba:7a:
         d9:47:d2:49:b5:57:25:01:f0:da:db:6c:2c:02:5c:ba:a0:76:
         6e:25:1d:dd:f9:05:6d:b5
-----BEGIN CERTIFICATE-----
MIIGrDCCBJSgAwIBAgICCAUwDQYJKoZIhvcNAQEEBQAwgawxCzAJBgNVBAYTAlVT
MQswCQYDVQQIEwJPSDERMA8GA1UEBxMIQ29sdW1idXMxEjAQBgNVBAoTCVZpa2lu
Z1ZQTjEdMBsGA1UECxMUTXlPcmdhbml6YXRpb25hbFVuaXQxFTATBgNVBAMTDFZp
a2luZ1ZQTiBDQTEQMA4GA1UEKRMHRWFzeVJTQTEhMB8GCSqGSIb3DQEJARYSbWVA
bXlob3N0Lm15ZG9tYWluMB4XDTE0MDYwNzE4NDAwMFoXDTI0MDYwNDE4NDAwMFow
HjEcMBoGA1UEAxMTQ2xpZW50MzgwQ2VydDRhZGQxOTCCAiIwDQYJKoZIhvcNAQEB
BQADggIPADCCAgoCggIBAKjuTeJDYKlfMF3IJ/L/9RGSYHz8CoZ8qlNlOPgBaCYZ
i4rOhBHu1gyq4bN5L9fkn8uaKy76ftldRsr5qKdKbpTq7yitAzaWkoK+o89E5x0b
pZ3InlYPW3Rj3L9C47ZKfaZtNCJA7MQdfksMdLrsmN5EWwvujCRloNRwRniEZkA+
KuWklC3GvxlM86cqkVFzWiEc3+xrLrJLFz3uhIEEYHoUI1d1lKJF9dPYyWAYePm0
WDh3I0JrS71w2d9CeLiIn3xs5Pa2gEvFkeHMrcYD9/WnkQSGef8BZ0drsDULaJqA
pt0r0FYDBY2bL0oaRpwQp0ujnwnbNgjxhvg0ajPBzzvprs6eDUcyevbebVwN8qrX
X9NV2IzCn4AKFoNsxkuKp57DTVnQ0rYPDWA3Wai+UEN6TVMA/S1url7JxP+tm8ew
P+wkfXIbo+jpFdIZ+bF7BDpQfFbcnxMpWz+mPRk4EuT6Nrg+IQ6joolVgFv4HgUG
0SNsa//8guFmxG2UrtZqu8jCRRzToF2fXjH2j53D11SfJ5IuDrymEVVPPxRGnCxm
YghstbhZ0/MTiYU8je5chhIh3XXPUIesbd6b+zM8xoWeG+evKGz01CRILEuvA2my
icbe6STIPx0LS43tUKYuPKyMNCl77KpfMP98b7lt/Eg8qyjQl9ZwuSpZY1uUC+M7
AgMBAAGjggFjMIIBXzAJBgNVHRMEAjAAMC0GCWCGSAGG+EIBDQQgFh5FYXN5LVJT
QSBHZW5lcmF0ZWQgQ2VydGlmaWNhdGUwHQYDVR0OBBYEFAG/fw/OYa4bJ7SkH2/2
GxEdaidmMIHhBgNVHSMEgdkwgdaAFBLNYATSoICecO3Gmbh7LMZS/RmhoYGypIGv
MIGsMQswCQYDVQQGEwJVUzELMAkGA1UECBMCT0gxETAPBgNVBAcTCENvbHVtYnVz
MRIwEAYDVQQKEwlWaWtpbmdWUE4xHTAbBgNVBAsTFE15T3JnYW5pemF0aW9uYWxV
bml0MRUwEwYDVQQDEwxWaWtpbmdWUE4gQ0ExEDAOBgNVBCkTB0Vhc3lSU0ExITAf
BgkqhkiG9w0BCQEWEm1lQG15aG9zdC5teWRvbWFpboIJAM81he6Avyo+MBMGA1Ud
JQQMMAoGCCsGAQUFBwMCMAsGA1UdDwQEAwIHgDANBgkqhkiG9w0BAQQFAAOCAgEA
2m/fs/UvHuyQ1Ztegh2F5KV6DyaHKunzZW0vsWz+hdvAz3+uTOI0+Mxu4fTvDaH6
ccSUJxoigTAQb8FXnrKix8NGsOLGRY9t+ZQNpu+k+o1fR6ZjKwmOM7Um7swLX5tk
WvvISc+PAHBV66v5JHBjP4h/FQGERbJ07IZ0WU+S3pGfIhJA3fS8KFsRGSntt6QC
W6jDD7ZPkf1z0D7seorxtu0E3uriGIa5uGbCSgMS1G5i+V2rEjEEfMIZfxHeIT64
lhEWgw4+yNMF/pCsvW3ukqQfG9xMSZN1hqNULYknjLdOt+/H22JP3GONH68RaaDx
/70UoUHUz3GdUHR9sGV+X61VJ3/MrX2v+aCx6b7o/EREJ2U11HObG8JQNaSopghE
ytgNBrMOVSauaT0M7wvMHc27Nd5OIwJ+bJGsER8Jn0dZxl0j9nU2KxNq1/JzfH6K
O3IoBJGH+eoo3sigzbcpqehy42O8pVIzx6RUKiNr8t5QHFxqZTm6IRcRM5FHQUIA
8M9nIKTD2TkeZVCWqmDnjEGpR0JGgyOKALmBOsWIfg52dTW269VcH+BW/3onC3zm
q6Y07h6RFJpWbNfXEjGsrxOUmaopX5lCc50ChDrrzgQFGKhaNoRrXvauAp65RZdV
rNDAgbp62UfSSbVXJQHw2ttsLAJcuqB2biUd3fkFbbU=
-----END CERTIFICATE-----
