Certificate:
    Data:
        Version: 3 (0x2)
        Serial Number: 7791 (0x1e6f)
    Signature Algorithm: md5WithRSAEncryption
        Issuer: C=US, ST=OH, L=Columbus, O=VikingVPN, OU=MyOrganizationalUnit, CN=VikingVPN CA/name=EasyRSA/emailAddress=me@myhost.mydomain
        Validity
            Not Before: Apr 20 00:18:14 2016 GMT
            Not After : Apr 18 00:18:14 2026 GMT
        Subject: CN=Client2264Certfa6515
        Subject Public Key Info:
            Public Key Algorithm: rsaEncryption
                Public-Key: (4096 bit)
                Modulus:
                    00:ba:9d:7e:25:c3:96:ef:dd:33:27:22:e5:5b:9d:
                    47:95:68:e0:39:5a:ca:7c:b0:c2:3d:e7:df:dc:5c:
                    0b:44:0c:ea:2f:ec:fc:c8:1a:f3:a1:eb:d1:f5:94:
                    5e:02:b9:ed:4c:2b:06:b5:79:8b:f8:c7:12:aa:e6:
                    fc:c9:66:d2:46:05:bc:92:1c:08:55:58:16:68:69:
                    ec:bb:02:88:ab:13:e8:48:64:99:f3:d5:e0:86:ac:
                    e1:8b:ea:25:3f:a9:a3:ef:7f:93:28:7b:7e:04:d2:
                    06:a7:c3:77:e3:a5:80:b3:6e:80:49:07:5c:ff:54:
                    a4:d6:be:73:42:94:2c:3e:6e:de:17:cd:90:22:43:
                    f2:35:8d:e0:60:de:79:40:62:91:e4:37:62:96:fc:
                    f6:1e:f6:9c:f9:d6:a9:08:fd:b2:90:1d:15:57:18:
                    ca:8f:38:02:6a:5b:76:b3:68:90:30:71:82:78:6e:
                    d8:9e:e6:50:60:e0:a0:6e:cb:e3:cf:86:f4:84:c3:
                    9b:43:b9:9d:8a:59:d0:74:e6:52:fd:8e:0d:3c:20:
                    96:fe:68:55:19:ce:10:df:f5:5f:ef:0f:0b:ee:44:
                    6b:e8:d5:41:95:04:3f:55:6b:ff:a4:7c:18:7c:ac:
                    bb:59:5b:31:44:87:69:b0:fe:cb:e8:26:f3:55:a2:
                    14:b0:77:3e:d0:61:8b:8b:33:cd:29:31:aa:98:8f:
                    32:26:75:cf:3a:bf:c5:9b:d5:16:52:e8:a0:0d:aa:
                    5b:b1:fd:8a:bd:0a:02:c3:1f:ef:ff:76:f4:9f:0c:
                    29:de:e5:c9:65:25:6c:37:9b:89:fc:39:33:f0:1d:
                    5d:49:62:37:65:41:b0:a5:f3:a7:d8:a5:64:67:28:
                    63:45:07:c9:7d:ea:74:03:94:6f:a6:d5:9a:0e:73:
                    5c:8b:3f:51:e9:8d:b4:d7:90:08:b5:dc:76:21:38:
                    30:13:11:fa:78:20:19:07:63:bc:73:df:68:17:22:
                    69:b5:37:a4:21:ac:80:7b:fd:eb:4e:20:15:d3:4e:
                    7c:1c:e9:54:a2:ce:af:69:a2:a1:5d:9e:53:9f:9a:
                    94:47:19:e4:37:10:38:b4:8c:ec:f0:fa:ae:51:56:
                    23:cd:50:ad:96:d6:86:e2:8e:a2:fd:62:e6:6d:e9:
                    88:77:ac:f5:49:f5:fa:43:09:1e:f2:4d:17:81:ab:
                    7c:fd:7b:ca:0d:c6:18:3f:6a:32:22:45:8f:c8:3f:
                    06:74:89:a6:3d:0b:18:fc:64:b2:bb:47:5d:bd:d3:
                    07:8f:ad:2d:5c:d2:88:9e:0e:01:b9:c3:73:e5:5a:
                    50:0c:5f:8b:15:46:45:f0:94:3a:74:a3:ec:5d:dd:
                    a8:c3:23
                Exponent: 65537 (0x10001)
        X509v3 extensions:
            X509v3 Basic Constraints: 
                CA:FALSE
            Netscape Comment: 
                Easy-RSA Generated Certificate
            X509v3 Subject Key Identifier: 
                E8:4D:B1:60:25:BA:0B:63:2C:B5:E1:59:C3:2E:D5:0F:99:7E:D0:B5
            X509v3 Authority Key Identifier: 
                keyid:12:CD:60:04:D2:A0:80:9E:70:ED:C6:99:B8:7B:2C:C6:52:FD:19:A1
                DirName:/C=US/ST=OH/L=Columbus/O=VikingVPN/OU=MyOrganizationalUnit/CN=VikingVPN CA/name=EasyRSA/emailAddress=me@myhost.mydomain
                serial:CF:35:85:EE:80:BF:2A:3E

            X509v3 Extended Key Usage: 
                TLS Web Client Authentication
            X509v3 Key Usage: 
                Digital Signature
    Signature Algorithm: md5WithRSAEncryption
         3a:d3:6b:44:83:c0:af:fb:1d:e0:a3:19:d9:9e:23:55:1d:64:
         ed:a4:de:a7:b3:79:12:04:3a:5d:7b:49:90:c7:f2:f7:2e:dd:
         a6:b8:be:ae:68:f4:df:4d:27:52:99:8e:5f:51:cd:d9:1a:80:
         35:c2:88:55:39:ea:85:e6:ee:bd:20:b4:94:e7:dc:66:02:fc:
         49:85:8a:09:ad:fe:30:38:40:ec:f1:46:12:20:e0:1d:7f:85:
         73:aa:62:48:e2:7b:65:e8:9d:25:d1:53:6f:07:b9:5c:8c:93:
         08:1f:5e:4e:d8:f7:36:3d:e7:2a:66:bb:e2:d0:8d:1c:09:e7:
         b8:32:e8:43:44:cb:93:81:2d:c4:7b:c9:12:37:dd:76:de:60:
         5e:ba:d5:ee:f6:07:9e:19:0b:d8:06:25:a6:ba:c6:11:60:4f:
         35:a5:8f:5b:89:ac:0b:bf:49:2f:5b:bf:cd:91:21:bf:c4:e6:
         3a:34:0f:b6:15:b3:e4:ca:a1:39:91:8f:4f:70:d5:b6:ad:7e:
         d8:3c:6e:84:03:2c:da:7a:80:a2:06:1d:ab:1b:cd:97:c1:e7:
         9c:a9:87:3f:af:e9:12:0c:8c:60:5d:e2:1a:e5:e0:73:b6:0b:
         18:f4:b4:8b:75:25:ba:44:db:17:f2:81:09:e9:2f:1b:20:64:
         fc:99:f8:c0:58:68:a5:75:24:d9:2a:4c:6c:d8:c2:93:75:83:
         7b:b5:b3:76:24:db:61:5e:3e:30:27:13:9d:df:0a:e7:70:8f:
         ae:f8:a3:0c:ec:49:ee:52:b6:36:ff:5c:a1:a6:a7:ef:14:fb:
         de:d7:46:fb:13:8e:ae:84:7e:ed:09:af:cb:b1:e3:a6:67:3d:
         60:c3:f2:94:b6:53:34:00:a0:c6:a3:6d:e0:30:0b:b6:89:ee:
         4c:2f:31:0f:49:62:7b:b2:f6:06:f3:2c:8e:80:d6:47:1d:d9:
         49:a4:03:20:70:96:d7:eb:6a:33:39:6b:03:76:fa:65:c9:3f:
         0a:6e:c4:a0:c8:7c:27:ac:ab:5f:c2:bb:0c:96:0a:fe:8d:05:
         c7:08:50:e3:f2:3f:6e:a0:a2:a0:3e:f3:6e:bd:7c:72:ab:8f:
         6d:8b:95:7b:57:1d:b5:f8:b6:84:a0:d4:77:85:57:cc:49:36:
         f4:c9:9b:9d:1d:72:58:4f:9a:56:7c:2b:48:9d:06:f9:89:ea:
         7a:6a:bf:e2:98:2a:ef:02:54:47:3f:76:37:c2:9b:4f:99:af:
         5a:da:e1:10:f5:b8:8b:60:5a:d3:bc:6c:57:68:3a:0e:3d:d3:
         57:02:64:87:3c:0b:30:c9:5f:ff:53:3f:70:da:7a:38:bb:d5:
         b9:96:28:32:52:7a:ce:66
-----BEGIN CERTIFICATE-----
MIIGrTCCBJWgAwIBAgICHm8wDQYJKoZIhvcNAQEEBQAwgawxCzAJBgNVBAYTAlVT
MQswCQYDVQQIEwJPSDERMA8GA1UEBxMIQ29sdW1idXMxEjAQBgNVBAoTCVZpa2lu
Z1ZQTjEdMBsGA1UECxMUTXlPcmdhbml6YXRpb25hbFVuaXQxFTATBgNVBAMTDFZp
a2luZ1ZQTiBDQTEQMA4GA1UEKRMHRWFzeVJTQTEhMB8GCSqGSIb3DQEJARYSbWVA
bXlob3N0Lm15ZG9tYWluMB4XDTE2MDQyMDAwMTgxNFoXDTI2MDQxODAwMTgxNFow
HzEdMBsGA1UEAxMUQ2xpZW50MjI2NENlcnRmYTY1MTUwggIiMA0GCSqGSIb3DQEB
AQUAA4ICDwAwggIKAoICAQC6nX4lw5bv3TMnIuVbnUeVaOA5Wsp8sMI959/cXAtE
DOov7PzIGvOh69H1lF4Cue1MKwa1eYv4xxKq5vzJZtJGBbySHAhVWBZoaey7Aoir
E+hIZJnz1eCGrOGL6iU/qaPvf5Moe34E0ganw3fjpYCzboBJB1z/VKTWvnNClCw+
bt4XzZAiQ/I1jeBg3nlAYpHkN2KW/PYe9pz51qkI/bKQHRVXGMqPOAJqW3azaJAw
cYJ4btie5lBg4KBuy+PPhvSEw5tDuZ2KWdB05lL9jg08IJb+aFUZzhDf9V/vDwvu
RGvo1UGVBD9Va/+kfBh8rLtZWzFEh2mw/svoJvNVohSwdz7QYYuLM80pMaqYjzIm
dc86v8Wb1RZS6KANqlux/Yq9CgLDH+//dvSfDCne5cllJWw3m4n8OTPwHV1JYjdl
QbCl86fYpWRnKGNFB8l96nQDlG+m1ZoOc1yLP1HpjbTXkAi13HYhODATEfp4IBkH
Y7xz32gXImm1N6QhrIB7/etOIBXTTnwc6VSizq9poqFdnlOfmpRHGeQ3EDi0jOzw
+q5RViPNUK2W1obijqL9YuZt6Yh3rPVJ9fpDCR7yTReBq3z9e8oNxhg/ajIiRY/I
PwZ0iaY9Cxj8ZLK7R1290wePrS1c0oieDgG5w3PlWlAMX4sVRkXwlDp0o+xd3ajD
IwIDAQABo4IBYzCCAV8wCQYDVR0TBAIwADAtBglghkgBhvhCAQ0EIBYeRWFzeS1S
U0EgR2VuZXJhdGVkIENlcnRpZmljYXRlMB0GA1UdDgQWBBToTbFgJboLYyy14VnD
LtUPmX7QtTCB4QYDVR0jBIHZMIHWgBQSzWAE0qCAnnDtxpm4eyzGUv0ZoaGBsqSB
rzCBrDELMAkGA1UEBhMCVVMxCzAJBgNVBAgTAk9IMREwDwYDVQQHEwhDb2x1bWJ1
czESMBAGA1UEChMJVmlraW5nVlBOMR0wGwYDVQQLExRNeU9yZ2FuaXphdGlvbmFs
VW5pdDEVMBMGA1UEAxMMVmlraW5nVlBOIENBMRAwDgYDVQQpEwdFYXN5UlNBMSEw
HwYJKoZIhvcNAQkBFhJtZUBteWhvc3QubXlkb21haW6CCQDPNYXugL8qPjATBgNV
HSUEDDAKBggrBgEFBQcDAjALBgNVHQ8EBAMCB4AwDQYJKoZIhvcNAQEEBQADggIB
ADrTa0SDwK/7HeCjGdmeI1UdZO2k3qezeRIEOl17SZDH8vcu3aa4vq5o9N9NJ1KZ
jl9RzdkagDXCiFU56oXm7r0gtJTn3GYC/EmFigmt/jA4QOzxRhIg4B1/hXOqYkji
e2XonSXRU28HuVyMkwgfXk7Y9zY95ypmu+LQjRwJ57gy6ENEy5OBLcR7yRI33Xbe
YF661e72B54ZC9gGJaa6xhFgTzWlj1uJrAu/SS9bv82RIb/E5jo0D7YVs+TKoTmR
j09w1batftg8boQDLNp6gKIGHasbzZfB55yphz+v6RIMjGBd4hrl4HO2Cxj0tIt1
JbpE2xfygQnpLxsgZPyZ+MBYaKV1JNkqTGzYwpN1g3u1s3Yk22FePjAnE53fCudw
j674owzsSe5Stjb/XKGmp+8U+97XRvsTjq6Efu0Jr8ux46ZnPWDD8pS2UzQAoMaj
beAwC7aJ7kwvMQ9JYnuy9gbzLI6A1kcd2UmkAyBwltfrajM5awN2+mXJPwpuxKDI
fCesq1/CuwyWCv6NBccIUOPyP26goqA+8269fHKrj22LlXtXHbX4toSg1HeFV8xJ
NvTJm50dclhPmlZ8K0idBvmJ6npqv+KYKu8CVEc/djfCm0+Zr1ra4RD1uItgWtO8
bFdoOg4901cCZIc8CzDJX/9TP3Daeji71bmWKDJSes5m
-----END CERTIFICATE-----
