Certificate:
    Data:
        Version: 3 (0x2)
        Serial Number: 9470 (0x24fe)
    Signature Algorithm: sha256WithRSAEncryption
        Issuer: C=US, ST=OH, L=Columbus, O=VikingVPN, OU=MyOrganizationalUnit, CN=VikingVPN CA/name=EasyRSA/emailAddress=me@myhost.mydomain
        Validity
            Not Before: Nov 17 02:45:12 2016 GMT
            Not After : Nov 15 02:45:12 2026 GMT
        Subject: CN=Client2585Cert746ff4
        Subject Public Key Info:
            Public Key Algorithm: rsaEncryption
                Public-Key: (4096 bit)
                Modulus:
                    00:b2:d9:a0:59:85:50:2d:a7:e1:70:5f:4e:da:c3:
                    99:1c:ac:d0:7e:a7:55:6a:65:4b:83:2b:44:f8:00:
                    c6:d2:94:48:01:12:e3:e4:75:37:c8:aa:d1:bf:14:
                    b7:14:e4:d2:8d:f6:d5:e8:69:f1:2f:51:fc:79:2e:
                    f6:33:4c:48:e0:32:0e:bc:17:b1:57:40:f1:4a:52:
                    67:11:3d:61:ba:50:f6:53:dc:a5:96:ae:99:a8:3a:
                    62:4b:f0:31:c3:93:03:12:3d:e1:d5:8f:8a:4f:b8:
                    64:e8:b9:91:15:b8:ad:7b:07:01:22:ea:fb:db:81:
                    4f:5c:2e:6c:47:d2:c1:7f:47:26:cc:f0:c3:94:8e:
                    e9:13:e7:56:96:a7:89:4d:bc:81:41:d5:c1:c9:db:
                    09:43:14:25:6e:72:f5:81:bc:55:16:09:19:72:9e:
                    6c:12:97:cc:b9:12:21:e6:e7:97:23:6b:a6:7e:ee:
                    1c:3a:5c:15:9a:50:b0:9b:82:a9:d4:3c:da:9f:09:
                    49:ca:0b:07:bb:5f:0f:00:f6:10:19:61:16:0e:99:
                    36:2b:26:ef:92:eb:3e:ce:f2:ec:dd:ca:9a:9d:3c:
                    94:e4:f2:01:d4:57:b5:da:f9:3b:66:eb:06:fa:b1:
                    e6:22:99:5f:1d:35:02:74:26:9c:21:d7:99:16:cb:
                    cb:e7:0f:aa:bd:b5:41:5e:0e:ef:f6:2d:7b:e2:da:
                    8b:9e:af:e1:db:66:5d:98:7e:47:b7:a6:58:68:a8:
                    ed:ac:e6:0b:ef:c7:b9:6b:6c:1f:c5:23:43:7b:13:
                    e3:fe:10:cc:fe:aa:c2:0c:6c:88:ff:d4:d5:0d:54:
                    7c:43:da:c6:96:fc:df:b3:99:76:5b:75:25:4e:27:
                    8a:ae:d2:40:18:61:19:6e:4c:80:e0:62:78:09:63:
                    be:4e:f4:0d:03:32:57:9c:82:04:ac:9a:1d:30:77:
                    f1:ee:3a:1d:85:1c:8d:38:d7:d1:af:f7:f3:ae:d5:
                    86:2e:2b:6d:71:ad:a9:d8:e7:49:30:f1:37:b7:36:
                    a3:3a:88:a2:d3:f0:75:b9:cf:f3:69:e1:b3:49:9f:
                    c4:ed:bc:3c:bf:93:50:95:43:74:46:81:3d:f3:44:
                    91:25:f8:67:07:0c:53:2c:d3:ab:ac:c0:f7:c5:5e:
                    02:0b:2c:1e:2b:1d:1d:d6:38:ca:8e:97:e8:03:60:
                    bf:eb:e6:51:b7:4c:76:cb:e5:9a:5f:8e:6b:e5:ec:
                    4a:89:0f:64:96:08:33:1b:2e:10:c3:79:72:c4:fa:
                    f8:f4:e9:ce:c6:ff:db:97:03:80:4c:67:0f:38:55:
                    aa:f4:de:12:c3:7d:d7:b1:0d:20:12:26:a7:6c:37:
                    fd:03:31
                Exponent: 65537 (0x10001)
        X509v3 extensions:
            X509v3 Basic Constraints: 
                CA:FALSE
            Netscape Comment: 
                Easy-RSA Generated Certificate
            X509v3 Subject Key Identifier: 
                2A:C6:B9:FD:0F:47:33:B7:9B:69:8A:44:CF:E3:28:38:AF:15:1C:53
            X509v3 Authority Key Identifier: 
                keyid:12:CD:60:04:D2:A0:80:9E:70:ED:C6:99:B8:7B:2C:C6:52:FD:19:A1
                DirName:/C=US/ST=OH/L=Columbus/O=VikingVPN/OU=MyOrganizationalUnit/CN=VikingVPN CA/name=EasyRSA/emailAddress=me@myhost.mydomain
                serial:CF:35:85:EE:80:BF:2A:3E

            X509v3 Extended Key Usage: 
                TLS Web Client Authentication
            X509v3 Key Usage: 
                Digital Signature
    Signature Algorithm: sha256WithRSAEncryption
         11:5d:b8:5b:a9:de:f6:55:d1:9a:1e:eb:76:ef:bb:c2:ba:77:
         6b:ad:1a:04:81:9e:f5:c4:3e:a5:1a:83:73:5c:60:b0:58:27:
         4d:18:aa:9b:84:46:66:2c:60:29:3d:a0:9a:df:83:6e:d3:7c:
         e1:b1:1e:81:e4:59:30:ec:1e:77:34:26:33:ee:8b:e6:f2:0d:
         f1:c5:85:d1:f7:27:21:7c:0f:e5:39:55:9a:1f:d2:45:a7:c9:
         8a:99:a3:e3:42:8f:3a:6e:75:f9:6f:38:65:9c:58:de:9e:cc:
         56:b9:a2:48:20:6d:68:18:33:f7:5f:74:ce:d9:e3:88:06:ec:
         8c:9a:5f:ed:72:5a:77:6e:09:e2:c1:21:6e:8b:35:f7:01:8c:
         37:16:16:08:d0:68:e3:b1:27:c0:3c:bc:5a:e6:66:fd:d0:b1:
         82:df:54:c8:9a:2f:21:1c:50:ee:71:7f:9c:99:82:a1:91:29:
         3e:f5:97:41:00:32:8c:5c:99:8a:03:d6:0e:d6:c0:ee:d2:e2:
         76:1b:3a:70:9b:71:c8:fe:b9:d2:2b:81:a7:18:9e:c2:bf:fb:
         79:20:ab:1f:e0:2f:27:e9:18:68:eb:a9:94:31:64:b0:62:18:
         20:f6:27:39:63:39:9d:18:86:b8:30:fb:54:9d:c2:43:b1:ff:
         6f:e2:b0:9b:a7:46:c6:46:a6:29:21:ca:c4:fd:83:db:65:17:
         5e:32:b5:2a:ac:34:e0:c1:8b:8b:77:d1:d7:a8:41:0a:34:26:
         12:89:dc:4d:2e:7d:7f:1e:fb:85:43:22:bb:ba:6d:0c:d1:54:
         d9:e5:3a:87:f2:f1:e5:78:6c:11:db:83:a0:a2:73:4f:cc:0f:
         22:7c:92:5f:a4:ad:14:92:35:30:9e:03:65:90:22:ba:48:9b:
         93:9f:45:5a:05:8e:74:17:1e:3f:42:2c:1a:d4:fd:db:b8:fd:
         51:5f:cc:da:75:89:f3:15:57:1a:35:72:e4:62:e4:86:ff:ec:
         53:03:3e:c6:7c:44:c1:60:e2:17:c2:19:f1:9f:28:3c:fe:ae:
         d7:5f:fd:11:46:2e:95:e8:2a:d0:a9:bb:6a:1f:98:c6:75:59:
         d6:f0:f8:f9:a4:fb:e2:53:e2:96:c1:1f:58:06:99:14:49:76:
         6a:58:a0:17:f5:0b:38:93:ad:e4:77:c9:9c:13:ab:22:a0:1f:
         15:57:ce:a3:cf:d0:e4:45:a1:17:26:98:d2:58:45:f0:96:74:
         1b:b6:8c:8c:95:3a:1c:f1:bf:c7:24:21:07:f8:94:e5:42:4d:
         c2:96:8c:05:58:2a:1c:cb:ec:83:b1:0c:0b:b8:24:4e:79:d5:
         c6:3f:7f:9b:c9:8c:c5:ab
-----BEGIN CERTIFICATE-----
MIIGrTCCBJWgAwIBAgICJP4wDQYJKoZIhvcNAQELBQAwgawxCzAJBgNVBAYTAlVT
MQswCQYDVQQIEwJPSDERMA8GA1UEBxMIQ29sdW1idXMxEjAQBgNVBAoTCVZpa2lu
Z1ZQTjEdMBsGA1UECxMUTXlPcmdhbml6YXRpb25hbFVuaXQxFTATBgNVBAMTDFZp
a2luZ1ZQTiBDQTEQMA4GA1UEKRMHRWFzeVJTQTEhMB8GCSqGSIb3DQEJARYSbWVA
bXlob3N0Lm15ZG9tYWluMB4XDTE2MTExNzAyNDUxMloXDTI2MTExNTAyNDUxMlow
HzEdMBsGA1UEAxMUQ2xpZW50MjU4NUNlcnQ3NDZmZjQwggIiMA0GCSqGSIb3DQEB
AQUAA4ICDwAwggIKAoICAQCy2aBZhVAtp+FwX07aw5kcrNB+p1VqZUuDK0T4AMbS
lEgBEuPkdTfIqtG/FLcU5NKN9tXoafEvUfx5LvYzTEjgMg68F7FXQPFKUmcRPWG6
UPZT3KWWrpmoOmJL8DHDkwMSPeHVj4pPuGTouZEVuK17BwEi6vvbgU9cLmxH0sF/
RybM8MOUjukT51aWp4lNvIFB1cHJ2wlDFCVucvWBvFUWCRlynmwSl8y5EiHm55cj
a6Z+7hw6XBWaULCbgqnUPNqfCUnKCwe7Xw8A9hAZYRYOmTYrJu+S6z7O8uzdypqd
PJTk8gHUV7Xa+Ttm6wb6seYimV8dNQJ0Jpwh15kWy8vnD6q9tUFeDu/2LXvi2oue
r+HbZl2Yfke3plhoqO2s5gvvx7lrbB/FI0N7E+P+EMz+qsIMbIj/1NUNVHxD2saW
/N+zmXZbdSVOJ4qu0kAYYRluTIDgYngJY75O9A0DMlecggSsmh0wd/HuOh2FHI04
19Gv9/Ou1YYuK21xranY50kw8Te3NqM6iKLT8HW5z/Np4bNJn8TtvDy/k1CVQ3RG
gT3zRJEl+GcHDFMs06uswPfFXgILLB4rHR3WOMqOl+gDYL/r5lG3THbL5Zpfjmvl
7EqJD2SWCDMbLhDDeXLE+vj06c7G/9uXA4BMZw84Var03hLDfdexDSASJqdsN/0D
MQIDAQABo4IBYzCCAV8wCQYDVR0TBAIwADAtBglghkgBhvhCAQ0EIBYeRWFzeS1S
U0EgR2VuZXJhdGVkIENlcnRpZmljYXRlMB0GA1UdDgQWBBQqxrn9D0czt5tpikTP
4yg4rxUcUzCB4QYDVR0jBIHZMIHWgBQSzWAE0qCAnnDtxpm4eyzGUv0ZoaGBsqSB
rzCBrDELMAkGA1UEBhMCVVMxCzAJBgNVBAgTAk9IMREwDwYDVQQHEwhDb2x1bWJ1
czESMBAGA1UEChMJVmlraW5nVlBOMR0wGwYDVQQLExRNeU9yZ2FuaXphdGlvbmFs
VW5pdDEVMBMGA1UEAxMMVmlraW5nVlBOIENBMRAwDgYDVQQpEwdFYXN5UlNBMSEw
HwYJKoZIhvcNAQkBFhJtZUBteWhvc3QubXlkb21haW6CCQDPNYXugL8qPjATBgNV
HSUEDDAKBggrBgEFBQcDAjALBgNVHQ8EBAMCB4AwDQYJKoZIhvcNAQELBQADggIB
ABFduFup3vZV0Zoe63bvu8K6d2utGgSBnvXEPqUag3NcYLBYJ00YqpuERmYsYCk9
oJrfg27TfOGxHoHkWTDsHnc0JjPui+byDfHFhdH3JyF8D+U5VZof0kWnyYqZo+NC
jzpudflvOGWcWN6ezFa5okggbWgYM/dfdM7Z44gG7IyaX+1yWnduCeLBIW6LNfcB
jDcWFgjQaOOxJ8A8vFrmZv3QsYLfVMiaLyEcUO5xf5yZgqGRKT71l0EAMoxcmYoD
1g7WwO7S4nYbOnCbccj+udIrgacYnsK/+3kgqx/gLyfpGGjrqZQxZLBiGCD2Jzlj
OZ0Yhrgw+1SdwkOx/2/isJunRsZGpikhysT9g9tlF14ytSqsNODBi4t30deoQQo0
JhKJ3E0ufX8e+4VDIru6bQzRVNnlOofy8eV4bBHbg6Cic0/MDyJ8kl+krRSSNTCe
A2WQIrpIm5OfRVoFjnQXHj9CLBrU/du4/VFfzNp1ifMVVxo1cuRi5Ib/7FMDPsZ8
RMFg4hfCGfGfKDz+rtdf/RFGLpXoKtCpu2ofmMZ1Wdbw+Pmk++JT4pbBH1gGmRRJ
dmpYoBf1CziTreR3yZwTqyKgHxVXzqPP0ORFoRcmmNJYRfCWdBu2jIyVOhzxv8ck
IQf4lOVCTcKWjAVYKhzL7IOxDAu4JE551cY/f5vJjMWr
-----END CERTIFICATE-----
