Certificate:
    Data:
        Version: 3 (0x2)
        Serial Number: 4902 (0x1326)
    Signature Algorithm: md5WithRSAEncryption
        Issuer: C=US, ST=OH, L=Columbus, O=VikingVPN, OU=MyOrganizationalUnit, CN=VikingVPN CA/name=EasyRSA/emailAddress=me@myhost.mydomain
        Validity
            Not Before: Apr  7 09:02:16 2015 GMT
            Not After : Apr  4 09:02:16 2025 GMT
        Subject: CN=Client1599Certb33e78
        Subject Public Key Info:
            Public Key Algorithm: rsaEncryption
                Public-Key: (4096 bit)
                Modulus:
                    00:ba:81:12:0e:a7:37:3b:48:2b:cf:c5:38:64:c3:
                    dd:58:e3:2f:35:76:6d:df:4e:6a:3d:29:ad:22:75:
                    a7:77:b5:31:33:b9:7d:14:f8:52:63:64:6d:5f:8f:
                    e6:81:c4:1a:88:0b:ed:42:6e:05:63:38:c6:11:09:
                    79:da:fc:c8:1d:f9:52:aa:52:c5:25:3a:d5:67:de:
                    00:c1:00:99:cd:f7:39:7a:c8:23:36:f8:bd:4f:c2:
                    da:90:ff:95:04:40:77:cb:f3:5e:31:b4:e1:1a:c4:
                    d2:d8:f5:1a:9e:a8:20:c1:29:3a:6a:c9:e4:0d:03:
                    0e:af:af:a0:e2:58:8b:d8:94:4a:cd:dc:b5:28:ae:
                    2d:ce:c7:a1:cc:a6:d9:f1:48:ee:23:07:af:43:73:
                    6e:10:bd:5f:b3:c2:5b:49:8b:0a:c8:9c:3f:42:2d:
                    8e:1a:19:97:1c:5e:d3:c9:d9:27:66:e9:40:6f:73:
                    62:74:b4:b4:76:03:0f:78:7a:e9:34:24:e3:42:e5:
                    6a:d5:74:84:b2:6b:90:4b:e9:0d:08:13:ec:87:f0:
                    f7:ba:e0:22:cf:89:aa:d6:18:d0:04:74:4b:80:ff:
                    40:22:dc:f1:37:2a:07:a6:b4:09:c8:42:66:6f:2b:
                    d5:41:d7:38:4d:56:38:be:9d:38:fa:9e:f1:e9:c6:
                    0b:d0:b0:70:c7:43:81:05:94:40:1a:2a:10:ea:6b:
                    b4:19:73:3b:cd:fa:de:3e:cb:16:d7:c7:ea:10:2d:
                    61:f3:8f:6f:fd:b8:bf:50:73:ed:23:1a:ed:f0:a5:
                    15:44:12:b0:f0:a9:f0:26:6f:9c:ac:d0:13:c1:6e:
                    2f:a8:6f:be:15:90:5e:d9:58:cc:6b:e5:e1:36:4e:
                    5d:14:1f:dc:c2:64:30:fa:94:34:30:00:75:72:09:
                    65:a7:8f:85:fd:97:3f:b8:93:aa:dd:04:bf:43:d7:
                    92:d5:09:6f:db:27:8e:97:e3:af:f8:82:f3:06:38:
                    90:10:64:2e:84:e7:71:98:8f:a9:32:cd:a2:32:ff:
                    79:d8:06:eb:fe:47:cb:fb:6d:b0:32:00:89:0f:fd:
                    7f:36:c9:d2:81:a6:31:44:81:00:45:c4:48:69:f8:
                    35:8e:51:e8:37:00:24:58:e0:9d:54:6f:55:17:ef:
                    e0:ef:cd:6e:f5:d6:37:55:6c:59:21:86:6f:38:c3:
                    64:7e:24:c4:94:7c:00:5d:b6:e6:c4:92:c2:33:22:
                    c5:5e:b5:22:b3:a6:d5:42:02:35:aa:2e:e2:93:29:
                    f5:7b:0c:95:a2:77:bf:60:34:b0:60:d4:60:d1:ed:
                    20:b3:e2:47:35:ab:62:77:db:63:f4:df:11:5d:41:
                    8b:8d:2b
                Exponent: 65537 (0x10001)
        X509v3 extensions:
            X509v3 Basic Constraints: 
                CA:FALSE
            Netscape Comment: 
                Easy-RSA Generated Certificate
            X509v3 Subject Key Identifier: 
                1B:0C:28:35:82:3E:82:63:EE:CE:43:6B:7C:C3:2E:D6:70:ED:CD:7C
            X509v3 Authority Key Identifier: 
                keyid:12:CD:60:04:D2:A0:80:9E:70:ED:C6:99:B8:7B:2C:C6:52:FD:19:A1
                DirName:/C=US/ST=OH/L=Columbus/O=VikingVPN/OU=MyOrganizationalUnit/CN=VikingVPN CA/name=EasyRSA/emailAddress=me@myhost.mydomain
                serial:CF:35:85:EE:80:BF:2A:3E

            X509v3 Extended Key Usage: 
                TLS Web Client Authentication
            X509v3 Key Usage: 
                Digital Signature
    Signature Algorithm: md5WithRSAEncryption
         c0:4e:b3:b6:39:fa:e1:dd:6d:26:66:3e:46:b2:fb:59:2c:9e:
         14:0c:ad:fa:10:f0:c4:7f:37:13:ca:82:2b:09:d9:3b:94:bd:
         99:c0:6f:fc:37:58:0b:23:8b:d8:17:0c:74:fb:59:a3:51:89:
         1b:23:d7:e7:cd:a4:e2:c0:6f:e5:59:75:e4:f6:82:93:3b:0b:
         0f:aa:1f:e6:05:d1:73:7e:ed:70:aa:99:a4:b1:bc:82:8e:b9:
         55:2e:5d:43:44:f6:af:32:7a:ed:2c:87:77:49:aa:56:b3:f9:
         17:53:30:b1:34:29:97:74:87:ff:31:89:95:13:03:46:89:fd:
         2d:fb:bb:56:1e:0a:85:d4:bc:e3:81:5a:b5:a5:da:07:1b:21:
         d0:32:b9:5e:46:73:e5:22:e3:cf:29:64:d5:a6:31:3c:8b:94:
         e7:31:fb:f8:eb:8c:1b:8c:8e:81:9a:45:83:da:29:a5:5d:38:
         8f:18:cc:88:d2:d7:0d:bb:b8:3b:8e:ec:83:96:90:b6:95:72:
         d0:09:77:3c:54:39:e4:67:3d:51:b8:eb:64:39:00:4e:81:1c:
         7d:02:e2:37:76:d9:d7:70:a5:45:15:b3:95:9b:96:f8:68:0a:
         8c:9e:03:4a:e6:91:05:af:10:f9:cd:ce:a1:4b:c3:7e:7f:e3:
         f8:f6:4d:9a:f1:52:aa:41:a7:2a:40:ba:f1:9d:5e:70:03:de:
         3e:e4:91:ae:12:82:03:86:47:cc:a0:d5:34:76:ec:f0:be:2a:
         9f:6f:23:9b:56:66:aa:f6:c4:31:bd:57:af:f2:a5:ca:cf:3b:
         5e:15:0c:b5:12:e9:40:84:02:52:01:a2:b9:a5:0f:b5:f0:bc:
         d8:df:1d:79:5d:46:8d:50:63:8d:6f:5f:8e:4e:b9:fc:bb:80:
         db:6e:f7:69:cc:6e:22:b8:2d:a3:6a:6d:ac:86:fa:55:64:54:
         54:33:4f:fb:98:48:a4:79:99:ea:1d:82:f3:28:e9:09:fb:a1:
         a6:04:58:85:49:0f:8f:8d:ae:6e:8f:b9:d3:da:ff:d4:f7:c5:
         6e:b7:cb:35:eb:2b:a0:5e:63:51:a5:19:b8:88:0b:d0:00:4a:
         ed:be:d5:cf:82:46:ff:91:02:d7:80:06:0b:f0:64:67:3f:a0:
         4a:70:73:71:7e:de:3d:7b:2c:e0:42:33:9f:87:54:e0:a7:b9:
         64:a8:25:a8:d5:cf:68:a8:98:c9:c3:dd:16:e4:e7:97:07:90:
         36:7c:9e:fc:ad:bd:f1:e2:67:0a:65:91:8d:e2:3c:16:ef:53:
         30:6c:24:30:9d:20:be:68:74:5f:67:f8:e7:e7:ca:4f:26:ef:
         00:9e:9d:29:09:19:99:6d
-----BEGIN CERTIFICATE-----
MIIGrTCCBJWgAwIBAgICEyYwDQYJKoZIhvcNAQEEBQAwgawxCzAJBgNVBAYTAlVT
MQswCQYDVQQIEwJPSDERMA8GA1UEBxMIQ29sdW1idXMxEjAQBgNVBAoTCVZpa2lu
Z1ZQTjEdMBsGA1UECxMUTXlPcmdhbml6YXRpb25hbFVuaXQxFTATBgNVBAMTDFZp
a2luZ1ZQTiBDQTEQMA4GA1UEKRMHRWFzeVJTQTEhMB8GCSqGSIb3DQEJARYSbWVA
bXlob3N0Lm15ZG9tYWluMB4XDTE1MDQwNzA5MDIxNloXDTI1MDQwNDA5MDIxNlow
HzEdMBsGA1UEAxMUQ2xpZW50MTU5OUNlcnRiMzNlNzgwggIiMA0GCSqGSIb3DQEB
AQUAA4ICDwAwggIKAoICAQC6gRIOpzc7SCvPxThkw91Y4y81dm3fTmo9Ka0idad3
tTEzuX0U+FJjZG1fj+aBxBqIC+1CbgVjOMYRCXna/Mgd+VKqUsUlOtVn3gDBAJnN
9zl6yCM2+L1PwtqQ/5UEQHfL814xtOEaxNLY9RqeqCDBKTpqyeQNAw6vr6DiWIvY
lErN3LUori3Ox6HMptnxSO4jB69Dc24QvV+zwltJiwrInD9CLY4aGZccXtPJ2Sdm
6UBvc2J0tLR2Aw94euk0JONC5WrVdISya5BL6Q0IE+yH8Pe64CLPiarWGNAEdEuA
/0Ai3PE3KgemtAnIQmZvK9VB1zhNVji+nTj6nvHpxgvQsHDHQ4EFlEAaKhDqa7QZ
czvN+t4+yxbXx+oQLWHzj2/9uL9Qc+0jGu3wpRVEErDwqfAmb5ys0BPBbi+ob74V
kF7ZWMxr5eE2Tl0UH9zCZDD6lDQwAHVyCWWnj4X9lz+4k6rdBL9D15LVCW/bJ46X
46/4gvMGOJAQZC6E53GYj6kyzaIy/3nYBuv+R8v7bbAyAIkP/X82ydKBpjFEgQBF
xEhp+DWOUeg3ACRY4J1Ub1UX7+DvzW711jdVbFkhhm84w2R+JMSUfABdtubEksIz
IsVetSKzptVCAjWqLuKTKfV7DJWid79gNLBg1GDR7SCz4kc1q2J322P03xFdQYuN
KwIDAQABo4IBYzCCAV8wCQYDVR0TBAIwADAtBglghkgBhvhCAQ0EIBYeRWFzeS1S
U0EgR2VuZXJhdGVkIENlcnRpZmljYXRlMB0GA1UdDgQWBBQbDCg1gj6CY+7OQ2t8
wy7WcO3NfDCB4QYDVR0jBIHZMIHWgBQSzWAE0qCAnnDtxpm4eyzGUv0ZoaGBsqSB
rzCBrDELMAkGA1UEBhMCVVMxCzAJBgNVBAgTAk9IMREwDwYDVQQHEwhDb2x1bWJ1
czESMBAGA1UEChMJVmlraW5nVlBOMR0wGwYDVQQLExRNeU9yZ2FuaXphdGlvbmFs
VW5pdDEVMBMGA1UEAxMMVmlraW5nVlBOIENBMRAwDgYDVQQpEwdFYXN5UlNBMSEw
HwYJKoZIhvcNAQkBFhJtZUBteWhvc3QubXlkb21haW6CCQDPNYXugL8qPjATBgNV
HSUEDDAKBggrBgEFBQcDAjALBgNVHQ8EBAMCB4AwDQYJKoZIhvcNAQEEBQADggIB
AMBOs7Y5+uHdbSZmPkay+1ksnhQMrfoQ8MR/NxPKgisJ2TuUvZnAb/w3WAsji9gX
DHT7WaNRiRsj1+fNpOLAb+VZdeT2gpM7Cw+qH+YF0XN+7XCqmaSxvIKOuVUuXUNE
9q8yeu0sh3dJqlaz+RdTMLE0KZd0h/8xiZUTA0aJ/S37u1YeCoXUvOOBWrWl2gcb
IdAyuV5Gc+Ui488pZNWmMTyLlOcx+/jrjBuMjoGaRYPaKaVdOI8YzIjS1w27uDuO
7IOWkLaVctAJdzxUOeRnPVG462Q5AE6BHH0C4jd22ddwpUUVs5WblvhoCoyeA0rm
kQWvEPnNzqFLw35/4/j2TZrxUqpBpypAuvGdXnAD3j7kka4SggOGR8yg1TR27PC+
Kp9vI5tWZqr2xDG9V6/ypcrPO14VDLUS6UCEAlIBormlD7XwvNjfHXldRo1QY41v
X45Oufy7gNtu92nMbiK4LaNqbayG+lVkVFQzT/uYSKR5meodgvMo6Qn7oaYEWIVJ
D4+Nrm6PudPa/9T3xW63yzXrK6BeY1GlGbiIC9AASu2+1c+CRv+RAteABgvwZGc/
oEpwc3F+3j17LOBCM5+HVOCnuWSoJajVz2iomMnD3Rbk55cHkDZ8nvytvfHiZwpl
kY3iPBbvUzBsJDCdIL5odF9n+Ofnyk8m7wCenSkJGZlt
-----END CERTIFICATE-----
