Certificate:
    Data:
        Version: 3 (0x2)
        Serial Number: 8408 (0x20d8)
    Signature Algorithm: md5WithRSAEncryption
        Issuer: C=US, ST=OH, L=Columbus, O=VikingVPN, OU=MyOrganizationalUnit, CN=VikingVPN CA/name=EasyRSA/emailAddress=me@myhost.mydomain
        Validity
            Not Before: Jul  3 00:32:28 2016 GMT
            Not After : Jul  1 00:32:28 2026 GMT
        Subject: CN=Client2410Certded63b
        Subject Public Key Info:
            Public Key Algorithm: rsaEncryption
                Public-Key: (4096 bit)
                Modulus:
                    00:df:94:3c:6d:76:7a:db:96:83:a4:06:dc:f4:0f:
                    d4:a2:88:94:8f:52:eb:d6:34:10:1c:e3:d8:ae:00:
                    41:d8:b7:54:99:01:89:71:31:24:34:ca:64:19:72:
                    b9:9f:ce:29:c7:25:5e:c5:fd:c4:21:54:e0:4d:5e:
                    97:3f:23:f4:3d:0c:95:c0:1f:23:82:10:5b:78:e8:
                    5f:78:aa:a5:36:22:c5:76:7f:46:20:f0:3f:ab:b1:
                    02:85:e3:ec:c6:3c:cb:bb:87:a5:76:d0:64:5e:a1:
                    0b:d0:74:14:06:48:75:7d:c6:4d:f9:d7:99:7c:0c:
                    3a:65:47:57:be:28:40:48:05:5d:25:c0:db:16:6a:
                    dd:c9:b5:fa:66:89:d2:06:8a:6b:30:c2:c9:8f:a3:
                    1f:64:a8:81:e9:b7:2f:9c:56:ec:c2:86:11:1f:ca:
                    8b:ab:ee:4e:f6:26:1e:13:48:8d:f4:de:28:85:19:
                    f7:6a:2b:88:da:9b:5f:42:16:54:ea:72:01:bc:dd:
                    f9:a3:3d:60:4b:7f:0b:b3:b8:04:a9:92:1a:2a:b8:
                    14:e7:99:68:25:ab:12:bb:4b:4b:90:2e:99:c8:23:
                    98:a8:ee:b3:70:49:90:71:38:ec:d7:11:b7:7e:e7:
                    fb:5a:32:7c:17:14:4d:75:42:52:7d:10:07:69:51:
                    31:8e:79:c6:f6:7b:1f:af:9b:d9:ee:fd:74:24:96:
                    3b:8c:7a:de:5c:9d:38:ac:19:dd:63:51:44:a8:bc:
                    13:98:99:10:63:ee:6f:05:c9:9e:69:01:35:95:9d:
                    29:fe:ea:bb:04:29:4d:7b:d5:27:dd:cd:c8:3c:89:
                    09:23:d8:f4:8c:10:04:46:18:56:90:13:4a:31:63:
                    b9:6a:42:3f:71:40:e5:2a:98:b5:01:a6:6d:f9:9c:
                    34:c4:55:f4:14:64:71:7f:b8:89:e4:a5:49:b7:63:
                    9a:19:ca:57:65:c3:dc:49:cd:2d:fd:3b:2f:6c:40:
                    58:c8:ca:36:85:09:b0:38:dd:ff:7f:99:7c:44:39:
                    00:59:15:d8:36:db:67:34:a8:ad:a1:1f:57:62:fd:
                    46:40:64:2f:4c:38:93:eb:8f:99:43:49:91:5a:a9:
                    03:6e:d5:e4:20:df:fc:90:59:9f:7f:6b:8c:98:14:
                    d9:2e:d4:de:47:c7:ab:68:fb:3a:33:34:8a:c0:01:
                    67:73:c5:50:8e:4b:92:e1:61:43:18:a1:aa:9d:5e:
                    88:72:39:44:3f:d4:71:64:94:7c:66:f9:cd:fc:9d:
                    61:2d:1a:cf:4d:6b:bb:ca:3a:bc:ca:97:6d:17:d8:
                    17:89:c0:b8:8b:c5:61:ad:72:6d:33:d0:5c:17:da:
                    0e:45:bf
                Exponent: 65537 (0x10001)
        X509v3 extensions:
            X509v3 Basic Constraints: 
                CA:FALSE
            Netscape Comment: 
                Easy-RSA Generated Certificate
            X509v3 Subject Key Identifier: 
                2E:09:7E:FF:D2:1E:57:4D:5E:F6:A2:F8:8E:D0:E3:AB:E0:8B:67:18
            X509v3 Authority Key Identifier: 
                keyid:12:CD:60:04:D2:A0:80:9E:70:ED:C6:99:B8:7B:2C:C6:52:FD:19:A1
                DirName:/C=US/ST=OH/L=Columbus/O=VikingVPN/OU=MyOrganizationalUnit/CN=VikingVPN CA/name=EasyRSA/emailAddress=me@myhost.mydomain
                serial:CF:35:85:EE:80:BF:2A:3E

            X509v3 Extended Key Usage: 
                TLS Web Client Authentication
            X509v3 Key Usage: 
                Digital Signature
    Signature Algorithm: md5WithRSAEncryption
         95:72:2b:ea:a6:ff:6b:7c:b1:66:5a:e8:3d:49:15:ad:9d:5e:
         06:ca:cc:37:91:a8:ef:03:ed:13:e7:31:79:eb:ed:09:31:e5:
         4b:50:69:96:17:bc:94:00:15:e3:cf:3c:f6:71:07:49:35:9e:
         ac:3b:ee:bb:b2:d7:b3:09:8c:f2:5b:ca:3a:07:5d:5c:c3:f6:
         57:30:99:56:2b:7e:b2:2a:ba:e1:1e:5f:ee:6d:7a:1e:23:30:
         1a:12:42:45:38:cf:53:1d:34:0e:81:8f:cc:a7:95:52:81:4e:
         11:1d:8f:76:03:34:c5:59:06:ba:c1:74:65:a9:18:89:42:89:
         3e:17:0f:ae:3e:83:54:1b:ad:45:3f:60:54:27:cf:f7:f4:27:
         b1:44:41:46:65:4c:0f:60:dc:ae:b3:54:59:3e:b5:43:0a:21:
         44:82:18:25:fc:8e:3e:06:bb:7b:22:a1:7f:e8:c5:be:52:71:
         50:82:1e:b3:c2:86:9d:0d:20:5a:77:10:f7:07:f8:73:ec:78:
         5a:0d:db:1d:6f:4f:9d:5a:12:63:2b:b2:a3:22:de:0d:6b:3d:
         58:80:f4:ff:b1:61:41:0f:86:94:f8:16:98:24:9d:1c:80:3b:
         18:c4:b5:95:21:26:dd:95:2d:3f:da:88:6f:42:0d:93:bf:72:
         f1:f4:55:20:42:fe:47:b4:d5:0e:c5:69:a0:82:32:46:35:9b:
         b0:2e:5a:d4:13:df:b6:a8:39:57:ba:19:f8:95:da:60:41:df:
         93:d4:a5:20:49:dd:5c:5a:0c:86:61:88:05:24:f1:39:a7:f0:
         b8:27:66:db:8a:5c:1d:47:44:81:3b:3e:51:e0:ca:2f:dc:8a:
         14:8f:f3:ec:67:19:1d:3b:a6:85:16:3b:2c:64:3e:22:2e:a6:
         2f:2a:00:49:b3:1f:95:28:78:63:25:9b:ab:07:41:2c:cf:ec:
         87:76:f9:1a:66:f7:57:eb:21:2f:61:27:5e:4e:6e:17:3f:49:
         7d:c5:85:53:0e:20:c8:ba:c8:0e:91:78:7a:1d:53:86:de:55:
         d3:83:67:61:a3:95:a1:18:2f:bb:7b:6a:71:d0:d2:47:d0:39:
         26:7a:fb:4b:f0:f2:69:7e:3c:98:34:cc:ac:9c:2e:ac:ff:27:
         be:e1:7e:e5:78:80:cb:a0:83:bc:09:e3:b1:80:3e:d3:79:ee:
         bc:66:a9:0c:08:5f:63:c5:9b:c0:d7:5e:d5:b0:f0:b6:96:2e:
         c8:0d:43:23:03:d9:df:f5:72:50:2d:9a:02:a5:80:8c:0a:4b:
         a8:1d:06:65:93:72:3d:e2:ef:15:42:9f:6b:8f:90:c4:be:87:
         1d:47:12:1f:c3:31:5f:0d
-----BEGIN CERTIFICATE-----
MIIGrTCCBJWgAwIBAgICINgwDQYJKoZIhvcNAQEEBQAwgawxCzAJBgNVBAYTAlVT
MQswCQYDVQQIEwJPSDERMA8GA1UEBxMIQ29sdW1idXMxEjAQBgNVBAoTCVZpa2lu
Z1ZQTjEdMBsGA1UECxMUTXlPcmdhbml6YXRpb25hbFVuaXQxFTATBgNVBAMTDFZp
a2luZ1ZQTiBDQTEQMA4GA1UEKRMHRWFzeVJTQTEhMB8GCSqGSIb3DQEJARYSbWVA
bXlob3N0Lm15ZG9tYWluMB4XDTE2MDcwMzAwMzIyOFoXDTI2MDcwMTAwMzIyOFow
HzEdMBsGA1UEAxMUQ2xpZW50MjQxMENlcnRkZWQ2M2IwggIiMA0GCSqGSIb3DQEB
AQUAA4ICDwAwggIKAoICAQDflDxtdnrbloOkBtz0D9SiiJSPUuvWNBAc49iuAEHY
t1SZAYlxMSQ0ymQZcrmfzinHJV7F/cQhVOBNXpc/I/Q9DJXAHyOCEFt46F94qqU2
IsV2f0Yg8D+rsQKF4+zGPMu7h6V20GReoQvQdBQGSHV9xk3515l8DDplR1e+KEBI
BV0lwNsWat3JtfpmidIGimswwsmPox9kqIHpty+cVuzChhEfyour7k72Jh4TSI30
3iiFGfdqK4jam19CFlTqcgG83fmjPWBLfwuzuASpkhoquBTnmWglqxK7S0uQLpnI
I5io7rNwSZBxOOzXEbd+5/taMnwXFE11QlJ9EAdpUTGOecb2ex+vm9nu/XQkljuM
et5cnTisGd1jUUSovBOYmRBj7m8FyZ5pATWVnSn+6rsEKU171Sfdzcg8iQkj2PSM
EARGGFaQE0oxY7lqQj9xQOUqmLUBpm35nDTEVfQUZHF/uInkpUm3Y5oZyldlw9xJ
zS39Oy9sQFjIyjaFCbA43f9/mXxEOQBZFdg222c0qK2hH1di/UZAZC9MOJPrj5lD
SZFaqQNu1eQg3/yQWZ9/a4yYFNku1N5Hx6to+zozNIrAAWdzxVCOS5LhYUMYoaqd
XohyOUQ/1HFklHxm+c38nWEtGs9Na7vKOrzKl20X2BeJwLiLxWGtcm0z0FwX2g5F
vwIDAQABo4IBYzCCAV8wCQYDVR0TBAIwADAtBglghkgBhvhCAQ0EIBYeRWFzeS1S
U0EgR2VuZXJhdGVkIENlcnRpZmljYXRlMB0GA1UdDgQWBBQuCX7/0h5XTV72oviO
0OOr4ItnGDCB4QYDVR0jBIHZMIHWgBQSzWAE0qCAnnDtxpm4eyzGUv0ZoaGBsqSB
rzCBrDELMAkGA1UEBhMCVVMxCzAJBgNVBAgTAk9IMREwDwYDVQQHEwhDb2x1bWJ1
czESMBAGA1UEChMJVmlraW5nVlBOMR0wGwYDVQQLExRNeU9yZ2FuaXphdGlvbmFs
VW5pdDEVMBMGA1UEAxMMVmlraW5nVlBOIENBMRAwDgYDVQQpEwdFYXN5UlNBMSEw
HwYJKoZIhvcNAQkBFhJtZUBteWhvc3QubXlkb21haW6CCQDPNYXugL8qPjATBgNV
HSUEDDAKBggrBgEFBQcDAjALBgNVHQ8EBAMCB4AwDQYJKoZIhvcNAQEEBQADggIB
AJVyK+qm/2t8sWZa6D1JFa2dXgbKzDeRqO8D7RPnMXnr7Qkx5UtQaZYXvJQAFePP
PPZxB0k1nqw77ruy17MJjPJbyjoHXVzD9lcwmVYrfrIquuEeX+5teh4jMBoSQkU4
z1MdNA6Bj8ynlVKBThEdj3YDNMVZBrrBdGWpGIlCiT4XD64+g1QbrUU/YFQnz/f0
J7FEQUZlTA9g3K6zVFk+tUMKIUSCGCX8jj4Gu3sioX/oxb5ScVCCHrPChp0NIFp3
EPcH+HPseFoN2x1vT51aEmMrsqMi3g1rPViA9P+xYUEPhpT4FpgknRyAOxjEtZUh
Jt2VLT/aiG9CDZO/cvH0VSBC/ke01Q7FaaCCMkY1m7AuWtQT37aoOVe6GfiV2mBB
35PUpSBJ3VxaDIZhiAUk8Tmn8LgnZtuKXB1HRIE7PlHgyi/cihSP8+xnGR07poUW
OyxkPiIupi8qAEmzH5UoeGMlm6sHQSzP7Id2+Rpm91frIS9hJ15Obhc/SX3FhVMO
IMi6yA6ReHodU4beVdODZ2GjlaEYL7t7anHQ0kfQOSZ6+0vw8ml+PJg0zKycLqz/
J77hfuV4gMugg7wJ47GAPtN57rxmqQwIX2PFm8DXXtWw8LaWLsgNQyMD2d/1clAt
mgKlgIwKS6gdBmWTcj3i7xVCn2uPkMS+hx1HEh/DMV8N
-----END CERTIFICATE-----
