Certificate:
    Data:
        Version: 3 (0x2)
        Serial Number: 7128 (0x1bd8)
    Signature Algorithm: md5WithRSAEncryption
        Issuer: C=US, ST=OH, L=Columbus, O=VikingVPN, OU=MyOrganizationalUnit, CN=VikingVPN CA/name=EasyRSA/emailAddress=me@myhost.mydomain
        Validity
            Not Before: Feb  4 09:04:44 2016 GMT
            Not After : Feb  1 09:04:44 2026 GMT
        Subject: CN=Client434Certdf299a
        Subject Public Key Info:
            Public Key Algorithm: rsaEncryption
                Public-Key: (4096 bit)
                Modulus:
                    00:c2:86:37:38:e5:7e:d3:8a:c7:f6:65:13:1b:1a:
                    3c:57:51:a8:37:11:24:28:92:14:d9:dc:16:1b:49:
                    5b:31:42:88:52:fd:f0:f1:ad:0c:c0:2c:0d:ce:d7:
                    c1:0a:dc:1f:95:f7:92:89:7b:80:cb:34:07:99:76:
                    b1:a8:ed:02:05:3d:f0:1b:34:32:e3:88:b2:69:4d:
                    5f:12:7f:8e:d6:f0:3f:1b:f3:95:f4:bf:12:72:32:
                    ad:1d:b0:02:54:da:67:a9:cd:a4:ec:fe:6d:04:c1:
                    19:5c:87:77:10:1a:76:2c:a5:d8:7d:a5:fa:e3:bb:
                    fa:b7:9f:75:bd:d5:ad:2a:b0:76:19:07:53:7d:b3:
                    db:5c:6b:53:6f:2a:5e:59:97:c0:69:73:e9:e8:aa:
                    e8:97:6b:ce:94:82:61:ca:78:71:ac:26:6b:dc:b1:
                    03:2c:fe:6b:3b:6b:53:de:b1:37:b9:2b:2b:d0:15:
                    d1:0c:de:3a:33:2b:51:52:30:de:21:07:57:7c:37:
                    bb:ee:c2:b2:a1:8e:10:f4:73:99:29:f1:41:b9:b3:
                    6d:12:a1:19:77:95:6d:06:da:c3:a0:4d:95:a2:96:
                    65:71:7a:16:a9:18:9f:ee:72:cd:6b:93:95:a6:0e:
                    12:3c:72:ea:23:93:4f:20:4f:79:1c:14:2d:ff:e7:
                    aa:ea:f8:dc:ee:ab:34:c9:e0:b2:11:fa:0e:b2:f9:
                    30:22:47:2c:dd:91:e9:4a:0d:54:5e:54:16:78:33:
                    ef:c1:03:bd:09:df:bc:ab:9e:d8:7b:85:8c:42:d1:
                    49:c0:f2:da:99:f6:a6:18:fb:46:54:9f:5d:f6:2b:
                    94:2c:d0:8e:bb:2c:eb:8b:28:03:37:c2:b8:8e:1a:
                    0b:6c:81:34:6e:16:56:97:10:cc:19:fc:65:e8:b5:
                    a5:17:45:b6:ad:58:39:a8:79:63:69:0e:b0:51:19:
                    57:a9:1a:13:f6:f6:50:5a:89:96:1a:5c:b8:71:f0:
                    fe:7d:21:09:5d:ff:98:cf:f9:3e:96:a3:b5:ea:79:
                    25:86:88:8f:27:a6:a1:54:ad:00:ee:03:43:6b:7c:
                    f2:4b:6c:f8:44:08:ad:61:f1:77:c4:57:f3:d6:e7:
                    5a:81:0b:20:19:6e:3a:39:e9:0b:af:e7:ee:d3:ce:
                    d9:d5:54:40:be:77:52:ac:d9:52:50:28:67:14:ef:
                    44:25:5f:2b:cd:1b:25:01:39:94:cf:77:61:30:56:
                    25:a7:d8:3e:43:fe:98:c3:e0:84:40:8d:37:1f:e1:
                    d6:82:7e:27:5f:aa:6a:f4:60:b6:e6:4d:2b:58:f2:
                    69:3c:56:d3:56:8d:c4:26:d0:b9:29:03:53:0f:e5:
                    a2:a8:0b
                Exponent: 65537 (0x10001)
        X509v3 extensions:
            X509v3 Basic Constraints: 
                CA:FALSE
            Netscape Comment: 
                Easy-RSA Generated Certificate
            X509v3 Subject Key Identifier: 
                C6:5C:19:75:C3:26:D2:2F:01:2A:7A:0E:6A:16:CC:F8:F7:FC:AC:39
            X509v3 Authority Key Identifier: 
                keyid:12:CD:60:04:D2:A0:80:9E:70:ED:C6:99:B8:7B:2C:C6:52:FD:19:A1
                DirName:/C=US/ST=OH/L=Columbus/O=VikingVPN/OU=MyOrganizationalUnit/CN=VikingVPN CA/name=EasyRSA/emailAddress=me@myhost.mydomain
                serial:CF:35:85:EE:80:BF:2A:3E

            X509v3 Extended Key Usage: 
                TLS Web Client Authentication
            X509v3 Key Usage: 
                Digital Signature
    Signature Algorithm: md5WithRSAEncryption
         55:18:dd:be:67:5e:10:25:b7:f3:ee:08:e9:9a:66:be:ad:af:
         8e:2a:ec:7a:cc:7b:89:81:66:e1:06:a7:68:fe:1b:61:9c:e6:
         6f:04:30:77:12:14:4c:a8:a7:d9:84:ea:84:31:f8:8b:43:94:
         f9:ee:56:70:09:e1:86:03:eb:a5:47:6a:a6:d3:b9:f4:a3:e6:
         90:13:9a:9c:07:19:dd:c6:fb:0d:95:09:a5:69:35:58:a3:69:
         05:e0:f5:ef:2b:5a:17:0f:fc:1a:77:b9:10:e8:69:24:a0:ac:
         90:ce:b8:a9:40:69:c3:3c:5a:37:3d:f2:2f:60:7a:a1:49:b5:
         aa:10:c0:92:5e:35:dd:b7:77:a3:9a:b8:ff:b5:26:02:23:2f:
         7a:41:a8:a1:8f:ba:b5:8e:74:7b:5b:e2:f6:7e:80:32:55:0a:
         f9:0f:bd:ab:4e:bf:ca:43:d4:b2:d1:7d:05:88:67:61:e0:30:
         91:67:fc:6a:32:b1:37:53:3f:cf:c9:46:7a:96:b0:30:b0:9c:
         38:5d:0b:26:d7:ac:aa:77:de:f3:5d:30:d5:ac:3a:98:23:c1:
         95:6c:c2:b9:42:53:77:e1:15:2e:98:36:20:d6:7b:a1:d5:83:
         10:92:5c:ff:03:84:0f:08:70:4d:f0:a2:75:c4:17:25:65:56:
         e3:a3:07:a4:44:22:7b:47:8b:be:a3:ce:57:cc:c2:ea:c6:95:
         5a:39:90:ea:fc:60:7f:bd:74:c2:d4:ec:9e:78:bd:c4:bd:0d:
         db:a2:3b:b0:4c:23:68:14:47:6b:de:97:a4:97:ed:f8:ad:0c:
         ed:44:b1:fb:1d:6a:00:bc:6b:d4:c1:f0:5c:f5:6b:b5:3c:3a:
         db:16:0d:e0:dd:43:53:5d:2e:76:22:56:46:45:10:99:49:39:
         cc:81:8f:b7:a7:9d:02:84:ee:40:2c:ba:05:a6:97:13:d6:20:
         d2:6a:5d:4b:b8:16:a5:ef:01:ce:28:af:a9:9e:25:14:1c:95:
         dd:89:06:c9:5b:87:65:06:3b:5d:93:a3:33:9b:37:c0:ea:79:
         12:08:eb:18:f7:61:56:1e:b8:29:4a:0d:14:48:cf:3e:94:53:
         07:ef:91:96:d9:b0:cb:cb:24:77:27:26:6a:e6:eb:d4:62:6c:
         67:e7:7d:54:3e:6f:62:83:5b:a7:46:5b:b7:4a:ab:35:04:aa:
         b3:f7:45:3e:c9:a0:e1:3e:ad:13:b3:c6:33:da:87:91:91:96:
         f6:6b:8e:0d:d5:3d:35:c7:ab:70:c2:ec:3a:f3:f6:2e:dd:67:
         1e:e2:fc:08:73:2c:a6:db:25:b0:7e:9d:79:5a:65:54:58:23:
         1b:70:2f:10:6a:59:c9:fa
-----BEGIN CERTIFICATE-----
MIIGrDCCBJSgAwIBAgICG9gwDQYJKoZIhvcNAQEEBQAwgawxCzAJBgNVBAYTAlVT
MQswCQYDVQQIEwJPSDERMA8GA1UEBxMIQ29sdW1idXMxEjAQBgNVBAoTCVZpa2lu
Z1ZQTjEdMBsGA1UECxMUTXlPcmdhbml6YXRpb25hbFVuaXQxFTATBgNVBAMTDFZp
a2luZ1ZQTiBDQTEQMA4GA1UEKRMHRWFzeVJTQTEhMB8GCSqGSIb3DQEJARYSbWVA
bXlob3N0Lm15ZG9tYWluMB4XDTE2MDIwNDA5MDQ0NFoXDTI2MDIwMTA5MDQ0NFow
HjEcMBoGA1UEAxMTQ2xpZW50NDM0Q2VydGRmMjk5YTCCAiIwDQYJKoZIhvcNAQEB
BQADggIPADCCAgoCggIBAMKGNzjlftOKx/ZlExsaPFdRqDcRJCiSFNncFhtJWzFC
iFL98PGtDMAsDc7XwQrcH5X3kol7gMs0B5l2sajtAgU98Bs0MuOIsmlNXxJ/jtbw
PxvzlfS/EnIyrR2wAlTaZ6nNpOz+bQTBGVyHdxAadiyl2H2l+uO7+refdb3VrSqw
dhkHU32z21xrU28qXlmXwGlz6eiq6JdrzpSCYcp4cawma9yxAyz+aztrU96xN7kr
K9AV0QzeOjMrUVIw3iEHV3w3u+7CsqGOEPRzmSnxQbmzbRKhGXeVbQbaw6BNlaKW
ZXF6FqkYn+5yzWuTlaYOEjxy6iOTTyBPeRwULf/nqur43O6rNMngshH6DrL5MCJH
LN2R6UoNVF5UFngz78EDvQnfvKue2HuFjELRScDy2pn2phj7RlSfXfYrlCzQjrss
64soAzfCuI4aC2yBNG4WVpcQzBn8Zei1pRdFtq1YOah5Y2kOsFEZV6kaE/b2UFqJ
lhpcuHHw/n0hCV3/mM/5Ppajtep5JYaIjyemoVStAO4DQ2t88kts+EQIrWHxd8RX
89bnWoELIBluOjnpC6/n7tPO2dVUQL53UqzZUlAoZxTvRCVfK80bJQE5lM93YTBW
JafYPkP+mMPghECNNx/h1oJ+J1+qavRgtuZNK1jyaTxW01aNxCbQuSkDUw/loqgL
AgMBAAGjggFjMIIBXzAJBgNVHRMEAjAAMC0GCWCGSAGG+EIBDQQgFh5FYXN5LVJT
QSBHZW5lcmF0ZWQgQ2VydGlmaWNhdGUwHQYDVR0OBBYEFMZcGXXDJtIvASp6DmoW
zPj3/Kw5MIHhBgNVHSMEgdkwgdaAFBLNYATSoICecO3Gmbh7LMZS/RmhoYGypIGv
MIGsMQswCQYDVQQGEwJVUzELMAkGA1UECBMCT0gxETAPBgNVBAcTCENvbHVtYnVz
MRIwEAYDVQQKEwlWaWtpbmdWUE4xHTAbBgNVBAsTFE15T3JnYW5pemF0aW9uYWxV
bml0MRUwEwYDVQQDEwxWaWtpbmdWUE4gQ0ExEDAOBgNVBCkTB0Vhc3lSU0ExITAf
BgkqhkiG9w0BCQEWEm1lQG15aG9zdC5teWRvbWFpboIJAM81he6Avyo+MBMGA1Ud
JQQMMAoGCCsGAQUFBwMCMAsGA1UdDwQEAwIHgDANBgkqhkiG9w0BAQQFAAOCAgEA
VRjdvmdeECW38+4I6Zpmvq2vjirsesx7iYFm4QanaP4bYZzmbwQwdxIUTKin2YTq
hDH4i0OU+e5WcAnhhgPrpUdqptO59KPmkBOanAcZ3cb7DZUJpWk1WKNpBeD17yta
Fw/8Gne5EOhpJKCskM64qUBpwzxaNz3yL2B6oUm1qhDAkl413bd3o5q4/7UmAiMv
ekGooY+6tY50e1vi9n6AMlUK+Q+9q06/ykPUstF9BYhnYeAwkWf8ajKxN1M/z8lG
epawMLCcOF0LJtesqnfe810w1aw6mCPBlWzCuUJTd+EVLpg2INZ7odWDEJJc/wOE
DwhwTfCidcQXJWVW46MHpEQie0eLvqPOV8zC6saVWjmQ6vxgf710wtTsnni9xL0N
26I7sEwjaBRHa96XpJft+K0M7USx+x1qALxr1MHwXPVrtTw62xYN4N1DU10udiJW
RkUQmUk5zIGPt6edAoTuQCy6BaaXE9Yg0mpdS7gWpe8BziivqZ4lFByV3YkGyVuH
ZQY7XZOjM5s3wOp5EgjrGPdhVh64KUoNFEjPPpRTB++Rltmwy8skdycmaubr1GJs
Z+d9VD5vYoNbp0Zbt0qrNQSqs/dFPsmg4T6tE7PGM9qHkZGW9muODdU9NcercMLs
OvP2Lt1nHuL8CHMsptslsH6deVplVFgjG3AvEGpZyfo=
-----END CERTIFICATE-----
