Certificate:
    Data:
        Version: 3 (0x2)
        Serial Number: 10994 (0x2af2)
    Signature Algorithm: sha256WithRSAEncryption
        Issuer: C=US, ST=OH, L=Columbus, O=VikingVPN, OU=MyOrganizationalUnit, CN=VikingVPN CA/name=EasyRSA/emailAddress=me@myhost.mydomain
        Validity
            Not Before: May 22 00:47:26 2017 GMT
            Not After : May 20 00:47:26 2027 GMT
        Subject: CN=Client2928Cert2ec8ce
        Subject Public Key Info:
            Public Key Algorithm: rsaEncryption
                Public-Key: (4096 bit)
                Modulus:
                    00:db:77:e8:ae:49:f0:04:d2:77:9a:d2:c1:69:6e:
                    55:a1:b6:23:e8:46:f3:14:b8:7f:5a:6a:bc:fe:ad:
                    12:92:ae:6b:e9:66:99:f4:c8:a3:fc:18:6d:89:38:
                    04:57:c8:11:b8:67:d1:ad:99:ce:7d:d0:e3:6b:f3:
                    87:e1:1d:19:a0:95:0c:a6:94:a2:93:5a:26:25:1d:
                    51:be:52:08:9e:e8:e2:4f:61:84:03:d1:e0:1b:07:
                    8f:e6:9c:0c:a1:b2:d5:39:cd:16:95:c9:17:77:d6:
                    24:b2:93:a0:df:f6:59:0d:a6:7d:2b:d2:5a:24:d9:
                    e5:2a:a1:35:58:16:8c:08:13:36:88:c7:a7:b0:ab:
                    f4:9e:f9:af:1f:b6:38:86:2d:21:e4:85:e3:55:0a:
                    cc:b3:44:af:37:37:c4:db:cb:fc:0f:50:a3:99:0e:
                    89:e3:8e:cb:0b:07:3f:2c:a7:ba:0b:cb:bd:ef:8a:
                    5c:fd:b7:8e:40:24:0a:bc:2c:fc:7f:d3:b2:6e:4c:
                    c3:e8:4e:f2:1a:2c:66:04:7c:74:55:67:6b:cd:a8:
                    78:67:d3:e9:0a:2c:5e:d8:c0:00:4e:f0:93:ec:8c:
                    81:ad:f1:c8:87:1e:72:84:8f:6a:73:7e:7f:ce:15:
                    8a:b2:31:fd:d9:cb:95:94:ea:3c:2d:6c:38:78:a5:
                    ba:80:e3:b5:c0:13:2c:7a:fa:bf:57:c8:42:d9:4e:
                    21:ae:26:50:28:49:d8:0f:3b:cd:7f:9b:2c:33:fc:
                    05:bf:60:88:fa:0e:7d:89:ca:9f:7f:0c:b4:a9:94:
                    a9:55:ae:ca:f1:9a:18:b4:03:c5:f1:8d:a3:54:e0:
                    cb:a5:5a:a4:24:32:88:9e:c5:6c:fc:ea:a6:b5:0f:
                    7c:61:ef:b1:d5:c9:fa:3f:e7:06:c2:e5:45:8f:50:
                    eb:36:af:27:62:fd:8a:8a:de:53:41:7b:cd:96:8b:
                    2a:95:24:7a:4f:9d:1b:ea:f4:48:de:d3:fb:51:04:
                    51:09:41:54:c0:93:df:f6:29:f7:84:96:93:c4:15:
                    1a:ab:e0:86:20:c0:31:2c:23:b7:a2:e2:37:fe:54:
                    c0:fc:d6:1b:f9:eb:f8:f3:01:78:5f:14:0f:50:69:
                    77:06:98:10:47:62:28:97:6d:4e:1c:6d:f5:08:31:
                    63:76:f5:de:19:cc:d4:b6:73:49:2d:97:74:85:98:
                    f8:92:e2:e9:07:b4:47:68:cc:1b:3f:93:d7:bb:4d:
                    aa:41:d3:53:35:d6:b7:58:32:e2:12:ba:cf:51:28:
                    41:af:99:b1:7f:ca:43:64:aa:1c:bb:28:ae:65:7e:
                    50:8a:9f:ae:f3:33:0e:56:82:83:fa:2f:28:af:89:
                    e7:74:5b
                Exponent: 65537 (0x10001)
        X509v3 extensions:
            X509v3 Basic Constraints: 
                CA:FALSE
            Netscape Comment: 
                Easy-RSA Generated Certificate
            X509v3 Subject Key Identifier: 
                66:15:C3:8D:A5:76:95:21:E7:0F:95:F9:27:B1:D1:8B:82:B5:16:F6
            X509v3 Authority Key Identifier: 
                keyid:12:CD:60:04:D2:A0:80:9E:70:ED:C6:99:B8:7B:2C:C6:52:FD:19:A1
                DirName:/C=US/ST=OH/L=Columbus/O=VikingVPN/OU=MyOrganizationalUnit/CN=VikingVPN CA/name=EasyRSA/emailAddress=me@myhost.mydomain
                serial:CF:35:85:EE:80:BF:2A:3E

            X509v3 Extended Key Usage: 
                TLS Web Client Authentication
            X509v3 Key Usage: 
                Digital Signature
    Signature Algorithm: sha256WithRSAEncryption
         0f:4f:85:9c:c3:a8:40:46:76:23:ae:03:c8:4f:e2:13:0c:16:
         59:04:eb:ac:52:5f:f6:c7:b1:44:28:ea:71:2e:ec:79:3f:88:
         d0:58:0b:bb:ae:5b:15:d5:f1:13:ad:3c:37:63:bd:77:f9:ab:
         db:00:d3:3e:24:52:1d:5b:93:7e:98:55:4d:e4:07:e1:7b:69:
         86:91:71:f6:9f:ae:e4:ce:c8:30:a5:d0:86:89:7d:38:51:fa:
         43:3d:3c:0b:74:a3:43:4c:06:5e:58:46:62:50:6b:6a:bd:94:
         10:c5:89:ef:70:ae:37:c3:65:3b:d0:41:03:f1:08:d1:e4:41:
         41:10:27:ef:34:6f:d9:bc:15:bf:75:9f:89:1e:d3:94:ae:37:
         d0:c3:f4:f1:3c:90:78:a9:3a:a0:e5:0b:3b:94:58:0c:91:53:
         e6:14:15:12:88:ac:76:c6:30:8a:ee:52:65:00:db:79:3b:e4:
         70:5c:bf:ad:f6:51:76:81:f8:9e:ff:ab:8b:c1:68:ab:14:d7:
         2a:dc:ed:d3:53:ba:ea:fa:82:33:e3:0a:3f:84:8c:58:60:29:
         e3:e0:82:0d:13:0b:ec:3b:90:6f:50:9d:ca:9c:b1:91:72:c7:
         7c:f2:4d:69:67:04:28:c1:60:94:2f:4d:aa:98:f6:8d:84:5d:
         da:4d:c4:b9:cf:a4:8e:b9:61:6e:64:91:dd:6b:17:08:b1:de:
         5b:24:49:ae:75:43:e8:c8:7b:6a:fb:cb:56:63:94:b7:2f:8e:
         8c:f6:99:2d:46:6d:8c:06:42:64:a3:b5:d6:66:0a:2c:f0:5e:
         ff:9d:0b:25:3a:32:83:cc:e0:bd:b2:5f:0a:36:3f:e2:8c:31:
         1a:10:be:ea:66:80:da:66:e4:34:62:ef:4d:8a:fe:83:35:e5:
         73:0b:81:95:b7:37:49:86:ee:56:85:9f:df:34:ae:52:aa:99:
         09:3a:22:06:e8:5a:ba:a4:1c:83:5f:5f:62:bb:03:7d:56:99:
         f6:45:f9:04:82:08:7c:cc:0a:09:a7:ef:cd:90:09:2d:f9:40:
         85:5a:7b:ad:e6:21:2a:75:59:4e:e5:41:7b:eb:ee:96:8c:f7:
         dd:b9:b7:f6:bb:04:a7:a0:61:c7:43:a7:29:f4:3c:95:9e:d6:
         d5:7a:f2:11:06:fb:88:8a:57:54:cd:40:1a:85:c0:51:f1:db:
         8a:0e:29:e7:97:9e:1a:85:57:ca:81:49:61:56:eb:35:1e:20:
         03:aa:7b:3e:ef:03:c5:1e:aa:0e:62:64:30:7b:e9:5d:37:a9:
         51:3a:18:f3:6e:bb:15:f9:ae:22:a9:9f:11:25:53:b3:19:81:
         88:2a:ec:4a:34:f2:b2:52
-----BEGIN CERTIFICATE-----
MIIGrTCCBJWgAwIBAgICKvIwDQYJKoZIhvcNAQELBQAwgawxCzAJBgNVBAYTAlVT
MQswCQYDVQQIEwJPSDERMA8GA1UEBxMIQ29sdW1idXMxEjAQBgNVBAoTCVZpa2lu
Z1ZQTjEdMBsGA1UECxMUTXlPcmdhbml6YXRpb25hbFVuaXQxFTATBgNVBAMTDFZp
a2luZ1ZQTiBDQTEQMA4GA1UEKRMHRWFzeVJTQTEhMB8GCSqGSIb3DQEJARYSbWVA
bXlob3N0Lm15ZG9tYWluMB4XDTE3MDUyMjAwNDcyNloXDTI3MDUyMDAwNDcyNlow
HzEdMBsGA1UEAxMUQ2xpZW50MjkyOENlcnQyZWM4Y2UwggIiMA0GCSqGSIb3DQEB
AQUAA4ICDwAwggIKAoICAQDbd+iuSfAE0nea0sFpblWhtiPoRvMUuH9aarz+rRKS
rmvpZpn0yKP8GG2JOARXyBG4Z9Gtmc590ONr84fhHRmglQymlKKTWiYlHVG+Ugie
6OJPYYQD0eAbB4/mnAyhstU5zRaVyRd31iSyk6Df9lkNpn0r0lok2eUqoTVYFowI
EzaIx6ewq/Se+a8ftjiGLSHkheNVCsyzRK83N8Tby/wPUKOZDonjjssLBz8sp7oL
y73vilz9t45AJAq8LPx/07JuTMPoTvIaLGYEfHRVZ2vNqHhn0+kKLF7YwABO8JPs
jIGt8ciHHnKEj2pzfn/OFYqyMf3Zy5WU6jwtbDh4pbqA47XAEyx6+r9XyELZTiGu
JlAoSdgPO81/mywz/AW/YIj6Dn2Jyp9/DLSplKlVrsrxmhi0A8XxjaNU4MulWqQk
MoiexWz86qa1D3xh77HVyfo/5wbC5UWPUOs2rydi/YqK3lNBe82WiyqVJHpPnRvq
9Eje0/tRBFEJQVTAk9/2KfeElpPEFRqr4IYgwDEsI7ei4jf+VMD81hv56/jzAXhf
FA9QaXcGmBBHYiiXbU4cbfUIMWN29d4ZzNS2c0ktl3SFmPiS4ukHtEdozBs/k9e7
TapB01M11rdYMuISus9RKEGvmbF/ykNkqhy7KK5lflCKn67zMw5WgoP6Lyivied0
WwIDAQABo4IBYzCCAV8wCQYDVR0TBAIwADAtBglghkgBhvhCAQ0EIBYeRWFzeS1S
U0EgR2VuZXJhdGVkIENlcnRpZmljYXRlMB0GA1UdDgQWBBRmFcONpXaVIecPlfkn
sdGLgrUW9jCB4QYDVR0jBIHZMIHWgBQSzWAE0qCAnnDtxpm4eyzGUv0ZoaGBsqSB
rzCBrDELMAkGA1UEBhMCVVMxCzAJBgNVBAgTAk9IMREwDwYDVQQHEwhDb2x1bWJ1
czESMBAGA1UEChMJVmlraW5nVlBOMR0wGwYDVQQLExRNeU9yZ2FuaXphdGlvbmFs
VW5pdDEVMBMGA1UEAxMMVmlraW5nVlBOIENBMRAwDgYDVQQpEwdFYXN5UlNBMSEw
HwYJKoZIhvcNAQkBFhJtZUBteWhvc3QubXlkb21haW6CCQDPNYXugL8qPjATBgNV
HSUEDDAKBggrBgEFBQcDAjALBgNVHQ8EBAMCB4AwDQYJKoZIhvcNAQELBQADggIB
AA9PhZzDqEBGdiOuA8hP4hMMFlkE66xSX/bHsUQo6nEu7Hk/iNBYC7uuWxXV8ROt
PDdjvXf5q9sA0z4kUh1bk36YVU3kB+F7aYaRcfafruTOyDCl0IaJfThR+kM9PAt0
o0NMBl5YRmJQa2q9lBDFie9wrjfDZTvQQQPxCNHkQUEQJ+80b9m8Fb91n4ke05Su
N9DD9PE8kHipOqDlCzuUWAyRU+YUFRKIrHbGMIruUmUA23k75HBcv632UXaB+J7/
q4vBaKsU1yrc7dNTuur6gjPjCj+EjFhgKePggg0TC+w7kG9QncqcsZFyx3zyTWln
BCjBYJQvTaqY9o2EXdpNxLnPpI65YW5kkd1rFwix3lskSa51Q+jIe2r7y1ZjlLcv
joz2mS1GbYwGQmSjtdZmCizwXv+dCyU6MoPM4L2yXwo2P+KMMRoQvupmgNpm5DRi
702K/oM15XMLgZW3N0mG7laFn980rlKqmQk6IgboWrqkHINfX2K7A31WmfZF+QSC
CHzMCgmn782QCS35QIVae63mISp1WU7lQXvr7paM9925t/a7BKegYcdDpyn0PJWe
1tV68hEG+4iKV1TNQBqFwFHx24oOKeeXnhqFV8qBSWFW6zUeIAOqez7vA8Ueqg5i
ZDB76V03qVE6GPNuuxX5riKpnxElU7MZgYgq7Eo08rJS
-----END CERTIFICATE-----
