Certificate:
    Data:
        Version: 3 (0x2)
        Serial Number: 11253 (0x2bf5)
    Signature Algorithm: sha256WithRSAEncryption
        Issuer: C=US, ST=OH, L=Columbus, O=VikingVPN, OU=MyOrganizationalUnit, CN=VikingVPN CA/name=EasyRSA/emailAddress=me@myhost.mydomain
        Validity
            Not Before: Jul  6 15:43:52 2017 GMT
            Not After : Jul  4 15:43:52 2027 GMT
        Subject: CN=Client2984Cert086032
        Subject Public Key Info:
            Public Key Algorithm: rsaEncryption
                Public-Key: (4096 bit)
                Modulus:
                    00:d5:7b:a4:8d:0c:34:40:e0:01:b9:c3:a4:b1:bd:
                    5d:99:42:9d:4e:1d:c9:43:5b:56:04:9a:43:a4:71:
                    b0:48:9a:1d:c6:e1:50:37:75:16:a5:f0:29:ae:c5:
                    35:ac:56:69:d3:31:24:20:d2:85:29:21:e0:69:b7:
                    92:aa:93:83:72:09:e1:fb:0f:74:93:eb:04:6c:cc:
                    93:f5:c6:f9:3a:f1:df:f8:80:8d:21:75:cb:9f:8c:
                    70:b3:4b:94:c5:14:40:67:e4:28:d1:c6:52:e1:10:
                    0b:f0:e2:9c:65:f7:38:5e:bd:06:dd:f9:14:66:3f:
                    e9:00:e9:1e:c3:74:fa:0e:a9:15:7b:5b:f9:b1:e3:
                    37:86:fb:08:19:17:71:35:7b:63:a7:8e:a1:95:15:
                    94:99:8a:b6:0d:0e:b0:0b:42:11:e9:35:90:d9:13:
                    67:70:0e:cb:d8:27:80:8a:30:7b:86:cd:17:0e:6e:
                    76:63:06:db:56:c4:fa:39:21:69:14:04:81:a7:c0:
                    96:09:60:a1:1b:0b:fb:51:46:c1:6a:76:a5:77:60:
                    17:f2:e0:e5:aa:5d:7c:05:0f:99:3a:9d:51:7c:95:
                    06:c1:80:2b:62:fb:05:8e:4e:92:47:16:c2:db:2d:
                    1e:61:2b:e7:db:27:95:c1:7f:fe:d1:83:3b:4b:d6:
                    b0:98:bd:26:59:60:e5:aa:6f:44:d9:00:94:55:6a:
                    31:c8:e5:70:2b:d7:4e:cb:9e:27:d1:a3:88:27:9c:
                    77:ac:1b:be:a4:0d:ae:3e:70:d3:4c:a5:f7:6e:f9:
                    67:c7:a0:e8:e1:ef:f6:7f:b5:42:98:5b:d2:69:9f:
                    71:8d:d8:3d:cd:02:9a:53:55:d8:5c:17:0d:c2:a3:
                    43:be:43:a5:bb:ee:3f:9f:48:8c:19:f7:61:e1:d9:
                    0e:a7:37:5c:0f:bd:a5:e9:d8:38:5a:f7:40:39:d4:
                    5d:2c:ef:19:ed:dd:4c:ab:8f:dd:5d:c3:a3:58:23:
                    b4:9b:e2:39:18:13:b6:d8:09:1e:44:73:79:c2:db:
                    cc:98:e9:59:1c:8a:60:db:ac:0e:83:0f:25:da:26:
                    a5:92:fa:17:69:d0:9a:f0:20:18:d6:4b:94:d7:c5:
                    d3:e4:05:c5:8c:65:a7:17:19:cf:2f:76:f5:cb:c5:
                    f7:ee:c5:a8:1a:64:a1:ee:6e:e1:69:b9:44:b5:22:
                    9d:7f:e5:31:cc:72:90:a6:7d:de:96:d6:a6:99:18:
                    f9:8c:42:4d:db:51:79:b4:f6:86:d0:8d:2b:4d:37:
                    cb:0b:02:9d:f1:4c:39:f5:d0:e6:db:a6:f5:2b:37:
                    fd:21:cf:63:97:b1:e3:33:9a:0b:45:b8:7e:ba:31:
                    76:18:65
                Exponent: 65537 (0x10001)
        X509v3 extensions:
            X509v3 Basic Constraints: 
                CA:FALSE
            Netscape Comment: 
                Easy-RSA Generated Certificate
            X509v3 Subject Key Identifier: 
                F6:31:26:B9:7B:86:C1:B8:0F:16:BE:F9:E9:7D:DD:97:72:3F:F2:D1
            X509v3 Authority Key Identifier: 
                keyid:12:CD:60:04:D2:A0:80:9E:70:ED:C6:99:B8:7B:2C:C6:52:FD:19:A1
                DirName:/C=US/ST=OH/L=Columbus/O=VikingVPN/OU=MyOrganizationalUnit/CN=VikingVPN CA/name=EasyRSA/emailAddress=me@myhost.mydomain
                serial:CF:35:85:EE:80:BF:2A:3E

            X509v3 Extended Key Usage: 
                TLS Web Client Authentication
            X509v3 Key Usage: 
                Digital Signature
    Signature Algorithm: sha256WithRSAEncryption
         18:bf:8a:5c:37:9f:90:f2:dc:22:60:f6:33:e6:1b:d1:0a:04:
         6f:a4:ed:bc:76:c2:fe:ad:7b:b6:64:c6:43:34:07:73:fa:51:
         a8:e5:a8:c0:ca:23:fc:c0:73:d9:aa:17:10:93:c2:e5:dd:17:
         c1:00:e1:2b:44:73:b3:f0:11:bd:70:2f:18:b5:9e:23:19:b9:
         02:dd:53:c4:ac:cd:ea:6a:5f:02:72:b3:35:e1:7c:7d:77:60:
         27:da:b2:a6:a7:ee:9e:ef:bb:c1:b9:8c:be:59:5a:07:df:1c:
         f8:fd:03:4f:6a:7a:bb:b9:eb:24:31:1b:75:d1:3b:3e:eb:73:
         09:62:00:ff:ce:d2:39:d3:66:c9:4d:48:60:2a:02:e9:4d:c1:
         b5:a3:9e:a4:0d:83:8c:b8:29:92:88:ae:b0:d0:e0:70:27:52:
         bf:b8:e3:19:81:7f:8d:3e:f6:68:d1:d8:97:3b:0e:00:1d:e2:
         15:6d:91:68:9f:3f:38:7f:c7:15:71:9c:43:c3:e3:b3:ff:5c:
         56:32:87:be:37:78:5f:a2:d5:6b:af:e1:2e:21:34:0d:ee:54:
         c9:70:79:aa:5f:a9:92:0e:82:e2:2e:7b:ad:ac:79:91:e2:de:
         01:0d:22:b2:7d:13:28:86:21:3e:b3:1b:b8:bd:ce:77:64:7f:
         95:38:a6:c1:89:ae:22:86:6d:0e:74:84:b0:de:6e:b4:82:b2:
         06:e5:cb:f5:a5:dc:e0:42:15:d1:5a:33:af:02:9a:57:f4:7d:
         e4:50:a5:03:9b:9d:4f:cd:6f:86:af:22:cd:ee:5d:d6:a1:86:
         ff:a7:a9:59:fd:6a:dd:4c:e9:e8:7a:aa:7f:d1:1b:e9:39:b7:
         5a:7c:57:10:6c:d3:33:c5:a1:ec:0e:25:eb:10:b6:bf:38:b7:
         4f:58:d5:ab:11:f0:53:4b:c9:77:4d:25:6a:7d:a2:52:39:43:
         a0:69:90:c8:3f:6c:6e:53:f6:71:03:10:c4:3e:95:56:9b:ec:
         18:6f:d5:e4:bc:7c:46:2d:81:1f:36:89:a8:c8:0e:e8:9d:e2:
         1b:9f:b7:8e:f5:58:94:a2:49:38:45:0b:e8:60:7e:8d:62:93:
         b4:a8:93:42:84:f5:e1:24:36:bf:0f:aa:76:42:d2:8a:92:61:
         4d:04:c1:86:c9:d0:d7:6b:8c:aa:94:05:55:37:18:2f:47:af:
         05:27:02:05:37:db:db:a0:dc:24:b0:d0:58:71:fc:36:1f:eb:
         f7:df:1a:da:3a:2c:34:e7:8f:d4:78:fd:de:d9:a4:43:99:74:
         b6:26:43:91:75:40:96:ff:bd:87:c6:4d:2f:fc:d8:33:27:c9:
         5d:15:2b:92:c8:2a:71:2d
-----BEGIN CERTIFICATE-----
MIIGrTCCBJWgAwIBAgICK/UwDQYJKoZIhvcNAQELBQAwgawxCzAJBgNVBAYTAlVT
MQswCQYDVQQIEwJPSDERMA8GA1UEBxMIQ29sdW1idXMxEjAQBgNVBAoTCVZpa2lu
Z1ZQTjEdMBsGA1UECxMUTXlPcmdhbml6YXRpb25hbFVuaXQxFTATBgNVBAMTDFZp
a2luZ1ZQTiBDQTEQMA4GA1UEKRMHRWFzeVJTQTEhMB8GCSqGSIb3DQEJARYSbWVA
bXlob3N0Lm15ZG9tYWluMB4XDTE3MDcwNjE1NDM1MloXDTI3MDcwNDE1NDM1Mlow
HzEdMBsGA1UEAxMUQ2xpZW50Mjk4NENlcnQwODYwMzIwggIiMA0GCSqGSIb3DQEB
AQUAA4ICDwAwggIKAoICAQDVe6SNDDRA4AG5w6SxvV2ZQp1OHclDW1YEmkOkcbBI
mh3G4VA3dRal8CmuxTWsVmnTMSQg0oUpIeBpt5Kqk4NyCeH7D3ST6wRszJP1xvk6
8d/4gI0hdcufjHCzS5TFFEBn5CjRxlLhEAvw4pxl9zhevQbd+RRmP+kA6R7DdPoO
qRV7W/mx4zeG+wgZF3E1e2OnjqGVFZSZirYNDrALQhHpNZDZE2dwDsvYJ4CKMHuG
zRcObnZjBttWxPo5IWkUBIGnwJYJYKEbC/tRRsFqdqV3YBfy4OWqXXwFD5k6nVF8
lQbBgCti+wWOTpJHFsLbLR5hK+fbJ5XBf/7RgztL1rCYvSZZYOWqb0TZAJRVajHI
5XAr107LnifRo4gnnHesG76kDa4+cNNMpfdu+WfHoOjh7/Z/tUKYW9Jpn3GN2D3N
AppTVdhcFw3Co0O+Q6W77j+fSIwZ92Hh2Q6nN1wPvaXp2Dha90A51F0s7xnt3Uyr
j91dw6NYI7Sb4jkYE7bYCR5Ec3nC28yY6VkcimDbrA6DDyXaJqWS+hdp0JrwIBjW
S5TXxdPkBcWMZacXGc8vdvXLxffuxagaZKHubuFpuUS1Ip1/5THMcpCmfd6W1qaZ
GPmMQk3bUXm09obQjStNN8sLAp3xTDn10ObbpvUrN/0hz2OXseMzmgtFuH66MXYY
ZQIDAQABo4IBYzCCAV8wCQYDVR0TBAIwADAtBglghkgBhvhCAQ0EIBYeRWFzeS1S
U0EgR2VuZXJhdGVkIENlcnRpZmljYXRlMB0GA1UdDgQWBBT2MSa5e4bBuA8Wvvnp
fd2Xcj/y0TCB4QYDVR0jBIHZMIHWgBQSzWAE0qCAnnDtxpm4eyzGUv0ZoaGBsqSB
rzCBrDELMAkGA1UEBhMCVVMxCzAJBgNVBAgTAk9IMREwDwYDVQQHEwhDb2x1bWJ1
czESMBAGA1UEChMJVmlraW5nVlBOMR0wGwYDVQQLExRNeU9yZ2FuaXphdGlvbmFs
VW5pdDEVMBMGA1UEAxMMVmlraW5nVlBOIENBMRAwDgYDVQQpEwdFYXN5UlNBMSEw
HwYJKoZIhvcNAQkBFhJtZUBteWhvc3QubXlkb21haW6CCQDPNYXugL8qPjATBgNV
HSUEDDAKBggrBgEFBQcDAjALBgNVHQ8EBAMCB4AwDQYJKoZIhvcNAQELBQADggIB
ABi/ilw3n5Dy3CJg9jPmG9EKBG+k7bx2wv6te7ZkxkM0B3P6UajlqMDKI/zAc9mq
FxCTwuXdF8EA4StEc7PwEb1wLxi1niMZuQLdU8SszepqXwJyszXhfH13YCfasqan
7p7vu8G5jL5ZWgffHPj9A09qeru56yQxG3XROz7rcwliAP/O0jnTZslNSGAqAulN
wbWjnqQNg4y4KZKIrrDQ4HAnUr+44xmBf40+9mjR2Jc7DgAd4hVtkWifPzh/xxVx
nEPD47P/XFYyh743eF+i1Wuv4S4hNA3uVMlweapfqZIOguIue62seZHi3gENIrJ9
EyiGIT6zG7i9zndkf5U4psGJriKGbQ50hLDebrSCsgbly/Wl3OBCFdFaM68Cmlf0
feRQpQObnU/Nb4avIs3uXdahhv+nqVn9at1M6eh6qn/RG+k5t1p8VxBs0zPFoewO
JesQtr84t09Y1asR8FNLyXdNJWp9olI5Q6BpkMg/bG5T9nEDEMQ+lVab7Bhv1eS8
fEYtgR82iajIDuid4huft471WJSiSThFC+hgfo1ik7Sok0KE9eEkNr8PqnZC0oqS
YU0EwYbJ0NdrjKqUBVU3GC9HrwUnAgU329ug3CSw0Fhx/DYf6/ffGto6LDTnj9R4
/d7ZpEOZdLYmQ5F1QJb/vYfGTS/82DMnyV0VK5LIKnEt
-----END CERTIFICATE-----
