Certificate:
    Data:
        Version: 3 (0x2)
        Serial Number: 5748 (0x1674)
    Signature Algorithm: md5WithRSAEncryption
        Issuer: C=US, ST=OH, L=Columbus, O=VikingVPN, OU=MyOrganizationalUnit, CN=VikingVPN CA/name=EasyRSA/emailAddress=me@myhost.mydomain
        Validity
            Not Before: Jul  9 01:49:19 2015 GMT
            Not After : Jul  6 01:49:19 2025 GMT
        Subject: CN=Client1821Cert263dc9
        Subject Public Key Info:
            Public Key Algorithm: rsaEncryption
                Public-Key: (4096 bit)
                Modulus:
                    00:b0:14:c2:af:4f:2d:64:28:2f:c2:cb:06:34:4c:
                    12:ea:88:68:f2:99:21:82:de:69:bd:d1:44:d9:ad:
                    c2:c7:05:5d:3c:e7:88:ec:f3:63:1f:e6:90:dd:b6:
                    12:c4:f5:e5:77:dc:e7:2a:73:ba:ea:41:5d:92:e6:
                    77:75:bd:58:92:45:3d:78:80:33:14:3d:8e:00:78:
                    66:b9:1a:08:80:c4:53:a6:12:39:95:a1:99:9b:5b:
                    8e:16:65:8b:53:42:40:a3:ac:3b:8a:0e:b4:c5:9c:
                    33:55:87:7f:cd:99:ec:9b:f0:59:93:35:0a:33:cc:
                    d4:c2:4f:cc:50:8c:23:56:5f:35:dc:2b:a1:39:94:
                    16:90:42:dd:7a:1a:ee:2e:59:25:21:a0:b8:0d:0c:
                    27:24:ea:51:1a:39:dc:1d:5c:f2:05:b1:29:d3:54:
                    08:07:0e:35:dd:a1:d7:73:bb:f0:26:99:e5:f4:67:
                    ca:dc:aa:67:ce:72:69:94:ab:d0:7c:fb:88:dc:c7:
                    60:62:2d:83:e1:88:92:6e:76:6b:ce:e5:1b:8c:ea:
                    df:e2:5e:bb:0f:41:df:de:af:65:4e:20:2d:45:c4:
                    90:fc:5a:41:30:de:cb:55:b9:20:54:33:a9:59:53:
                    1f:24:82:2e:d0:59:b6:c2:60:32:36:16:e6:81:25:
                    a0:5a:4a:dc:30:b0:6b:53:b3:e2:5a:ec:54:82:48:
                    77:28:07:b1:48:5d:e6:99:27:96:5d:8a:35:50:a2:
                    d3:8d:05:12:68:1a:68:f5:7e:e5:ea:b7:bd:cf:a1:
                    15:8c:f5:36:b9:0e:b5:d0:82:e0:81:ab:cf:5b:55:
                    28:b1:1f:0f:2e:7e:05:56:59:18:6c:71:d4:d2:51:
                    14:cc:67:72:d4:3d:e3:3e:c8:35:68:92:63:07:e7:
                    ea:d9:b8:69:12:79:90:9d:8d:07:44:20:60:3c:e9:
                    30:b0:a7:93:25:bd:6d:96:0d:b9:2e:ff:dc:6e:1c:
                    b5:b8:27:d2:a6:1e:35:56:64:42:e4:53:bc:da:31:
                    1c:79:04:92:95:0c:5b:16:9c:43:81:14:da:33:85:
                    7b:e4:3c:07:7f:e6:4d:3c:e7:38:9b:d4:6f:70:74:
                    c6:ce:bc:35:7d:cb:e2:c3:e9:f9:c8:8b:2c:91:b3:
                    79:0e:37:d8:51:4e:eb:0d:6f:53:8a:4a:95:9a:10:
                    aa:68:e8:90:8a:79:d1:b8:17:24:92:02:8d:de:73:
                    f2:bd:03:a4:e9:7c:d1:dd:8e:97:9d:14:66:a6:ed:
                    bf:b6:8c:fa:5d:78:a5:8e:56:ad:f5:cd:b3:b5:b8:
                    25:ac:80:22:d5:be:47:9c:9e:61:fe:94:e4:46:a5:
                    73:4f:4b
                Exponent: 65537 (0x10001)
        X509v3 extensions:
            X509v3 Basic Constraints: 
                CA:FALSE
            Netscape Comment: 
                Easy-RSA Generated Certificate
            X509v3 Subject Key Identifier: 
                50:11:2D:D1:FE:3F:B0:12:4F:5F:DF:CE:1E:5E:18:24:EA:E8:08:12
            X509v3 Authority Key Identifier: 
                keyid:12:CD:60:04:D2:A0:80:9E:70:ED:C6:99:B8:7B:2C:C6:52:FD:19:A1
                DirName:/C=US/ST=OH/L=Columbus/O=VikingVPN/OU=MyOrganizationalUnit/CN=VikingVPN CA/name=EasyRSA/emailAddress=me@myhost.mydomain
                serial:CF:35:85:EE:80:BF:2A:3E

            X509v3 Extended Key Usage: 
                TLS Web Client Authentication
            X509v3 Key Usage: 
                Digital Signature
    Signature Algorithm: md5WithRSAEncryption
         1e:ec:f4:84:ca:62:c4:9a:0b:70:8d:79:4a:83:0d:a2:e7:fa:
         af:d0:a1:32:e6:4e:13:66:c3:37:a4:58:8b:f4:96:ec:96:db:
         9a:57:5d:cb:f8:69:1f:27:79:7c:59:9d:26:67:e4:85:a0:07:
         4f:13:62:c2:93:cb:ac:d5:db:f2:09:c7:fd:02:66:76:f4:c7:
         60:b5:0d:ef:06:69:24:95:32:5b:ca:ac:e4:c5:f9:b9:d2:85:
         1b:9c:c0:a8:34:98:f8:67:72:f6:dd:eb:b1:4f:15:7a:6a:b1:
         59:e4:f4:4e:c9:26:f6:6e:30:11:0e:6a:a1:4f:ff:22:89:33:
         f5:90:d1:58:f4:c5:e2:0c:e9:ce:f3:98:33:bb:94:f7:76:66:
         40:14:06:c0:81:cc:83:49:c1:79:41:a7:9d:be:a5:4d:8e:8d:
         c1:50:df:55:43:27:a2:3b:5c:52:78:0d:9f:20:14:1c:02:54:
         d6:e6:d1:93:0b:4b:55:70:f5:76:3b:ac:fe:f8:b3:e6:02:38:
         cb:8c:7d:90:08:42:85:0e:27:bb:1f:4d:21:e8:40:93:05:4d:
         37:55:b8:1a:85:fd:a3:43:5a:1b:99:94:fe:f5:b4:df:4a:c6:
         93:cb:4f:83:a7:74:3e:2a:38:c6:00:cd:3f:a8:00:32:38:e7:
         e7:6b:c8:d1:0c:2f:27:8e:a1:c9:11:41:28:77:03:25:61:1e:
         1b:54:c5:74:1f:52:9f:ea:1f:aa:37:64:d3:47:06:11:aa:b6:
         1c:5d:39:d9:70:7e:a8:2e:9e:10:dc:f3:8f:ff:89:18:d7:e7:
         26:d4:ad:5b:60:05:c2:0f:4b:eb:55:b0:50:db:23:2d:bb:32:
         5a:ba:a2:7b:f0:06:fc:5c:85:f4:15:27:f8:53:41:4d:46:4b:
         04:45:01:aa:ba:e9:10:56:5b:dd:34:48:a6:a1:e9:b3:bb:f1:
         c7:36:31:53:4c:73:ee:5e:70:ed:40:a4:36:ea:9d:73:28:3f:
         ed:18:09:ee:87:ce:01:e9:aa:ca:2c:21:c7:7d:9c:56:c3:12:
         bd:63:51:8d:ee:22:31:16:e6:77:f9:76:03:4e:b6:30:56:9f:
         52:76:46:1c:c3:26:cb:24:77:4d:0d:9b:85:81:96:0d:f0:9d:
         c6:ed:c7:a2:e3:51:18:4f:06:10:bb:8c:f7:0f:2b:90:76:2b:
         39:92:f2:8f:32:43:5f:12:7d:15:5c:da:61:fb:7e:b5:c3:50:
         53:d6:05:6b:17:ef:e8:d2:af:f7:81:29:44:ce:72:d0:8f:e5:
         84:3f:0b:5f:48:6e:1f:d0:63:be:f3:74:5e:df:b8:05:ac:ed:
         e4:a4:20:89:0d:85:06:fe
-----BEGIN CERTIFICATE-----
MIIGrTCCBJWgAwIBAgICFnQwDQYJKoZIhvcNAQEEBQAwgawxCzAJBgNVBAYTAlVT
MQswCQYDVQQIEwJPSDERMA8GA1UEBxMIQ29sdW1idXMxEjAQBgNVBAoTCVZpa2lu
Z1ZQTjEdMBsGA1UECxMUTXlPcmdhbml6YXRpb25hbFVuaXQxFTATBgNVBAMTDFZp
a2luZ1ZQTiBDQTEQMA4GA1UEKRMHRWFzeVJTQTEhMB8GCSqGSIb3DQEJARYSbWVA
bXlob3N0Lm15ZG9tYWluMB4XDTE1MDcwOTAxNDkxOVoXDTI1MDcwNjAxNDkxOVow
HzEdMBsGA1UEAxMUQ2xpZW50MTgyMUNlcnQyNjNkYzkwggIiMA0GCSqGSIb3DQEB
AQUAA4ICDwAwggIKAoICAQCwFMKvTy1kKC/CywY0TBLqiGjymSGC3mm90UTZrcLH
BV0854js82Mf5pDdthLE9eV33Ocqc7rqQV2S5nd1vViSRT14gDMUPY4AeGa5GgiA
xFOmEjmVoZmbW44WZYtTQkCjrDuKDrTFnDNVh3/Nmeyb8FmTNQozzNTCT8xQjCNW
XzXcK6E5lBaQQt16Gu4uWSUhoLgNDCck6lEaOdwdXPIFsSnTVAgHDjXdoddzu/Am
meX0Z8rcqmfOcmmUq9B8+4jcx2BiLYPhiJJudmvO5RuM6t/iXrsPQd/er2VOIC1F
xJD8WkEw3stVuSBUM6lZUx8kgi7QWbbCYDI2FuaBJaBaStwwsGtTs+Ja7FSCSHco
B7FIXeaZJ5ZdijVQotONBRJoGmj1fuXqt73PoRWM9Ta5DrXQguCBq89bVSixHw8u
fgVWWRhscdTSURTMZ3LUPeM+yDVokmMH5+rZuGkSeZCdjQdEIGA86TCwp5MlvW2W
Dbku/9xuHLW4J9KmHjVWZELkU7zaMRx5BJKVDFsWnEOBFNozhXvkPAd/5k085zib
1G9wdMbOvDV9y+LD6fnIiyyRs3kON9hRTusNb1OKSpWaEKpo6JCKedG4FySSAo3e
c/K9A6TpfNHdjpedFGam7b+2jPpdeKWOVq31zbO1uCWsgCLVvkecnmH+lORGpXNP
SwIDAQABo4IBYzCCAV8wCQYDVR0TBAIwADAtBglghkgBhvhCAQ0EIBYeRWFzeS1S
U0EgR2VuZXJhdGVkIENlcnRpZmljYXRlMB0GA1UdDgQWBBRQES3R/j+wEk9f384e
Xhgk6ugIEjCB4QYDVR0jBIHZMIHWgBQSzWAE0qCAnnDtxpm4eyzGUv0ZoaGBsqSB
rzCBrDELMAkGA1UEBhMCVVMxCzAJBgNVBAgTAk9IMREwDwYDVQQHEwhDb2x1bWJ1
czESMBAGA1UEChMJVmlraW5nVlBOMR0wGwYDVQQLExRNeU9yZ2FuaXphdGlvbmFs
VW5pdDEVMBMGA1UEAxMMVmlraW5nVlBOIENBMRAwDgYDVQQpEwdFYXN5UlNBMSEw
HwYJKoZIhvcNAQkBFhJtZUBteWhvc3QubXlkb21haW6CCQDPNYXugL8qPjATBgNV
HSUEDDAKBggrBgEFBQcDAjALBgNVHQ8EBAMCB4AwDQYJKoZIhvcNAQEEBQADggIB
AB7s9ITKYsSaC3CNeUqDDaLn+q/QoTLmThNmwzekWIv0luyW25pXXcv4aR8neXxZ
nSZn5IWgB08TYsKTy6zV2/IJx/0CZnb0x2C1De8GaSSVMlvKrOTF+bnShRucwKg0
mPhncvbd67FPFXpqsVnk9E7JJvZuMBEOaqFP/yKJM/WQ0Vj0xeIM6c7zmDO7lPd2
ZkAUBsCBzINJwXlBp52+pU2OjcFQ31VDJ6I7XFJ4DZ8gFBwCVNbm0ZMLS1Vw9XY7
rP74s+YCOMuMfZAIQoUOJ7sfTSHoQJMFTTdVuBqF/aNDWhuZlP71tN9KxpPLT4On
dD4qOMYAzT+oADI45+dryNEMLyeOockRQSh3AyVhHhtUxXQfUp/qH6o3ZNNHBhGq
thxdOdlwfqgunhDc84//iRjX5ybUrVtgBcIPS+tVsFDbIy27Mlq6onvwBvxchfQV
J/hTQU1GSwRFAaq66RBWW900SKah6bO78cc2MVNMc+5ecO1ApDbqnXMoP+0YCe6H
zgHpqsosIcd9nFbDEr1jUY3uIjEW5nf5dgNOtjBWn1J2RhzDJsskd00Nm4WBlg3w
ncbtx6LjURhPBhC7jPcPK5B2KzmS8o8yQ18SfRVc2mH7frXDUFPWBWsX7+jSr/eB
KUTOctCP5YQ/C19Ibh/QY77zdF7fuAWs7eSkIIkNhQb+
-----END CERTIFICATE-----
