Certificate:
    Data:
        Version: 3 (0x2)
        Serial Number: 3093 (0xc15)
    Signature Algorithm: md5WithRSAEncryption
        Issuer: C=US, ST=OH, L=Columbus, O=VikingVPN, OU=MyOrganizationalUnit, CN=VikingVPN CA/name=EasyRSA/emailAddress=me@myhost.mydomain
        Validity
            Not Before: Oct 11 08:27:02 2014 GMT
            Not After : Oct  8 08:27:02 2024 GMT
        Subject: CN=Client1062Cert7b6801
        Subject Public Key Info:
            Public Key Algorithm: rsaEncryption
                Public-Key: (4096 bit)
                Modulus:
                    00:a1:39:cb:aa:59:bf:70:f5:fd:38:bc:d9:e1:fb:
                    72:01:94:2e:36:d0:4d:c6:77:2d:55:e5:72:56:6b:
                    d7:cc:b5:6f:44:f4:a1:11:60:3f:90:56:c9:fe:98:
                    70:a9:fa:6a:6a:f9:f4:6f:56:a3:5d:60:77:51:69:
                    50:6f:9e:f2:ff:4c:13:26:f1:ac:75:2d:3c:ed:3e:
                    dd:10:12:19:d3:7e:e8:c5:78:c7:2a:06:e5:08:b6:
                    62:9b:60:73:20:09:0a:df:a3:37:6f:96:8a:98:73:
                    e9:76:30:8d:39:8a:8a:bc:06:fb:de:07:aa:b7:2c:
                    20:6d:b6:52:19:d0:c3:19:0c:9c:a8:07:e1:3d:ce:
                    c1:cb:20:c3:03:b2:03:bb:6f:5d:43:5b:be:d0:47:
                    ff:e9:50:4a:c8:36:d1:c4:a8:a0:be:e2:58:f9:1e:
                    27:b6:5b:85:a7:4d:eb:3a:c7:34:28:ba:ea:52:e4:
                    5a:38:1e:23:e0:8e:5e:d6:10:72:d9:1c:ce:77:da:
                    d3:a7:1d:70:c8:69:a4:4a:89:c4:14:f5:47:ed:60:
                    26:00:d4:ca:46:00:6d:d4:a8:f1:b9:a9:24:b2:6a:
                    b0:e2:17:44:55:bd:9f:5f:b7:14:87:ca:4a:c5:a2:
                    a5:3a:30:10:ac:98:5e:2d:78:f9:3e:8f:b0:4a:64:
                    8c:c0:f6:75:cd:50:42:26:85:71:e0:c9:6a:0c:31:
                    08:80:a1:93:bd:2c:80:67:f2:20:11:4b:ad:da:7d:
                    9c:1a:fe:f1:47:bc:b2:2f:2c:81:61:c0:68:c0:65:
                    fb:77:2d:00:31:cb:0d:29:5b:5e:9a:6d:2b:b6:70:
                    7a:f4:11:1a:3f:59:80:a2:0d:8a:df:41:76:b2:d2:
                    51:3e:e7:a8:55:6a:37:5c:bf:44:64:56:d1:7c:da:
                    a5:5c:b3:49:ff:ff:27:8e:17:22:cb:15:05:50:25:
                    61:9e:17:67:9f:90:f4:01:d4:fe:07:0b:37:d9:db:
                    0c:79:45:d6:58:72:d1:91:b7:52:7a:3d:fe:58:10:
                    52:30:6e:44:86:d8:74:bf:b1:38:be:9e:cf:e7:ad:
                    6b:1b:1c:83:04:90:88:6e:ca:6d:84:f0:df:3d:4f:
                    22:4c:06:02:12:10:bb:58:93:6a:08:e1:ae:d3:55:
                    21:98:17:f8:d2:b4:69:dc:3e:e4:e7:c3:14:36:6e:
                    35:9e:c2:9a:77:68:21:de:2e:25:e8:2c:36:20:3b:
                    4f:50:40:8e:a8:b0:96:cd:da:36:71:e8:d9:20:34:
                    1a:5c:49:3e:2c:c4:0f:66:bf:6e:ba:98:a6:ca:13:
                    6b:13:6a:a6:d6:84:da:1d:1d:d3:ca:a0:5e:1f:6d:
                    89:e8:3b
                Exponent: 65537 (0x10001)
        X509v3 extensions:
            X509v3 Basic Constraints: 
                CA:FALSE
            Netscape Comment: 
                Easy-RSA Generated Certificate
            X509v3 Subject Key Identifier: 
                49:3F:C7:83:03:BA:F5:C3:8D:D5:D6:BC:1B:F9:8F:A2:B1:75:65:60
            X509v3 Authority Key Identifier: 
                keyid:12:CD:60:04:D2:A0:80:9E:70:ED:C6:99:B8:7B:2C:C6:52:FD:19:A1
                DirName:/C=US/ST=OH/L=Columbus/O=VikingVPN/OU=MyOrganizationalUnit/CN=VikingVPN CA/name=EasyRSA/emailAddress=me@myhost.mydomain
                serial:CF:35:85:EE:80:BF:2A:3E

            X509v3 Extended Key Usage: 
                TLS Web Client Authentication
            X509v3 Key Usage: 
                Digital Signature
    Signature Algorithm: md5WithRSAEncryption
         38:9a:31:a3:48:2d:4e:83:09:ce:2a:1e:6c:6d:6e:7e:4d:de:
         d8:03:ea:cf:2b:8a:87:32:de:4e:38:c8:28:4a:52:d8:81:58:
         c2:b8:b6:fe:00:4e:b6:4d:1f:4e:65:ac:bd:8c:7d:80:93:32:
         ef:ea:a5:6a:75:09:d0:78:73:f7:cb:e8:93:02:fb:68:6a:a7:
         fa:d7:69:9e:c8:0c:5c:ae:b7:b2:8e:e6:d5:9c:c3:3e:ce:28:
         89:5d:74:d9:ce:68:f0:03:e1:6a:15:10:eb:80:5d:23:26:d9:
         2e:05:8d:15:71:f7:40:2c:65:3f:c6:ff:b0:ab:33:e7:50:be:
         bf:07:8b:a1:00:fc:1c:1a:e2:64:55:ba:38:f2:67:ce:ad:74:
         ff:f2:1c:76:b9:07:3a:f2:90:cb:8a:4b:84:3f:a3:77:1f:26:
         32:da:43:59:d3:bc:23:f2:c3:bc:46:0d:e8:15:b2:72:ce:9d:
         3a:22:b0:ae:42:e7:d7:51:b3:e7:5c:4a:a5:94:e4:db:97:9d:
         6f:63:47:b0:db:f3:bf:f2:9f:8d:f4:38:5a:d7:25:d3:61:5b:
         b6:af:bb:17:3e:74:a1:0d:2b:c6:bc:7c:d7:b8:27:ff:4a:20:
         27:c6:56:10:e1:9f:2a:f1:c4:e8:cd:f8:43:08:44:81:33:5b:
         9d:2c:99:a0:43:0d:76:32:02:87:aa:6c:ce:da:4b:1d:8e:60:
         39:a0:1e:63:04:65:09:90:cf:5a:0b:96:91:ca:07:ae:c6:8a:
         af:3b:9c:96:c3:bf:c5:46:2d:67:99:bb:bc:76:d6:7e:26:ba:
         16:e6:8b:16:05:99:22:47:d9:ea:9c:fc:89:56:6c:8d:ac:63:
         bc:c8:ac:c5:d8:e5:fa:38:9c:76:f9:3a:67:7e:9e:63:67:ff:
         67:c6:94:3c:b1:a9:ba:40:4a:a3:bb:88:73:4d:24:d7:fe:a4:
         29:91:09:9a:2b:69:f6:fd:72:93:cb:e1:7a:54:3c:81:8e:da:
         e8:50:c8:2d:c2:bd:4e:b3:69:68:6a:65:b5:4f:b4:20:19:28:
         71:b2:b1:7e:e2:52:bc:07:8d:a8:79:2c:a5:7a:f1:ba:50:16:
         99:d9:45:51:b6:9a:a0:a8:2a:31:e3:e9:04:dd:12:e0:0c:eb:
         30:c7:40:a1:f5:fb:3e:3d:8f:e0:78:c4:6f:9a:8c:a8:8d:7e:
         1c:d6:09:28:03:22:7b:9b:38:16:ae:ba:67:ad:28:f7:f2:bd:
         04:d0:f1:8b:04:bc:e5:e8:4b:7b:09:e2:da:3d:ab:0a:7c:c4:
         a9:b5:22:85:3e:7e:85:02:55:a2:11:a4:97:2d:45:d2:d2:95:
         57:bb:fb:99:fc:6c:c7:89
-----BEGIN CERTIFICATE-----
MIIGrTCCBJWgAwIBAgICDBUwDQYJKoZIhvcNAQEEBQAwgawxCzAJBgNVBAYTAlVT
MQswCQYDVQQIEwJPSDERMA8GA1UEBxMIQ29sdW1idXMxEjAQBgNVBAoTCVZpa2lu
Z1ZQTjEdMBsGA1UECxMUTXlPcmdhbml6YXRpb25hbFVuaXQxFTATBgNVBAMTDFZp
a2luZ1ZQTiBDQTEQMA4GA1UEKRMHRWFzeVJTQTEhMB8GCSqGSIb3DQEJARYSbWVA
bXlob3N0Lm15ZG9tYWluMB4XDTE0MTAxMTA4MjcwMloXDTI0MTAwODA4MjcwMlow
HzEdMBsGA1UEAxMUQ2xpZW50MTA2MkNlcnQ3YjY4MDEwggIiMA0GCSqGSIb3DQEB
AQUAA4ICDwAwggIKAoICAQChOcuqWb9w9f04vNnh+3IBlC420E3Gdy1V5XJWa9fM
tW9E9KERYD+QVsn+mHCp+mpq+fRvVqNdYHdRaVBvnvL/TBMm8ax1LTztPt0QEhnT
fujFeMcqBuUItmKbYHMgCQrfozdvloqYc+l2MI05ioq8BvveB6q3LCBttlIZ0MMZ
DJyoB+E9zsHLIMMDsgO7b11DW77QR//pUErINtHEqKC+4lj5Hie2W4WnTes6xzQo
uupS5Fo4HiPgjl7WEHLZHM532tOnHXDIaaRKicQU9UftYCYA1MpGAG3UqPG5qSSy
arDiF0RVvZ9ftxSHykrFoqU6MBCsmF4tePk+j7BKZIzA9nXNUEImhXHgyWoMMQiA
oZO9LIBn8iARS63afZwa/vFHvLIvLIFhwGjAZft3LQAxyw0pW16abSu2cHr0ERo/
WYCiDYrfQXay0lE+56hVajdcv0RkVtF82qVcs0n//yeOFyLLFQVQJWGeF2efkPQB
1P4HCzfZ2wx5RdZYctGRt1J6Pf5YEFIwbkSG2HS/sTi+ns/nrWsbHIMEkIhuym2E
8N89TyJMBgISELtYk2oI4a7TVSGYF/jStGncPuTnwxQ2bjWewpp3aCHeLiXoLDYg
O09QQI6osJbN2jZx6NkgNBpcST4sxA9mv266mKbKE2sTaqbWhNodHdPKoF4fbYno
OwIDAQABo4IBYzCCAV8wCQYDVR0TBAIwADAtBglghkgBhvhCAQ0EIBYeRWFzeS1S
U0EgR2VuZXJhdGVkIENlcnRpZmljYXRlMB0GA1UdDgQWBBRJP8eDA7r1w43V1rwb
+Y+isXVlYDCB4QYDVR0jBIHZMIHWgBQSzWAE0qCAnnDtxpm4eyzGUv0ZoaGBsqSB
rzCBrDELMAkGA1UEBhMCVVMxCzAJBgNVBAgTAk9IMREwDwYDVQQHEwhDb2x1bWJ1
czESMBAGA1UEChMJVmlraW5nVlBOMR0wGwYDVQQLExRNeU9yZ2FuaXphdGlvbmFs
VW5pdDEVMBMGA1UEAxMMVmlraW5nVlBOIENBMRAwDgYDVQQpEwdFYXN5UlNBMSEw
HwYJKoZIhvcNAQkBFhJtZUBteWhvc3QubXlkb21haW6CCQDPNYXugL8qPjATBgNV
HSUEDDAKBggrBgEFBQcDAjALBgNVHQ8EBAMCB4AwDQYJKoZIhvcNAQEEBQADggIB
ADiaMaNILU6DCc4qHmxtbn5N3tgD6s8riocy3k44yChKUtiBWMK4tv4ATrZNH05l
rL2MfYCTMu/qpWp1CdB4c/fL6JMC+2hqp/rXaZ7IDFyut7KO5tWcwz7OKIlddNnO
aPAD4WoVEOuAXSMm2S4FjRVx90AsZT/G/7CrM+dQvr8Hi6EA/Bwa4mRVujjyZ86t
dP/yHHa5BzrykMuKS4Q/o3cfJjLaQ1nTvCPyw7xGDegVsnLOnToisK5C59dRs+dc
SqWU5NuXnW9jR7Db87/yn430OFrXJdNhW7avuxc+dKENK8a8fNe4J/9KICfGVhDh
nyrxxOjN+EMIRIEzW50smaBDDXYyAoeqbM7aSx2OYDmgHmMEZQmQz1oLlpHKB67G
iq87nJbDv8VGLWeZu7x21n4muhbmixYFmSJH2eqc/IlWbI2sY7zIrMXY5fo4nHb5
Omd+nmNn/2fGlDyxqbpASqO7iHNNJNf+pCmRCZorafb9cpPL4XpUPIGO2uhQyC3C
vU6zaWhqZbVPtCAZKHGysX7iUrwHjah5LKV68bpQFpnZRVG2mqCoKjHj6QTdEuAM
6zDHQKH1+z49j+B4xG+ajKiNfhzWCSgDInubOBauumetKPfyvQTQ8YsEvOXoS3sJ
4to9qwp8xKm1IoU+foUCVaIRpJctRdLSlVe7+5n8bMeJ
-----END CERTIFICATE-----
