Certificate:
    Data:
        Version: 3 (0x2)
        Serial Number: 12059 (0x2f1b)
    Signature Algorithm: sha256WithRSAEncryption
        Issuer: C=US, ST=OH, L=Columbus, O=VikingVPN, OU=MyOrganizationalUnit, CN=VikingVPN CA/name=EasyRSA/emailAddress=me@myhost.mydomain
        Validity
            Not Before: Oct 31 16:32:17 2017 GMT
            Not After : Oct 29 16:32:17 2027 GMT
        Subject: CN=Client3010Certe03d54
        Subject Public Key Info:
            Public Key Algorithm: rsaEncryption
                Public-Key: (4096 bit)
                Modulus:
                    00:dd:32:98:fb:c4:86:3d:02:e0:20:b6:8d:f9:c3:
                    16:ed:61:87:a4:0e:57:14:7f:94:8b:9e:23:c1:72:
                    6a:bb:c8:e5:27:db:4c:63:23:27:e5:87:70:2a:41:
                    bb:04:14:76:a9:0a:6c:35:50:90:47:90:4e:7e:e5:
                    24:70:70:1a:80:15:66:bd:e0:1b:fc:81:02:c9:92:
                    a9:9a:47:51:ae:51:67:6b:7b:6c:09:53:bc:c6:11:
                    12:66:2a:c1:e1:bf:6c:74:75:ff:04:5c:27:d1:2c:
                    7d:a0:3d:a3:63:9f:db:4f:9e:cc:40:36:5f:14:e5:
                    9f:11:27:4e:45:1a:6c:eb:17:8b:d0:2a:a3:af:4d:
                    49:9b:91:5a:23:68:17:94:bd:6b:7d:2b:4b:a4:f9:
                    55:11:45:13:b6:0c:48:3d:0e:60:05:f3:62:f6:85:
                    0a:57:1f:20:3d:08:a5:bc:38:0e:57:82:3b:e1:72:
                    05:40:aa:c9:45:27:fe:e0:a8:95:15:9f:4e:ca:7f:
                    b4:29:ff:69:72:11:f4:87:d5:3d:01:88:c6:05:e9:
                    4f:1b:25:f1:72:45:6f:61:c9:ca:a6:73:25:c9:01:
                    08:fb:36:7b:0b:08:96:69:99:cd:95:21:42:75:df:
                    f0:9c:04:c4:88:70:96:5f:65:21:32:ca:86:cf:0d:
                    2f:bc:a3:70:3b:ee:0c:73:bd:bc:9a:30:be:9c:ee:
                    c0:2f:f5:9a:a1:95:73:1b:97:ef:75:a4:7e:5f:fd:
                    f4:9d:3f:71:e0:b9:5b:d0:da:08:a3:e5:13:8f:2d:
                    46:b7:20:a8:4e:a7:df:98:fb:ac:c1:d5:ec:d3:c2:
                    f6:2c:51:88:93:8f:5c:f5:ae:e5:a3:e3:6a:c5:dc:
                    0b:94:65:bd:de:4d:23:a3:0c:a2:ab:d0:2b:78:33:
                    ea:e4:46:ae:31:9f:e6:f9:41:8a:03:cc:af:5c:1f:
                    8c:38:09:a4:46:36:14:4e:af:26:89:9d:03:4c:7f:
                    69:cc:74:eb:15:84:8b:eb:66:37:f3:a4:a6:e5:23:
                    65:91:c4:25:6b:e7:a4:ca:80:3e:08:33:31:65:1b:
                    81:49:ac:ec:93:f0:83:67:ce:25:4b:44:d3:52:1d:
                    46:c5:0c:59:ee:9c:34:50:8d:9f:00:5c:56:07:1a:
                    e5:d9:b7:bb:3c:3f:d1:22:17:4d:6f:dd:82:41:9f:
                    62:d1:07:4a:7a:58:29:0e:69:df:1f:55:07:a0:d1:
                    2f:3d:41:7b:90:a9:14:33:fa:f9:23:7f:34:9b:de:
                    36:99:51:bd:bc:2b:b2:ee:33:3a:6f:c7:90:f7:b6:
                    07:67:f5:bb:29:7d:00:eb:42:50:a1:d2:07:d2:2f:
                    5b:90:0d
                Exponent: 65537 (0x10001)
        X509v3 extensions:
            X509v3 Basic Constraints: 
                CA:FALSE
            Netscape Comment: 
                Easy-RSA Generated Certificate
            X509v3 Subject Key Identifier: 
                86:BD:EE:5F:51:55:E6:36:D7:83:CE:C4:C4:CE:CC:96:71:A0:C5:B6
            X509v3 Authority Key Identifier: 
                keyid:12:CD:60:04:D2:A0:80:9E:70:ED:C6:99:B8:7B:2C:C6:52:FD:19:A1
                DirName:/C=US/ST=OH/L=Columbus/O=VikingVPN/OU=MyOrganizationalUnit/CN=VikingVPN CA/name=EasyRSA/emailAddress=me@myhost.mydomain
                serial:CF:35:85:EE:80:BF:2A:3E

            X509v3 Extended Key Usage: 
                TLS Web Client Authentication
            X509v3 Key Usage: 
                Digital Signature
    Signature Algorithm: sha256WithRSAEncryption
         e2:02:7b:e6:a7:fe:44:5f:91:9b:1d:4b:4c:3b:9a:59:30:30:
         0f:91:3e:59:ad:5d:b1:38:17:ff:22:c6:b9:70:a7:fe:d5:e7:
         4e:af:1b:ee:a5:cb:64:c6:62:75:26:fa:5d:c6:02:98:10:5a:
         2e:cd:38:0f:b6:d5:9e:e6:8a:b9:ec:79:d0:42:d4:6f:b2:05:
         03:c7:b5:32:f2:7b:1c:db:6b:2c:ed:b1:96:ff:7e:47:63:7c:
         8a:8c:2b:2c:02:5e:04:8b:4a:68:68:c3:6f:d4:d8:0b:51:c7:
         f2:52:a5:36:37:84:dd:af:d7:35:f7:60:9b:d1:17:59:1d:b4:
         83:37:5b:1d:f1:3f:c7:3a:77:a7:0c:e8:b8:69:33:53:3a:07:
         3f:3e:c7:43:eb:99:6e:f2:5a:d1:46:4a:8f:1f:82:bc:a3:8a:
         2c:30:c3:7f:19:3e:f8:a6:3c:d7:e5:78:1b:2a:59:c8:83:d1:
         05:96:93:1f:90:73:ce:97:b7:51:a2:4c:67:97:9f:6a:27:f6:
         59:7d:e8:fd:5a:34:b5:52:86:2c:6b:0c:4d:ba:da:b9:86:17:
         f3:4f:74:9b:fe:47:a3:3f:f9:e0:5f:40:9b:54:f4:bd:2e:16:
         a5:4e:3e:e4:35:dd:ab:fe:7d:08:d1:71:fb:57:74:a9:29:d7:
         93:3e:b6:58:14:8d:85:82:0c:97:dd:3a:78:0a:02:2e:be:d7:
         d2:b8:bc:bc:76:aa:58:74:39:ee:d7:f5:44:4c:33:4a:2f:a6:
         f7:ae:37:96:cd:5d:3e:23:ae:1d:09:09:66:a2:46:0e:3e:84:
         fa:9a:c3:92:83:88:fa:da:3d:95:d3:a0:ec:8d:44:71:09:e8:
         dc:34:d6:ac:c5:8b:5a:e6:44:2a:cc:08:be:16:28:9f:93:e5:
         38:80:19:c4:ff:2d:e9:98:cd:5f:8b:64:a4:4e:24:14:84:60:
         fe:b4:e0:ef:9f:80:0a:93:44:26:6b:f7:b7:c0:46:d0:1d:43:
         0e:54:a3:7e:7b:10:4c:18:9c:27:da:ea:4b:ec:fa:21:87:ac:
         33:5e:65:ea:b9:68:13:55:b8:a6:ff:2c:bc:35:a1:6c:e0:af:
         ae:e3:74:ef:71:2a:8a:2e:29:a5:51:cb:6b:8e:a1:4d:9c:e5:
         e1:0e:60:72:c2:d0:ec:8d:2b:c4:d6:b7:3a:d8:1b:25:89:95:
         dd:83:57:29:32:60:8a:25:f1:8b:02:e2:bb:e1:9d:df:9d:dc:
         25:be:b8:2a:ab:a8:0f:64:fa:be:72:4b:5a:e1:c0:fb:f5:27:
         a5:91:56:2f:70:ee:4b:5c:22:85:e7:6b:02:18:87:36:77:a5:
         a7:08:c6:16:22:a4:c6:2e
-----BEGIN CERTIFICATE-----
MIIGrTCCBJWgAwIBAgICLxswDQYJKoZIhvcNAQELBQAwgawxCzAJBgNVBAYTAlVT
MQswCQYDVQQIEwJPSDERMA8GA1UEBxMIQ29sdW1idXMxEjAQBgNVBAoTCVZpa2lu
Z1ZQTjEdMBsGA1UECxMUTXlPcmdhbml6YXRpb25hbFVuaXQxFTATBgNVBAMTDFZp
a2luZ1ZQTiBDQTEQMA4GA1UEKRMHRWFzeVJTQTEhMB8GCSqGSIb3DQEJARYSbWVA
bXlob3N0Lm15ZG9tYWluMB4XDTE3MTAzMTE2MzIxN1oXDTI3MTAyOTE2MzIxN1ow
HzEdMBsGA1UEAxMUQ2xpZW50MzAxMENlcnRlMDNkNTQwggIiMA0GCSqGSIb3DQEB
AQUAA4ICDwAwggIKAoICAQDdMpj7xIY9AuAgto35wxbtYYekDlcUf5SLniPBcmq7
yOUn20xjIyflh3AqQbsEFHapCmw1UJBHkE5+5SRwcBqAFWa94Bv8gQLJkqmaR1Gu
UWdre2wJU7zGERJmKsHhv2x0df8EXCfRLH2gPaNjn9tPnsxANl8U5Z8RJ05FGmzr
F4vQKqOvTUmbkVojaBeUvWt9K0uk+VURRRO2DEg9DmAF82L2hQpXHyA9CKW8OA5X
gjvhcgVAqslFJ/7gqJUVn07Kf7Qp/2lyEfSH1T0BiMYF6U8bJfFyRW9hycqmcyXJ
AQj7NnsLCJZpmc2VIUJ13/CcBMSIcJZfZSEyyobPDS+8o3A77gxzvbyaML6c7sAv
9ZqhlXMbl+91pH5f/fSdP3HguVvQ2gij5ROPLUa3IKhOp9+Y+6zB1ezTwvYsUYiT
j1z1ruWj42rF3AuUZb3eTSOjDKKr0Ct4M+rkRq4xn+b5QYoDzK9cH4w4CaRGNhRO
ryaJnQNMf2nMdOsVhIvrZjfzpKblI2WRxCVr56TKgD4IMzFlG4FJrOyT8INnziVL
RNNSHUbFDFnunDRQjZ8AXFYHGuXZt7s8P9EiF01v3YJBn2LRB0p6WCkOad8fVQeg
0S89QXuQqRQz+vkjfzSb3jaZUb28K7LuMzpvx5D3tgdn9bspfQDrQlCh0gfSL1uQ
DQIDAQABo4IBYzCCAV8wCQYDVR0TBAIwADAtBglghkgBhvhCAQ0EIBYeRWFzeS1S
U0EgR2VuZXJhdGVkIENlcnRpZmljYXRlMB0GA1UdDgQWBBSGve5fUVXmNteDzsTE
zsyWcaDFtjCB4QYDVR0jBIHZMIHWgBQSzWAE0qCAnnDtxpm4eyzGUv0ZoaGBsqSB
rzCBrDELMAkGA1UEBhMCVVMxCzAJBgNVBAgTAk9IMREwDwYDVQQHEwhDb2x1bWJ1
czESMBAGA1UEChMJVmlraW5nVlBOMR0wGwYDVQQLExRNeU9yZ2FuaXphdGlvbmFs
VW5pdDEVMBMGA1UEAxMMVmlraW5nVlBOIENBMRAwDgYDVQQpEwdFYXN5UlNBMSEw
HwYJKoZIhvcNAQkBFhJtZUBteWhvc3QubXlkb21haW6CCQDPNYXugL8qPjATBgNV
HSUEDDAKBggrBgEFBQcDAjALBgNVHQ8EBAMCB4AwDQYJKoZIhvcNAQELBQADggIB
AOICe+an/kRfkZsdS0w7mlkwMA+RPlmtXbE4F/8ixrlwp/7V506vG+6ly2TGYnUm
+l3GApgQWi7NOA+21Z7mirnsedBC1G+yBQPHtTLyexzbayztsZb/fkdjfIqMKywC
XgSLSmhow2/U2AtRx/JSpTY3hN2v1zX3YJvRF1kdtIM3Wx3xP8c6d6cM6LhpM1M6
Bz8+x0PrmW7yWtFGSo8fgryjiiwww38ZPvimPNfleBsqWciD0QWWkx+Qc86Xt1Gi
TGeXn2on9ll96P1aNLVShixrDE262rmGF/NPdJv+R6M/+eBfQJtU9L0uFqVOPuQ1
3av+fQjRcftXdKkp15M+tlgUjYWCDJfdOngKAi6+19K4vLx2qlh0Oe7X9URMM0ov
pveuN5bNXT4jrh0JCWaiRg4+hPqaw5KDiPraPZXToOyNRHEJ6Nw01qzFi1rmRCrM
CL4WKJ+T5TiAGcT/LemYzV+LZKROJBSEYP604O+fgAqTRCZr97fARtAdQw5Uo357
EEwYnCfa6kvs+iGHrDNeZeq5aBNVuKb/LLw1oWzgr67jdO9xKoouKaVRy2uOoU2c
5eEOYHLC0OyNK8TWtzrYGyWJld2DVykyYIol8YsC4rvhnd+d3CW+uCqrqA9k+r5y
S1rhwPv1J6WRVi9w7ktcIoXnawIYhzZ3pacIxhYipMYu
-----END CERTIFICATE-----
