Certificate:
    Data:
        Version: 3 (0x2)
        Serial Number: 408 (0x198)
    Signature Algorithm: md5WithRSAEncryption
        Issuer: C=US, ST=OH, L=Columbus, O=VikingVPN, OU=MyOrganizationalUnit, CN=VikingVPN CA/name=EasyRSA/emailAddress=me@myhost.mydomain
        Validity
            Not Before: Nov 12 15:14:34 2013 GMT
            Not After : Nov 10 15:14:34 2023 GMT
        Subject: CN=Client180Cert3a2447
        Subject Public Key Info:
            Public Key Algorithm: rsaEncryption
                Public-Key: (4096 bit)
                Modulus:
                    00:dd:97:aa:a7:c5:b0:a3:fd:45:08:97:54:4f:12:
                    4a:8d:b1:58:f6:36:2a:07:e1:9a:a6:50:a1:96:10:
                    f5:05:10:a7:e5:39:1c:03:91:90:5a:ce:30:73:5f:
                    b7:f8:97:de:df:c4:84:d3:2d:1e:c1:8b:a2:f1:bb:
                    be:ed:ff:bd:61:c1:eb:b7:6a:7e:8e:90:68:8d:78:
                    12:aa:08:6d:6e:81:59:46:6c:e2:6c:1a:74:5a:e4:
                    1b:fc:bb:46:e4:98:96:9b:48:5f:3f:c2:87:e3:6b:
                    1c:a2:ea:73:67:97:ae:0f:26:1b:21:b4:a1:8d:d7:
                    d9:94:8c:4d:c1:7a:05:d8:28:41:8f:2b:20:cb:b8:
                    a7:55:6d:1a:ce:76:75:17:c7:0a:6b:cc:3b:9a:8a:
                    9c:99:1d:d2:bd:8b:ce:4e:a2:41:ba:d5:34:9d:3d:
                    a3:f2:0d:ef:d3:d2:f6:96:d9:da:aa:ee:62:a7:1a:
                    ea:45:fc:de:b6:1f:29:36:f4:61:76:37:20:45:4b:
                    fc:57:a3:bd:82:b1:b9:18:e0:05:61:ef:43:2b:a5:
                    25:2b:34:a3:a8:39:ef:a2:d1:8b:53:95:c8:24:9e:
                    bf:17:f4:d7:62:bb:87:f8:0f:bc:66:67:a1:e9:56:
                    cb:86:45:da:5f:3f:c8:3a:57:3e:27:fa:37:4f:75:
                    40:4a:46:a3:f0:c2:85:f0:c8:80:b8:2a:ed:97:5d:
                    da:22:8d:1c:ee:ae:05:6d:ee:5e:a1:c1:3e:53:8a:
                    05:32:a7:29:e6:e8:34:eb:02:aa:a9:57:a0:db:5a:
                    df:02:58:6a:f5:f5:14:be:d8:17:4f:77:f7:f1:14:
                    3b:63:c9:b0:96:0a:b6:5a:7a:11:f1:c4:13:bd:0d:
                    49:2e:95:55:2e:2d:a4:8c:5f:86:c9:b5:4c:8d:f1:
                    71:c5:41:33:76:7d:47:8b:c7:d9:07:55:c0:f6:b8:
                    c2:9b:e0:dc:07:2f:ec:52:9c:9f:a6:a2:50:ac:21:
                    5b:65:59:cd:68:e6:e8:4d:34:12:d6:9a:07:b5:f7:
                    79:f9:78:0a:e8:25:7e:70:74:62:77:9f:6e:69:f1:
                    56:05:36:79:48:7e:bf:4b:0d:9e:ad:88:88:b5:ea:
                    2f:9d:29:c4:c2:81:62:0d:39:51:6e:37:20:37:58:
                    9e:22:53:bc:1b:a1:f2:94:3d:3f:37:b9:8e:28:39:
                    f3:88:76:38:52:be:10:fe:59:4d:e1:8d:b6:97:07:
                    fc:2e:29:d4:58:94:1f:d0:df:06:1c:d0:97:8d:cf:
                    87:5f:a7:a4:57:3d:e6:ed:dc:a5:0b:af:fa:d1:ba:
                    70:94:95:d0:ee:7e:3e:9b:9d:95:79:aa:6a:1c:2f:
                    d0:68:97
                Exponent: 65537 (0x10001)
        X509v3 extensions:
            X509v3 Basic Constraints: 
                CA:FALSE
            Netscape Comment: 
                Easy-RSA Generated Certificate
            X509v3 Subject Key Identifier: 
                07:96:7D:9A:3D:4C:4A:69:46:A0:0E:20:41:20:97:4F:EA:02:A0:EE
            X509v3 Authority Key Identifier: 
                keyid:12:CD:60:04:D2:A0:80:9E:70:ED:C6:99:B8:7B:2C:C6:52:FD:19:A1
                DirName:/C=US/ST=OH/L=Columbus/O=VikingVPN/OU=MyOrganizationalUnit/CN=VikingVPN CA/name=EasyRSA/emailAddress=me@myhost.mydomain
                serial:CF:35:85:EE:80:BF:2A:3E

            X509v3 Extended Key Usage: 
                TLS Web Client Authentication
            X509v3 Key Usage: 
                Digital Signature
    Signature Algorithm: md5WithRSAEncryption
         82:9d:f2:62:a1:d2:c8:b2:9c:13:93:1f:6e:b2:bd:08:df:c0:
         39:75:fb:a2:e4:0d:00:d6:3f:15:95:01:f1:e7:9f:da:39:a1:
         0f:d2:ef:d8:8f:a8:72:b6:51:4e:18:e0:ab:9c:4d:d8:fc:33:
         8d:05:5c:1a:f0:38:ae:f0:80:e9:f4:f1:c6:a4:eb:0d:78:2f:
         c6:0c:19:86:c5:8a:1e:23:6a:35:16:30:a0:21:ed:17:bf:8a:
         af:56:62:8d:86:15:d7:7c:34:ff:ad:be:dc:a5:87:88:69:ef:
         b9:d7:9c:91:2b:2d:28:3c:43:81:e2:be:ba:ea:a0:77:ca:eb:
         9a:ff:1d:a1:a1:18:49:b9:bb:a0:75:e6:60:f3:02:7c:83:bd:
         07:4e:a4:10:a2:31:a0:51:c8:fe:63:7b:d5:7c:9d:b1:3f:81:
         11:29:83:32:ba:bc:4d:57:44:ac:bd:01:ad:4d:0d:fb:f8:76:
         ee:63:ad:78:6e:30:01:a3:a4:49:e1:5a:fc:d9:e0:f4:f1:fa:
         77:91:71:4e:b8:06:ba:34:72:b9:fb:19:b5:e3:e5:bc:58:ac:
         9e:0c:36:cf:7e:e3:a6:68:db:3d:3d:a6:2a:80:09:df:d9:ad:
         45:71:97:20:85:83:bc:02:68:c4:47:f5:01:38:e0:43:b9:8c:
         a2:bf:98:42:6e:03:88:69:cb:37:94:5a:05:03:7f:e7:64:c9:
         72:e3:78:c0:a5:b0:c7:a1:c7:9b:37:fb:4f:85:10:e5:06:eb:
         ef:39:04:36:5e:bd:24:48:95:00:44:f5:ec:bf:a3:1d:6a:d2:
         6a:82:dc:f4:0a:04:71:72:d9:3b:ec:9e:b3:44:0f:fb:dc:63:
         2f:8e:a3:7a:a9:9f:ff:1c:05:75:1b:93:54:32:6e:7e:a6:b5:
         32:f7:4e:e3:e7:87:1f:c5:d2:38:43:35:fc:db:d4:86:58:cf:
         6b:a6:34:4c:8b:73:4c:10:19:17:9f:7c:00:2f:9e:3c:7d:09:
         2d:75:e7:02:08:bc:e1:6d:d1:bc:8a:7d:64:7b:65:01:8a:ad:
         0a:bf:9f:89:86:56:a9:66:84:97:c5:49:ac:6e:62:e4:26:be:
         4f:5f:c0:db:9d:8e:0a:89:a4:04:1c:62:40:3b:da:1e:5a:4f:
         48:98:53:bd:db:02:30:a2:fc:f1:d1:9d:d0:d5:cb:f5:3f:ee:
         81:73:1a:4d:04:60:d4:7f:ee:6d:0f:f5:e1:54:b8:07:92:54:
         91:e6:0a:dd:10:1a:32:82:b7:31:22:73:48:70:c1:0c:c2:77:
         96:15:fa:49:41:b6:bd:81:e2:09:bb:45:e2:8e:67:07:29:18:
         12:30:a6:f8:16:7e:be:48
-----BEGIN CERTIFICATE-----
MIIGrDCCBJSgAwIBAgICAZgwDQYJKoZIhvcNAQEEBQAwgawxCzAJBgNVBAYTAlVT
MQswCQYDVQQIEwJPSDERMA8GA1UEBxMIQ29sdW1idXMxEjAQBgNVBAoTCVZpa2lu
Z1ZQTjEdMBsGA1UECxMUTXlPcmdhbml6YXRpb25hbFVuaXQxFTATBgNVBAMTDFZp
a2luZ1ZQTiBDQTEQMA4GA1UEKRMHRWFzeVJTQTEhMB8GCSqGSIb3DQEJARYSbWVA
bXlob3N0Lm15ZG9tYWluMB4XDTEzMTExMjE1MTQzNFoXDTIzMTExMDE1MTQzNFow
HjEcMBoGA1UEAxMTQ2xpZW50MTgwQ2VydDNhMjQ0NzCCAiIwDQYJKoZIhvcNAQEB
BQADggIPADCCAgoCggIBAN2XqqfFsKP9RQiXVE8SSo2xWPY2KgfhmqZQoZYQ9QUQ
p+U5HAORkFrOMHNft/iX3t/EhNMtHsGLovG7vu3/vWHB67dqfo6QaI14EqoIbW6B
WUZs4mwadFrkG/y7RuSYlptIXz/Ch+NrHKLqc2eXrg8mGyG0oY3X2ZSMTcF6Bdgo
QY8rIMu4p1VtGs52dRfHCmvMO5qKnJkd0r2Lzk6iQbrVNJ09o/IN79PS9pbZ2qru
Yqca6kX83rYfKTb0YXY3IEVL/FejvYKxuRjgBWHvQyulJSs0o6g576LRi1OVyCSe
vxf012K7h/gPvGZnoelWy4ZF2l8/yDpXPif6N091QEpGo/DChfDIgLgq7Zdd2iKN
HO6uBW3uXqHBPlOKBTKnKeboNOsCqqlXoNta3wJYavX1FL7YF0939/EUO2PJsJYK
tlp6EfHEE70NSS6VVS4tpIxfhsm1TI3xccVBM3Z9R4vH2QdVwPa4wpvg3Acv7FKc
n6aiUKwhW2VZzWjm6E00EtaaB7X3efl4CuglfnB0YnefbmnxVgU2eUh+v0sNnq2I
iLXqL50pxMKBYg05UW43IDdYniJTvBuh8pQ9Pze5jig584h2OFK+EP5ZTeGNtpcH
/C4p1FiUH9DfBhzQl43Ph1+npFc95u3cpQuv+tG6cJSV0O5+PpudlXmqahwv0GiX
AgMBAAGjggFjMIIBXzAJBgNVHRMEAjAAMC0GCWCGSAGG+EIBDQQgFh5FYXN5LVJT
QSBHZW5lcmF0ZWQgQ2VydGlmaWNhdGUwHQYDVR0OBBYEFAeWfZo9TEppRqAOIEEg
l0/qAqDuMIHhBgNVHSMEgdkwgdaAFBLNYATSoICecO3Gmbh7LMZS/RmhoYGypIGv
MIGsMQswCQYDVQQGEwJVUzELMAkGA1UECBMCT0gxETAPBgNVBAcTCENvbHVtYnVz
MRIwEAYDVQQKEwlWaWtpbmdWUE4xHTAbBgNVBAsTFE15T3JnYW5pemF0aW9uYWxV
bml0MRUwEwYDVQQDEwxWaWtpbmdWUE4gQ0ExEDAOBgNVBCkTB0Vhc3lSU0ExITAf
BgkqhkiG9w0BCQEWEm1lQG15aG9zdC5teWRvbWFpboIJAM81he6Avyo+MBMGA1Ud
JQQMMAoGCCsGAQUFBwMCMAsGA1UdDwQEAwIHgDANBgkqhkiG9w0BAQQFAAOCAgEA
gp3yYqHSyLKcE5MfbrK9CN/AOXX7ouQNANY/FZUB8eef2jmhD9Lv2I+ocrZRThjg
q5xN2PwzjQVcGvA4rvCA6fTxxqTrDXgvxgwZhsWKHiNqNRYwoCHtF7+Kr1ZijYYV
13w0/62+3KWHiGnvudeckSstKDxDgeK+uuqgd8rrmv8doaEYSbm7oHXmYPMCfIO9
B06kEKIxoFHI/mN71XydsT+BESmDMrq8TVdErL0BrU0N+/h27mOteG4wAaOkSeFa
/Nng9PH6d5FxTrgGujRyufsZtePlvFisngw2z37jpmjbPT2mKoAJ39mtRXGXIIWD
vAJoxEf1ATjgQ7mMor+YQm4DiGnLN5RaBQN/52TJcuN4wKWwx6HHmzf7T4UQ5Qbr
7zkENl69JEiVAET17L+jHWrSaoLc9AoEcXLZO+yes0QP+9xjL46jeqmf/xwFdRuT
VDJufqa1MvdO4+eHH8XSOEM1/NvUhljPa6Y0TItzTBAZF598AC+ePH0JLXXnAgi8
4W3RvIp9ZHtlAYqtCr+fiYZWqWaEl8VJrG5i5Ca+T1/A252OComkBBxiQDvaHlpP
SJhTvdsCMKL88dGd0NXL9T/ugXMaTQRg1H/ubQ/14VS4B5JUkeYK3RAaMoK3MSJz
SHDBDMJ3lhX6SUG2vYHiCbtF4o5nBykYEjCm+BZ+vkg=
-----END CERTIFICATE-----
