Certificate:
    Data:
        Version: 3 (0x2)
        Serial Number: 93 (0x5d)
    Signature Algorithm: md5WithRSAEncryption
        Issuer: C=US, ST=OH, L=Columbus, O=VikingVPN, OU=MyOrganizationalUnit, CN=VikingVPN CA/name=EasyRSA/emailAddress=me@myhost.mydomain
        Validity
            Not Before: Aug 28 00:54:38 2013 GMT
            Not After : Aug 26 00:54:38 2023 GMT
        Subject: CN=Client66Certf877de
        Subject Public Key Info:
            Public Key Algorithm: rsaEncryption
                Public-Key: (4096 bit)
                Modulus:
                    00:bd:9e:4a:6f:a9:8a:da:7f:d0:b3:d4:7c:a2:cf:
                    47:cc:c6:05:23:1a:61:a5:34:33:1d:39:85:23:a8:
                    fc:b6:63:71:fe:dd:cf:14:b7:5b:b2:11:6f:a8:97:
                    8d:7a:e9:18:0c:0f:5d:66:04:dd:01:41:7e:fd:c3:
                    65:25:98:e4:54:73:e7:27:d7:fd:f4:e1:c8:78:f4:
                    61:f8:66:83:8f:f3:eb:c8:0b:8a:a4:c4:76:72:c6:
                    32:7c:f6:89:44:9c:f1:40:41:26:e4:3d:bc:d2:3a:
                    da:f9:13:e8:c5:d9:0c:a6:82:a2:a0:a3:d6:55:fa:
                    cd:48:ed:2c:1a:d0:36:ce:86:54:f0:b5:55:92:8b:
                    8d:90:be:e7:be:63:5e:a4:5e:b7:e4:51:a0:7c:ff:
                    16:20:22:d3:bd:2b:e2:6b:bf:dc:b6:6a:0a:21:c1:
                    c2:d8:af:84:ae:9e:74:4d:46:a7:99:98:19:1e:f2:
                    2c:69:8d:6b:c0:75:cf:47:58:6e:23:97:df:cf:cf:
                    18:ea:a7:b5:c1:98:d4:f9:8b:4b:5d:45:6b:7b:01:
                    05:b6:8d:7c:b2:60:bb:04:ed:d1:5c:ac:4f:3e:41:
                    46:06:9a:87:b2:15:3c:f3:14:25:86:b7:c2:71:33:
                    6c:ec:96:e1:c7:b9:77:8a:41:c6:2b:33:f5:06:64:
                    a9:4b:7a:d4:7e:8b:8f:81:80:7c:a9:17:10:d7:97:
                    b7:7c:92:15:96:3a:46:c7:82:35:e1:0b:13:a3:a7:
                    f6:c8:57:cb:99:2f:c4:c3:6a:40:9b:76:33:ae:11:
                    55:90:32:5e:b5:95:95:2a:c2:5a:dc:22:ce:ad:2a:
                    b5:7d:86:44:d9:8a:97:2a:a2:1b:14:38:e7:c5:53:
                    12:f6:d7:45:8a:c8:87:be:6d:4f:a2:86:27:6b:ff:
                    3a:e0:fb:d9:09:af:d6:2c:15:33:25:35:3c:47:6e:
                    d1:ac:e3:ad:6d:ff:60:6f:fa:fb:6c:aa:78:f7:c7:
                    ba:16:c0:b2:97:35:80:be:be:44:25:95:5b:79:50:
                    94:7c:ff:64:b1:6f:a6:93:0e:60:1c:c9:2c:15:af:
                    f5:24:a2:95:6e:b4:70:88:08:0a:19:f0:b5:98:de:
                    76:b8:da:97:8b:94:c2:45:96:49:83:cf:d7:82:94:
                    08:7f:2c:3d:ba:8d:96:3d:95:1f:39:00:1d:54:26:
                    9f:bc:6d:f2:29:32:c9:cb:6d:f4:02:e6:59:7b:0f:
                    91:1a:61:71:e6:8f:52:74:92:7d:63:f8:44:ea:de:
                    24:38:00:0b:ae:3f:45:5c:25:af:f6:1d:62:81:de:
                    8b:e1:07:26:20:1b:e2:b2:5f:f1:b9:e9:85:30:fe:
                    a1:2f:cf
                Exponent: 65537 (0x10001)
        X509v3 extensions:
            X509v3 Basic Constraints: 
                CA:FALSE
            Netscape Comment: 
                Easy-RSA Generated Certificate
            X509v3 Subject Key Identifier: 
                87:E8:E8:3F:DA:25:9D:8A:C5:E8:BE:13:9C:65:2F:CB:2F:44:F1:AA
            X509v3 Authority Key Identifier: 
                keyid:12:CD:60:04:D2:A0:80:9E:70:ED:C6:99:B8:7B:2C:C6:52:FD:19:A1
                DirName:/C=US/ST=OH/L=Columbus/O=VikingVPN/OU=MyOrganizationalUnit/CN=VikingVPN CA/name=EasyRSA/emailAddress=me@myhost.mydomain
                serial:CF:35:85:EE:80:BF:2A:3E

            X509v3 Extended Key Usage: 
                TLS Web Client Authentication
            X509v3 Key Usage: 
                Digital Signature
    Signature Algorithm: md5WithRSAEncryption
         25:df:c5:8a:c6:4e:28:f3:b2:a9:a9:d6:a8:b6:b4:51:3f:ec:
         17:0e:6f:ac:1c:af:f9:26:6e:25:53:c6:c2:0f:c8:1a:98:55:
         cb:02:fc:78:a6:f9:23:16:24:50:9c:d3:24:a1:89:94:b2:4b:
         80:84:e9:ed:b8:7d:24:9b:e6:80:8b:64:8c:84:a3:d4:ad:69:
         cd:4e:66:09:50:84:b0:12:b7:ed:d6:9c:96:e5:ed:b5:8c:56:
         c5:89:d0:3e:b7:73:1b:be:49:b0:50:7f:5d:98:57:ee:68:47:
         a2:2b:39:32:8d:30:a2:9d:10:28:c8:1a:17:03:bb:0f:76:60:
         86:e8:5f:ac:a0:72:28:a4:65:6f:77:49:d4:5c:b0:28:c2:d0:
         5c:c8:2d:20:41:23:4e:f9:11:d8:58:eb:bf:d3:63:20:49:c3:
         9f:6c:7f:36:89:ef:23:96:19:e5:28:17:9e:33:27:76:a9:61:
         e2:56:2a:7f:40:94:d7:b4:26:6c:a6:9b:36:a6:6b:ad:ed:d6:
         56:2e:0a:a9:0d:dc:a9:40:d0:58:ab:09:95:60:aa:11:5f:cf:
         57:e8:4d:9e:63:a8:35:6a:64:e4:02:6c:8b:ba:58:97:d1:41:
         e0:82:52:f4:91:70:07:ac:58:f9:55:a9:32:63:3b:9f:ce:21:
         38:9f:2d:d5:f8:ca:69:21:98:fb:9c:df:34:d8:d1:bc:b2:85:
         90:4a:63:63:9b:e6:04:16:f6:47:fe:77:49:6b:1f:76:50:e5:
         9e:28:8e:6e:24:d0:34:bf:64:82:2d:20:ca:84:2d:88:0c:89:
         86:dc:c8:17:81:ab:35:01:5b:fb:e4:ef:d6:06:19:69:cd:96:
         36:aa:13:61:9d:40:31:30:d5:ba:d4:51:c5:5c:11:36:5c:10:
         8d:ad:b3:7c:02:e9:55:f4:fd:c2:d8:8b:91:e0:ee:ec:7b:25:
         ba:02:6d:1f:bc:cd:c3:22:6d:41:47:16:c5:02:48:60:0e:73:
         f5:6e:a5:bf:82:54:34:a6:d1:53:78:39:43:b3:f5:ed:d7:eb:
         c2:be:d4:e1:9e:15:f7:39:6e:8e:73:4e:b4:09:7d:00:48:d1:
         e8:67:46:76:96:b8:a4:06:bb:07:b1:7b:6d:99:16:78:a3:8a:
         09:a8:34:ec:bb:39:4c:3b:ce:ec:35:e1:96:4b:85:2a:df:cc:
         48:68:81:26:66:69:da:cf:c2:83:08:3d:bd:bb:a7:d2:2d:93:
         b4:08:59:27:13:55:29:8c:4b:65:d3:0c:9c:ee:67:20:e8:46:
         57:d0:3b:7b:99:79:28:c3:87:d7:ea:2f:7e:b8:97:67:97:54:
         55:7a:b9:de:e7:bc:49:63
-----BEGIN CERTIFICATE-----
MIIGqjCCBJKgAwIBAgIBXTANBgkqhkiG9w0BAQQFADCBrDELMAkGA1UEBhMCVVMx
CzAJBgNVBAgTAk9IMREwDwYDVQQHEwhDb2x1bWJ1czESMBAGA1UEChMJVmlraW5n
VlBOMR0wGwYDVQQLExRNeU9yZ2FuaXphdGlvbmFsVW5pdDEVMBMGA1UEAxMMVmlr
aW5nVlBOIENBMRAwDgYDVQQpEwdFYXN5UlNBMSEwHwYJKoZIhvcNAQkBFhJtZUBt
eWhvc3QubXlkb21haW4wHhcNMTMwODI4MDA1NDM4WhcNMjMwODI2MDA1NDM4WjAd
MRswGQYDVQQDExJDbGllbnQ2NkNlcnRmODc3ZGUwggIiMA0GCSqGSIb3DQEBAQUA
A4ICDwAwggIKAoICAQC9nkpvqYraf9Cz1Hyiz0fMxgUjGmGlNDMdOYUjqPy2Y3H+
3c8Ut1uyEW+ol4166RgMD11mBN0BQX79w2UlmORUc+cn1/304ch49GH4ZoOP8+vI
C4qkxHZyxjJ89olEnPFAQSbkPbzSOtr5E+jF2QymgqKgo9ZV+s1I7Swa0DbOhlTw
tVWSi42Qvue+Y16kXrfkUaB8/xYgItO9K+Jrv9y2agohwcLYr4SunnRNRqeZmBke
8ixpjWvAdc9HWG4jl9/Pzxjqp7XBmNT5i0tdRWt7AQW2jXyyYLsE7dFcrE8+QUYG
moeyFTzzFCWGt8JxM2zsluHHuXeKQcYrM/UGZKlLetR+i4+BgHypFxDXl7d8khWW
OkbHgjXhCxOjp/bIV8uZL8TDakCbdjOuEVWQMl61lZUqwlrcIs6tKrV9hkTZipcq
ohsUOOfFUxL210WKyIe+bU+ihidr/zrg+9kJr9YsFTMlNTxHbtGs461t/2Bv+vts
qnj3x7oWwLKXNYC+vkQllVt5UJR8/2Sxb6aTDmAcySwVr/UkopVutHCICAoZ8LWY
3na42peLlMJFlkmDz9eClAh/LD26jZY9lR85AB1UJp+8bfIpMsnLbfQC5ll7D5Ea
YXHmj1J0kn1j+ETq3iQ4AAuuP0VcJa/2HWKB3ovhByYgG+KyX/G56YUw/qEvzwID
AQABo4IBYzCCAV8wCQYDVR0TBAIwADAtBglghkgBhvhCAQ0EIBYeRWFzeS1SU0Eg
R2VuZXJhdGVkIENlcnRpZmljYXRlMB0GA1UdDgQWBBSH6Og/2iWdisXovhOcZS/L
L0TxqjCB4QYDVR0jBIHZMIHWgBQSzWAE0qCAnnDtxpm4eyzGUv0ZoaGBsqSBrzCB
rDELMAkGA1UEBhMCVVMxCzAJBgNVBAgTAk9IMREwDwYDVQQHEwhDb2x1bWJ1czES
MBAGA1UEChMJVmlraW5nVlBOMR0wGwYDVQQLExRNeU9yZ2FuaXphdGlvbmFsVW5p
dDEVMBMGA1UEAxMMVmlraW5nVlBOIENBMRAwDgYDVQQpEwdFYXN5UlNBMSEwHwYJ
KoZIhvcNAQkBFhJtZUBteWhvc3QubXlkb21haW6CCQDPNYXugL8qPjATBgNVHSUE
DDAKBggrBgEFBQcDAjALBgNVHQ8EBAMCB4AwDQYJKoZIhvcNAQEEBQADggIBACXf
xYrGTijzsqmp1qi2tFE/7BcOb6wcr/kmbiVTxsIPyBqYVcsC/Him+SMWJFCc0ySh
iZSyS4CE6e24fSSb5oCLZIyEo9Stac1OZglQhLASt+3WnJbl7bWMVsWJ0D63cxu+
SbBQf12YV+5oR6IrOTKNMKKdECjIGhcDuw92YIboX6ygciikZW93SdRcsCjC0FzI
LSBBI075EdhY67/TYyBJw59sfzaJ7yOWGeUoF54zJ3apYeJWKn9AlNe0Jmymmzam
a63t1lYuCqkN3KlA0FirCZVgqhFfz1foTZ5jqDVqZOQCbIu6WJfRQeCCUvSRcAes
WPlVqTJjO5/OITifLdX4ymkhmPuc3zTY0byyhZBKY2Ob5gQW9kf+d0lrH3ZQ5Z4o
jm4k0DS/ZIItIMqELYgMiYbcyBeBqzUBW/vk79YGGWnNljaqE2GdQDEw1brUUcVc
ETZcEI2ts3wC6VX0/cLYi5Hg7ux7JboCbR+8zcMibUFHFsUCSGAOc/Vupb+CVDSm
0VN4OUOz9e3X68K+1OGeFfc5bo5zTrQJfQBI0ehnRnaWuKQGuwexe22ZFnijigmo
NOy7OUw7zuw14ZZLhSrfzEhogSZmadrPwoMIPb27p9Itk7QIWScTVSmMS2XTDJzu
ZyDoRlfQO3uZeSjDh9fqL364l2eXVFV6ud7nvElj
-----END CERTIFICATE-----
