Certificate:
    Data:
        Version: 3 (0x2)
        Serial Number: 8839 (0x2287)
    Signature Algorithm: sha256WithRSAEncryption
        Issuer: C=US, ST=OH, L=Columbus, O=VikingVPN, OU=MyOrganizationalUnit, CN=VikingVPN CA/name=EasyRSA/emailAddress=me@myhost.mydomain
        Validity
            Not Before: Aug 18 21:08:28 2016 GMT
            Not After : Aug 16 21:08:28 2026 GMT
        Subject: CN=Client2467Certb90c14
        Subject Public Key Info:
            Public Key Algorithm: rsaEncryption
                Public-Key: (4096 bit)
                Modulus:
                    00:a5:00:02:b8:bd:c5:05:d6:81:ed:d9:43:f5:48:
                    11:4e:9a:6a:e3:3a:64:19:7a:7d:5d:e5:b4:00:8b:
                    8f:6e:75:7a:64:76:2f:0d:7f:18:12:39:66:d4:5b:
                    9b:75:52:b9:30:08:a0:b2:52:b0:29:3a:c0:ce:9f:
                    2a:e9:fd:a1:ba:6a:40:89:3f:dc:20:61:25:79:e1:
                    d5:fa:d1:d6:ab:79:1a:1a:67:ab:0c:25:e5:7d:c0:
                    c5:4b:49:f1:75:4f:3c:47:c3:d6:ce:ff:f7:5d:a4:
                    bc:dc:04:34:27:6e:07:06:c3:86:24:58:f4:6b:0c:
                    14:4f:9a:96:68:9c:41:a6:4b:6a:94:41:7c:d9:47:
                    f3:f2:ff:30:13:d1:f4:64:27:ff:2c:b7:c1:85:76:
                    b7:17:62:23:2e:f9:54:9e:94:2a:df:b0:dc:1e:c4:
                    99:32:c2:34:16:45:65:ae:d4:93:d3:8a:30:29:3a:
                    85:d6:fe:ff:eb:ee:7a:35:11:d8:71:81:92:72:1f:
                    18:5b:aa:53:ca:7a:d7:10:24:9a:20:9e:21:85:72:
                    cd:4b:94:cd:7d:41:85:f9:1f:19:75:8c:d5:79:a1:
                    a9:1b:09:9d:6d:6b:5a:0a:86:b2:fe:da:6a:c5:af:
                    b6:e7:a8:5d:5b:4a:ea:16:b4:8c:c3:dc:1f:77:b8:
                    39:d9:a9:65:2e:f6:bf:ae:8e:27:45:d7:28:a5:3b:
                    2f:45:9c:f4:75:46:91:ce:dd:bc:e1:bb:b9:57:00:
                    7a:dc:ed:5a:0b:f4:97:04:f9:2e:7e:32:bb:02:30:
                    2f:41:00:fc:b0:09:2f:7e:53:cb:74:0f:43:0e:b8:
                    97:1d:1e:dc:ac:d9:22:b3:be:ff:16:40:fd:66:55:
                    c5:36:5d:24:dd:0d:19:63:2d:25:f1:56:cd:5c:b9:
                    10:06:13:f4:cb:a7:29:a7:26:28:be:6c:a9:c5:8a:
                    8e:44:d7:eb:78:ba:cf:84:09:c1:47:e5:c2:21:8f:
                    59:75:73:5b:9a:40:c0:99:b2:f8:af:4d:a8:d2:8b:
                    b6:d8:a0:7c:3e:d8:d2:cb:f3:70:07:0e:b0:61:41:
                    d1:b9:ef:e3:98:95:f7:33:08:05:c9:2b:55:3b:7e:
                    95:17:ea:4c:87:7a:12:64:04:6a:b6:a7:30:cd:6d:
                    af:00:36:02:c5:3e:47:94:6a:52:2d:43:d9:63:3b:
                    bd:d1:8c:3b:bd:ae:ab:8b:7e:5c:46:b6:24:1e:b2:
                    8c:ed:d1:ba:ac:07:87:31:d0:6e:ca:97:af:23:91:
                    eb:87:06:69:05:5d:89:fa:7d:26:09:7a:9b:fd:d8:
                    f2:9e:87:6c:2c:58:5b:c9:13:1a:59:da:18:3d:34:
                    ee:d2:15
                Exponent: 65537 (0x10001)
        X509v3 extensions:
            X509v3 Basic Constraints: 
                CA:FALSE
            Netscape Comment: 
                Easy-RSA Generated Certificate
            X509v3 Subject Key Identifier: 
                73:93:C5:17:C2:46:12:A5:C4:A5:79:F8:2C:B3:8C:AB:10:16:C2:DA
            X509v3 Authority Key Identifier: 
                keyid:12:CD:60:04:D2:A0:80:9E:70:ED:C6:99:B8:7B:2C:C6:52:FD:19:A1
                DirName:/C=US/ST=OH/L=Columbus/O=VikingVPN/OU=MyOrganizationalUnit/CN=VikingVPN CA/name=EasyRSA/emailAddress=me@myhost.mydomain
                serial:CF:35:85:EE:80:BF:2A:3E

            X509v3 Extended Key Usage: 
                TLS Web Client Authentication
            X509v3 Key Usage: 
                Digital Signature
    Signature Algorithm: sha256WithRSAEncryption
         ce:5c:eb:a2:1f:3c:08:60:be:fa:cc:26:12:85:0d:1b:9d:32:
         8c:7d:0e:40:9b:59:6e:6f:8b:eb:89:3e:92:1d:50:dc:7e:99:
         e8:17:37:8b:67:0b:58:df:c9:4b:e7:e2:4e:ff:af:19:4d:59:
         5c:05:cd:13:f1:92:c1:79:b5:a7:27:81:9a:48:f6:3e:cc:4a:
         b3:55:4a:a5:9b:e4:de:15:bc:33:e5:ed:68:fa:b0:ed:15:76:
         45:7f:1f:c0:9e:4e:ea:e8:5c:c9:e7:94:a2:da:5c:ca:55:ae:
         61:c0:0c:8b:06:87:cc:0c:4b:6a:7f:5e:d1:e0:17:a1:06:60:
         63:36:9b:57:44:4c:a6:bc:cf:86:69:7a:b7:fa:cf:23:95:b0:
         e6:9d:17:e3:24:6b:06:98:0e:3d:38:b4:33:d0:45:5e:ad:7b:
         c1:91:7c:d6:01:17:8c:09:a4:79:4b:89:4a:eb:0b:2e:92:16:
         29:bc:a4:9f:00:10:a8:e5:c7:88:90:25:68:0b:3c:2f:10:c3:
         7c:66:df:e8:28:90:89:ab:7c:85:7f:ca:a9:d5:de:50:f9:7b:
         78:6b:94:d9:96:e8:6a:d0:84:0a:c6:6b:ed:6b:e8:ee:d4:5f:
         21:c7:3d:cc:23:08:38:25:e8:72:e9:16:81:83:f1:81:40:40:
         61:2d:6e:dd:f0:4e:c1:22:6f:9f:40:e8:b2:54:e5:05:2e:71:
         74:a7:da:5f:85:1b:1f:3c:b7:c2:bd:b0:66:23:93:c1:8b:8a:
         5d:f9:25:83:28:b2:8a:12:d7:25:74:fd:29:f2:b5:2d:63:2b:
         3f:20:15:c0:eb:3a:18:84:9a:7c:50:06:3d:8a:d2:c6:5e:cc:
         bc:f9:46:a5:20:28:40:ff:92:99:e7:17:1c:dd:35:ce:01:9a:
         62:82:45:c9:76:37:8e:d5:53:ac:8a:8c:8f:bc:0d:35:1b:a2:
         9b:d5:c9:d6:94:3d:27:c8:66:01:23:c5:8b:1a:f4:d0:27:df:
         c3:08:13:67:2a:92:a0:e9:18:22:a2:20:be:a0:3e:9a:e8:d3:
         98:64:52:80:c6:57:68:92:97:ba:21:a4:e7:03:c4:fe:ae:8d:
         02:bc:c3:a4:84:b2:dd:53:ea:03:fd:ba:ea:5c:b8:b8:0c:c2:
         a9:ca:f9:27:a6:50:74:d2:49:25:3c:b4:df:b8:e2:1e:80:8f:
         9d:7e:b0:1e:cb:b7:f6:c4:94:d9:bf:cc:92:8d:04:e6:5e:33:
         f1:33:0a:68:d5:f5:df:d7:10:38:91:9c:41:fa:f3:bf:b1:d6:
         e4:99:2f:15:9a:89:03:34:5f:04:80:02:ec:d0:52:8a:81:ad:
         eb:f5:2d:3b:a0:0c:ec:57
-----BEGIN CERTIFICATE-----
MIIGrTCCBJWgAwIBAgICIocwDQYJKoZIhvcNAQELBQAwgawxCzAJBgNVBAYTAlVT
MQswCQYDVQQIEwJPSDERMA8GA1UEBxMIQ29sdW1idXMxEjAQBgNVBAoTCVZpa2lu
Z1ZQTjEdMBsGA1UECxMUTXlPcmdhbml6YXRpb25hbFVuaXQxFTATBgNVBAMTDFZp
a2luZ1ZQTiBDQTEQMA4GA1UEKRMHRWFzeVJTQTEhMB8GCSqGSIb3DQEJARYSbWVA
bXlob3N0Lm15ZG9tYWluMB4XDTE2MDgxODIxMDgyOFoXDTI2MDgxNjIxMDgyOFow
HzEdMBsGA1UEAxMUQ2xpZW50MjQ2N0NlcnRiOTBjMTQwggIiMA0GCSqGSIb3DQEB
AQUAA4ICDwAwggIKAoICAQClAAK4vcUF1oHt2UP1SBFOmmrjOmQZen1d5bQAi49u
dXpkdi8NfxgSOWbUW5t1UrkwCKCyUrApOsDOnyrp/aG6akCJP9wgYSV54dX60dar
eRoaZ6sMJeV9wMVLSfF1TzxHw9bO//ddpLzcBDQnbgcGw4YkWPRrDBRPmpZonEGm
S2qUQXzZR/Py/zAT0fRkJ/8st8GFdrcXYiMu+VSelCrfsNwexJkywjQWRWWu1JPT
ijApOoXW/v/r7no1EdhxgZJyHxhbqlPKetcQJJogniGFcs1LlM19QYX5Hxl1jNV5
oakbCZ1ta1oKhrL+2mrFr7bnqF1bSuoWtIzD3B93uDnZqWUu9r+ujidF1yilOy9F
nPR1RpHO3bzhu7lXAHrc7VoL9JcE+S5+MrsCMC9BAPywCS9+U8t0D0MOuJcdHtys
2SKzvv8WQP1mVcU2XSTdDRljLSXxVs1cuRAGE/TLpymnJii+bKnFio5E1+t4us+E
CcFH5cIhj1l1c1uaQMCZsvivTajSi7bYoHw+2NLL83AHDrBhQdG57+OYlfczCAXJ
K1U7fpUX6kyHehJkBGq2pzDNba8ANgLFPkeUalItQ9ljO73RjDu9rquLflxGtiQe
sozt0bqsB4cx0G7Kl68jkeuHBmkFXYn6fSYJepv92PKeh2wsWFvJExpZ2hg9NO7S
FQIDAQABo4IBYzCCAV8wCQYDVR0TBAIwADAtBglghkgBhvhCAQ0EIBYeRWFzeS1S
U0EgR2VuZXJhdGVkIENlcnRpZmljYXRlMB0GA1UdDgQWBBRzk8UXwkYSpcSlefgs
s4yrEBbC2jCB4QYDVR0jBIHZMIHWgBQSzWAE0qCAnnDtxpm4eyzGUv0ZoaGBsqSB
rzCBrDELMAkGA1UEBhMCVVMxCzAJBgNVBAgTAk9IMREwDwYDVQQHEwhDb2x1bWJ1
czESMBAGA1UEChMJVmlraW5nVlBOMR0wGwYDVQQLExRNeU9yZ2FuaXphdGlvbmFs
VW5pdDEVMBMGA1UEAxMMVmlraW5nVlBOIENBMRAwDgYDVQQpEwdFYXN5UlNBMSEw
HwYJKoZIhvcNAQkBFhJtZUBteWhvc3QubXlkb21haW6CCQDPNYXugL8qPjATBgNV
HSUEDDAKBggrBgEFBQcDAjALBgNVHQ8EBAMCB4AwDQYJKoZIhvcNAQELBQADggIB
AM5c66IfPAhgvvrMJhKFDRudMox9DkCbWW5vi+uJPpIdUNx+megXN4tnC1jfyUvn
4k7/rxlNWVwFzRPxksF5tacngZpI9j7MSrNVSqWb5N4VvDPl7Wj6sO0VdkV/H8Ce
TuroXMnnlKLaXMpVrmHADIsGh8wMS2p/XtHgF6EGYGM2m1dETKa8z4Zperf6zyOV
sOadF+MkawaYDj04tDPQRV6te8GRfNYBF4wJpHlLiUrrCy6SFim8pJ8AEKjlx4iQ
JWgLPC8Qw3xm3+gokImrfIV/yqnV3lD5e3hrlNmW6GrQhArGa+1r6O7UXyHHPcwj
CDgl6HLpFoGD8YFAQGEtbt3wTsEib59A6LJU5QUucXSn2l+FGx88t8K9sGYjk8GL
il35JYMosooS1yV0/SnytS1jKz8gFcDrOhiEmnxQBj2K0sZezLz5RqUgKED/kpnn
FxzdNc4BmmKCRcl2N47VU6yKjI+8DTUbopvVydaUPSfIZgEjxYsa9NAn38MIE2cq
kqDpGCKiIL6gPpro05hkUoDGV2iSl7ohpOcDxP6ujQK8w6SEst1T6gP9uupcuLgM
wqnK+SemUHTSSSU8tN+44h6Aj51+sB7Lt/bElNm/zJKNBOZeM/EzCmjV9d/XEDiR
nEH687+x1uSZLxWaiQM0XwSAAuzQUoqBrev1LTugDOxX
-----END CERTIFICATE-----
