Certificate:
    Data:
        Version: 3 (0x2)
        Serial Number: 4190 (0x105e)
    Signature Algorithm: md5WithRSAEncryption
        Issuer: C=US, ST=OH, L=Columbus, O=VikingVPN, OU=MyOrganizationalUnit, CN=VikingVPN CA/name=EasyRSA/emailAddress=me@myhost.mydomain
        Validity
            Not Before: Jan 19 08:27:17 2015 GMT
            Not After : Jan 16 08:27:17 2025 GMT
        Subject: CN=Client3Cert1c046c
        Subject Public Key Info:
            Public Key Algorithm: rsaEncryption
                Public-Key: (4096 bit)
                Modulus:
                    00:be:75:bb:8a:2a:54:56:62:c9:a6:f0:e4:2d:89:
                    27:d7:36:e8:18:bc:24:5b:24:50:90:ce:25:89:f7:
                    4f:7c:1b:9f:2b:ef:8e:34:c8:33:a0:60:cc:74:8f:
                    4c:9e:7a:61:4d:ae:30:64:48:ba:d1:34:58:f9:76:
                    8c:f4:9d:12:ce:22:45:48:7c:1e:3a:17:46:10:63:
                    05:83:67:5d:ec:4a:85:79:d6:9a:e4:9a:f0:cf:d5:
                    9d:fb:7a:71:44:61:96:f1:15:2f:84:12:29:a6:8e:
                    3a:04:4f:ce:63:54:9e:32:79:ac:f3:90:84:e4:56:
                    a4:13:0e:77:ee:09:db:14:6d:ea:45:5c:e0:20:f0:
                    06:99:ab:81:19:15:64:14:92:d1:3a:ac:b5:b3:f7:
                    7e:e8:89:e3:46:6a:b1:46:be:80:6d:36:76:2c:8a:
                    d4:b7:c6:b6:e4:57:22:b8:5e:cf:93:75:c1:af:96:
                    fc:c2:0f:da:9f:ce:d5:7a:5e:3d:f8:e5:ae:8a:19:
                    07:ba:9b:30:4c:9f:62:28:b6:a3:bf:fb:2b:59:4a:
                    16:d1:f2:39:0e:50:78:40:17:03:49:11:8a:6f:6e:
                    9b:bb:29:8f:58:cb:4d:e7:43:52:c6:2c:2b:8e:d9:
                    63:dd:e1:bc:65:f4:18:ed:f0:c0:90:64:91:ee:06:
                    e7:2d:62:9f:4b:9d:c7:07:9d:f7:74:10:38:53:f8:
                    30:49:7d:41:0d:19:a9:b4:48:69:28:98:b6:a2:8e:
                    0e:af:9d:9d:69:19:e6:1e:6b:76:8c:af:02:96:c0:
                    40:ad:28:61:15:60:95:5c:77:ce:a7:95:d6:ce:38:
                    f6:27:53:36:a3:a9:4d:c9:6e:1f:9c:f5:01:5b:a9:
                    4f:f0:87:14:6d:37:44:75:aa:dd:c4:42:7e:4f:c6:
                    0b:d0:9f:98:e6:cb:0e:73:0a:d0:8d:13:cd:e6:cc:
                    56:c5:78:b0:be:db:57:f1:5d:c9:95:42:9b:47:3b:
                    09:5c:8b:c8:a2:47:e9:94:bd:90:56:96:ae:a3:5d:
                    fb:71:52:60:96:38:b1:bd:a3:3a:97:68:bf:a6:fc:
                    83:0e:fd:df:9a:51:5a:72:6f:13:38:57:6d:42:4a:
                    c4:4a:8c:0f:26:3a:d7:da:b5:7c:0d:f3:40:8f:ff:
                    1d:58:80:da:bd:f7:56:dc:9e:d1:04:3d:65:f4:3b:
                    4e:50:2c:89:88:0f:c2:94:87:1d:d7:d7:e5:5f:a8:
                    75:29:89:be:c9:90:df:d0:80:d5:89:eb:c4:6c:ad:
                    2d:13:5e:8c:25:1f:48:3c:8c:fe:76:af:5d:d7:84:
                    65:e6:bb:2e:f1:96:f2:40:c4:34:0c:ab:49:33:0f:
                    b2:03:1b
                Exponent: 65537 (0x10001)
        X509v3 extensions:
            X509v3 Basic Constraints: 
                CA:FALSE
            Netscape Comment: 
                Easy-RSA Generated Certificate
            X509v3 Subject Key Identifier: 
                10:09:AC:01:8E:42:65:FF:15:DF:58:2B:18:B2:FE:CC:21:16:83:AA
            X509v3 Authority Key Identifier: 
                keyid:12:CD:60:04:D2:A0:80:9E:70:ED:C6:99:B8:7B:2C:C6:52:FD:19:A1
                DirName:/C=US/ST=OH/L=Columbus/O=VikingVPN/OU=MyOrganizationalUnit/CN=VikingVPN CA/name=EasyRSA/emailAddress=me@myhost.mydomain
                serial:CF:35:85:EE:80:BF:2A:3E

            X509v3 Extended Key Usage: 
                TLS Web Client Authentication
            X509v3 Key Usage: 
                Digital Signature
    Signature Algorithm: md5WithRSAEncryption
         61:99:76:2a:57:47:da:e0:3e:a7:3e:e6:d7:cb:11:34:54:fb:
         2d:38:5c:b3:92:c2:c2:4e:6b:00:b0:72:65:0f:d9:c7:93:e9:
         56:92:d7:52:3f:3f:cc:21:92:db:3b:51:a2:c3:fd:8d:94:c6:
         70:68:17:06:af:54:73:a0:56:10:8e:a4:bf:64:52:09:e1:fd:
         ab:c5:af:11:1e:c9:58:34:6f:df:5f:8f:7e:fb:d6:e3:18:f8:
         70:4e:10:c8:9c:24:d1:d5:da:7f:e7:a8:a5:fa:77:35:31:47:
         3d:23:62:ea:f5:c6:a2:95:45:2b:57:29:a0:82:95:a1:86:ef:
         35:94:5e:bd:d8:5c:d3:29:ed:5e:7e:30:86:e8:b1:7c:54:d8:
         d9:5a:8c:d7:91:b3:54:58:b6:de:a3:c0:03:14:71:ff:bf:77:
         40:89:ef:c6:bd:45:49:f2:f7:86:12:d4:c9:47:f3:f9:fc:e3:
         b3:cb:0a:6c:b6:4b:96:2e:75:c6:7a:00:68:22:4e:b5:4c:b4:
         21:40:53:cf:89:bf:88:83:86:c2:1a:0d:64:0d:a8:4e:f9:f6:
         3d:3c:c5:64:93:53:da:1e:8c:eb:e6:7f:0a:1c:0e:9b:f2:e0:
         5c:15:b7:4d:28:87:aa:08:13:a9:5d:0c:35:44:c0:49:fa:ef:
         d6:5a:f5:6c:34:cd:78:9d:24:2a:3e:74:c3:fa:23:de:cf:9f:
         55:6f:84:92:de:8a:20:46:f0:de:3a:76:b5:d9:a4:d7:67:0e:
         61:da:5f:de:cc:be:56:06:f5:9e:4c:a9:ae:66:8b:e2:61:05:
         f6:53:7f:0b:aa:b1:89:20:36:d8:2b:3c:a5:88:df:5f:22:18:
         9e:7c:b9:2f:6b:de:7d:7c:31:92:76:4d:1d:1f:d0:22:d7:e6:
         41:2c:b8:33:a3:9b:a2:45:f8:f9:03:e8:1c:08:44:83:03:b7:
         e8:dd:00:6b:e4:8f:07:9a:c1:1a:5e:70:86:8a:58:fb:9e:14:
         25:62:35:ad:00:50:87:49:cc:a1:73:a5:1a:20:d1:16:a0:b7:
         7e:d5:0b:78:92:c3:42:0b:fd:e2:ad:52:c8:85:31:4f:f5:0a:
         79:01:6b:58:54:fd:63:0d:c0:01:cb:b7:3b:9c:97:76:1d:28:
         f3:43:30:de:3e:4d:60:7c:2b:42:a5:e0:02:d4:25:1b:2a:75:
         f2:fb:65:c4:e7:63:c3:54:97:11:8b:72:64:a0:4e:29:2a:40:
         14:00:bc:26:73:aa:3e:a6:ad:08:c1:fd:6b:51:39:ce:44:c1:
         23:4d:40:35:bd:60:bb:c9:90:d8:d7:d5:42:0e:51:88:44:bd:
         62:c3:78:a8:39:51:9b:cc
-----BEGIN CERTIFICATE-----
MIIGqjCCBJKgAwIBAgICEF4wDQYJKoZIhvcNAQEEBQAwgawxCzAJBgNVBAYTAlVT
MQswCQYDVQQIEwJPSDERMA8GA1UEBxMIQ29sdW1idXMxEjAQBgNVBAoTCVZpa2lu
Z1ZQTjEdMBsGA1UECxMUTXlPcmdhbml6YXRpb25hbFVuaXQxFTATBgNVBAMTDFZp
a2luZ1ZQTiBDQTEQMA4GA1UEKRMHRWFzeVJTQTEhMB8GCSqGSIb3DQEJARYSbWVA
bXlob3N0Lm15ZG9tYWluMB4XDTE1MDExOTA4MjcxN1oXDTI1MDExNjA4MjcxN1ow
HDEaMBgGA1UEAxMRQ2xpZW50M0NlcnQxYzA0NmMwggIiMA0GCSqGSIb3DQEBAQUA
A4ICDwAwggIKAoICAQC+dbuKKlRWYsmm8OQtiSfXNugYvCRbJFCQziWJ9098G58r
7440yDOgYMx0j0yeemFNrjBkSLrRNFj5doz0nRLOIkVIfB46F0YQYwWDZ13sSoV5
1prkmvDP1Z37enFEYZbxFS+EEimmjjoET85jVJ4yeazzkITkVqQTDnfuCdsUbepF
XOAg8AaZq4EZFWQUktE6rLWz937oieNGarFGvoBtNnYsitS3xrbkVyK4Xs+TdcGv
lvzCD9qfztV6Xj345a6KGQe6mzBMn2IotqO/+ytZShbR8jkOUHhAFwNJEYpvbpu7
KY9Yy03nQ1LGLCuO2WPd4bxl9Bjt8MCQZJHuBuctYp9LnccHnfd0EDhT+DBJfUEN
Gam0SGkomLaijg6vnZ1pGeYea3aMrwKWwECtKGEVYJVcd86nldbOOPYnUzajqU3J
bh+c9QFbqU/whxRtN0R1qt3EQn5PxgvQn5jmyw5zCtCNE83mzFbFeLC+21fxXcmV
QptHOwlci8iiR+mUvZBWlq6jXftxUmCWOLG9ozqXaL+m/IMO/d+aUVpybxM4V21C
SsRKjA8mOtfatXwN80CP/x1YgNq991bcntEEPWX0O05QLImID8KUhx3X1+VfqHUp
ib7JkN/QgNWJ68RsrS0TXowlH0g8jP52r13XhGXmuy7xlvJAxDQMq0kzD7IDGwID
AQABo4IBYzCCAV8wCQYDVR0TBAIwADAtBglghkgBhvhCAQ0EIBYeRWFzeS1SU0Eg
R2VuZXJhdGVkIENlcnRpZmljYXRlMB0GA1UdDgQWBBQQCawBjkJl/xXfWCsYsv7M
IRaDqjCB4QYDVR0jBIHZMIHWgBQSzWAE0qCAnnDtxpm4eyzGUv0ZoaGBsqSBrzCB
rDELMAkGA1UEBhMCVVMxCzAJBgNVBAgTAk9IMREwDwYDVQQHEwhDb2x1bWJ1czES
MBAGA1UEChMJVmlraW5nVlBOMR0wGwYDVQQLExRNeU9yZ2FuaXphdGlvbmFsVW5p
dDEVMBMGA1UEAxMMVmlraW5nVlBOIENBMRAwDgYDVQQpEwdFYXN5UlNBMSEwHwYJ
KoZIhvcNAQkBFhJtZUBteWhvc3QubXlkb21haW6CCQDPNYXugL8qPjATBgNVHSUE
DDAKBggrBgEFBQcDAjALBgNVHQ8EBAMCB4AwDQYJKoZIhvcNAQEEBQADggIBAGGZ
dipXR9rgPqc+5tfLETRU+y04XLOSwsJOawCwcmUP2ceT6VaS11I/P8whkts7UaLD
/Y2UxnBoFwavVHOgVhCOpL9kUgnh/avFrxEeyVg0b99fj3771uMY+HBOEMicJNHV
2n/nqKX6dzUxRz0jYur1xqKVRStXKaCClaGG7zWUXr3YXNMp7V5+MIbosXxU2Nla
jNeRs1RYtt6jwAMUcf+/d0CJ78a9RUny94YS1MlH8/n847PLCmy2S5YudcZ6AGgi
TrVMtCFAU8+Jv4iDhsIaDWQNqE759j08xWSTU9oejOvmfwocDpvy4FwVt00oh6oI
E6ldDDVEwEn679Za9Ww0zXidJCo+dMP6I97Pn1VvhJLeiiBG8N46drXZpNdnDmHa
X97MvlYG9Z5Mqa5mi+JhBfZTfwuqsYkgNtgrPKWI318iGJ58uS9r3n18MZJ2TR0f
0CLX5kEsuDOjm6JF+PkD6BwIRIMDt+jdAGvkjweawRpecIaKWPueFCViNa0AUIdJ
zKFzpRog0Ragt37VC3iSw0IL/eKtUsiFMU/1CnkBa1hU/WMNwAHLtzucl3YdKPND
MN4+TWB8K0Kl4ALUJRsqdfL7ZcTnY8NUlxGLcmSgTikqQBQAvCZzqj6mrQjB/WtR
Oc5EwSNNQDW9YLvJkNjX1UIOUYhEvWLDeKg5UZvM
-----END CERTIFICATE-----
