Certificate:
    Data:
        Version: 3 (0x2)
        Serial Number: 11951 (0x2eaf)
    Signature Algorithm: sha256WithRSAEncryption
        Issuer: C=US, ST=OH, L=Columbus, O=VikingVPN, OU=MyOrganizationalUnit, CN=VikingVPN CA/name=EasyRSA/emailAddress=me@myhost.mydomain
        Validity
            Not Before: Oct 13 13:30:43 2017 GMT
            Not After : Oct 11 13:30:43 2027 GMT
        Subject: CN=Client2693Certe803c3
        Subject Public Key Info:
            Public Key Algorithm: rsaEncryption
                Public-Key: (4096 bit)
                Modulus:
                    00:d4:ab:ff:99:1d:54:0a:64:9e:24:f9:db:61:bb:
                    14:1e:19:a5:4c:fc:64:2b:3e:b2:84:02:fb:2a:72:
                    2d:43:36:e1:92:a4:e9:93:ba:74:2f:b4:58:5d:b5:
                    26:0d:31:7a:01:b8:47:51:92:06:95:7a:be:a4:18:
                    1a:af:e7:a2:da:ae:d2:1f:01:d8:4a:a7:23:69:55:
                    00:7e:fe:a9:11:46:09:04:f7:21:72:d6:6c:8c:cc:
                    57:2a:44:55:cc:58:44:2b:e7:1a:f5:81:97:8d:73:
                    59:b5:8a:12:fa:4d:88:da:b8:ea:30:5e:4f:97:05:
                    03:b5:85:d6:49:88:82:1b:d9:fb:65:43:66:29:28:
                    29:94:32:0a:82:d2:2e:42:a4:e2:0b:e3:95:5b:92:
                    36:a5:94:fb:8a:91:3b:b3:e8:fe:fc:9b:b6:cf:e4:
                    e7:6d:87:cb:24:a7:5d:96:90:d0:97:35:0c:d1:7a:
                    f1:5c:8a:d8:12:48:39:b1:6e:25:85:60:ab:55:24:
                    b2:47:bf:86:b6:fc:cf:dd:d5:3a:ed:c3:3a:40:71:
                    e6:48:06:b4:9d:e6:ad:7e:a0:99:4f:e2:6a:41:b3:
                    5c:e6:f9:1c:ec:89:3b:37:c0:68:91:8c:31:22:2f:
                    59:7a:ec:af:31:81:bb:d9:2a:5b:ff:ab:fe:da:2c:
                    d1:8a:aa:a7:7d:91:c5:45:da:10:9c:7e:3b:46:f0:
                    7a:7d:da:d5:93:41:74:ca:a1:8a:62:52:b0:2b:26:
                    63:4c:9a:7b:ff:17:c1:b6:4b:e3:44:55:1f:fa:4a:
                    9b:84:f6:5e:3a:3c:d7:02:82:08:0e:dc:96:c6:be:
                    af:89:1f:ce:b0:08:ce:76:0d:5a:f3:8b:c8:1e:75:
                    37:0a:00:a9:b8:14:d0:0f:0b:8a:27:f4:eb:b6:fc:
                    af:d1:24:4f:ea:87:ee:df:07:a9:ad:7c:cb:e2:d3:
                    92:00:a4:47:15:94:ae:b2:0c:1d:94:e7:5f:69:3c:
                    d0:3d:7a:d4:bb:ee:fc:70:c9:04:6d:f2:e3:70:66:
                    e4:31:df:6e:2b:45:f4:93:de:f8:42:80:03:12:64:
                    44:21:15:8e:d1:fc:e6:2f:97:08:a4:32:66:39:6c:
                    6f:87:cf:94:7c:1f:6e:e8:12:dc:0e:84:a5:11:33:
                    04:1f:5f:75:c1:06:63:ed:82:af:cb:38:11:ba:d2:
                    87:93:9d:ee:93:fc:ad:e3:92:d1:ba:8c:5a:33:7b:
                    d0:21:e1:7d:56:00:5d:dd:7d:24:39:0c:29:3c:9a:
                    2e:03:06:38:9f:48:de:66:6a:ea:c6:a3:e9:84:23:
                    04:2d:39:77:f9:d0:17:dc:07:f9:c5:38:02:2a:f0:
                    5b:d6:b3
                Exponent: 65537 (0x10001)
        X509v3 extensions:
            X509v3 Basic Constraints: 
                CA:FALSE
            Netscape Comment: 
                Easy-RSA Generated Certificate
            X509v3 Subject Key Identifier: 
                1A:EA:B1:25:A6:51:5C:B2:E0:1C:0B:F8:6E:C3:9C:23:46:57:7F:9C
            X509v3 Authority Key Identifier: 
                keyid:12:CD:60:04:D2:A0:80:9E:70:ED:C6:99:B8:7B:2C:C6:52:FD:19:A1
                DirName:/C=US/ST=OH/L=Columbus/O=VikingVPN/OU=MyOrganizationalUnit/CN=VikingVPN CA/name=EasyRSA/emailAddress=me@myhost.mydomain
                serial:CF:35:85:EE:80:BF:2A:3E

            X509v3 Extended Key Usage: 
                TLS Web Client Authentication
            X509v3 Key Usage: 
                Digital Signature
    Signature Algorithm: sha256WithRSAEncryption
         00:05:09:bd:b2:6f:5d:de:37:2f:e0:d4:95:9e:34:b2:ce:c1:
         02:23:2c:e3:59:28:3d:0d:7c:f9:46:3b:ef:8a:e3:73:38:5a:
         3a:63:56:95:ac:7d:57:fc:f3:17:2e:1c:e1:d2:d1:9d:9f:54:
         9c:34:82:2a:a9:d0:a3:8a:bb:9d:6d:c1:40:27:98:91:81:06:
         6c:35:b8:9e:5c:49:3a:19:98:b9:3e:3b:71:01:72:67:5a:d3:
         0e:9d:84:96:bb:10:9d:45:13:98:73:e8:ec:d3:2e:81:3e:26:
         07:6e:b0:68:d9:33:b9:b3:29:2c:d4:5e:24:23:0a:11:a8:df:
         24:90:bb:f5:04:65:9c:13:2e:34:ec:3f:90:1e:6d:eb:8d:5b:
         63:f1:f1:eb:5c:f2:b1:cb:60:38:52:26:03:14:67:6a:d4:c3:
         27:b9:69:6e:c6:82:b3:77:48:82:fc:4a:c8:44:1e:be:ed:41:
         9b:f9:58:08:17:22:9e:92:80:e3:ea:30:4a:20:c3:28:c1:7c:
         79:fb:6f:9b:9e:a0:92:db:7f:84:2d:0a:16:f4:f8:26:94:6d:
         d2:0e:89:b9:bf:e1:82:15:e2:94:23:3a:d9:3a:13:4e:d2:4f:
         b1:d8:f5:be:5d:7d:93:67:9a:05:68:ef:5a:10:2a:6d:1b:44:
         bb:c1:10:82:d6:83:d5:40:14:8a:4c:9d:8f:72:8a:10:a8:75:
         f8:b9:9a:76:12:89:47:54:9d:eb:c0:cd:11:da:52:ed:51:b8:
         7b:18:a4:b5:28:ed:88:7d:f7:b2:23:68:a0:e0:a4:9b:11:5e:
         6e:00:48:ab:eb:b0:28:79:61:ff:f2:5f:ea:a8:69:91:a0:d2:
         85:9d:5c:40:99:90:dc:fe:4e:53:94:83:52:0e:f2:53:4c:b3:
         32:88:21:99:c6:1f:61:06:a8:98:99:af:2a:08:b9:93:c4:04:
         7c:16:aa:f4:f1:f8:be:f0:5b:4f:a0:b2:2a:bd:0f:cf:c5:61:
         03:18:4e:33:f6:cf:ce:56:0d:1a:9d:7e:35:4f:4c:dc:00:3a:
         2e:89:00:99:f0:a1:6e:f4:77:5b:6f:b3:e7:7b:a2:da:7d:fc:
         55:36:a3:37:a2:25:1b:9b:d6:bf:7c:d0:93:89:79:a3:74:a8:
         80:0c:31:73:aa:22:2e:80:b3:ba:98:1a:6b:c5:c4:e4:24:8e:
         11:16:72:20:21:46:9e:3b:16:78:ec:95:69:95:ed:a5:e2:1f:
         ac:aa:dd:82:24:db:f5:10:5f:03:14:7e:a7:18:52:8a:46:f6:
         0f:45:77:7c:de:57:6d:55:18:c3:33:87:95:75:01:81:33:37:
         84:0b:60:98:58:74:9d:4a
-----BEGIN CERTIFICATE-----
MIIGrTCCBJWgAwIBAgICLq8wDQYJKoZIhvcNAQELBQAwgawxCzAJBgNVBAYTAlVT
MQswCQYDVQQIEwJPSDERMA8GA1UEBxMIQ29sdW1idXMxEjAQBgNVBAoTCVZpa2lu
Z1ZQTjEdMBsGA1UECxMUTXlPcmdhbml6YXRpb25hbFVuaXQxFTATBgNVBAMTDFZp
a2luZ1ZQTiBDQTEQMA4GA1UEKRMHRWFzeVJTQTEhMB8GCSqGSIb3DQEJARYSbWVA
bXlob3N0Lm15ZG9tYWluMB4XDTE3MTAxMzEzMzA0M1oXDTI3MTAxMTEzMzA0M1ow
HzEdMBsGA1UEAxMUQ2xpZW50MjY5M0NlcnRlODAzYzMwggIiMA0GCSqGSIb3DQEB
AQUAA4ICDwAwggIKAoICAQDUq/+ZHVQKZJ4k+dthuxQeGaVM/GQrPrKEAvsqci1D
NuGSpOmTunQvtFhdtSYNMXoBuEdRkgaVer6kGBqv56LartIfAdhKpyNpVQB+/qkR
RgkE9yFy1myMzFcqRFXMWEQr5xr1gZeNc1m1ihL6TYjauOowXk+XBQO1hdZJiIIb
2ftlQ2YpKCmUMgqC0i5CpOIL45VbkjallPuKkTuz6P78m7bP5Odth8skp12WkNCX
NQzRevFcitgSSDmxbiWFYKtVJLJHv4a2/M/d1TrtwzpAceZIBrSd5q1+oJlP4mpB
s1zm+RzsiTs3wGiRjDEiL1l67K8xgbvZKlv/q/7aLNGKqqd9kcVF2hCcfjtG8Hp9
2tWTQXTKoYpiUrArJmNMmnv/F8G2S+NEVR/6SpuE9l46PNcCgggO3JbGvq+JH86w
CM52DVrzi8gedTcKAKm4FNAPC4on9Ou2/K/RJE/qh+7fB6mtfMvi05IApEcVlK6y
DB2U519pPNA9etS77vxwyQRt8uNwZuQx324rRfST3vhCgAMSZEQhFY7R/OYvlwik
MmY5bG+Hz5R8H27oEtwOhKURMwQfX3XBBmPtgq/LOBG60oeTne6T/K3jktG6jFoz
e9Ah4X1WAF3dfSQ5DCk8mi4DBjifSN5maurGo+mEIwQtOXf50BfcB/nFOAIq8FvW
swIDAQABo4IBYzCCAV8wCQYDVR0TBAIwADAtBglghkgBhvhCAQ0EIBYeRWFzeS1S
U0EgR2VuZXJhdGVkIENlcnRpZmljYXRlMB0GA1UdDgQWBBQa6rElplFcsuAcC/hu
w5wjRld/nDCB4QYDVR0jBIHZMIHWgBQSzWAE0qCAnnDtxpm4eyzGUv0ZoaGBsqSB
rzCBrDELMAkGA1UEBhMCVVMxCzAJBgNVBAgTAk9IMREwDwYDVQQHEwhDb2x1bWJ1
czESMBAGA1UEChMJVmlraW5nVlBOMR0wGwYDVQQLExRNeU9yZ2FuaXphdGlvbmFs
VW5pdDEVMBMGA1UEAxMMVmlraW5nVlBOIENBMRAwDgYDVQQpEwdFYXN5UlNBMSEw
HwYJKoZIhvcNAQkBFhJtZUBteWhvc3QubXlkb21haW6CCQDPNYXugL8qPjATBgNV
HSUEDDAKBggrBgEFBQcDAjALBgNVHQ8EBAMCB4AwDQYJKoZIhvcNAQELBQADggIB
AAAFCb2yb13eNy/g1JWeNLLOwQIjLONZKD0NfPlGO++K43M4WjpjVpWsfVf88xcu
HOHS0Z2fVJw0giqp0KOKu51twUAnmJGBBmw1uJ5cSToZmLk+O3EBcmda0w6dhJa7
EJ1FE5hz6OzTLoE+JgdusGjZM7mzKSzUXiQjChGo3ySQu/UEZZwTLjTsP5AebeuN
W2Px8etc8rHLYDhSJgMUZ2rUwye5aW7GgrN3SIL8SshEHr7tQZv5WAgXIp6SgOPq
MEogwyjBfHn7b5ueoJLbf4QtChb0+CaUbdIOibm/4YIV4pQjOtk6E07ST7HY9b5d
fZNnmgVo71oQKm0bRLvBEILWg9VAFIpMnY9yihCodfi5mnYSiUdUnevAzRHaUu1R
uHsYpLUo7Yh997IjaKDgpJsRXm4ASKvrsCh5Yf/yX+qoaZGg0oWdXECZkNz+TlOU
g1IO8lNMszKIIZnGH2EGqJiZryoIuZPEBHwWqvTx+L7wW0+gsiq9D8/FYQMYTjP2
z85WDRqdfjVPTNwAOi6JAJnwoW70d1tvs+d7otp9/FU2ozeiJRub1r980JOJeaN0
qIAMMXOqIi6As7qYGmvFxOQkjhEWciAhRp47FnjslWmV7aXiH6yq3YIk2/UQXwMU
fqcYUopG9g9Fd3zeV21VGMMzh5V1AYEzN4QLYJhYdJ1K
-----END CERTIFICATE-----
