Certificate:
    Data:
        Version: 3 (0x2)
        Serial Number: 983 (0x3d7)
    Signature Algorithm: md5WithRSAEncryption
        Issuer: C=US, ST=OH, L=Columbus, O=VikingVPN, OU=MyOrganizationalUnit, CN=VikingVPN CA/name=EasyRSA/emailAddress=me@myhost.mydomain
        Validity
            Not Before: Feb  7 18:58:07 2014 GMT
            Not After : Feb  5 18:58:07 2024 GMT
        Subject: CN=Client302Cert90986b
        Subject Public Key Info:
            Public Key Algorithm: rsaEncryption
                Public-Key: (4096 bit)
                Modulus:
                    00:cf:75:7a:8c:01:d0:38:00:42:6b:5a:1b:c3:f5:
                    92:de:3b:e9:0d:37:a6:52:d5:84:22:51:da:f8:3e:
                    ba:58:29:ed:f8:bb:57:37:80:c5:21:a4:76:bd:67:
                    e6:0e:91:38:e6:94:6e:7a:72:9f:7e:0f:2a:88:4f:
                    9d:59:68:ba:d7:d5:7b:24:69:86:75:26:a1:a3:ea:
                    f9:87:ab:be:22:2f:5d:83:f8:19:7d:3d:02:fb:cc:
                    b6:4b:a4:0f:bc:1b:db:d5:c4:75:08:2a:47:c0:f8:
                    3a:e4:64:9e:c6:e4:75:7e:b1:46:18:26:ad:2e:25:
                    f6:c0:6c:09:39:3c:2a:56:55:ae:67:e3:b6:3a:c2:
                    2a:23:3e:3a:96:fa:c1:46:5f:96:2b:41:ff:2d:d3:
                    90:e2:20:de:d0:e2:1e:cf:5f:31:34:6d:87:3e:22:
                    b8:f6:c8:f4:42:34:9a:50:bb:9c:e2:84:1f:ce:6e:
                    1d:6c:dc:8a:01:d6:10:7e:75:05:1b:62:7e:df:e3:
                    ac:d3:f5:9c:74:11:91:b8:67:85:31:8c:e6:0e:a8:
                    92:15:d9:ac:e3:51:a8:2d:25:56:72:03:8d:ca:e1:
                    56:c2:4f:ef:0d:d4:a0:41:c9:d1:95:d6:73:7e:41:
                    46:11:b1:12:28:2b:2a:5c:c3:db:b8:07:83:b5:bc:
                    6d:2a:0f:4b:7d:5f:7b:28:c7:16:d7:f3:ce:30:c6:
                    54:de:47:7a:42:63:84:cc:53:37:b7:26:43:43:d0:
                    cf:68:de:76:00:39:d1:2f:32:e6:5e:f7:17:08:a2:
                    54:b7:17:c4:3d:a0:60:16:fd:10:21:a2:07:16:d7:
                    ea:5a:e4:27:46:5c:6e:89:dd:5d:7c:53:82:c8:ff:
                    20:5e:58:0e:1b:e9:e5:2d:63:fc:ee:3b:21:5a:67:
                    4b:43:60:c6:73:1b:1f:f6:05:13:1d:b9:99:ca:52:
                    7a:78:ee:e7:64:ff:16:fd:ac:d3:42:df:be:e0:cf:
                    8b:bf:7b:b3:8e:21:43:09:e3:43:f1:c2:1c:ff:dd:
                    12:c5:7b:04:22:ac:d1:46:66:ac:00:98:e8:ee:fd:
                    24:ec:87:19:b7:5c:04:2f:66:58:06:e2:37:96:96:
                    03:1b:5c:3c:91:aa:cb:fa:00:8c:43:fc:af:af:5f:
                    75:2c:54:6c:66:9b:78:56:aa:ba:27:92:80:f4:71:
                    f2:07:d2:21:80:11:8b:bf:9c:e1:49:47:95:da:8f:
                    06:a4:bc:24:ca:05:20:d4:6d:cc:e7:30:25:e2:0f:
                    95:77:0b:34:8b:eb:73:22:58:90:b4:2d:fd:20:7a:
                    b8:96:1b:5e:ac:d7:c7:a3:cf:72:f6:88:16:1d:c1:
                    01:bd:25
                Exponent: 65537 (0x10001)
        X509v3 extensions:
            X509v3 Basic Constraints: 
                CA:FALSE
            Netscape Comment: 
                Easy-RSA Generated Certificate
            X509v3 Subject Key Identifier: 
                3D:FC:69:06:BC:34:A3:08:B2:C7:D2:BE:62:E2:AC:22:61:E3:B7:3B
            X509v3 Authority Key Identifier: 
                keyid:12:CD:60:04:D2:A0:80:9E:70:ED:C6:99:B8:7B:2C:C6:52:FD:19:A1
                DirName:/C=US/ST=OH/L=Columbus/O=VikingVPN/OU=MyOrganizationalUnit/CN=VikingVPN CA/name=EasyRSA/emailAddress=me@myhost.mydomain
                serial:CF:35:85:EE:80:BF:2A:3E

            X509v3 Extended Key Usage: 
                TLS Web Client Authentication
            X509v3 Key Usage: 
                Digital Signature
    Signature Algorithm: md5WithRSAEncryption
         12:77:3f:38:05:6b:58:2c:cb:72:a8:a7:e5:ef:fe:dd:f9:b8:
         f9:bd:00:19:f1:55:8a:5e:b0:3c:62:98:4e:a8:46:3b:4b:02:
         da:d8:f6:44:c6:a9:1d:bc:9e:46:08:b6:da:5d:39:16:d8:77:
         97:67:4b:58:0e:ca:3c:04:8b:75:3e:55:4e:90:0c:60:08:d1:
         18:5e:1e:55:d7:a3:39:b7:2f:1d:0f:db:fc:63:44:a8:a0:f2:
         cd:aa:fb:06:6d:b0:20:44:3b:91:94:cc:4a:fb:fd:b5:cb:67:
         0d:5b:15:d3:6b:84:08:f1:fc:60:fb:c6:0a:9f:ee:06:57:a8:
         78:15:97:71:38:eb:d9:5f:ab:04:f3:e3:19:ca:e7:4d:b2:b1:
         69:db:2a:ce:0a:9a:3f:ac:30:52:2a:7a:c5:5d:c8:fe:4d:34:
         42:7a:0e:e4:d6:46:5b:c3:d9:9f:41:94:b1:d7:7f:76:03:ae:
         bf:0e:9d:44:82:6e:43:db:7e:94:89:52:93:1a:c6:5a:29:c2:
         bd:20:1c:9a:01:58:70:a8:30:97:0e:44:15:8d:86:8b:c3:de:
         ba:53:28:1a:d5:bb:6e:b1:f8:29:21:e6:01:ff:7d:0f:67:dd:
         02:33:07:e6:8b:3c:fc:78:b0:d9:9e:5d:03:93:0b:69:4f:35:
         0a:78:77:5f:e6:f4:e1:7a:b4:c9:df:d3:1a:68:f6:11:83:68:
         04:c3:3f:c0:59:46:70:4e:f2:05:8d:b5:23:60:0d:ce:ec:42:
         36:a1:05:90:5c:72:c9:25:ae:63:f4:09:b5:d1:c8:ce:41:1a:
         b6:30:c1:47:0f:d7:47:00:a7:d9:af:0f:81:56:a3:66:66:e0:
         90:c0:6a:dc:63:af:ee:07:bb:f7:79:68:20:af:77:ab:d3:a6:
         7d:52:24:9f:17:f0:0a:92:39:0d:70:91:3f:43:d8:2f:82:c7:
         d9:3e:53:56:5a:4b:11:28:a6:22:02:31:05:35:bb:0c:ae:a3:
         08:9e:c9:b9:3d:f4:f2:25:e8:e7:24:3e:a9:d7:c0:2e:d4:7c:
         5c:30:ca:43:67:1b:97:2c:16:74:22:a8:3d:ea:b9:69:47:e8:
         7c:0e:f6:9d:0c:fd:39:77:de:5d:da:d8:c9:be:7a:ac:d0:d7:
         a6:a8:53:55:a7:c3:36:c2:1e:c6:15:3a:6b:98:2b:c4:e8:fb:
         cb:62:96:ce:1e:1c:91:23:b9:a8:8a:a2:e0:91:ec:e1:ef:86:
         9a:20:41:ff:14:9f:dc:c4:7c:0b:5d:65:3f:1e:f4:3a:e1:df:
         3b:cf:54:fd:8a:d8:7b:e9:74:13:9b:d4:c3:05:93:62:6e:0f:
         65:e7:64:08:69:69:d9:5e
-----BEGIN CERTIFICATE-----
MIIGrDCCBJSgAwIBAgICA9cwDQYJKoZIhvcNAQEEBQAwgawxCzAJBgNVBAYTAlVT
MQswCQYDVQQIEwJPSDERMA8GA1UEBxMIQ29sdW1idXMxEjAQBgNVBAoTCVZpa2lu
Z1ZQTjEdMBsGA1UECxMUTXlPcmdhbml6YXRpb25hbFVuaXQxFTATBgNVBAMTDFZp
a2luZ1ZQTiBDQTEQMA4GA1UEKRMHRWFzeVJTQTEhMB8GCSqGSIb3DQEJARYSbWVA
bXlob3N0Lm15ZG9tYWluMB4XDTE0MDIwNzE4NTgwN1oXDTI0MDIwNTE4NTgwN1ow
HjEcMBoGA1UEAxMTQ2xpZW50MzAyQ2VydDkwOTg2YjCCAiIwDQYJKoZIhvcNAQEB
BQADggIPADCCAgoCggIBAM91eowB0DgAQmtaG8P1kt476Q03plLVhCJR2vg+ulgp
7fi7VzeAxSGkdr1n5g6ROOaUbnpyn34PKohPnVloutfVeyRphnUmoaPq+YerviIv
XYP4GX09AvvMtkukD7wb29XEdQgqR8D4OuRknsbkdX6xRhgmrS4l9sBsCTk8KlZV
rmfjtjrCKiM+Opb6wUZflitB/y3TkOIg3tDiHs9fMTRthz4iuPbI9EI0mlC7nOKE
H85uHWzcigHWEH51BRtift/jrNP1nHQRkbhnhTGM5g6okhXZrONRqC0lVnIDjcrh
VsJP7w3UoEHJ0ZXWc35BRhGxEigrKlzD27gHg7W8bSoPS31feyjHFtfzzjDGVN5H
ekJjhMxTN7cmQ0PQz2jedgA50S8y5l73FwiiVLcXxD2gYBb9ECGiBxbX6lrkJ0Zc
bondXXxTgsj/IF5YDhvp5S1j/O47IVpnS0NgxnMbH/YFEx25mcpSenju52T/Fv2s
00LfvuDPi797s44hQwnjQ/HCHP/dEsV7BCKs0UZmrACY6O79JOyHGbdcBC9mWAbi
N5aWAxtcPJGqy/oAjEP8r69fdSxUbGabeFaquieSgPRx8gfSIYARi7+c4UlHldqP
BqS8JMoFINRtzOcwJeIPlXcLNIvrcyJYkLQt/SB6uJYbXqzXx6PPcvaIFh3BAb0l
AgMBAAGjggFjMIIBXzAJBgNVHRMEAjAAMC0GCWCGSAGG+EIBDQQgFh5FYXN5LVJT
QSBHZW5lcmF0ZWQgQ2VydGlmaWNhdGUwHQYDVR0OBBYEFD38aQa8NKMIssfSvmLi
rCJh47c7MIHhBgNVHSMEgdkwgdaAFBLNYATSoICecO3Gmbh7LMZS/RmhoYGypIGv
MIGsMQswCQYDVQQGEwJVUzELMAkGA1UECBMCT0gxETAPBgNVBAcTCENvbHVtYnVz
MRIwEAYDVQQKEwlWaWtpbmdWUE4xHTAbBgNVBAsTFE15T3JnYW5pemF0aW9uYWxV
bml0MRUwEwYDVQQDEwxWaWtpbmdWUE4gQ0ExEDAOBgNVBCkTB0Vhc3lSU0ExITAf
BgkqhkiG9w0BCQEWEm1lQG15aG9zdC5teWRvbWFpboIJAM81he6Avyo+MBMGA1Ud
JQQMMAoGCCsGAQUFBwMCMAsGA1UdDwQEAwIHgDANBgkqhkiG9w0BAQQFAAOCAgEA
Enc/OAVrWCzLcqin5e/+3fm4+b0AGfFVil6wPGKYTqhGO0sC2tj2RMapHbyeRgi2
2l05Fth3l2dLWA7KPASLdT5VTpAMYAjRGF4eVdejObcvHQ/b/GNEqKDyzar7Bm2w
IEQ7kZTMSvv9tctnDVsV02uECPH8YPvGCp/uBleoeBWXcTjr2V+rBPPjGcrnTbKx
adsqzgqaP6wwUip6xV3I/k00QnoO5NZGW8PZn0GUsdd/dgOuvw6dRIJuQ9t+lIlS
kxrGWinCvSAcmgFYcKgwlw5EFY2Gi8PeulMoGtW7brH4KSHmAf99D2fdAjMH5os8
/Hiw2Z5dA5MLaU81Cnh3X+b04Xq0yd/TGmj2EYNoBMM/wFlGcE7yBY21I2ANzuxC
NqEFkFxyySWuY/QJtdHIzkEatjDBRw/XRwCn2a8PgVajZmbgkMBq3GOv7ge793lo
IK93q9OmfVIknxfwCpI5DXCRP0PYL4LH2T5TVlpLESimIgIxBTW7DK6jCJ7JuT30
8iXo5yQ+qdfALtR8XDDKQ2cblywWdCKoPeq5aUfofA72nQz9OXfeXdrYyb56rNDX
pqhTVafDNsIexhU6a5grxOj7y2KWzh4ckSO5qIqi4JHs4e+GmiBB/xSf3MR8C11l
Px70OuHfO89U/YrYe+l0E5vUwwWTYm4PZedkCGlp2V4=
-----END CERTIFICATE-----
