Certificate:
    Data:
        Version: 3 (0x2)
        Serial Number: 1159 (0x487)
    Signature Algorithm: md5WithRSAEncryption
        Issuer: C=US, ST=OH, L=Columbus, O=VikingVPN, OU=MyOrganizationalUnit, CN=VikingVPN CA/name=EasyRSA/emailAddress=me@myhost.mydomain
        Validity
            Not Before: Feb 27 05:14:24 2014 GMT
            Not After : Feb 25 05:14:24 2024 GMT
        Subject: CN=Client425Cert078ce9
        Subject Public Key Info:
            Public Key Algorithm: rsaEncryption
                Public-Key: (4096 bit)
                Modulus:
                    00:ab:9f:8e:c8:c6:f5:4b:2b:9a:85:c0:93:09:64:
                    17:a1:8a:19:15:fb:af:1f:65:ab:a0:65:ea:69:4f:
                    13:04:53:a8:90:30:d5:0e:5c:d2:a1:df:54:b9:34:
                    ae:b4:f5:f5:0a:ff:bf:64:14:fb:d8:c7:7a:37:ad:
                    a3:07:9a:16:f8:a5:aa:2f:e7:da:24:a5:84:2e:53:
                    41:18:66:18:c6:5e:a6:ef:30:f0:3a:25:44:7d:1f:
                    ed:1d:d2:73:7a:a1:9b:1d:67:78:c8:1f:63:70:29:
                    90:2a:59:8f:74:80:ef:a4:71:f6:d1:0d:6d:33:a2:
                    9a:64:dc:36:10:2b:b2:a7:23:ee:b6:0c:56:0f:96:
                    97:10:13:76:2e:c8:48:95:0a:64:e2:26:2b:fb:60:
                    f7:0f:c0:44:55:64:ec:56:c0:33:92:4b:05:a1:36:
                    a6:50:f6:f5:e2:aa:fb:6f:4d:ee:0a:e5:d5:8d:73:
                    74:ea:02:f9:71:d6:50:0e:fd:fd:08:86:64:b9:ba:
                    54:db:80:ec:1c:27:d4:9c:bd:e8:b0:ae:e0:ba:11:
                    ba:07:17:46:eb:fa:c5:2b:76:0c:20:f0:78:38:3a:
                    4e:06:ef:37:71:51:31:30:d7:ad:7f:e9:e8:c3:b2:
                    33:5a:bb:66:39:85:e4:6c:31:90:b6:1a:4d:30:30:
                    31:17:91:b2:25:87:48:7d:0a:85:fd:22:ed:16:78:
                    0a:25:4c:31:6c:17:01:14:68:45:d3:2d:d7:54:73:
                    eb:17:91:e2:bb:d8:c8:ee:29:03:0e:c2:6d:17:bc:
                    19:86:bc:cb:c2:e7:7b:4f:f3:ab:07:9d:64:44:98:
                    93:92:bb:51:f4:0e:8d:89:7e:5e:ad:2d:e9:75:f5:
                    98:48:26:e3:d3:a4:a3:0c:19:63:26:36:9a:bc:57:
                    3f:74:a1:a0:c7:dd:4a:83:4e:20:17:00:aa:84:9b:
                    9c:aa:d9:0a:d9:96:05:9b:45:d6:0d:e4:f7:f0:8e:
                    31:0f:22:cb:02:92:3a:ec:aa:e3:a5:01:ed:7f:50:
                    2e:c2:78:51:4e:d3:a6:ad:55:ac:4b:dc:79:bc:48:
                    16:81:8c:ec:91:48:4c:f3:2d:5b:3f:47:72:a0:9a:
                    16:d0:4f:97:fb:36:2f:21:fe:0d:7e:cd:4d:d1:9a:
                    bd:0f:e5:94:5b:81:d3:86:7c:42:94:97:39:ee:8d:
                    26:69:6e:8c:d4:66:b3:32:2c:85:8a:77:38:87:3e:
                    30:ce:56:a5:17:90:3a:2e:aa:33:ff:15:41:5a:0f:
                    e5:a6:24:49:16:99:c4:b9:d8:ce:35:0a:3c:e1:fb:
                    3e:e2:b4:2e:0c:95:6c:07:a0:37:e3:c6:9c:dd:6c:
                    c8:11:a5
                Exponent: 65537 (0x10001)
        X509v3 extensions:
            X509v3 Basic Constraints: 
                CA:FALSE
            Netscape Comment: 
                Easy-RSA Generated Certificate
            X509v3 Subject Key Identifier: 
                C0:93:10:9D:65:FC:EE:F3:D8:3D:C6:56:B6:D7:55:49:69:4A:09:61
            X509v3 Authority Key Identifier: 
                keyid:12:CD:60:04:D2:A0:80:9E:70:ED:C6:99:B8:7B:2C:C6:52:FD:19:A1
                DirName:/C=US/ST=OH/L=Columbus/O=VikingVPN/OU=MyOrganizationalUnit/CN=VikingVPN CA/name=EasyRSA/emailAddress=me@myhost.mydomain
                serial:CF:35:85:EE:80:BF:2A:3E

            X509v3 Extended Key Usage: 
                TLS Web Client Authentication
            X509v3 Key Usage: 
                Digital Signature
    Signature Algorithm: md5WithRSAEncryption
         e4:e9:1e:3d:e6:c8:46:10:39:7d:89:06:a4:ab:fd:5e:bb:98:
         a6:43:f2:5f:61:7b:69:4c:5f:bc:68:ef:9a:60:ba:e2:47:61:
         47:74:ff:bd:9a:d0:73:ac:0c:d1:45:1b:99:dc:a4:59:89:02:
         7f:9f:6e:2d:b6:90:b5:cf:84:e3:49:3f:b6:d5:a2:b1:7a:bd:
         0f:92:ff:07:38:6b:28:c4:d5:39:a4:a7:ca:4b:9a:5e:fd:7b:
         9b:5d:30:77:38:a6:10:03:04:53:ae:bc:00:41:9f:bf:f0:2e:
         66:3f:8c:d8:9e:6d:88:7c:3a:0e:b0:c9:ec:52:32:82:19:9b:
         4f:49:d6:3d:1b:66:56:8d:d8:3d:92:65:a2:19:5f:f1:c9:95:
         fe:ac:5e:ad:ba:ee:92:42:c2:60:26:f7:ee:ae:5d:d9:66:2c:
         b5:9a:29:ad:d1:3d:5d:07:24:d9:70:3f:20:ec:17:57:af:87:
         bb:f3:79:1b:48:7f:7e:69:78:04:da:84:e1:1c:f4:07:14:44:
         cc:c5:12:e9:cc:f2:33:e5:ec:bf:09:85:e9:b4:9b:2d:50:c6:
         78:42:29:e3:1b:a9:0d:9d:0c:ec:ef:d3:2a:03:fd:fa:2a:28:
         99:cb:a2:77:bf:62:9d:1e:ac:5c:71:92:86:e4:cc:a9:c2:bf:
         da:ec:91:ea:80:7f:25:78:6d:52:4b:05:17:ac:6c:f3:9d:5f:
         94:10:f4:2d:7a:99:12:83:f4:41:01:21:09:83:f3:7b:0c:66:
         8d:d6:ac:fa:5b:21:ce:3b:0f:ec:c0:2d:3f:7d:92:54:79:ef:
         9f:bc:8b:30:ec:02:ce:6f:ba:12:55:84:9e:32:5a:76:ab:46:
         ab:e7:d5:5a:de:1d:dc:e2:e0:a3:a7:03:72:4c:8f:a4:18:e5:
         f9:54:49:6b:58:93:69:a5:d9:50:55:f8:46:ae:a3:ea:e0:41:
         18:b3:ad:cb:ea:af:5e:24:cd:49:64:b0:6d:65:dc:c4:26:2b:
         9f:f3:26:e2:66:43:69:b7:7d:a2:30:ae:f2:36:6f:4f:de:ff:
         1b:a2:67:f2:4a:c5:0d:d5:91:31:32:4d:b6:24:83:91:96:8b:
         7b:10:fb:a4:2d:d1:7a:8f:73:55:7e:16:68:27:72:1f:34:7a:
         dd:4f:00:d0:a4:d8:6c:4e:45:65:13:40:61:63:b1:30:ef:f3:
         2e:3d:5f:ae:d8:b6:7b:5f:50:aa:91:17:17:2b:75:5a:12:9d:
         4c:c9:a9:31:4d:bd:6f:d1:73:0c:33:3c:a4:ac:9a:2b:93:d8:
         92:b1:30:7f:05:29:6d:54:77:de:dd:8c:1d:4d:c2:37:12:98:
         9f:94:d8:a9:60:af:26:e4
-----BEGIN CERTIFICATE-----
MIIGrDCCBJSgAwIBAgICBIcwDQYJKoZIhvcNAQEEBQAwgawxCzAJBgNVBAYTAlVT
MQswCQYDVQQIEwJPSDERMA8GA1UEBxMIQ29sdW1idXMxEjAQBgNVBAoTCVZpa2lu
Z1ZQTjEdMBsGA1UECxMUTXlPcmdhbml6YXRpb25hbFVuaXQxFTATBgNVBAMTDFZp
a2luZ1ZQTiBDQTEQMA4GA1UEKRMHRWFzeVJTQTEhMB8GCSqGSIb3DQEJARYSbWVA
bXlob3N0Lm15ZG9tYWluMB4XDTE0MDIyNzA1MTQyNFoXDTI0MDIyNTA1MTQyNFow
HjEcMBoGA1UEAxMTQ2xpZW50NDI1Q2VydDA3OGNlOTCCAiIwDQYJKoZIhvcNAQEB
BQADggIPADCCAgoCggIBAKufjsjG9UsrmoXAkwlkF6GKGRX7rx9lq6Bl6mlPEwRT
qJAw1Q5c0qHfVLk0rrT19Qr/v2QU+9jHejetoweaFvilqi/n2iSlhC5TQRhmGMZe
pu8w8DolRH0f7R3Sc3qhmx1neMgfY3ApkCpZj3SA76Rx9tENbTOimmTcNhArsqcj
7rYMVg+WlxATdi7ISJUKZOImK/tg9w/ARFVk7FbAM5JLBaE2plD29eKq+29N7grl
1Y1zdOoC+XHWUA79/QiGZLm6VNuA7Bwn1Jy96LCu4LoRugcXRuv6xSt2DCDweDg6
TgbvN3FRMTDXrX/p6MOyM1q7ZjmF5GwxkLYaTTAwMReRsiWHSH0Khf0i7RZ4CiVM
MWwXARRoRdMt11Rz6xeR4rvYyO4pAw7CbRe8GYa8y8Lne0/zqwedZESYk5K7UfQO
jYl+Xq0t6XX1mEgm49OkowwZYyY2mrxXP3ShoMfdSoNOIBcAqoSbnKrZCtmWBZtF
1g3k9/COMQ8iywKSOuyq46UB7X9QLsJ4UU7Tpq1VrEvcebxIFoGM7JFITPMtWz9H
cqCaFtBPl/s2LyH+DX7NTdGavQ/llFuB04Z8QpSXOe6NJmlujNRmszIshYp3OIc+
MM5WpReQOi6qM/8VQVoP5aYkSRaZxLnYzjUKPOH7PuK0LgyVbAegN+PGnN1syBGl
AgMBAAGjggFjMIIBXzAJBgNVHRMEAjAAMC0GCWCGSAGG+EIBDQQgFh5FYXN5LVJT
QSBHZW5lcmF0ZWQgQ2VydGlmaWNhdGUwHQYDVR0OBBYEFMCTEJ1l/O7z2D3GVrbX
VUlpSglhMIHhBgNVHSMEgdkwgdaAFBLNYATSoICecO3Gmbh7LMZS/RmhoYGypIGv
MIGsMQswCQYDVQQGEwJVUzELMAkGA1UECBMCT0gxETAPBgNVBAcTCENvbHVtYnVz
MRIwEAYDVQQKEwlWaWtpbmdWUE4xHTAbBgNVBAsTFE15T3JnYW5pemF0aW9uYWxV
bml0MRUwEwYDVQQDEwxWaWtpbmdWUE4gQ0ExEDAOBgNVBCkTB0Vhc3lSU0ExITAf
BgkqhkiG9w0BCQEWEm1lQG15aG9zdC5teWRvbWFpboIJAM81he6Avyo+MBMGA1Ud
JQQMMAoGCCsGAQUFBwMCMAsGA1UdDwQEAwIHgDANBgkqhkiG9w0BAQQFAAOCAgEA
5OkePebIRhA5fYkGpKv9XruYpkPyX2F7aUxfvGjvmmC64kdhR3T/vZrQc6wM0UUb
mdykWYkCf59uLbaQtc+E40k/ttWisXq9D5L/BzhrKMTVOaSnykuaXv17m10wdzim
EAMEU668AEGfv/AuZj+M2J5tiHw6DrDJ7FIyghmbT0nWPRtmVo3YPZJlohlf8cmV
/qxerbrukkLCYCb37q5d2WYstZoprdE9XQck2XA/IOwXV6+Hu/N5G0h/fml4BNqE
4Rz0BxREzMUS6czyM+XsvwmF6bSbLVDGeEIp4xupDZ0M7O/TKgP9+ioomcuid79i
nR6sXHGShuTMqcK/2uyR6oB/JXhtUksFF6xs851flBD0LXqZEoP0QQEhCYPzewxm
jdas+lshzjsP7MAtP32SVHnvn7yLMOwCzm+6ElWEnjJadqtGq+fVWt4d3OLgo6cD
ckyPpBjl+VRJa1iTaaXZUFX4Rq6j6uBBGLOty+qvXiTNSWSwbWXcxCYrn/Mm4mZD
abd9ojCu8jZvT97/G6Jn8krFDdWRMTJNtiSDkZaLexD7pC3Reo9zVX4WaCdyHzR6
3U8A0KTYbE5FZRNAYWOxMO/zLj1frti2e19QqpEXFyt1WhKdTMmpMU29b9FzDDM8
pKyaK5PYkrEwfwUpbVR33t2MHU3CNxKYn5TYqWCvJuQ=
-----END CERTIFICATE-----
