Certificate:
    Data:
        Version: 3 (0x2)
        Serial Number: 8163 (0x1fe3)
    Signature Algorithm: md5WithRSAEncryption
        Issuer: C=US, ST=OH, L=Columbus, O=VikingVPN, OU=MyOrganizationalUnit, CN=VikingVPN CA/name=EasyRSA/emailAddress=me@myhost.mydomain
        Validity
            Not Before: Jun  4 19:15:07 2016 GMT
            Not After : Jun  2 19:15:07 2026 GMT
        Subject: CN=Client1313Certaa8fee
        Subject Public Key Info:
            Public Key Algorithm: rsaEncryption
                Public-Key: (4096 bit)
                Modulus:
                    00:e8:b9:f2:9e:89:d5:4e:54:8b:e4:8c:88:09:e9:
                    4e:45:bb:2a:07:62:a7:d2:a6:64:85:bb:5a:e0:94:
                    b3:93:06:e0:02:f3:98:65:52:44:db:5a:a1:92:a4:
                    d5:93:e7:db:3a:51:ee:f8:67:86:0a:d7:2c:fe:c0:
                    f1:78:44:8f:7f:53:51:8a:cf:b3:29:01:7e:71:6c:
                    25:49:9e:d5:b1:3f:a0:9f:e3:51:6e:4f:e4:73:b5:
                    6b:81:b9:91:97:89:8b:c0:f8:76:a7:37:37:8b:aa:
                    58:52:21:16:18:c9:23:3b:91:ea:93:44:92:10:1d:
                    da:39:64:23:8e:f8:56:c3:2d:d0:fa:23:2d:e8:85:
                    76:75:cb:e8:e3:fe:0b:f9:56:c5:be:e2:a3:a3:96:
                    1f:de:3d:eb:15:ef:e5:dd:bf:2a:26:3a:72:f0:af:
                    5c:b0:05:b8:21:5d:08:fb:b5:10:e1:54:0e:87:00:
                    78:cf:37:93:8c:35:b2:ac:54:b9:11:54:49:9e:77:
                    8a:e8:4f:c8:73:6d:ee:f5:c7:80:29:f8:41:69:fc:
                    2b:0f:24:d5:1b:16:98:79:a0:14:8b:db:f1:ef:cf:
                    dc:c7:c5:66:91:e9:b3:65:ab:23:fd:80:c6:54:ae:
                    70:56:54:33:ff:ab:7c:c7:e1:8d:bc:b8:80:45:13:
                    f4:65:c5:cd:0e:be:70:9e:a8:b2:7a:b5:80:2b:2f:
                    6f:3c:33:a9:e4:3d:a5:7e:85:8e:3b:53:fb:ae:59:
                    fb:f3:02:7b:1a:2e:64:e2:35:e7:24:37:91:0f:0d:
                    fc:1f:65:8d:e5:7a:8c:93:ee:64:59:1b:09:f9:b3:
                    cc:4c:75:58:cb:f7:7f:90:34:c2:5d:98:b6:d0:f9:
                    fc:1d:f4:40:63:ae:46:4d:d5:be:b6:e3:23:85:79:
                    cc:a1:57:17:0e:be:f9:d3:51:9b:bc:c8:5d:f3:8f:
                    9f:c7:2c:21:78:d9:54:20:16:58:3c:50:77:7e:00:
                    dc:d9:33:e8:95:70:28:b6:f3:7e:c6:38:e7:11:88:
                    ca:66:02:13:2d:11:d6:27:55:88:f6:db:4b:f6:f7:
                    cc:10:65:70:65:38:91:33:52:e8:fe:5a:50:ab:f8:
                    2a:c5:da:bd:7f:d2:b8:93:db:6b:79:d2:30:45:76:
                    b5:83:a2:1b:b7:21:4f:ba:89:0b:8c:69:63:2a:3e:
                    bd:d5:d0:6a:80:fd:5a:e7:d2:8a:f9:b1:0f:81:74:
                    56:ca:fb:e9:84:d5:1f:8d:03:ab:13:44:9f:c1:3e:
                    34:c4:ad:fc:c6:52:8b:70:60:1b:7a:70:54:fa:6d:
                    6e:4b:fc:c9:9a:78:fb:e8:4d:f4:59:1c:09:a6:f6:
                    10:19:f5
                Exponent: 65537 (0x10001)
        X509v3 extensions:
            X509v3 Basic Constraints: 
                CA:FALSE
            Netscape Comment: 
                Easy-RSA Generated Certificate
            X509v3 Subject Key Identifier: 
                5B:14:4C:93:1D:2B:54:E4:EA:57:8F:AA:63:75:E0:78:11:48:6D:AC
            X509v3 Authority Key Identifier: 
                keyid:12:CD:60:04:D2:A0:80:9E:70:ED:C6:99:B8:7B:2C:C6:52:FD:19:A1
                DirName:/C=US/ST=OH/L=Columbus/O=VikingVPN/OU=MyOrganizationalUnit/CN=VikingVPN CA/name=EasyRSA/emailAddress=me@myhost.mydomain
                serial:CF:35:85:EE:80:BF:2A:3E

            X509v3 Extended Key Usage: 
                TLS Web Client Authentication
            X509v3 Key Usage: 
                Digital Signature
    Signature Algorithm: md5WithRSAEncryption
         ad:a4:62:68:f8:b8:32:07:ce:d3:ff:17:18:bf:80:f8:d1:bb:
         3a:26:df:0e:cb:61:bc:99:c3:40:19:cb:55:e5:cb:b9:8b:c5:
         39:29:7c:88:ad:89:a9:22:97:f7:48:20:90:37:18:27:f1:d8:
         cc:0a:41:84:f3:11:f8:2b:cc:0a:e8:4a:36:dd:2e:76:a4:2b:
         75:91:d6:4b:45:9b:28:95:db:c0:66:7b:22:9d:15:a4:70:f7:
         e3:09:16:c3:80:3a:9d:30:82:27:2c:75:06:e4:81:67:99:13:
         c3:89:f9:8a:c1:75:d5:33:da:9c:36:17:d4:ae:98:df:91:30:
         70:1b:42:39:56:8b:89:14:28:9b:c8:13:ed:4f:61:38:49:16:
         d6:f7:e7:5c:b9:9e:bf:ab:3a:6c:cc:10:90:cf:de:7c:8e:43:
         76:f2:b7:90:49:ea:ae:0d:e9:13:da:0e:fe:25:23:c4:f0:56:
         f9:ac:c3:de:eb:01:c0:85:5e:39:e4:18:c3:cc:68:fe:55:b8:
         ea:35:02:90:b7:c9:de:6c:c4:21:03:74:08:c6:21:64:12:eb:
         f8:bb:e1:65:65:2d:f7:74:c7:ea:a1:b9:b5:47:e7:37:20:5b:
         4f:8e:d2:e5:1c:7d:aa:45:22:49:09:7f:03:b8:e4:4e:b8:c2:
         a5:2f:26:26:95:79:a6:a5:c3:4d:9d:3f:af:9b:09:3b:31:95:
         1d:2c:4a:8b:cb:c2:05:2f:6d:ef:71:92:d4:37:32:cc:0b:39:
         30:5b:31:fb:b7:16:0c:e7:d6:0d:bd:86:f3:1b:55:64:cf:65:
         0c:65:dd:f8:bc:9e:3c:dd:cb:4e:4a:6c:5e:58:9b:26:78:14:
         5d:21:be:e5:ab:d6:a0:82:6a:07:e8:7c:a8:aa:1b:d8:de:a6:
         5d:0f:8b:e6:53:57:b0:d4:b6:51:f7:d6:e2:9d:c8:59:d7:cb:
         dc:bd:a4:d3:c2:89:f5:b9:08:27:55:d4:6b:be:8a:71:7f:c1:
         77:15:33:cd:c8:2f:b5:34:a2:9d:67:3b:52:04:54:62:16:66:
         d9:65:65:1c:8c:a6:39:81:2b:90:4e:78:a6:90:0b:04:06:41:
         ec:32:6a:0c:d6:e6:74:23:de:8c:26:d2:b3:9f:f3:56:d0:6d:
         ae:38:93:cc:eb:b8:ad:ab:69:5d:21:ec:27:fc:c5:ef:fc:63:
         b4:e9:56:ff:6f:cb:ca:47:bd:ee:34:19:e9:08:76:0f:05:ba:
         6e:59:76:dd:ee:75:1c:ae:f8:61:be:7b:65:dd:c8:74:63:2a:
         37:55:04:3b:36:a0:ba:9e:7e:cc:89:c7:b9:eb:c5:8f:5f:7e:
         23:94:97:a6:69:45:da:62
-----BEGIN CERTIFICATE-----
MIIGrTCCBJWgAwIBAgICH+MwDQYJKoZIhvcNAQEEBQAwgawxCzAJBgNVBAYTAlVT
MQswCQYDVQQIEwJPSDERMA8GA1UEBxMIQ29sdW1idXMxEjAQBgNVBAoTCVZpa2lu
Z1ZQTjEdMBsGA1UECxMUTXlPcmdhbml6YXRpb25hbFVuaXQxFTATBgNVBAMTDFZp
a2luZ1ZQTiBDQTEQMA4GA1UEKRMHRWFzeVJTQTEhMB8GCSqGSIb3DQEJARYSbWVA
bXlob3N0Lm15ZG9tYWluMB4XDTE2MDYwNDE5MTUwN1oXDTI2MDYwMjE5MTUwN1ow
HzEdMBsGA1UEAxMUQ2xpZW50MTMxM0NlcnRhYThmZWUwggIiMA0GCSqGSIb3DQEB
AQUAA4ICDwAwggIKAoICAQDoufKeidVOVIvkjIgJ6U5FuyoHYqfSpmSFu1rglLOT
BuAC85hlUkTbWqGSpNWT59s6Ue74Z4YK1yz+wPF4RI9/U1GKz7MpAX5xbCVJntWx
P6Cf41FuT+RztWuBuZGXiYvA+HanNzeLqlhSIRYYySM7keqTRJIQHdo5ZCOO+FbD
LdD6Iy3ohXZ1y+jj/gv5VsW+4qOjlh/ePesV7+XdvyomOnLwr1ywBbghXQj7tRDh
VA6HAHjPN5OMNbKsVLkRVEmed4roT8hzbe71x4Ap+EFp/CsPJNUbFph5oBSL2/Hv
z9zHxWaR6bNlqyP9gMZUrnBWVDP/q3zH4Y28uIBFE/Rlxc0OvnCeqLJ6tYArL288
M6nkPaV+hY47U/uuWfvzAnsaLmTiNeckN5EPDfwfZY3leoyT7mRZGwn5s8xMdVjL
93+QNMJdmLbQ+fwd9EBjrkZN1b624yOFecyhVxcOvvnTUZu8yF3zj5/HLCF42VQg
Flg8UHd+ANzZM+iVcCi2837GOOcRiMpmAhMtEdYnVYj220v298wQZXBlOJEzUuj+
WlCr+CrF2r1/0riT22t50jBFdrWDohu3IU+6iQuMaWMqPr3V0GqA/Vrn0or5sQ+B
dFbK++mE1R+NA6sTRJ/BPjTErfzGUotwYBt6cFT6bW5L/MmaePvoTfRZHAmm9hAZ
9QIDAQABo4IBYzCCAV8wCQYDVR0TBAIwADAtBglghkgBhvhCAQ0EIBYeRWFzeS1S
U0EgR2VuZXJhdGVkIENlcnRpZmljYXRlMB0GA1UdDgQWBBRbFEyTHStU5OpXj6pj
deB4EUhtrDCB4QYDVR0jBIHZMIHWgBQSzWAE0qCAnnDtxpm4eyzGUv0ZoaGBsqSB
rzCBrDELMAkGA1UEBhMCVVMxCzAJBgNVBAgTAk9IMREwDwYDVQQHEwhDb2x1bWJ1
czESMBAGA1UEChMJVmlraW5nVlBOMR0wGwYDVQQLExRNeU9yZ2FuaXphdGlvbmFs
VW5pdDEVMBMGA1UEAxMMVmlraW5nVlBOIENBMRAwDgYDVQQpEwdFYXN5UlNBMSEw
HwYJKoZIhvcNAQkBFhJtZUBteWhvc3QubXlkb21haW6CCQDPNYXugL8qPjATBgNV
HSUEDDAKBggrBgEFBQcDAjALBgNVHQ8EBAMCB4AwDQYJKoZIhvcNAQEEBQADggIB
AK2kYmj4uDIHztP/Fxi/gPjRuzom3w7LYbyZw0AZy1Xly7mLxTkpfIitiakil/dI
IJA3GCfx2MwKQYTzEfgrzAroSjbdLnakK3WR1ktFmyiV28BmeyKdFaRw9+MJFsOA
Op0wgicsdQbkgWeZE8OJ+YrBddUz2pw2F9SumN+RMHAbQjlWi4kUKJvIE+1PYThJ
Ftb351y5nr+rOmzMEJDP3nyOQ3byt5BJ6q4N6RPaDv4lI8TwVvmsw97rAcCFXjnk
GMPMaP5VuOo1ApC3yd5sxCEDdAjGIWQS6/i74WVlLfd0x+qhubVH5zcgW0+O0uUc
fapFIkkJfwO45E64wqUvJiaVeaalw02dP6+bCTsxlR0sSovLwgUvbe9xktQ3MswL
OTBbMfu3Fgzn1g29hvMbVWTPZQxl3fi8njzdy05KbF5YmyZ4FF0hvuWr1qCCagfo
fKiqG9jepl0Pi+ZTV7DUtlH31uKdyFnXy9y9pNPCifW5CCdV1Gu+inF/wXcVM83I
L7U0op1nO1IEVGIWZtllZRyMpjmBK5BOeKaQCwQGQewyagzW5nQj3owm0rOf81bQ
ba44k8zruK2raV0h7Cf8xe/8Y7TpVv9vy8pHve40GekIdg8Fum5Zdt3udRyu+GG+
e2XdyHRjKjdVBDs2oLqefsyJx7nrxY9ffiOUl6ZpRdpi
-----END CERTIFICATE-----
