Certificate:
    Data:
        Version: 3 (0x2)
        Serial Number: 10754 (0x2a02)
    Signature Algorithm: sha256WithRSAEncryption
        Issuer: C=US, ST=OH, L=Columbus, O=VikingVPN, OU=MyOrganizationalUnit, CN=VikingVPN CA/name=EasyRSA/emailAddress=me@myhost.mydomain
        Validity
            Not Before: Apr 22 07:19:25 2017 GMT
            Not After : Apr 20 07:19:25 2027 GMT
        Subject: CN=Client2693Certa6c0ea
        Subject Public Key Info:
            Public Key Algorithm: rsaEncryption
                Public-Key: (4096 bit)
                Modulus:
                    00:d0:78:8a:d4:8c:ba:bb:e6:3b:ef:25:63:df:23:
                    a8:a2:c5:a0:de:cc:7d:4c:a5:0d:3d:84:05:81:f5:
                    26:6a:2b:3a:e9:9d:a0:ba:5b:81:3e:c5:5f:d7:28:
                    8b:37:2f:34:68:00:ce:6a:ec:3f:85:f6:ae:5a:c6:
                    7e:93:69:54:8d:3e:c5:53:ef:06:27:4f:60:b7:48:
                    61:a9:bb:fb:1e:fd:7d:0c:38:43:a7:8f:6f:2b:35:
                    d6:ba:c8:11:32:2b:77:e4:1f:a7:79:4d:5c:5e:c2:
                    59:76:c7:93:77:55:16:38:22:ed:1e:e0:ca:15:49:
                    b3:a5:b5:ab:b2:1f:3b:aa:d2:33:10:12:5b:a7:6b:
                    54:5f:77:25:b4:17:51:70:2b:10:ee:7f:15:6a:45:
                    29:d9:34:e4:86:2f:c3:30:ea:26:55:00:dc:dd:c2:
                    82:55:7b:00:96:bc:c5:dc:cc:58:3a:14:6c:b5:98:
                    0f:27:3f:4b:5a:9b:34:e0:12:b4:74:c5:c8:43:1a:
                    a5:44:b9:a9:e8:9b:c8:e8:79:3f:8a:c6:5f:24:58:
                    0d:6b:7e:39:f6:75:20:0f:be:f5:d8:10:65:ec:26:
                    1f:fb:e7:b7:13:8c:c0:4b:61:c8:67:50:9f:20:14:
                    8e:4a:38:76:91:35:34:dc:5f:de:1d:d2:76:67:55:
                    69:92:94:4a:f3:de:f0:a6:9c:aa:a3:de:d4:12:24:
                    b4:0f:e1:f9:5a:35:9a:90:60:81:94:a5:f5:47:09:
                    09:d3:c3:b5:53:07:fe:87:92:02:d4:7e:ec:fc:31:
                    7a:68:62:95:a2:a0:0b:98:16:50:b4:04:f3:56:23:
                    83:be:c5:43:e3:29:45:11:56:a9:75:16:6e:e8:72:
                    ac:20:d7:ee:d9:bc:65:1a:17:5c:a9:72:59:92:cc:
                    4b:8a:7b:57:ed:c2:7e:dc:4a:85:c8:31:42:a4:2c:
                    97:d8:d9:5f:b9:da:60:78:a7:b5:9e:c7:12:28:ab:
                    64:15:ea:58:7f:2c:94:98:50:a6:2d:bc:cf:19:15:
                    17:09:f9:68:cc:43:c8:42:37:53:2d:c2:13:49:2c:
                    17:77:8a:67:bd:5d:e1:fa:e6:35:44:e7:f8:cb:8f:
                    df:4b:08:c6:2d:50:3b:67:7b:e4:e7:8d:30:cb:2f:
                    0d:20:43:c3:ce:3c:98:7a:ed:6e:36:b9:3c:8d:e4:
                    f6:8e:fb:18:16:75:b4:9f:b1:0d:73:80:12:41:f2:
                    4c:36:1e:43:3c:2b:13:75:5b:d8:d6:72:da:26:05:
                    fc:75:a6:b9:77:f0:27:b2:b8:2f:2c:56:ee:3b:0e:
                    14:ca:14:f1:18:5e:91:38:7c:f6:b0:7e:04:27:8d:
                    69:76:8f
                Exponent: 65537 (0x10001)
        X509v3 extensions:
            X509v3 Basic Constraints: 
                CA:FALSE
            Netscape Comment: 
                Easy-RSA Generated Certificate
            X509v3 Subject Key Identifier: 
                6E:AF:ED:AD:13:66:B4:BA:E1:30:AE:0A:92:A5:71:11:F9:48:93:5D
            X509v3 Authority Key Identifier: 
                keyid:12:CD:60:04:D2:A0:80:9E:70:ED:C6:99:B8:7B:2C:C6:52:FD:19:A1
                DirName:/C=US/ST=OH/L=Columbus/O=VikingVPN/OU=MyOrganizationalUnit/CN=VikingVPN CA/name=EasyRSA/emailAddress=me@myhost.mydomain
                serial:CF:35:85:EE:80:BF:2A:3E

            X509v3 Extended Key Usage: 
                TLS Web Client Authentication
            X509v3 Key Usage: 
                Digital Signature
    Signature Algorithm: sha256WithRSAEncryption
         0f:62:35:7e:7e:12:95:15:b8:2e:64:16:4e:c2:c3:50:39:ff:
         d7:f2:1c:96:95:be:87:db:a7:14:e3:4f:27:6b:43:e8:9a:ec:
         5b:6b:62:cc:9d:20:9a:48:f7:a4:1e:18:39:1c:d9:70:dd:c7:
         3c:10:4e:24:f2:b2:96:ae:39:1b:9b:c2:8d:7e:a4:4c:7b:e9:
         f0:7d:87:26:c4:5c:e8:5a:ee:85:4d:85:1e:d9:ea:b5:37:ca:
         6a:92:df:0b:77:e1:3c:98:71:b7:30:28:b8:b6:1f:e4:37:7d:
         0b:6a:c0:d6:42:50:5c:b3:e4:ee:23:97:90:09:6d:68:4b:60:
         ff:a6:3f:87:c2:15:1c:c4:21:ef:38:c9:8d:36:b3:a8:81:95:
         08:fc:4d:ae:10:07:92:21:9c:c2:a2:0c:63:22:84:b0:c4:db:
         88:d8:c6:d6:6d:36:c8:86:5f:c1:14:74:c5:0d:00:d3:4f:f5:
         20:1f:28:f2:ca:5c:86:55:80:a7:63:57:80:df:87:6c:4a:4f:
         a1:75:16:99:b9:3b:e4:f9:06:f3:a0:af:f9:79:65:33:72:e2:
         40:5d:2f:4c:3d:23:eb:e0:37:18:fb:2c:07:08:01:11:e3:85:
         71:35:d4:3b:ce:2d:35:cc:ef:59:ed:52:66:50:2b:9e:f7:40:
         92:ce:ae:c5:45:93:37:a4:d6:3d:d1:8e:18:b9:a6:ce:e9:6f:
         d2:05:4b:fd:2b:58:b7:6d:a8:be:93:02:1c:dc:32:10:09:ea:
         ca:45:be:51:aa:cc:0c:3b:28:35:b2:ce:a1:a4:f4:50:a0:52:
         44:be:2d:e2:08:02:fd:1e:9e:3f:5c:59:c4:b9:53:ba:5d:eb:
         e8:74:b5:c0:7b:ac:b7:8d:93:9f:b1:b7:68:2f:c3:08:db:b0:
         71:da:62:77:09:4f:5d:ee:6a:87:f3:c3:a2:0a:3e:b4:ff:86:
         25:8f:d5:60:7b:04:8c:db:dd:4b:f9:8b:6a:76:1d:a6:7a:9a:
         26:42:5e:07:d7:6b:19:35:43:ac:b4:35:14:df:3e:7b:3e:53:
         a9:9d:9e:46:a1:b0:fc:5a:83:2c:b1:de:a8:fd:5f:2d:b8:f7:
         76:78:21:4e:4a:17:b5:6f:25:13:59:d5:97:e4:b2:84:1a:49:
         dd:30:d5:62:72:c2:ae:bc:bd:a5:38:6c:cc:07:28:06:04:37:
         ea:81:f7:74:60:87:45:46:4a:60:4e:53:22:8a:86:fa:86:74:
         d2:96:69:29:f7:f0:91:82:53:7b:9f:4e:48:ee:1b:2d:3e:c0:
         77:b8:5d:5d:f7:31:32:0c:05:36:db:fd:50:e9:23:84:ef:df:
         fd:cd:fc:ac:25:68:f3:54
-----BEGIN CERTIFICATE-----
MIIGrTCCBJWgAwIBAgICKgIwDQYJKoZIhvcNAQELBQAwgawxCzAJBgNVBAYTAlVT
MQswCQYDVQQIEwJPSDERMA8GA1UEBxMIQ29sdW1idXMxEjAQBgNVBAoTCVZpa2lu
Z1ZQTjEdMBsGA1UECxMUTXlPcmdhbml6YXRpb25hbFVuaXQxFTATBgNVBAMTDFZp
a2luZ1ZQTiBDQTEQMA4GA1UEKRMHRWFzeVJTQTEhMB8GCSqGSIb3DQEJARYSbWVA
bXlob3N0Lm15ZG9tYWluMB4XDTE3MDQyMjA3MTkyNVoXDTI3MDQyMDA3MTkyNVow
HzEdMBsGA1UEAxMUQ2xpZW50MjY5M0NlcnRhNmMwZWEwggIiMA0GCSqGSIb3DQEB
AQUAA4ICDwAwggIKAoICAQDQeIrUjLq75jvvJWPfI6iixaDezH1MpQ09hAWB9SZq
KzrpnaC6W4E+xV/XKIs3LzRoAM5q7D+F9q5axn6TaVSNPsVT7wYnT2C3SGGpu/se
/X0MOEOnj28rNda6yBEyK3fkH6d5TVxewll2x5N3VRY4Iu0e4MoVSbOltauyHzuq
0jMQEluna1RfdyW0F1FwKxDufxVqRSnZNOSGL8Mw6iZVANzdwoJVewCWvMXczFg6
FGy1mA8nP0tamzTgErR0xchDGqVEuanom8joeT+Kxl8kWA1rfjn2dSAPvvXYEGXs
Jh/757cTjMBLYchnUJ8gFI5KOHaRNTTcX94d0nZnVWmSlErz3vCmnKqj3tQSJLQP
4flaNZqQYIGUpfVHCQnTw7VTB/6HkgLUfuz8MXpoYpWioAuYFlC0BPNWI4O+xUPj
KUURVql1Fm7ocqwg1+7ZvGUaF1ypclmSzEuKe1ftwn7cSoXIMUKkLJfY2V+52mB4
p7WexxIoq2QV6lh/LJSYUKYtvM8ZFRcJ+WjMQ8hCN1MtwhNJLBd3ime9XeH65jVE
5/jLj99LCMYtUDtne+TnjTDLLw0gQ8POPJh67W42uTyN5PaO+xgWdbSfsQ1zgBJB
8kw2HkM8KxN1W9jWctomBfx1prl38CeyuC8sVu47DhTKFPEYXpE4fPawfgQnjWl2
jwIDAQABo4IBYzCCAV8wCQYDVR0TBAIwADAtBglghkgBhvhCAQ0EIBYeRWFzeS1S
U0EgR2VuZXJhdGVkIENlcnRpZmljYXRlMB0GA1UdDgQWBBRur+2tE2a0uuEwrgqS
pXER+UiTXTCB4QYDVR0jBIHZMIHWgBQSzWAE0qCAnnDtxpm4eyzGUv0ZoaGBsqSB
rzCBrDELMAkGA1UEBhMCVVMxCzAJBgNVBAgTAk9IMREwDwYDVQQHEwhDb2x1bWJ1
czESMBAGA1UEChMJVmlraW5nVlBOMR0wGwYDVQQLExRNeU9yZ2FuaXphdGlvbmFs
VW5pdDEVMBMGA1UEAxMMVmlraW5nVlBOIENBMRAwDgYDVQQpEwdFYXN5UlNBMSEw
HwYJKoZIhvcNAQkBFhJtZUBteWhvc3QubXlkb21haW6CCQDPNYXugL8qPjATBgNV
HSUEDDAKBggrBgEFBQcDAjALBgNVHQ8EBAMCB4AwDQYJKoZIhvcNAQELBQADggIB
AA9iNX5+EpUVuC5kFk7Cw1A5/9fyHJaVvofbpxTjTydrQ+ia7FtrYsydIJpI96Qe
GDkc2XDdxzwQTiTyspauORubwo1+pEx76fB9hybEXOha7oVNhR7Z6rU3ymqS3wt3
4TyYcbcwKLi2H+Q3fQtqwNZCUFyz5O4jl5AJbWhLYP+mP4fCFRzEIe84yY02s6iB
lQj8Ta4QB5IhnMKiDGMihLDE24jYxtZtNsiGX8EUdMUNANNP9SAfKPLKXIZVgKdj
V4Dfh2xKT6F1Fpm5O+T5BvOgr/l5ZTNy4kBdL0w9I+vgNxj7LAcIARHjhXE11DvO
LTXM71ntUmZQK573QJLOrsVFkzek1j3Rjhi5ps7pb9IFS/0rWLdtqL6TAhzcMhAJ
6spFvlGqzAw7KDWyzqGk9FCgUkS+LeIIAv0enj9cWcS5U7pd6+h0tcB7rLeNk5+x
t2gvwwjbsHHaYncJT13uaofzw6IKPrT/hiWP1WB7BIzb3Uv5i2p2HaZ6miZCXgfX
axk1Q6y0NRTfPns+U6mdnkahsPxagyyx3qj9Xy2493Z4IU5KF7VvJRNZ1ZfksoQa
Sd0w1WJywq68vaU4bMwHKAYEN+qB93Rgh0VGSmBOUyKKhvqGdNKWaSn38JGCU3uf
TkjuGy0+wHe4XV33MTIMBTbb/VDpI4Tv3/3N/KwlaPNU
-----END CERTIFICATE-----
