Certificate:
    Data:
        Version: 3 (0x2)
        Serial Number: 9220 (0x2404)
    Signature Algorithm: sha256WithRSAEncryption
        Issuer: C=US, ST=OH, L=Columbus, O=VikingVPN, OU=MyOrganizationalUnit, CN=VikingVPN CA/name=EasyRSA/emailAddress=me@myhost.mydomain
        Validity
            Not Before: Oct 10 21:40:01 2016 GMT
            Not After : Oct  8 21:40:01 2026 GMT
        Subject: CN=Client2470Certa33607
        Subject Public Key Info:
            Public Key Algorithm: rsaEncryption
                Public-Key: (4096 bit)
                Modulus:
                    00:b6:c9:7e:a4:4b:25:99:5e:5d:92:73:e0:6b:29:
                    b2:19:f5:d7:9b:c4:23:74:a7:cf:c6:b9:e5:32:e0:
                    bd:92:db:ba:cc:ee:3d:c0:1c:13:4c:c0:69:09:11:
                    91:0e:30:ed:1f:87:23:fa:09:87:f7:2b:ec:5a:4b:
                    85:a2:a7:e6:69:b3:d5:b8:f3:c6:d3:24:03:fe:08:
                    ea:e8:e3:4e:55:fe:be:03:b8:a6:d3:84:5e:17:5d:
                    9b:44:83:ae:bb:74:a6:fb:31:7b:98:3f:bf:7a:6f:
                    44:90:46:87:1d:35:6c:63:93:f0:cb:8c:ec:b4:b7:
                    84:17:97:5a:e1:f7:21:29:cf:d9:fb:6b:49:d8:fd:
                    6a:e9:08:c6:37:32:9c:cf:30:31:1c:62:f0:05:ca:
                    8a:8a:aa:e1:96:7b:a2:13:bc:34:22:ea:34:f1:c6:
                    e9:d5:da:74:1b:c2:10:17:fa:8c:75:61:c3:5d:fb:
                    e2:fe:d0:db:db:18:d2:e1:df:28:79:8d:80:ed:ff:
                    28:20:58:3b:a3:25:08:92:d9:d5:7c:1a:ef:f5:e8:
                    1a:c2:f6:0d:9a:4f:9d:03:00:9c:d8:f0:c4:57:46:
                    5c:8e:4c:f6:57:3d:19:2a:a8:e9:fe:18:61:d2:39:
                    d5:68:ea:2c:33:1d:8f:76:67:ca:7c:d4:af:59:98:
                    8c:fe:f4:5b:84:e6:01:13:66:02:30:ec:ac:2f:19:
                    a1:5c:00:9f:52:22:c0:44:5c:83:c8:a6:ed:7b:e0:
                    9b:9a:95:84:df:4e:55:08:fc:2f:de:43:b0:00:84:
                    a5:b7:b0:6e:ff:e6:b9:ce:d0:e4:8a:b2:99:e8:4d:
                    a3:a9:1b:0e:5d:a7:d1:51:af:69:3e:d9:f3:f9:4c:
                    41:9e:b4:9f:63:e0:57:d6:7b:d6:48:78:3c:7d:02:
                    1d:f3:0c:91:d8:74:56:36:7c:5a:4c:3a:33:ff:7e:
                    c0:da:cb:83:a6:e9:e7:df:25:e9:37:32:6a:c9:70:
                    8c:6f:5e:98:9a:5b:b8:42:11:3d:fd:59:2f:40:d3:
                    f3:f6:55:ed:6f:ce:73:08:30:87:94:4a:77:20:ee:
                    c9:0c:69:7a:92:e3:ff:90:0e:85:5a:e6:23:b4:1c:
                    cb:ed:e5:d3:6d:ad:8c:5c:0f:8b:19:a1:f3:23:47:
                    3a:1c:d9:03:51:a4:70:39:8d:33:6c:88:5d:ab:47:
                    ca:8d:3d:0e:be:ec:d6:b9:7b:ef:07:78:a9:98:88:
                    86:89:a9:b0:bf:4f:dd:9f:19:5a:e2:22:54:eb:4a:
                    2b:06:e7:40:76:1f:63:8d:e2:6a:8f:aa:91:09:d4:
                    d4:33:6d:00:08:1b:6f:bd:c0:9d:d3:9a:39:80:ca:
                    37:40:65
                Exponent: 65537 (0x10001)
        X509v3 extensions:
            X509v3 Basic Constraints: 
                CA:FALSE
            Netscape Comment: 
                Easy-RSA Generated Certificate
            X509v3 Subject Key Identifier: 
                AF:BC:06:AA:31:16:75:09:60:6C:9F:21:5B:49:63:3B:A7:A1:73:40
            X509v3 Authority Key Identifier: 
                keyid:12:CD:60:04:D2:A0:80:9E:70:ED:C6:99:B8:7B:2C:C6:52:FD:19:A1
                DirName:/C=US/ST=OH/L=Columbus/O=VikingVPN/OU=MyOrganizationalUnit/CN=VikingVPN CA/name=EasyRSA/emailAddress=me@myhost.mydomain
                serial:CF:35:85:EE:80:BF:2A:3E

            X509v3 Extended Key Usage: 
                TLS Web Client Authentication
            X509v3 Key Usage: 
                Digital Signature
    Signature Algorithm: sha256WithRSAEncryption
         45:c5:df:54:01:42:5b:49:17:7b:30:79:fb:c9:c1:5d:2b:ff:
         7f:bf:68:b0:6d:8f:a7:02:de:1b:4b:d8:a1:75:53:06:3d:4e:
         5a:4d:94:c5:40:df:d3:87:00:6e:f6:85:0e:7b:fb:f2:4c:79:
         59:98:bc:fe:26:48:c5:ab:c4:1e:43:6c:61:10:f5:c5:43:8d:
         fe:6c:91:86:56:d4:98:a6:8c:26:f9:82:56:63:0b:50:fe:51:
         f9:64:45:af:5f:4f:d8:09:2a:d7:51:87:fe:9f:26:f7:2e:ea:
         95:87:25:f8:99:f7:e1:8a:d9:3c:03:24:01:b4:c2:bf:33:77:
         62:d5:3b:81:3a:15:48:bb:d6:7c:b7:4c:22:4d:2b:f8:36:91:
         fc:54:b1:a4:f9:0d:71:88:00:ca:4d:e7:e9:9d:dc:fa:e5:ba:
         74:88:45:a6:53:e3:dc:2a:5c:d6:2a:0f:b4:b3:f4:ad:5b:0e:
         a5:23:79:70:2a:50:48:a4:e2:de:17:61:f8:b1:df:43:e0:a9:
         ce:8b:66:3b:9b:91:4b:af:af:37:87:21:69:21:46:f0:da:65:
         10:9c:97:6d:36:c0:f4:77:ff:a0:44:e6:49:09:c1:8c:83:db:
         13:0b:ac:6e:e8:6c:22:0c:14:62:48:59:53:59:45:61:a9:81:
         06:43:85:ef:fe:9d:4b:81:59:43:9e:5c:65:d2:7d:4a:d2:34:
         ac:66:ca:c8:cc:2f:88:14:a5:c4:ed:50:0c:b8:25:4b:65:4a:
         21:80:19:c7:af:a6:00:a4:26:ee:67:0d:eb:d0:a1:d2:99:36:
         72:9b:ab:39:48:fb:66:77:d8:a1:23:eb:6c:3f:a9:35:d9:ea:
         6f:61:69:fe:75:aa:51:55:0b:c3:25:43:b4:af:6e:36:53:4c:
         f1:ec:08:9d:cb:bf:88:7a:7d:cc:90:fe:62:8e:bd:06:09:26:
         b3:65:99:56:cc:4b:6b:25:30:58:d7:69:e7:28:7d:c1:cb:34:
         bc:63:d9:bd:e7:df:7e:51:46:49:42:15:f3:29:0e:ed:da:b6:
         da:6f:bc:d3:3e:78:9b:9f:f3:42:4f:57:09:17:8e:32:28:a3:
         4b:b0:e5:fd:49:59:4f:75:44:63:30:9d:ed:00:02:b2:1a:ba:
         de:45:11:64:12:f8:47:d5:89:a0:47:3c:fa:64:34:49:8b:55:
         6c:b8:e2:a9:28:8e:60:d1:85:16:8a:f1:eb:04:80:68:48:44:
         b8:26:45:06:db:1e:6e:f2:da:7a:5a:2c:32:20:cf:2a:66:3a:
         49:b1:dc:3a:5b:48:89:01:c7:65:31:60:9d:19:71:d4:90:64:
         e3:4a:35:8d:34:e8:78:36
-----BEGIN CERTIFICATE-----
MIIGrTCCBJWgAwIBAgICJAQwDQYJKoZIhvcNAQELBQAwgawxCzAJBgNVBAYTAlVT
MQswCQYDVQQIEwJPSDERMA8GA1UEBxMIQ29sdW1idXMxEjAQBgNVBAoTCVZpa2lu
Z1ZQTjEdMBsGA1UECxMUTXlPcmdhbml6YXRpb25hbFVuaXQxFTATBgNVBAMTDFZp
a2luZ1ZQTiBDQTEQMA4GA1UEKRMHRWFzeVJTQTEhMB8GCSqGSIb3DQEJARYSbWVA
bXlob3N0Lm15ZG9tYWluMB4XDTE2MTAxMDIxNDAwMVoXDTI2MTAwODIxNDAwMVow
HzEdMBsGA1UEAxMUQ2xpZW50MjQ3MENlcnRhMzM2MDcwggIiMA0GCSqGSIb3DQEB
AQUAA4ICDwAwggIKAoICAQC2yX6kSyWZXl2Sc+BrKbIZ9debxCN0p8/GueUy4L2S
27rM7j3AHBNMwGkJEZEOMO0fhyP6CYf3K+xaS4Wip+Zps9W488bTJAP+COro405V
/r4DuKbThF4XXZtEg667dKb7MXuYP796b0SQRocdNWxjk/DLjOy0t4QXl1rh9yEp
z9n7a0nY/WrpCMY3MpzPMDEcYvAFyoqKquGWe6ITvDQi6jTxxunV2nQbwhAX+ox1
YcNd++L+0NvbGNLh3yh5jYDt/yggWDujJQiS2dV8Gu/16BrC9g2aT50DAJzY8MRX
RlyOTPZXPRkqqOn+GGHSOdVo6iwzHY92Z8p81K9ZmIz+9FuE5gETZgIw7KwvGaFc
AJ9SIsBEXIPIpu174JualYTfTlUI/C/eQ7AAhKW3sG7/5rnO0OSKspnoTaOpGw5d
p9FRr2k+2fP5TEGetJ9j4FfWe9ZIeDx9Ah3zDJHYdFY2fFpMOjP/fsDay4Om6eff
Jek3MmrJcIxvXpiaW7hCET39WS9A0/P2Ve1vznMIMIeUSncg7skMaXqS4/+QDoVa
5iO0HMvt5dNtrYxcD4sZofMjRzoc2QNRpHA5jTNsiF2rR8qNPQ6+7Na5e+8HeKmY
iIaJqbC/T92fGVriIlTrSisG50B2H2ON4mqPqpEJ1NQzbQAIG2+9wJ3TmjmAyjdA
ZQIDAQABo4IBYzCCAV8wCQYDVR0TBAIwADAtBglghkgBhvhCAQ0EIBYeRWFzeS1S
U0EgR2VuZXJhdGVkIENlcnRpZmljYXRlMB0GA1UdDgQWBBSvvAaqMRZ1CWBsnyFb
SWM7p6FzQDCB4QYDVR0jBIHZMIHWgBQSzWAE0qCAnnDtxpm4eyzGUv0ZoaGBsqSB
rzCBrDELMAkGA1UEBhMCVVMxCzAJBgNVBAgTAk9IMREwDwYDVQQHEwhDb2x1bWJ1
czESMBAGA1UEChMJVmlraW5nVlBOMR0wGwYDVQQLExRNeU9yZ2FuaXphdGlvbmFs
VW5pdDEVMBMGA1UEAxMMVmlraW5nVlBOIENBMRAwDgYDVQQpEwdFYXN5UlNBMSEw
HwYJKoZIhvcNAQkBFhJtZUBteWhvc3QubXlkb21haW6CCQDPNYXugL8qPjATBgNV
HSUEDDAKBggrBgEFBQcDAjALBgNVHQ8EBAMCB4AwDQYJKoZIhvcNAQELBQADggIB
AEXF31QBQltJF3swefvJwV0r/3+/aLBtj6cC3htL2KF1UwY9TlpNlMVA39OHAG72
hQ57+/JMeVmYvP4mSMWrxB5DbGEQ9cVDjf5skYZW1JimjCb5glZjC1D+UflkRa9f
T9gJKtdRh/6fJvcu6pWHJfiZ9+GK2TwDJAG0wr8zd2LVO4E6FUi71ny3TCJNK/g2
kfxUsaT5DXGIAMpN5+md3PrlunSIRaZT49wqXNYqD7Sz9K1bDqUjeXAqUEik4t4X
Yfix30Pgqc6LZjubkUuvrzeHIWkhRvDaZRCcl202wPR3/6BE5kkJwYyD2xMLrG7o
bCIMFGJIWVNZRWGpgQZDhe/+nUuBWUOeXGXSfUrSNKxmysjML4gUpcTtUAy4JUtl
SiGAGcevpgCkJu5nDevQodKZNnKbqzlI+2Z32KEj62w/qTXZ6m9haf51qlFVC8Ml
Q7SvbjZTTPHsCJ3Lv4h6fcyQ/mKOvQYJJrNlmVbMS2slMFjXaecofcHLNLxj2b3n
335RRklCFfMpDu3attpvvNM+eJuf80JPVwkXjjIoo0uw5f1JWU91RGMwne0AArIa
ut5FEWQS+EfViaBHPPpkNEmLVWy44qkojmDRhRaK8esEgGhIRLgmRQbbHm7y2npa
LDIgzypmOkmx3DpbSIkBx2UxYJ0ZcdSQZONKNY006Hg2
-----END CERTIFICATE-----
