Certificate:
    Data:
        Version: 3 (0x2)
        Serial Number: 11581 (0x2d3d)
    Signature Algorithm: sha256WithRSAEncryption
        Issuer: C=US, ST=OH, L=Columbus, O=VikingVPN, OU=MyOrganizationalUnit, CN=VikingVPN CA/name=EasyRSA/emailAddress=me@myhost.mydomain
        Validity
            Not Before: Aug 18 20:49:32 2017 GMT
            Not After : Aug 16 20:49:32 2027 GMT
        Subject: CN=Client3053Certbee5eb
        Subject Public Key Info:
            Public Key Algorithm: rsaEncryption
                Public-Key: (4096 bit)
                Modulus:
                    00:99:de:38:b8:14:90:82:c1:87:75:ad:46:18:39:
                    c4:d5:da:6c:2f:b5:70:2b:da:d9:b4:39:9f:ae:ed:
                    3e:5a:28:38:d0:64:bd:39:31:58:17:71:16:ba:12:
                    2c:36:4a:11:3f:a5:76:ae:7f:ba:a5:3f:a3:ed:a5:
                    03:aa:4e:b8:53:52:98:55:dd:26:4b:47:bc:8d:46:
                    96:5d:89:48:3c:3c:03:f7:4f:75:53:f3:a8:fe:87:
                    4f:b5:3b:8a:c0:f2:d3:2b:65:fe:db:03:ec:db:52:
                    b0:fe:0d:d6:93:07:b2:b7:13:24:b8:14:46:ca:70:
                    c9:c8:e7:ee:8c:68:b2:05:5b:77:f0:16:6a:f1:ec:
                    c2:97:1f:54:bc:e2:80:90:3f:09:e9:cf:cd:cd:e3:
                    9d:16:58:1e:05:ce:7d:3a:d2:c5:26:0b:be:c0:0e:
                    bb:1f:4d:36:76:60:f7:b6:dd:43:c5:99:d9:62:a8:
                    cc:cb:af:ea:74:26:85:cf:24:9c:81:30:95:c4:6b:
                    8e:9f:40:9e:5e:73:88:8f:53:a7:c6:f8:20:f8:b8:
                    06:49:5f:45:c4:5f:38:a8:ca:0e:c3:d1:25:56:b5:
                    5f:c5:11:b0:42:1e:f5:ce:1f:cc:45:02:65:9b:4b:
                    09:79:ea:07:65:1e:8d:3e:e2:22:c9:e1:ca:36:99:
                    6d:f5:72:2b:d6:d9:e4:90:5d:a4:7b:16:56:10:8f:
                    0e:2b:2a:ae:8c:33:e3:a6:62:da:09:fc:bd:82:80:
                    f5:ca:2b:39:c6:02:d0:63:32:b1:e0:9d:cf:63:9b:
                    e1:50:e9:e0:9e:86:5f:7d:4c:1d:ee:af:c9:2d:0e:
                    e5:46:5b:28:2a:39:99:a1:27:0a:c6:bf:0c:11:60:
                    99:81:3f:27:92:83:86:d9:af:23:71:e9:e6:3f:a7:
                    77:c1:f7:a9:15:66:c6:ef:82:17:0f:f4:70:ce:0b:
                    fd:1d:79:b6:27:eb:84:93:04:b6:f1:6f:a0:93:a7:
                    8b:e6:91:a5:3c:3c:e9:03:0e:f6:b8:d5:f4:1c:23:
                    59:96:2d:80:c8:6a:94:60:70:6a:cc:29:bd:42:ce:
                    ed:30:f4:c6:b5:a5:9b:4c:6a:88:2f:eb:36:91:c2:
                    b1:18:1a:5d:b4:da:15:56:fb:43:31:3e:f3:80:bb:
                    45:79:9e:a2:c2:0c:e8:5f:57:ed:95:15:c9:15:eb:
                    ce:55:31:49:ce:2a:2a:08:94:41:c2:7c:4b:ae:db:
                    20:3d:c2:8b:15:51:16:4b:1b:9b:d6:56:0a:79:ae:
                    e4:84:13:ef:1f:e6:5b:98:5f:86:cc:df:91:d9:4c:
                    ee:74:37:cb:ac:78:4f:2f:7f:14:b6:5c:ee:88:aa:
                    4d:f8:9b
                Exponent: 65537 (0x10001)
        X509v3 extensions:
            X509v3 Basic Constraints: 
                CA:FALSE
            Netscape Comment: 
                Easy-RSA Generated Certificate
            X509v3 Subject Key Identifier: 
                98:BD:C1:C7:79:CC:91:77:71:61:CD:9B:EA:29:4B:89:6E:92:B7:0F
            X509v3 Authority Key Identifier: 
                keyid:12:CD:60:04:D2:A0:80:9E:70:ED:C6:99:B8:7B:2C:C6:52:FD:19:A1
                DirName:/C=US/ST=OH/L=Columbus/O=VikingVPN/OU=MyOrganizationalUnit/CN=VikingVPN CA/name=EasyRSA/emailAddress=me@myhost.mydomain
                serial:CF:35:85:EE:80:BF:2A:3E

            X509v3 Extended Key Usage: 
                TLS Web Client Authentication
            X509v3 Key Usage: 
                Digital Signature
    Signature Algorithm: sha256WithRSAEncryption
         e8:ac:14:9f:a0:06:0b:41:f6:c4:f2:00:28:e0:0b:7e:43:57:
         31:88:0b:d5:84:6d:70:64:6f:57:28:ff:45:c2:03:3b:59:a9:
         06:5e:40:e6:4d:9f:9c:2b:24:8f:57:26:e0:49:ce:84:66:8c:
         c7:de:3d:e4:d3:31:9f:ba:fd:74:63:34:3c:8f:a7:4c:61:79:
         1a:2f:39:a2:6a:dd:a0:ac:78:ce:22:64:af:88:ce:af:fd:c0:
         88:1b:0b:a4:f5:af:6d:cf:f5:77:8e:16:2b:81:71:b4:4e:15:
         09:4b:83:04:2f:d4:dd:c7:da:ec:ae:0b:62:a5:11:4e:f8:31:
         d1:ac:ba:6b:a4:22:af:33:67:a8:d1:78:e5:a3:c9:a1:38:57:
         aa:ba:72:16:1e:2e:3d:e2:7b:de:6e:3c:21:db:62:26:ad:91:
         aa:ef:5d:16:1d:e9:31:95:6a:c6:60:5f:99:51:03:e9:22:6d:
         0d:98:07:ba:7b:23:fb:18:98:d3:b4:bc:cc:07:18:25:e5:31:
         2f:23:37:a5:42:0b:80:d5:93:d2:d8:65:81:32:6d:89:2d:99:
         04:1c:2f:05:ff:66:05:34:ed:92:00:ed:71:95:c6:23:ab:71:
         3c:12:1f:9c:87:94:df:f1:ed:2b:68:da:5a:fc:b7:bd:ed:79:
         e5:b3:ae:79:e5:a8:75:b8:3b:17:9d:36:cf:74:1f:79:97:25:
         53:76:3f:96:2c:cf:f7:80:e7:cd:4e:b0:7e:ca:8d:23:74:ce:
         25:06:19:66:e9:d6:58:11:c2:de:d2:13:9a:a3:2b:31:95:3b:
         c9:2c:bd:9d:a1:a1:9b:ae:38:82:4b:da:7d:3c:31:2f:10:2d:
         37:7e:96:bd:21:f6:f7:90:f3:c0:ef:d8:31:a8:1b:ee:5a:3f:
         ed:2e:5f:3b:83:84:ca:16:9b:46:f2:51:d0:7b:cf:27:5c:3d:
         ae:52:68:8a:7f:c8:4c:13:e6:91:c6:b2:15:ca:fe:2e:21:60:
         68:48:d3:fa:ba:64:fb:1f:3f:71:44:15:65:24:7d:e1:3e:c9:
         d4:5b:8a:bd:d4:6b:ab:95:2d:41:e7:b5:8e:f2:23:c7:20:e8:
         5f:f2:65:59:61:6b:7b:a8:7a:e8:26:11:7f:68:50:c0:1b:70:
         42:07:47:4f:87:f9:36:35:db:5c:c2:47:02:c6:c1:77:df:c7:
         c1:f0:97:f9:54:bc:9e:2b:1b:54:fe:b8:6b:f9:24:a5:fd:00:
         ab:dc:dd:a2:2c:c7:ee:91:2e:5c:55:2b:f7:76:ec:87:b6:cc:
         84:ec:af:15:9c:ce:5c:4e:a7:6a:f1:6e:22:c9:0e:89:56:60:
         fc:16:56:fe:f9:c2:4e:9f
-----BEGIN CERTIFICATE-----
MIIGrTCCBJWgAwIBAgICLT0wDQYJKoZIhvcNAQELBQAwgawxCzAJBgNVBAYTAlVT
MQswCQYDVQQIEwJPSDERMA8GA1UEBxMIQ29sdW1idXMxEjAQBgNVBAoTCVZpa2lu
Z1ZQTjEdMBsGA1UECxMUTXlPcmdhbml6YXRpb25hbFVuaXQxFTATBgNVBAMTDFZp
a2luZ1ZQTiBDQTEQMA4GA1UEKRMHRWFzeVJTQTEhMB8GCSqGSIb3DQEJARYSbWVA
bXlob3N0Lm15ZG9tYWluMB4XDTE3MDgxODIwNDkzMloXDTI3MDgxNjIwNDkzMlow
HzEdMBsGA1UEAxMUQ2xpZW50MzA1M0NlcnRiZWU1ZWIwggIiMA0GCSqGSIb3DQEB
AQUAA4ICDwAwggIKAoICAQCZ3ji4FJCCwYd1rUYYOcTV2mwvtXAr2tm0OZ+u7T5a
KDjQZL05MVgXcRa6Eiw2ShE/pXauf7qlP6PtpQOqTrhTUphV3SZLR7yNRpZdiUg8
PAP3T3VT86j+h0+1O4rA8tMrZf7bA+zbUrD+DdaTB7K3EyS4FEbKcMnI5+6MaLIF
W3fwFmrx7MKXH1S84oCQPwnpz83N450WWB4Fzn060sUmC77ADrsfTTZ2YPe23UPF
mdliqMzLr+p0JoXPJJyBMJXEa46fQJ5ec4iPU6fG+CD4uAZJX0XEXzioyg7D0SVW
tV/FEbBCHvXOH8xFAmWbSwl56gdlHo0+4iLJ4co2mW31civW2eSQXaR7FlYQjw4r
Kq6MM+OmYtoJ/L2CgPXKKznGAtBjMrHgnc9jm+FQ6eCehl99TB3ur8ktDuVGWygq
OZmhJwrGvwwRYJmBPyeSg4bZryNx6eY/p3fB96kVZsbvghcP9HDOC/0debYn64ST
BLbxb6CTp4vmkaU8POkDDva41fQcI1mWLYDIapRgcGrMKb1Czu0w9Ma1pZtMaogv
6zaRwrEYGl202hVW+0MxPvOAu0V5nqLCDOhfV+2VFckV685VMUnOKioIlEHCfEuu
2yA9wosVURZLG5vWVgp5ruSEE+8f5luYX4bM35HZTO50N8useE8vfxS2XO6Iqk34
mwIDAQABo4IBYzCCAV8wCQYDVR0TBAIwADAtBglghkgBhvhCAQ0EIBYeRWFzeS1S
U0EgR2VuZXJhdGVkIENlcnRpZmljYXRlMB0GA1UdDgQWBBSYvcHHecyRd3FhzZvq
KUuJbpK3DzCB4QYDVR0jBIHZMIHWgBQSzWAE0qCAnnDtxpm4eyzGUv0ZoaGBsqSB
rzCBrDELMAkGA1UEBhMCVVMxCzAJBgNVBAgTAk9IMREwDwYDVQQHEwhDb2x1bWJ1
czESMBAGA1UEChMJVmlraW5nVlBOMR0wGwYDVQQLExRNeU9yZ2FuaXphdGlvbmFs
VW5pdDEVMBMGA1UEAxMMVmlraW5nVlBOIENBMRAwDgYDVQQpEwdFYXN5UlNBMSEw
HwYJKoZIhvcNAQkBFhJtZUBteWhvc3QubXlkb21haW6CCQDPNYXugL8qPjATBgNV
HSUEDDAKBggrBgEFBQcDAjALBgNVHQ8EBAMCB4AwDQYJKoZIhvcNAQELBQADggIB
AOisFJ+gBgtB9sTyACjgC35DVzGIC9WEbXBkb1co/0XCAztZqQZeQOZNn5wrJI9X
JuBJzoRmjMfePeTTMZ+6/XRjNDyPp0xheRovOaJq3aCseM4iZK+Izq/9wIgbC6T1
r23P9XeOFiuBcbROFQlLgwQv1N3H2uyuC2KlEU74MdGsumukIq8zZ6jReOWjyaE4
V6q6chYeLj3ie95uPCHbYiatkarvXRYd6TGVasZgX5lRA+kibQ2YB7p7I/sYmNO0
vMwHGCXlMS8jN6VCC4DVk9LYZYEybYktmQQcLwX/ZgU07ZIA7XGVxiOrcTwSH5yH
lN/x7Sto2lr8t73teeWzrnnlqHW4OxedNs90H3mXJVN2P5Ysz/eA581OsH7KjSN0
ziUGGWbp1lgRwt7SE5qjKzGVO8ksvZ2hoZuuOIJL2n08MS8QLTd+lr0h9veQ88Dv
2DGoG+5aP+0uXzuDhMoWm0byUdB7zydcPa5SaIp/yEwT5pHGshXK/i4hYGhI0/q6
ZPsfP3FEFWUkfeE+ydRbir3Ua6uVLUHntY7yI8cg6F/yZVlha3uoeugmEX9oUMAb
cEIHR0+H+TY121zCRwLGwXffx8Hwl/lUvJ4rG1T+uGv5JKX9AKvc3aIsx+6RLlxV
K/d27Ie2zITsrxWczlxOp2rxbiLJDolWYPwWVv75wk6f
-----END CERTIFICATE-----
