Certificate:
    Data:
        Version: 3 (0x2)
        Serial Number: 8286 (0x205e)
    Signature Algorithm: md5WithRSAEncryption
        Issuer: C=US, ST=OH, L=Columbus, O=VikingVPN, OU=MyOrganizationalUnit, CN=VikingVPN CA/name=EasyRSA/emailAddress=me@myhost.mydomain
        Validity
            Not Before: Jun 14 21:45:47 2016 GMT
            Not After : Jun 12 21:45:47 2026 GMT
        Subject: CN=Client2396Cert1e06ba
        Subject Public Key Info:
            Public Key Algorithm: rsaEncryption
                Public-Key: (4096 bit)
                Modulus:
                    00:a0:c0:36:0b:26:bd:25:6d:54:8b:b4:ca:47:fc:
                    47:a0:57:56:9b:40:35:15:17:c8:36:60:39:e4:b6:
                    fe:89:c3:98:59:35:de:f7:d4:44:5a:7e:82:9b:1f:
                    1e:b5:55:25:e0:a1:88:c0:e9:4c:d9:a8:3e:70:ae:
                    b6:df:d6:b6:8d:e9:93:fc:dc:63:5c:72:1f:6a:cc:
                    45:02:80:5a:84:03:4a:72:29:60:d1:c1:36:85:26:
                    54:f9:99:89:e1:09:81:b6:21:7a:2c:16:9e:f5:11:
                    21:d4:26:73:27:e1:25:ce:8f:99:54:b1:bf:2f:6e:
                    df:56:53:11:0a:21:6c:2b:a9:29:08:dd:e5:5e:86:
                    f6:00:5a:00:f3:17:15:be:51:69:45:f7:6d:0e:a3:
                    4e:c5:0f:1c:a9:08:b6:0f:11:57:e4:ea:c2:15:ff:
                    12:ee:6e:67:2f:51:d7:7d:b4:3a:2e:a1:b0:da:ee:
                    99:28:c2:8a:41:cf:ca:df:4f:ed:e5:2b:73:5e:fc:
                    a9:bf:41:58:6a:0f:4c:df:92:a1:79:18:3d:c9:52:
                    38:aa:b5:5b:65:ed:da:67:c5:17:db:0c:45:8c:df:
                    3f:7f:18:97:c8:4d:81:ee:50:dd:be:93:0b:9e:93:
                    f4:88:8e:69:19:13:d5:3d:9c:dd:a3:6a:68:91:6d:
                    b5:7a:28:a8:ac:83:eb:2a:db:ac:25:02:49:90:4e:
                    a5:ad:27:d1:2f:0b:51:1e:2e:52:34:55:6c:74:c6:
                    76:be:c4:6e:97:d1:ca:56:f6:49:5c:fa:80:b6:db:
                    48:c7:80:9d:7e:43:01:ee:68:b3:9c:62:c1:3c:15:
                    a2:22:c7:a1:d2:5c:25:77:0c:7a:af:74:79:d1:67:
                    98:b2:93:b6:f4:8f:c8:34:c7:be:69:2c:ac:30:7d:
                    12:57:a5:b0:f8:74:e6:33:40:0e:ca:fb:09:29:32:
                    4b:ff:ca:e5:0b:b4:10:9d:37:86:9f:73:e6:a2:1e:
                    22:a1:c9:8e:94:9a:c1:63:6c:5b:65:9b:15:94:89:
                    35:95:d6:74:32:36:e5:08:28:6f:03:05:b8:30:8b:
                    91:ea:7f:8b:73:bf:b1:bc:d8:ef:ed:1e:01:3a:85:
                    71:89:75:39:ff:82:aa:b2:eb:9e:9d:60:16:3a:76:
                    d9:97:2e:ae:88:ec:1a:d9:31:20:d4:6f:10:ab:de:
                    98:16:8f:24:fe:3b:bc:c0:99:c8:96:d7:82:69:ae:
                    6d:f4:95:68:53:cb:cb:be:de:18:53:5b:01:fc:2b:
                    5c:13:ec:fb:81:f2:b9:dc:69:eb:41:fd:41:1a:d5:
                    13:de:2f:96:54:f9:59:2e:a5:04:87:60:71:d6:cb:
                    b0:de:39
                Exponent: 65537 (0x10001)
        X509v3 extensions:
            X509v3 Basic Constraints: 
                CA:FALSE
            Netscape Comment: 
                Easy-RSA Generated Certificate
            X509v3 Subject Key Identifier: 
                18:DB:5F:F6:65:22:F3:AD:5B:52:4E:3F:A1:AC:AA:B1:6D:60:08:6B
            X509v3 Authority Key Identifier: 
                keyid:12:CD:60:04:D2:A0:80:9E:70:ED:C6:99:B8:7B:2C:C6:52:FD:19:A1
                DirName:/C=US/ST=OH/L=Columbus/O=VikingVPN/OU=MyOrganizationalUnit/CN=VikingVPN CA/name=EasyRSA/emailAddress=me@myhost.mydomain
                serial:CF:35:85:EE:80:BF:2A:3E

            X509v3 Extended Key Usage: 
                TLS Web Client Authentication
            X509v3 Key Usage: 
                Digital Signature
    Signature Algorithm: md5WithRSAEncryption
         16:ea:ae:aa:0c:28:36:62:cb:6a:0e:dd:a8:e4:79:db:de:77:
         8a:63:65:08:27:04:5a:d5:b8:3c:67:59:f2:8b:a9:0d:c4:92:
         e8:89:e9:61:52:68:32:96:0e:3d:cf:c7:c7:fc:5c:d6:32:e0:
         09:ea:88:bb:88:8a:74:c5:84:49:9c:f6:b0:84:8b:da:76:f5:
         5e:69:8e:2a:aa:b2:3a:5a:08:5d:80:41:d3:4a:e2:ce:bb:a6:
         23:6e:02:35:12:d9:7a:d2:b4:06:71:6f:37:32:2c:5f:85:6a:
         70:f1:b5:47:a1:fc:36:f7:80:62:b4:3a:ca:b6:ec:32:8f:89:
         6a:41:fb:9a:be:f9:1a:eb:7b:13:2a:45:16:28:a1:c0:cb:01:
         1f:98:a5:f1:44:f5:17:e1:45:56:24:7b:ea:9a:b8:90:e0:80:
         ca:72:89:dd:8e:83:06:c1:06:a8:8b:75:75:eb:85:5d:39:00:
         35:61:4d:2b:78:b2:22:64:60:30:74:6f:b4:7f:43:c3:91:d5:
         59:69:35:53:9f:e9:72:44:01:f0:d2:5e:df:84:01:51:3c:80:
         1b:47:9e:7e:e7:9e:ff:39:9f:1f:d1:48:2c:2d:38:1b:98:ae:
         65:c6:35:dc:5a:7d:eb:ae:eb:e1:b4:d2:f1:38:b6:2b:4a:b0:
         4a:8f:c3:04:54:7f:a7:aa:ce:95:57:a1:c0:3f:1c:4a:d1:6f:
         74:c6:ac:52:a8:b2:ce:28:4e:f1:13:fd:7c:1f:24:e6:20:ed:
         fe:a8:97:1f:0d:34:5b:4d:38:bc:6c:95:4c:ae:b3:46:3d:73:
         ea:65:47:cd:8d:82:b1:a5:79:5a:99:15:cb:17:21:63:65:8d:
         27:7b:17:c2:ce:38:32:27:3f:14:a8:c2:08:25:46:14:3f:f7:
         d6:4c:9e:fe:75:1a:59:26:70:7b:f5:ec:e2:5e:b1:c5:bd:5f:
         aa:33:06:38:3a:11:57:63:ec:35:18:1a:08:ce:c6:60:4c:15:
         04:4a:9b:af:92:23:9a:b6:81:1f:79:61:ac:f9:7e:90:c1:1c:
         f0:a4:a5:30:21:40:e3:4c:59:fc:34:25:52:5d:a2:28:04:a0:
         bd:a0:1c:3d:62:fe:c6:22:f2:0d:df:dc:e8:4b:bc:3a:1a:f7:
         d0:b4:3a:12:d1:64:e2:2d:2e:01:ae:67:2b:e7:52:df:29:7b:
         e1:1c:23:d3:c6:9a:00:f1:22:ea:af:1f:f5:48:b2:b9:44:00:
         29:06:ad:41:bb:b1:87:de:95:d7:e7:4e:7f:b6:ee:85:a7:34:
         38:f7:ba:03:95:1d:0a:2f:ab:39:c7:5c:e1:97:1e:18:5b:8a:
         2e:b7:e2:21:62:7d:c7:9d
-----BEGIN CERTIFICATE-----
MIIGrTCCBJWgAwIBAgICIF4wDQYJKoZIhvcNAQEEBQAwgawxCzAJBgNVBAYTAlVT
MQswCQYDVQQIEwJPSDERMA8GA1UEBxMIQ29sdW1idXMxEjAQBgNVBAoTCVZpa2lu
Z1ZQTjEdMBsGA1UECxMUTXlPcmdhbml6YXRpb25hbFVuaXQxFTATBgNVBAMTDFZp
a2luZ1ZQTiBDQTEQMA4GA1UEKRMHRWFzeVJTQTEhMB8GCSqGSIb3DQEJARYSbWVA
bXlob3N0Lm15ZG9tYWluMB4XDTE2MDYxNDIxNDU0N1oXDTI2MDYxMjIxNDU0N1ow
HzEdMBsGA1UEAxMUQ2xpZW50MjM5NkNlcnQxZTA2YmEwggIiMA0GCSqGSIb3DQEB
AQUAA4ICDwAwggIKAoICAQCgwDYLJr0lbVSLtMpH/EegV1abQDUVF8g2YDnktv6J
w5hZNd731ERafoKbHx61VSXgoYjA6UzZqD5wrrbf1raN6ZP83GNcch9qzEUCgFqE
A0pyKWDRwTaFJlT5mYnhCYG2IXosFp71ESHUJnMn4SXOj5lUsb8vbt9WUxEKIWwr
qSkI3eVehvYAWgDzFxW+UWlF920Oo07FDxypCLYPEVfk6sIV/xLubmcvUdd9tDou
obDa7pkowopBz8rfT+3lK3Ne/Km/QVhqD0zfkqF5GD3JUjiqtVtl7dpnxRfbDEWM
3z9/GJfITYHuUN2+kwuek/SIjmkZE9U9nN2jamiRbbV6KKisg+sq26wlAkmQTqWt
J9EvC1EeLlI0VWx0xna+xG6X0cpW9klc+oC220jHgJ1+QwHuaLOcYsE8FaIix6HS
XCV3DHqvdHnRZ5iyk7b0j8g0x75pLKwwfRJXpbD4dOYzQA7K+wkpMkv/yuULtBCd
N4afc+aiHiKhyY6UmsFjbFtlmxWUiTWV1nQyNuUIKG8DBbgwi5Hqf4tzv7G82O/t
HgE6hXGJdTn/gqqy656dYBY6dtmXLq6I7BrZMSDUbxCr3pgWjyT+O7zAmciW14Jp
rm30lWhTy8u+3hhTWwH8K1wT7PuB8rncaetB/UEa1RPeL5ZU+VkupQSHYHHWy7De
OQIDAQABo4IBYzCCAV8wCQYDVR0TBAIwADAtBglghkgBhvhCAQ0EIBYeRWFzeS1S
U0EgR2VuZXJhdGVkIENlcnRpZmljYXRlMB0GA1UdDgQWBBQY21/2ZSLzrVtSTj+h
rKqxbWAIazCB4QYDVR0jBIHZMIHWgBQSzWAE0qCAnnDtxpm4eyzGUv0ZoaGBsqSB
rzCBrDELMAkGA1UEBhMCVVMxCzAJBgNVBAgTAk9IMREwDwYDVQQHEwhDb2x1bWJ1
czESMBAGA1UEChMJVmlraW5nVlBOMR0wGwYDVQQLExRNeU9yZ2FuaXphdGlvbmFs
VW5pdDEVMBMGA1UEAxMMVmlraW5nVlBOIENBMRAwDgYDVQQpEwdFYXN5UlNBMSEw
HwYJKoZIhvcNAQkBFhJtZUBteWhvc3QubXlkb21haW6CCQDPNYXugL8qPjATBgNV
HSUEDDAKBggrBgEFBQcDAjALBgNVHQ8EBAMCB4AwDQYJKoZIhvcNAQEEBQADggIB
ABbqrqoMKDZiy2oO3ajkedved4pjZQgnBFrVuDxnWfKLqQ3EkuiJ6WFSaDKWDj3P
x8f8XNYy4AnqiLuIinTFhEmc9rCEi9p29V5pjiqqsjpaCF2AQdNK4s67piNuAjUS
2XrStAZxbzcyLF+FanDxtUeh/Db3gGK0Osq27DKPiWpB+5q++RrrexMqRRYoocDL
AR+YpfFE9RfhRVYke+qauJDggMpyid2OgwbBBqiLdXXrhV05ADVhTSt4siJkYDB0
b7R/Q8OR1VlpNVOf6XJEAfDSXt+EAVE8gBtHnn7nnv85nx/RSCwtOBuYrmXGNdxa
feuu6+G00vE4titKsEqPwwRUf6eqzpVXocA/HErRb3TGrFKoss4oTvET/XwfJOYg
7f6olx8NNFtNOLxslUyus0Y9c+plR82NgrGleVqZFcsXIWNljSd7F8LOODInPxSo
wgglRhQ/99ZMnv51GlkmcHv17OJescW9X6ozBjg6EVdj7DUYGgjOxmBMFQRKm6+S
I5q2gR95Yaz5fpDBHPCkpTAhQONMWfw0JVJdoigEoL2gHD1i/sYi8g3f3OhLvDoa
99C0OhLRZOItLgGuZyvnUt8pe+EcI9PGmgDxIuqvH/VIsrlEACkGrUG7sYfeldfn
Tn+27oWnNDj3ugOVHQovqznHXOGXHhhbii634iFifced
-----END CERTIFICATE-----
