Certificate:
    Data:
        Version: 3 (0x2)
        Serial Number: 5360 (0x14f0)
    Signature Algorithm: md5WithRSAEncryption
        Issuer: C=US, ST=OH, L=Columbus, O=VikingVPN, OU=MyOrganizationalUnit, CN=VikingVPN CA/name=EasyRSA/emailAddress=me@myhost.mydomain
        Validity
            Not Before: May 23 01:03:05 2015 GMT
            Not After : May 20 01:03:05 2025 GMT
        Subject: CN=Client802Cert558c5c
        Subject Public Key Info:
            Public Key Algorithm: rsaEncryption
                Public-Key: (4096 bit)
                Modulus:
                    00:a4:a3:0f:bc:43:03:8b:12:ec:a7:1f:bd:f8:14:
                    64:0a:42:f6:9e:45:74:06:1e:08:1e:ba:89:6b:94:
                    4f:ab:a7:ea:5d:d3:0a:4d:a5:75:e7:47:7e:b4:77:
                    7b:5b:de:eb:16:ed:f3:8d:5b:31:4c:c5:5c:dd:85:
                    20:48:d6:1c:43:34:f3:78:c3:62:66:c0:68:01:88:
                    0a:9c:ef:ca:72:dd:8d:a5:b0:be:02:a3:3e:ec:6b:
                    31:eb:dd:69:4d:64:31:f2:16:8f:97:47:b9:42:de:
                    f4:87:ac:dd:51:86:51:89:6c:5f:49:9a:3e:e3:c9:
                    d5:e9:b3:bb:ac:5f:e4:7c:b3:bb:6a:90:37:7f:dd:
                    86:72:7f:b0:bc:4e:e8:19:d5:c9:29:5c:b7:92:94:
                    b4:b5:2a:d1:f0:e4:6e:4e:7f:44:b1:4e:2b:1c:be:
                    10:75:99:e1:93:24:08:61:76:e2:24:75:1a:ec:1b:
                    02:7d:d4:90:17:5c:84:8c:d8:51:13:a6:e1:62:25:
                    03:1e:2b:35:78:f0:76:25:1f:14:d6:30:cb:fd:14:
                    e8:d8:5b:46:82:fa:4f:3b:dc:0a:0c:de:9d:d2:50:
                    27:3a:2c:2e:c7:ab:25:fa:e9:53:88:b3:9d:28:97:
                    06:f7:bf:cc:c9:fc:0a:8f:59:ef:22:a8:d4:aa:0c:
                    0c:18:d8:39:3b:49:b7:94:a1:ad:8e:41:5c:a6:45:
                    47:d7:a4:1f:14:7f:c7:a5:07:7e:fa:4a:0f:86:3a:
                    e5:17:76:51:66:b4:95:73:3c:36:1c:83:37:61:56:
                    cc:de:7d:ea:81:d5:8c:84:60:38:c3:b7:a7:88:85:
                    c8:b0:dc:35:9d:80:35:b4:98:45:74:27:41:54:bd:
                    6a:12:c1:45:25:64:fb:bb:59:b7:2c:4d:1b:e2:ea:
                    55:d5:4d:2c:1b:97:16:2e:aa:ba:db:1e:6a:89:62:
                    f9:d0:ec:4e:cf:11:9d:a3:53:43:20:e0:f1:0c:21:
                    3d:ff:83:67:db:8e:96:70:46:10:05:e7:4b:77:68:
                    88:ec:e5:55:8d:05:09:11:26:a5:72:8e:06:08:e6:
                    ad:2d:54:f5:8c:9d:c8:0c:3d:eb:ea:02:99:cc:3f:
                    15:b7:c5:3c:61:93:ab:29:b8:b6:9c:a2:4f:cb:bb:
                    10:d4:aa:c8:e5:fc:de:7b:04:d6:16:5d:7d:6d:52:
                    53:3e:79:63:8c:29:d9:ae:03:a7:3d:c2:dd:aa:85:
                    f8:93:a1:6e:22:ba:25:b6:26:29:b9:ce:fc:f9:fa:
                    27:c5:a0:39:2e:b9:f8:99:08:56:bb:44:f6:54:bd:
                    8e:f8:32:51:0c:32:a6:26:24:16:de:72:7e:c5:57:
                    5b:8d:35
                Exponent: 65537 (0x10001)
        X509v3 extensions:
            X509v3 Basic Constraints: 
                CA:FALSE
            Netscape Comment: 
                Easy-RSA Generated Certificate
            X509v3 Subject Key Identifier: 
                C0:BA:F7:F9:A5:92:8A:20:9A:9B:C4:B2:27:1D:72:C4:44:2A:0D:80
            X509v3 Authority Key Identifier: 
                keyid:12:CD:60:04:D2:A0:80:9E:70:ED:C6:99:B8:7B:2C:C6:52:FD:19:A1
                DirName:/C=US/ST=OH/L=Columbus/O=VikingVPN/OU=MyOrganizationalUnit/CN=VikingVPN CA/name=EasyRSA/emailAddress=me@myhost.mydomain
                serial:CF:35:85:EE:80:BF:2A:3E

            X509v3 Extended Key Usage: 
                TLS Web Client Authentication
            X509v3 Key Usage: 
                Digital Signature
    Signature Algorithm: md5WithRSAEncryption
         26:9b:08:43:7c:a4:78:f5:c0:05:b5:05:36:0d:ab:11:85:92:
         5b:b4:af:75:28:6f:41:ba:1d:ef:c2:48:43:ff:b8:ee:1c:78:
         41:a2:d5:cc:96:67:43:9b:29:4d:e1:4d:97:c6:e5:21:1d:76:
         63:d3:06:f1:12:8f:65:ec:4d:6e:e2:2a:ee:92:c4:cf:96:e3:
         ec:e5:23:99:14:d8:33:53:93:ce:74:91:5c:6c:01:96:62:a2:
         ef:f5:85:21:9a:8f:85:19:6c:7c:c9:3b:a5:03:ce:0a:2d:71:
         e2:32:b8:27:25:5f:8c:de:3f:ef:66:62:09:20:27:d0:f1:c3:
         ba:04:10:7e:fa:e1:af:85:07:57:19:71:27:42:ca:fb:19:45:
         25:d7:3c:55:16:9a:35:c2:ab:f3:d3:37:12:f4:f9:fc:c5:0e:
         32:39:c4:c7:96:bb:f9:3d:87:96:fe:d2:d7:7e:fb:4b:7b:46:
         d3:7d:51:05:cb:87:da:05:64:ad:77:22:27:b8:08:19:97:c5:
         0a:e6:03:d9:c5:58:00:bb:25:af:19:b4:66:ff:52:80:85:4d:
         dd:40:2b:e0:15:2e:9c:49:b1:e6:81:90:1d:9a:e1:08:d4:83:
         74:1f:23:6d:58:c7:4b:6f:cd:fc:cb:cb:3d:29:1b:6d:f5:44:
         d5:e5:15:ae:9a:54:4e:16:32:5b:f4:a3:53:08:13:cd:d8:df:
         bf:8e:1d:2a:3f:a7:67:55:d5:15:40:1a:43:74:e9:9c:12:dd:
         c2:b7:c5:01:ef:36:48:39:90:bf:0f:c2:1c:31:00:80:e7:06:
         79:72:96:4d:f5:26:a3:df:4e:ce:79:16:bb:80:06:c9:a8:c0:
         78:10:61:42:8a:e5:1e:94:42:14:34:2c:5f:8c:ea:a3:15:f5:
         ca:d7:c4:e7:c8:e8:55:a8:69:45:0b:f6:be:ba:3a:c7:f9:eb:
         ca:2b:79:fc:96:5d:b7:b2:b0:e9:49:f1:9a:45:1b:da:c4:0d:
         01:28:d2:5f:a5:77:3d:11:63:e1:60:80:77:74:be:60:d1:ba:
         a7:6e:2c:60:43:a0:f1:9f:ee:d7:ff:2d:dc:11:79:15:1d:3f:
         2e:e3:d1:d9:cb:95:f6:03:6e:8b:b5:01:3d:0e:87:82:69:fa:
         76:9c:64:f8:82:8d:f5:e7:5a:7a:89:ec:55:b2:4c:2d:a2:52:
         25:54:da:91:2a:9a:29:16:3a:6f:6a:ef:9b:a5:5c:40:2f:0c:
         e2:15:d2:e0:44:38:a6:a6:10:7e:84:36:39:31:51:be:2c:09:
         12:05:b0:8f:8b:0a:a8:35:7e:f6:05:00:f8:48:4e:7c:ce:49:
         76:82:3d:6b:67:22:f9:88
-----BEGIN CERTIFICATE-----
MIIGrDCCBJSgAwIBAgICFPAwDQYJKoZIhvcNAQEEBQAwgawxCzAJBgNVBAYTAlVT
MQswCQYDVQQIEwJPSDERMA8GA1UEBxMIQ29sdW1idXMxEjAQBgNVBAoTCVZpa2lu
Z1ZQTjEdMBsGA1UECxMUTXlPcmdhbml6YXRpb25hbFVuaXQxFTATBgNVBAMTDFZp
a2luZ1ZQTiBDQTEQMA4GA1UEKRMHRWFzeVJTQTEhMB8GCSqGSIb3DQEJARYSbWVA
bXlob3N0Lm15ZG9tYWluMB4XDTE1MDUyMzAxMDMwNVoXDTI1MDUyMDAxMDMwNVow
HjEcMBoGA1UEAxMTQ2xpZW50ODAyQ2VydDU1OGM1YzCCAiIwDQYJKoZIhvcNAQEB
BQADggIPADCCAgoCggIBAKSjD7xDA4sS7KcfvfgUZApC9p5FdAYeCB66iWuUT6un
6l3TCk2ldedHfrR3e1ve6xbt841bMUzFXN2FIEjWHEM083jDYmbAaAGICpzvynLd
jaWwvgKjPuxrMevdaU1kMfIWj5dHuULe9Ies3VGGUYlsX0maPuPJ1emzu6xf5Hyz
u2qQN3/dhnJ/sLxO6BnVySlct5KUtLUq0fDkbk5/RLFOKxy+EHWZ4ZMkCGF24iR1
GuwbAn3UkBdchIzYUROm4WIlAx4rNXjwdiUfFNYwy/0U6NhbRoL6TzvcCgzendJQ
JzosLserJfrpU4iznSiXBve/zMn8Co9Z7yKo1KoMDBjYOTtJt5ShrY5BXKZFR9ek
HxR/x6UHfvpKD4Y65Rd2UWa0lXM8NhyDN2FWzN596oHVjIRgOMO3p4iFyLDcNZ2A
NbSYRXQnQVS9ahLBRSVk+7tZtyxNG+LqVdVNLBuXFi6qutseaoli+dDsTs8RnaNT
QyDg8QwhPf+DZ9uOlnBGEAXnS3doiOzlVY0FCREmpXKOBgjmrS1U9YydyAw96+oC
mcw/FbfFPGGTqym4tpyiT8u7ENSqyOX83nsE1hZdfW1SUz55Y4wp2a4Dpz3C3aqF
+JOhbiK6JbYmKbnO/Pn6J8WgOS65+JkIVrtE9lS9jvgyUQwypiYkFt5yfsVXW401
AgMBAAGjggFjMIIBXzAJBgNVHRMEAjAAMC0GCWCGSAGG+EIBDQQgFh5FYXN5LVJT
QSBHZW5lcmF0ZWQgQ2VydGlmaWNhdGUwHQYDVR0OBBYEFMC69/mlkoogmpvEsicd
csREKg2AMIHhBgNVHSMEgdkwgdaAFBLNYATSoICecO3Gmbh7LMZS/RmhoYGypIGv
MIGsMQswCQYDVQQGEwJVUzELMAkGA1UECBMCT0gxETAPBgNVBAcTCENvbHVtYnVz
MRIwEAYDVQQKEwlWaWtpbmdWUE4xHTAbBgNVBAsTFE15T3JnYW5pemF0aW9uYWxV
bml0MRUwEwYDVQQDEwxWaWtpbmdWUE4gQ0ExEDAOBgNVBCkTB0Vhc3lSU0ExITAf
BgkqhkiG9w0BCQEWEm1lQG15aG9zdC5teWRvbWFpboIJAM81he6Avyo+MBMGA1Ud
JQQMMAoGCCsGAQUFBwMCMAsGA1UdDwQEAwIHgDANBgkqhkiG9w0BAQQFAAOCAgEA
JpsIQ3ykePXABbUFNg2rEYWSW7SvdShvQbod78JIQ/+47hx4QaLVzJZnQ5spTeFN
l8blIR12Y9MG8RKPZexNbuIq7pLEz5bj7OUjmRTYM1OTznSRXGwBlmKi7/WFIZqP
hRlsfMk7pQPOCi1x4jK4JyVfjN4/72ZiCSAn0PHDugQQfvrhr4UHVxlxJ0LK+xlF
Jdc8VRaaNcKr89M3EvT5/MUOMjnEx5a7+T2Hlv7S1377S3tG031RBcuH2gVkrXci
J7gIGZfFCuYD2cVYALslrxm0Zv9SgIVN3UAr4BUunEmx5oGQHZrhCNSDdB8jbVjH
S2/N/MvLPSkbbfVE1eUVrppUThYyW/SjUwgTzdjfv44dKj+nZ1XVFUAaQ3TpnBLd
wrfFAe82SDmQvw/CHDEAgOcGeXKWTfUmo99OznkWu4AGyajAeBBhQorlHpRCFDQs
X4zqoxX1ytfE58joVahpRQv2vro6x/nryit5/JZdt7Kw6UnxmkUb2sQNASjSX6V3
PRFj4WCAd3S+YNG6p24sYEOg8Z/u1/8t3BF5FR0/LuPR2cuV9gNui7UBPQ6Hgmn6
dpxk+IKN9edaeonsVbJMLaJSJVTakSqaKRY6b2rvm6VcQC8M4hXS4EQ4pqYQfoQ2
OTFRviwJEgWwj4sKqDV+9gUA+EhOfM5JdoI9a2ci+Yg=
-----END CERTIFICATE-----
