Certificate:
    Data:
        Version: 3 (0x2)
        Serial Number: 874 (0x36a)
    Signature Algorithm: md5WithRSAEncryption
        Issuer: C=US, ST=OH, L=Columbus, O=VikingVPN, OU=MyOrganizationalUnit, CN=VikingVPN CA/name=EasyRSA/emailAddress=me@myhost.mydomain
        Validity
            Not Before: Jan 29 17:54:40 2014 GMT
            Not After : Jan 27 17:54:40 2024 GMT
        Subject: CN=Client339Certdf452b
        Subject Public Key Info:
            Public Key Algorithm: rsaEncryption
                Public-Key: (4096 bit)
                Modulus:
                    00:fa:6e:7a:fc:73:f7:c0:aa:ab:fc:f8:0a:b0:de:
                    66:66:79:b8:95:21:27:08:84:7f:5b:4a:ff:39:ac:
                    d4:04:38:ab:1c:89:0c:be:c4:35:f6:76:79:fc:f7:
                    b5:c1:e7:47:b9:28:18:c5:af:3c:c1:78:f9:47:f6:
                    d5:db:f2:7c:f3:b8:e5:60:de:c1:55:ca:85:77:88:
                    cc:b0:27:ab:a2:1b:d9:2e:5c:e5:e3:a5:73:c4:67:
                    47:26:e6:44:52:3c:bb:01:23:00:c9:de:50:c4:77:
                    fb:79:15:ae:3c:d8:ae:7f:22:27:2f:34:d0:55:0f:
                    ab:ed:3f:99:92:7e:ec:d0:21:c0:84:0d:be:d9:1c:
                    a6:c7:75:8b:e3:2f:9e:6d:75:b0:ca:8a:80:02:6e:
                    c8:46:e9:ca:f6:8b:23:48:8e:14:0e:1e:9b:95:20:
                    b2:09:eb:d0:71:74:60:b8:10:03:56:9c:94:6a:28:
                    c0:1b:ec:ce:c0:eb:a1:cc:7e:d3:80:a7:cf:48:c8:
                    34:fe:64:43:e8:24:f2:c5:ca:04:46:f6:51:a7:49:
                    96:5f:e7:38:77:57:aa:ff:b6:1e:78:67:d7:d5:7d:
                    13:a9:dc:e4:1d:74:ea:b6:87:7c:1f:6a:ac:ba:e4:
                    88:2c:48:10:7a:9d:28:07:64:92:18:41:22:66:9c:
                    5f:1c:d7:37:4b:40:ea:55:a5:99:bf:91:23:86:9e:
                    04:15:8b:fc:17:4e:e1:c0:e9:de:4e:01:47:08:9f:
                    c1:46:ee:c1:c3:a3:e3:39:6f:90:5a:63:2b:77:99:
                    2a:f9:19:23:0a:62:b0:3e:36:3b:6d:ae:7f:27:f0:
                    f8:fb:01:4d:cf:5f:d2:ef:cd:7d:00:c5:36:ae:80:
                    1a:08:d3:d4:13:c4:99:9a:b6:20:77:6e:97:91:84:
                    99:15:b9:d4:03:67:a8:e6:d0:99:38:e4:fd:aa:ec:
                    51:3b:44:ec:63:db:36:2c:ef:98:21:0f:52:5b:f9:
                    2a:e1:56:63:72:84:09:50:b4:ce:69:87:c3:d7:41:
                    26:c8:8c:bf:36:6e:46:d3:8b:c1:27:b5:e1:77:ea:
                    21:58:95:cf:16:c4:10:43:b9:b4:0a:08:ab:d2:93:
                    b9:dc:24:0e:0e:8e:5e:c9:48:6c:93:30:48:25:05:
                    97:c4:4c:db:96:64:98:c5:ae:9e:c6:1f:2a:b0:b7:
                    47:45:f4:85:5b:be:40:b2:d6:6f:2f:b0:40:07:38:
                    79:41:ce:ea:47:bf:2b:53:b6:98:45:4c:08:a7:19:
                    9a:2b:15:ef:ad:71:b0:d3:c1:0f:0c:7a:23:e8:f4:
                    89:dd:62:14:46:fd:50:77:a8:c6:ce:89:ba:e6:30:
                    42:9c:d1
                Exponent: 65537 (0x10001)
        X509v3 extensions:
            X509v3 Basic Constraints: 
                CA:FALSE
            Netscape Comment: 
                Easy-RSA Generated Certificate
            X509v3 Subject Key Identifier: 
                E8:88:76:79:C7:93:3F:53:5E:12:D9:A4:A6:93:92:0B:47:BE:14:E0
            X509v3 Authority Key Identifier: 
                keyid:12:CD:60:04:D2:A0:80:9E:70:ED:C6:99:B8:7B:2C:C6:52:FD:19:A1
                DirName:/C=US/ST=OH/L=Columbus/O=VikingVPN/OU=MyOrganizationalUnit/CN=VikingVPN CA/name=EasyRSA/emailAddress=me@myhost.mydomain
                serial:CF:35:85:EE:80:BF:2A:3E

            X509v3 Extended Key Usage: 
                TLS Web Client Authentication
            X509v3 Key Usage: 
                Digital Signature
    Signature Algorithm: md5WithRSAEncryption
         cd:34:9a:b5:df:66:c4:2b:f1:7d:90:dc:2a:08:de:e6:3a:44:
         09:d2:ea:c4:96:06:db:65:b3:b1:86:d8:5b:ed:c5:8a:84:e7:
         43:91:c8:00:4c:19:bd:f2:e4:c0:34:94:ef:96:f0:ae:3b:f9:
         95:07:15:52:32:4d:4d:50:9f:44:a0:94:f6:38:f7:90:60:a8:
         86:e1:b5:7d:16:89:db:3e:fb:3e:94:8e:37:0d:9f:81:6d:b5:
         1a:c8:8a:b1:bf:95:12:08:df:ba:85:38:5f:ea:ed:6a:97:75:
         bd:47:5b:0d:68:d1:e1:64:9c:d6:d6:d1:09:9f:e1:f6:0d:11:
         63:07:34:39:4b:82:97:40:4c:16:ea:3d:ed:8d:8b:c3:f0:d1:
         fa:cc:ba:2a:14:92:51:25:21:1c:2b:74:80:ee:d3:9c:68:48:
         d0:76:46:ee:1e:a5:85:b7:6b:51:c0:4e:c3:9d:62:ab:2e:8a:
         c2:59:8b:36:45:5b:06:62:4c:3c:dd:80:e3:16:dd:7d:1c:29:
         b9:a4:e9:60:2e:07:e2:03:c9:65:d5:c4:68:d7:98:07:73:0c:
         fb:13:d7:6f:ea:bd:2a:8d:e8:17:8f:ac:3f:1e:4a:7f:de:b0:
         46:65:87:2f:24:2d:1e:e3:f3:96:6c:10:60:65:3b:52:d0:9e:
         71:79:37:46:d8:e7:62:40:86:23:da:a1:20:98:52:47:72:8b:
         30:0f:ed:ee:f9:0f:46:0b:40:9f:4c:ee:2f:df:2d:13:ff:aa:
         48:a7:dd:cf:f6:02:bb:b6:1a:7a:60:8e:3b:12:04:68:ec:f3:
         dd:94:70:4c:a5:a5:08:80:67:f9:fa:2b:6b:d7:19:c9:07:83:
         09:47:3b:e5:23:37:3b:34:d6:76:5e:48:c5:e3:9d:1a:26:bd:
         0e:c0:59:24:be:76:16:de:bb:c0:23:35:b0:22:2c:76:e6:94:
         d4:3a:8a:f2:b5:4e:cc:4b:2e:84:80:dd:3e:45:8d:da:c5:97:
         8c:f2:16:3c:04:ff:bd:b0:52:28:db:28:e2:aa:bd:97:5e:dc:
         a2:e8:ba:6e:09:82:89:5d:82:d4:1a:4f:2d:96:b0:df:f5:42:
         a1:50:27:66:10:7f:e2:91:d5:81:94:d0:83:3b:a3:db:90:92:
         04:e2:d2:87:ed:26:72:73:20:1a:6c:36:f4:cb:b9:9f:f4:c0:
         42:cd:9c:d4:0e:0d:59:34:11:1a:1e:8a:e1:db:fe:04:b9:81:
         79:11:63:8a:1b:5e:62:0d:b6:77:89:c9:e8:47:25:09:8d:6f:
         27:ce:b3:b2:d6:30:8e:9e:86:69:d5:7b:5b:7f:f9:95:0c:35:
         cc:2f:c5:ef:cd:65:eb:c8
-----BEGIN CERTIFICATE-----
MIIGrDCCBJSgAwIBAgICA2owDQYJKoZIhvcNAQEEBQAwgawxCzAJBgNVBAYTAlVT
MQswCQYDVQQIEwJPSDERMA8GA1UEBxMIQ29sdW1idXMxEjAQBgNVBAoTCVZpa2lu
Z1ZQTjEdMBsGA1UECxMUTXlPcmdhbml6YXRpb25hbFVuaXQxFTATBgNVBAMTDFZp
a2luZ1ZQTiBDQTEQMA4GA1UEKRMHRWFzeVJTQTEhMB8GCSqGSIb3DQEJARYSbWVA
bXlob3N0Lm15ZG9tYWluMB4XDTE0MDEyOTE3NTQ0MFoXDTI0MDEyNzE3NTQ0MFow
HjEcMBoGA1UEAxMTQ2xpZW50MzM5Q2VydGRmNDUyYjCCAiIwDQYJKoZIhvcNAQEB
BQADggIPADCCAgoCggIBAPpuevxz98Cqq/z4CrDeZmZ5uJUhJwiEf1tK/zms1AQ4
qxyJDL7ENfZ2efz3tcHnR7koGMWvPMF4+Uf21dvyfPO45WDewVXKhXeIzLAnq6Ib
2S5c5eOlc8RnRybmRFI8uwEjAMneUMR3+3kVrjzYrn8iJy800FUPq+0/mZJ+7NAh
wIQNvtkcpsd1i+Mvnm11sMqKgAJuyEbpyvaLI0iOFA4em5Ugsgnr0HF0YLgQA1ac
lGoowBvszsDrocx+04Cnz0jINP5kQ+gk8sXKBEb2UadJll/nOHdXqv+2Hnhn19V9
E6nc5B106raHfB9qrLrkiCxIEHqdKAdkkhhBImacXxzXN0tA6lWlmb+RI4aeBBWL
/BdO4cDp3k4BRwifwUbuwcOj4zlvkFpjK3eZKvkZIwpisD42O22ufyfw+PsBTc9f
0u/NfQDFNq6AGgjT1BPEmZq2IHdul5GEmRW51ANnqObQmTjk/arsUTtE7GPbNizv
mCEPUlv5KuFWY3KECVC0zmmHw9dBJsiMvzZuRtOLwSe14XfqIViVzxbEEEO5tAoI
q9KTudwkDg6OXslIbJMwSCUFl8RM25ZkmMWunsYfKrC3R0X0hVu+QLLWby+wQAc4
eUHO6ke/K1O2mEVMCKcZmisV761xsNPBDwx6I+j0id1iFEb9UHeoxs6JuuYwQpzR
AgMBAAGjggFjMIIBXzAJBgNVHRMEAjAAMC0GCWCGSAGG+EIBDQQgFh5FYXN5LVJT
QSBHZW5lcmF0ZWQgQ2VydGlmaWNhdGUwHQYDVR0OBBYEFOiIdnnHkz9TXhLZpKaT
kgtHvhTgMIHhBgNVHSMEgdkwgdaAFBLNYATSoICecO3Gmbh7LMZS/RmhoYGypIGv
MIGsMQswCQYDVQQGEwJVUzELMAkGA1UECBMCT0gxETAPBgNVBAcTCENvbHVtYnVz
MRIwEAYDVQQKEwlWaWtpbmdWUE4xHTAbBgNVBAsTFE15T3JnYW5pemF0aW9uYWxV
bml0MRUwEwYDVQQDEwxWaWtpbmdWUE4gQ0ExEDAOBgNVBCkTB0Vhc3lSU0ExITAf
BgkqhkiG9w0BCQEWEm1lQG15aG9zdC5teWRvbWFpboIJAM81he6Avyo+MBMGA1Ud
JQQMMAoGCCsGAQUFBwMCMAsGA1UdDwQEAwIHgDANBgkqhkiG9w0BAQQFAAOCAgEA
zTSatd9mxCvxfZDcKgje5jpECdLqxJYG22WzsYbYW+3FioTnQ5HIAEwZvfLkwDSU
75bwrjv5lQcVUjJNTVCfRKCU9jj3kGCohuG1fRaJ2z77PpSONw2fgW21GsiKsb+V
EgjfuoU4X+rtapd1vUdbDWjR4WSc1tbRCZ/h9g0RYwc0OUuCl0BMFuo97Y2Lw/DR
+sy6KhSSUSUhHCt0gO7TnGhI0HZG7h6lhbdrUcBOw51iqy6KwlmLNkVbBmJMPN2A
4xbdfRwpuaTpYC4H4gPJZdXEaNeYB3MM+xPXb+q9Ko3oF4+sPx5Kf96wRmWHLyQt
HuPzlmwQYGU7UtCecXk3RtjnYkCGI9qhIJhSR3KLMA/t7vkPRgtAn0zuL98tE/+q
SKfdz/YCu7YaemCOOxIEaOzz3ZRwTKWlCIBn+fora9cZyQeDCUc75SM3OzTWdl5I
xeOdGia9DsBZJL52Ft67wCM1sCIsduaU1DqK8rVOzEsuhIDdPkWN2sWXjPIWPAT/
vbBSKNso4qq9l17coui6bgmCiV2C1BpPLZaw3/VCoVAnZhB/4pHVgZTQgzuj25CS
BOLSh+0mcnMgGmw29Mu5n/TAQs2c1A4NWTQRGh6K4dv+BLmBeRFjihteYg22d4nJ
6EclCY1vJ86zstYwjp6GadV7W3/5lQw1zC/F781l68g=
-----END CERTIFICATE-----
