Certificate:
    Data:
        Version: 3 (0x2)
        Serial Number: 10210 (0x27e2)
    Signature Algorithm: sha256WithRSAEncryption
        Issuer: C=US, ST=OH, L=Columbus, O=VikingVPN, OU=MyOrganizationalUnit, CN=VikingVPN CA/name=EasyRSA/emailAddress=me@myhost.mydomain
        Validity
            Not Before: Feb 28 03:47:07 2017 GMT
            Not After : Feb 26 03:47:07 2027 GMT
        Subject: CN=Client2641Cert136171
        Subject Public Key Info:
            Public Key Algorithm: rsaEncryption
                Public-Key: (4096 bit)
                Modulus:
                    00:9c:67:5f:2a:37:8f:5e:ba:f8:6d:c2:88:c8:ae:
                    1b:08:0d:32:f7:d6:41:c8:2a:1d:f3:c4:35:d1:03:
                    d4:6a:53:08:c6:11:51:71:f0:e3:40:9c:47:32:cf:
                    dc:34:fe:7e:3c:f3:56:e7:a5:73:af:2e:94:e8:96:
                    c1:14:c3:ac:65:51:e5:b9:bc:e9:7a:f5:f4:8e:64:
                    fd:a3:8c:d0:af:c3:e3:e8:43:43:a8:05:41:d9:a5:
                    51:4b:f1:d8:a4:54:b5:91:a1:bf:77:79:3b:79:30:
                    6f:52:5d:95:f8:47:0a:aa:0d:aa:a5:0f:b6:ee:55:
                    a7:f5:eb:60:43:b0:31:19:3b:c2:af:f3:80:5b:41:
                    40:95:64:2d:77:c5:6d:57:50:1c:ff:69:6e:6d:53:
                    0d:53:8e:a0:1e:b3:7d:41:7c:a1:eb:98:6b:cf:65:
                    c3:20:12:5e:a9:37:51:0a:40:83:36:2f:d3:67:c7:
                    25:79:b6:55:c2:ca:f6:33:cf:a7:20:23:af:ac:78:
                    17:82:4a:50:e4:83:87:f4:1e:52:d1:32:de:c7:3c:
                    7f:28:0c:10:1f:1e:b9:5c:a8:6e:e1:71:9b:7e:82:
                    05:88:41:43:69:5b:f4:fb:fa:c5:8a:94:63:71:76:
                    0f:e7:47:15:22:15:e2:c8:82:09:f6:51:c9:5b:a2:
                    3e:0e:43:53:8f:9a:37:35:34:88:b8:75:94:c6:94:
                    11:bf:3e:d5:db:84:91:ab:8e:c6:17:80:06:d1:65:
                    13:ff:94:c9:8f:38:7b:ea:8b:32:04:46:83:37:18:
                    70:5b:17:85:ac:da:85:9e:13:77:fc:06:62:71:89:
                    0a:b9:d5:33:c9:3e:5a:f7:fd:ca:16:d7:d9:85:6f:
                    ac:3d:13:e0:60:f2:a7:7d:f0:6e:79:1a:1a:c8:38:
                    4d:7c:61:35:c0:64:c6:85:cb:1a:fd:1f:a8:0e:c4:
                    3f:ca:3e:b4:91:91:3c:12:a3:37:4d:3b:95:b6:42:
                    96:80:d2:6f:55:15:68:5b:71:74:e0:b5:42:78:1e:
                    55:fd:24:42:9d:71:95:89:36:24:43:9c:d2:83:87:
                    b4:1d:f5:d9:09:26:68:c0:5f:36:c7:ea:14:3e:4e:
                    09:01:17:e4:8b:6c:76:b4:bd:62:cc:2d:9f:50:de:
                    30:b1:65:8f:56:e0:a9:35:dd:c0:bb:c5:c9:e0:af:
                    a8:d0:b2:91:c4:18:4f:b9:c8:1d:b4:ec:3f:db:e4:
                    5d:d7:4c:53:a9:84:bf:a9:ca:f3:83:69:c1:b5:cb:
                    c7:ff:be:4b:da:3a:f6:bd:89:ef:34:76:87:56:f3:
                    ae:21:32:1b:af:38:81:51:14:74:03:5b:ec:a8:2b:
                    39:40:a3
                Exponent: 65537 (0x10001)
        X509v3 extensions:
            X509v3 Basic Constraints: 
                CA:FALSE
            Netscape Comment: 
                Easy-RSA Generated Certificate
            X509v3 Subject Key Identifier: 
                BB:6D:47:D9:67:29:A7:F6:00:5C:13:F1:C6:73:EB:02:B1:73:A0:09
            X509v3 Authority Key Identifier: 
                keyid:12:CD:60:04:D2:A0:80:9E:70:ED:C6:99:B8:7B:2C:C6:52:FD:19:A1
                DirName:/C=US/ST=OH/L=Columbus/O=VikingVPN/OU=MyOrganizationalUnit/CN=VikingVPN CA/name=EasyRSA/emailAddress=me@myhost.mydomain
                serial:CF:35:85:EE:80:BF:2A:3E

            X509v3 Extended Key Usage: 
                TLS Web Client Authentication
            X509v3 Key Usage: 
                Digital Signature
    Signature Algorithm: sha256WithRSAEncryption
         93:96:87:84:c9:41:dc:77:7f:93:b7:c9:45:70:b9:24:04:26:
         13:3e:b1:bd:73:0e:36:f3:d0:71:79:15:e5:6a:8e:ae:2b:43:
         5d:7b:eb:4d:6f:d7:74:47:ad:34:9f:49:c5:be:c8:ac:a0:21:
         3c:df:04:db:c8:94:29:3a:b5:29:5e:e2:97:98:54:06:92:06:
         cd:a9:3b:87:b4:1d:c8:f3:90:43:19:c0:23:e7:52:3d:26:92:
         3f:d0:d6:52:09:84:1f:ed:3e:32:70:5f:55:9d:1f:e1:42:df:
         26:7a:71:5f:61:47:07:56:9f:8c:5d:f3:d7:1b:97:1d:1d:9f:
         d9:1e:b9:77:5b:7d:96:76:d8:53:6e:c2:84:5e:43:6c:9a:10:
         84:3b:03:10:65:a4:e5:ba:af:c1:55:ff:d1:74:6d:3a:0b:79:
         d3:92:49:ad:6b:9a:d9:a9:c2:55:b5:f0:25:ba:de:c4:f2:6a:
         15:a4:86:08:04:9d:0a:27:f8:c7:e8:27:65:46:d3:09:36:ee:
         06:3b:f2:64:bd:6d:30:98:a7:0a:1e:84:97:df:af:8b:f2:74:
         06:6c:46:03:04:46:93:9b:dc:c6:59:c3:7a:ea:51:c3:c3:c5:
         95:21:67:cf:08:4f:3d:a3:e0:93:d5:93:33:01:f4:88:eb:73:
         55:5a:2c:08:a7:3a:14:39:55:fd:df:48:9c:b5:1a:42:33:23:
         4f:5a:0f:71:5a:0b:9d:b0:bf:82:be:d1:20:55:46:c9:27:4a:
         2a:e6:13:a0:2e:89:76:e3:0d:94:0e:ab:aa:3f:12:09:24:68:
         59:b1:f3:4f:7f:09:9a:ba:21:ce:3f:8d:96:e6:41:e0:48:95:
         46:86:d1:ff:dc:23:35:d5:bb:8e:6c:de:04:a2:93:f8:67:6b:
         cb:32:0f:84:29:ed:be:82:f0:88:78:af:d3:8e:7e:8f:6d:e8:
         3b:8f:21:30:41:f8:91:80:cc:bf:55:31:79:95:e6:ea:05:0a:
         4e:6c:b7:6e:d2:1f:da:b5:f3:b7:17:8b:f7:58:8d:3d:c4:bd:
         45:c2:df:72:08:2b:da:6d:87:9f:5b:cb:12:59:e8:b2:ef:ba:
         a7:03:8e:e6:63:b4:d4:6a:18:f3:41:f3:e7:22:2f:58:e5:b4:
         f4:73:b7:33:8b:3e:83:8d:85:87:38:c1:c0:88:4b:ed:6f:79:
         3e:c9:d9:47:0a:d5:0e:53:75:0f:e9:00:07:0a:d6:55:14:bf:
         e2:3b:91:18:88:6b:71:95:e9:45:4e:5e:25:16:15:19:4a:0f:
         bc:57:a7:f6:67:01:f9:f7:94:d8:3d:79:5b:fc:a9:02:87:3d:
         75:b6:6f:e4:7c:35:7f:c7
-----BEGIN CERTIFICATE-----
MIIGrTCCBJWgAwIBAgICJ+IwDQYJKoZIhvcNAQELBQAwgawxCzAJBgNVBAYTAlVT
MQswCQYDVQQIEwJPSDERMA8GA1UEBxMIQ29sdW1idXMxEjAQBgNVBAoTCVZpa2lu
Z1ZQTjEdMBsGA1UECxMUTXlPcmdhbml6YXRpb25hbFVuaXQxFTATBgNVBAMTDFZp
a2luZ1ZQTiBDQTEQMA4GA1UEKRMHRWFzeVJTQTEhMB8GCSqGSIb3DQEJARYSbWVA
bXlob3N0Lm15ZG9tYWluMB4XDTE3MDIyODAzNDcwN1oXDTI3MDIyNjAzNDcwN1ow
HzEdMBsGA1UEAxMUQ2xpZW50MjY0MUNlcnQxMzYxNzEwggIiMA0GCSqGSIb3DQEB
AQUAA4ICDwAwggIKAoICAQCcZ18qN49euvhtwojIrhsIDTL31kHIKh3zxDXRA9Rq
UwjGEVFx8ONAnEcyz9w0/n4881bnpXOvLpTolsEUw6xlUeW5vOl69fSOZP2jjNCv
w+PoQ0OoBUHZpVFL8dikVLWRob93eTt5MG9SXZX4RwqqDaqlD7buVaf162BDsDEZ
O8Kv84BbQUCVZC13xW1XUBz/aW5tUw1TjqAes31BfKHrmGvPZcMgEl6pN1EKQIM2
L9NnxyV5tlXCyvYzz6cgI6+seBeCSlDkg4f0HlLRMt7HPH8oDBAfHrlcqG7hcZt+
ggWIQUNpW/T7+sWKlGNxdg/nRxUiFeLIggn2Uclboj4OQ1OPmjc1NIi4dZTGlBG/
PtXbhJGrjsYXgAbRZRP/lMmPOHvqizIERoM3GHBbF4Ws2oWeE3f8BmJxiQq51TPJ
Plr3/coW19mFb6w9E+Bg8qd98G55GhrIOE18YTXAZMaFyxr9H6gOxD/KPrSRkTwS
ozdNO5W2QpaA0m9VFWhbcXTgtUJ4HlX9JEKdcZWJNiRDnNKDh7Qd9dkJJmjAXzbH
6hQ+TgkBF+SLbHa0vWLMLZ9Q3jCxZY9W4Kk13cC7xcngr6jQspHEGE+5yB207D/b
5F3XTFOphL+pyvODacG1y8f/vkvaOva9ie80dodW864hMhuvOIFRFHQDW+yoKzlA
owIDAQABo4IBYzCCAV8wCQYDVR0TBAIwADAtBglghkgBhvhCAQ0EIBYeRWFzeS1S
U0EgR2VuZXJhdGVkIENlcnRpZmljYXRlMB0GA1UdDgQWBBS7bUfZZymn9gBcE/HG
c+sCsXOgCTCB4QYDVR0jBIHZMIHWgBQSzWAE0qCAnnDtxpm4eyzGUv0ZoaGBsqSB
rzCBrDELMAkGA1UEBhMCVVMxCzAJBgNVBAgTAk9IMREwDwYDVQQHEwhDb2x1bWJ1
czESMBAGA1UEChMJVmlraW5nVlBOMR0wGwYDVQQLExRNeU9yZ2FuaXphdGlvbmFs
VW5pdDEVMBMGA1UEAxMMVmlraW5nVlBOIENBMRAwDgYDVQQpEwdFYXN5UlNBMSEw
HwYJKoZIhvcNAQkBFhJtZUBteWhvc3QubXlkb21haW6CCQDPNYXugL8qPjATBgNV
HSUEDDAKBggrBgEFBQcDAjALBgNVHQ8EBAMCB4AwDQYJKoZIhvcNAQELBQADggIB
AJOWh4TJQdx3f5O3yUVwuSQEJhM+sb1zDjbz0HF5FeVqjq4rQ117601v13RHrTSf
ScW+yKygITzfBNvIlCk6tSle4peYVAaSBs2pO4e0HcjzkEMZwCPnUj0mkj/Q1lIJ
hB/tPjJwX1WdH+FC3yZ6cV9hRwdWn4xd89cblx0dn9keuXdbfZZ22FNuwoReQ2ya
EIQ7AxBlpOW6r8FV/9F0bToLedOSSa1rmtmpwlW18CW63sTyahWkhggEnQon+Mfo
J2VG0wk27gY78mS9bTCYpwoehJffr4vydAZsRgMERpOb3MZZw3rqUcPDxZUhZ88I
Tz2j4JPVkzMB9Ijrc1VaLAinOhQ5Vf3fSJy1GkIzI09aD3FaC52wv4K+0SBVRskn
SirmE6AuiXbjDZQOq6o/EgkkaFmx809/CZq6Ic4/jZbmQeBIlUaG0f/cIzXVu45s
3gSik/hna8syD4Qp7b6C8Ih4r9OOfo9t6DuPITBB+JGAzL9VMXmV5uoFCk5st27S
H9q187cXi/dYjT3EvUXC33IIK9pth59byxJZ6LLvuqcDjuZjtNRqGPNB8+ciL1jl
tPRztzOLPoONhYc4wcCIS+1veT7J2UcK1Q5TdQ/pAAcK1lUUv+I7kRiIa3GV6UVO
XiUWFRlKD7xXp/ZnAfn3lNg9eVv8qQKHPXW2b+R8NX/H
-----END CERTIFICATE-----
