Certificate:
    Data:
        Version: 3 (0x2)
        Serial Number: 4884 (0x1314)
    Signature Algorithm: md5WithRSAEncryption
        Issuer: C=US, ST=OH, L=Columbus, O=VikingVPN, OU=MyOrganizationalUnit, CN=VikingVPN CA/name=EasyRSA/emailAddress=me@myhost.mydomain
        Validity
            Not Before: Apr  4 02:29:17 2015 GMT
            Not After : Apr  1 02:29:17 2025 GMT
        Subject: CN=Client1591Cert6b4138
        Subject Public Key Info:
            Public Key Algorithm: rsaEncryption
                Public-Key: (4096 bit)
                Modulus:
                    00:ba:85:e5:f7:91:ca:7c:f0:32:5e:60:24:1f:aa:
                    86:47:5f:0f:23:a6:53:fc:37:92:8d:7b:1b:71:e8:
                    60:d5:66:1d:d4:34:87:4e:a0:af:49:a7:55:99:16:
                    5f:ec:12:28:46:f8:c7:d2:97:ff:83:27:12:24:bd:
                    25:cd:e1:ef:4d:2f:86:a6:b4:99:88:f3:3c:07:dd:
                    69:3f:ee:6a:80:99:72:96:01:9d:1d:29:02:0b:b0:
                    8e:54:c4:f7:c2:08:12:24:ed:5b:a3:71:18:dd:c9:
                    d5:bc:9e:da:ae:47:58:73:68:5c:aa:9f:2a:f3:6d:
                    a9:30:0a:9a:64:66:54:fd:c3:8c:70:42:ae:32:a9:
                    47:58:ef:e7:95:31:0a:70:da:f0:f3:bf:5d:80:12:
                    66:f2:73:ba:db:d5:03:1c:fa:d8:0e:42:64:f4:ce:
                    c6:a2:e2:a7:a1:77:74:cf:53:ae:a0:0b:88:f5:1f:
                    b8:8f:a2:36:47:ac:b1:e8:09:77:0a:d0:05:5e:dc:
                    ee:fa:d8:28:b4:a1:a7:d6:ae:cb:12:ca:40:58:58:
                    bb:96:2e:d2:2e:9e:18:f1:39:58:39:2d:10:f1:1d:
                    d6:44:06:29:09:73:a3:44:68:df:f6:e1:78:b4:e5:
                    2d:34:78:1f:30:31:73:18:a0:e7:4f:0e:ba:46:9f:
                    f3:59:a7:b4:38:f1:1d:16:1e:37:23:22:b5:3c:24:
                    36:98:dc:73:11:a4:26:84:9d:16:9e:47:fc:3d:c9:
                    43:98:76:d2:c0:1a:de:ef:8a:7f:7f:f4:4d:04:a3:
                    4e:90:7e:38:09:18:d3:da:77:63:e3:ff:b0:e2:fa:
                    c3:8d:b3:e3:9b:75:e6:5b:66:5a:d6:92:55:15:d8:
                    5b:5b:b8:aa:3f:35:db:74:ba:13:56:a4:74:66:17:
                    aa:5c:3a:4f:3d:78:35:c7:1b:32:bb:87:2b:dc:56:
                    17:24:96:ca:06:cd:e1:76:d8:89:62:8a:46:7d:0f:
                    5a:eb:36:64:17:b2:23:70:ce:36:a1:6f:d9:bc:13:
                    e4:13:e4:a2:14:6c:0b:41:88:52:10:28:db:7e:6e:
                    06:dd:6b:fb:00:f6:62:40:12:b6:70:12:41:72:8c:
                    70:fc:19:3c:f7:4b:6d:f1:7e:a8:6d:6e:d6:0d:98:
                    0c:47:6b:4d:22:a2:1c:40:08:50:52:f0:86:ee:c0:
                    05:73:4c:34:35:d6:bb:e1:22:64:91:38:5a:6b:52:
                    6e:0f:04:82:9f:69:c6:4c:5f:f7:ff:55:fa:e3:7e:
                    14:11:86:87:62:b0:27:4a:cf:4f:2c:f3:0d:1c:1f:
                    3e:8b:34:4d:f9:a7:23:0f:68:75:68:ca:98:dd:31:
                    98:48:19
                Exponent: 65537 (0x10001)
        X509v3 extensions:
            X509v3 Basic Constraints: 
                CA:FALSE
            Netscape Comment: 
                Easy-RSA Generated Certificate
            X509v3 Subject Key Identifier: 
                A1:45:CD:FC:EC:AF:AC:E2:12:89:67:E7:F3:29:EB:FE:EA:F9:8E:52
            X509v3 Authority Key Identifier: 
                keyid:12:CD:60:04:D2:A0:80:9E:70:ED:C6:99:B8:7B:2C:C6:52:FD:19:A1
                DirName:/C=US/ST=OH/L=Columbus/O=VikingVPN/OU=MyOrganizationalUnit/CN=VikingVPN CA/name=EasyRSA/emailAddress=me@myhost.mydomain
                serial:CF:35:85:EE:80:BF:2A:3E

            X509v3 Extended Key Usage: 
                TLS Web Client Authentication
            X509v3 Key Usage: 
                Digital Signature
    Signature Algorithm: md5WithRSAEncryption
         d3:ba:58:9f:c7:6b:5c:f8:c0:a1:6e:1b:88:00:9f:37:a5:bc:
         b5:43:5c:a3:8f:05:c4:ee:49:3c:30:da:36:41:c1:ff:86:d8:
         72:98:b6:51:9a:7c:f5:39:d5:52:48:f3:10:81:26:29:8d:78:
         88:84:ad:3e:e2:5f:7d:0a:09:aa:fd:31:a2:19:4c:e2:d9:71:
         38:77:87:7b:2d:ef:c0:c6:a6:52:79:a9:4d:e7:af:48:24:c1:
         1a:8b:ad:3a:9c:cf:b4:63:1a:8b:79:36:2f:2e:90:71:30:1c:
         a4:06:4f:d2:99:38:f9:22:7e:0a:8e:31:2a:c8:c1:db:9e:be:
         d8:0a:e9:82:39:6e:68:18:da:e0:28:b7:c5:f7:75:32:ca:14:
         fa:2d:fe:dc:e9:41:59:83:f1:03:ed:c8:2a:d2:c2:44:30:a8:
         eb:c4:61:ce:ea:0e:3f:89:41:0d:19:c4:84:12:4a:63:bc:90:
         90:3e:9c:7c:5c:84:e7:e5:a1:8a:17:70:79:3f:b6:74:87:e6:
         fa:74:e8:1b:0f:7d:d6:52:e7:97:50:ef:b7:e3:10:a6:5d:54:
         2c:c4:54:d6:0d:91:7f:78:94:1f:7e:aa:33:91:93:3c:6b:7f:
         5a:40:43:c0:58:34:f9:67:07:7d:97:dc:be:4e:f7:73:62:ef:
         dd:b7:e4:eb:60:70:4f:2b:10:99:69:47:10:05:f1:12:54:ad:
         6e:16:38:ba:22:e3:3d:88:a3:3d:63:12:2f:75:fc:f9:b8:b1:
         aa:32:56:0a:5f:7a:c8:53:51:2b:53:6c:4e:03:02:95:07:d8:
         bc:e3:13:d9:bc:f5:6e:87:5e:47:6c:f6:54:b4:58:bb:ac:15:
         16:3f:db:aa:a1:79:66:6c:16:8d:67:58:eb:df:a4:c0:d2:82:
         55:66:3c:e3:43:91:59:a7:b4:ed:6b:5b:89:e0:21:5a:3a:b9:
         75:25:f6:93:46:b6:7f:43:b4:39:cd:e7:47:68:09:1f:3b:48:
         ec:a8:2a:e9:c3:8b:01:53:dd:6d:d8:fb:8f:8d:0f:62:48:a2:
         8e:e7:cf:72:95:42:5d:0e:9c:9b:d1:ea:ff:d3:77:1b:ac:8d:
         b6:39:ff:2c:95:be:e6:89:a5:03:cd:26:5e:63:67:73:7b:2e:
         d2:ff:2d:4d:8e:b1:b5:f3:0a:8d:3b:94:fa:3f:66:33:e0:a4:
         e0:32:be:d5:85:8a:af:2c:3a:b4:89:27:e0:d6:25:06:9f:d1:
         d5:d1:66:b3:fb:80:e6:3a:a4:b4:99:ec:93:e2:6d:51:d8:ba:
         f3:3a:05:d4:7d:6b:c3:0b:a6:89:4c:fe:c7:48:01:20:c6:62:
         c3:05:82:31:0c:9e:20:54
-----BEGIN CERTIFICATE-----
MIIGrTCCBJWgAwIBAgICExQwDQYJKoZIhvcNAQEEBQAwgawxCzAJBgNVBAYTAlVT
MQswCQYDVQQIEwJPSDERMA8GA1UEBxMIQ29sdW1idXMxEjAQBgNVBAoTCVZpa2lu
Z1ZQTjEdMBsGA1UECxMUTXlPcmdhbml6YXRpb25hbFVuaXQxFTATBgNVBAMTDFZp
a2luZ1ZQTiBDQTEQMA4GA1UEKRMHRWFzeVJTQTEhMB8GCSqGSIb3DQEJARYSbWVA
bXlob3N0Lm15ZG9tYWluMB4XDTE1MDQwNDAyMjkxN1oXDTI1MDQwMTAyMjkxN1ow
HzEdMBsGA1UEAxMUQ2xpZW50MTU5MUNlcnQ2YjQxMzgwggIiMA0GCSqGSIb3DQEB
AQUAA4ICDwAwggIKAoICAQC6heX3kcp88DJeYCQfqoZHXw8jplP8N5KNextx6GDV
Zh3UNIdOoK9Jp1WZFl/sEihG+MfSl/+DJxIkvSXN4e9NL4amtJmI8zwH3Wk/7mqA
mXKWAZ0dKQILsI5UxPfCCBIk7VujcRjdydW8ntquR1hzaFyqnyrzbakwCppkZlT9
w4xwQq4yqUdY7+eVMQpw2vDzv12AEmbyc7rb1QMc+tgOQmT0zsai4qehd3TPU66g
C4j1H7iPojZHrLHoCXcK0AVe3O762Ci0oafWrssSykBYWLuWLtIunhjxOVg5LRDx
HdZEBikJc6NEaN/24Xi05S00eB8wMXMYoOdPDrpGn/NZp7Q48R0WHjcjIrU8JDaY
3HMRpCaEnRaeR/w9yUOYdtLAGt7vin9/9E0Eo06QfjgJGNPad2Pj/7Di+sONs+Ob
deZbZlrWklUV2FtbuKo/Ndt0uhNWpHRmF6pcOk89eDXHGzK7hyvcVhcklsoGzeF2
2IliikZ9D1rrNmQXsiNwzjahb9m8E+QT5KIUbAtBiFIQKNt+bgbda/sA9mJAErZw
EkFyjHD8GTz3S23xfqhtbtYNmAxHa00iohxACFBS8IbuwAVzTDQ11rvhImSROFpr
Um4PBIKfacZMX/f/VfrjfhQRhodisCdKz08s8w0cHz6LNE35pyMPaHVoypjdMZhI
GQIDAQABo4IBYzCCAV8wCQYDVR0TBAIwADAtBglghkgBhvhCAQ0EIBYeRWFzeS1S
U0EgR2VuZXJhdGVkIENlcnRpZmljYXRlMB0GA1UdDgQWBBShRc387K+s4hKJZ+fz
Kev+6vmOUjCB4QYDVR0jBIHZMIHWgBQSzWAE0qCAnnDtxpm4eyzGUv0ZoaGBsqSB
rzCBrDELMAkGA1UEBhMCVVMxCzAJBgNVBAgTAk9IMREwDwYDVQQHEwhDb2x1bWJ1
czESMBAGA1UEChMJVmlraW5nVlBOMR0wGwYDVQQLExRNeU9yZ2FuaXphdGlvbmFs
VW5pdDEVMBMGA1UEAxMMVmlraW5nVlBOIENBMRAwDgYDVQQpEwdFYXN5UlNBMSEw
HwYJKoZIhvcNAQkBFhJtZUBteWhvc3QubXlkb21haW6CCQDPNYXugL8qPjATBgNV
HSUEDDAKBggrBgEFBQcDAjALBgNVHQ8EBAMCB4AwDQYJKoZIhvcNAQEEBQADggIB
ANO6WJ/Ha1z4wKFuG4gAnzelvLVDXKOPBcTuSTww2jZBwf+G2HKYtlGafPU51VJI
8xCBJimNeIiErT7iX30KCar9MaIZTOLZcTh3h3st78DGplJ5qU3nr0gkwRqLrTqc
z7RjGot5Ni8ukHEwHKQGT9KZOPkifgqOMSrIwduevtgK6YI5bmgY2uAot8X3dTLK
FPot/tzpQVmD8QPtyCrSwkQwqOvEYc7qDj+JQQ0ZxIQSSmO8kJA+nHxchOfloYoX
cHk/tnSH5vp06BsPfdZS55dQ77fjEKZdVCzEVNYNkX94lB9+qjORkzxrf1pAQ8BY
NPlnB32X3L5O93Ni79235OtgcE8rEJlpRxAF8RJUrW4WOLoi4z2Ioz1jEi91/Pm4
saoyVgpfeshTUStTbE4DApUH2LzjE9m89W6HXkds9lS0WLusFRY/26qheWZsFo1n
WOvfpMDSglVmPONDkVmntO1rW4ngIVo6uXUl9pNGtn9DtDnN50doCR87SOyoKunD
iwFT3W3Y+4+ND2JIoo7nz3KVQl0OnJvR6v/TdxusjbY5/yyVvuaJpQPNJl5jZ3N7
LtL/LU2OsbXzCo07lPo/ZjPgpOAyvtWFiq8sOrSJJ+DWJQaf0dXRZrP7gOY6pLSZ
7JPibVHYuvM6BdR9a8MLpolM/sdIASDGYsMFgjEMniBU
-----END CERTIFICATE-----
