Certificate:
    Data:
        Version: 3 (0x2)
        Serial Number: 10513 (0x2911)
    Signature Algorithm: sha256WithRSAEncryption
        Issuer: C=US, ST=OH, L=Columbus, O=VikingVPN, OU=MyOrganizationalUnit, CN=VikingVPN CA/name=EasyRSA/emailAddress=me@myhost.mydomain
        Validity
            Not Before: Apr  2 21:19:13 2017 GMT
            Not After : Mar 31 21:19:13 2027 GMT
        Subject: CN=Client2824Cert2f8aca
        Subject Public Key Info:
            Public Key Algorithm: rsaEncryption
                Public-Key: (4096 bit)
                Modulus:
                    00:97:8e:c3:1c:2e:8d:44:f1:66:f5:2f:90:bf:6b:
                    2c:87:7a:9d:01:1f:9e:bc:11:b6:78:97:b7:a3:6f:
                    fb:89:4b:21:5d:bf:bb:7d:db:ed:07:21:7c:be:6d:
                    88:7a:38:8e:df:ea:8e:c4:78:aa:d8:00:da:2a:2b:
                    92:f0:ef:97:e4:d3:c9:cd:ec:88:df:44:93:76:a6:
                    50:8e:10:46:ce:2d:e8:3b:bf:ed:36:e4:e4:13:fe:
                    82:80:c4:74:0e:57:a8:18:48:d3:cb:bd:91:4a:45:
                    9d:64:05:68:3d:d9:07:98:86:bb:43:d7:64:ff:3f:
                    64:dd:5e:ee:ac:af:75:a1:05:c7:82:b4:ce:04:18:
                    29:16:36:c5:9d:bb:ab:f6:73:1f:18:7c:7e:7c:ff:
                    10:66:87:d2:fa:39:00:70:5d:cd:86:1c:1d:1c:fc:
                    ff:22:af:7a:0f:54:55:7d:a5:24:ab:f2:97:d4:76:
                    ee:d9:5b:2f:54:e9:23:5d:3b:fb:4b:b8:4c:6e:9c:
                    0b:72:8f:aa:c8:d0:c7:63:0f:a2:a3:11:19:65:a5:
                    9d:db:be:fc:cd:e0:8e:79:ad:6b:8a:f5:14:5a:53:
                    59:ae:a2:3a:95:aa:96:27:3f:78:9b:97:66:aa:07:
                    0e:6a:38:e2:e5:b4:33:44:39:b9:ea:f2:3c:06:91:
                    7c:5a:fc:88:d6:ae:38:b9:c4:d2:1f:cb:6a:28:b3:
                    f3:29:6a:1d:0a:46:1d:71:1a:06:ce:d7:57:b9:b5:
                    87:05:f4:71:1e:2f:bf:75:32:77:10:32:5e:ec:8f:
                    af:37:4f:24:84:ec:f5:a9:c5:1c:2b:16:89:11:03:
                    86:3c:26:8d:a1:7d:87:45:59:4d:6f:cb:5e:3a:16:
                    21:5a:8c:cc:64:45:5a:a7:fb:73:17:92:76:6e:f0:
                    52:b4:02:83:2b:66:7b:31:a9:b2:00:9f:4c:20:e4:
                    82:07:f0:c5:a8:35:26:36:93:6c:02:7f:e6:dd:58:
                    35:e2:c5:31:de:b1:4d:40:f3:03:b7:5e:61:49:89:
                    87:f8:c5:1b:f7:bb:a7:72:bf:50:5e:31:27:73:f6:
                    19:be:78:c3:18:b0:35:5e:f8:3c:4f:6e:03:85:9b:
                    87:b2:fd:78:8a:59:f2:2a:8c:30:d4:4c:81:be:bd:
                    cf:de:fe:9f:65:3d:ec:07:39:5f:35:9f:54:7c:f3:
                    f6:ca:28:cb:a7:58:69:e1:32:95:4d:63:16:5d:30:
                    eb:15:43:32:ee:a6:7a:9e:93:fc:02:84:56:c5:44:
                    18:c2:4b:1d:e9:f9:69:f2:e9:8c:ae:68:a5:e4:82:
                    b9:14:7a:8e:1b:45:4b:ca:15:72:6c:3a:06:31:e6:
                    e9:80:25
                Exponent: 65537 (0x10001)
        X509v3 extensions:
            X509v3 Basic Constraints: 
                CA:FALSE
            Netscape Comment: 
                Easy-RSA Generated Certificate
            X509v3 Subject Key Identifier: 
                F7:6B:6E:BE:CF:B5:8A:58:F9:46:FC:A3:D8:FC:00:BF:8A:D8:41:7B
            X509v3 Authority Key Identifier: 
                keyid:12:CD:60:04:D2:A0:80:9E:70:ED:C6:99:B8:7B:2C:C6:52:FD:19:A1
                DirName:/C=US/ST=OH/L=Columbus/O=VikingVPN/OU=MyOrganizationalUnit/CN=VikingVPN CA/name=EasyRSA/emailAddress=me@myhost.mydomain
                serial:CF:35:85:EE:80:BF:2A:3E

            X509v3 Extended Key Usage: 
                TLS Web Client Authentication
            X509v3 Key Usage: 
                Digital Signature
    Signature Algorithm: sha256WithRSAEncryption
         24:50:f5:18:e1:91:a2:0d:d8:a4:0c:e6:df:52:46:6e:17:2d:
         09:df:c0:15:07:54:80:a7:0a:8e:bf:c7:c0:ad:58:b6:6b:82:
         21:94:62:e1:18:aa:f4:67:51:a4:5b:5e:1a:85:dd:02:03:56:
         be:ea:f5:ac:3e:7b:0f:b2:a6:df:0e:91:a4:d6:65:8d:31:68:
         95:44:9e:03:2c:57:84:8b:5c:75:82:e9:c3:3f:f9:7c:b0:a9:
         7b:2d:ce:97:14:37:1a:c1:b2:d3:b6:4e:21:09:56:79:68:e0:
         dd:fe:d5:61:ba:e2:91:a9:92:f1:cd:0f:fe:a0:da:50:6d:83:
         8d:44:94:22:06:7c:ed:8b:4a:a9:c4:66:cf:15:12:0c:1d:44:
         c2:4f:9e:5c:64:28:2f:de:df:6f:27:0d:eb:67:b5:e6:77:9f:
         bf:73:5b:4b:20:30:9d:e4:14:eb:4b:a2:d4:31:d6:53:85:8a:
         c1:3a:ce:82:99:e2:25:f9:b0:4c:ae:a2:79:3d:f1:dd:5b:16:
         cd:be:aa:75:37:0e:aa:21:64:97:1c:b0:ca:de:b8:99:49:c4:
         96:fd:d0:43:b0:24:ad:06:5e:e2:4a:f9:6f:73:a2:73:21:fe:
         6e:e2:25:44:4a:1c:34:59:77:ad:12:03:bd:45:00:30:c6:f7:
         1d:44:53:06:4c:de:6e:b8:55:23:c8:9e:fb:2b:b4:48:2d:50:
         c0:83:10:fc:1d:30:a3:2b:ff:a2:8d:26:fb:5b:42:8d:34:d4:
         73:e6:55:2c:4b:b6:48:ee:b2:c0:9f:84:c1:ed:77:7c:95:3e:
         d8:1b:6f:da:4f:13:e2:cf:22:5a:e1:95:57:ce:b4:e8:25:37:
         7c:ad:0b:ab:c8:8c:68:46:9d:5e:a1:cd:7b:c1:b3:1c:44:0f:
         09:91:0d:39:2d:06:f8:1c:f2:63:19:54:ee:34:ea:f1:c2:fc:
         7e:74:41:40:49:0c:14:6f:80:68:61:82:70:54:53:2a:dc:ca:
         0a:16:29:3e:75:16:a0:3f:72:24:7d:09:79:2a:e5:f9:c7:40:
         ca:ae:bc:a1:c5:ab:f2:63:35:f3:e1:b8:17:5a:b8:16:79:a3:
         45:fc:dc:f3:4c:d5:19:3c:c3:de:30:03:5b:75:c0:7f:64:c0:
         00:55:dd:4d:1e:6a:f1:d5:83:b1:75:56:c7:4e:28:76:42:6b:
         da:9a:b3:db:32:34:88:41:39:35:9e:74:b1:3e:62:70:37:d4:
         d5:a0:79:18:11:25:3f:4a:72:90:6f:69:f2:42:ce:62:5a:32:
         8c:2b:85:d2:2f:13:36:df:ca:4b:14:72:9a:eb:f6:14:69:70:
         d6:0c:59:7a:9b:22:86:1c
-----BEGIN CERTIFICATE-----
MIIGrTCCBJWgAwIBAgICKREwDQYJKoZIhvcNAQELBQAwgawxCzAJBgNVBAYTAlVT
MQswCQYDVQQIEwJPSDERMA8GA1UEBxMIQ29sdW1idXMxEjAQBgNVBAoTCVZpa2lu
Z1ZQTjEdMBsGA1UECxMUTXlPcmdhbml6YXRpb25hbFVuaXQxFTATBgNVBAMTDFZp
a2luZ1ZQTiBDQTEQMA4GA1UEKRMHRWFzeVJTQTEhMB8GCSqGSIb3DQEJARYSbWVA
bXlob3N0Lm15ZG9tYWluMB4XDTE3MDQwMjIxMTkxM1oXDTI3MDMzMTIxMTkxM1ow
HzEdMBsGA1UEAxMUQ2xpZW50MjgyNENlcnQyZjhhY2EwggIiMA0GCSqGSIb3DQEB
AQUAA4ICDwAwggIKAoICAQCXjsMcLo1E8Wb1L5C/ayyHep0BH568EbZ4l7ejb/uJ
SyFdv7t92+0HIXy+bYh6OI7f6o7EeKrYANoqK5Lw75fk08nN7IjfRJN2plCOEEbO
Leg7v+025OQT/oKAxHQOV6gYSNPLvZFKRZ1kBWg92QeYhrtD12T/P2TdXu6sr3Wh
BceCtM4EGCkWNsWdu6v2cx8YfH58/xBmh9L6OQBwXc2GHB0c/P8ir3oPVFV9pSSr
8pfUdu7ZWy9U6SNdO/tLuExunAtyj6rI0MdjD6KjERllpZ3bvvzN4I55rWuK9RRa
U1muojqVqpYnP3ibl2aqBw5qOOLltDNEObnq8jwGkXxa/IjWrji5xNIfy2oos/Mp
ah0KRh1xGgbO11e5tYcF9HEeL791MncQMl7sj683TySE7PWpxRwrFokRA4Y8Jo2h
fYdFWU1vy146FiFajMxkRVqn+3MXknZu8FK0AoMrZnsxqbIAn0wg5IIH8MWoNSY2
k2wCf+bdWDXixTHesU1A8wO3XmFJiYf4xRv3u6dyv1BeMSdz9hm+eMMYsDVe+DxP
bgOFm4ey/XiKWfIqjDDUTIG+vc/e/p9lPewHOV81n1R88/bKKMunWGnhMpVNYxZd
MOsVQzLupnqek/wChFbFRBjCSx3p+Wny6YyuaKXkgrkUeo4bRUvKFXJsOgYx5umA
JQIDAQABo4IBYzCCAV8wCQYDVR0TBAIwADAtBglghkgBhvhCAQ0EIBYeRWFzeS1S
U0EgR2VuZXJhdGVkIENlcnRpZmljYXRlMB0GA1UdDgQWBBT3a26+z7WKWPlG/KPY
/AC/ithBezCB4QYDVR0jBIHZMIHWgBQSzWAE0qCAnnDtxpm4eyzGUv0ZoaGBsqSB
rzCBrDELMAkGA1UEBhMCVVMxCzAJBgNVBAgTAk9IMREwDwYDVQQHEwhDb2x1bWJ1
czESMBAGA1UEChMJVmlraW5nVlBOMR0wGwYDVQQLExRNeU9yZ2FuaXphdGlvbmFs
VW5pdDEVMBMGA1UEAxMMVmlraW5nVlBOIENBMRAwDgYDVQQpEwdFYXN5UlNBMSEw
HwYJKoZIhvcNAQkBFhJtZUBteWhvc3QubXlkb21haW6CCQDPNYXugL8qPjATBgNV
HSUEDDAKBggrBgEFBQcDAjALBgNVHQ8EBAMCB4AwDQYJKoZIhvcNAQELBQADggIB
ACRQ9RjhkaIN2KQM5t9SRm4XLQnfwBUHVICnCo6/x8CtWLZrgiGUYuEYqvRnUaRb
XhqF3QIDVr7q9aw+ew+ypt8OkaTWZY0xaJVEngMsV4SLXHWC6cM/+XywqXstzpcU
NxrBstO2TiEJVnlo4N3+1WG64pGpkvHND/6g2lBtg41ElCIGfO2LSqnEZs8VEgwd
RMJPnlxkKC/e328nDetnteZ3n79zW0sgMJ3kFOtLotQx1lOFisE6zoKZ4iX5sEyu
onk98d1bFs2+qnU3DqohZJccsMreuJlJxJb90EOwJK0GXuJK+W9zonMh/m7iJURK
HDRZd60SA71FADDG9x1EUwZM3m64VSPInvsrtEgtUMCDEPwdMKMr/6KNJvtbQo00
1HPmVSxLtkjussCfhMHtd3yVPtgbb9pPE+LPIlrhlVfOtOglN3ytC6vIjGhGnV6h
zXvBsxxEDwmRDTktBvgc8mMZVO406vHC/H50QUBJDBRvgGhhgnBUUyrcygoWKT51
FqA/ciR9CXkq5fnHQMquvKHFq/JjNfPhuBdauBZ5o0X83PNM1Rk8w94wA1t1wH9k
wABV3U0eavHVg7F1VsdOKHZCa9qas9syNIhBOTWedLE+YnA31NWgeRgRJT9KcpBv
afJCzmJaMowrhdIvEzbfyksUcprr9hRpcNYMWXqbIoYc
-----END CERTIFICATE-----
