Certificate:
    Data:
        Version: 3 (0x2)
        Serial Number: 8987 (0x231b)
    Signature Algorithm: sha256WithRSAEncryption
        Issuer: C=US, ST=OH, L=Columbus, O=VikingVPN, OU=MyOrganizationalUnit, CN=VikingVPN CA/name=EasyRSA/emailAddress=me@myhost.mydomain
        Validity
            Not Before: Sep  5 19:27:50 2016 GMT
            Not After : Sep  3 19:27:50 2026 GMT
        Subject: CN=Client2467Certe6c9c3
        Subject Public Key Info:
            Public Key Algorithm: rsaEncryption
                Public-Key: (4096 bit)
                Modulus:
                    00:c8:fe:6e:82:6a:b7:32:42:a3:13:48:a7:39:62:
                    20:4f:f1:fa:68:64:ee:1c:11:50:56:52:66:6a:71:
                    63:6a:68:a8:ed:16:43:f6:f5:0b:94:71:6e:f2:65:
                    e1:71:89:e9:e8:f4:a5:00:bd:95:69:61:d8:4c:54:
                    5a:79:d2:ce:65:bf:c0:7a:1d:f9:48:4b:08:c5:4c:
                    3c:31:85:bb:fd:e1:53:c0:c1:1e:0c:cd:4c:17:d9:
                    b1:1d:cd:53:a1:27:d8:7c:60:a4:e6:d4:40:02:4b:
                    45:da:2d:07:da:90:11:33:e7:1c:29:b7:69:8a:05:
                    c3:3f:bc:00:12:bc:c7:b4:c8:c7:fc:22:62:e6:d5:
                    bb:41:d4:c3:29:17:08:04:b8:85:58:a9:ab:b0:b5:
                    96:24:c3:cd:55:d8:38:95:9b:1c:a3:59:0b:4d:36:
                    6d:38:d7:13:ec:e5:88:52:b9:41:51:6b:11:de:2d:
                    4c:3e:85:32:f0:bb:76:0e:22:f5:b9:9c:d3:e7:9f:
                    a1:aa:63:02:0f:bb:20:c2:52:a4:d5:db:a9:58:ed:
                    94:31:46:2f:a8:e3:99:66:d7:88:c9:13:da:35:ae:
                    00:cd:3a:da:1d:ef:e5:be:ca:15:b4:11:d3:c4:f9:
                    f9:fd:81:b5:90:27:9b:ad:26:de:32:68:40:cf:34:
                    44:6a:66:3d:fb:60:50:71:bf:f7:83:8f:af:53:f6:
                    06:e7:dd:31:5c:83:51:d3:a7:ac:31:a1:0e:0e:16:
                    e1:b4:cb:4f:98:ef:48:19:af:c7:49:06:6a:af:92:
                    c0:fd:37:4c:65:27:5e:9b:25:9d:c2:6f:f1:11:03:
                    72:5d:bf:22:18:4f:ee:9f:48:17:69:65:9c:ca:80:
                    62:5e:0c:0c:7a:6b:37:6c:97:46:9e:23:50:31:40:
                    04:cd:52:72:19:23:6f:2e:24:5d:b4:9c:45:54:89:
                    e7:7c:51:33:72:93:fe:8c:44:59:b2:34:65:68:60:
                    00:d3:cf:d2:7f:60:1d:70:f9:0c:5b:00:fb:fb:56:
                    08:86:26:e6:bd:f7:2f:61:6e:9a:fb:fc:a3:8c:49:
                    34:98:22:e4:89:7e:ae:e1:16:4e:34:6a:bb:e0:b2:
                    17:3f:57:89:59:9c:30:f1:8a:e6:9b:5a:3f:4a:b1:
                    88:ec:4e:f5:32:59:df:fd:d1:a9:dc:16:91:e9:b5:
                    35:ab:44:6c:70:26:48:2f:70:ed:1b:e3:94:fe:95:
                    b0:1b:d2:85:6b:6f:3f:9f:ec:fc:c5:13:27:41:ca:
                    8b:b5:ae:28:a4:62:b2:92:68:25:27:58:1d:bf:93:
                    59:db:3c:6e:cd:64:39:de:80:f4:60:95:a7:fc:c2:
                    44:7a:87
                Exponent: 65537 (0x10001)
        X509v3 extensions:
            X509v3 Basic Constraints: 
                CA:FALSE
            Netscape Comment: 
                Easy-RSA Generated Certificate
            X509v3 Subject Key Identifier: 
                8B:FB:F9:A3:C0:9B:F3:B8:DB:C9:68:06:FB:1E:51:DF:0E:C0:AE:2D
            X509v3 Authority Key Identifier: 
                keyid:12:CD:60:04:D2:A0:80:9E:70:ED:C6:99:B8:7B:2C:C6:52:FD:19:A1
                DirName:/C=US/ST=OH/L=Columbus/O=VikingVPN/OU=MyOrganizationalUnit/CN=VikingVPN CA/name=EasyRSA/emailAddress=me@myhost.mydomain
                serial:CF:35:85:EE:80:BF:2A:3E

            X509v3 Extended Key Usage: 
                TLS Web Client Authentication
            X509v3 Key Usage: 
                Digital Signature
    Signature Algorithm: sha256WithRSAEncryption
         6c:96:8d:52:45:99:96:05:c6:63:71:8d:4d:10:f7:59:b6:78:
         ca:a0:1d:68:d7:bf:59:51:6f:a1:c4:17:92:f3:73:a5:5e:28:
         0b:e7:29:e0:60:d4:91:56:34:c2:80:54:8c:54:20:2f:de:a1:
         71:79:21:89:70:73:16:02:9a:ba:51:09:74:ce:12:0f:d5:88:
         e0:d3:ab:d8:c7:79:88:54:3d:93:d2:1c:3c:60:0d:b2:c9:37:
         f3:86:bc:36:20:a8:ec:a7:de:88:0f:b5:e5:e9:55:05:04:09:
         13:e3:f0:a3:d4:5c:fe:a0:1e:71:a5:be:2b:02:13:da:ef:e9:
         2f:0f:47:ef:41:d5:4d:60:87:e6:40:63:55:c2:60:c3:11:cc:
         8d:c2:7c:a5:18:f5:1e:7b:a7:d9:d6:d3:f3:a2:0f:2d:62:13:
         25:71:c0:50:4f:e2:8d:80:10:14:78:e1:42:a3:8d:a5:8f:e7:
         c7:94:9f:3d:51:83:06:59:62:5a:9b:cf:88:48:b0:a0:4a:fc:
         b4:c4:08:10:52:3a:ec:c8:d5:64:8a:16:62:1c:7f:5d:c2:4d:
         69:a6:da:6e:17:02:49:4f:cb:48:3b:91:99:c3:a8:b3:aa:a5:
         50:67:20:4c:4e:8a:2b:e9:58:f9:3e:5a:c0:21:6b:18:5a:18:
         e7:dc:e7:b0:dc:24:f1:36:41:a5:1a:b1:83:90:82:36:9c:91:
         68:0f:73:6e:02:73:01:b2:f8:1c:d1:4c:34:5c:43:ab:53:14:
         92:37:70:3c:2e:4b:0b:1e:44:67:5d:97:6f:fc:dd:36:70:c8:
         a2:53:19:f8:77:f2:8f:58:f6:48:61:01:92:2a:62:7d:1b:8b:
         f4:cf:4b:ec:25:dd:67:36:bc:d7:89:3c:92:93:d7:38:b1:67:
         60:b4:a1:48:3f:60:c4:90:48:58:4e:dc:40:0d:11:00:fb:54:
         80:31:98:88:a7:de:6f:4a:fc:b4:89:55:79:a5:d3:4b:4e:e5:
         31:3c:f3:3a:21:68:80:2d:4c:c6:1c:b3:1b:f9:3e:b0:39:ef:
         a2:c6:06:9d:ad:d4:de:dd:0a:1c:45:5a:92:f2:3c:e3:84:97:
         54:c2:fe:8d:65:2c:fd:d2:ac:5a:10:5a:18:a7:74:b8:22:c3:
         31:ad:50:0f:6b:7b:07:33:92:77:97:3e:51:64:9f:d8:b4:9d:
         c1:03:0d:34:b8:01:3c:7d:67:56:90:7b:43:69:87:e9:db:10:
         25:a4:8c:be:63:c9:a0:46:5e:69:8b:cf:94:f6:c2:a8:fd:f7:
         63:13:6e:d4:bf:f3:d1:be:7b:20:03:e7:58:66:2e:02:2f:99:
         4c:31:2e:7f:b6:5c:e8:4b
-----BEGIN CERTIFICATE-----
MIIGrTCCBJWgAwIBAgICIxswDQYJKoZIhvcNAQELBQAwgawxCzAJBgNVBAYTAlVT
MQswCQYDVQQIEwJPSDERMA8GA1UEBxMIQ29sdW1idXMxEjAQBgNVBAoTCVZpa2lu
Z1ZQTjEdMBsGA1UECxMUTXlPcmdhbml6YXRpb25hbFVuaXQxFTATBgNVBAMTDFZp
a2luZ1ZQTiBDQTEQMA4GA1UEKRMHRWFzeVJTQTEhMB8GCSqGSIb3DQEJARYSbWVA
bXlob3N0Lm15ZG9tYWluMB4XDTE2MDkwNTE5Mjc1MFoXDTI2MDkwMzE5Mjc1MFow
HzEdMBsGA1UEAxMUQ2xpZW50MjQ2N0NlcnRlNmM5YzMwggIiMA0GCSqGSIb3DQEB
AQUAA4ICDwAwggIKAoICAQDI/m6CarcyQqMTSKc5YiBP8fpoZO4cEVBWUmZqcWNq
aKjtFkP29QuUcW7yZeFxieno9KUAvZVpYdhMVFp50s5lv8B6HflISwjFTDwxhbv9
4VPAwR4MzUwX2bEdzVOhJ9h8YKTm1EACS0XaLQfakBEz5xwpt2mKBcM/vAASvMe0
yMf8ImLm1btB1MMpFwgEuIVYqauwtZYkw81V2DiVmxyjWQtNNm041xPs5YhSuUFR
axHeLUw+hTLwu3YOIvW5nNPnn6GqYwIPuyDCUqTV26lY7ZQxRi+o45lm14jJE9o1
rgDNOtod7+W+yhW0EdPE+fn9gbWQJ5utJt4yaEDPNERqZj37YFBxv/eDj69T9gbn
3TFcg1HTp6wxoQ4OFuG0y0+Y70gZr8dJBmqvksD9N0xlJ16bJZ3Cb/ERA3JdvyIY
T+6fSBdpZZzKgGJeDAx6azdsl0aeI1AxQATNUnIZI28uJF20nEVUied8UTNyk/6M
RFmyNGVoYADTz9J/YB1w+QxbAPv7VgiGJua99y9hbpr7/KOMSTSYIuSJfq7hFk40
arvgshc/V4lZnDDxiuabWj9KsYjsTvUyWd/90ancFpHptTWrRGxwJkgvcO0b45T+
lbAb0oVrbz+f7PzFEydByou1riikYrKSaCUnWB2/k1nbPG7NZDnegPRglaf8wkR6
hwIDAQABo4IBYzCCAV8wCQYDVR0TBAIwADAtBglghkgBhvhCAQ0EIBYeRWFzeS1S
U0EgR2VuZXJhdGVkIENlcnRpZmljYXRlMB0GA1UdDgQWBBSL+/mjwJvzuNvJaAb7
HlHfDsCuLTCB4QYDVR0jBIHZMIHWgBQSzWAE0qCAnnDtxpm4eyzGUv0ZoaGBsqSB
rzCBrDELMAkGA1UEBhMCVVMxCzAJBgNVBAgTAk9IMREwDwYDVQQHEwhDb2x1bWJ1
czESMBAGA1UEChMJVmlraW5nVlBOMR0wGwYDVQQLExRNeU9yZ2FuaXphdGlvbmFs
VW5pdDEVMBMGA1UEAxMMVmlraW5nVlBOIENBMRAwDgYDVQQpEwdFYXN5UlNBMSEw
HwYJKoZIhvcNAQkBFhJtZUBteWhvc3QubXlkb21haW6CCQDPNYXugL8qPjATBgNV
HSUEDDAKBggrBgEFBQcDAjALBgNVHQ8EBAMCB4AwDQYJKoZIhvcNAQELBQADggIB
AGyWjVJFmZYFxmNxjU0Q91m2eMqgHWjXv1lRb6HEF5Lzc6VeKAvnKeBg1JFWNMKA
VIxUIC/eoXF5IYlwcxYCmrpRCXTOEg/ViODTq9jHeYhUPZPSHDxgDbLJN/OGvDYg
qOyn3ogPteXpVQUECRPj8KPUXP6gHnGlvisCE9rv6S8PR+9B1U1gh+ZAY1XCYMMR
zI3CfKUY9R57p9nW0/OiDy1iEyVxwFBP4o2AEBR44UKjjaWP58eUnz1RgwZZYlqb
z4hIsKBK/LTECBBSOuzI1WSKFmIcf13CTWmm2m4XAklPy0g7kZnDqLOqpVBnIExO
iivpWPk+WsAhaxhaGOfc57DcJPE2QaUasYOQgjackWgPc24CcwGy+BzRTDRcQ6tT
FJI3cDwuSwseRGddl2/83TZwyKJTGfh38o9Y9khhAZIqYn0bi/TPS+wl3Wc2vNeJ
PJKT1zixZ2C0oUg/YMSQSFhO3EANEQD7VIAxmIin3m9K/LSJVXml00tO5TE88zoh
aIAtTMYcsxv5PrA576LGBp2t1N7dChxFWpLyPOOEl1TC/o1lLP3SrFoQWhindLgi
wzGtUA9rewczkneXPlFkn9i0ncEDDTS4ATx9Z1aQe0Nph+nbECWkjL5jyaBGXmmL
z5T2wqj992MTbtS/89G+eyAD51hmLgIvmUwxLn+2XOhL
-----END CERTIFICATE-----
