Certificate:
    Data:
        Version: 3 (0x2)
        Serial Number: 10520 (0x2918)
    Signature Algorithm: sha256WithRSAEncryption
        Issuer: C=US, ST=OH, L=Columbus, O=VikingVPN, OU=MyOrganizationalUnit, CN=VikingVPN CA/name=EasyRSA/emailAddress=me@myhost.mydomain
        Validity
            Not Before: Apr  3 03:51:41 2017 GMT
            Not After : Apr  1 03:51:41 2027 GMT
        Subject: CN=Client2824Cert7c5759
        Subject Public Key Info:
            Public Key Algorithm: rsaEncryption
                Public-Key: (4096 bit)
                Modulus:
                    00:bd:4c:5b:52:cd:91:d5:3f:24:9c:0c:ee:42:ba:
                    ce:38:e0:ec:95:51:78:ed:ad:30:9c:be:d2:1b:83:
                    3e:34:74:bc:44:a1:6e:71:7f:8e:87:13:88:26:7f:
                    21:5a:bb:97:3f:36:d1:38:bc:cb:7d:d6:3b:8c:95:
                    2f:81:dc:0f:4c:8b:17:48:af:8f:de:59:84:22:a5:
                    de:d0:78:f4:72:cf:fd:2b:56:d2:bb:02:fc:7a:62:
                    18:73:15:22:50:c9:ea:61:2e:d6:a3:2b:41:10:d8:
                    c1:2b:05:c6:4c:be:ec:f7:3b:b1:06:e9:af:a9:44:
                    fa:b3:27:93:d4:ba:ff:e1:96:10:58:e4:6f:a4:87:
                    9e:14:59:d3:d0:bd:b5:b8:ff:e9:69:3f:79:7a:87:
                    f4:b2:11:ce:43:34:72:4e:b6:36:68:96:10:54:e9:
                    4c:90:df:49:a7:ab:9a:b2:a6:7e:76:8c:e4:80:cc:
                    5b:b5:1a:97:16:30:eb:8d:05:3f:dc:d7:bb:21:ac:
                    b6:3a:e2:2e:93:b5:59:2e:2a:d5:0e:00:24:40:b9:
                    0a:80:0c:33:9d:08:36:eb:87:e1:a9:2f:56:ff:41:
                    4f:e1:a5:46:7f:f2:f4:18:94:71:f9:5d:55:ec:ea:
                    04:a1:98:a4:12:a1:5c:c7:d3:b8:57:9b:4f:9b:c8:
                    8f:d4:ee:f8:5c:56:74:87:07:53:73:8a:08:25:86:
                    ca:cc:f6:a6:0b:a7:12:89:00:23:f8:6b:31:0b:7d:
                    3f:73:bb:76:68:11:03:de:2c:14:5e:af:27:d6:fb:
                    89:ef:66:9a:e6:6b:30:b9:b4:2a:93:ec:68:6b:8a:
                    a9:3d:c1:fb:ae:df:35:4a:76:dd:2a:e5:98:7c:c8:
                    c8:63:c0:db:ad:8c:a5:54:42:4c:2e:54:04:cd:4c:
                    0b:a9:10:bc:ad:7c:b7:da:6a:5e:b0:cc:0b:d7:35:
                    d8:24:04:c3:fd:31:ca:ea:8f:c8:66:94:1c:5b:4d:
                    17:a1:e0:84:f4:65:3c:e5:fc:e8:a0:b4:17:39:29:
                    b5:4a:bc:0c:a0:bf:2c:8b:7c:1c:0a:4d:67:82:5e:
                    9b:d2:9c:77:e8:a1:a1:02:97:af:2b:53:19:78:8d:
                    84:22:fc:04:f7:02:33:59:0d:19:f1:59:e7:f9:4e:
                    a5:8c:dd:b0:49:6e:70:9b:ba:24:59:f1:c2:4e:19:
                    b2:6d:1a:5b:d9:fe:e1:f8:43:bd:c9:ae:ba:e8:94:
                    7b:e7:77:36:91:0b:78:33:d5:6e:2e:f1:c9:43:e9:
                    2a:cf:a5:39:1e:dc:6f:51:ae:eb:59:77:40:06:50:
                    82:88:08:20:f8:67:38:c4:f3:44:c5:fd:82:6e:76:
                    e3:ad:4b
                Exponent: 65537 (0x10001)
        X509v3 extensions:
            X509v3 Basic Constraints: 
                CA:FALSE
            Netscape Comment: 
                Easy-RSA Generated Certificate
            X509v3 Subject Key Identifier: 
                EF:67:D3:67:4B:7F:06:9C:32:43:6B:7E:47:5E:BA:F1:26:FE:B3:6A
            X509v3 Authority Key Identifier: 
                keyid:12:CD:60:04:D2:A0:80:9E:70:ED:C6:99:B8:7B:2C:C6:52:FD:19:A1
                DirName:/C=US/ST=OH/L=Columbus/O=VikingVPN/OU=MyOrganizationalUnit/CN=VikingVPN CA/name=EasyRSA/emailAddress=me@myhost.mydomain
                serial:CF:35:85:EE:80:BF:2A:3E

            X509v3 Extended Key Usage: 
                TLS Web Client Authentication
            X509v3 Key Usage: 
                Digital Signature
    Signature Algorithm: sha256WithRSAEncryption
         99:00:96:b5:b1:41:16:ff:27:da:e2:53:35:cf:e6:9b:76:b1:
         d2:6c:d0:63:47:f9:84:fa:50:03:cc:f0:ac:9f:f2:b1:6c:13:
         e4:80:48:f3:d6:7e:3b:20:a0:d3:d0:3a:e5:c4:20:13:65:e5:
         7d:4d:14:39:47:7f:74:af:cd:ad:4d:c1:bf:9b:0f:7a:fe:33:
         31:6e:83:fa:99:ae:1e:7c:67:b9:1b:42:62:3e:95:0a:15:06:
         92:16:dd:64:8d:f4:6f:8f:51:29:38:71:28:42:54:97:87:00:
         6b:d0:ca:6c:7c:ae:d1:f4:74:b7:93:06:28:af:a6:f1:cc:34:
         1f:d4:53:e1:ce:c8:da:c6:16:be:f9:be:b0:bd:31:7f:48:27:
         a7:d0:99:34:e9:de:24:30:df:d9:c9:f5:9b:5e:9e:3a:9b:51:
         86:58:f8:c0:a2:17:38:42:1c:89:7f:e6:79:e3:d8:9b:0d:98:
         f5:5d:80:88:2e:62:20:7f:db:85:64:2f:bb:6a:32:8c:60:72:
         72:1d:fb:a9:d8:6f:30:a5:0a:26:94:a3:58:0b:2a:24:ba:64:
         97:44:7c:43:39:bb:66:89:37:dd:9e:31:4c:0c:29:19:aa:a9:
         34:8c:d7:88:e2:56:5e:f1:28:80:ef:4a:2b:fb:c0:33:75:c4:
         7d:2e:31:4e:ab:05:03:d5:c6:25:57:88:66:0e:ce:86:43:39:
         92:bc:4c:7d:8e:33:96:87:35:b5:8b:65:9d:6f:de:2b:eb:da:
         cd:32:e7:e4:75:3d:90:29:b2:62:a6:ba:68:95:4c:12:38:7d:
         29:02:f4:33:f2:84:3f:bb:6d:ee:76:07:c8:a1:ce:c9:89:1f:
         bb:9b:86:be:e8:08:66:ab:7c:c7:7e:24:f7:6a:39:bc:8e:40:
         a4:b0:ec:1c:53:1f:d8:72:73:fa:db:01:e6:f5:df:b9:0e:7c:
         60:85:63:47:bd:b7:3d:36:16:a4:29:18:09:dc:05:41:39:ff:
         2d:19:10:01:fd:fa:df:7b:2c:c9:bd:ac:ad:70:1e:b1:97:d8:
         3d:3d:fa:f6:84:f8:50:74:35:c4:0f:09:9f:80:06:3b:05:b4:
         1b:d7:2e:11:37:35:81:51:87:f5:36:38:97:f8:06:c4:a3:9b:
         cd:b1:a5:4e:45:d1:92:a6:33:62:7f:af:f8:d7:ff:dd:aa:0e:
         16:64:e6:07:6f:78:c6:3d:54:13:d8:0b:04:97:55:54:ee:9d:
         48:9b:38:9a:bf:b7:50:7d:0e:d3:fa:dd:61:13:e3:1f:6c:31:
         eb:8d:64:72:ea:a4:a3:08:7f:37:e2:77:f5:9b:a6:1f:c9:fc:
         f9:af:8b:e9:a8:d4:eb:31
-----BEGIN CERTIFICATE-----
MIIGrTCCBJWgAwIBAgICKRgwDQYJKoZIhvcNAQELBQAwgawxCzAJBgNVBAYTAlVT
MQswCQYDVQQIEwJPSDERMA8GA1UEBxMIQ29sdW1idXMxEjAQBgNVBAoTCVZpa2lu
Z1ZQTjEdMBsGA1UECxMUTXlPcmdhbml6YXRpb25hbFVuaXQxFTATBgNVBAMTDFZp
a2luZ1ZQTiBDQTEQMA4GA1UEKRMHRWFzeVJTQTEhMB8GCSqGSIb3DQEJARYSbWVA
bXlob3N0Lm15ZG9tYWluMB4XDTE3MDQwMzAzNTE0MVoXDTI3MDQwMTAzNTE0MVow
HzEdMBsGA1UEAxMUQ2xpZW50MjgyNENlcnQ3YzU3NTkwggIiMA0GCSqGSIb3DQEB
AQUAA4ICDwAwggIKAoICAQC9TFtSzZHVPyScDO5Cus444OyVUXjtrTCcvtIbgz40
dLxEoW5xf46HE4gmfyFau5c/NtE4vMt91juMlS+B3A9MixdIr4/eWYQipd7QePRy
z/0rVtK7Avx6YhhzFSJQyephLtajK0EQ2MErBcZMvuz3O7EG6a+pRPqzJ5PUuv/h
lhBY5G+kh54UWdPQvbW4/+lpP3l6h/SyEc5DNHJOtjZolhBU6UyQ30mnq5qypn52
jOSAzFu1GpcWMOuNBT/c17shrLY64i6TtVkuKtUOACRAuQqADDOdCDbrh+GpL1b/
QU/hpUZ/8vQYlHH5XVXs6gShmKQSoVzH07hXm0+byI/U7vhcVnSHB1NzigglhsrM
9qYLpxKJACP4azELfT9zu3ZoEQPeLBReryfW+4nvZprmazC5tCqT7Ghriqk9wfuu
3zVKdt0q5Zh8yMhjwNutjKVUQkwuVATNTAupELytfLfaal6wzAvXNdgkBMP9Mcrq
j8hmlBxbTReh4IT0ZTzl/OigtBc5KbVKvAygvyyLfBwKTWeCXpvSnHfooaECl68r
Uxl4jYQi/AT3AjNZDRnxWef5TqWM3bBJbnCbuiRZ8cJOGbJtGlvZ/uH4Q73Jrrro
lHvndzaRC3gz1W4u8clD6SrPpTke3G9RrutZd0AGUIKICCD4ZzjE80TF/YJuduOt
SwIDAQABo4IBYzCCAV8wCQYDVR0TBAIwADAtBglghkgBhvhCAQ0EIBYeRWFzeS1S
U0EgR2VuZXJhdGVkIENlcnRpZmljYXRlMB0GA1UdDgQWBBTvZ9NnS38GnDJDa35H
XrrxJv6zajCB4QYDVR0jBIHZMIHWgBQSzWAE0qCAnnDtxpm4eyzGUv0ZoaGBsqSB
rzCBrDELMAkGA1UEBhMCVVMxCzAJBgNVBAgTAk9IMREwDwYDVQQHEwhDb2x1bWJ1
czESMBAGA1UEChMJVmlraW5nVlBOMR0wGwYDVQQLExRNeU9yZ2FuaXphdGlvbmFs
VW5pdDEVMBMGA1UEAxMMVmlraW5nVlBOIENBMRAwDgYDVQQpEwdFYXN5UlNBMSEw
HwYJKoZIhvcNAQkBFhJtZUBteWhvc3QubXlkb21haW6CCQDPNYXugL8qPjATBgNV
HSUEDDAKBggrBgEFBQcDAjALBgNVHQ8EBAMCB4AwDQYJKoZIhvcNAQELBQADggIB
AJkAlrWxQRb/J9riUzXP5pt2sdJs0GNH+YT6UAPM8Kyf8rFsE+SASPPWfjsgoNPQ
OuXEIBNl5X1NFDlHf3Svza1Nwb+bD3r+MzFug/qZrh58Z7kbQmI+lQoVBpIW3WSN
9G+PUSk4cShCVJeHAGvQymx8rtH0dLeTBiivpvHMNB/UU+HOyNrGFr75vrC9MX9I
J6fQmTTp3iQw39nJ9ZtenjqbUYZY+MCiFzhCHIl/5nnj2JsNmPVdgIguYiB/24Vk
L7tqMoxgcnId+6nYbzClCiaUo1gLKiS6ZJdEfEM5u2aJN92eMUwMKRmqqTSM14ji
Vl7xKIDvSiv7wDN1xH0uMU6rBQPVxiVXiGYOzoZDOZK8TH2OM5aHNbWLZZ1v3ivr
2s0y5+R1PZApsmKmumiVTBI4fSkC9DPyhD+7be52B8ihzsmJH7ubhr7oCGarfMd+
JPdqObyOQKSw7BxTH9hyc/rbAeb137kOfGCFY0e9tz02FqQpGAncBUE5/y0ZEAH9
+t97LMm9rK1wHrGX2D09+vaE+FB0NcQPCZ+ABjsFtBvXLhE3NYFRh/U2OJf4BsSj
m82xpU5F0ZKmM2J/r/jX/92qDhZk5gdveMY9VBPYCwSXVVTunUibOJq/t1B9DtP6
3WET4x9sMeuNZHLqpKMIfzfid/Wbph/J/Pmvi+mo1Osx
-----END CERTIFICATE-----
