Certificate:
    Data:
        Version: 3 (0x2)
        Serial Number: 5022 (0x139e)
    Signature Algorithm: md5WithRSAEncryption
        Issuer: C=US, ST=OH, L=Columbus, O=VikingVPN, OU=MyOrganizationalUnit, CN=VikingVPN CA/name=EasyRSA/emailAddress=me@myhost.mydomain
        Validity
            Not Before: Apr 21 11:37:09 2015 GMT
            Not After : Apr 18 11:37:09 2025 GMT
        Subject: CN=Client1620Certd70228
        Subject Public Key Info:
            Public Key Algorithm: rsaEncryption
                Public-Key: (4096 bit)
                Modulus:
                    00:99:ee:17:4a:d4:ea:d3:4c:10:35:5b:a2:ce:3a:
                    e2:71:51:e1:b0:b0:a0:e5:51:59:7d:f0:34:9b:bb:
                    33:50:cf:08:b9:ff:3a:ea:37:83:54:be:b9:a4:01:
                    bf:c6:99:05:da:67:b0:ba:a4:e4:a0:17:d3:8a:61:
                    14:7a:16:70:2b:e2:c0:7c:91:ab:03:54:34:96:80:
                    33:95:75:5b:d4:af:8b:4d:94:f1:be:93:a8:06:fd:
                    39:68:67:55:3f:24:88:d9:1d:cb:49:15:a5:bb:35:
                    f8:48:bf:7a:eb:2f:f1:83:a7:9a:59:41:46:a5:d6:
                    64:0e:33:93:25:fa:ea:fb:1f:d7:45:7e:4f:cc:01:
                    48:7a:f7:14:59:37:7f:b8:fa:db:af:bf:54:76:1a:
                    2c:75:35:03:b9:eb:91:22:77:ea:b1:d0:be:b7:e4:
                    86:03:04:45:5a:2b:7f:e2:65:56:91:ef:60:82:86:
                    30:b3:b7:3c:ee:4a:e7:75:bb:cb:94:4f:92:f4:78:
                    b2:f4:3a:95:19:79:1f:56:61:2f:15:3b:de:06:b3:
                    49:e8:77:ce:ff:b2:cf:47:a8:83:b9:a2:f4:3e:63:
                    1f:12:be:6a:24:a2:c2:1e:9f:f8:06:5c:64:a7:25:
                    46:01:ca:e6:67:d1:67:6e:de:f7:31:1e:c0:27:c8:
                    c6:71:57:e0:f5:39:1e:d5:b5:0d:ac:f9:f3:f2:a2:
                    a6:e5:35:05:c7:51:e5:87:b6:76:58:c9:1b:64:01:
                    3e:01:2e:d7:5d:55:26:31:80:aa:b7:3e:bc:5a:e6:
                    73:c3:b0:71:2c:ff:fe:08:8d:45:0d:51:83:30:1e:
                    6c:fe:8a:6b:d3:b6:9e:0c:c5:85:6d:dd:c7:f0:17:
                    a0:a1:67:5e:4d:b3:57:9e:c2:69:7e:f2:ca:7c:c6:
                    ce:82:0e:b8:4a:0a:6a:9c:0e:21:98:67:27:cb:05:
                    6e:ad:48:b4:0d:24:af:fa:80:3e:25:95:29:19:f5:
                    db:a9:23:52:fa:44:73:62:58:76:66:cb:6c:76:77:
                    ba:fb:0d:9f:f9:d8:33:ba:dc:b3:6c:a5:69:74:ee:
                    10:85:36:4e:33:81:c9:d5:29:d0:10:31:c0:96:74:
                    cc:4f:9a:e9:1e:4b:f9:48:31:ef:4c:08:d0:86:6a:
                    ad:77:71:53:a5:91:e7:fd:42:10:a8:23:c2:89:05:
                    f3:44:e2:27:5a:58:3e:a5:ec:a9:a6:99:07:d1:9e:
                    61:80:ea:cb:5f:39:02:59:99:5f:c3:52:b3:5e:ce:
                    0d:c2:0f:8b:a0:63:94:16:fd:77:d0:20:c8:ea:94:
                    14:57:1f:1e:05:51:79:8e:c2:5e:a8:85:8b:e4:14:
                    5c:70:df
                Exponent: 65537 (0x10001)
        X509v3 extensions:
            X509v3 Basic Constraints: 
                CA:FALSE
            Netscape Comment: 
                Easy-RSA Generated Certificate
            X509v3 Subject Key Identifier: 
                A9:5D:1C:14:0A:F8:F6:20:32:23:26:09:FF:3B:1B:30:D2:6E:B8:C7
            X509v3 Authority Key Identifier: 
                keyid:12:CD:60:04:D2:A0:80:9E:70:ED:C6:99:B8:7B:2C:C6:52:FD:19:A1
                DirName:/C=US/ST=OH/L=Columbus/O=VikingVPN/OU=MyOrganizationalUnit/CN=VikingVPN CA/name=EasyRSA/emailAddress=me@myhost.mydomain
                serial:CF:35:85:EE:80:BF:2A:3E

            X509v3 Extended Key Usage: 
                TLS Web Client Authentication
            X509v3 Key Usage: 
                Digital Signature
    Signature Algorithm: md5WithRSAEncryption
         66:8c:d5:3c:ca:de:b4:fb:e7:9c:bf:cb:b9:cd:af:7c:19:b9:
         18:5c:ef:a4:49:0c:e1:f3:8f:c8:27:37:92:95:53:79:6d:47:
         ce:88:e1:81:93:61:1f:f2:6c:f7:88:bb:d9:10:05:8f:cb:5b:
         74:e1:de:3c:4b:9d:78:a5:1a:fa:a2:53:a3:8d:f1:7c:40:96:
         72:45:20:39:81:03:9b:e0:1c:09:4e:09:97:ff:a8:ee:73:ef:
         83:ee:b1:5d:a9:93:e7:9f:47:87:ce:71:0e:63:ee:b4:a5:7c:
         62:b2:4c:7f:6f:20:ca:83:dd:24:08:96:36:ff:65:fd:76:76:
         00:9f:da:83:39:d6:50:4d:78:ce:60:a5:b4:a3:df:d3:56:d0:
         80:fb:90:02:3a:9b:46:84:6d:2e:19:b0:17:3d:6c:d4:86:b0:
         5f:94:db:f9:d4:fb:24:59:98:2b:13:4a:12:ca:88:df:b8:02:
         9c:35:c0:69:c8:21:61:a1:4e:28:97:ab:62:4f:bc:05:30:fd:
         f6:45:5e:aa:14:c0:43:30:32:0f:2d:f5:24:a0:af:91:71:e0:
         b0:0f:67:a7:5c:e1:f9:55:8e:96:1b:af:a7:c3:15:82:32:07:
         c8:ef:83:3c:0c:86:4b:88:77:04:19:89:11:74:c6:a8:fa:74:
         b2:5f:5c:13:52:ee:d3:b0:06:95:e5:d3:70:d2:cc:62:58:23:
         35:21:34:d2:77:44:8f:2e:1b:2a:1b:de:46:4e:20:75:62:ea:
         a7:7b:38:5c:3d:12:f3:ea:15:03:f2:1a:e4:a4:3a:25:ad:4d:
         d4:5c:40:20:08:b6:dc:c3:70:97:5c:eb:a5:c9:d1:01:74:a3:
         5a:7e:36:e6:db:0e:e2:06:68:6e:7c:68:d6:95:90:3c:44:4b:
         8d:aa:f7:f2:89:38:dc:91:dc:0f:96:9b:34:2f:55:df:9d:15:
         11:7f:9b:5c:d3:bd:9c:47:08:8c:ef:b9:25:aa:ec:12:b7:5b:
         6e:c0:f1:8b:0c:30:1b:e5:0d:09:76:06:97:d5:68:81:7a:69:
         0e:76:68:41:c2:2f:d3:59:eb:3a:67:ab:b2:58:5a:1e:ff:60:
         22:33:80:19:1b:89:40:76:55:65:54:3d:18:1a:07:75:f7:00:
         22:f3:8a:47:8d:48:43:40:b6:98:01:3c:f3:f4:4a:1b:5d:dc:
         01:ed:25:1d:5e:34:46:8c:6e:3b:49:c1:5d:aa:1b:74:88:4d:
         45:e8:27:47:aa:eb:c4:67:8f:c9:68:59:79:30:ee:69:c7:54:
         a4:8d:eb:14:27:00:56:b6:f8:c3:17:48:5c:44:1d:33:8f:65:
         cd:60:5c:3f:35:e3:85:e9
-----BEGIN CERTIFICATE-----
MIIGrTCCBJWgAwIBAgICE54wDQYJKoZIhvcNAQEEBQAwgawxCzAJBgNVBAYTAlVT
MQswCQYDVQQIEwJPSDERMA8GA1UEBxMIQ29sdW1idXMxEjAQBgNVBAoTCVZpa2lu
Z1ZQTjEdMBsGA1UECxMUTXlPcmdhbml6YXRpb25hbFVuaXQxFTATBgNVBAMTDFZp
a2luZ1ZQTiBDQTEQMA4GA1UEKRMHRWFzeVJTQTEhMB8GCSqGSIb3DQEJARYSbWVA
bXlob3N0Lm15ZG9tYWluMB4XDTE1MDQyMTExMzcwOVoXDTI1MDQxODExMzcwOVow
HzEdMBsGA1UEAxMUQ2xpZW50MTYyMENlcnRkNzAyMjgwggIiMA0GCSqGSIb3DQEB
AQUAA4ICDwAwggIKAoICAQCZ7hdK1OrTTBA1W6LOOuJxUeGwsKDlUVl98DSbuzNQ
zwi5/zrqN4NUvrmkAb/GmQXaZ7C6pOSgF9OKYRR6FnAr4sB8kasDVDSWgDOVdVvU
r4tNlPG+k6gG/TloZ1U/JIjZHctJFaW7NfhIv3rrL/GDp5pZQUal1mQOM5Ml+ur7
H9dFfk/MAUh69xRZN3+4+tuvv1R2Gix1NQO565Eid+qx0L635IYDBEVaK3/iZVaR
72CChjCztzzuSud1u8uUT5L0eLL0OpUZeR9WYS8VO94Gs0nod87/ss9HqIO5ovQ+
Yx8SvmokosIen/gGXGSnJUYByuZn0Wdu3vcxHsAnyMZxV+D1OR7VtQ2s+fPyoqbl
NQXHUeWHtnZYyRtkAT4BLtddVSYxgKq3Prxa5nPDsHEs//4IjUUNUYMwHmz+imvT
tp4MxYVt3cfwF6ChZ15Ns1eewml+8sp8xs6CDrhKCmqcDiGYZyfLBW6tSLQNJK/6
gD4llSkZ9dupI1L6RHNiWHZmy2x2d7r7DZ/52DO63LNspWl07hCFNk4zgcnVKdAQ
McCWdMxPmukeS/lIMe9MCNCGaq13cVOlkef9QhCoI8KJBfNE4idaWD6l7KmmmQfR
nmGA6stfOQJZmV/DUrNezg3CD4ugY5QW/XfQIMjqlBRXHx4FUXmOwl6ohYvkFFxw
3wIDAQABo4IBYzCCAV8wCQYDVR0TBAIwADAtBglghkgBhvhCAQ0EIBYeRWFzeS1S
U0EgR2VuZXJhdGVkIENlcnRpZmljYXRlMB0GA1UdDgQWBBSpXRwUCvj2IDIjJgn/
Oxsw0m64xzCB4QYDVR0jBIHZMIHWgBQSzWAE0qCAnnDtxpm4eyzGUv0ZoaGBsqSB
rzCBrDELMAkGA1UEBhMCVVMxCzAJBgNVBAgTAk9IMREwDwYDVQQHEwhDb2x1bWJ1
czESMBAGA1UEChMJVmlraW5nVlBOMR0wGwYDVQQLExRNeU9yZ2FuaXphdGlvbmFs
VW5pdDEVMBMGA1UEAxMMVmlraW5nVlBOIENBMRAwDgYDVQQpEwdFYXN5UlNBMSEw
HwYJKoZIhvcNAQkBFhJtZUBteWhvc3QubXlkb21haW6CCQDPNYXugL8qPjATBgNV
HSUEDDAKBggrBgEFBQcDAjALBgNVHQ8EBAMCB4AwDQYJKoZIhvcNAQEEBQADggIB
AGaM1TzK3rT755y/y7nNr3wZuRhc76RJDOHzj8gnN5KVU3ltR86I4YGTYR/ybPeI
u9kQBY/LW3Th3jxLnXilGvqiU6ON8XxAlnJFIDmBA5vgHAlOCZf/qO5z74PusV2p
k+efR4fOcQ5j7rSlfGKyTH9vIMqD3SQIljb/Zf12dgCf2oM51lBNeM5gpbSj39NW
0ID7kAI6m0aEbS4ZsBc9bNSGsF+U2/nU+yRZmCsTShLKiN+4Apw1wGnIIWGhTiiX
q2JPvAUw/fZFXqoUwEMwMg8t9SSgr5Fx4LAPZ6dc4flVjpYbr6fDFYIyB8jvgzwM
hkuIdwQZiRF0xqj6dLJfXBNS7tOwBpXl03DSzGJYIzUhNNJ3RI8uGyob3kZOIHVi
6qd7OFw9EvPqFQPyGuSkOiWtTdRcQCAIttzDcJdc66XJ0QF0o1p+NubbDuIGaG58
aNaVkDxES42q9/KJONyR3A+WmzQvVd+dFRF/m1zTvZxHCIzvuSWq7BK3W27A8YsM
MBvlDQl2BpfVaIF6aQ52aEHCL9NZ6zpnq7JYWh7/YCIzgBkbiUB2VWVUPRgaB3X3
ACLzikeNSENAtpgBPPP0Shtd3AHtJR1eNEaMbjtJwV2qG3SITUXoJ0eq68Rnj8lo
WXkw7mnHVKSN6xQnAFa2+MMXSFxEHTOPZc1gXD8144Xp
-----END CERTIFICATE-----
