Certificate:
    Data:
        Version: 3 (0x2)
        Serial Number: 13008 (0x32d0)
    Signature Algorithm: sha256WithRSAEncryption
        Issuer: C=US, ST=OH, L=Columbus, O=VikingVPN, OU=MyOrganizationalUnit, CN=VikingVPN CA/name=EasyRSA/emailAddress=me@myhost.mydomain
        Validity
            Not Before: Apr 21 00:08:31 2018 GMT
            Not After : Apr 18 00:08:31 2028 GMT
        Subject: CN=Client3119Cert251aaf
        Subject Public Key Info:
            Public Key Algorithm: rsaEncryption
                Public-Key: (4096 bit)
                Modulus:
                    00:cb:ed:29:bc:50:d1:79:98:e8:9c:e1:d0:6c:e3:
                    8e:0d:8c:74:4c:9d:9e:ed:1a:b8:72:fa:3f:7e:3d:
                    50:ba:6b:ef:3b:8e:00:07:a3:de:34:1f:04:23:bf:
                    c3:8a:c8:60:ef:be:53:8a:75:2c:30:26:df:dc:1c:
                    59:80:e4:86:66:95:7b:a9:1d:00:d3:52:b7:d2:29:
                    fc:72:31:7e:94:97:29:0b:50:4d:9b:86:87:4e:72:
                    d1:53:b8:7a:8c:a5:fe:ad:18:d6:23:5e:9d:92:67:
                    85:6a:d4:53:0a:a0:39:c5:7e:e0:e4:0a:7d:85:9b:
                    ec:70:46:0a:cb:e0:40:7b:18:fa:ee:ac:77:76:61:
                    04:89:1d:22:a5:d7:c2:38:f8:f6:6c:d8:57:3a:8c:
                    58:aa:25:99:76:ef:be:ef:51:ae:d3:b7:4c:0f:5f:
                    e3:44:62:20:44:83:af:98:b0:35:7c:e4:e9:02:a9:
                    a3:22:16:6f:26:36:71:43:81:f1:77:b0:29:e8:1d:
                    af:41:05:ae:30:eb:74:97:74:0f:5b:ad:21:67:a4:
                    e9:e9:91:b3:8f:73:0e:6f:40:49:45:41:35:14:36:
                    b1:c7:1a:ca:10:67:ad:5f:6f:a4:5f:cc:42:da:9e:
                    bd:a2:28:9c:e7:f5:0f:ff:3e:b1:76:9d:0d:3c:78:
                    d7:68:79:8c:2f:0b:4b:7f:83:ab:7f:93:a9:13:89:
                    61:96:e9:b5:de:af:2d:81:49:db:be:a0:f2:7d:52:
                    d6:0b:5b:7f:9e:37:69:c2:c0:4c:a8:f5:20:84:b8:
                    6a:48:81:ef:30:a8:31:2d:cf:2d:bd:2b:3e:c0:22:
                    aa:ed:12:c5:0b:c6:a9:f9:6f:0b:a8:b0:4f:c2:21:
                    80:59:55:4e:6d:e8:aa:46:4a:78:0c:6d:9f:cb:e8:
                    9f:a8:e5:53:42:85:0c:b1:25:0e:10:fa:33:bd:ee:
                    03:70:4f:3d:36:24:2d:44:b2:75:e0:3d:0f:d6:db:
                    6e:b0:14:1b:a5:52:82:21:e5:10:9e:d8:28:30:99:
                    70:63:c2:ed:a3:44:5e:ce:6b:41:22:a3:07:35:24:
                    7b:47:e3:9c:cc:46:fc:15:32:c4:37:8d:f8:41:69:
                    bb:5d:83:12:a5:0c:67:34:40:36:79:ab:6f:e5:15:
                    83:b9:78:76:86:c3:66:89:4d:17:9e:52:88:0d:bd:
                    3f:30:2e:d8:5a:57:5f:da:1d:a0:5b:2f:22:91:a2:
                    07:bc:76:6e:40:dc:12:7d:d4:2c:9d:7b:d5:47:99:
                    5a:68:e2:c8:d8:ef:0b:6d:cb:7d:a9:72:77:97:07:
                    93:42:7f:84:76:9f:19:79:2c:fc:a6:f5:9c:28:88:
                    9f:e6:61
                Exponent: 65537 (0x10001)
        X509v3 extensions:
            X509v3 Basic Constraints: 
                CA:FALSE
            Netscape Comment: 
                Easy-RSA Generated Certificate
            X509v3 Subject Key Identifier: 
                D5:7C:EF:FA:DA:F3:D7:DE:0B:36:D1:B4:E7:AE:76:D9:59:32:8C:9B
            X509v3 Authority Key Identifier: 
                keyid:12:CD:60:04:D2:A0:80:9E:70:ED:C6:99:B8:7B:2C:C6:52:FD:19:A1
                DirName:/C=US/ST=OH/L=Columbus/O=VikingVPN/OU=MyOrganizationalUnit/CN=VikingVPN CA/name=EasyRSA/emailAddress=me@myhost.mydomain
                serial:CF:35:85:EE:80:BF:2A:3E

            X509v3 Extended Key Usage: 
                TLS Web Client Authentication
            X509v3 Key Usage: 
                Digital Signature
    Signature Algorithm: sha256WithRSAEncryption
         44:de:34:1f:00:d2:f1:d7:4f:43:72:61:b6:04:ff:c1:9e:a7:
         09:c8:9a:ec:30:a6:9a:6b:9a:fa:aa:58:f9:d0:d2:2c:93:f2:
         1f:2d:ff:f7:be:71:19:c9:40:1c:9b:b2:64:6b:aa:35:92:62:
         9d:72:0e:59:11:b2:59:45:0a:86:11:98:8d:cf:e1:a6:d4:aa:
         a3:73:19:6d:0c:29:04:3d:c5:66:5a:95:f1:79:19:aa:56:e3:
         b1:c8:af:e6:72:f8:68:9a:6d:8b:e5:34:13:5e:57:69:14:b2:
         39:5d:5d:82:9a:eb:bc:bc:59:41:00:dd:10:ad:a3:05:69:7f:
         49:d6:ee:9f:1b:a4:38:d5:fa:6c:66:ad:25:17:5b:54:a5:fc:
         33:83:c7:90:e0:92:2e:65:b5:e5:e2:79:1f:35:28:c6:51:61:
         e8:4b:e3:6f:83:db:2e:d3:32:9f:3a:4a:6b:2d:84:e2:86:54:
         6a:fc:24:2a:91:55:b5:15:6b:c0:10:d9:a9:9f:0d:c5:89:8e:
         62:9e:2e:d5:40:98:46:7e:e3:4e:8d:09:9b:c0:60:d2:5a:df:
         37:5b:b1:44:eb:20:ee:82:e0:26:ba:93:c2:99:3b:fa:eb:4f:
         f9:a2:d7:12:0c:1b:1f:f6:a0:51:40:45:41:dd:43:91:57:a8:
         d0:21:b5:cb:83:2e:b3:58:09:4d:88:92:b5:fe:2b:3f:1f:85:
         5c:b6:39:39:67:5c:d9:61:27:48:79:f4:81:b7:85:f7:63:96:
         06:64:2b:42:d6:1d:3b:4b:4d:95:c6:fd:d9:c5:86:b7:9a:e3:
         68:b9:8f:19:07:00:d0:cf:ff:7e:78:81:04:1a:cd:da:e5:61:
         fb:4a:d5:4f:17:5f:51:b2:f8:f0:9b:b1:bb:f5:6f:ed:37:17:
         23:64:54:66:a0:7e:62:c1:66:49:bf:ec:5a:71:4a:b4:4c:c9:
         86:56:41:c3:30:da:10:10:20:f6:44:4c:1e:44:5d:bf:55:6e:
         58:04:2b:c9:71:5d:55:b3:26:f5:15:d2:b7:3d:70:a9:5a:93:
         a1:22:6a:c6:6f:51:d4:6f:a8:e0:3b:37:87:11:d1:14:25:47:
         86:18:50:2a:1a:4b:55:c5:96:e0:d8:60:40:ed:eb:4c:d1:5a:
         c7:41:30:28:b1:ca:46:a7:92:23:2f:63:b3:45:aa:fa:f3:f1:
         ba:66:71:36:da:86:3d:c4:ec:88:a4:2a:a9:18:d6:bf:ad:4f:
         0b:49:26:5d:1e:77:0b:43:e0:4c:f7:37:91:64:42:07:e8:42:
         ce:70:26:b0:ec:e3:1e:77:3b:61:6f:10:a0:49:21:d1:e7:32:
         0b:fd:1a:32:27:c1:90:ea
-----BEGIN CERTIFICATE-----
MIIGrTCCBJWgAwIBAgICMtAwDQYJKoZIhvcNAQELBQAwgawxCzAJBgNVBAYTAlVT
MQswCQYDVQQIEwJPSDERMA8GA1UEBxMIQ29sdW1idXMxEjAQBgNVBAoTCVZpa2lu
Z1ZQTjEdMBsGA1UECxMUTXlPcmdhbml6YXRpb25hbFVuaXQxFTATBgNVBAMTDFZp
a2luZ1ZQTiBDQTEQMA4GA1UEKRMHRWFzeVJTQTEhMB8GCSqGSIb3DQEJARYSbWVA
bXlob3N0Lm15ZG9tYWluMB4XDTE4MDQyMTAwMDgzMVoXDTI4MDQxODAwMDgzMVow
HzEdMBsGA1UEAxMUQ2xpZW50MzExOUNlcnQyNTFhYWYwggIiMA0GCSqGSIb3DQEB
AQUAA4ICDwAwggIKAoICAQDL7Sm8UNF5mOic4dBs444NjHRMnZ7tGrhy+j9+PVC6
a+87jgAHo940HwQjv8OKyGDvvlOKdSwwJt/cHFmA5IZmlXupHQDTUrfSKfxyMX6U
lykLUE2bhodOctFTuHqMpf6tGNYjXp2SZ4Vq1FMKoDnFfuDkCn2Fm+xwRgrL4EB7
GPrurHd2YQSJHSKl18I4+PZs2Fc6jFiqJZl2777vUa7Tt0wPX+NEYiBEg6+YsDV8
5OkCqaMiFm8mNnFDgfF3sCnoHa9BBa4w63SXdA9brSFnpOnpkbOPcw5vQElFQTUU
NrHHGsoQZ61fb6RfzELanr2iKJzn9Q//PrF2nQ08eNdoeYwvC0t/g6t/k6kTiWGW
6bXery2BSdu+oPJ9UtYLW3+eN2nCwEyo9SCEuGpIge8wqDEtzy29Kz7AIqrtEsUL
xqn5bwuosE/CIYBZVU5t6KpGSngMbZ/L6J+o5VNChQyxJQ4Q+jO97gNwTz02JC1E
snXgPQ/W226wFBulUoIh5RCe2CgwmXBjwu2jRF7Oa0Eiowc1JHtH45zMRvwVMsQ3
jfhBabtdgxKlDGc0QDZ5q2/lFYO5eHaGw2aJTReeUogNvT8wLthaV1/aHaBbLyKR
oge8dm5A3BJ91Cyde9VHmVpo4sjY7wtty32pcneXB5NCf4R2nxl5LPym9ZwoiJ/m
YQIDAQABo4IBYzCCAV8wCQYDVR0TBAIwADAtBglghkgBhvhCAQ0EIBYeRWFzeS1S
U0EgR2VuZXJhdGVkIENlcnRpZmljYXRlMB0GA1UdDgQWBBTVfO/62vPX3gs20bTn
rnbZWTKMmzCB4QYDVR0jBIHZMIHWgBQSzWAE0qCAnnDtxpm4eyzGUv0ZoaGBsqSB
rzCBrDELMAkGA1UEBhMCVVMxCzAJBgNVBAgTAk9IMREwDwYDVQQHEwhDb2x1bWJ1
czESMBAGA1UEChMJVmlraW5nVlBOMR0wGwYDVQQLExRNeU9yZ2FuaXphdGlvbmFs
VW5pdDEVMBMGA1UEAxMMVmlraW5nVlBOIENBMRAwDgYDVQQpEwdFYXN5UlNBMSEw
HwYJKoZIhvcNAQkBFhJtZUBteWhvc3QubXlkb21haW6CCQDPNYXugL8qPjATBgNV
HSUEDDAKBggrBgEFBQcDAjALBgNVHQ8EBAMCB4AwDQYJKoZIhvcNAQELBQADggIB
AETeNB8A0vHXT0NyYbYE/8GepwnImuwwppprmvqqWPnQ0iyT8h8t//e+cRnJQByb
smRrqjWSYp1yDlkRsllFCoYRmI3P4abUqqNzGW0MKQQ9xWZalfF5GapW47HIr+Zy
+GiabYvlNBNeV2kUsjldXYKa67y8WUEA3RCtowVpf0nW7p8bpDjV+mxmrSUXW1Sl
/DODx5Dgki5lteXieR81KMZRYehL42+D2y7TMp86SmsthOKGVGr8JCqRVbUVa8AQ
2amfDcWJjmKeLtVAmEZ+406NCZvAYNJa3zdbsUTrIO6C4Ca6k8KZO/rrT/mi1xIM
Gx/2oFFARUHdQ5FXqNAhtcuDLrNYCU2IkrX+Kz8fhVy2OTlnXNlhJ0h59IG3hfdj
lgZkK0LWHTtLTZXG/dnFhrea42i5jxkHANDP/354gQQazdrlYftK1U8XX1Gy+PCb
sbv1b+03FyNkVGagfmLBZkm/7FpxSrRMyYZWQcMw2hAQIPZETB5EXb9VblgEK8lx
XVWzJvUV0rc9cKlak6EiasZvUdRvqOA7N4cR0RQlR4YYUCoaS1XFluDYYEDt60zR
WsdBMCixykankiMvY7NFqvrz8bpmcTbahj3E7IikKqkY1r+tTwtJJl0edwtD4Ez3
N5FkQgfoQs5wJrDs4x53O2FvEKBJIdHnMgv9GjInwZDq
-----END CERTIFICATE-----
