Certificate:
    Data:
        Version: 3 (0x2)
        Serial Number: 5851 (0x16db)
    Signature Algorithm: md5WithRSAEncryption
        Issuer: C=US, ST=OH, L=Columbus, O=VikingVPN, OU=MyOrganizationalUnit, CN=VikingVPN CA/name=EasyRSA/emailAddress=me@myhost.mydomain
        Validity
            Not Before: Jul 17 15:53:26 2015 GMT
            Not After : Jul 14 15:53:26 2025 GMT
        Subject: CN=Client1841Certcdadc5
        Subject Public Key Info:
            Public Key Algorithm: rsaEncryption
                Public-Key: (4096 bit)
                Modulus:
                    00:c9:69:4c:6c:56:13:8d:d4:1a:77:e3:44:81:d6:
                    7c:62:1c:83:24:dc:a8:11:f6:1c:4a:e8:74:09:f4:
                    b3:3d:0a:42:89:f3:3c:6b:9e:52:7b:8d:48:79:eb:
                    c2:f2:6c:66:a8:be:32:71:56:22:56:58:cd:b1:e1:
                    b6:de:ba:26:5b:1f:5d:c7:74:52:2a:1f:3d:11:04:
                    8c:dd:cb:66:a7:95:c2:bd:1a:31:75:7f:30:49:3f:
                    3e:17:a7:5e:4a:d5:90:81:47:08:94:8c:44:66:18:
                    3d:52:ff:40:41:29:ea:5d:f0:cb:a1:ef:ee:e2:ce:
                    31:0d:f5:30:79:54:29:b8:e2:24:f3:a3:79:b2:9a:
                    bb:ad:2c:83:a2:24:79:dc:85:82:4a:91:61:f4:68:
                    dd:08:17:69:a1:26:d5:1b:a9:38:4a:11:dc:4e:9c:
                    d2:a3:9d:18:5b:55:dc:38:d8:17:15:dc:8d:ee:94:
                    c0:99:aa:d1:28:b9:d8:a4:45:e8:6d:bf:1d:7f:b2:
                    26:04:f3:17:8c:3f:30:50:c7:05:fc:b9:c9:c8:3b:
                    1a:11:1a:e5:09:cc:be:48:d4:43:ef:99:48:a9:da:
                    18:fd:f3:f6:23:73:56:78:72:2b:6a:40:2b:00:c4:
                    4b:b0:d9:4d:85:3f:d8:59:08:da:ba:00:6f:99:d8:
                    4f:2e:5a:95:0e:f2:a7:f2:f6:b4:32:fc:f1:90:44:
                    7a:4a:01:77:7b:5f:d6:f9:33:7d:f6:c5:e8:0e:0d:
                    d7:a3:82:f0:c1:52:cc:02:fd:3d:f3:5c:2f:c7:e3:
                    66:15:d5:55:08:86:49:2f:3c:07:b5:1b:6a:f5:22:
                    73:b0:6d:b3:75:a5:2d:89:3d:cc:94:09:66:23:f3:
                    42:bb:8f:e3:34:4d:a1:68:cb:92:a7:21:b9:79:77:
                    7e:6e:3a:03:4b:25:ef:16:00:42:a7:b1:7a:f6:c8:
                    b0:c6:7e:a4:d9:71:df:92:9d:8f:20:4d:f9:65:3a:
                    9d:5c:84:49:dc:83:55:a2:1f:bb:eb:27:e3:c0:b8:
                    1a:da:62:ec:5f:ea:60:31:d0:01:41:85:e5:14:8f:
                    48:0b:4f:ce:76:62:a5:34:9e:88:d9:7a:f7:46:f5:
                    f7:99:91:ee:63:02:27:41:2e:22:fc:c0:96:31:1e:
                    2e:f8:7c:ce:69:a2:bd:5f:75:b3:34:da:2b:36:1e:
                    cb:de:01:df:07:85:14:46:b4:92:f1:33:f9:3e:b1:
                    bc:89:70:3d:5b:a0:6e:d6:d6:3f:40:c6:e8:60:da:
                    ef:57:00:ea:bf:96:50:4e:f7:cd:b8:c6:4a:86:38:
                    0d:65:cb:1e:04:4c:b2:b5:99:59:5a:34:93:88:61:
                    05:d6:3b
                Exponent: 65537 (0x10001)
        X509v3 extensions:
            X509v3 Basic Constraints: 
                CA:FALSE
            Netscape Comment: 
                Easy-RSA Generated Certificate
            X509v3 Subject Key Identifier: 
                B0:7C:92:61:30:02:DE:4D:6A:86:E9:B7:1E:B3:0F:EE:9A:14:07:60
            X509v3 Authority Key Identifier: 
                keyid:12:CD:60:04:D2:A0:80:9E:70:ED:C6:99:B8:7B:2C:C6:52:FD:19:A1
                DirName:/C=US/ST=OH/L=Columbus/O=VikingVPN/OU=MyOrganizationalUnit/CN=VikingVPN CA/name=EasyRSA/emailAddress=me@myhost.mydomain
                serial:CF:35:85:EE:80:BF:2A:3E

            X509v3 Extended Key Usage: 
                TLS Web Client Authentication
            X509v3 Key Usage: 
                Digital Signature
    Signature Algorithm: md5WithRSAEncryption
         3a:9d:f0:ec:be:f5:f7:4c:08:6b:d0:a0:1b:b5:7b:fa:8a:08:
         5d:8c:d5:57:70:01:a7:0d:e1:d2:c4:a1:e5:88:39:0a:1e:40:
         7e:a8:ed:d5:37:51:90:9d:84:c5:4d:76:ef:49:13:20:70:73:
         13:8f:c5:b5:11:ed:3a:09:9b:58:2a:37:0e:c4:a4:1c:7e:27:
         1b:e8:0d:57:90:92:30:e1:56:b3:56:dc:ee:4e:3d:42:b6:c6:
         11:1d:49:81:f7:39:24:9f:cd:e6:69:74:4f:52:d3:5c:0b:08:
         a4:c0:a0:41:eb:84:6f:dd:ec:d4:e2:44:31:c7:57:3f:58:06:
         cd:6a:63:88:1c:ee:e7:81:d3:49:46:76:b4:eb:ab:33:3c:f4:
         33:cc:e8:ea:f4:9b:68:65:7f:47:3b:f6:22:22:a2:ae:e3:e6:
         f6:38:77:70:aa:ae:73:fe:d9:6f:7b:0f:3d:bb:0e:68:25:f1:
         42:71:8c:38:92:f4:a6:56:5f:d8:4a:74:f8:19:d8:ac:2d:ce:
         eb:1a:41:18:77:3a:b7:f8:cc:de:c1:b1:aa:6b:10:3f:9f:d1:
         32:7d:b2:d8:66:39:fb:80:97:6a:e1:bb:98:91:bc:ab:cb:50:
         80:ca:54:49:2f:e4:d7:6e:75:dc:ad:05:e1:4a:d7:25:40:7c:
         1d:15:6c:17:8c:69:7f:a4:0f:79:26:ee:3f:cf:c6:f4:19:4b:
         d9:60:ea:bd:40:a7:fb:95:2a:ca:d5:c8:27:35:1d:be:ac:a4:
         8d:a2:35:2f:7d:95:3d:b8:e8:97:c1:94:8a:87:a1:75:ec:b4:
         00:c5:be:be:d2:3e:72:01:9b:a9:97:6b:7b:c5:93:98:90:72:
         c3:b1:26:27:4c:07:49:3d:c7:51:b9:b4:5a:a8:e8:af:44:ed:
         b8:87:c6:d5:e9:c3:10:ba:d6:ec:b8:96:68:39:a8:77:ea:1f:
         e1:32:e6:67:ca:38:3e:c8:ec:b1:6a:3f:38:6d:f8:bf:96:1c:
         8d:1b:a6:e9:97:14:54:88:f5:c4:46:b4:3e:d7:98:19:84:34:
         74:81:48:68:83:b0:3b:44:f4:0a:a7:4f:33:f9:8f:3c:b7:1b:
         74:e4:a6:6f:0c:a5:ba:06:ec:1a:59:a7:05:2c:9a:36:16:f5:
         c3:b7:7c:07:ff:40:fe:b3:1b:90:b5:2a:fc:f9:8b:02:cc:50:
         ea:18:0e:aa:51:60:42:b3:55:aa:a9:fb:c1:e1:09:50:ac:1c:
         21:6c:30:1e:4a:58:00:e4:d7:b2:8a:f3:0a:9b:58:7b:14:62:
         e5:ca:1c:05:5d:60:3f:d2:05:3f:23:6c:b2:71:ec:25:ca:47:
         93:f3:21:9b:f3:17:63:fd
-----BEGIN CERTIFICATE-----
MIIGrTCCBJWgAwIBAgICFtswDQYJKoZIhvcNAQEEBQAwgawxCzAJBgNVBAYTAlVT
MQswCQYDVQQIEwJPSDERMA8GA1UEBxMIQ29sdW1idXMxEjAQBgNVBAoTCVZpa2lu
Z1ZQTjEdMBsGA1UECxMUTXlPcmdhbml6YXRpb25hbFVuaXQxFTATBgNVBAMTDFZp
a2luZ1ZQTiBDQTEQMA4GA1UEKRMHRWFzeVJTQTEhMB8GCSqGSIb3DQEJARYSbWVA
bXlob3N0Lm15ZG9tYWluMB4XDTE1MDcxNzE1NTMyNloXDTI1MDcxNDE1NTMyNlow
HzEdMBsGA1UEAxMUQ2xpZW50MTg0MUNlcnRjZGFkYzUwggIiMA0GCSqGSIb3DQEB
AQUAA4ICDwAwggIKAoICAQDJaUxsVhON1Bp340SB1nxiHIMk3KgR9hxK6HQJ9LM9
CkKJ8zxrnlJ7jUh568LybGaovjJxViJWWM2x4bbeuiZbH13HdFIqHz0RBIzdy2an
lcK9GjF1fzBJPz4Xp15K1ZCBRwiUjERmGD1S/0BBKepd8Muh7+7izjEN9TB5VCm4
4iTzo3mymrutLIOiJHnchYJKkWH0aN0IF2mhJtUbqThKEdxOnNKjnRhbVdw42BcV
3I3ulMCZqtEoudikRehtvx1/siYE8xeMPzBQxwX8ucnIOxoRGuUJzL5I1EPvmUip
2hj98/Yjc1Z4citqQCsAxEuw2U2FP9hZCNq6AG+Z2E8uWpUO8qfy9rQy/PGQRHpK
AXd7X9b5M332xegODdejgvDBUswC/T3zXC/H42YV1VUIhkkvPAe1G2r1InOwbbN1
pS2JPcyUCWYj80K7j+M0TaFoy5KnIbl5d35uOgNLJe8WAEKnsXr2yLDGfqTZcd+S
nY8gTfllOp1chEncg1WiH7vrJ+PAuBraYuxf6mAx0AFBheUUj0gLT852YqU0nojZ
evdG9feZke5jAidBLiL8wJYxHi74fM5por1fdbM02is2HsveAd8HhRRGtJLxM/k+
sbyJcD1boG7W1j9Axuhg2u9XAOq/llBO9824xkqGOA1lyx4ETLK1mVlaNJOIYQXW
OwIDAQABo4IBYzCCAV8wCQYDVR0TBAIwADAtBglghkgBhvhCAQ0EIBYeRWFzeS1S
U0EgR2VuZXJhdGVkIENlcnRpZmljYXRlMB0GA1UdDgQWBBSwfJJhMALeTWqG6bce
sw/umhQHYDCB4QYDVR0jBIHZMIHWgBQSzWAE0qCAnnDtxpm4eyzGUv0ZoaGBsqSB
rzCBrDELMAkGA1UEBhMCVVMxCzAJBgNVBAgTAk9IMREwDwYDVQQHEwhDb2x1bWJ1
czESMBAGA1UEChMJVmlraW5nVlBOMR0wGwYDVQQLExRNeU9yZ2FuaXphdGlvbmFs
VW5pdDEVMBMGA1UEAxMMVmlraW5nVlBOIENBMRAwDgYDVQQpEwdFYXN5UlNBMSEw
HwYJKoZIhvcNAQkBFhJtZUBteWhvc3QubXlkb21haW6CCQDPNYXugL8qPjATBgNV
HSUEDDAKBggrBgEFBQcDAjALBgNVHQ8EBAMCB4AwDQYJKoZIhvcNAQEEBQADggIB
ADqd8Oy+9fdMCGvQoBu1e/qKCF2M1VdwAacN4dLEoeWIOQoeQH6o7dU3UZCdhMVN
du9JEyBwcxOPxbUR7ToJm1gqNw7EpBx+JxvoDVeQkjDhVrNW3O5OPUK2xhEdSYH3
OSSfzeZpdE9S01wLCKTAoEHrhG/d7NTiRDHHVz9YBs1qY4gc7ueB00lGdrTrqzM8
9DPM6Or0m2hlf0c79iIioq7j5vY4d3CqrnP+2W97Dz27Dmgl8UJxjDiS9KZWX9hK
dPgZ2KwtzusaQRh3Orf4zN7BsaprED+f0TJ9sthmOfuAl2rhu5iRvKvLUIDKVEkv
5NduddytBeFK1yVAfB0VbBeMaX+kD3km7j/PxvQZS9lg6r1Ap/uVKsrVyCc1Hb6s
pI2iNS99lT246JfBlIqHoXXstADFvr7SPnIBm6mXa3vFk5iQcsOxJidMB0k9x1G5
tFqo6K9E7biHxtXpwxC61uy4lmg5qHfqH+Ey5mfKOD7I7LFqPzht+L+WHI0bpumX
FFSI9cRGtD7XmBmENHSBSGiDsDtE9AqnTzP5jzy3G3Tkpm8MpboG7BpZpwUsmjYW
9cO3fAf/QP6zG5C1Kvz5iwLMUOoYDqpRYEKzVaqp+8HhCVCsHCFsMB5KWADk17KK
8wqbWHsUYuXKHAVdYD/SBT8jbLJx7CXKR5PzIZvzF2P9
-----END CERTIFICATE-----
