Certificate:
    Data:
        Version: 3 (0x2)
        Serial Number: 4950 (0x1356)
    Signature Algorithm: md5WithRSAEncryption
        Issuer: C=US, ST=OH, L=Columbus, O=VikingVPN, OU=MyOrganizationalUnit, CN=VikingVPN CA/name=EasyRSA/emailAddress=me@myhost.mydomain
        Validity
            Not Before: Apr 13 02:22:58 2015 GMT
            Not After : Apr 10 02:22:58 2025 GMT
        Subject: CN=Client1364Cert582bfe
        Subject Public Key Info:
            Public Key Algorithm: rsaEncryption
                Public-Key: (4096 bit)
                Modulus:
                    00:e5:89:6a:9c:55:54:e6:ba:33:0c:e1:e6:63:77:
                    5c:e2:ab:ce:d2:29:cd:e4:ab:88:c0:02:0e:87:3a:
                    27:48:d8:ae:9b:15:d1:87:c0:31:89:97:85:d3:7a:
                    50:9a:8f:f0:73:05:c6:59:02:42:9f:82:e4:9f:83:
                    7c:12:0b:3c:e6:2f:77:ec:1b:7c:aa:a8:81:92:1e:
                    1a:30:13:93:e1:cb:03:b8:2a:7f:7e:d7:6c:0c:21:
                    f7:4f:b5:7a:fa:7b:5c:af:f1:34:c6:c6:6d:b1:3c:
                    c3:61:6b:ea:dd:89:32:1a:51:d5:8e:c2:c5:0a:60:
                    b3:5b:48:22:63:71:c5:9e:b5:f1:7c:ea:24:8a:3a:
                    19:40:1d:4b:de:ab:19:eb:8d:82:f3:33:9c:2c:e9:
                    f9:60:d6:16:82:81:72:f6:c8:bc:75:17:9a:52:48:
                    3e:3d:95:f8:28:40:71:c5:89:f5:78:3b:c9:7b:f3:
                    ac:1c:ed:d4:f9:88:ec:17:44:52:f7:3e:cd:13:e8:
                    78:ba:53:37:bd:27:6b:5b:14:15:39:1d:ba:fb:bd:
                    71:11:ae:97:41:d5:1e:17:4b:72:e3:22:25:d0:03:
                    b5:b6:cb:51:fc:3c:c9:9c:70:ab:94:a3:92:79:eb:
                    f8:60:73:1e:de:a9:73:f2:0b:1d:5c:7d:93:b2:ad:
                    56:77:fe:aa:4a:78:3b:59:bf:34:ef:7a:58:39:91:
                    7e:6a:7a:7c:05:2b:94:be:e8:5a:59:d3:3a:2a:88:
                    da:b4:2c:a6:6b:d1:81:5d:12:4a:ba:d4:f2:09:2d:
                    64:a4:60:a8:66:df:30:9e:a6:71:18:eb:f5:f8:ad:
                    42:b0:52:36:a1:28:87:6b:ed:b3:4f:21:43:83:c7:
                    46:45:9a:e3:2c:a9:33:07:7c:ff:58:dd:f2:bd:a2:
                    40:26:41:c3:71:01:64:b0:7b:1b:c3:bc:d4:60:ca:
                    c5:0e:cf:75:4c:44:00:7d:de:97:8e:cd:1e:86:82:
                    6e:3e:6e:26:1c:73:c4:78:ab:64:4a:ad:4c:74:0e:
                    8a:3c:60:c4:7b:d1:5b:b5:93:f9:95:d7:71:c2:9c:
                    6d:50:a9:65:d4:07:27:d3:22:57:58:90:b7:25:84:
                    21:b0:fd:21:5c:4f:6b:e1:85:5d:44:bb:a0:8e:7f:
                    fe:52:c3:ad:17:d7:07:53:fe:25:5a:02:51:6a:2d:
                    7a:bf:4d:05:0b:d7:74:fd:ae:c2:a4:78:f8:8c:69:
                    7b:39:30:d9:f9:ef:cb:50:bc:e5:95:b2:85:0d:ec:
                    4d:6a:e5:30:8e:5d:4b:dc:34:57:08:7d:ed:f5:e9:
                    5d:f9:53:1e:16:05:7e:07:92:e8:85:f7:8a:aa:05:
                    79:5a:2f
                Exponent: 65537 (0x10001)
        X509v3 extensions:
            X509v3 Basic Constraints: 
                CA:FALSE
            Netscape Comment: 
                Easy-RSA Generated Certificate
            X509v3 Subject Key Identifier: 
                D9:67:41:BC:06:2A:5E:90:B7:8B:AB:67:D9:F8:12:BD:11:D7:D6:B8
            X509v3 Authority Key Identifier: 
                keyid:12:CD:60:04:D2:A0:80:9E:70:ED:C6:99:B8:7B:2C:C6:52:FD:19:A1
                DirName:/C=US/ST=OH/L=Columbus/O=VikingVPN/OU=MyOrganizationalUnit/CN=VikingVPN CA/name=EasyRSA/emailAddress=me@myhost.mydomain
                serial:CF:35:85:EE:80:BF:2A:3E

            X509v3 Extended Key Usage: 
                TLS Web Client Authentication
            X509v3 Key Usage: 
                Digital Signature
    Signature Algorithm: md5WithRSAEncryption
         27:6c:36:de:56:32:fd:dd:df:15:23:c2:a8:bb:15:a2:94:b3:
         29:9e:16:27:94:62:63:fc:60:4d:c7:2f:4a:b3:13:8c:8f:a0:
         f2:f4:c0:33:c5:d2:60:03:b7:09:11:f2:84:80:ab:92:7e:7a:
         d4:68:1f:e0:07:67:48:b6:32:75:fb:5f:b5:58:07:e6:f8:e2:
         d5:32:61:05:9d:b5:61:39:80:0b:10:ca:c3:5e:13:f7:8b:4a:
         0a:81:e6:ee:1b:ac:61:36:45:42:40:f5:45:64:22:ea:6f:c3:
         4f:93:55:09:5d:cc:63:62:bc:ac:6a:01:45:50:08:1b:47:6d:
         12:51:e0:02:7f:45:84:9f:74:54:01:6f:c5:aa:6c:b4:52:90:
         84:76:18:ff:06:d2:64:24:a3:d4:e1:90:bf:32:0d:ad:27:31:
         d6:77:7c:5e:ee:fd:69:d5:3a:5f:cc:46:2d:ad:2b:87:22:e4:
         c5:05:28:92:4f:27:66:70:07:6f:87:14:57:b3:5d:95:eb:b3:
         4d:f7:5c:f8:73:d4:1b:d1:96:3e:8a:7d:43:3f:26:2f:81:60:
         9e:b4:6a:c8:0a:59:bd:1e:f0:26:87:6a:c3:75:68:45:50:0b:
         d9:2d:6c:78:2c:fd:de:b7:bf:c7:e8:76:8c:43:27:19:0a:fa:
         39:22:45:94:cb:82:93:4d:4d:63:4b:a1:ac:51:73:13:6f:18:
         fd:95:14:86:43:e2:d6:bb:67:1e:88:56:11:2e:66:99:47:f5:
         fc:b7:57:29:8c:82:e6:07:d8:4c:20:ff:1a:2a:42:db:58:ee:
         de:23:92:4f:6c:2f:5a:d8:f1:85:7a:04:ac:3b:f9:ba:29:d3:
         f4:52:82:32:70:2b:22:74:2a:6f:15:9b:3a:aa:fb:94:5b:bc:
         fe:0a:53:1d:57:4d:a7:de:52:7e:64:6d:be:22:d7:79:a5:a4:
         fc:db:98:3e:7e:30:52:1f:60:ce:2e:25:5c:03:2c:72:20:88:
         8d:b2:35:92:c5:1c:d5:44:37:ac:8b:d6:e6:42:d3:01:78:ef:
         ce:46:3e:f3:e7:5b:8a:30:3e:17:72:27:8f:af:e9:b8:f6:b2:
         27:55:25:91:19:43:a7:fd:37:37:b1:47:3e:b3:20:c3:fc:88:
         74:f4:5e:00:4a:7e:52:4d:c4:c1:4a:dd:06:3f:36:cb:a0:e2:
         1b:85:f1:b3:37:1b:d5:3a:a5:7e:99:d9:57:cd:7e:e1:bb:d2:
         b5:09:f3:3a:25:f5:60:66:0a:a9:82:ba:ae:2f:d6:b6:7f:3a:
         6a:21:f6:7d:1d:c8:1f:57:b0:09:8d:6d:f6:c5:09:b6:d0:ba:
         16:64:cb:0b:f3:e2:dd:3c
-----BEGIN CERTIFICATE-----
MIIGrTCCBJWgAwIBAgICE1YwDQYJKoZIhvcNAQEEBQAwgawxCzAJBgNVBAYTAlVT
MQswCQYDVQQIEwJPSDERMA8GA1UEBxMIQ29sdW1idXMxEjAQBgNVBAoTCVZpa2lu
Z1ZQTjEdMBsGA1UECxMUTXlPcmdhbml6YXRpb25hbFVuaXQxFTATBgNVBAMTDFZp
a2luZ1ZQTiBDQTEQMA4GA1UEKRMHRWFzeVJTQTEhMB8GCSqGSIb3DQEJARYSbWVA
bXlob3N0Lm15ZG9tYWluMB4XDTE1MDQxMzAyMjI1OFoXDTI1MDQxMDAyMjI1OFow
HzEdMBsGA1UEAxMUQ2xpZW50MTM2NENlcnQ1ODJiZmUwggIiMA0GCSqGSIb3DQEB
AQUAA4ICDwAwggIKAoICAQDliWqcVVTmujMM4eZjd1ziq87SKc3kq4jAAg6HOidI
2K6bFdGHwDGJl4XTelCaj/BzBcZZAkKfguSfg3wSCzzmL3fsG3yqqIGSHhowE5Ph
ywO4Kn9+12wMIfdPtXr6e1yv8TTGxm2xPMNha+rdiTIaUdWOwsUKYLNbSCJjccWe
tfF86iSKOhlAHUveqxnrjYLzM5ws6flg1haCgXL2yLx1F5pSSD49lfgoQHHFifV4
O8l786wc7dT5iOwXRFL3Ps0T6Hi6Uze9J2tbFBU5Hbr7vXERrpdB1R4XS3LjIiXQ
A7W2y1H8PMmccKuUo5J56/hgcx7eqXPyCx1cfZOyrVZ3/qpKeDtZvzTvelg5kX5q
enwFK5S+6FpZ0zoqiNq0LKZr0YFdEkq61PIJLWSkYKhm3zCepnEY6/X4rUKwUjah
KIdr7bNPIUODx0ZFmuMsqTMHfP9Y3fK9okAmQcNxAWSwexvDvNRgysUOz3VMRAB9
3peOzR6Ggm4+biYcc8R4q2RKrUx0Doo8YMR70Vu1k/mV13HCnG1QqWXUByfTIldY
kLclhCGw/SFcT2vhhV1Eu6COf/5Sw60X1wdT/iVaAlFqLXq/TQUL13T9rsKkePiM
aXs5MNn578tQvOWVsoUN7E1q5TCOXUvcNFcIfe316V35Ux4WBX4HkuiF94qqBXla
LwIDAQABo4IBYzCCAV8wCQYDVR0TBAIwADAtBglghkgBhvhCAQ0EIBYeRWFzeS1S
U0EgR2VuZXJhdGVkIENlcnRpZmljYXRlMB0GA1UdDgQWBBTZZ0G8BipekLeLq2fZ
+BK9EdfWuDCB4QYDVR0jBIHZMIHWgBQSzWAE0qCAnnDtxpm4eyzGUv0ZoaGBsqSB
rzCBrDELMAkGA1UEBhMCVVMxCzAJBgNVBAgTAk9IMREwDwYDVQQHEwhDb2x1bWJ1
czESMBAGA1UEChMJVmlraW5nVlBOMR0wGwYDVQQLExRNeU9yZ2FuaXphdGlvbmFs
VW5pdDEVMBMGA1UEAxMMVmlraW5nVlBOIENBMRAwDgYDVQQpEwdFYXN5UlNBMSEw
HwYJKoZIhvcNAQkBFhJtZUBteWhvc3QubXlkb21haW6CCQDPNYXugL8qPjATBgNV
HSUEDDAKBggrBgEFBQcDAjALBgNVHQ8EBAMCB4AwDQYJKoZIhvcNAQEEBQADggIB
ACdsNt5WMv3d3xUjwqi7FaKUsymeFieUYmP8YE3HL0qzE4yPoPL0wDPF0mADtwkR
8oSAq5J+etRoH+AHZ0i2MnX7X7VYB+b44tUyYQWdtWE5gAsQysNeE/eLSgqB5u4b
rGE2RUJA9UVkIupvw0+TVQldzGNivKxqAUVQCBtHbRJR4AJ/RYSfdFQBb8WqbLRS
kIR2GP8G0mQko9ThkL8yDa0nMdZ3fF7u/WnVOl/MRi2tK4ci5MUFKJJPJ2ZwB2+H
FFezXZXrs033XPhz1BvRlj6KfUM/Ji+BYJ60asgKWb0e8CaHasN1aEVQC9ktbHgs
/d63v8fodoxDJxkK+jkiRZTLgpNNTWNLoaxRcxNvGP2VFIZD4ta7Zx6IVhEuZplH
9fy3VymMguYH2Ewg/xoqQttY7t4jkk9sL1rY8YV6BKw7+bop0/RSgjJwKyJ0Km8V
mzqq+5RbvP4KUx1XTafeUn5kbb4i13mlpPzbmD5+MFIfYM4uJVwDLHIgiI2yNZLF
HNVEN6yL1uZC0wF4785GPvPnW4owPhdyJ4+v6bj2sidVJZEZQ6f9NzexRz6zIMP8
iHT0XgBKflJNxMFK3QY/Nsug4huF8bM3G9U6pX6Z2VfNfuG70rUJ8zol9WBmCqmC
uq4v1rZ/Omoh9n0dyB9XsAmNbfbFCbbQuhZkywvz4t08
-----END CERTIFICATE-----
