Certificate:
    Data:
        Version: 3 (0x2)
        Serial Number: 8841 (0x2289)
    Signature Algorithm: sha256WithRSAEncryption
        Issuer: C=US, ST=OH, L=Columbus, O=VikingVPN, OU=MyOrganizationalUnit, CN=VikingVPN CA/name=EasyRSA/emailAddress=me@myhost.mydomain
        Validity
            Not Before: Aug 19 02:21:20 2016 GMT
            Not After : Aug 17 02:21:20 2026 GMT
        Subject: CN=Client2225Cert05528d
        Subject Public Key Info:
            Public Key Algorithm: rsaEncryption
                Public-Key: (4096 bit)
                Modulus:
                    00:cc:21:8a:19:63:f6:4d:af:79:65:5b:9c:97:6f:
                    44:49:e3:67:e9:57:af:69:76:9b:70:59:01:e7:7c:
                    3b:33:b0:59:12:fa:19:cc:77:82:77:34:ef:0b:c5:
                    22:c9:53:27:50:e6:f6:4c:3c:85:d3:aa:68:d8:1b:
                    70:c5:71:9e:22:80:25:60:10:74:f2:aa:f9:36:d8:
                    e9:2a:3d:f8:92:7c:11:b3:5a:31:09:a0:26:59:30:
                    4f:0b:e6:97:5d:d1:15:f5:ea:2a:59:90:b5:4e:60:
                    65:22:1a:df:83:0d:a6:f6:35:fa:54:99:66:f7:56:
                    d3:c6:98:19:8f:08:4f:c7:71:ad:f8:5d:71:10:a8:
                    74:08:8a:27:d9:6d:72:10:83:81:69:76:52:2f:2b:
                    4b:25:e0:40:fb:3c:f2:49:3e:d9:70:f6:3e:80:f5:
                    48:45:2d:11:d5:14:89:ca:a9:5a:b2:50:cd:8c:6b:
                    73:a2:2b:d4:88:36:22:e7:2c:b0:5c:37:15:75:af:
                    a5:24:04:3f:98:14:8e:6c:3c:02:e5:77:60:78:e3:
                    f5:39:a3:ad:fa:67:d5:c7:ce:6e:1f:77:eb:f9:76:
                    fd:ed:d1:d4:37:df:3e:f0:91:f0:85:4f:3e:1a:9f:
                    22:e3:ac:6a:a2:64:ff:d2:31:aa:45:f3:23:fe:bf:
                    fe:46:0c:0d:5b:23:70:ec:bc:14:7a:53:76:ca:a1:
                    c5:9a:40:e5:62:69:5c:39:2a:99:9d:b7:36:21:39:
                    8e:dc:98:30:9f:95:f3:c5:df:fb:e9:bb:78:c2:d4:
                    ef:2d:ba:df:75:10:2e:90:ad:5a:9a:eb:39:bc:ca:
                    46:74:f9:f8:06:1e:f8:85:86:2a:33:3e:e7:80:07:
                    38:69:62:69:12:fd:3d:48:b8:6e:31:c0:c0:b6:98:
                    ab:88:16:83:2d:63:74:a6:3f:a8:92:d4:a5:4f:49:
                    27:2f:e4:75:83:10:17:15:96:ff:2d:e4:6b:8d:15:
                    de:49:dd:91:7c:a2:ba:72:94:59:ae:fa:cd:ba:02:
                    d5:5e:f9:d4:c4:30:8e:c9:8b:7e:f8:b7:ba:e1:38:
                    96:3e:d3:84:ca:85:30:79:55:28:f8:1c:1a:54:85:
                    ec:8f:42:52:c7:19:f1:11:b0:fd:fa:ad:cb:12:e6:
                    ac:e6:74:d0:39:10:0b:8d:b7:de:73:30:cc:0e:13:
                    c0:95:e1:5c:f3:43:c7:88:a6:8b:63:8f:55:e1:be:
                    e2:91:01:1e:3e:63:49:05:8f:27:7e:be:e6:82:ad:
                    b9:7d:7b:56:50:7e:61:a0:15:3f:6f:e6:30:bf:3c:
                    33:2f:99:6b:61:b8:9e:ca:0d:56:8b:ab:c4:3d:16:
                    bc:62:85
                Exponent: 65537 (0x10001)
        X509v3 extensions:
            X509v3 Basic Constraints: 
                CA:FALSE
            Netscape Comment: 
                Easy-RSA Generated Certificate
            X509v3 Subject Key Identifier: 
                60:86:B4:0A:76:84:14:3A:EA:32:0F:07:4A:09:1D:58:E7:C7:5C:52
            X509v3 Authority Key Identifier: 
                keyid:12:CD:60:04:D2:A0:80:9E:70:ED:C6:99:B8:7B:2C:C6:52:FD:19:A1
                DirName:/C=US/ST=OH/L=Columbus/O=VikingVPN/OU=MyOrganizationalUnit/CN=VikingVPN CA/name=EasyRSA/emailAddress=me@myhost.mydomain
                serial:CF:35:85:EE:80:BF:2A:3E

            X509v3 Extended Key Usage: 
                TLS Web Client Authentication
            X509v3 Key Usage: 
                Digital Signature
    Signature Algorithm: sha256WithRSAEncryption
         1f:a5:cd:b0:95:91:60:7c:94:94:09:de:e9:14:d7:31:1a:29:
         2a:b7:f0:5b:d7:06:fe:ab:13:f6:12:01:07:ab:64:05:2c:2d:
         c8:23:d1:f0:24:c9:3b:52:37:c7:6a:bc:64:38:99:0b:8f:8d:
         99:af:0c:ca:95:94:49:bc:09:33:9c:86:50:8d:8e:fc:ee:90:
         4c:14:0e:df:d6:b4:06:e3:6f:b0:28:b3:88:ba:45:bb:52:39:
         82:6c:34:fd:14:eb:c2:47:7f:fd:10:4d:30:e0:a4:95:a7:87:
         db:93:8b:74:a1:58:5b:4b:3e:7a:b1:b1:38:ac:d1:70:49:a9:
         3e:57:ef:90:5b:5c:5e:59:49:23:8b:c1:b6:34:5b:db:bb:8c:
         07:1d:61:95:2a:fb:4c:a7:98:d2:14:ed:92:d3:b6:e7:b3:ed:
         78:66:7e:4f:b4:6d:13:1f:96:f8:d1:73:21:20:1f:31:f0:82:
         08:af:f4:13:5b:8e:dd:31:31:f9:88:96:4c:58:ee:80:86:b2:
         55:b8:47:76:b6:fe:06:6c:75:42:76:f0:b8:62:99:61:e5:db:
         d5:8c:2b:0e:c4:b7:92:78:3e:32:a6:96:58:a1:c1:a7:5c:3f:
         ee:70:d4:22:df:a7:4f:a4:7f:61:47:6a:c6:29:e4:8d:bc:e5:
         56:a1:af:ed:0d:a7:aa:33:fb:48:83:8e:50:3c:bf:84:2f:fa:
         4f:4e:c7:a2:6a:fd:e0:a7:95:bb:93:fe:ef:23:a2:b7:8f:1e:
         de:96:bc:c0:92:5e:e9:f2:7a:4c:79:ae:0f:e5:2c:29:22:68:
         d3:7e:0f:74:86:2c:6f:4f:ed:2f:12:71:da:d9:a4:4e:5c:07:
         06:af:81:be:3d:38:d8:a6:b0:be:ab:52:a6:c1:23:4c:c7:97:
         e7:1b:41:75:ce:e9:ec:6f:a1:b5:09:56:b9:f3:58:74:6d:70:
         0b:3d:a2:f7:13:1c:f9:8e:13:f6:99:04:4a:c9:2c:3f:b1:5e:
         6f:fe:6f:26:1a:53:8f:48:aa:d6:01:83:3c:e1:22:07:57:07:
         b4:71:91:dd:f9:52:be:05:27:dc:84:e4:39:aa:27:2e:8d:ac:
         a0:5a:8e:7c:a6:ef:cf:dd:50:e1:6c:51:4b:8a:28:84:60:bc:
         01:96:56:0b:c0:5c:e2:e1:9b:41:ec:a4:33:11:c4:fe:5c:18:
         20:1d:fa:67:10:fc:6b:1f:2e:a2:3d:ad:3c:d8:ae:57:28:b7:
         a8:63:6d:77:b0:42:2d:bb:7e:81:2f:8a:4e:3d:6d:74:86:10:
         af:bb:db:44:ec:b3:a6:49:5c:56:b1:e6:dc:90:2d:13:93:b4:
         c0:0a:79:11:07:49:64:0f
-----BEGIN CERTIFICATE-----
MIIGrTCCBJWgAwIBAgICIokwDQYJKoZIhvcNAQELBQAwgawxCzAJBgNVBAYTAlVT
MQswCQYDVQQIEwJPSDERMA8GA1UEBxMIQ29sdW1idXMxEjAQBgNVBAoTCVZpa2lu
Z1ZQTjEdMBsGA1UECxMUTXlPcmdhbml6YXRpb25hbFVuaXQxFTATBgNVBAMTDFZp
a2luZ1ZQTiBDQTEQMA4GA1UEKRMHRWFzeVJTQTEhMB8GCSqGSIb3DQEJARYSbWVA
bXlob3N0Lm15ZG9tYWluMB4XDTE2MDgxOTAyMjEyMFoXDTI2MDgxNzAyMjEyMFow
HzEdMBsGA1UEAxMUQ2xpZW50MjIyNUNlcnQwNTUyOGQwggIiMA0GCSqGSIb3DQEB
AQUAA4ICDwAwggIKAoICAQDMIYoZY/ZNr3llW5yXb0RJ42fpV69pdptwWQHnfDsz
sFkS+hnMd4J3NO8LxSLJUydQ5vZMPIXTqmjYG3DFcZ4igCVgEHTyqvk22OkqPfiS
fBGzWjEJoCZZME8L5pdd0RX16ipZkLVOYGUiGt+DDab2NfpUmWb3VtPGmBmPCE/H
ca34XXEQqHQIiifZbXIQg4FpdlIvK0sl4ED7PPJJPtlw9j6A9UhFLRHVFInKqVqy
UM2Ma3OiK9SINiLnLLBcNxV1r6UkBD+YFI5sPALld2B44/U5o636Z9XHzm4fd+v5
dv3t0dQ33z7wkfCFTz4anyLjrGqiZP/SMapF8yP+v/5GDA1bI3DsvBR6U3bKocWa
QOViaVw5KpmdtzYhOY7cmDCflfPF3/vpu3jC1O8tut91EC6QrVqa6zm8ykZ0+fgG
HviFhiozPueABzhpYmkS/T1IuG4xwMC2mKuIFoMtY3SmP6iS1KVPSScv5HWDEBcV
lv8t5GuNFd5J3ZF8orpylFmu+s26AtVe+dTEMI7Ji374t7rhOJY+04TKhTB5VSj4
HBpUheyPQlLHGfERsP36rcsS5qzmdNA5EAuNt95zMMwOE8CV4VzzQ8eIpotjj1Xh
vuKRAR4+Y0kFjyd+vuaCrbl9e1ZQfmGgFT9v5jC/PDMvmWthuJ7KDVaLq8Q9Frxi
hQIDAQABo4IBYzCCAV8wCQYDVR0TBAIwADAtBglghkgBhvhCAQ0EIBYeRWFzeS1S
U0EgR2VuZXJhdGVkIENlcnRpZmljYXRlMB0GA1UdDgQWBBRghrQKdoQUOuoyDwdK
CR1Y58dcUjCB4QYDVR0jBIHZMIHWgBQSzWAE0qCAnnDtxpm4eyzGUv0ZoaGBsqSB
rzCBrDELMAkGA1UEBhMCVVMxCzAJBgNVBAgTAk9IMREwDwYDVQQHEwhDb2x1bWJ1
czESMBAGA1UEChMJVmlraW5nVlBOMR0wGwYDVQQLExRNeU9yZ2FuaXphdGlvbmFs
VW5pdDEVMBMGA1UEAxMMVmlraW5nVlBOIENBMRAwDgYDVQQpEwdFYXN5UlNBMSEw
HwYJKoZIhvcNAQkBFhJtZUBteWhvc3QubXlkb21haW6CCQDPNYXugL8qPjATBgNV
HSUEDDAKBggrBgEFBQcDAjALBgNVHQ8EBAMCB4AwDQYJKoZIhvcNAQELBQADggIB
AB+lzbCVkWB8lJQJ3ukU1zEaKSq38FvXBv6rE/YSAQerZAUsLcgj0fAkyTtSN8dq
vGQ4mQuPjZmvDMqVlEm8CTOchlCNjvzukEwUDt/WtAbjb7Aos4i6RbtSOYJsNP0U
68JHf/0QTTDgpJWnh9uTi3ShWFtLPnqxsTis0XBJqT5X75BbXF5ZSSOLwbY0W9u7
jAcdYZUq+0ynmNIU7ZLTtuez7Xhmfk+0bRMflvjRcyEgHzHwggiv9BNbjt0xMfmI
lkxY7oCGslW4R3a2/gZsdUJ28LhimWHl29WMKw7Et5J4PjKmllihwadcP+5w1CLf
p0+kf2FHasYp5I285Vahr+0Np6oz+0iDjlA8v4Qv+k9Ox6Jq/eCnlbuT/u8joreP
Ht6WvMCSXunyekx5rg/lLCkiaNN+D3SGLG9P7S8ScdrZpE5cBwavgb49ONimsL6r
UqbBI0zHl+cbQXXO6exvobUJVrnzWHRtcAs9ovcTHPmOE/aZBErJLD+xXm/+byYa
U49IqtYBgzzhIgdXB7Rxkd35Ur4FJ9yE5DmqJy6NrKBajnym78/dUOFsUUuKKIRg
vAGWVgvAXOLhm0HspDMRxP5cGCAd+mcQ/GsfLqI9rTzYrlcot6hjbXewQi27foEv
ik49bXSGEK+720Tss6ZJXFax5tyQLROTtMAKeREHSWQP
-----END CERTIFICATE-----
