Certificate:
    Data:
        Version: 3 (0x2)
        Serial Number: 12521 (0x30e9)
    Signature Algorithm: sha256WithRSAEncryption
        Issuer: C=US, ST=OH, L=Columbus, O=VikingVPN, OU=MyOrganizationalUnit, CN=VikingVPN CA/name=EasyRSA/emailAddress=me@myhost.mydomain
        Validity
            Not Before: Feb  4 21:14:15 2018 GMT
            Not After : Feb  2 21:14:15 2028 GMT
        Subject: CN=Client3215Cert6fe2a4
        Subject Public Key Info:
            Public Key Algorithm: rsaEncryption
                Public-Key: (4096 bit)
                Modulus:
                    00:cb:fa:a4:84:dd:48:66:7a:28:60:d1:5a:98:01:
                    8a:33:20:b8:ef:51:17:59:db:18:03:1b:f0:5f:0b:
                    5d:7e:5b:00:5b:d3:6c:1c:88:18:ba:3c:77:dd:f4:
                    eb:26:22:a9:2a:c9:50:ed:c5:1a:ee:bb:3a:77:45:
                    1b:c3:2a:1d:fe:e9:04:af:f7:ba:55:98:85:d5:b5:
                    b9:d8:3e:62:82:6b:8e:83:49:74:6d:6f:7e:e0:30:
                    a9:68:7d:42:b4:c6:8e:66:26:68:e4:cb:2e:19:a0:
                    9e:b4:56:6b:d8:ad:a2:a6:bb:43:11:82:9c:5f:2b:
                    44:60:68:d2:b9:62:3d:71:2e:28:85:1e:f7:69:1d:
                    d2:36:fa:88:7a:d8:c6:f7:b7:14:3e:5b:95:3e:77:
                    6a:54:a3:f0:53:52:11:b5:d1:37:60:df:e0:28:3b:
                    92:6e:71:43:d9:4d:86:e4:05:5e:3e:e1:52:d5:d9:
                    25:a1:de:07:aa:2f:48:2c:ec:16:54:d8:55:2f:39:
                    52:12:75:50:ed:bd:e0:f7:ca:0e:67:9a:f1:de:d9:
                    f1:49:b4:27:6f:ae:c7:c9:2a:14:73:fd:58:c5:61:
                    2b:e3:0c:ee:ea:2f:76:da:1c:8d:58:36:e0:c9:be:
                    59:5a:47:f9:84:77:25:51:cb:83:2f:6d:ac:e3:0d:
                    bb:17:44:ef:8f:40:8b:8a:14:7a:ab:d4:63:1c:4e:
                    20:2b:d0:66:5a:4b:45:63:28:42:18:ec:f2:82:78:
                    8e:09:3e:43:4d:34:34:c8:38:46:d2:f5:48:34:75:
                    e9:e3:f1:b3:c3:43:ae:e9:62:82:d3:9d:15:b6:c0:
                    f4:ce:2c:f7:e4:07:5e:3b:ee:8a:29:ea:42:d6:a6:
                    0a:93:19:71:80:20:81:4f:c4:35:ac:e4:14:81:46:
                    b0:0a:6c:a9:81:eb:c1:b0:68:89:b0:a3:1f:74:d1:
                    ac:2b:5e:1c:3c:31:ab:25:01:77:7f:6f:ec:52:cd:
                    81:b0:b0:5e:6e:ca:e3:76:e9:86:87:4f:54:d3:11:
                    be:a7:5d:94:71:4e:d9:86:df:fc:82:04:1b:b9:7e:
                    36:f8:4d:60:2f:2a:f0:0a:82:78:41:42:4e:e1:e8:
                    32:77:a4:a0:2b:31:c0:e7:49:61:a3:2a:17:53:5c:
                    e0:51:ea:3f:3e:fc:b7:70:f8:42:71:79:9c:0f:df:
                    b7:ab:22:45:bc:c2:da:ce:6a:1f:6a:6e:cb:c9:54:
                    1c:01:d7:2c:04:79:50:e5:23:cb:5c:4b:48:03:a3:
                    96:89:ad:16:ce:73:a4:8a:c9:ec:ab:e8:39:87:cc:
                    55:5d:2b:46:67:18:6e:59:9f:19:2f:ba:0e:2d:8b:
                    25:38:6d
                Exponent: 65537 (0x10001)
        X509v3 extensions:
            X509v3 Basic Constraints: 
                CA:FALSE
            Netscape Comment: 
                Easy-RSA Generated Certificate
            X509v3 Subject Key Identifier: 
                64:9F:DA:33:D7:EA:68:05:90:84:64:0B:1D:0E:91:35:DA:39:7E:F2
            X509v3 Authority Key Identifier: 
                keyid:12:CD:60:04:D2:A0:80:9E:70:ED:C6:99:B8:7B:2C:C6:52:FD:19:A1
                DirName:/C=US/ST=OH/L=Columbus/O=VikingVPN/OU=MyOrganizationalUnit/CN=VikingVPN CA/name=EasyRSA/emailAddress=me@myhost.mydomain
                serial:CF:35:85:EE:80:BF:2A:3E

            X509v3 Extended Key Usage: 
                TLS Web Client Authentication
            X509v3 Key Usage: 
                Digital Signature
    Signature Algorithm: sha256WithRSAEncryption
         6b:7d:1e:b2:2b:14:5a:95:a6:6e:b5:3c:90:82:17:e1:8c:eb:
         d8:9d:3f:42:6b:4f:cf:93:10:a7:3c:ba:ef:ae:06:f5:93:bb:
         ba:36:3d:17:e6:aa:3b:c0:dc:cc:6d:98:66:19:d9:2f:fd:a0:
         42:0c:f5:7a:3b:82:f8:6e:53:cf:fe:e1:a6:c9:b1:a5:87:54:
         91:96:e3:cb:c5:0f:17:f8:2b:19:db:47:f7:4e:70:a0:b1:a3:
         6c:de:0a:d0:5c:e2:dd:3c:ce:0f:14:47:59:ae:c7:c1:02:5e:
         bf:66:0e:7a:ac:86:af:5f:75:0b:54:d5:d3:ae:8f:fc:0a:d8:
         25:55:01:b1:af:04:8f:0f:2b:33:7d:ce:78:ba:49:54:4d:1e:
         ee:14:95:27:a9:ab:0e:76:07:79:e2:c7:32:cf:d9:c2:4a:1f:
         2b:c7:ee:eb:6d:85:89:34:da:e2:a4:3c:63:99:07:37:99:a1:
         c2:11:4a:ab:87:f6:9c:79:31:6f:05:b1:00:67:20:dd:60:dc:
         91:eb:27:b9:b2:72:fe:2e:1c:63:5b:f7:fe:1c:c8:1e:14:49:
         21:ba:1d:bd:6e:bc:68:a2:f4:2f:f7:38:f1:b0:ae:7b:ca:35:
         a8:b6:eb:4d:05:21:a5:2f:51:5d:94:3a:16:8e:dd:8a:a2:07:
         1a:65:98:9b:95:df:89:3e:a7:4b:f2:46:e8:e8:70:dd:c2:51:
         b9:e8:bb:aa:e2:06:07:63:56:06:ca:a1:74:bd:f9:2d:ab:ae:
         6f:18:80:b1:96:39:c2:76:0e:8e:3d:53:22:76:d0:42:85:7e:
         9a:86:fb:d3:84:df:25:76:0d:6f:f6:1e:3e:24:b5:d9:6f:63:
         c3:df:84:fc:4b:39:46:f8:c6:ea:2f:e2:97:b0:cc:d4:0c:a6:
         53:8e:34:57:df:aa:4a:77:7a:fa:68:9b:6b:6d:77:48:02:3b:
         cd:5f:c4:d3:11:cf:c1:f3:10:f2:a3:05:a3:d2:88:fd:54:9c:
         82:43:54:d9:38:2a:ed:52:77:58:ac:da:51:4d:01:fe:4b:45:
         0f:fb:2c:f7:94:75:e5:cb:34:6a:98:d8:14:43:00:2f:f9:2c:
         ee:82:8f:60:d4:5f:31:28:b2:b3:bf:52:45:64:de:de:bd:1c:
         78:ec:90:35:17:00:ce:ea:f8:4c:4e:eb:56:02:4f:4a:65:39:
         43:97:3c:77:11:14:35:f1:78:cf:08:40:d7:9e:0f:9c:54:c9:
         1e:98:13:b1:e3:96:8c:1d:8a:f6:b6:96:22:e2:77:07:25:69:
         26:60:75:53:49:77:96:68:50:64:58:af:db:ec:90:88:85:a3:
         1a:05:5b:12:51:10:7c:8a
-----BEGIN CERTIFICATE-----
MIIGrTCCBJWgAwIBAgICMOkwDQYJKoZIhvcNAQELBQAwgawxCzAJBgNVBAYTAlVT
MQswCQYDVQQIEwJPSDERMA8GA1UEBxMIQ29sdW1idXMxEjAQBgNVBAoTCVZpa2lu
Z1ZQTjEdMBsGA1UECxMUTXlPcmdhbml6YXRpb25hbFVuaXQxFTATBgNVBAMTDFZp
a2luZ1ZQTiBDQTEQMA4GA1UEKRMHRWFzeVJTQTEhMB8GCSqGSIb3DQEJARYSbWVA
bXlob3N0Lm15ZG9tYWluMB4XDTE4MDIwNDIxMTQxNVoXDTI4MDIwMjIxMTQxNVow
HzEdMBsGA1UEAxMUQ2xpZW50MzIxNUNlcnQ2ZmUyYTQwggIiMA0GCSqGSIb3DQEB
AQUAA4ICDwAwggIKAoICAQDL+qSE3Uhmeihg0VqYAYozILjvURdZ2xgDG/BfC11+
WwBb02wciBi6PHfd9OsmIqkqyVDtxRruuzp3RRvDKh3+6QSv97pVmIXVtbnYPmKC
a46DSXRtb37gMKlofUK0xo5mJmjkyy4ZoJ60VmvYraKmu0MRgpxfK0RgaNK5Yj1x
LiiFHvdpHdI2+oh62Mb3txQ+W5U+d2pUo/BTUhG10Tdg3+AoO5JucUPZTYbkBV4+
4VLV2SWh3geqL0gs7BZU2FUvOVISdVDtveD3yg5nmvHe2fFJtCdvrsfJKhRz/VjF
YSvjDO7qL3baHI1YNuDJvllaR/mEdyVRy4MvbazjDbsXRO+PQIuKFHqr1GMcTiAr
0GZaS0VjKEIY7PKCeI4JPkNNNDTIOEbS9Ug0denj8bPDQ67pYoLTnRW2wPTOLPfk
B1477oop6kLWpgqTGXGAIIFPxDWs5BSBRrAKbKmB68GwaImwox900awrXhw8Masl
AXd/b+xSzYGwsF5uyuN26YaHT1TTEb6nXZRxTtmG3/yCBBu5fjb4TWAvKvAKgnhB
Qk7h6DJ3pKArMcDnSWGjKhdTXOBR6j8+/Ldw+EJxeZwP37erIkW8wtrOah9qbsvJ
VBwB1ywEeVDlI8tcS0gDo5aJrRbOc6SKyeyr6DmHzFVdK0ZnGG5Znxkvug4tiyU4
bQIDAQABo4IBYzCCAV8wCQYDVR0TBAIwADAtBglghkgBhvhCAQ0EIBYeRWFzeS1S
U0EgR2VuZXJhdGVkIENlcnRpZmljYXRlMB0GA1UdDgQWBBRkn9oz1+poBZCEZAsd
DpE12jl+8jCB4QYDVR0jBIHZMIHWgBQSzWAE0qCAnnDtxpm4eyzGUv0ZoaGBsqSB
rzCBrDELMAkGA1UEBhMCVVMxCzAJBgNVBAgTAk9IMREwDwYDVQQHEwhDb2x1bWJ1
czESMBAGA1UEChMJVmlraW5nVlBOMR0wGwYDVQQLExRNeU9yZ2FuaXphdGlvbmFs
VW5pdDEVMBMGA1UEAxMMVmlraW5nVlBOIENBMRAwDgYDVQQpEwdFYXN5UlNBMSEw
HwYJKoZIhvcNAQkBFhJtZUBteWhvc3QubXlkb21haW6CCQDPNYXugL8qPjATBgNV
HSUEDDAKBggrBgEFBQcDAjALBgNVHQ8EBAMCB4AwDQYJKoZIhvcNAQELBQADggIB
AGt9HrIrFFqVpm61PJCCF+GM69idP0JrT8+TEKc8uu+uBvWTu7o2PRfmqjvA3Mxt
mGYZ2S/9oEIM9Xo7gvhuU8/+4abJsaWHVJGW48vFDxf4KxnbR/dOcKCxo2zeCtBc
4t08zg8UR1mux8ECXr9mDnqshq9fdQtU1dOuj/wK2CVVAbGvBI8PKzN9zni6SVRN
Hu4UlSepqw52B3nixzLP2cJKHyvH7utthYk02uKkPGOZBzeZocIRSquH9px5MW8F
sQBnIN1g3JHrJ7mycv4uHGNb9/4cyB4USSG6Hb1uvGii9C/3OPGwrnvKNai2600F
IaUvUV2UOhaO3YqiBxplmJuV34k+p0vyRujocN3CUbnou6riBgdjVgbKoXS9+S2r
rm8YgLGWOcJ2Do49UyJ20EKFfpqG+9OE3yV2DW/2Hj4ktdlvY8PfhPxLOUb4xuov
4pewzNQMplOONFffqkp3evpom2ttd0gCO81fxNMRz8HzEPKjBaPSiP1UnIJDVNk4
Ku1Sd1is2lFNAf5LRQ/7LPeUdeXLNGqY2BRDAC/5LO6Cj2DUXzEosrO/UkVk3t69
HHjskDUXAM7q+ExO61YCT0plOUOXPHcRFDXxeM8IQNeeD5xUyR6YE7Hjlowdiva2
liLidwclaSZgdVNJd5ZoUGRYr9vskIiFoxoFWxJREHyK
-----END CERTIFICATE-----
