Certificate:
    Data:
        Version: 3 (0x2)
        Serial Number: 12938 (0x328a)
    Signature Algorithm: sha256WithRSAEncryption
        Issuer: C=US, ST=OH, L=Columbus, O=VikingVPN, OU=MyOrganizationalUnit, CN=VikingVPN CA/name=EasyRSA/emailAddress=me@myhost.mydomain
        Validity
            Not Before: Apr  7 18:26:40 2018 GMT
            Not After : Apr  4 18:26:40 2028 GMT
        Subject: CN=Client1346Certc7a3ad
        Subject Public Key Info:
            Public Key Algorithm: rsaEncryption
                Public-Key: (4096 bit)
                Modulus:
                    00:d2:b7:68:4b:7d:90:ee:15:04:75:0f:30:da:cf:
                    8e:27:e3:e9:ff:0d:7c:a2:1f:cd:a1:11:ed:d6:3d:
                    36:b3:c6:4f:62:3f:6b:85:5e:7f:93:31:30:df:6a:
                    9b:09:61:a4:8d:fd:94:51:46:6d:ab:0f:7a:83:aa:
                    0b:56:0d:73:84:eb:f1:7f:0e:89:fb:f9:b5:5e:81:
                    c3:32:34:81:31:75:b9:72:1c:72:0b:dd:e4:be:f3:
                    66:63:f9:eb:92:ab:c4:05:83:db:76:35:07:ec:8e:
                    75:f4:1b:1d:5c:6a:1f:83:b2:80:61:e5:dc:08:be:
                    84:3f:79:62:db:5c:c7:d3:24:2c:bf:d4:3e:56:da:
                    5e:77:4c:9a:75:9a:e8:00:2b:b4:a1:19:aa:c7:69:
                    f8:42:78:14:cd:0f:7f:55:eb:2c:52:34:17:01:06:
                    f7:f6:cc:53:15:39:33:3e:65:1e:05:17:04:60:1f:
                    0a:22:f7:50:63:e7:f8:e4:5e:e8:84:50:6d:11:33:
                    bb:40:00:c8:76:cd:4b:8a:58:41:10:7c:95:a7:be:
                    61:90:31:ed:f5:ca:48:3b:e3:8d:6d:51:8f:09:29:
                    9b:27:96:c4:db:94:e3:1c:37:12:d8:62:53:d2:61:
                    51:c4:ab:2f:f4:56:7a:01:02:6e:61:41:ae:5b:9a:
                    d2:dd:47:c1:31:ac:0b:71:e1:0c:a5:87:37:3f:30:
                    59:85:9c:6e:7f:42:f8:d9:91:7b:5a:e8:06:3b:8c:
                    47:9f:2f:13:82:de:de:24:b4:ad:a3:90:10:26:ef:
                    11:c7:2e:e5:25:43:5d:3e:2e:cc:dc:bb:07:49:07:
                    47:44:6d:d5:a6:78:00:41:7d:e8:82:f9:25:03:91:
                    05:73:05:62:4a:c1:24:f5:4a:d7:2c:73:cf:ce:eb:
                    24:0e:68:5d:b9:e8:89:98:ca:a2:32:13:85:d3:cb:
                    e0:b3:83:38:72:5c:95:57:c7:59:c3:0f:20:c2:39:
                    d5:ed:34:66:a1:07:53:11:05:08:af:36:dc:16:e5:
                    d9:80:f6:70:42:a2:aa:4f:da:37:ae:e2:6e:e2:b7:
                    85:6d:4b:9d:a6:1e:e8:8c:3f:12:d7:eb:9e:05:9a:
                    cc:92:17:d9:94:51:d0:64:b4:ee:04:ee:29:16:b3:
                    94:ff:5d:27:79:59:50:3b:7d:a6:52:e2:fc:a0:8c:
                    d3:be:0b:4f:27:cf:e3:1a:97:10:4d:78:a1:d6:a1:
                    4f:86:16:8a:75:20:78:df:21:02:2a:ed:70:05:b2:
                    2d:4d:99:6b:9a:e0:0c:6e:92:2a:13:6d:fe:3c:60:
                    21:9c:30:94:78:8c:ae:c2:86:f7:c2:ac:f7:4f:1c:
                    9c:66:49
                Exponent: 65537 (0x10001)
        X509v3 extensions:
            X509v3 Basic Constraints: 
                CA:FALSE
            Netscape Comment: 
                Easy-RSA Generated Certificate
            X509v3 Subject Key Identifier: 
                CF:F6:B7:12:A1:93:A3:56:BC:2A:DE:5F:CF:BB:F9:11:54:84:55:AF
            X509v3 Authority Key Identifier: 
                keyid:12:CD:60:04:D2:A0:80:9E:70:ED:C6:99:B8:7B:2C:C6:52:FD:19:A1
                DirName:/C=US/ST=OH/L=Columbus/O=VikingVPN/OU=MyOrganizationalUnit/CN=VikingVPN CA/name=EasyRSA/emailAddress=me@myhost.mydomain
                serial:CF:35:85:EE:80:BF:2A:3E

            X509v3 Extended Key Usage: 
                TLS Web Client Authentication
            X509v3 Key Usage: 
                Digital Signature
    Signature Algorithm: sha256WithRSAEncryption
         d2:fb:0c:10:17:a6:c1:d8:61:e7:37:71:e6:b6:1d:43:ac:ac:
         a7:98:cf:09:2b:5d:26:d4:a5:53:52:69:e7:c7:76:04:7a:c4:
         2c:7a:29:48:7e:04:5f:8d:41:27:44:48:da:7e:5e:c1:e6:a6:
         42:95:2d:a3:22:ad:a0:93:2e:7e:13:f6:d6:08:6d:8a:b5:79:
         da:d9:a7:d0:6b:13:cb:d4:dd:35:3c:33:96:4c:38:21:58:3b:
         5a:70:e1:fe:ec:84:be:9c:c7:64:46:a1:9d:41:7d:10:cb:3c:
         d7:f8:43:48:21:69:ca:d0:23:d1:c7:ae:ee:f9:8c:d5:bf:08:
         8b:85:f9:69:33:c9:fe:d9:95:06:f4:01:e6:ff:88:b9:2e:79:
         90:23:2d:91:59:0e:c3:97:da:a2:e0:3e:77:67:8d:4b:74:97:
         0d:61:fb:05:8d:e1:c9:3f:a9:f0:e2:e2:50:a6:67:b6:99:18:
         58:20:c9:4e:0b:15:6c:19:54:92:24:ca:5c:3e:9d:3b:32:31:
         90:c8:2f:c2:87:27:a8:35:8f:72:d5:02:78:95:3b:75:d5:07:
         98:38:c9:ce:e5:b8:aa:b7:07:e4:d7:20:90:20:99:29:9c:2e:
         c8:14:84:30:04:bf:69:73:95:22:67:67:f6:40:9c:eb:5d:83:
         54:5c:c4:81:36:61:0f:ee:f6:92:81:e3:e9:2a:73:90:80:7a:
         37:d7:95:d4:50:57:e8:ec:3a:3c:71:dc:8e:78:5c:20:e6:a3:
         ab:99:b0:3a:48:79:db:cc:05:79:7e:e3:f5:58:1f:46:69:ff:
         75:46:50:27:da:ed:63:e7:5d:e2:5e:4e:a5:ff:27:06:f9:e6:
         ca:af:35:8b:86:6a:18:74:4d:a2:e2:7b:bc:37:60:d6:59:93:
         02:35:94:c3:ad:67:58:c7:4d:cf:72:f3:8e:66:ac:10:56:35:
         55:11:a9:8e:fe:9a:fe:10:c3:c7:eb:4a:75:de:9b:f2:ba:e9:
         d3:ae:f9:c5:04:88:fc:2b:b2:82:4a:d0:72:c7:6d:2f:2f:34:
         1c:75:a3:ca:6e:68:28:88:dd:86:84:40:ce:8d:e9:c0:a3:b3:
         70:c4:76:15:f9:69:80:cd:59:48:6a:85:ba:a0:eb:5e:8f:fa:
         ac:99:7b:73:7b:fd:ad:89:02:2a:04:c6:d4:16:64:10:06:f9:
         e3:93:82:4d:e1:bb:fb:f6:f0:bb:56:17:05:fb:45:14:45:18:
         2e:02:0e:15:91:09:ed:0f:36:c4:15:05:91:16:8f:84:3b:42:
         47:ce:ee:8e:53:a0:08:37:1c:1e:47:53:71:be:95:76:54:6c:
         55:98:d8:77:e6:e7:d1:4a
-----BEGIN CERTIFICATE-----
MIIGrTCCBJWgAwIBAgICMoowDQYJKoZIhvcNAQELBQAwgawxCzAJBgNVBAYTAlVT
MQswCQYDVQQIEwJPSDERMA8GA1UEBxMIQ29sdW1idXMxEjAQBgNVBAoTCVZpa2lu
Z1ZQTjEdMBsGA1UECxMUTXlPcmdhbml6YXRpb25hbFVuaXQxFTATBgNVBAMTDFZp
a2luZ1ZQTiBDQTEQMA4GA1UEKRMHRWFzeVJTQTEhMB8GCSqGSIb3DQEJARYSbWVA
bXlob3N0Lm15ZG9tYWluMB4XDTE4MDQwNzE4MjY0MFoXDTI4MDQwNDE4MjY0MFow
HzEdMBsGA1UEAxMUQ2xpZW50MTM0NkNlcnRjN2EzYWQwggIiMA0GCSqGSIb3DQEB
AQUAA4ICDwAwggIKAoICAQDSt2hLfZDuFQR1DzDaz44n4+n/DXyiH82hEe3WPTaz
xk9iP2uFXn+TMTDfapsJYaSN/ZRRRm2rD3qDqgtWDXOE6/F/Don7+bVegcMyNIEx
dblyHHIL3eS+82Zj+euSq8QFg9t2NQfsjnX0Gx1cah+DsoBh5dwIvoQ/eWLbXMfT
JCy/1D5W2l53TJp1mugAK7ShGarHafhCeBTND39V6yxSNBcBBvf2zFMVOTM+ZR4F
FwRgHwoi91Bj5/jkXuiEUG0RM7tAAMh2zUuKWEEQfJWnvmGQMe31ykg7441tUY8J
KZsnlsTblOMcNxLYYlPSYVHEqy/0VnoBAm5hQa5bmtLdR8ExrAtx4Qylhzc/MFmF
nG5/QvjZkXta6AY7jEefLxOC3t4ktK2jkBAm7xHHLuUlQ10+LszcuwdJB0dEbdWm
eABBfeiC+SUDkQVzBWJKwST1Stcsc8/O6yQOaF256ImYyqIyE4XTy+CzgzhyXJVX
x1nDDyDCOdXtNGahB1MRBQivNtwW5dmA9nBCoqpP2jeu4m7it4VtS52mHuiMPxLX
654FmsySF9mUUdBktO4E7ikWs5T/XSd5WVA7faZS4vygjNO+C08nz+MalxBNeKHW
oU+GFop1IHjfIQIq7XAFsi1NmWua4AxukioTbf48YCGcMJR4jK7ChvfCrPdPHJxm
SQIDAQABo4IBYzCCAV8wCQYDVR0TBAIwADAtBglghkgBhvhCAQ0EIBYeRWFzeS1S
U0EgR2VuZXJhdGVkIENlcnRpZmljYXRlMB0GA1UdDgQWBBTP9rcSoZOjVrwq3l/P
u/kRVIRVrzCB4QYDVR0jBIHZMIHWgBQSzWAE0qCAnnDtxpm4eyzGUv0ZoaGBsqSB
rzCBrDELMAkGA1UEBhMCVVMxCzAJBgNVBAgTAk9IMREwDwYDVQQHEwhDb2x1bWJ1
czESMBAGA1UEChMJVmlraW5nVlBOMR0wGwYDVQQLExRNeU9yZ2FuaXphdGlvbmFs
VW5pdDEVMBMGA1UEAxMMVmlraW5nVlBOIENBMRAwDgYDVQQpEwdFYXN5UlNBMSEw
HwYJKoZIhvcNAQkBFhJtZUBteWhvc3QubXlkb21haW6CCQDPNYXugL8qPjATBgNV
HSUEDDAKBggrBgEFBQcDAjALBgNVHQ8EBAMCB4AwDQYJKoZIhvcNAQELBQADggIB
ANL7DBAXpsHYYec3cea2HUOsrKeYzwkrXSbUpVNSaefHdgR6xCx6KUh+BF+NQSdE
SNp+XsHmpkKVLaMiraCTLn4T9tYIbYq1edrZp9BrE8vU3TU8M5ZMOCFYO1pw4f7s
hL6cx2RGoZ1BfRDLPNf4Q0ghacrQI9HHru75jNW/CIuF+Wkzyf7ZlQb0Aeb/iLku
eZAjLZFZDsOX2qLgPndnjUt0lw1h+wWN4ck/qfDi4lCmZ7aZGFggyU4LFWwZVJIk
ylw+nTsyMZDIL8KHJ6g1j3LVAniVO3XVB5g4yc7luKq3B+TXIJAgmSmcLsgUhDAE
v2lzlSJnZ/ZAnOtdg1RcxIE2YQ/u9pKB4+kqc5CAejfXldRQV+jsOjxx3I54XCDm
o6uZsDpIedvMBXl+4/VYH0Zp/3VGUCfa7WPnXeJeTqX/Jwb55sqvNYuGahh0TaLi
e7w3YNZZkwI1lMOtZ1jHTc9y845mrBBWNVURqY7+mv4Qw8frSnXem/K66dOu+cUE
iPwrsoJK0HLHbS8vNBx1o8puaCiI3YaEQM6N6cCjs3DEdhX5aYDNWUhqhbqg616P
+qyZe3N7/a2JAioExtQWZBAG+eOTgk3hu/v28LtWFwX7RRRFGC4CDhWRCe0PNsQV
BZEWj4Q7QkfO7o5ToAg3HB5HU3G+lXZUbFWY2Hfm59FK
-----END CERTIFICATE-----
