Certificate:
    Data:
        Version: 3 (0x2)
        Serial Number: 2560 (0xa00)
    Signature Algorithm: md5WithRSAEncryption
        Issuer: C=US, ST=OH, L=Columbus, O=VikingVPN, OU=MyOrganizationalUnit, CN=VikingVPN CA/name=EasyRSA/emailAddress=me@myhost.mydomain
        Validity
            Not Before: Aug 13 10:41:10 2014 GMT
            Not After : Aug 10 10:41:10 2024 GMT
        Subject: CN=Client884Cert3cfabb
        Subject Public Key Info:
            Public Key Algorithm: rsaEncryption
                Public-Key: (4096 bit)
                Modulus:
                    00:b1:f0:6c:bb:7f:22:d1:50:3a:3f:61:9d:25:8b:
                    b7:79:f1:bf:de:02:b8:a0:f1:80:5c:bb:ee:05:a6:
                    00:c4:8b:9a:d1:b5:6c:d8:84:02:c7:12:ae:9a:f6:
                    a7:ef:c3:ab:71:eb:89:02:7f:00:a8:92:31:31:a7:
                    0b:b0:b0:28:51:60:a8:24:d3:35:ec:61:61:ab:90:
                    e2:a9:76:57:68:c2:e2:3f:69:22:48:39:d9:7d:6c:
                    68:c4:53:e0:50:c4:b9:1e:a9:b8:01:dc:97:f9:20:
                    4f:5e:eb:86:8e:20:53:bc:64:08:65:8c:c8:2c:cb:
                    e8:a8:57:83:21:79:e2:7c:71:a9:e8:34:cc:35:bd:
                    2d:09:5a:90:66:4a:15:08:dd:3a:23:b5:46:d8:24:
                    26:d8:32:f3:a4:e0:a9:60:f4:5d:55:b3:11:c9:56:
                    99:d4:a8:7f:4f:4f:ec:0b:dd:71:2a:bf:ef:8d:48:
                    07:6a:0e:3e:02:02:74:65:46:e7:c2:1b:0c:22:c4:
                    74:bd:2b:2d:7c:51:88:23:ea:63:e8:e8:d1:97:82:
                    c9:66:37:91:35:a5:db:51:4c:c0:38:12:56:4f:ef:
                    06:fc:97:fe:bd:dd:b5:8f:ce:77:02:a0:74:47:1a:
                    65:fd:bf:58:e1:29:7a:9b:05:ad:2f:a8:58:c7:e5:
                    a5:1b:cf:d9:f8:23:89:d3:88:7f:83:c8:5b:bb:d5:
                    73:77:d4:97:47:e1:6b:b4:b1:54:2b:4b:68:aa:5b:
                    bc:d6:03:1b:56:13:f9:79:b5:77:ff:e8:36:20:e7:
                    0e:8d:e3:7f:0b:6f:4d:8d:94:0d:9c:19:92:9d:98:
                    e5:9b:5b:4f:56:5a:23:41:6b:80:0b:04:9c:7a:42:
                    7b:39:44:b0:35:87:12:ec:40:5c:1d:a2:05:27:83:
                    14:c8:d5:d8:7a:aa:d4:a3:05:d5:a5:4d:50:4b:88:
                    3f:02:b4:f0:6c:86:f7:ae:45:70:42:7f:48:6b:60:
                    e6:fb:7d:8f:c2:3e:ea:c5:20:32:d2:55:b0:1e:02:
                    e4:bf:70:88:c5:5a:33:be:51:cc:9e:13:1a:f6:50:
                    c8:59:ff:b6:ff:8f:b8:1b:57:f9:28:85:cc:22:b6:
                    36:8e:32:9b:0f:6d:3e:5f:78:36:b9:c6:f4:a9:0e:
                    f0:3d:e5:eb:30:5c:b5:72:d3:3d:f3:7d:09:03:3d:
                    c4:6e:d6:d1:5f:cf:54:3a:f7:f9:a0:f9:d7:20:f6:
                    7c:97:06:c5:62:03:95:6c:db:39:f9:64:65:76:24:
                    b1:79:bc:56:2f:74:b3:9f:4a:8b:79:10:3a:8e:0b:
                    1d:a2:5a:e8:e6:db:db:f6:7e:9b:1e:06:c4:3e:db:
                    e7:a9:f1
                Exponent: 65537 (0x10001)
        X509v3 extensions:
            X509v3 Basic Constraints: 
                CA:FALSE
            Netscape Comment: 
                Easy-RSA Generated Certificate
            X509v3 Subject Key Identifier: 
                5C:86:B0:6A:95:B2:6A:77:5E:D8:D5:76:0D:1C:59:1C:53:39:ED:A6
            X509v3 Authority Key Identifier: 
                keyid:12:CD:60:04:D2:A0:80:9E:70:ED:C6:99:B8:7B:2C:C6:52:FD:19:A1
                DirName:/C=US/ST=OH/L=Columbus/O=VikingVPN/OU=MyOrganizationalUnit/CN=VikingVPN CA/name=EasyRSA/emailAddress=me@myhost.mydomain
                serial:CF:35:85:EE:80:BF:2A:3E

            X509v3 Extended Key Usage: 
                TLS Web Client Authentication
            X509v3 Key Usage: 
                Digital Signature
    Signature Algorithm: md5WithRSAEncryption
         37:dc:7f:5f:d9:64:8a:51:f7:6c:44:04:fb:7b:73:9d:6f:fe:
         30:71:be:32:8b:8b:65:fe:c9:b5:b6:c5:f8:33:fa:fe:c0:51:
         a6:8d:ac:c4:54:48:6a:89:8f:c3:34:7a:36:a4:46:f3:4d:23:
         bd:e3:c9:bf:ec:c9:99:d7:33:39:89:95:c7:f2:3e:62:65:98:
         c8:6c:5b:54:1f:1a:a8:54:70:2c:67:14:88:02:8d:85:90:55:
         a8:87:96:f4:5c:13:0d:6a:1d:ad:90:64:96:b4:d8:55:81:53:
         83:bf:65:3b:a4:70:e2:6e:b3:36:61:51:0f:5d:5c:6e:00:48:
         7b:7c:18:eb:aa:d4:f6:a7:30:21:e0:fd:90:49:24:77:e6:6a:
         d3:c5:45:29:62:a6:b6:dc:4e:db:50:e9:8e:ed:b9:4e:48:0f:
         04:f9:72:33:82:5c:58:c2:97:a4:98:57:9c:b2:ee:03:6c:76:
         10:45:a2:ca:c5:7b:bb:a3:b2:e5:4b:af:42:a1:20:96:21:d7:
         bb:a8:f5:c3:50:16:e0:0e:52:d6:c4:34:a2:99:3a:92:27:5d:
         1c:0a:2f:1d:7d:c7:de:b4:ae:ae:a3:0a:9d:af:b3:a1:3a:ca:
         1b:fa:3b:77:bc:0b:5e:92:29:0a:f5:1e:54:2d:f7:3c:57:68:
         51:12:df:c6:54:cf:99:02:ca:ff:c7:99:e8:3e:e6:f0:a1:db:
         38:50:ce:36:f8:30:a5:ba:54:c4:5a:c1:b3:e9:a5:63:04:d7:
         3f:59:68:72:b5:df:c5:6d:b3:eb:d8:0e:b9:24:09:9a:fc:3a:
         b5:8a:c6:1d:33:5d:e5:be:b4:a9:08:0d:a0:14:52:6c:19:16:
         61:15:ef:d9:b1:0a:85:dd:e3:39:65:5f:70:28:54:a5:4f:f9:
         d6:eb:4f:e3:1c:39:88:32:43:02:d8:4e:f5:81:a2:d4:b8:e2:
         fe:c6:df:47:b0:93:41:d8:5a:61:ec:57:be:cb:ee:1b:80:5c:
         71:23:29:41:48:97:a7:e9:d4:aa:72:6e:b0:7b:da:e5:d4:55:
         a6:78:4a:f7:5c:c3:e9:2a:03:53:f8:9e:1c:cb:76:5d:10:48:
         31:b2:74:a4:12:2c:8c:af:75:3e:3e:d7:c8:68:90:47:81:75:
         3f:9b:f7:f2:95:c2:3f:4f:19:41:3a:2a:ec:23:b1:d3:aa:75:
         f2:a2:30:f7:a0:59:b8:12:45:91:be:5f:c5:f3:9d:93:0a:de:
         c5:95:16:e0:08:e8:05:fb:a5:9a:f0:b1:88:b8:6d:1d:66:cb:
         2a:fd:ed:f4:d9:43:30:a6:e5:d8:12:f2:ee:93:9d:d3:da:7f:
         c4:44:9d:07:e8:90:f1:ff
-----BEGIN CERTIFICATE-----
MIIGrDCCBJSgAwIBAgICCgAwDQYJKoZIhvcNAQEEBQAwgawxCzAJBgNVBAYTAlVT
MQswCQYDVQQIEwJPSDERMA8GA1UEBxMIQ29sdW1idXMxEjAQBgNVBAoTCVZpa2lu
Z1ZQTjEdMBsGA1UECxMUTXlPcmdhbml6YXRpb25hbFVuaXQxFTATBgNVBAMTDFZp
a2luZ1ZQTiBDQTEQMA4GA1UEKRMHRWFzeVJTQTEhMB8GCSqGSIb3DQEJARYSbWVA
bXlob3N0Lm15ZG9tYWluMB4XDTE0MDgxMzEwNDExMFoXDTI0MDgxMDEwNDExMFow
HjEcMBoGA1UEAxMTQ2xpZW50ODg0Q2VydDNjZmFiYjCCAiIwDQYJKoZIhvcNAQEB
BQADggIPADCCAgoCggIBALHwbLt/ItFQOj9hnSWLt3nxv94CuKDxgFy77gWmAMSL
mtG1bNiEAscSrpr2p+/Dq3HriQJ/AKiSMTGnC7CwKFFgqCTTNexhYauQ4ql2V2jC
4j9pIkg52X1saMRT4FDEuR6puAHcl/kgT17rho4gU7xkCGWMyCzL6KhXgyF54nxx
qeg0zDW9LQlakGZKFQjdOiO1RtgkJtgy86TgqWD0XVWzEclWmdSof09P7AvdcSq/
741IB2oOPgICdGVG58IbDCLEdL0rLXxRiCPqY+jo0ZeCyWY3kTWl21FMwDgSVk/v
BvyX/r3dtY/OdwKgdEcaZf2/WOEpepsFrS+oWMflpRvP2fgjidOIf4PIW7vVc3fU
l0fha7SxVCtLaKpbvNYDG1YT+Xm1d//oNiDnDo3jfwtvTY2UDZwZkp2Y5ZtbT1Za
I0FrgAsEnHpCezlEsDWHEuxAXB2iBSeDFMjV2Hqq1KMF1aVNUEuIPwK08GyG965F
cEJ/SGtg5vt9j8I+6sUgMtJVsB4C5L9wiMVaM75RzJ4TGvZQyFn/tv+PuBtX+SiF
zCK2No4ymw9tPl94NrnG9KkO8D3l6zBctXLTPfN9CQM9xG7W0V/PVDr3+aD51yD2
fJcGxWIDlWzbOflkZXYksXm8Vi90s59Ki3kQOo4LHaJa6Obb2/Z+mx4GxD7b56nx
AgMBAAGjggFjMIIBXzAJBgNVHRMEAjAAMC0GCWCGSAGG+EIBDQQgFh5FYXN5LVJT
QSBHZW5lcmF0ZWQgQ2VydGlmaWNhdGUwHQYDVR0OBBYEFFyGsGqVsmp3XtjVdg0c
WRxTOe2mMIHhBgNVHSMEgdkwgdaAFBLNYATSoICecO3Gmbh7LMZS/RmhoYGypIGv
MIGsMQswCQYDVQQGEwJVUzELMAkGA1UECBMCT0gxETAPBgNVBAcTCENvbHVtYnVz
MRIwEAYDVQQKEwlWaWtpbmdWUE4xHTAbBgNVBAsTFE15T3JnYW5pemF0aW9uYWxV
bml0MRUwEwYDVQQDEwxWaWtpbmdWUE4gQ0ExEDAOBgNVBCkTB0Vhc3lSU0ExITAf
BgkqhkiG9w0BCQEWEm1lQG15aG9zdC5teWRvbWFpboIJAM81he6Avyo+MBMGA1Ud
JQQMMAoGCCsGAQUFBwMCMAsGA1UdDwQEAwIHgDANBgkqhkiG9w0BAQQFAAOCAgEA
N9x/X9lkilH3bEQE+3tznW/+MHG+MouLZf7JtbbF+DP6/sBRpo2sxFRIaomPwzR6
NqRG800jvePJv+zJmdczOYmVx/I+YmWYyGxbVB8aqFRwLGcUiAKNhZBVqIeW9FwT
DWodrZBklrTYVYFTg79lO6Rw4m6zNmFRD11cbgBIe3wY66rU9qcwIeD9kEkkd+Zq
08VFKWKmttxO21Dpju25TkgPBPlyM4JcWMKXpJhXnLLuA2x2EEWiysV7u6Oy5Uuv
QqEgliHXu6j1w1AW4A5S1sQ0opk6kiddHAovHX3H3rSurqMKna+zoTrKG/o7d7wL
XpIpCvUeVC33PFdoURLfxlTPmQLK/8eZ6D7m8KHbOFDONvgwpbpUxFrBs+mlYwTX
P1locrXfxW2z69gOuSQJmvw6tYrGHTNd5b60qQgNoBRSbBkWYRXv2bEKhd3jOWVf
cChUpU/51utP4xw5iDJDAthO9YGi1Lji/sbfR7CTQdhaYexXvsvuG4BccSMpQUiX
p+nUqnJusHva5dRVpnhK91zD6SoDU/ieHMt2XRBIMbJ0pBIsjK91Pj7XyGiQR4F1
P5v38pXCP08ZQToq7COx06p18qIw96BZuBJFkb5fxfOdkwrexZUW4AjoBfulmvCx
iLhtHWbLKv3t9NlDMKbl2BLy7pOd09p/xESdB+iQ8f8=
-----END CERTIFICATE-----
