Certificate:
    Data:
        Version: 3 (0x2)
        Serial Number: 4169 (0x1049)
    Signature Algorithm: md5WithRSAEncryption
        Issuer: C=US, ST=OH, L=Columbus, O=VikingVPN, OU=MyOrganizationalUnit, CN=VikingVPN CA/name=EasyRSA/emailAddress=me@myhost.mydomain
        Validity
            Not Before: Jan 19 06:21:33 2015 GMT
            Not After : Jan 16 06:21:33 2025 GMT
        Subject: CN=Client1375Cert18415e
        Subject Public Key Info:
            Public Key Algorithm: rsaEncryption
                Public-Key: (4096 bit)
                Modulus:
                    00:e0:87:e8:ad:e2:da:00:b5:b3:5a:d2:6b:89:00:
                    ee:0d:98:40:1d:a7:7a:76:27:19:05:93:3f:98:68:
                    2d:97:44:e1:4c:16:82:ea:a7:09:97:e0:8c:c3:57:
                    cc:2c:21:d0:4c:5d:08:87:6e:37:c6:a0:7d:f3:19:
                    f6:92:f7:a6:12:e6:fa:59:4d:cd:ab:82:d6:76:d0:
                    b5:2e:31:41:ed:bf:f6:e7:6e:4c:56:4c:0a:55:c0:
                    b8:4b:50:08:2f:32:e1:41:ce:38:38:ce:b7:29:44:
                    8b:07:e1:b2:df:2c:b5:eb:c0:95:d6:02:3f:02:34:
                    89:1a:e5:ae:c3:8b:a1:db:13:9b:48:57:e0:96:7d:
                    5d:0b:50:ca:fd:3c:d7:22:04:99:6d:b9:4d:f0:bb:
                    03:75:c8:73:85:f7:7d:3c:da:f6:51:c7:f1:22:66:
                    f4:f5:03:62:9e:8c:d0:87:fb:62:70:df:ff:49:52:
                    df:04:54:20:91:4f:21:86:38:ef:31:2b:2a:c9:4f:
                    c5:bf:d5:a5:40:84:23:dd:fb:e1:dc:4c:6b:0f:36:
                    cf:79:18:03:9a:80:7f:a7:c3:59:6a:5a:6e:5b:8c:
                    36:53:a5:58:2a:a4:ef:46:82:78:e5:3d:46:4f:be:
                    f7:06:76:c5:d8:c6:a8:70:e2:98:b9:6e:01:a9:b1:
                    61:93:e2:65:9f:ac:71:b0:99:e4:22:25:89:5b:ac:
                    8a:36:60:ce:e1:c2:ac:6a:f5:06:72:d7:8f:a3:0a:
                    a9:3a:54:ad:c2:fa:7a:f5:07:23:f6:69:75:ab:cf:
                    42:51:2f:35:cb:34:87:10:2c:31:46:a3:98:6b:00:
                    46:44:33:af:d4:17:1f:a1:c7:d3:81:e4:b9:2c:e6:
                    c5:6d:15:23:e7:36:05:e7:ed:04:f6:f3:67:ce:82:
                    82:4a:96:03:b7:5e:90:4b:40:cb:a6:74:a7:52:8c:
                    99:4e:05:51:f8:b5:8c:e5:b6:36:d1:d0:ea:fa:e4:
                    47:db:99:18:f5:00:2c:6c:46:ba:aa:d9:ad:03:8f:
                    b8:80:fe:5c:8c:2d:7b:8d:12:04:19:14:b0:c5:56:
                    c7:12:4a:ca:4e:ae:57:c7:7b:84:ca:5f:67:fd:be:
                    4e:6f:62:cb:10:5a:cc:ef:7d:85:18:8e:9f:94:77:
                    bf:1a:e2:3d:5b:81:b0:aa:9c:48:63:af:69:05:40:
                    61:95:8c:7e:33:34:c6:ed:72:cb:78:83:50:b2:71:
                    d1:cd:f8:ed:71:b7:83:f5:f1:ac:4f:f8:46:ab:e0:
                    e6:d3:40:ba:3a:8b:41:be:89:90:ff:f7:35:c7:04:
                    38:28:79:ce:b4:bd:d2:fd:d0:fb:dd:c3:1a:64:8f:
                    ad:25:b9
                Exponent: 65537 (0x10001)
        X509v3 extensions:
            X509v3 Basic Constraints: 
                CA:FALSE
            Netscape Comment: 
                Easy-RSA Generated Certificate
            X509v3 Subject Key Identifier: 
                83:0E:C4:EB:49:FE:A6:AA:BA:EA:EB:1D:E3:E3:DA:E0:18:D7:0D:C2
            X509v3 Authority Key Identifier: 
                keyid:12:CD:60:04:D2:A0:80:9E:70:ED:C6:99:B8:7B:2C:C6:52:FD:19:A1
                DirName:/C=US/ST=OH/L=Columbus/O=VikingVPN/OU=MyOrganizationalUnit/CN=VikingVPN CA/name=EasyRSA/emailAddress=me@myhost.mydomain
                serial:CF:35:85:EE:80:BF:2A:3E

            X509v3 Extended Key Usage: 
                TLS Web Client Authentication
            X509v3 Key Usage: 
                Digital Signature
    Signature Algorithm: md5WithRSAEncryption
         c5:92:1c:88:df:db:af:5a:2a:98:84:69:b2:4b:5f:f1:3a:c9:
         a1:a4:e2:94:b4:1d:4c:e7:7c:5b:9a:11:82:04:74:4e:ee:ba:
         09:09:af:4e:3d:a1:17:d5:16:85:a1:45:60:ff:2c:7e:bd:b4:
         a4:15:ee:74:ab:6d:7e:dd:ba:0e:28:a5:3a:ff:31:44:08:b5:
         64:6a:d3:bc:54:62:ab:77:13:3b:1c:4e:e9:6c:e8:79:a2:f5:
         bc:46:7b:c2:35:0d:55:47:06:ff:a9:84:ad:e1:11:d1:e9:db:
         11:b1:72:a3:2a:37:c9:37:98:d8:34:ec:5d:0b:4b:b1:d1:42:
         e7:86:2f:d7:7e:13:5e:8d:ac:22:66:c8:0d:85:64:d2:f6:04:
         c0:5e:da:1e:4a:f2:ae:05:95:ca:8d:28:41:f2:97:f0:d1:d5:
         33:39:b3:12:bc:4b:6f:f8:16:98:be:64:9f:3c:42:5c:ad:ac:
         f7:2b:97:06:b5:0a:ab:3e:70:fb:55:5c:5e:a7:f1:1d:35:80:
         94:15:fb:90:ec:09:b5:f2:63:f9:7d:fd:db:93:32:21:7a:50:
         35:cc:cf:7d:04:af:7d:1c:20:b8:ec:46:6b:d3:e1:13:14:01:
         b5:0f:91:70:54:a6:64:5d:2b:08:41:1f:64:1c:34:bd:d9:d5:
         aa:30:f4:86:35:14:4a:8c:13:68:cc:55:d1:7d:27:01:6c:d4:
         04:64:97:d1:27:77:f1:4b:6a:a0:e7:68:59:f8:7c:aa:87:29:
         94:e0:90:f2:cd:fc:14:6f:52:d3:a1:d3:6e:cb:32:3a:28:2b:
         44:4b:37:e6:d1:ff:0d:b4:92:56:c4:9f:56:8f:3e:25:af:12:
         a5:8f:95:e1:ed:e6:d3:bd:35:5d:97:8f:17:8e:87:d1:dc:b6:
         d7:70:fe:00:a3:97:ab:5d:43:56:ce:7d:99:dd:a7:5a:08:7b:
         0d:33:94:5b:34:86:3f:9e:cc:f2:69:a3:a8:3e:a1:f5:d6:c9:
         86:bb:a7:ee:ba:9b:93:a2:10:42:fb:78:4b:0e:65:25:56:59:
         f9:6c:b1:02:83:b0:79:0b:fa:cb:dd:d6:4b:ad:bd:3d:37:2e:
         65:6e:1a:47:7d:e9:db:43:64:85:a4:a8:9f:6a:03:20:e1:24:
         e7:d8:67:db:97:64:6e:a2:fe:50:9a:69:5a:28:7c:59:20:af:
         a9:fc:67:f8:a8:34:dd:77:5a:35:c1:36:7b:76:42:45:38:be:
         64:43:5e:d5:b1:af:b7:ce:f0:0e:d8:68:b9:fc:33:90:b4:9f:
         10:c3:4f:a5:8f:c8:53:f6:b0:55:62:9e:18:64:c6:33:e5:4e:
         c0:cd:db:bb:54:f5:5b:91
-----BEGIN CERTIFICATE-----
MIIGrTCCBJWgAwIBAgICEEkwDQYJKoZIhvcNAQEEBQAwgawxCzAJBgNVBAYTAlVT
MQswCQYDVQQIEwJPSDERMA8GA1UEBxMIQ29sdW1idXMxEjAQBgNVBAoTCVZpa2lu
Z1ZQTjEdMBsGA1UECxMUTXlPcmdhbml6YXRpb25hbFVuaXQxFTATBgNVBAMTDFZp
a2luZ1ZQTiBDQTEQMA4GA1UEKRMHRWFzeVJTQTEhMB8GCSqGSIb3DQEJARYSbWVA
bXlob3N0Lm15ZG9tYWluMB4XDTE1MDExOTA2MjEzM1oXDTI1MDExNjA2MjEzM1ow
HzEdMBsGA1UEAxMUQ2xpZW50MTM3NUNlcnQxODQxNWUwggIiMA0GCSqGSIb3DQEB
AQUAA4ICDwAwggIKAoICAQDgh+it4toAtbNa0muJAO4NmEAdp3p2JxkFkz+YaC2X
ROFMFoLqpwmX4IzDV8wsIdBMXQiHbjfGoH3zGfaS96YS5vpZTc2rgtZ20LUuMUHt
v/bnbkxWTApVwLhLUAgvMuFBzjg4zrcpRIsH4bLfLLXrwJXWAj8CNIka5a7Di6Hb
E5tIV+CWfV0LUMr9PNciBJltuU3wuwN1yHOF93082vZRx/EiZvT1A2KejNCH+2Jw
3/9JUt8EVCCRTyGGOO8xKyrJT8W/1aVAhCPd++HcTGsPNs95GAOagH+nw1lqWm5b
jDZTpVgqpO9GgnjlPUZPvvcGdsXYxqhw4pi5bgGpsWGT4mWfrHGwmeQiJYlbrIo2
YM7hwqxq9QZy14+jCqk6VK3C+nr1ByP2aXWrz0JRLzXLNIcQLDFGo5hrAEZEM6/U
Fx+hx9OB5Lks5sVtFSPnNgXn7QT282fOgoJKlgO3XpBLQMumdKdSjJlOBVH4tYzl
tjbR0Or65EfbmRj1ACxsRrqq2a0Dj7iA/lyMLXuNEgQZFLDFVscSSspOrlfHe4TK
X2f9vk5vYssQWszvfYUYjp+Ud78a4j1bgbCqnEhjr2kFQGGVjH4zNMbtcst4g1Cy
cdHN+O1xt4P18axP+Ear4ObTQLo6i0G+iZD/9zXHBDgoec60vdL90Pvdwxpkj60l
uQIDAQABo4IBYzCCAV8wCQYDVR0TBAIwADAtBglghkgBhvhCAQ0EIBYeRWFzeS1S
U0EgR2VuZXJhdGVkIENlcnRpZmljYXRlMB0GA1UdDgQWBBSDDsTrSf6mqrrq6x3j
49rgGNcNwjCB4QYDVR0jBIHZMIHWgBQSzWAE0qCAnnDtxpm4eyzGUv0ZoaGBsqSB
rzCBrDELMAkGA1UEBhMCVVMxCzAJBgNVBAgTAk9IMREwDwYDVQQHEwhDb2x1bWJ1
czESMBAGA1UEChMJVmlraW5nVlBOMR0wGwYDVQQLExRNeU9yZ2FuaXphdGlvbmFs
VW5pdDEVMBMGA1UEAxMMVmlraW5nVlBOIENBMRAwDgYDVQQpEwdFYXN5UlNBMSEw
HwYJKoZIhvcNAQkBFhJtZUBteWhvc3QubXlkb21haW6CCQDPNYXugL8qPjATBgNV
HSUEDDAKBggrBgEFBQcDAjALBgNVHQ8EBAMCB4AwDQYJKoZIhvcNAQEEBQADggIB
AMWSHIjf269aKpiEabJLX/E6yaGk4pS0HUznfFuaEYIEdE7uugkJr049oRfVFoWh
RWD/LH69tKQV7nSrbX7dug4opTr/MUQItWRq07xUYqt3EzscTuls6Hmi9bxGe8I1
DVVHBv+phK3hEdHp2xGxcqMqN8k3mNg07F0LS7HRQueGL9d+E16NrCJmyA2FZNL2
BMBe2h5K8q4FlcqNKEHyl/DR1TM5sxK8S2/4Fpi+ZJ88QlytrPcrlwa1Cqs+cPtV
XF6n8R01gJQV+5DsCbXyY/l9/duTMiF6UDXMz30Er30cILjsRmvT4RMUAbUPkXBU
pmRdKwhBH2QcNL3Z1aow9IY1FEqME2jMVdF9JwFs1ARkl9End/FLaqDnaFn4fKqH
KZTgkPLN/BRvUtOh027LMjooK0RLN+bR/w20klbEn1aPPiWvEqWPleHt5tO9NV2X
jxeOh9Hcttdw/gCjl6tdQ1bOfZndp1oIew0zlFs0hj+ezPJpo6g+ofXWyYa7p+66
m5OiEEL7eEsOZSVWWflssQKDsHkL+svd1kutvT03LmVuGkd96dtDZIWkqJ9qAyDh
JOfYZ9uXZG6i/lCaaVoofFkgr6n8Z/ioNN13WjXBNnt2QkU4vmRDXtWxr7fO8A7Y
aLn8M5C0nxDDT6WPyFP2sFVinhhkxjPlTsDN27tU9VuR
-----END CERTIFICATE-----
