Certificate:
    Data:
        Version: 3 (0x2)
        Serial Number: 5078 (0x13d6)
    Signature Algorithm: md5WithRSAEncryption
        Issuer: C=US, ST=OH, L=Columbus, O=VikingVPN, OU=MyOrganizationalUnit, CN=VikingVPN CA/name=EasyRSA/emailAddress=me@myhost.mydomain
        Validity
            Not Before: Apr 25 14:22:46 2015 GMT
            Not After : Apr 22 14:22:46 2025 GMT
        Subject: CN=Client1637Certcfed0a
        Subject Public Key Info:
            Public Key Algorithm: rsaEncryption
                Public-Key: (4096 bit)
                Modulus:
                    00:c4:43:92:df:5d:9b:6d:2a:ac:89:91:ba:57:00:
                    27:58:6a:61:dc:9c:2f:0e:ed:98:d0:3f:d9:21:1a:
                    04:c3:d6:3d:d9:6d:fb:1f:49:f5:d2:31:63:d3:c5:
                    cb:17:0b:f9:de:94:52:73:74:78:9e:62:15:6e:17:
                    b6:ea:91:bc:e8:77:15:b2:da:85:47:36:b5:64:ce:
                    c2:97:50:6f:15:23:a0:f0:09:a7:eb:0a:4e:da:78:
                    34:12:53:04:f2:3b:74:5a:ce:fc:1f:e9:ae:6e:7a:
                    9c:b9:12:97:9c:41:ac:82:94:2b:5f:08:a8:9a:6e:
                    97:95:3b:20:f3:26:55:7b:32:eb:1b:92:1b:80:f3:
                    c3:f2:92:ab:7c:3c:dc:48:64:91:df:5b:82:59:f1:
                    17:79:70:16:b8:cf:7d:2b:9f:41:ba:d3:40:f8:35:
                    b4:c0:ac:f7:2c:47:72:6f:3c:26:e2:99:72:95:30:
                    70:b5:c3:cd:b1:18:5c:a0:99:2e:ac:04:8f:ab:74:
                    8e:93:2c:01:ad:fb:4f:ae:a2:56:d1:6b:dd:3b:27:
                    f9:d5:6d:6a:19:f4:45:70:c4:12:53:a0:87:dd:d8:
                    3d:81:ee:54:af:1a:d1:83:05:86:17:8b:00:b2:74:
                    c7:38:b3:19:80:21:d5:73:90:76:3f:4c:b9:6f:b8:
                    49:3d:f9:cc:aa:c2:9e:8d:ea:80:ab:59:27:4d:ea:
                    59:dd:dc:96:49:d1:86:31:a4:e0:fa:40:f5:63:08:
                    08:2d:91:df:3f:44:40:cb:3c:ad:fb:7c:50:26:74:
                    02:d5:39:26:0b:3d:07:fb:8a:95:6a:7e:ce:94:ba:
                    97:4a:92:db:35:4d:a2:00:46:41:26:e3:01:19:d7:
                    5b:65:85:3e:3f:ab:bd:96:25:2a:18:00:86:cd:16:
                    1f:17:57:a1:3b:62:8a:fa:79:f2:5b:77:1f:43:c6:
                    c1:a6:0b:00:e2:4c:9e:0e:b6:92:2f:12:aa:93:dc:
                    95:5f:42:9e:21:1e:30:9c:65:a7:8b:9c:a3:0c:65:
                    cb:e6:26:6e:1a:d9:8d:df:23:b2:c6:dd:e2:a4:cc:
                    de:40:57:51:39:59:ac:43:e6:66:e8:f6:26:6c:7d:
                    24:38:a2:39:31:39:23:bf:9a:a5:8b:43:64:65:63:
                    10:57:d7:67:b5:b7:78:c6:76:e8:7e:df:64:86:a6:
                    1c:14:56:0c:b7:41:91:e8:02:04:b9:29:84:17:3a:
                    6d:c4:ea:cd:0e:a1:2c:29:d6:eb:2e:75:91:3e:d7:
                    a7:9d:9d:b1:67:78:42:2c:78:f9:ce:94:23:6d:e3:
                    81:93:32:60:86:8c:14:48:e2:a0:f7:90:b3:b3:d6:
                    e4:b1:63
                Exponent: 65537 (0x10001)
        X509v3 extensions:
            X509v3 Basic Constraints: 
                CA:FALSE
            Netscape Comment: 
                Easy-RSA Generated Certificate
            X509v3 Subject Key Identifier: 
                3C:EC:CC:5F:F2:2A:BC:8C:37:B2:F2:D8:EA:78:C2:D7:9F:94:33:4A
            X509v3 Authority Key Identifier: 
                keyid:12:CD:60:04:D2:A0:80:9E:70:ED:C6:99:B8:7B:2C:C6:52:FD:19:A1
                DirName:/C=US/ST=OH/L=Columbus/O=VikingVPN/OU=MyOrganizationalUnit/CN=VikingVPN CA/name=EasyRSA/emailAddress=me@myhost.mydomain
                serial:CF:35:85:EE:80:BF:2A:3E

            X509v3 Extended Key Usage: 
                TLS Web Client Authentication
            X509v3 Key Usage: 
                Digital Signature
    Signature Algorithm: md5WithRSAEncryption
         54:0d:3c:e7:15:91:ab:d6:23:55:7c:24:3d:a8:69:ba:e1:65:
         23:93:b7:53:08:b7:dc:48:65:38:3a:89:f9:0d:45:ce:7a:db:
         ef:76:85:30:1e:47:27:a9:48:18:75:aa:0f:2e:e7:c9:2e:b0:
         91:3f:e0:f4:cc:8b:3c:e1:ea:1d:19:d7:52:e5:51:8e:4c:2b:
         2e:a1:7a:25:e1:f5:23:10:b7:81:4c:ff:fe:83:61:fc:c0:0a:
         94:5e:51:22:0f:32:c3:d7:81:40:96:e8:cf:30:5e:27:74:a2:
         b6:88:f8:ff:7a:46:8a:49:dc:f4:e1:2b:ae:3f:21:33:bf:63:
         1c:f2:9e:85:6e:35:7c:62:96:e8:2c:83:18:e0:06:4e:04:75:
         ed:3d:85:b6:05:3b:4e:a0:bc:1c:ab:52:c9:93:cf:82:43:f9:
         a9:8b:a4:6f:f7:26:57:0b:b0:58:bb:a9:96:7e:3b:aa:c3:88:
         79:d8:5e:e5:11:22:55:a5:ca:c6:5c:0f:1b:cb:4d:a0:a2:96:
         4e:28:c4:4c:58:62:19:5a:fc:41:30:36:ce:53:d7:6e:30:af:
         1d:a9:e6:ad:7b:ce:72:b5:16:86:95:77:8d:cd:5a:fe:d5:49:
         1f:ad:6d:98:df:a3:77:1f:40:a2:05:ee:d4:e8:ee:92:f6:21:
         db:6e:8e:f9:7e:fc:20:5f:9a:8a:d5:6c:ae:ef:6f:9b:2e:a3:
         b8:fd:ae:5c:b2:af:b3:ed:e4:35:cd:39:2d:77:80:ff:af:00:
         55:8e:5c:f8:7a:b2:2c:9d:52:2e:d2:50:70:2f:ef:b1:bf:0b:
         ac:e2:d2:a1:6a:87:f7:72:8d:5e:d5:1d:ac:fc:87:0f:e7:b6:
         66:9e:6b:83:c0:69:ec:c1:db:08:c1:0b:f6:a9:5d:4d:45:4b:
         aa:e8:d9:9c:e0:46:2a:21:4f:31:16:44:85:10:c9:04:20:f6:
         87:be:dd:28:fe:bd:88:2e:4e:1f:b9:e6:f3:98:d5:4a:c4:ae:
         bc:6f:8c:a9:ef:ef:eb:71:5b:1f:8a:4d:75:f9:a7:85:e4:fa:
         7a:b8:6d:01:bb:53:91:21:b7:ae:5b:d7:3b:ca:a9:3e:2b:00:
         35:bb:c9:60:2a:03:64:7e:2e:13:2a:17:82:e6:cb:dc:71:bd:
         e9:b1:bb:e8:48:95:bb:b4:78:03:11:54:b8:cb:ba:32:9a:a9:
         33:ec:e9:fc:5a:d2:c4:78:dd:d5:0f:c0:bb:09:70:f6:88:1a:
         a7:99:80:f2:68:f8:a4:f0:f3:72:0f:6c:93:e4:78:2d:4f:0c:
         a3:30:48:44:c8:75:59:bc:d6:9c:97:0a:4c:0b:8e:c8:85:25:
         37:84:13:6c:99:0e:68:f7
-----BEGIN CERTIFICATE-----
MIIGrTCCBJWgAwIBAgICE9YwDQYJKoZIhvcNAQEEBQAwgawxCzAJBgNVBAYTAlVT
MQswCQYDVQQIEwJPSDERMA8GA1UEBxMIQ29sdW1idXMxEjAQBgNVBAoTCVZpa2lu
Z1ZQTjEdMBsGA1UECxMUTXlPcmdhbml6YXRpb25hbFVuaXQxFTATBgNVBAMTDFZp
a2luZ1ZQTiBDQTEQMA4GA1UEKRMHRWFzeVJTQTEhMB8GCSqGSIb3DQEJARYSbWVA
bXlob3N0Lm15ZG9tYWluMB4XDTE1MDQyNTE0MjI0NloXDTI1MDQyMjE0MjI0Nlow
HzEdMBsGA1UEAxMUQ2xpZW50MTYzN0NlcnRjZmVkMGEwggIiMA0GCSqGSIb3DQEB
AQUAA4ICDwAwggIKAoICAQDEQ5LfXZttKqyJkbpXACdYamHcnC8O7ZjQP9khGgTD
1j3ZbfsfSfXSMWPTxcsXC/nelFJzdHieYhVuF7bqkbzodxWy2oVHNrVkzsKXUG8V
I6DwCafrCk7aeDQSUwTyO3Razvwf6a5uepy5EpecQayClCtfCKiabpeVOyDzJlV7
MusbkhuA88Pykqt8PNxIZJHfW4JZ8Rd5cBa4z30rn0G600D4NbTArPcsR3JvPCbi
mXKVMHC1w82xGFygmS6sBI+rdI6TLAGt+0+uolbRa907J/nVbWoZ9EVwxBJToIfd
2D2B7lSvGtGDBYYXiwCydMc4sxmAIdVzkHY/TLlvuEk9+cyqwp6N6oCrWSdN6lnd
3JZJ0YYxpOD6QPVjCAgtkd8/REDLPK37fFAmdALVOSYLPQf7ipVqfs6UupdKkts1
TaIARkEm4wEZ11tlhT4/q72WJSoYAIbNFh8XV6E7Yor6efJbdx9DxsGmCwDiTJ4O
tpIvEqqT3JVfQp4hHjCcZaeLnKMMZcvmJm4a2Y3fI7LG3eKkzN5AV1E5WaxD5mbo
9iZsfSQ4ojkxOSO/mqWLQ2RlYxBX12e1t3jGduh+32SGphwUVgy3QZHoAgS5KYQX
Om3E6s0OoSwp1usudZE+16ednbFneEIsePnOlCNt44GTMmCGjBRI4qD3kLOz1uSx
YwIDAQABo4IBYzCCAV8wCQYDVR0TBAIwADAtBglghkgBhvhCAQ0EIBYeRWFzeS1S
U0EgR2VuZXJhdGVkIENlcnRpZmljYXRlMB0GA1UdDgQWBBQ87Mxf8iq8jDey8tjq
eMLXn5QzSjCB4QYDVR0jBIHZMIHWgBQSzWAE0qCAnnDtxpm4eyzGUv0ZoaGBsqSB
rzCBrDELMAkGA1UEBhMCVVMxCzAJBgNVBAgTAk9IMREwDwYDVQQHEwhDb2x1bWJ1
czESMBAGA1UEChMJVmlraW5nVlBOMR0wGwYDVQQLExRNeU9yZ2FuaXphdGlvbmFs
VW5pdDEVMBMGA1UEAxMMVmlraW5nVlBOIENBMRAwDgYDVQQpEwdFYXN5UlNBMSEw
HwYJKoZIhvcNAQkBFhJtZUBteWhvc3QubXlkb21haW6CCQDPNYXugL8qPjATBgNV
HSUEDDAKBggrBgEFBQcDAjALBgNVHQ8EBAMCB4AwDQYJKoZIhvcNAQEEBQADggIB
AFQNPOcVkavWI1V8JD2oabrhZSOTt1MIt9xIZTg6ifkNRc562+92hTAeRyepSBh1
qg8u58kusJE/4PTMizzh6h0Z11LlUY5MKy6heiXh9SMQt4FM//6DYfzACpReUSIP
MsPXgUCW6M8wXid0oraI+P96RopJ3PThK64/ITO/YxzynoVuNXxilugsgxjgBk4E
de09hbYFO06gvByrUsmTz4JD+amLpG/3JlcLsFi7qZZ+O6rDiHnYXuURIlWlysZc
DxvLTaCilk4oxExYYhla/EEwNs5T124wrx2p5q17znK1FoaVd43NWv7VSR+tbZjf
o3cfQKIF7tTo7pL2Idtujvl+/CBfmorVbK7vb5suo7j9rlyyr7Pt5DXNOS13gP+v
AFWOXPh6siydUi7SUHAv77G/C6zi0qFqh/dyjV7VHaz8hw/ntmaea4PAaezB2wjB
C/apXU1FS6ro2ZzgRiohTzEWRIUQyQQg9oe+3Sj+vYguTh+55vOY1UrErrxvjKnv
7+txWx+KTXX5p4Xk+nq4bQG7U5Eht65b1zvKqT4rADW7yWAqA2R+LhMqF4Lmy9xx
vemxu+hIlbu0eAMRVLjLujKaqTPs6fxa0sR43dUPwLsJcPaIGqeZgPJo+KTw83IP
bJPkeC1PDKMwSETIdVm81pyXCkwLjsiFJTeEE2yZDmj3
-----END CERTIFICATE-----
