Certificate:
    Data:
        Version: 3 (0x2)
        Serial Number: 782 (0x30e)
    Signature Algorithm: md5WithRSAEncryption
        Issuer: C=US, ST=OH, L=Columbus, O=VikingVPN, OU=MyOrganizationalUnit, CN=VikingVPN CA/name=EasyRSA/emailAddress=me@myhost.mydomain
        Validity
            Not Before: Jan 17 23:31:52 2014 GMT
            Not After : Jan 15 23:31:52 2024 GMT
        Subject: CN=Client315Cert3ff3d0
        Subject Public Key Info:
            Public Key Algorithm: rsaEncryption
                Public-Key: (4096 bit)
                Modulus:
                    00:cc:ae:6b:a5:4b:41:01:9a:e7:95:d5:88:8c:d6:
                    6c:22:79:41:9a:09:ff:a2:cc:18:73:78:7f:49:cd:
                    6f:5f:29:49:d0:05:44:49:fb:61:a2:38:b3:bd:d3:
                    ba:f1:3e:4e:e2:16:49:f4:66:87:50:47:89:e3:c3:
                    2b:f7:2d:d8:fa:ae:d6:43:c0:b8:cd:18:98:04:6e:
                    93:cd:c0:6a:45:45:69:c2:5b:eb:57:26:fc:46:50:
                    d0:46:50:df:28:fa:7c:4c:21:76:37:30:9c:d3:97:
                    02:95:90:69:b1:49:22:2c:bc:af:98:2a:d6:42:d3:
                    68:82:37:d8:1e:64:5b:8c:c5:f0:7f:c7:0d:b2:00:
                    7d:49:98:31:ee:cf:06:50:9e:ef:92:f6:3a:e7:47:
                    18:7b:51:4d:b0:40:d1:58:72:0d:41:cd:dc:c2:e9:
                    2b:3b:ad:fa:e1:89:e8:ef:ec:4a:20:f1:5f:b8:6c:
                    5a:44:6f:87:6e:d1:ee:29:61:1d:d0:c1:3b:d8:1e:
                    80:e5:32:33:46:16:48:b5:8e:b1:04:fc:77:50:61:
                    32:70:a5:ea:15:83:ea:89:1c:53:dc:2a:3b:e0:cd:
                    53:d4:0c:f9:9b:12:50:51:a1:61:b9:76:da:37:84:
                    3c:bc:4c:da:99:e5:01:4d:78:c7:d4:62:38:68:29:
                    ba:dc:ef:6a:dd:75:89:80:80:20:3a:bb:ce:a0:15:
                    23:0c:a8:85:5a:91:8d:c9:77:61:9b:fe:6d:91:b3:
                    1b:21:b5:76:e0:4a:94:8d:46:27:50:b1:79:82:b2:
                    26:84:20:c3:7f:1d:1d:5b:5f:71:88:90:c9:ba:92:
                    27:09:c0:ac:89:5c:8b:f5:13:c9:76:f4:8c:90:81:
                    ac:f0:7d:e5:e3:36:a2:d7:1c:3e:39:fe:a7:3e:75:
                    01:de:e7:22:b4:24:ca:38:7e:0c:df:87:73:ba:19:
                    3c:78:f4:bd:24:79:54:05:da:2b:0a:57:21:ef:e0:
                    b2:e5:01:bd:70:9f:c9:65:df:37:50:29:8b:04:05:
                    6b:09:50:76:22:d6:55:41:83:9a:48:cd:f5:9f:24:
                    ed:1d:fd:2a:4a:ae:dc:b5:eb:97:9d:35:8c:19:b6:
                    ac:9e:2b:16:68:28:45:5f:f3:bb:e4:de:b1:f0:84:
                    2f:4a:91:a4:b7:37:2d:32:ce:aa:34:b8:9e:a6:ca:
                    ee:30:dc:5c:67:5b:b2:04:d0:74:d6:c7:fa:e0:05:
                    f1:fa:4a:c1:2b:23:78:e4:ae:d5:b1:02:cb:e7:7f:
                    86:a1:1e:1d:87:73:b4:56:e0:a7:cf:de:5a:e2:d0:
                    cc:3c:61:7d:46:d6:40:b4:75:7b:ea:0b:c7:e2:28:
                    ad:3e:dd
                Exponent: 65537 (0x10001)
        X509v3 extensions:
            X509v3 Basic Constraints: 
                CA:FALSE
            Netscape Comment: 
                Easy-RSA Generated Certificate
            X509v3 Subject Key Identifier: 
                1C:FC:B8:65:CB:77:2F:A8:0F:01:8A:3F:64:1C:11:A6:65:E6:64:5D
            X509v3 Authority Key Identifier: 
                keyid:12:CD:60:04:D2:A0:80:9E:70:ED:C6:99:B8:7B:2C:C6:52:FD:19:A1
                DirName:/C=US/ST=OH/L=Columbus/O=VikingVPN/OU=MyOrganizationalUnit/CN=VikingVPN CA/name=EasyRSA/emailAddress=me@myhost.mydomain
                serial:CF:35:85:EE:80:BF:2A:3E

            X509v3 Extended Key Usage: 
                TLS Web Client Authentication
            X509v3 Key Usage: 
                Digital Signature
    Signature Algorithm: md5WithRSAEncryption
         83:d8:02:2b:67:6b:0d:f0:c8:67:44:ca:f7:c2:50:ce:cc:d7:
         94:6f:c0:e8:dd:45:50:5c:98:e7:55:7b:d8:34:7b:37:31:84:
         56:80:e3:65:ae:1d:41:fb:98:5e:5d:6b:fe:40:5b:88:e0:3e:
         40:98:19:fb:43:38:8a:6d:ed:61:db:fe:a3:0e:59:c6:06:ba:
         52:3d:c7:bc:a7:c0:d5:65:a3:d6:15:2c:77:ec:a4:1d:8e:16:
         b3:85:98:a1:5e:54:bc:c6:5d:b9:be:63:d9:0b:55:ec:2a:32:
         75:6a:12:b3:62:50:b6:d1:c5:9f:3d:81:fe:5e:d6:89:b0:8b:
         b1:b3:bc:a3:5b:3a:c1:1e:c0:7b:36:cd:c3:a6:c2:94:16:c8:
         2e:20:25:07:84:f5:64:34:75:5d:c3:e0:39:6b:78:0f:af:08:
         12:bf:f5:2b:29:4e:0a:44:87:f3:c6:2e:0c:a3:d1:1b:97:8b:
         4f:f7:33:ef:7d:aa:e5:a6:ec:05:bd:58:2a:55:cb:94:fd:31:
         85:2b:4e:95:7f:0a:7a:cb:cd:62:9f:6d:ab:41:48:a6:bc:82:
         b5:0c:a7:b7:08:a5:1a:e7:a2:a5:79:ab:b3:dc:e7:0d:5c:90:
         a8:50:37:12:ba:ae:40:8f:25:19:15:68:15:ee:80:b3:2d:a6:
         ad:80:a2:7f:c2:92:2b:9f:b0:70:37:7d:a7:50:45:36:d2:44:
         07:6c:e8:f0:d5:a5:fa:55:53:c4:0a:6e:0e:33:ed:96:bb:54:
         cb:99:da:2b:e4:5d:86:83:e9:35:82:71:b7:8d:f2:71:5a:a0:
         49:58:b0:f2:b9:5f:c3:ad:aa:58:f9:bb:2a:d7:c0:97:a6:ae:
         63:a5:7b:07:98:62:2f:e1:fc:7e:34:2b:bf:7c:be:f0:66:33:
         f8:4f:e5:05:78:f8:58:82:34:d9:22:d6:4c:2a:20:66:a1:09:
         91:11:95:69:7a:8f:61:0e:be:df:a4:30:1c:a5:c0:b8:b6:14:
         05:c4:57:e3:22:3e:8d:f0:ca:d5:a3:14:70:ac:60:b4:c4:cd:
         69:4d:b0:3c:be:14:f6:bf:37:ee:46:7f:5a:81:1e:38:8f:1c:
         38:ff:90:ed:a1:6f:5c:16:24:69:38:73:d4:1b:b8:ec:21:ac:
         0e:4b:cd:d6:b7:fb:1f:93:92:55:95:4f:ee:a2:6f:52:c9:09:
         78:2d:86:e8:ce:7c:44:c3:a1:7b:8e:5b:2a:20:67:6c:7a:96:
         7a:96:79:aa:70:3a:11:12:d0:6e:f9:77:65:9c:d0:4b:f9:ed:
         54:ab:41:00:19:00:09:d9:61:82:9a:2d:d7:81:b6:42:72:d6:
         aa:cf:cd:d0:68:66:f4:a9
-----BEGIN CERTIFICATE-----
MIIGrDCCBJSgAwIBAgICAw4wDQYJKoZIhvcNAQEEBQAwgawxCzAJBgNVBAYTAlVT
MQswCQYDVQQIEwJPSDERMA8GA1UEBxMIQ29sdW1idXMxEjAQBgNVBAoTCVZpa2lu
Z1ZQTjEdMBsGA1UECxMUTXlPcmdhbml6YXRpb25hbFVuaXQxFTATBgNVBAMTDFZp
a2luZ1ZQTiBDQTEQMA4GA1UEKRMHRWFzeVJTQTEhMB8GCSqGSIb3DQEJARYSbWVA
bXlob3N0Lm15ZG9tYWluMB4XDTE0MDExNzIzMzE1MloXDTI0MDExNTIzMzE1Mlow
HjEcMBoGA1UEAxMTQ2xpZW50MzE1Q2VydDNmZjNkMDCCAiIwDQYJKoZIhvcNAQEB
BQADggIPADCCAgoCggIBAMyua6VLQQGa55XViIzWbCJ5QZoJ/6LMGHN4f0nNb18p
SdAFREn7YaI4s73TuvE+TuIWSfRmh1BHiePDK/ct2Pqu1kPAuM0YmARuk83AakVF
acJb61cm/EZQ0EZQ3yj6fEwhdjcwnNOXApWQabFJIiy8r5gq1kLTaII32B5kW4zF
8H/HDbIAfUmYMe7PBlCe75L2OudHGHtRTbBA0VhyDUHN3MLpKzut+uGJ6O/sSiDx
X7hsWkRvh27R7ilhHdDBO9gegOUyM0YWSLWOsQT8d1BhMnCl6hWD6okcU9wqO+DN
U9QM+ZsSUFGhYbl22jeEPLxM2pnlAU14x9RiOGgputzvat11iYCAIDq7zqAVIwyo
hVqRjcl3YZv+bZGzGyG1duBKlI1GJ1CxeYKyJoQgw38dHVtfcYiQybqSJwnArIlc
i/UTyXb0jJCBrPB95eM2otccPjn+pz51Ad7nIrQkyjh+DN+Hc7oZPHj0vSR5VAXa
KwpXIe/gsuUBvXCfyWXfN1ApiwQFawlQdiLWVUGDmkjN9Z8k7R39Kkqu3LXrl501
jBm2rJ4rFmgoRV/zu+TesfCEL0qRpLc3LTLOqjS4nqbK7jDcXGdbsgTQdNbH+uAF
8fpKwSsjeOSu1bECy+d/hqEeHYdztFbgp8/eWuLQzDxhfUbWQLR1e+oLx+IorT7d
AgMBAAGjggFjMIIBXzAJBgNVHRMEAjAAMC0GCWCGSAGG+EIBDQQgFh5FYXN5LVJT
QSBHZW5lcmF0ZWQgQ2VydGlmaWNhdGUwHQYDVR0OBBYEFBz8uGXLdy+oDwGKP2Qc
EaZl5mRdMIHhBgNVHSMEgdkwgdaAFBLNYATSoICecO3Gmbh7LMZS/RmhoYGypIGv
MIGsMQswCQYDVQQGEwJVUzELMAkGA1UECBMCT0gxETAPBgNVBAcTCENvbHVtYnVz
MRIwEAYDVQQKEwlWaWtpbmdWUE4xHTAbBgNVBAsTFE15T3JnYW5pemF0aW9uYWxV
bml0MRUwEwYDVQQDEwxWaWtpbmdWUE4gQ0ExEDAOBgNVBCkTB0Vhc3lSU0ExITAf
BgkqhkiG9w0BCQEWEm1lQG15aG9zdC5teWRvbWFpboIJAM81he6Avyo+MBMGA1Ud
JQQMMAoGCCsGAQUFBwMCMAsGA1UdDwQEAwIHgDANBgkqhkiG9w0BAQQFAAOCAgEA
g9gCK2drDfDIZ0TK98JQzszXlG/A6N1FUFyY51V72DR7NzGEVoDjZa4dQfuYXl1r
/kBbiOA+QJgZ+0M4im3tYdv+ow5Zxga6Uj3HvKfA1WWj1hUsd+ykHY4Ws4WYoV5U
vMZdub5j2QtV7CoydWoSs2JQttHFnz2B/l7WibCLsbO8o1s6wR7AezbNw6bClBbI
LiAlB4T1ZDR1XcPgOWt4D68IEr/1KylOCkSH88YuDKPRG5eLT/cz732q5absBb1Y
KlXLlP0xhStOlX8KesvNYp9tq0FIpryCtQyntwilGueipXmrs9znDVyQqFA3Erqu
QI8lGRVoFe6Asy2mrYCif8KSK5+wcDd9p1BFNtJEB2zo8NWl+lVTxApuDjPtlrtU
y5naK+RdhoPpNYJxt43ycVqgSViw8rlfw62qWPm7KtfAl6auY6V7B5hiL+H8fjQr
v3y+8GYz+E/lBXj4WII02SLWTCogZqEJkRGVaXqPYQ6+36QwHKXAuLYUBcRX4yI+
jfDK1aMUcKxgtMTNaU2wPL4U9r837kZ/WoEeOI8cOP+Q7aFvXBYkaThz1Bu47CGs
DkvN1rf7H5OSVZVP7qJvUskJeC2G6M58RMOhe45bKiBnbHqWepZ5qnA6ERLQbvl3
ZZzQS/ntVKtBABkACdlhgpot14G2QnLWqs/N0Ghm9Kk=
-----END CERTIFICATE-----
