Certificate:
    Data:
        Version: 3 (0x2)
        Serial Number: 11224 (0x2bd8)
    Signature Algorithm: sha256WithRSAEncryption
        Issuer: C=US, ST=OH, L=Columbus, O=VikingVPN, OU=MyOrganizationalUnit, CN=VikingVPN CA/name=EasyRSA/emailAddress=me@myhost.mydomain
        Validity
            Not Before: Jul  4 16:23:22 2017 GMT
            Not After : Jul  2 16:23:22 2027 GMT
        Subject: CN=Client2904Certb8e837
        Subject Public Key Info:
            Public Key Algorithm: rsaEncryption
                Public-Key: (4096 bit)
                Modulus:
                    00:a1:85:b9:02:6e:ed:4e:e2:20:67:e5:45:4c:88:
                    48:72:5b:ee:1a:dd:68:b5:04:f0:ec:91:ea:c7:fa:
                    0f:65:d7:70:93:e5:4b:da:d8:c9:d9:10:9f:78:94:
                    7f:60:15:79:60:be:4e:65:24:38:d1:5f:5a:8d:72:
                    b2:c5:b0:98:ec:ad:25:71:93:38:25:4b:b1:30:97:
                    b8:1e:7a:3a:db:85:80:95:37:7b:75:0d:9c:d9:73:
                    e4:9a:1a:51:14:7b:14:0c:2d:fc:3f:93:3d:47:8d:
                    23:d2:57:1a:86:91:b4:de:00:6c:ec:d8:c1:dd:f5:
                    18:6a:59:09:97:38:8e:00:ad:9d:bf:48:9c:14:a8:
                    76:0d:ca:9e:8a:0f:46:d9:7f:87:72:79:13:c5:44:
                    c4:10:3d:67:0e:cd:e1:fd:2a:ae:63:03:63:7b:85:
                    16:29:d6:b7:4b:3a:72:0a:af:69:8a:94:87:67:6d:
                    ce:ad:ea:d3:31:4f:9f:67:ec:ec:29:d6:66:a7:53:
                    15:68:7c:92:63:cd:5a:a3:a4:6b:15:78:21:3b:63:
                    57:e0:9a:9d:2f:58:77:f1:e1:df:b1:64:57:da:9b:
                    5f:b0:a7:da:41:9f:5e:ac:dd:29:6b:6f:3f:19:d9:
                    4c:f8:96:55:92:97:bf:62:bd:2e:65:c6:02:f0:0a:
                    c5:8e:bd:5e:d4:f0:1d:96:d7:40:0a:a3:c2:49:c1:
                    ee:20:d0:3e:1c:9c:96:7f:61:f0:85:4f:8a:4b:b6:
                    f2:8c:06:82:b9:fc:da:ad:c6:b7:9e:1d:6a:6d:1f:
                    77:5b:79:f6:2e:ee:5c:e0:be:1d:24:e7:56:86:1f:
                    0c:c3:2f:77:66:2e:60:84:a8:a2:af:e2:49:0e:8c:
                    f1:08:30:12:e2:cc:c9:66:94:02:98:b2:0c:f0:ce:
                    a5:73:68:c3:da:bc:6e:c8:40:41:a5:5b:52:b8:9a:
                    2d:3f:72:6b:d4:bd:f0:6a:eb:01:3b:15:38:5a:a3:
                    0a:f8:2d:5c:15:e1:eb:e3:16:c3:c1:ed:8d:0a:6a:
                    93:46:0b:ee:b1:65:e3:0d:3f:66:03:70:67:c0:30:
                    8e:c9:9c:09:7c:92:83:98:7f:fe:f5:3b:50:1e:e3:
                    0e:60:2b:20:80:1b:1a:44:15:81:e7:c8:cb:b5:41:
                    51:f6:99:29:9a:c7:4c:ec:6a:00:f0:ce:bd:66:98:
                    6f:9c:68:12:6e:de:f3:f3:c8:9e:62:8b:6f:3c:49:
                    ae:a1:71:b5:ac:71:7e:d5:f9:c4:7c:7d:1c:f9:f9:
                    35:de:b7:9b:83:cc:86:73:3d:4e:8b:d3:0d:b4:1d:
                    8b:b9:56:36:8a:f5:fd:61:0d:b7:f3:09:1e:33:04:
                    46:2f:f7
                Exponent: 65537 (0x10001)
        X509v3 extensions:
            X509v3 Basic Constraints: 
                CA:FALSE
            Netscape Comment: 
                Easy-RSA Generated Certificate
            X509v3 Subject Key Identifier: 
                74:38:D0:90:BD:4A:86:6E:CE:70:16:6D:FE:0E:94:35:A2:3B:14:79
            X509v3 Authority Key Identifier: 
                keyid:12:CD:60:04:D2:A0:80:9E:70:ED:C6:99:B8:7B:2C:C6:52:FD:19:A1
                DirName:/C=US/ST=OH/L=Columbus/O=VikingVPN/OU=MyOrganizationalUnit/CN=VikingVPN CA/name=EasyRSA/emailAddress=me@myhost.mydomain
                serial:CF:35:85:EE:80:BF:2A:3E

            X509v3 Extended Key Usage: 
                TLS Web Client Authentication
            X509v3 Key Usage: 
                Digital Signature
    Signature Algorithm: sha256WithRSAEncryption
         af:20:8f:5d:f9:0f:f4:ac:ad:ef:60:9f:c0:ab:45:3a:39:cf:
         8d:3c:f1:c6:e4:81:eb:6e:49:dd:fd:12:d7:2d:f6:0a:6a:16:
         b4:59:6f:56:64:5e:20:9e:10:10:e1:c6:8a:25:07:e9:41:fc:
         be:a1:66:3f:21:c5:78:1b:83:73:94:db:a8:49:39:3c:3b:e4:
         8f:c4:b4:bf:09:47:17:db:cd:fb:bc:1d:32:71:ef:89:84:d3:
         2f:df:70:76:dd:b5:73:ce:bf:16:c8:ed:a9:17:5f:65:60:9e:
         b3:25:fe:fc:79:e0:18:8b:1c:b7:e9:18:29:47:d6:16:0a:66:
         24:f7:54:5e:d1:7e:57:d0:b8:96:56:b7:f0:7a:b8:a4:ee:c2:
         0f:39:8e:ac:2e:75:76:7c:59:65:2b:e2:85:ca:c0:1b:11:37:
         c1:9f:25:1c:b8:fa:1c:d3:19:5c:95:64:81:b0:1a:27:cf:7a:
         6f:f4:63:f1:b8:c0:02:a6:29:57:9e:e7:74:f8:2e:50:8c:43:
         aa:ff:f2:a3:ec:6e:b5:44:eb:05:de:e1:e6:f2:1d:17:2c:82:
         ad:22:e9:fc:8a:db:8e:61:4c:15:07:b7:31:6c:9d:31:ed:a7:
         bc:83:ee:88:b1:ca:2a:d3:2a:e7:3d:ee:cb:7e:91:2a:99:b3:
         9a:c3:66:e0:27:36:a9:5c:6e:4f:a9:24:80:c8:ef:2a:ef:62:
         f5:68:44:e6:9f:b7:a9:96:00:22:a3:d7:58:8e:d7:ab:90:b1:
         ad:24:5f:16:06:c8:d8:89:76:87:dc:2e:a8:e5:bb:6b:f7:93:
         99:3a:1a:f1:07:b2:56:7a:da:b4:24:96:42:e8:6a:ac:11:e1:
         05:56:fe:96:b2:f5:b3:04:ad:a5:ba:3f:5c:ed:6f:a6:30:2e:
         ad:ab:75:31:90:3f:92:8b:47:3a:9d:94:10:ac:c7:5d:1c:53:
         c5:de:2d:da:07:0b:fb:92:d5:25:42:6e:af:00:ce:ee:90:aa:
         7e:60:fe:dc:61:2a:d9:83:83:ec:13:b9:45:98:ee:40:ae:02:
         98:cf:d3:88:a1:25:a5:f5:fc:a3:00:d1:91:b7:ee:3b:07:ca:
         80:c6:b0:90:49:65:1f:5c:30:fb:ce:f4:c9:09:25:29:75:69:
         0f:7a:25:59:13:72:74:c1:dc:b4:09:5f:53:6a:4e:9b:43:2d:
         c9:88:ff:b1:84:53:5c:08:4f:78:ac:ec:0f:88:16:43:4f:8b:
         80:2d:f6:3a:db:b4:9a:29:02:fd:ec:66:9d:94:1f:a7:9b:23:
         06:1c:84:00:6a:7d:2b:e0:14:2e:c3:15:04:50:53:b4:2c:f0:
         ff:45:b1:3c:15:8c:b4:24
-----BEGIN CERTIFICATE-----
MIIGrTCCBJWgAwIBAgICK9gwDQYJKoZIhvcNAQELBQAwgawxCzAJBgNVBAYTAlVT
MQswCQYDVQQIEwJPSDERMA8GA1UEBxMIQ29sdW1idXMxEjAQBgNVBAoTCVZpa2lu
Z1ZQTjEdMBsGA1UECxMUTXlPcmdhbml6YXRpb25hbFVuaXQxFTATBgNVBAMTDFZp
a2luZ1ZQTiBDQTEQMA4GA1UEKRMHRWFzeVJTQTEhMB8GCSqGSIb3DQEJARYSbWVA
bXlob3N0Lm15ZG9tYWluMB4XDTE3MDcwNDE2MjMyMloXDTI3MDcwMjE2MjMyMlow
HzEdMBsGA1UEAxMUQ2xpZW50MjkwNENlcnRiOGU4MzcwggIiMA0GCSqGSIb3DQEB
AQUAA4ICDwAwggIKAoICAQChhbkCbu1O4iBn5UVMiEhyW+4a3Wi1BPDskerH+g9l
13CT5Uva2MnZEJ94lH9gFXlgvk5lJDjRX1qNcrLFsJjsrSVxkzglS7Ewl7geejrb
hYCVN3t1DZzZc+SaGlEUexQMLfw/kz1HjSPSVxqGkbTeAGzs2MHd9RhqWQmXOI4A
rZ2/SJwUqHYNyp6KD0bZf4dyeRPFRMQQPWcOzeH9Kq5jA2N7hRYp1rdLOnIKr2mK
lIdnbc6t6tMxT59n7Owp1manUxVofJJjzVqjpGsVeCE7Y1fgmp0vWHfx4d+xZFfa
m1+wp9pBn16s3Slrbz8Z2Uz4llWSl79ivS5lxgLwCsWOvV7U8B2W10AKo8JJwe4g
0D4cnJZ/YfCFT4pLtvKMBoK5/NqtxreeHWptH3dbefYu7lzgvh0k51aGHwzDL3dm
LmCEqKKv4kkOjPEIMBLizMlmlAKYsgzwzqVzaMPavG7IQEGlW1K4mi0/cmvUvfBq
6wE7FThaowr4LVwV4evjFsPB7Y0KapNGC+6xZeMNP2YDcGfAMI7JnAl8koOYf/71
O1Ae4w5gKyCAGxpEFYHnyMu1QVH2mSmax0zsagDwzr1mmG+caBJu3vPzyJ5ii288
Sa6hcbWscX7V+cR8fRz5+TXet5uDzIZzPU6L0w20HYu5VjaK9f1hDbfzCR4zBEYv
9wIDAQABo4IBYzCCAV8wCQYDVR0TBAIwADAtBglghkgBhvhCAQ0EIBYeRWFzeS1S
U0EgR2VuZXJhdGVkIENlcnRpZmljYXRlMB0GA1UdDgQWBBR0ONCQvUqGbs5wFm3+
DpQ1ojsUeTCB4QYDVR0jBIHZMIHWgBQSzWAE0qCAnnDtxpm4eyzGUv0ZoaGBsqSB
rzCBrDELMAkGA1UEBhMCVVMxCzAJBgNVBAgTAk9IMREwDwYDVQQHEwhDb2x1bWJ1
czESMBAGA1UEChMJVmlraW5nVlBOMR0wGwYDVQQLExRNeU9yZ2FuaXphdGlvbmFs
VW5pdDEVMBMGA1UEAxMMVmlraW5nVlBOIENBMRAwDgYDVQQpEwdFYXN5UlNBMSEw
HwYJKoZIhvcNAQkBFhJtZUBteWhvc3QubXlkb21haW6CCQDPNYXugL8qPjATBgNV
HSUEDDAKBggrBgEFBQcDAjALBgNVHQ8EBAMCB4AwDQYJKoZIhvcNAQELBQADggIB
AK8gj135D/Ssre9gn8CrRTo5z4088cbkgetuSd39Etct9gpqFrRZb1ZkXiCeEBDh
xoolB+lB/L6hZj8hxXgbg3OU26hJOTw75I/EtL8JRxfbzfu8HTJx74mE0y/fcHbd
tXPOvxbI7akXX2VgnrMl/vx54BiLHLfpGClH1hYKZiT3VF7RflfQuJZWt/B6uKTu
wg85jqwudXZ8WWUr4oXKwBsRN8GfJRy4+hzTGVyVZIGwGifPem/0Y/G4wAKmKVee
53T4LlCMQ6r/8qPsbrVE6wXe4ebyHRcsgq0i6fyK245hTBUHtzFsnTHtp7yD7oix
yirTKuc97st+kSqZs5rDZuAnNqlcbk+pJIDI7yrvYvVoROaft6mWACKj11iO16uQ
sa0kXxYGyNiJdofcLqjlu2v3k5k6GvEHslZ62rQklkLoaqwR4QVW/pay9bMEraW6
P1ztb6YwLq2rdTGQP5KLRzqdlBCsx10cU8XeLdoHC/uS1SVCbq8Azu6Qqn5g/txh
KtmDg+wTuUWY7kCuApjP04ihJaX1/KMA0ZG37jsHyoDGsJBJZR9cMPvO9MkJJSl1
aQ96JVkTcnTB3LQJX1NqTptDLcmI/7GEU1wIT3is7A+IFkNPi4At9jrbtJopAv3s
Zp2UH6ebIwYchABqfSvgFC7DFQRQU7Qs8P9FsTwVjLQk
-----END CERTIFICATE-----
