Certificate:
    Data:
        Version: 3 (0x2)
        Serial Number: 331 (0x14b)
    Signature Algorithm: md5WithRSAEncryption
        Issuer: C=US, ST=OH, L=Columbus, O=VikingVPN, OU=MyOrganizationalUnit, CN=VikingVPN CA/name=EasyRSA/emailAddress=me@myhost.mydomain
        Validity
            Not Before: Oct 24 01:31:43 2013 GMT
            Not After : Oct 22 01:31:43 2023 GMT
        Subject: CN=Client148Cert5bcfcc
        Subject Public Key Info:
            Public Key Algorithm: rsaEncryption
                Public-Key: (4096 bit)
                Modulus:
                    00:a4:a0:c1:6e:b7:22:cc:80:b5:bd:77:47:2b:29:
                    18:b1:d2:e6:12:9e:7f:1e:2d:d7:ad:45:67:61:e3:
                    07:ee:cf:77:ad:20:d2:81:7f:5e:37:cf:11:4b:2e:
                    7e:f5:78:2f:04:36:d6:f9:f1:f2:57:c7:bb:db:23:
                    b0:1d:47:5e:28:0a:46:55:ab:27:40:e0:c9:20:db:
                    fe:b4:fe:b4:2c:0a:0f:e6:80:b1:af:d5:ba:50:6a:
                    80:3a:f0:91:3b:ff:7f:7a:8f:ac:3f:57:7b:0d:37:
                    1f:41:68:91:4b:6f:32:a5:d4:2f:c9:be:b3:3b:af:
                    31:4e:8f:09:8a:44:8e:9a:5c:fd:39:14:a0:b4:50:
                    fe:8b:09:50:7e:3d:dc:03:3b:0c:96:d4:05:45:30:
                    36:19:64:f5:03:14:25:f4:50:48:5e:26:73:51:c0:
                    ad:d7:4e:0d:2d:7c:80:c4:93:6c:f8:de:e2:f2:95:
                    71:89:37:98:50:6c:51:67:9c:07:13:24:34:33:4f:
                    ad:dd:9e:47:c3:30:5d:7c:70:14:00:f4:4c:49:9c:
                    93:c4:76:7a:80:2e:bf:5d:61:65:91:b8:bd:6f:4a:
                    99:af:26:62:32:81:64:b3:8e:f1:b4:38:3d:ab:a2:
                    29:e4:c7:3b:12:5a:d7:6f:48:87:79:78:ba:dd:c9:
                    5b:0c:86:65:14:f6:6c:7e:fb:27:f2:94:c1:44:1e:
                    4d:00:ea:95:4f:94:56:c4:e3:7c:2c:46:ad:ed:96:
                    a9:4b:00:62:48:c7:de:44:64:14:af:01:c3:e4:ca:
                    21:e7:6a:09:4e:a2:16:1e:99:54:a9:ef:66:22:2d:
                    e7:41:81:dd:0a:43:f1:ef:a9:69:35:a6:e9:ed:19:
                    8f:24:32:b7:a6:60:70:37:9c:05:61:36:fd:ec:c3:
                    af:01:eb:35:9f:63:ab:e3:20:ad:cc:a2:97:11:31:
                    f1:ec:2f:e6:3e:a9:b7:c5:b8:70:84:f3:09:36:0e:
                    d9:ef:46:52:7c:3d:8f:44:bf:2c:46:cb:f5:53:b1:
                    0c:98:08:40:a0:b4:c7:e1:ec:2e:54:25:98:d2:00:
                    db:87:ec:24:4a:29:0e:5e:30:6e:8c:2d:2d:a8:e8:
                    1e:76:ef:91:57:80:69:d5:db:e0:a6:28:8b:72:fd:
                    58:d6:4a:10:aa:b2:db:29:ba:ef:f3:0c:a1:f2:d1:
                    e2:fd:bd:dd:0d:22:ce:b3:6f:ef:03:c3:c9:3a:bf:
                    b2:4e:67:ae:69:99:f2:2a:96:1a:9c:84:bc:be:25:
                    55:93:74:fb:42:e3:c4:99:b7:90:b6:82:da:a2:16:
                    a6:06:e7:c5:f7:c4:d6:89:bf:2f:34:19:3f:ef:61:
                    3b:c7:09
                Exponent: 65537 (0x10001)
        X509v3 extensions:
            X509v3 Basic Constraints: 
                CA:FALSE
            Netscape Comment: 
                Easy-RSA Generated Certificate
            X509v3 Subject Key Identifier: 
                90:9F:02:02:6D:AA:B0:4E:5F:EC:57:02:03:53:1A:4D:06:10:E9:EF
            X509v3 Authority Key Identifier: 
                keyid:12:CD:60:04:D2:A0:80:9E:70:ED:C6:99:B8:7B:2C:C6:52:FD:19:A1
                DirName:/C=US/ST=OH/L=Columbus/O=VikingVPN/OU=MyOrganizationalUnit/CN=VikingVPN CA/name=EasyRSA/emailAddress=me@myhost.mydomain
                serial:CF:35:85:EE:80:BF:2A:3E

            X509v3 Extended Key Usage: 
                TLS Web Client Authentication
            X509v3 Key Usage: 
                Digital Signature
    Signature Algorithm: md5WithRSAEncryption
         69:83:8d:e8:c2:e3:b3:b4:d2:ab:0d:21:fd:d0:2c:0a:24:75:
         fa:5f:f0:8f:3c:8b:f6:e4:64:64:1a:97:30:8c:50:ce:1f:f1:
         ac:f4:95:e8:58:68:57:2d:72:b0:13:9e:71:47:19:6a:3b:40:
         52:b4:ff:5b:17:64:e7:bb:be:58:94:21:4c:65:d2:8d:47:d7:
         16:a7:b5:08:9b:96:22:02:24:76:7d:69:aa:0e:27:60:0d:8f:
         ed:1a:c8:ab:8c:a2:64:1f:e3:e5:f9:b6:04:67:cf:9e:98:49:
         a5:24:f2:d6:89:8f:be:6a:d9:fa:3f:81:19:05:97:82:fa:f8:
         bc:08:42:d2:9d:8c:63:65:e9:a6:6b:ff:6f:ee:80:9b:93:a9:
         85:7f:40:2b:e7:7c:47:94:ed:e6:f6:14:eb:da:d1:1e:c6:0f:
         21:38:57:d7:d8:14:da:42:37:c1:a5:d1:4a:04:0d:63:00:19:
         23:20:24:9e:23:b7:67:21:c5:68:4f:32:01:3f:e7:50:9c:f3:
         51:34:97:4a:a3:44:1d:23:15:0a:a7:f0:79:33:d6:d0:18:1e:
         42:0f:95:b5:20:36:3c:39:0e:08:16:b3:16:6c:c7:8e:47:dc:
         fc:71:9a:c9:30:0c:5b:e5:95:1e:3a:b3:54:0e:01:50:5e:e4:
         5f:01:8c:a8:0b:5b:75:02:1b:63:d4:f1:f4:16:2c:87:ca:a4:
         df:60:42:b2:f5:0b:28:e9:9b:4f:79:ce:56:a8:5d:a5:d0:61:
         03:52:fb:5c:80:b1:14:a6:c8:f1:47:3e:fc:d7:40:5e:a2:fb:
         8a:69:49:5e:56:69:6d:84:51:f0:fa:84:3b:2b:73:67:5c:b5:
         c0:9c:97:91:57:52:55:08:f4:f1:43:8f:8b:a3:3a:87:1d:fb:
         77:7c:d5:c0:2d:53:b1:58:c3:f0:48:7e:5b:ba:88:7b:90:de:
         f4:66:3d:39:90:a1:cc:82:85:67:a9:ac:f0:03:2e:13:0d:ff:
         4b:5d:0e:9d:78:ac:f0:21:12:a7:e2:d5:02:41:e1:ec:ad:c4:
         33:60:5e:fb:4c:32:78:cc:ce:ce:8e:9f:c6:79:12:16:b5:5f:
         88:ee:14:05:c8:2d:55:2f:e9:c6:e8:4f:e3:3f:9a:64:7d:0b:
         aa:af:cd:a0:1f:f1:21:bf:ef:c0:b3:90:87:14:97:e6:20:88:
         44:ea:2b:73:6b:27:29:07:1d:a0:13:af:2d:d7:82:f9:a7:5e:
         5c:98:1b:eb:74:58:5b:49:b8:f3:a0:c0:3f:59:e9:f5:88:c3:
         a1:7a:4c:88:37:15:d5:31:b5:dd:2f:1c:3a:d2:b4:a0:ae:a0:
         58:ab:b4:45:e2:95:a0:66
-----BEGIN CERTIFICATE-----
MIIGrDCCBJSgAwIBAgICAUswDQYJKoZIhvcNAQEEBQAwgawxCzAJBgNVBAYTAlVT
MQswCQYDVQQIEwJPSDERMA8GA1UEBxMIQ29sdW1idXMxEjAQBgNVBAoTCVZpa2lu
Z1ZQTjEdMBsGA1UECxMUTXlPcmdhbml6YXRpb25hbFVuaXQxFTATBgNVBAMTDFZp
a2luZ1ZQTiBDQTEQMA4GA1UEKRMHRWFzeVJTQTEhMB8GCSqGSIb3DQEJARYSbWVA
bXlob3N0Lm15ZG9tYWluMB4XDTEzMTAyNDAxMzE0M1oXDTIzMTAyMjAxMzE0M1ow
HjEcMBoGA1UEAxMTQ2xpZW50MTQ4Q2VydDViY2ZjYzCCAiIwDQYJKoZIhvcNAQEB
BQADggIPADCCAgoCggIBAKSgwW63IsyAtb13RyspGLHS5hKefx4t161FZ2HjB+7P
d60g0oF/XjfPEUsufvV4LwQ21vnx8lfHu9sjsB1HXigKRlWrJ0DgySDb/rT+tCwK
D+aAsa/VulBqgDrwkTv/f3qPrD9Xew03H0FokUtvMqXUL8m+szuvMU6PCYpEjppc
/TkUoLRQ/osJUH493AM7DJbUBUUwNhlk9QMUJfRQSF4mc1HArddODS18gMSTbPje
4vKVcYk3mFBsUWecBxMkNDNPrd2eR8MwXXxwFAD0TEmck8R2eoAuv11hZZG4vW9K
ma8mYjKBZLOO8bQ4PauiKeTHOxJa129Ih3l4ut3JWwyGZRT2bH77J/KUwUQeTQDq
lU+UVsTjfCxGre2WqUsAYkjH3kRkFK8Bw+TKIedqCU6iFh6ZVKnvZiIt50GB3QpD
8e+paTWm6e0ZjyQyt6ZgcDecBWE2/ezDrwHrNZ9jq+MgrcyilxEx8ewv5j6pt8W4
cITzCTYO2e9GUnw9j0S/LEbL9VOxDJgIQKC0x+HsLlQlmNIA24fsJEopDl4wbowt
LajoHnbvkVeAadXb4KYoi3L9WNZKEKqy2ym67/MMofLR4v293Q0izrNv7wPDyTq/
sk5nrmmZ8iqWGpyEvL4lVZN0+0LjxJm3kLaC2qIWpgbnxffE1om/LzQZP+9hO8cJ
AgMBAAGjggFjMIIBXzAJBgNVHRMEAjAAMC0GCWCGSAGG+EIBDQQgFh5FYXN5LVJT
QSBHZW5lcmF0ZWQgQ2VydGlmaWNhdGUwHQYDVR0OBBYEFJCfAgJtqrBOX+xXAgNT
Gk0GEOnvMIHhBgNVHSMEgdkwgdaAFBLNYATSoICecO3Gmbh7LMZS/RmhoYGypIGv
MIGsMQswCQYDVQQGEwJVUzELMAkGA1UECBMCT0gxETAPBgNVBAcTCENvbHVtYnVz
MRIwEAYDVQQKEwlWaWtpbmdWUE4xHTAbBgNVBAsTFE15T3JnYW5pemF0aW9uYWxV
bml0MRUwEwYDVQQDEwxWaWtpbmdWUE4gQ0ExEDAOBgNVBCkTB0Vhc3lSU0ExITAf
BgkqhkiG9w0BCQEWEm1lQG15aG9zdC5teWRvbWFpboIJAM81he6Avyo+MBMGA1Ud
JQQMMAoGCCsGAQUFBwMCMAsGA1UdDwQEAwIHgDANBgkqhkiG9w0BAQQFAAOCAgEA
aYON6MLjs7TSqw0h/dAsCiR1+l/wjzyL9uRkZBqXMIxQzh/xrPSV6FhoVy1ysBOe
cUcZajtAUrT/Wxdk57u+WJQhTGXSjUfXFqe1CJuWIgIkdn1pqg4nYA2P7RrIq4yi
ZB/j5fm2BGfPnphJpSTy1omPvmrZ+j+BGQWXgvr4vAhC0p2MY2Xppmv/b+6Am5Op
hX9AK+d8R5Tt5vYU69rRHsYPIThX19gU2kI3waXRSgQNYwAZIyAkniO3ZyHFaE8y
AT/nUJzzUTSXSqNEHSMVCqfweTPW0BgeQg+VtSA2PDkOCBazFmzHjkfc/HGayTAM
W+WVHjqzVA4BUF7kXwGMqAtbdQIbY9Tx9BYsh8qk32BCsvULKOmbT3nOVqhdpdBh
A1L7XICxFKbI8Uc+/NdAXqL7imlJXlZpbYRR8PqEOytzZ1y1wJyXkVdSVQj08UOP
i6M6hx37d3zVwC1TsVjD8Eh+W7qIe5De9GY9OZChzIKFZ6ms8AMuEw3/S10OnXis
8CESp+LVAkHh7K3EM2Be+0wyeMzOzo6fxnkSFrVfiO4UBcgtVS/pxuhP4z+aZH0L
qq/NoB/xIb/vwLOQhxSX5iCIROorc2snKQcdoBOvLdeC+adeXJgb63RYW0m486DA
P1np9YjDoXpMiDcV1TG13S8cOtK0oK6gWKu0ReKVoGY=
-----END CERTIFICATE-----
