Certificate:
    Data:
        Version: 3 (0x2)
        Serial Number: 12717 (0x31ad)
    Signature Algorithm: sha256WithRSAEncryption
        Issuer: C=US, ST=OH, L=Columbus, O=VikingVPN, OU=MyOrganizationalUnit, CN=VikingVPN CA/name=EasyRSA/emailAddress=me@myhost.mydomain
        Validity
            Not Before: Mar  7 20:27:41 2018 GMT
            Not After : Mar  4 20:27:41 2028 GMT
        Subject: CN=Client3248Cert4940c6
        Subject Public Key Info:
            Public Key Algorithm: rsaEncryption
                Public-Key: (4096 bit)
                Modulus:
                    00:94:44:35:65:44:2a:45:44:33:da:26:3d:90:34:
                    4f:42:09:5c:06:c6:99:86:35:b0:01:e6:11:24:d8:
                    32:45:76:5c:e0:5f:8c:3b:ce:fd:78:9f:77:45:e1:
                    c2:0e:da:81:4a:7d:21:77:ca:e9:14:d3:8e:96:8b:
                    9b:c5:ec:fd:37:86:6a:62:e2:8d:19:70:23:ad:12:
                    0c:84:e8:4d:eb:66:25:60:03:d0:43:e6:e5:a3:c2:
                    49:0a:9b:89:d5:de:5a:c4:df:26:1d:90:5e:ce:6e:
                    51:82:f2:c8:f2:d4:5a:2c:07:8c:d1:fc:60:17:e3:
                    ef:b9:fc:80:5c:56:98:b3:46:68:1a:45:01:69:8f:
                    3b:a6:bb:b5:5e:83:1c:22:ab:63:53:23:2f:3f:95:
                    43:dd:75:49:57:74:02:15:77:82:95:a9:df:6e:af:
                    19:72:be:18:d1:30:36:6b:8c:a1:8b:72:54:2e:0e:
                    c2:29:5e:df:78:33:6f:c4:ea:79:37:43:69:ca:6f:
                    22:71:e3:dd:80:87:54:fa:db:85:56:30:4d:bc:d6:
                    2e:8e:3c:48:63:61:0e:48:29:a6:7d:2e:86:09:1a:
                    95:3b:ce:3f:53:47:c9:81:1f:54:a1:3e:95:75:cd:
                    0b:7b:1d:da:9a:1c:c2:ea:bf:2f:b7:b0:1c:06:ca:
                    a9:b2:35:de:dd:9e:62:44:aa:6f:b9:82:bd:cb:cb:
                    86:78:94:93:63:e3:a7:c5:9c:5b:7f:a4:e9:38:e2:
                    b0:02:71:87:5f:ec:84:47:2b:8b:10:24:9a:27:88:
                    ab:25:74:2c:ea:8e:c2:85:bf:77:20:25:b7:06:16:
                    2c:1c:1d:5a:b4:5d:a0:39:df:f3:bf:57:d1:52:79:
                    87:0a:c5:5c:e0:9c:d0:9c:80:16:9b:dc:dc:63:8a:
                    11:cd:df:a1:ca:b0:67:51:2f:1c:3e:be:54:c7:12:
                    5f:61:36:98:5e:f1:61:34:a8:cd:73:3d:57:8f:d9:
                    c2:d5:1f:aa:a7:73:ed:13:d1:8e:c6:fd:b1:2a:9d:
                    14:64:98:94:6d:0b:44:f8:34:9d:12:32:ad:73:10:
                    be:b3:5a:54:79:67:b9:ad:7e:b4:aa:21:91:80:66:
                    f0:22:d0:46:d9:97:25:b9:31:fb:eb:30:d6:0e:81:
                    9d:e4:3b:e2:28:d0:17:f1:97:b8:fe:82:79:ae:de:
                    12:60:59:2b:1f:27:54:db:b7:7a:8d:a9:d5:fa:d1:
                    75:fc:be:7e:f1:89:bb:57:ee:cc:68:4b:d4:d1:f2:
                    f0:60:aa:eb:17:1f:45:de:c3:44:c6:29:44:c7:31:
                    62:51:88:ec:66:f4:58:62:92:90:f8:5e:8d:26:e1:
                    94:d9:51
                Exponent: 65537 (0x10001)
        X509v3 extensions:
            X509v3 Basic Constraints: 
                CA:FALSE
            Netscape Comment: 
                Easy-RSA Generated Certificate
            X509v3 Subject Key Identifier: 
                98:35:FA:18:31:1A:CA:64:0D:C1:F9:FF:DD:CB:E0:D2:77:32:E5:63
            X509v3 Authority Key Identifier: 
                keyid:12:CD:60:04:D2:A0:80:9E:70:ED:C6:99:B8:7B:2C:C6:52:FD:19:A1
                DirName:/C=US/ST=OH/L=Columbus/O=VikingVPN/OU=MyOrganizationalUnit/CN=VikingVPN CA/name=EasyRSA/emailAddress=me@myhost.mydomain
                serial:CF:35:85:EE:80:BF:2A:3E

            X509v3 Extended Key Usage: 
                TLS Web Client Authentication
            X509v3 Key Usage: 
                Digital Signature
    Signature Algorithm: sha256WithRSAEncryption
         30:ef:a2:11:91:e2:be:5d:3f:87:93:5d:8d:c9:10:65:e5:08:
         22:91:51:dc:19:58:b4:44:51:64:88:7b:89:4e:8e:28:7c:0a:
         2f:cf:b5:69:7a:fc:5d:35:9c:ff:a5:57:94:7b:02:19:99:98:
         22:32:bf:a6:f7:e2:a5:ff:1f:ff:6a:a1:d8:9e:f7:6a:e0:7e:
         c4:24:9f:38:9e:b9:b3:e5:87:06:4c:7e:fe:48:94:27:69:6b:
         c3:1e:05:b7:4d:bb:92:94:03:70:37:5b:e2:60:f3:7c:8e:89:
         d6:74:a4:7e:d4:0e:6e:b0:d5:dd:ff:ec:64:9c:1c:33:fb:2d:
         46:7e:b3:6f:e3:e0:c0:cf:74:ec:84:1c:94:b2:23:ce:11:3b:
         d6:26:f2:17:7d:34:24:c9:26:22:82:08:93:87:13:ba:76:e2:
         c0:f2:bb:e1:0d:a2:c7:51:32:2c:16:8f:57:d0:6a:7c:e2:5e:
         f8:ac:05:c9:b0:fb:6a:31:45:44:cd:6f:ed:d4:d4:5b:00:1f:
         13:a6:21:86:5b:4a:89:5e:48:74:a9:ff:aa:46:a8:df:d8:56:
         ef:60:82:66:bb:36:98:d5:83:88:2b:c1:5a:c0:a2:86:53:fd:
         78:e6:80:60:97:73:3f:8b:05:b7:2b:50:00:05:f5:c5:19:d9:
         ac:c5:f3:7e:2f:6a:4a:05:9a:76:1f:c1:93:c3:8f:84:d7:18:
         67:4f:7a:e7:25:11:83:f4:d0:de:7c:3d:96:2f:71:49:d0:b3:
         c0:a9:2e:de:3c:e1:ff:57:5a:d4:0d:82:df:c3:28:64:74:97:
         3f:08:7f:b0:57:a2:29:91:47:f5:4a:15:e1:4c:8a:31:7e:ca:
         64:85:88:18:2b:1f:10:e2:59:2e:eb:c9:4b:bf:62:7a:cc:53:
         12:ff:31:3c:f1:89:94:aa:33:e4:5d:f5:3a:43:52:b8:43:f0:
         74:bf:ed:1a:03:61:b4:30:08:b4:8f:64:47:36:ba:f2:3e:6e:
         5a:b7:77:c1:a4:1e:cd:6e:5e:20:89:fd:de:32:9e:f4:fc:fa:
         08:94:e6:8c:68:de:6a:c2:3e:1e:99:c8:8b:c6:2a:1e:09:55:
         0b:64:31:56:2e:a5:f9:b8:87:13:b2:9a:e0:a4:f7:a9:6d:74:
         8c:70:f9:53:1f:31:87:88:b6:cc:bf:ba:d1:cd:81:f4:2d:93:
         06:45:35:6a:6e:85:83:83:6d:ce:0e:12:06:97:a1:e3:14:57:
         bd:3c:c0:19:a4:20:f0:72:86:1a:54:47:90:ef:d7:ee:7d:2b:
         2c:e1:aa:28:f9:25:83:a4:71:21:f0:1d:57:48:74:85:88:11:
         31:24:33:9b:bb:b5:72:1a
-----BEGIN CERTIFICATE-----
MIIGrTCCBJWgAwIBAgICMa0wDQYJKoZIhvcNAQELBQAwgawxCzAJBgNVBAYTAlVT
MQswCQYDVQQIEwJPSDERMA8GA1UEBxMIQ29sdW1idXMxEjAQBgNVBAoTCVZpa2lu
Z1ZQTjEdMBsGA1UECxMUTXlPcmdhbml6YXRpb25hbFVuaXQxFTATBgNVBAMTDFZp
a2luZ1ZQTiBDQTEQMA4GA1UEKRMHRWFzeVJTQTEhMB8GCSqGSIb3DQEJARYSbWVA
bXlob3N0Lm15ZG9tYWluMB4XDTE4MDMwNzIwMjc0MVoXDTI4MDMwNDIwMjc0MVow
HzEdMBsGA1UEAxMUQ2xpZW50MzI0OENlcnQ0OTQwYzYwggIiMA0GCSqGSIb3DQEB
AQUAA4ICDwAwggIKAoICAQCURDVlRCpFRDPaJj2QNE9CCVwGxpmGNbAB5hEk2DJF
dlzgX4w7zv14n3dF4cIO2oFKfSF3yukU046Wi5vF7P03hmpi4o0ZcCOtEgyE6E3r
ZiVgA9BD5uWjwkkKm4nV3lrE3yYdkF7OblGC8sjy1FosB4zR/GAX4++5/IBcVpiz
RmgaRQFpjzumu7Vegxwiq2NTIy8/lUPddUlXdAIVd4KVqd9urxlyvhjRMDZrjKGL
clQuDsIpXt94M2/E6nk3Q2nKbyJx492Ah1T624VWME281i6OPEhjYQ5IKaZ9LoYJ
GpU7zj9TR8mBH1ShPpV1zQt7HdqaHMLqvy+3sBwGyqmyNd7dnmJEqm+5gr3Ly4Z4
lJNj46fFnFt/pOk44rACcYdf7IRHK4sQJJoniKsldCzqjsKFv3cgJbcGFiwcHVq0
XaA53/O/V9FSeYcKxVzgnNCcgBab3NxjihHN36HKsGdRLxw+vlTHEl9hNphe8WE0
qM1zPVeP2cLVH6qnc+0T0Y7G/bEqnRRkmJRtC0T4NJ0SMq1zEL6zWlR5Z7mtfrSq
IZGAZvAi0EbZlyW5MfvrMNYOgZ3kO+Io0Bfxl7j+gnmu3hJgWSsfJ1Tbt3qNqdX6
0XX8vn7xibtX7sxoS9TR8vBgqusXH0Xew0TGKUTHMWJRiOxm9FhikpD4Xo0m4ZTZ
UQIDAQABo4IBYzCCAV8wCQYDVR0TBAIwADAtBglghkgBhvhCAQ0EIBYeRWFzeS1S
U0EgR2VuZXJhdGVkIENlcnRpZmljYXRlMB0GA1UdDgQWBBSYNfoYMRrKZA3B+f/d
y+DSdzLlYzCB4QYDVR0jBIHZMIHWgBQSzWAE0qCAnnDtxpm4eyzGUv0ZoaGBsqSB
rzCBrDELMAkGA1UEBhMCVVMxCzAJBgNVBAgTAk9IMREwDwYDVQQHEwhDb2x1bWJ1
czESMBAGA1UEChMJVmlraW5nVlBOMR0wGwYDVQQLExRNeU9yZ2FuaXphdGlvbmFs
VW5pdDEVMBMGA1UEAxMMVmlraW5nVlBOIENBMRAwDgYDVQQpEwdFYXN5UlNBMSEw
HwYJKoZIhvcNAQkBFhJtZUBteWhvc3QubXlkb21haW6CCQDPNYXugL8qPjATBgNV
HSUEDDAKBggrBgEFBQcDAjALBgNVHQ8EBAMCB4AwDQYJKoZIhvcNAQELBQADggIB
ADDvohGR4r5dP4eTXY3JEGXlCCKRUdwZWLREUWSIe4lOjih8Ci/PtWl6/F01nP+l
V5R7AhmZmCIyv6b34qX/H/9qodie92rgfsQknzieubPlhwZMfv5IlCdpa8MeBbdN
u5KUA3A3W+Jg83yOidZ0pH7UDm6w1d3/7GScHDP7LUZ+s2/j4MDPdOyEHJSyI84R
O9Ym8hd9NCTJJiKCCJOHE7p24sDyu+ENosdRMiwWj1fQanziXvisBcmw+2oxRUTN
b+3U1FsAHxOmIYZbSoleSHSp/6pGqN/YVu9ggma7NpjVg4grwVrAooZT/XjmgGCX
cz+LBbcrUAAF9cUZ2azF834vakoFmnYfwZPDj4TXGGdPeuclEYP00N58PZYvcUnQ
s8CpLt484f9XWtQNgt/DKGR0lz8If7BXoimRR/VKFeFMijF+ymSFiBgrHxDiWS7r
yUu/YnrMUxL/MTzxiZSqM+Rd9TpDUrhD8HS/7RoDYbQwCLSPZEc2uvI+blq3d8Gk
Hs1uXiCJ/d4ynvT8+giU5oxo3mrCPh6ZyIvGKh4JVQtkMVYupfm4hxOymuCk96lt
dIxw+VMfMYeItsy/utHNgfQtkwZFNWpuhYODbc4OEgaXoeMUV708wBmkIPByhhpU
R5Dv1+59Kyzhqij5JYOkcSHwHVdIdIWIETEkM5u7tXIa
-----END CERTIFICATE-----
