Certificate:
    Data:
        Version: 3 (0x2)
        Serial Number: 2613 (0xa35)
    Signature Algorithm: md5WithRSAEncryption
        Issuer: C=US, ST=OH, L=Columbus, O=VikingVPN, OU=MyOrganizationalUnit, CN=VikingVPN CA/name=EasyRSA/emailAddress=me@myhost.mydomain
        Validity
            Not Before: Aug 19 16:31:07 2014 GMT
            Not After : Aug 16 16:31:07 2024 GMT
        Subject: CN=Client906Cert27045e
        Subject Public Key Info:
            Public Key Algorithm: rsaEncryption
                Public-Key: (4096 bit)
                Modulus:
                    00:e4:22:1e:12:cd:a6:45:fa:6c:a5:91:60:82:0c:
                    4f:16:ee:ce:fb:85:ba:08:9a:50:96:87:86:14:b4:
                    6e:ea:31:43:ec:cd:c6:5e:81:fd:9b:3c:59:d1:4f:
                    27:3d:60:9b:8d:7f:50:40:6d:0f:e2:67:cf:99:6f:
                    29:a3:f6:41:be:c1:4c:36:e2:01:de:e5:dc:f1:31:
                    9f:04:e6:f0:7e:23:17:3a:b2:a0:6c:a0:fe:70:33:
                    62:e5:95:82:1d:47:98:de:10:c2:56:d9:eb:01:14:
                    b7:7b:b3:d3:db:7e:33:37:5d:a6:d9:4e:7b:c4:da:
                    79:a3:6e:5c:16:62:78:be:0a:99:2b:97:78:c0:78:
                    dd:2c:5b:18:06:87:f5:97:26:79:11:47:f4:de:8f:
                    1c:2c:07:68:93:3a:5d:08:aa:66:1a:ae:cd:2e:83:
                    ca:88:de:fe:2c:8c:4f:2f:bb:4f:f7:55:0c:8d:cd:
                    19:e3:17:cf:1a:b1:80:ce:2f:e3:72:f8:0e:82:b7:
                    88:b5:25:84:7f:2f:e6:5f:11:4b:78:f8:95:67:ab:
                    12:70:25:94:9c:d1:ea:9e:4f:a5:ee:3b:8b:56:f8:
                    72:36:ad:95:24:dd:57:59:2d:a4:bc:d0:56:9c:6f:
                    0d:e7:93:65:52:e8:51:51:e3:88:62:4c:d3:93:b9:
                    06:47:55:f6:7c:c8:68:9f:40:2a:05:75:98:7d:cd:
                    17:21:3c:ea:bd:10:4b:ed:33:05:68:51:eb:15:71:
                    c5:8b:b4:20:ab:5a:77:12:46:94:b4:4f:12:70:25:
                    d4:34:ec:a9:52:66:ee:03:15:ba:a0:d2:37:b6:d8:
                    60:dc:d2:fd:e2:47:9c:47:1d:6d:c9:7b:8c:3d:21:
                    dc:48:50:02:fd:d4:5c:bb:cd:57:81:6b:38:84:56:
                    a5:41:0a:27:e7:54:76:a7:36:cd:43:6a:41:9c:f6:
                    5b:37:d3:89:bc:3c:51:66:c7:0b:86:e8:92:72:8d:
                    e7:35:03:b1:e1:17:7c:41:4b:49:34:07:57:20:6d:
                    f6:0c:85:22:20:69:98:6a:24:3c:2a:d0:0b:4c:04:
                    50:34:7e:86:b8:bd:7b:ed:dc:20:a4:71:5b:ea:c9:
                    76:a0:1e:39:ba:6b:e7:73:29:94:37:92:0f:61:00:
                    96:83:78:d9:03:25:be:8e:e6:4c:02:95:bf:7a:3e:
                    99:9a:88:6c:32:b3:36:7c:75:b2:e6:9f:bc:15:57:
                    da:d2:79:1d:dd:f6:87:62:23:cd:23:9a:21:4e:d3:
                    a2:17:6d:a4:b6:ec:02:db:65:27:ed:80:a7:e0:2b:
                    e6:be:b2:33:bd:39:54:b2:fd:7c:a5:7c:db:b7:8c:
                    a5:62:dd
                Exponent: 65537 (0x10001)
        X509v3 extensions:
            X509v3 Basic Constraints: 
                CA:FALSE
            Netscape Comment: 
                Easy-RSA Generated Certificate
            X509v3 Subject Key Identifier: 
                44:F2:D7:34:DD:C6:5A:5A:1A:EE:4C:0F:DD:67:7C:13:DB:D4:40:A2
            X509v3 Authority Key Identifier: 
                keyid:12:CD:60:04:D2:A0:80:9E:70:ED:C6:99:B8:7B:2C:C6:52:FD:19:A1
                DirName:/C=US/ST=OH/L=Columbus/O=VikingVPN/OU=MyOrganizationalUnit/CN=VikingVPN CA/name=EasyRSA/emailAddress=me@myhost.mydomain
                serial:CF:35:85:EE:80:BF:2A:3E

            X509v3 Extended Key Usage: 
                TLS Web Client Authentication
            X509v3 Key Usage: 
                Digital Signature
    Signature Algorithm: md5WithRSAEncryption
         bd:31:9c:35:61:af:d4:97:96:b2:0c:99:a5:6d:3a:5f:0a:ba:
         53:6d:6e:3d:67:a6:8d:b9:57:66:36:b6:1a:08:81:72:80:80:
         f4:28:e4:22:f3:3e:04:f8:5a:b3:1f:1c:63:56:d6:3a:e9:58:
         50:e8:7e:fb:f8:15:c1:ab:e6:65:40:58:e8:38:46:2a:14:7b:
         90:6e:fc:37:dc:6a:86:ad:5c:39:14:c7:c1:02:04:92:f3:bd:
         19:17:54:7e:00:5d:b1:ae:b7:e4:10:db:f3:f9:58:8b:7e:9f:
         e4:08:ab:3b:ff:bb:c0:03:89:58:08:4d:45:54:20:b6:13:b3:
         9a:43:0c:53:6b:fb:87:4b:5d:f4:84:db:ad:ca:f7:91:6c:0c:
         47:69:b9:dd:37:62:21:81:cf:93:8f:4c:aa:8b:77:34:c0:e5:
         32:f9:4a:54:21:c3:c6:e2:8c:42:f1:dd:9c:45:b7:b9:af:ac:
         36:49:02:98:90:0e:2a:20:93:70:f8:8e:72:60:9d:d5:26:22:
         b6:ad:9e:19:8f:c1:6c:3d:cf:56:6b:b7:e3:ba:f2:39:57:b2:
         38:5c:69:d9:a2:c4:2f:6d:aa:51:49:8b:09:18:c1:16:11:70:
         ff:59:32:f5:fe:fb:5f:6b:94:96:b5:bc:c7:5b:63:2c:56:c7:
         6c:6e:e6:15:16:38:46:61:1e:16:47:f4:c9:07:0d:b7:52:c0:
         5a:2d:99:b3:cf:fd:25:be:5a:a4:29:0d:21:15:6a:e6:4f:02:
         6b:99:5d:30:59:8c:ba:cb:d8:a4:4d:51:ec:6d:ba:98:12:16:
         65:0b:21:83:5d:15:b7:34:69:70:9f:96:a3:6c:1d:79:05:a9:
         c7:d6:1d:07:67:50:44:c1:a4:16:05:15:8a:07:b1:4a:a7:68:
         a2:7e:be:d0:b0:f6:51:d3:af:89:53:37:86:b6:4c:5c:f7:10:
         cc:55:4f:25:34:3c:db:35:bb:57:d1:8a:a8:ee:88:03:d0:1b:
         e3:c1:31:1f:6d:f6:05:be:62:79:3a:76:24:bb:86:fa:18:21:
         6c:89:af:9d:a3:00:d7:42:12:7e:d5:e8:a7:88:3b:55:3a:94:
         c3:d6:d2:1d:d4:b1:66:40:b9:5f:1c:00:a6:19:af:74:57:23:
         f7:90:8b:d9:40:0d:7f:6e:05:be:74:fe:13:23:27:50:30:58:
         d5:cb:b6:60:09:13:5c:9e:12:29:e8:b2:68:c0:ab:2d:b5:bc:
         f7:4f:67:80:ae:9c:d7:73:7c:d0:55:4d:48:bc:5f:d6:79:4b:
         9f:84:1c:15:8a:65:01:61:ff:49:cf:cd:72:27:64:6b:62:bc:
         11:c7:8a:36:53:7e:84:b6
-----BEGIN CERTIFICATE-----
MIIGrDCCBJSgAwIBAgICCjUwDQYJKoZIhvcNAQEEBQAwgawxCzAJBgNVBAYTAlVT
MQswCQYDVQQIEwJPSDERMA8GA1UEBxMIQ29sdW1idXMxEjAQBgNVBAoTCVZpa2lu
Z1ZQTjEdMBsGA1UECxMUTXlPcmdhbml6YXRpb25hbFVuaXQxFTATBgNVBAMTDFZp
a2luZ1ZQTiBDQTEQMA4GA1UEKRMHRWFzeVJTQTEhMB8GCSqGSIb3DQEJARYSbWVA
bXlob3N0Lm15ZG9tYWluMB4XDTE0MDgxOTE2MzEwN1oXDTI0MDgxNjE2MzEwN1ow
HjEcMBoGA1UEAxMTQ2xpZW50OTA2Q2VydDI3MDQ1ZTCCAiIwDQYJKoZIhvcNAQEB
BQADggIPADCCAgoCggIBAOQiHhLNpkX6bKWRYIIMTxbuzvuFugiaUJaHhhS0buox
Q+zNxl6B/Zs8WdFPJz1gm41/UEBtD+Jnz5lvKaP2Qb7BTDbiAd7l3PExnwTm8H4j
FzqyoGyg/nAzYuWVgh1HmN4QwlbZ6wEUt3uz09t+MzddptlOe8TaeaNuXBZieL4K
mSuXeMB43SxbGAaH9ZcmeRFH9N6PHCwHaJM6XQiqZhquzS6Dyoje/iyMTy+7T/dV
DI3NGeMXzxqxgM4v43L4DoK3iLUlhH8v5l8RS3j4lWerEnAllJzR6p5Ppe47i1b4
cjatlSTdV1ktpLzQVpxvDeeTZVLoUVHjiGJM05O5BkdV9nzIaJ9AKgV1mH3NFyE8
6r0QS+0zBWhR6xVxxYu0IKtadxJGlLRPEnAl1DTsqVJm7gMVuqDSN7bYYNzS/eJH
nEcdbcl7jD0h3EhQAv3UXLvNV4FrOIRWpUEKJ+dUdqc2zUNqQZz2WzfTibw8UWbH
C4boknKN5zUDseEXfEFLSTQHVyBt9gyFIiBpmGokPCrQC0wEUDR+hri9e+3cIKRx
W+rJdqAeObpr53MplDeSD2EAloN42QMlvo7mTAKVv3o+mZqIbDKzNnx1suafvBVX
2tJ5Hd32h2IjzSOaIU7TohdtpLbsAttlJ+2Ap+Ar5r6yM705VLL9fKV827eMpWLd
AgMBAAGjggFjMIIBXzAJBgNVHRMEAjAAMC0GCWCGSAGG+EIBDQQgFh5FYXN5LVJT
QSBHZW5lcmF0ZWQgQ2VydGlmaWNhdGUwHQYDVR0OBBYEFETy1zTdxlpaGu5MD91n
fBPb1ECiMIHhBgNVHSMEgdkwgdaAFBLNYATSoICecO3Gmbh7LMZS/RmhoYGypIGv
MIGsMQswCQYDVQQGEwJVUzELMAkGA1UECBMCT0gxETAPBgNVBAcTCENvbHVtYnVz
MRIwEAYDVQQKEwlWaWtpbmdWUE4xHTAbBgNVBAsTFE15T3JnYW5pemF0aW9uYWxV
bml0MRUwEwYDVQQDEwxWaWtpbmdWUE4gQ0ExEDAOBgNVBCkTB0Vhc3lSU0ExITAf
BgkqhkiG9w0BCQEWEm1lQG15aG9zdC5teWRvbWFpboIJAM81he6Avyo+MBMGA1Ud
JQQMMAoGCCsGAQUFBwMCMAsGA1UdDwQEAwIHgDANBgkqhkiG9w0BAQQFAAOCAgEA
vTGcNWGv1JeWsgyZpW06Xwq6U21uPWemjblXZja2GgiBcoCA9CjkIvM+BPhasx8c
Y1bWOulYUOh++/gVwavmZUBY6DhGKhR7kG78N9xqhq1cORTHwQIEkvO9GRdUfgBd
sa635BDb8/lYi36f5AirO/+7wAOJWAhNRVQgthOzmkMMU2v7h0td9ITbrcr3kWwM
R2m53TdiIYHPk49Mqot3NMDlMvlKVCHDxuKMQvHdnEW3ua+sNkkCmJAOKiCTcPiO
cmCd1SYitq2eGY/BbD3PVmu347ryOVeyOFxp2aLEL22qUUmLCRjBFhFw/1ky9f77
X2uUlrW8x1tjLFbHbG7mFRY4RmEeFkf0yQcNt1LAWi2Zs8/9Jb5apCkNIRVq5k8C
a5ldMFmMusvYpE1R7G26mBIWZQshg10VtzRpcJ+Wo2wdeQWpx9YdB2dQRMGkFgUV
igexSqdoon6+0LD2UdOviVM3hrZMXPcQzFVPJTQ82zW7V9GKqO6IA9Ab48ExH232
Bb5ieTp2JLuG+hghbImvnaMA10ISftXop4g7VTqUw9bSHdSxZkC5XxwAphmvdFcj
95CL2UANf24FvnT+EyMnUDBY1cu2YAkTXJ4SKeiyaMCrLbW8909ngK6c13N80FVN
SLxf1nlLn4QcFYplAWH/Sc/Ncidka2K8EceKNlN+hLY=
-----END CERTIFICATE-----
