Certificate:
    Data:
        Version: 3 (0x2)
        Serial Number: 1762 (0x6e2)
    Signature Algorithm: md5WithRSAEncryption
        Issuer: C=US, ST=OH, L=Columbus, O=VikingVPN, OU=MyOrganizationalUnit, CN=VikingVPN CA/name=EasyRSA/emailAddress=me@myhost.mydomain
        Validity
            Not Before: Apr 29 07:53:03 2014 GMT
            Not After : Apr 26 07:53:03 2024 GMT
        Subject: CN=Client619Cert467f73
        Subject Public Key Info:
            Public Key Algorithm: rsaEncryption
                Public-Key: (4096 bit)
                Modulus:
                    00:d4:da:e1:2d:7b:88:32:74:81:5e:97:fd:29:4b:
                    3e:fb:a8:42:0c:36:d0:45:28:16:43:89:ee:6b:99:
                    6a:6f:b3:48:f8:4b:94:bf:1d:d7:c7:a5:71:77:2a:
                    4b:16:bc:72:fa:e5:4e:a6:bb:85:e6:0b:69:14:d7:
                    eb:94:a5:85:07:64:ea:34:a9:4b:77:bf:5f:ad:87:
                    27:1d:93:1f:fe:83:3f:d3:4c:64:28:97:0e:76:64:
                    c0:65:5e:19:d8:0e:d5:bb:48:c1:c3:d0:d4:5f:f8:
                    0c:7a:62:b3:a4:26:42:c7:07:da:24:97:4e:0b:2a:
                    6e:f1:fa:d6:c2:97:d4:4c:32:05:d0:44:51:f2:2e:
                    c8:8d:95:3e:0f:36:91:23:7a:2e:dc:7a:24:7e:02:
                    e5:6b:75:35:dc:c3:b6:ea:e3:7d:07:c3:dd:1b:36:
                    7b:70:81:3b:80:2e:63:8a:84:91:b6:31:ab:7a:c3:
                    47:bf:ae:61:b8:ad:88:fe:0a:a4:12:49:cd:8d:8a:
                    c9:0d:9d:63:2a:0f:b0:60:58:17:a8:7e:56:76:8d:
                    c7:7f:0b:0e:a1:8b:09:1d:d1:a0:6f:e9:aa:df:45:
                    ea:40:58:6f:df:9b:43:13:11:9e:d8:f4:0b:e9:5e:
                    a7:9d:cb:24:b4:4a:0f:1f:1d:64:df:9d:3a:ac:a7:
                    9b:aa:e0:03:59:71:db:47:09:d3:b8:1d:79:7f:cd:
                    4e:96:d9:da:df:34:d3:3a:9d:d4:28:87:26:23:fe:
                    07:af:c0:c1:e9:8e:37:7a:fc:ab:92:f3:e0:9a:7c:
                    41:61:e9:89:69:c7:d8:09:de:9a:86:68:4d:45:42:
                    ea:0b:6f:2e:f1:c5:e5:c4:b3:97:1e:74:31:83:51:
                    f4:db:d3:ec:63:8f:51:7e:f0:52:e6:a3:cd:74:61:
                    d3:4f:14:9b:98:ec:7a:37:1e:4f:52:f3:9c:77:6a:
                    2c:72:6f:1b:24:ff:8a:8c:98:c8:3e:ca:6d:9c:b9:
                    86:26:04:e8:0c:e3:78:81:bd:23:5c:31:6f:7b:b0:
                    66:56:d0:23:3c:fc:01:ed:d7:de:78:04:2b:64:54:
                    8b:ee:a1:16:f2:ab:6c:74:9d:ae:3d:ae:1f:b4:e0:
                    a0:0b:b7:be:fe:b4:26:96:b3:27:bf:1c:e7:2c:f6:
                    8d:cd:1a:dc:d8:0a:7f:37:55:cb:fb:a4:43:fc:13:
                    23:0e:85:2d:af:7e:02:65:c0:a5:94:b9:0b:45:da:
                    cd:91:d8:6b:e8:80:66:fd:4f:06:29:3d:37:20:40:
                    73:6d:b3:68:cb:aa:38:0f:0e:20:d4:ea:4b:73:e1:
                    67:f9:d9:16:b2:b8:c1:20:44:59:41:65:fa:56:4a:
                    71:f6:b7
                Exponent: 65537 (0x10001)
        X509v3 extensions:
            X509v3 Basic Constraints: 
                CA:FALSE
            Netscape Comment: 
                Easy-RSA Generated Certificate
            X509v3 Subject Key Identifier: 
                60:7E:52:00:19:5C:FD:B9:29:B4:1B:A0:8E:8E:C6:AD:16:8A:0E:38
            X509v3 Authority Key Identifier: 
                keyid:12:CD:60:04:D2:A0:80:9E:70:ED:C6:99:B8:7B:2C:C6:52:FD:19:A1
                DirName:/C=US/ST=OH/L=Columbus/O=VikingVPN/OU=MyOrganizationalUnit/CN=VikingVPN CA/name=EasyRSA/emailAddress=me@myhost.mydomain
                serial:CF:35:85:EE:80:BF:2A:3E

            X509v3 Extended Key Usage: 
                TLS Web Client Authentication
            X509v3 Key Usage: 
                Digital Signature
    Signature Algorithm: md5WithRSAEncryption
         c3:64:fb:87:e1:f4:31:b2:63:14:00:c1:7a:20:28:13:2d:61:
         5c:a3:9c:85:87:cb:04:62:7b:27:19:8c:74:e3:f4:f4:10:0c:
         36:a5:0b:11:e6:75:a8:95:7e:0d:b6:98:10:a1:df:9f:06:d8:
         41:aa:c3:fd:a1:30:73:8f:49:b0:4c:15:91:66:db:bb:ba:99:
         d1:1c:cc:40:a1:f3:4e:9b:28:53:37:01:de:de:1c:1b:d9:fa:
         a4:f2:a1:11:2d:c6:0c:f7:4e:7f:92:85:8b:d9:2c:3e:3c:63:
         be:cf:6b:06:e1:f2:2b:6e:c8:9d:74:92:9e:7d:24:19:cb:fa:
         64:d1:6a:39:8f:ba:19:35:72:94:bf:43:87:e3:3d:d1:68:b6:
         c3:b8:ac:81:fa:59:0e:db:7d:9c:d3:73:2f:63:e7:c9:31:36:
         73:fb:7f:21:c7:14:30:ab:16:9d:cc:00:78:f2:dd:d3:c4:77:
         15:f7:d5:94:40:90:dd:e9:3e:9e:08:09:b3:24:12:33:01:6f:
         53:18:bc:18:56:ef:16:be:50:f9:b7:9e:2c:aa:fe:af:99:9d:
         16:78:af:aa:53:b3:32:05:c7:8a:be:79:7b:e8:74:a8:a7:e5:
         44:7d:31:bc:2c:fb:4e:67:c3:68:59:9f:52:25:51:3d:f7:93:
         c3:74:f6:aa:77:b0:0b:de:b0:55:8e:29:be:a2:20:4d:a7:d3:
         06:ae:13:9c:fd:6a:a2:76:37:fa:1f:e0:b9:cf:ea:53:f6:6b:
         f1:3e:e7:be:0b:57:b3:21:b6:dc:75:47:75:19:aa:ae:3a:35:
         18:75:86:94:d1:07:d2:ee:45:3d:10:4b:46:37:ee:3a:56:13:
         be:42:aa:a6:c1:c0:7d:4b:cd:ce:bd:5e:a0:3f:b7:a6:2f:84:
         53:93:07:03:97:65:3b:b5:f6:05:70:90:14:2f:72:13:db:7d:
         84:f8:40:81:a8:c3:e5:28:f5:7a:c2:f0:e3:1a:e9:84:89:89:
         18:4e:f8:fd:3b:b3:fd:5e:da:27:52:4f:3b:44:24:2d:c3:c8:
         5d:82:5c:bb:4b:5d:d7:96:34:7f:75:34:a0:1b:9c:dd:14:82:
         57:aa:89:45:f9:9e:4e:4d:08:50:1d:05:de:4a:d5:2e:86:d5:
         8b:0f:91:bd:51:c7:e4:48:13:e4:02:98:2d:1a:78:0c:bd:80:
         3e:63:b5:41:f5:51:e7:4e:57:1d:3c:5f:c8:41:3f:ba:2d:b7:
         a4:cc:71:99:44:ee:83:88:bf:25:5d:42:2a:bd:05:5a:7c:6d:
         30:a4:b0:7b:bc:bb:24:06:9b:ed:da:2b:a5:8c:76:b2:48:69:
         6b:92:fa:c8:55:b3:a6:17
-----BEGIN CERTIFICATE-----
MIIGrDCCBJSgAwIBAgICBuIwDQYJKoZIhvcNAQEEBQAwgawxCzAJBgNVBAYTAlVT
MQswCQYDVQQIEwJPSDERMA8GA1UEBxMIQ29sdW1idXMxEjAQBgNVBAoTCVZpa2lu
Z1ZQTjEdMBsGA1UECxMUTXlPcmdhbml6YXRpb25hbFVuaXQxFTATBgNVBAMTDFZp
a2luZ1ZQTiBDQTEQMA4GA1UEKRMHRWFzeVJTQTEhMB8GCSqGSIb3DQEJARYSbWVA
bXlob3N0Lm15ZG9tYWluMB4XDTE0MDQyOTA3NTMwM1oXDTI0MDQyNjA3NTMwM1ow
HjEcMBoGA1UEAxMTQ2xpZW50NjE5Q2VydDQ2N2Y3MzCCAiIwDQYJKoZIhvcNAQEB
BQADggIPADCCAgoCggIBANTa4S17iDJ0gV6X/SlLPvuoQgw20EUoFkOJ7muZam+z
SPhLlL8d18elcXcqSxa8cvrlTqa7heYLaRTX65SlhQdk6jSpS3e/X62HJx2TH/6D
P9NMZCiXDnZkwGVeGdgO1btIwcPQ1F/4DHpis6QmQscH2iSXTgsqbvH61sKX1Ewy
BdBEUfIuyI2VPg82kSN6Ltx6JH4C5Wt1NdzDturjfQfD3Rs2e3CBO4AuY4qEkbYx
q3rDR7+uYbitiP4KpBJJzY2KyQ2dYyoPsGBYF6h+VnaNx38LDqGLCR3RoG/pqt9F
6kBYb9+bQxMRntj0C+lep53LJLRKDx8dZN+dOqynm6rgA1lx20cJ07gdeX/NTpbZ
2t800zqd1CiHJiP+B6/AwemON3r8q5Lz4Jp8QWHpiWnH2AnemoZoTUVC6gtvLvHF
5cSzlx50MYNR9NvT7GOPUX7wUuajzXRh008Um5jsejceT1LznHdqLHJvGyT/ioyY
yD7KbZy5hiYE6AzjeIG9I1wxb3uwZlbQIzz8Ae3X3ngEK2RUi+6hFvKrbHSdrj2u
H7TgoAu3vv60JpazJ78c5yz2jc0a3NgKfzdVy/ukQ/wTIw6FLa9+AmXApZS5C0Xa
zZHYa+iAZv1PBik9NyBAc22zaMuqOA8OINTqS3PhZ/nZFrK4wSBEWUFl+lZKcfa3
AgMBAAGjggFjMIIBXzAJBgNVHRMEAjAAMC0GCWCGSAGG+EIBDQQgFh5FYXN5LVJT
QSBHZW5lcmF0ZWQgQ2VydGlmaWNhdGUwHQYDVR0OBBYEFGB+UgAZXP25KbQboI6O
xq0Wig44MIHhBgNVHSMEgdkwgdaAFBLNYATSoICecO3Gmbh7LMZS/RmhoYGypIGv
MIGsMQswCQYDVQQGEwJVUzELMAkGA1UECBMCT0gxETAPBgNVBAcTCENvbHVtYnVz
MRIwEAYDVQQKEwlWaWtpbmdWUE4xHTAbBgNVBAsTFE15T3JnYW5pemF0aW9uYWxV
bml0MRUwEwYDVQQDEwxWaWtpbmdWUE4gQ0ExEDAOBgNVBCkTB0Vhc3lSU0ExITAf
BgkqhkiG9w0BCQEWEm1lQG15aG9zdC5teWRvbWFpboIJAM81he6Avyo+MBMGA1Ud
JQQMMAoGCCsGAQUFBwMCMAsGA1UdDwQEAwIHgDANBgkqhkiG9w0BAQQFAAOCAgEA
w2T7h+H0MbJjFADBeiAoEy1hXKOchYfLBGJ7JxmMdOP09BAMNqULEeZ1qJV+DbaY
EKHfnwbYQarD/aEwc49JsEwVkWbbu7qZ0RzMQKHzTpsoUzcB3t4cG9n6pPKhES3G
DPdOf5KFi9ksPjxjvs9rBuHyK27InXSSnn0kGcv6ZNFqOY+6GTVylL9Dh+M90Wi2
w7isgfpZDtt9nNNzL2PnyTE2c/t/IccUMKsWncwAePLd08R3FffVlECQ3ek+nggJ
syQSMwFvUxi8GFbvFr5Q+beeLKr+r5mdFnivqlOzMgXHir55e+h0qKflRH0xvCz7
TmfDaFmfUiVRPfeTw3T2qnewC96wVY4pvqIgTafTBq4TnP1qonY3+h/guc/qU/Zr
8T7nvgtXsyG23HVHdRmqrjo1GHWGlNEH0u5FPRBLRjfuOlYTvkKqpsHAfUvNzr1e
oD+3pi+EU5MHA5dlO7X2BXCQFC9yE9t9hPhAgajD5Sj1esLw4xrphImJGE74/Tuz
/V7aJ1JPO0QkLcPIXYJcu0td15Y0f3U0oBuc3RSCV6qJRfmeTk0IUB0F3krVLobV
iw+RvVHH5EgT5AKYLRp4DL2APmO1QfVR505XHTxfyEE/ui23pMxxmUTug4i/JV1C
Kr0FWnxtMKSwe7y7JAab7dorpYx2skhpa5L6yFWzphc=
-----END CERTIFICATE-----
