Certificate:
    Data:
        Version: 3 (0x2)
        Serial Number: 5354 (0x14ea)
    Signature Algorithm: md5WithRSAEncryption
        Issuer: C=US, ST=OH, L=Columbus, O=VikingVPN, OU=MyOrganizationalUnit, CN=VikingVPN CA/name=EasyRSA/emailAddress=me@myhost.mydomain
        Validity
            Not Before: May 21 08:33:37 2015 GMT
            Not After : May 18 08:33:37 2025 GMT
        Subject: CN=Client1660Cert002533
        Subject Public Key Info:
            Public Key Algorithm: rsaEncryption
                Public-Key: (4096 bit)
                Modulus:
                    00:d2:0f:e6:85:15:78:70:e7:d5:8f:6b:a8:83:6c:
                    ec:e5:62:52:ba:d5:92:91:c1:a0:1a:37:74:aa:51:
                    44:1a:cc:e1:32:00:d3:37:14:a5:46:30:04:3d:b3:
                    2d:59:da:75:59:5b:51:c2:f8:37:b9:f0:ac:6b:5c:
                    8e:be:30:e4:2e:c4:60:a3:32:73:98:b8:b3:4d:d7:
                    20:cb:a8:d3:3d:e0:fe:3d:29:e6:45:c0:ab:23:a1:
                    4b:f5:ce:41:17:23:8f:aa:9f:97:f8:b9:a2:32:e5:
                    31:c2:e5:c1:f9:8c:8b:d3:85:7c:77:de:e7:a4:78:
                    63:0f:b1:2e:38:a2:39:c9:cd:ff:c7:c1:ad:46:20:
                    86:e3:02:1b:b8:5e:19:e4:3f:ed:aa:54:6e:7f:a0:
                    49:0f:68:8b:2a:1e:8a:86:40:98:cd:17:07:af:56:
                    4e:d2:e0:1b:b4:b4:fe:2b:6a:48:fa:98:ed:0a:e8:
                    49:35:cf:e7:32:a9:17:9b:7e:b8:51:26:6a:04:90:
                    ea:e3:a1:08:a9:ad:fa:1e:c4:9f:1f:66:eb:6d:cf:
                    85:b5:a4:66:94:eb:16:ad:ba:8e:61:72:8c:ec:d6:
                    ea:4d:25:4f:66:25:a0:cb:7c:23:a9:5e:fd:71:b1:
                    43:0c:bb:e6:34:b4:c1:6e:82:8d:e9:db:e1:2f:b8:
                    d5:bb:5a:9d:cc:02:62:c4:ec:e1:1e:ee:9c:05:c4:
                    88:de:45:e5:31:24:e1:83:7a:9b:79:e1:78:59:6a:
                    a8:5e:f2:10:27:83:b1:d0:9e:a1:9e:0c:1a:e3:53:
                    56:3c:df:eb:39:ff:69:1f:86:ab:83:fe:62:4a:2b:
                    90:97:54:e7:f3:48:ec:a5:de:2f:64:43:72:bc:0d:
                    ee:4b:72:57:ad:f9:24:3a:51:67:e0:c2:34:1c:fa:
                    15:39:39:0d:06:4a:35:a0:5f:a9:19:bd:b7:e5:6f:
                    76:fc:84:2f:1d:b5:71:ce:a7:57:81:34:40:ca:2f:
                    53:b3:9f:fa:84:96:a4:34:08:19:46:a8:c5:35:5b:
                    50:2d:0d:e6:f0:33:94:0c:66:65:e9:cc:ed:7a:ca:
                    da:7c:64:69:5c:38:97:4c:83:1d:b2:76:3d:9c:0e:
                    0e:82:b1:0e:2a:55:03:04:e9:88:c3:8b:b9:d6:d0:
                    d3:ec:d3:e5:8b:75:57:ad:8e:ea:73:3b:c3:5e:45:
                    2c:dd:11:80:03:15:7d:8a:79:db:89:32:7e:46:87:
                    da:6e:21:24:b8:16:9e:67:7f:ce:d5:06:2a:ae:de:
                    1f:81:f0:66:6b:81:30:68:57:ef:e7:51:f9:9e:64:
                    68:0b:9e:6b:05:12:1e:3c:51:c5:5e:96:a3:1e:c1:
                    53:ac:df
                Exponent: 65537 (0x10001)
        X509v3 extensions:
            X509v3 Basic Constraints: 
                CA:FALSE
            Netscape Comment: 
                Easy-RSA Generated Certificate
            X509v3 Subject Key Identifier: 
                42:07:3C:6B:60:12:AF:50:2F:9B:90:04:32:ED:92:86:14:EE:FA:80
            X509v3 Authority Key Identifier: 
                keyid:12:CD:60:04:D2:A0:80:9E:70:ED:C6:99:B8:7B:2C:C6:52:FD:19:A1
                DirName:/C=US/ST=OH/L=Columbus/O=VikingVPN/OU=MyOrganizationalUnit/CN=VikingVPN CA/name=EasyRSA/emailAddress=me@myhost.mydomain
                serial:CF:35:85:EE:80:BF:2A:3E

            X509v3 Extended Key Usage: 
                TLS Web Client Authentication
            X509v3 Key Usage: 
                Digital Signature
    Signature Algorithm: md5WithRSAEncryption
         c2:66:4e:68:f0:b2:ee:cd:e5:65:a0:b8:f5:e9:8b:92:25:b6:
         06:f1:17:b7:b6:dd:a7:3c:f1:45:d5:f9:7e:12:27:3a:6b:53:
         33:72:e5:7d:76:95:4c:fe:17:b1:bc:cd:81:0e:9c:ed:31:d5:
         b5:51:1f:cc:36:17:b0:ba:fb:18:29:4f:84:b5:0b:e6:65:f6:
         6b:c2:f4:bd:72:26:d2:88:b4:da:a7:8e:c0:9d:58:d0:00:e9:
         11:18:e0:77:34:2e:13:ea:bf:f7:8e:8d:04:db:6d:bd:79:96:
         e6:c1:79:39:f2:df:44:72:13:c8:67:bf:36:18:81:38:91:b4:
         5e:fc:be:7c:bb:38:0d:6b:5c:45:47:d1:06:ea:b5:15:71:d0:
         4c:d4:25:81:a5:30:92:24:b1:d6:8d:c2:33:2e:c3:a6:4d:8a:
         58:01:5f:a9:dd:8c:25:cb:06:d2:26:10:04:51:e2:cf:c5:ff:
         1a:3c:ac:f3:bc:90:90:02:26:97:f8:ee:d5:82:b5:d0:5e:37:
         bf:51:d8:61:d2:84:f0:cd:a7:f1:ec:8f:60:8b:3e:f3:d8:b7:
         32:7a:4f:a2:47:ce:2e:9b:51:9c:67:37:2a:ee:d8:8c:7e:e3:
         05:66:25:a0:ca:02:4d:47:46:bf:16:29:bc:3e:6b:be:ac:d8:
         49:e8:b7:6f:17:d6:2f:f4:b8:ce:eb:c8:3e:f0:57:10:46:d4:
         df:fe:56:d6:c2:40:ba:93:85:ac:e1:91:f3:f9:fc:08:04:bf:
         2b:13:15:49:fa:7f:98:76:f0:2a:35:2a:14:84:e3:58:57:8c:
         34:b4:c1:a7:e9:1d:53:14:c7:1e:ad:23:ab:72:5e:68:2a:63:
         a9:5f:0f:ec:8b:2b:01:56:f2:21:3f:58:59:8a:a2:ee:fe:2e:
         b4:0f:4e:e1:55:dd:de:70:d6:9b:7d:52:04:1e:fb:17:4a:eb:
         cb:2b:4e:3d:29:ae:87:a1:ce:ce:3e:f6:dc:3f:98:3a:94:4a:
         9f:c5:a7:1c:e9:80:2e:a0:26:fd:de:15:3b:a3:fc:00:09:b2:
         6f:ea:f7:7f:b7:0c:b7:e2:6a:5e:95:24:e3:31:42:5a:48:c2:
         a8:c6:f2:f0:43:dc:a4:db:be:82:50:66:fa:4f:d9:d1:21:7d:
         3d:77:2d:9a:b4:5b:29:31:5c:6b:2a:8c:f0:b3:05:8d:19:dd:
         33:96:bf:8e:1c:05:30:2e:aa:f4:16:18:c2:39:98:a9:31:a3:
         51:8b:75:62:33:74:97:e6:34:0b:72:29:37:4c:29:33:3e:d3:
         2c:44:15:0a:2f:35:a1:ec:86:12:0b:09:f4:45:8d:6d:2c:6f:
         9b:57:8e:9f:3f:83:6e:75
-----BEGIN CERTIFICATE-----
MIIGrTCCBJWgAwIBAgICFOowDQYJKoZIhvcNAQEEBQAwgawxCzAJBgNVBAYTAlVT
MQswCQYDVQQIEwJPSDERMA8GA1UEBxMIQ29sdW1idXMxEjAQBgNVBAoTCVZpa2lu
Z1ZQTjEdMBsGA1UECxMUTXlPcmdhbml6YXRpb25hbFVuaXQxFTATBgNVBAMTDFZp
a2luZ1ZQTiBDQTEQMA4GA1UEKRMHRWFzeVJTQTEhMB8GCSqGSIb3DQEJARYSbWVA
bXlob3N0Lm15ZG9tYWluMB4XDTE1MDUyMTA4MzMzN1oXDTI1MDUxODA4MzMzN1ow
HzEdMBsGA1UEAxMUQ2xpZW50MTY2MENlcnQwMDI1MzMwggIiMA0GCSqGSIb3DQEB
AQUAA4ICDwAwggIKAoICAQDSD+aFFXhw59WPa6iDbOzlYlK61ZKRwaAaN3SqUUQa
zOEyANM3FKVGMAQ9sy1Z2nVZW1HC+De58KxrXI6+MOQuxGCjMnOYuLNN1yDLqNM9
4P49KeZFwKsjoUv1zkEXI4+qn5f4uaIy5THC5cH5jIvThXx33uekeGMPsS44ojnJ
zf/Hwa1GIIbjAhu4XhnkP+2qVG5/oEkPaIsqHoqGQJjNFwevVk7S4Bu0tP4rakj6
mO0K6Ek1z+cyqRebfrhRJmoEkOrjoQiprfoexJ8fZuttz4W1pGaU6xatuo5hcozs
1upNJU9mJaDLfCOpXv1xsUMMu+Y0tMFugo3p2+EvuNW7Wp3MAmLE7OEe7pwFxIje
ReUxJOGDept54XhZaqhe8hAng7HQnqGeDBrjU1Y83+s5/2kfhquD/mJKK5CXVOfz
SOyl3i9kQ3K8De5Lclet+SQ6UWfgwjQc+hU5OQ0GSjWgX6kZvbflb3b8hC8dtXHO
p1eBNEDKL1Ozn/qElqQ0CBlGqMU1W1AtDebwM5QMZmXpzO16ytp8ZGlcOJdMgx2y
dj2cDg6CsQ4qVQME6YjDi7nW0NPs0+WLdVetjupzO8NeRSzdEYADFX2KeduJMn5G
h9puISS4Fp5nf87VBiqu3h+B8GZrgTBoV+/nUfmeZGgLnmsFEh48UcVelqMewVOs
3wIDAQABo4IBYzCCAV8wCQYDVR0TBAIwADAtBglghkgBhvhCAQ0EIBYeRWFzeS1S
U0EgR2VuZXJhdGVkIENlcnRpZmljYXRlMB0GA1UdDgQWBBRCBzxrYBKvUC+bkAQy
7ZKGFO76gDCB4QYDVR0jBIHZMIHWgBQSzWAE0qCAnnDtxpm4eyzGUv0ZoaGBsqSB
rzCBrDELMAkGA1UEBhMCVVMxCzAJBgNVBAgTAk9IMREwDwYDVQQHEwhDb2x1bWJ1
czESMBAGA1UEChMJVmlraW5nVlBOMR0wGwYDVQQLExRNeU9yZ2FuaXphdGlvbmFs
VW5pdDEVMBMGA1UEAxMMVmlraW5nVlBOIENBMRAwDgYDVQQpEwdFYXN5UlNBMSEw
HwYJKoZIhvcNAQkBFhJtZUBteWhvc3QubXlkb21haW6CCQDPNYXugL8qPjATBgNV
HSUEDDAKBggrBgEFBQcDAjALBgNVHQ8EBAMCB4AwDQYJKoZIhvcNAQEEBQADggIB
AMJmTmjwsu7N5WWguPXpi5IltgbxF7e23ac88UXV+X4SJzprUzNy5X12lUz+F7G8
zYEOnO0x1bVRH8w2F7C6+xgpT4S1C+Zl9mvC9L1yJtKItNqnjsCdWNAA6REY4Hc0
LhPqv/eOjQTbbb15lubBeTny30RyE8hnvzYYgTiRtF78vny7OA1rXEVH0QbqtRVx
0EzUJYGlMJIksdaNwjMuw6ZNilgBX6ndjCXLBtImEARR4s/F/xo8rPO8kJACJpf4
7tWCtdBeN79R2GHShPDNp/Hsj2CLPvPYtzJ6T6JHzi6bUZxnNyru2Ix+4wVmJaDK
Ak1HRr8WKbw+a76s2Enot28X1i/0uM7ryD7wVxBG1N/+VtbCQLqThazhkfP5/AgE
vysTFUn6f5h28Co1KhSE41hXjDS0wafpHVMUxx6tI6tyXmgqY6lfD+yLKwFW8iE/
WFmKou7+LrQPTuFV3d5w1pt9UgQe+xdK68srTj0proehzs4+9tw/mDqUSp/Fpxzp
gC6gJv3eFTuj/AAJsm/q93+3DLfial6VJOMxQlpIwqjG8vBD3KTbvoJQZvpP2dEh
fT13LZq0WykxXGsqjPCzBY0Z3TOWv44cBTAuqvQWGMI5mKkxo1GLdWIzdJfmNAty
KTdMKTM+0yxEFQovNaHshhILCfRFjW0sb5tXjp8/g251
-----END CERTIFICATE-----
