Certificate:
    Data:
        Version: 3 (0x2)
        Serial Number: 12678 (0x3186)
    Signature Algorithm: sha256WithRSAEncryption
        Issuer: C=US, ST=OH, L=Columbus, O=VikingVPN, OU=MyOrganizationalUnit, CN=VikingVPN CA/name=EasyRSA/emailAddress=me@myhost.mydomain
        Validity
            Not Before: Mar  3 15:17:09 2018 GMT
            Not After : Feb 29 15:17:09 2028 GMT
        Subject: CN=Client3245Cert5a2222
        Subject Public Key Info:
            Public Key Algorithm: rsaEncryption
                Public-Key: (4096 bit)
                Modulus:
                    00:d8:18:a1:f3:1b:5e:18:b2:7f:e2:4d:e8:1a:d8:
                    3a:43:e4:4c:0d:c0:de:93:7b:cd:91:10:f0:a4:ac:
                    7d:98:0d:3a:94:9f:c5:92:d0:ad:1d:41:2f:87:cf:
                    b8:2b:88:7e:fd:d4:ab:be:1b:93:58:9d:08:61:0e:
                    3a:af:83:e1:5f:62:00:19:d0:a3:84:24:62:05:08:
                    7d:b9:5a:bc:24:88:cc:f7:5c:72:65:c8:2d:d7:e0:
                    21:63:f1:04:ad:3a:ae:63:5a:32:53:35:b0:41:a5:
                    84:a4:c3:c9:80:eb:87:ba:b6:3b:b6:9a:bb:92:82:
                    fc:e4:8f:4c:99:d6:d2:53:20:14:ea:11:f9:2c:29:
                    96:fe:e5:3c:9c:39:44:2a:2d:21:1e:23:68:69:37:
                    b6:34:7c:fe:45:73:5d:03:21:ad:2a:b3:c1:85:bf:
                    e7:a8:29:93:57:76:2b:68:99:52:c9:3c:db:14:71:
                    4f:27:17:e2:40:e5:8c:7f:aa:7b:05:59:15:26:50:
                    da:17:16:ef:26:df:8e:34:e1:95:e1:74:85:17:58:
                    1e:a0:4f:66:d8:bc:f8:fb:b8:af:a3:0f:c1:46:0f:
                    64:ef:1d:e6:6c:a1:83:21:38:88:bd:4c:0d:ac:bd:
                    b9:d0:8d:b1:9f:80:ae:38:ef:e9:4f:09:11:fa:e5:
                    25:86:1f:75:6d:aa:f2:1c:2a:aa:1b:3e:d0:9f:db:
                    e9:17:2c:9a:f8:83:b0:16:26:3a:03:92:de:99:86:
                    97:82:5a:75:fd:01:6d:d4:50:b2:2f:87:18:b2:fa:
                    6c:7b:b4:3f:13:3a:72:e3:e8:2c:3e:99:dc:3e:a5:
                    8c:6b:e0:2e:60:b9:8b:28:e8:a6:fd:64:6f:9f:2e:
                    c1:e3:20:c8:ad:24:a9:e7:38:56:ba:d4:5c:ea:ca:
                    ce:58:8e:1b:7b:d5:c7:b2:a6:56:6f:c3:74:fb:6a:
                    f4:e8:de:1d:da:d5:b7:70:9c:4b:92:d6:dd:3c:cf:
                    6c:81:19:0f:94:4b:16:73:d2:86:7d:62:e6:d8:d0:
                    45:44:66:d2:23:30:79:69:4c:a4:2a:f3:3d:f8:00:
                    96:1e:31:34:78:8d:82:1e:82:9b:f3:02:c5:07:53:
                    c6:44:ab:ab:ae:63:74:71:54:4a:1d:f4:98:7d:0b:
                    18:c5:82:36:77:78:01:7b:15:27:5c:1b:1b:5c:2e:
                    a8:6f:9b:99:50:13:3b:d1:1e:e9:b2:31:21:37:b2:
                    43:fd:b6:90:64:17:a5:d7:d7:39:27:27:44:b6:43:
                    0d:91:9c:23:0f:26:16:ef:fa:e3:b5:44:38:14:2d:
                    be:5b:a7:be:33:f6:5a:57:49:60:75:d1:8f:dc:05:
                    c9:2f:ff
                Exponent: 65537 (0x10001)
        X509v3 extensions:
            X509v3 Basic Constraints: 
                CA:FALSE
            Netscape Comment: 
                Easy-RSA Generated Certificate
            X509v3 Subject Key Identifier: 
                08:6A:A6:17:D9:50:64:B4:A3:93:93:24:03:03:D8:02:71:F0:E6:B8
            X509v3 Authority Key Identifier: 
                keyid:12:CD:60:04:D2:A0:80:9E:70:ED:C6:99:B8:7B:2C:C6:52:FD:19:A1
                DirName:/C=US/ST=OH/L=Columbus/O=VikingVPN/OU=MyOrganizationalUnit/CN=VikingVPN CA/name=EasyRSA/emailAddress=me@myhost.mydomain
                serial:CF:35:85:EE:80:BF:2A:3E

            X509v3 Extended Key Usage: 
                TLS Web Client Authentication
            X509v3 Key Usage: 
                Digital Signature
    Signature Algorithm: sha256WithRSAEncryption
         18:56:6d:4a:5b:9c:ff:47:c3:29:81:a4:e0:ee:4d:67:15:9d:
         de:40:cd:fd:6e:d7:d9:82:34:9a:be:10:60:2c:0c:22:d0:03:
         9f:a8:14:94:2a:00:24:63:82:d7:ac:c4:86:3c:66:03:a7:bf:
         1d:64:ce:59:60:20:f9:9e:e9:7b:f4:a5:46:88:8c:bf:2b:fc:
         20:88:e7:c7:c2:7c:39:6c:e1:d1:f0:4c:05:d0:b2:be:de:63:
         5e:5d:b5:6c:1f:7c:a5:83:44:5c:56:db:86:87:e6:22:51:72:
         49:ca:9d:c3:dc:91:9f:0c:4e:af:f4:e7:a6:7d:83:53:5b:84:
         6d:a3:f3:c3:3e:39:a5:55:da:30:40:76:a3:49:72:66:94:48:
         88:8f:f3:de:ed:e9:a0:cb:67:27:49:f5:e5:d5:0f:b5:45:e4:
         94:ab:ff:f5:cd:40:e1:ed:53:c1:9b:4b:fd:87:15:3c:64:71:
         24:47:d7:bd:a8:03:fa:5d:43:8e:37:ff:08:76:9a:74:07:fb:
         ed:9e:f5:79:68:14:3f:6b:14:82:7d:b8:88:63:d6:08:ba:d3:
         d5:d2:4a:30:ce:dd:ce:07:87:7e:a7:dd:99:a1:51:d9:6b:e1:
         79:87:f2:02:b6:a0:4d:09:b2:56:9a:b8:2b:d6:f9:bc:50:15:
         84:65:ef:8b:95:90:f6:84:a1:d3:4f:1a:cb:b7:d5:98:4e:57:
         fa:bd:c7:93:8d:44:2f:c5:92:9a:e5:17:f2:1a:93:5b:b2:45:
         da:d6:9e:fa:0e:ed:92:f1:59:e4:c7:c6:d3:02:8e:7d:0e:35:
         c5:a5:d9:95:4a:ae:94:11:52:60:8a:b8:e6:17:42:8e:b7:e5:
         12:55:c6:3c:ea:db:81:49:3e:8f:0c:94:d4:92:cf:dc:02:60:
         c0:fb:88:d4:c2:2e:a4:87:b5:85:38:da:dd:de:5a:76:f7:9e:
         6a:bc:e3:b4:54:36:16:31:ec:bd:e7:b8:3f:72:e2:8d:4f:8f:
         5f:43:c3:83:fa:83:5d:39:d3:00:93:6b:d2:ec:a9:22:d9:3c:
         d3:6c:7d:24:d3:df:be:44:e0:21:e0:98:eb:12:6c:24:e1:2a:
         19:5c:cd:0d:23:49:fd:9e:97:b6:47:c4:55:98:e9:a4:11:e3:
         fa:ff:68:9a:38:5f:34:63:f8:93:3c:c7:07:9a:4e:46:9d:49:
         f5:dd:70:30:6f:65:3f:ff:67:4a:b7:83:ba:85:83:6a:c7:13:
         54:0f:54:87:34:3b:76:a2:2c:6c:76:f8:c5:2c:37:36:b0:f1:
         b0:92:fa:61:86:15:39:44:2c:31:6f:bc:0f:be:68:d6:97:e2:
         87:7a:14:70:5b:b2:3a:c3
-----BEGIN CERTIFICATE-----
MIIGrTCCBJWgAwIBAgICMYYwDQYJKoZIhvcNAQELBQAwgawxCzAJBgNVBAYTAlVT
MQswCQYDVQQIEwJPSDERMA8GA1UEBxMIQ29sdW1idXMxEjAQBgNVBAoTCVZpa2lu
Z1ZQTjEdMBsGA1UECxMUTXlPcmdhbml6YXRpb25hbFVuaXQxFTATBgNVBAMTDFZp
a2luZ1ZQTiBDQTEQMA4GA1UEKRMHRWFzeVJTQTEhMB8GCSqGSIb3DQEJARYSbWVA
bXlob3N0Lm15ZG9tYWluMB4XDTE4MDMwMzE1MTcwOVoXDTI4MDIyOTE1MTcwOVow
HzEdMBsGA1UEAxMUQ2xpZW50MzI0NUNlcnQ1YTIyMjIwggIiMA0GCSqGSIb3DQEB
AQUAA4ICDwAwggIKAoICAQDYGKHzG14Ysn/iTega2DpD5EwNwN6Te82REPCkrH2Y
DTqUn8WS0K0dQS+Hz7griH791Ku+G5NYnQhhDjqvg+FfYgAZ0KOEJGIFCH25Wrwk
iMz3XHJlyC3X4CFj8QStOq5jWjJTNbBBpYSkw8mA64e6tju2mruSgvzkj0yZ1tJT
IBTqEfksKZb+5TycOUQqLSEeI2hpN7Y0fP5Fc10DIa0qs8GFv+eoKZNXditomVLJ
PNsUcU8nF+JA5Yx/qnsFWRUmUNoXFu8m34404ZXhdIUXWB6gT2bYvPj7uK+jD8FG
D2TvHeZsoYMhOIi9TA2svbnQjbGfgK447+lPCRH65SWGH3VtqvIcKqobPtCf2+kX
LJr4g7AWJjoDkt6ZhpeCWnX9AW3UULIvhxiy+mx7tD8TOnLj6Cw+mdw+pYxr4C5g
uYso6Kb9ZG+fLsHjIMitJKnnOFa61Fzqys5Yjht71ceyplZvw3T7avTo3h3a1bdw
nEuS1t08z2yBGQ+USxZz0oZ9YubY0EVEZtIjMHlpTKQq8z34AJYeMTR4jYIegpvz
AsUHU8ZEq6uuY3RxVEod9Jh9CxjFgjZ3eAF7FSdcGxtcLqhvm5lQEzvRHumyMSE3
skP9tpBkF6XX1zknJ0S2Qw2RnCMPJhbv+uO1RDgULb5bp74z9lpXSWB10Y/cBckv
/wIDAQABo4IBYzCCAV8wCQYDVR0TBAIwADAtBglghkgBhvhCAQ0EIBYeRWFzeS1S
U0EgR2VuZXJhdGVkIENlcnRpZmljYXRlMB0GA1UdDgQWBBQIaqYX2VBktKOTkyQD
A9gCcfDmuDCB4QYDVR0jBIHZMIHWgBQSzWAE0qCAnnDtxpm4eyzGUv0ZoaGBsqSB
rzCBrDELMAkGA1UEBhMCVVMxCzAJBgNVBAgTAk9IMREwDwYDVQQHEwhDb2x1bWJ1
czESMBAGA1UEChMJVmlraW5nVlBOMR0wGwYDVQQLExRNeU9yZ2FuaXphdGlvbmFs
VW5pdDEVMBMGA1UEAxMMVmlraW5nVlBOIENBMRAwDgYDVQQpEwdFYXN5UlNBMSEw
HwYJKoZIhvcNAQkBFhJtZUBteWhvc3QubXlkb21haW6CCQDPNYXugL8qPjATBgNV
HSUEDDAKBggrBgEFBQcDAjALBgNVHQ8EBAMCB4AwDQYJKoZIhvcNAQELBQADggIB
ABhWbUpbnP9HwymBpODuTWcVnd5Azf1u19mCNJq+EGAsDCLQA5+oFJQqACRjgtes
xIY8ZgOnvx1kzllgIPme6Xv0pUaIjL8r/CCI58fCfDls4dHwTAXQsr7eY15dtWwf
fKWDRFxW24aH5iJRcknKncPckZ8MTq/056Z9g1NbhG2j88M+OaVV2jBAdqNJcmaU
SIiP897t6aDLZydJ9eXVD7VF5JSr//XNQOHtU8GbS/2HFTxkcSRH172oA/pdQ443
/wh2mnQH++2e9XloFD9rFIJ9uIhj1gi609XSSjDO3c4Hh36n3ZmhUdlr4XmH8gK2
oE0JslaauCvW+bxQFYRl74uVkPaEodNPGsu31ZhOV/q9x5ONRC/FkprlF/Iak1uy
RdrWnvoO7ZLxWeTHxtMCjn0ONcWl2ZVKrpQRUmCKuOYXQo635RJVxjzq24FJPo8M
lNSSz9wCYMD7iNTCLqSHtYU42t3eWnb3nmq847RUNhYx7L3nuD9y4o1Pj19Dw4P6
g1050wCTa9LsqSLZPNNsfSTT375E4CHgmOsSbCThKhlczQ0jSf2el7ZHxFWY6aQR
4/r/aJo4XzRj+JM8xweaTkadSfXdcDBvZT//Z0q3g7qFg2rHE1QPVIc0O3aiLGx2
+MUsNzaw8bCS+mGGFTlELDFvvA++aNaX4od6FHBbsjrD
-----END CERTIFICATE-----
