Certificate:
    Data:
        Version: 3 (0x2)
        Serial Number: 6878 (0x1ade)
    Signature Algorithm: md5WithRSAEncryption
        Issuer: C=US, ST=OH, L=Columbus, O=VikingVPN, OU=MyOrganizationalUnit, CN=VikingVPN CA/name=EasyRSA/emailAddress=me@myhost.mydomain
        Validity
            Not Before: Dec 11 07:15:19 2015 GMT
            Not After : Dec  8 07:15:19 2025 GMT
        Subject: CN=Client2098Cert24f521
        Subject Public Key Info:
            Public Key Algorithm: rsaEncryption
                Public-Key: (4096 bit)
                Modulus:
                    00:ca:56:65:ee:d8:09:46:47:5f:e4:7b:ba:9c:75:
                    57:ea:fd:33:47:e1:43:c7:ad:4a:68:87:d4:da:24:
                    38:39:b5:cb:6e:2b:8f:1e:fc:3f:6e:a8:d9:b5:73:
                    e5:fb:b9:ca:94:0c:86:4c:9d:42:4c:08:19:e3:49:
                    84:0e:0c:14:90:69:ea:e9:88:fa:17:29:63:20:db:
                    86:e6:b6:46:5f:62:25:b0:86:da:bf:ff:7c:56:9e:
                    e8:28:b6:3a:8d:0c:89:38:15:d8:fe:9a:3c:0a:9b:
                    5d:94:45:df:cd:52:ec:3c:36:88:e3:f0:59:bb:ab:
                    91:14:45:65:77:af:30:9c:01:b2:8a:91:88:02:c6:
                    63:53:84:7d:fd:7c:3f:6d:24:9d:34:e2:45:3b:f7:
                    40:d8:9c:8a:d1:a4:89:1d:da:51:5b:c8:b2:75:7f:
                    7c:fb:27:73:77:81:c4:f6:1b:ec:fb:4a:0d:cb:04:
                    87:8b:de:71:ee:5b:c4:68:c3:21:71:d8:a8:a1:e2:
                    ea:cd:0e:ce:c8:b8:a7:d8:5a:13:3b:23:d1:68:0d:
                    74:ae:0b:24:bf:df:6a:5e:48:6c:ab:08:05:00:43:
                    0d:2a:b1:1d:58:90:ec:82:3f:3b:8d:aa:0b:08:1c:
                    98:61:3f:e1:2f:8b:fa:c0:b0:b1:78:c4:97:20:f8:
                    5f:7f:38:94:c1:fb:c7:78:25:a0:bb:34:2d:7a:a7:
                    e2:80:0d:62:4a:0b:1a:f0:2e:cd:88:0d:27:1c:b8:
                    82:fb:92:ad:13:65:ec:ff:94:df:94:a9:fa:94:c9:
                    b5:6a:8c:d4:39:14:e4:64:4f:f0:ba:01:a9:f0:7e:
                    d3:5e:4c:54:09:a5:f4:9b:9a:e8:04:66:a6:cf:a7:
                    c9:c4:91:33:df:c1:4d:51:0b:92:6a:69:07:ca:08:
                    21:60:89:a3:27:87:a0:1f:9f:64:2c:92:94:44:98:
                    11:68:3e:96:d2:96:cf:c8:48:97:64:da:50:01:22:
                    91:e2:36:55:2e:03:6b:a2:f5:a4:e6:1d:cf:a9:e5:
                    eb:bc:6c:ac:82:dc:cc:4b:6a:84:23:50:a4:11:6f:
                    8e:f1:31:93:ac:f3:b5:81:b3:e8:68:62:c6:3a:00:
                    c2:93:46:76:62:05:49:ff:8b:52:69:bd:12:f1:30:
                    a7:4f:85:8b:5b:33:ce:d6:a0:9a:80:40:47:f7:f9:
                    11:bb:45:96:41:d1:43:57:00:be:66:4d:16:7f:11:
                    bf:41:fd:15:f2:80:29:9c:92:6e:aa:8d:e9:e3:8d:
                    ff:e7:99:a0:65:cf:ff:4b:70:99:c3:96:0e:70:4d:
                    39:20:dd:b4:b3:bf:7f:bd:ea:36:cc:4c:b5:b8:9d:
                    91:4f:ab
                Exponent: 65537 (0x10001)
        X509v3 extensions:
            X509v3 Basic Constraints: 
                CA:FALSE
            Netscape Comment: 
                Easy-RSA Generated Certificate
            X509v3 Subject Key Identifier: 
                30:36:DF:23:40:85:D2:D4:16:01:64:2D:C6:1A:F3:45:76:58:AF:FD
            X509v3 Authority Key Identifier: 
                keyid:12:CD:60:04:D2:A0:80:9E:70:ED:C6:99:B8:7B:2C:C6:52:FD:19:A1
                DirName:/C=US/ST=OH/L=Columbus/O=VikingVPN/OU=MyOrganizationalUnit/CN=VikingVPN CA/name=EasyRSA/emailAddress=me@myhost.mydomain
                serial:CF:35:85:EE:80:BF:2A:3E

            X509v3 Extended Key Usage: 
                TLS Web Client Authentication
            X509v3 Key Usage: 
                Digital Signature
    Signature Algorithm: md5WithRSAEncryption
         96:10:88:68:79:01:ce:63:79:99:98:53:cc:1f:d4:a9:01:a2:
         46:a5:65:96:90:77:79:de:18:a1:1e:86:4d:64:28:a0:23:5d:
         ea:0a:bf:94:86:d8:13:74:f5:70:40:d7:56:02:2b:30:f0:83:
         eb:2c:30:80:0b:75:37:de:fd:c8:39:dc:0e:a0:92:1b:4a:c3:
         83:e8:1f:2a:67:95:2a:1b:7c:1d:07:03:eb:b4:4c:fe:fc:fc:
         9e:0d:51:43:e7:89:fe:79:58:41:30:d7:cf:81:2f:cd:5a:3f:
         c0:6c:06:ea:89:20:28:66:f3:c4:b4:7a:a6:bf:1a:9a:cd:9b:
         9c:fb:31:a9:93:ac:04:f5:2d:f6:f0:09:ff:b1:a4:82:20:6e:
         88:21:cc:c2:7c:ce:ef:8a:de:37:fb:e7:33:9d:d5:1c:65:96:
         b2:4e:54:c8:fe:7c:96:81:26:78:2f:8c:a9:38:c9:b5:f0:82:
         b8:1e:6a:28:20:06:93:fa:eb:1b:2e:65:8d:59:d9:0a:63:09:
         89:8e:e0:e2:50:c4:f2:89:49:a5:47:a6:07:08:b8:21:e3:1e:
         5c:95:41:e1:b6:a4:ac:ba:c8:44:ac:36:76:84:e8:38:6f:0c:
         86:33:d1:b7:85:77:89:6a:a3:0e:03:b5:4a:55:a1:bb:86:28:
         b6:3f:42:ee:e2:6e:1e:85:6e:64:cf:a2:33:b1:76:07:0e:90:
         64:ff:65:ef:59:20:30:63:71:4d:b7:9b:f3:d1:61:68:54:34:
         4b:cb:00:49:22:97:26:35:82:cf:3a:ca:fd:e2:6c:3d:3d:e7:
         27:56:a8:8d:f6:b7:0c:c1:33:ca:9c:d1:e3:a9:05:1d:e2:c8:
         1f:6c:3a:90:27:24:b5:16:19:09:7a:84:89:7d:48:6e:45:1f:
         6c:a5:f6:7c:00:be:58:16:69:a7:6c:6e:3a:82:e5:05:51:64:
         1b:51:ba:1c:fd:3e:61:03:b6:0b:fa:82:91:0a:e8:85:f5:c8:
         c3:b1:fc:3b:c1:9f:f7:74:b3:51:fe:35:d8:9a:c8:be:8a:31:
         b7:b4:b2:28:7e:7a:69:ff:a1:53:88:f1:a7:a1:cf:04:36:1b:
         ac:de:19:9c:df:7c:85:ce:be:7a:66:fb:83:ec:b5:56:d5:95:
         ef:7b:7a:cb:5d:11:cf:1c:55:13:21:e8:e3:ac:dd:97:5a:c9:
         af:f1:d1:e4:d1:c8:c8:ec:d2:e2:f1:fa:8e:21:41:46:fd:64:
         7d:60:57:15:71:e2:6c:43:70:44:ff:6c:e4:1d:04:58:31:25:
         ed:e0:7d:f7:09:23:d8:e0:98:d9:cf:1e:0e:9e:2f:85:50:bb:
         b1:d9:61:0e:b0:8d:9d:4a
-----BEGIN CERTIFICATE-----
MIIGrTCCBJWgAwIBAgICGt4wDQYJKoZIhvcNAQEEBQAwgawxCzAJBgNVBAYTAlVT
MQswCQYDVQQIEwJPSDERMA8GA1UEBxMIQ29sdW1idXMxEjAQBgNVBAoTCVZpa2lu
Z1ZQTjEdMBsGA1UECxMUTXlPcmdhbml6YXRpb25hbFVuaXQxFTATBgNVBAMTDFZp
a2luZ1ZQTiBDQTEQMA4GA1UEKRMHRWFzeVJTQTEhMB8GCSqGSIb3DQEJARYSbWVA
bXlob3N0Lm15ZG9tYWluMB4XDTE1MTIxMTA3MTUxOVoXDTI1MTIwODA3MTUxOVow
HzEdMBsGA1UEAxMUQ2xpZW50MjA5OENlcnQyNGY1MjEwggIiMA0GCSqGSIb3DQEB
AQUAA4ICDwAwggIKAoICAQDKVmXu2AlGR1/ke7qcdVfq/TNH4UPHrUpoh9TaJDg5
tctuK48e/D9uqNm1c+X7ucqUDIZMnUJMCBnjSYQODBSQaerpiPoXKWMg24bmtkZf
YiWwhtq//3xWnugotjqNDIk4Fdj+mjwKm12URd/NUuw8Nojj8Fm7q5EURWV3rzCc
AbKKkYgCxmNThH39fD9tJJ004kU790DYnIrRpIkd2lFbyLJ1f3z7J3N3gcT2G+z7
Sg3LBIeL3nHuW8RowyFx2Kih4urNDs7IuKfYWhM7I9FoDXSuCyS/32peSGyrCAUA
Qw0qsR1YkOyCPzuNqgsIHJhhP+Evi/rAsLF4xJcg+F9/OJTB+8d4JaC7NC16p+KA
DWJKCxrwLs2IDSccuIL7kq0TZez/lN+UqfqUybVqjNQ5FORkT/C6AanwftNeTFQJ
pfSbmugEZqbPp8nEkTPfwU1RC5JqaQfKCCFgiaMnh6Afn2QskpREmBFoPpbSls/I
SJdk2lABIpHiNlUuA2ui9aTmHc+p5eu8bKyC3MxLaoQjUKQRb47xMZOs87WBs+ho
YsY6AMKTRnZiBUn/i1JpvRLxMKdPhYtbM87WoJqAQEf3+RG7RZZB0UNXAL5mTRZ/
Eb9B/RXygCmckm6qjenjjf/nmaBlz/9LcJnDlg5wTTkg3bSzv3+96jbMTLW4nZFP
qwIDAQABo4IBYzCCAV8wCQYDVR0TBAIwADAtBglghkgBhvhCAQ0EIBYeRWFzeS1S
U0EgR2VuZXJhdGVkIENlcnRpZmljYXRlMB0GA1UdDgQWBBQwNt8jQIXS1BYBZC3G
GvNFdliv/TCB4QYDVR0jBIHZMIHWgBQSzWAE0qCAnnDtxpm4eyzGUv0ZoaGBsqSB
rzCBrDELMAkGA1UEBhMCVVMxCzAJBgNVBAgTAk9IMREwDwYDVQQHEwhDb2x1bWJ1
czESMBAGA1UEChMJVmlraW5nVlBOMR0wGwYDVQQLExRNeU9yZ2FuaXphdGlvbmFs
VW5pdDEVMBMGA1UEAxMMVmlraW5nVlBOIENBMRAwDgYDVQQpEwdFYXN5UlNBMSEw
HwYJKoZIhvcNAQkBFhJtZUBteWhvc3QubXlkb21haW6CCQDPNYXugL8qPjATBgNV
HSUEDDAKBggrBgEFBQcDAjALBgNVHQ8EBAMCB4AwDQYJKoZIhvcNAQEEBQADggIB
AJYQiGh5Ac5jeZmYU8wf1KkBokalZZaQd3neGKEehk1kKKAjXeoKv5SG2BN09XBA
11YCKzDwg+ssMIALdTfe/cg53A6gkhtKw4PoHypnlSobfB0HA+u0TP78/J4NUUPn
if55WEEw18+BL81aP8BsBuqJIChm88S0eqa/GprNm5z7MamTrAT1LfbwCf+xpIIg
boghzMJ8zu+K3jf75zOd1RxllrJOVMj+fJaBJngvjKk4ybXwgrgeaiggBpP66xsu
ZY1Z2QpjCYmO4OJQxPKJSaVHpgcIuCHjHlyVQeG2pKy6yESsNnaE6DhvDIYz0beF
d4lqow4DtUpVobuGKLY/Qu7ibh6FbmTPojOxdgcOkGT/Ze9ZIDBjcU23m/PRYWhU
NEvLAEkilyY1gs86yv3ibD095ydWqI32twzBM8qc0eOpBR3iyB9sOpAnJLUWGQl6
hIl9SG5FH2yl9nwAvlgWaadsbjqC5QVRZBtRuhz9PmEDtgv6gpEK6IX1yMOx/DvB
n/d0s1H+NdiayL6KMbe0sih+emn/oVOI8aehzwQ2G6zeGZzffIXOvnpm+4PstVbV
le97estdEc8cVRMh6OOs3Zdaya/x0eTRyMjs0uLx+o4hQUb9ZH1gVxVx4mxDcET/
bOQdBFgxJe3gffcJI9jgmNnPHg6eL4VQu7HZYQ6wjZ1K
-----END CERTIFICATE-----
