Certificate:
    Data:
        Version: 3 (0x2)
        Serial Number: 11643 (0x2d7b)
    Signature Algorithm: sha256WithRSAEncryption
        Issuer: C=US, ST=OH, L=Columbus, O=VikingVPN, OU=MyOrganizationalUnit, CN=VikingVPN CA/name=EasyRSA/emailAddress=me@myhost.mydomain
        Validity
            Not Before: Aug 26 11:36:11 2017 GMT
            Not After : Aug 24 11:36:11 2027 GMT
        Subject: CN=Client2940Cert5eb64e
        Subject Public Key Info:
            Public Key Algorithm: rsaEncryption
                Public-Key: (4096 bit)
                Modulus:
                    00:bc:dd:51:9a:b4:5c:9a:d3:3d:e6:fc:cb:56:9a:
                    71:d8:99:b4:c9:3a:65:3c:bd:19:c1:68:86:88:c7:
                    71:8f:e8:c1:7b:77:87:1f:4e:94:6f:1b:b9:3e:87:
                    db:fd:7c:bb:a2:35:9c:49:2b:1b:6b:2f:65:09:df:
                    8a:71:9d:b5:f6:d1:22:c2:9b:ad:e1:bc:0e:cf:7a:
                    df:18:49:89:78:44:52:13:06:e4:f2:37:93:62:6e:
                    6a:35:a4:97:09:b5:27:76:ec:0f:61:35:90:82:03:
                    6e:fb:08:93:5c:b1:9b:fb:2c:3a:c8:ae:56:96:64:
                    e5:f9:b1:3e:a7:1e:73:da:0a:be:ae:ef:33:07:ca:
                    75:90:07:ee:dc:5e:d7:65:fc:8f:44:ae:37:6b:b1:
                    e3:c5:94:8f:f8:f6:0f:f8:8b:8d:ae:34:9b:4d:fd:
                    38:e4:44:61:af:b3:bc:8a:77:81:3a:65:e4:6e:63:
                    71:fd:b6:6e:67:2d:da:11:b4:83:e7:eb:ac:57:d4:
                    b7:f6:54:5e:e9:c0:3b:d5:54:e9:53:6a:02:33:f8:
                    c5:79:b5:15:9f:27:e9:b3:cf:e9:1d:bd:41:2f:47:
                    6f:ed:8c:9d:13:c1:50:eb:f9:5b:d4:b2:f8:0c:dc:
                    91:76:a0:d0:a4:b3:af:64:97:53:b1:cf:d4:e2:48:
                    d2:0f:29:42:23:35:ef:1a:e5:d6:20:26:35:bc:19:
                    dd:7a:14:44:f1:ef:f9:2a:45:be:9d:e7:e3:a3:4f:
                    7c:a3:1b:bd:bd:9e:0d:44:2a:a3:22:99:0a:ef:f5:
                    9f:70:a9:bc:41:46:ea:93:92:d5:d9:df:18:a3:d8:
                    10:e3:0a:32:fc:6f:21:0d:51:f3:81:e2:59:1f:57:
                    af:75:12:33:35:c0:da:b9:58:ef:26:59:6c:90:8d:
                    57:3b:a0:ce:ad:30:a2:b9:98:e7:35:3d:de:53:db:
                    da:7c:51:4b:a2:16:9f:3b:fa:04:2d:a2:d1:6c:79:
                    17:5c:fe:73:ef:32:bf:da:c6:5a:c1:6f:34:21:67:
                    67:e8:3b:0a:d6:c5:58:34:d9:46:25:d3:e1:01:8a:
                    64:4a:70:a6:89:31:ba:b9:7a:94:d7:45:ed:52:ec:
                    a2:e0:f8:9b:e8:34:50:fe:a3:37:7c:ea:4c:1e:ed:
                    ce:d0:49:5e:53:ec:14:1b:b5:d9:09:48:6b:81:ec:
                    ba:08:2a:a1:4e:28:f6:7d:cf:ff:b0:a4:83:5e:bb:
                    13:b9:b6:2f:41:63:85:84:d6:05:b1:98:7a:5b:08:
                    c8:95:ba:c2:dd:c4:76:54:d1:9c:34:83:2a:1e:d7:
                    37:96:51:a8:5e:95:d9:ab:8f:66:21:c0:10:69:b6:
                    96:c5:c9
                Exponent: 65537 (0x10001)
        X509v3 extensions:
            X509v3 Basic Constraints: 
                CA:FALSE
            Netscape Comment: 
                Easy-RSA Generated Certificate
            X509v3 Subject Key Identifier: 
                24:64:D4:15:84:12:16:74:31:C0:8F:5A:0A:6F:8E:A2:EF:45:17:8D
            X509v3 Authority Key Identifier: 
                keyid:12:CD:60:04:D2:A0:80:9E:70:ED:C6:99:B8:7B:2C:C6:52:FD:19:A1
                DirName:/C=US/ST=OH/L=Columbus/O=VikingVPN/OU=MyOrganizationalUnit/CN=VikingVPN CA/name=EasyRSA/emailAddress=me@myhost.mydomain
                serial:CF:35:85:EE:80:BF:2A:3E

            X509v3 Extended Key Usage: 
                TLS Web Client Authentication
            X509v3 Key Usage: 
                Digital Signature
    Signature Algorithm: sha256WithRSAEncryption
         4e:b7:79:6e:5d:9e:24:5e:71:53:54:0d:ca:2a:90:cf:ca:c0:
         57:12:3b:3a:e5:a8:b5:3e:35:9d:31:14:dd:b7:cd:cf:e3:1e:
         82:a7:54:9e:af:6e:76:3e:67:63:cd:04:e8:f7:b5:fa:59:c1:
         cc:e3:58:82:29:e3:cb:07:5f:da:a7:cc:f1:aa:43:9a:b0:8e:
         92:aa:d9:9b:70:86:94:59:ad:a9:95:91:bf:36:9b:53:0a:c3:
         72:6a:de:67:60:5f:64:ed:ac:09:bc:20:0c:10:c0:a1:a0:a3:
         0d:9a:db:92:88:90:1d:21:ed:61:bd:26:73:3a:0e:25:35:05:
         78:d5:35:dc:1c:4f:45:e1:c2:e3:35:2f:80:d1:d5:94:4a:f5:
         55:03:e2:01:6d:9d:58:41:ff:10:31:f3:ef:26:0b:f2:fe:2d:
         5e:d0:c8:2b:b1:c0:a2:17:67:14:bb:73:08:7d:01:44:c0:e7:
         47:39:73:0d:b2:52:2a:59:3b:58:f9:99:c9:ba:59:1d:84:0e:
         8b:7e:f3:28:1d:36:f4:0a:6c:97:19:c6:48:f1:8f:cc:6f:9e:
         20:0b:ab:5c:87:03:24:e1:f4:96:59:7d:22:84:e5:34:99:ee:
         ea:a0:6c:68:4f:97:11:c5:83:fc:b5:7f:3a:f9:a3:d4:1b:e7:
         cf:06:a0:41:20:7f:33:05:7e:3a:3b:4e:03:5f:dd:ca:9d:7b:
         7b:05:00:9e:b9:71:c7:40:3d:59:b9:bd:f9:7f:f3:ee:6e:be:
         83:7c:2d:0e:e1:52:a7:d5:56:fc:ac:69:9e:01:b8:f6:f9:19:
         7b:8c:a2:ea:25:e8:97:75:cd:22:30:e5:8d:64:1d:fc:bd:27:
         77:b2:36:ed:b7:d6:91:aa:83:4b:d4:61:d8:16:46:04:3c:b4:
         7b:70:cd:a5:b4:68:89:72:61:02:39:52:66:bb:80:94:ac:d8:
         33:47:07:9d:45:0d:b1:f2:d9:54:36:49:e5:56:4f:18:08:3a:
         37:b0:ca:f2:db:19:68:0f:60:0f:61:09:d3:ca:2e:f3:6c:86:
         67:fd:78:4c:83:97:37:9a:53:f6:42:77:01:84:8a:94:5a:8f:
         ae:b7:b8:22:4e:02:13:47:1d:20:43:61:49:1f:66:4c:7e:9f:
         4a:58:2b:15:fb:da:2d:27:2a:ae:71:a5:8d:20:ce:c5:c2:64:
         26:14:68:fc:91:da:a9:0f:57:95:03:80:15:02:86:7b:6f:f3:
         80:90:56:df:19:88:43:96:78:03:22:32:69:3c:79:ce:48:cd:
         ad:f4:2e:06:23:55:69:1e:7f:23:a4:cd:15:07:46:2a:83:07:
         a9:26:56:76:dc:6c:d9:af
-----BEGIN CERTIFICATE-----
MIIGrTCCBJWgAwIBAgICLXswDQYJKoZIhvcNAQELBQAwgawxCzAJBgNVBAYTAlVT
MQswCQYDVQQIEwJPSDERMA8GA1UEBxMIQ29sdW1idXMxEjAQBgNVBAoTCVZpa2lu
Z1ZQTjEdMBsGA1UECxMUTXlPcmdhbml6YXRpb25hbFVuaXQxFTATBgNVBAMTDFZp
a2luZ1ZQTiBDQTEQMA4GA1UEKRMHRWFzeVJTQTEhMB8GCSqGSIb3DQEJARYSbWVA
bXlob3N0Lm15ZG9tYWluMB4XDTE3MDgyNjExMzYxMVoXDTI3MDgyNDExMzYxMVow
HzEdMBsGA1UEAxMUQ2xpZW50Mjk0MENlcnQ1ZWI2NGUwggIiMA0GCSqGSIb3DQEB
AQUAA4ICDwAwggIKAoICAQC83VGatFya0z3m/MtWmnHYmbTJOmU8vRnBaIaIx3GP
6MF7d4cfTpRvG7k+h9v9fLuiNZxJKxtrL2UJ34pxnbX20SLCm63hvA7Pet8YSYl4
RFITBuTyN5Nibmo1pJcJtSd27A9hNZCCA277CJNcsZv7LDrIrlaWZOX5sT6nHnPa
Cr6u7zMHynWQB+7cXtdl/I9ErjdrsePFlI/49g/4i42uNJtN/TjkRGGvs7yKd4E6
ZeRuY3H9tm5nLdoRtIPn66xX1Lf2VF7pwDvVVOlTagIz+MV5tRWfJ+mzz+kdvUEv
R2/tjJ0TwVDr+VvUsvgM3JF2oNCks69kl1Oxz9TiSNIPKUIjNe8a5dYgJjW8Gd16
FETx7/kqRb6d5+OjT3yjG729ng1EKqMimQrv9Z9wqbxBRuqTktXZ3xij2BDjCjL8
byENUfOB4lkfV691EjM1wNq5WO8mWWyQjVc7oM6tMKK5mOc1Pd5T29p8UUuiFp87
+gQtotFseRdc/nPvMr/axlrBbzQhZ2foOwrWxVg02UYl0+EBimRKcKaJMbq5epTX
Re1S7KLg+JvoNFD+ozd86kwe7c7QSV5T7BQbtdkJSGuB7LoIKqFOKPZ9z/+wpINe
uxO5ti9BY4WE1gWxmHpbCMiVusLdxHZU0Zw0gyoe1zeWUaheldmrj2YhwBBptpbF
yQIDAQABo4IBYzCCAV8wCQYDVR0TBAIwADAtBglghkgBhvhCAQ0EIBYeRWFzeS1S
U0EgR2VuZXJhdGVkIENlcnRpZmljYXRlMB0GA1UdDgQWBBQkZNQVhBIWdDHAj1oK
b46i70UXjTCB4QYDVR0jBIHZMIHWgBQSzWAE0qCAnnDtxpm4eyzGUv0ZoaGBsqSB
rzCBrDELMAkGA1UEBhMCVVMxCzAJBgNVBAgTAk9IMREwDwYDVQQHEwhDb2x1bWJ1
czESMBAGA1UEChMJVmlraW5nVlBOMR0wGwYDVQQLExRNeU9yZ2FuaXphdGlvbmFs
VW5pdDEVMBMGA1UEAxMMVmlraW5nVlBOIENBMRAwDgYDVQQpEwdFYXN5UlNBMSEw
HwYJKoZIhvcNAQkBFhJtZUBteWhvc3QubXlkb21haW6CCQDPNYXugL8qPjATBgNV
HSUEDDAKBggrBgEFBQcDAjALBgNVHQ8EBAMCB4AwDQYJKoZIhvcNAQELBQADggIB
AE63eW5dniRecVNUDcoqkM/KwFcSOzrlqLU+NZ0xFN23zc/jHoKnVJ6vbnY+Z2PN
BOj3tfpZwczjWIIp48sHX9qnzPGqQ5qwjpKq2ZtwhpRZramVkb82m1MKw3Jq3mdg
X2TtrAm8IAwQwKGgow2a25KIkB0h7WG9JnM6DiU1BXjVNdwcT0XhwuM1L4DR1ZRK
9VUD4gFtnVhB/xAx8+8mC/L+LV7QyCuxwKIXZxS7cwh9AUTA50c5cw2yUipZO1j5
mcm6WR2EDot+8ygdNvQKbJcZxkjxj8xvniALq1yHAyTh9JZZfSKE5TSZ7uqgbGhP
lxHFg/y1fzr5o9Qb588GoEEgfzMFfjo7TgNf3cqde3sFAJ65ccdAPVm5vfl/8+5u
voN8LQ7hUqfVVvysaZ4BuPb5GXuMouol6Jd1zSIw5Y1kHfy9J3eyNu231pGqg0vU
YdgWRgQ8tHtwzaW0aIlyYQI5Uma7gJSs2DNHB51FDbHy2VQ2SeVWTxgIOjewyvLb
GWgPYA9hCdPKLvNshmf9eEyDlzeaU/ZCdwGEipRaj663uCJOAhNHHSBDYUkfZkx+
n0pYKxX72i0nKq5xpY0gzsXCZCYUaPyR2qkPV5UDgBUChntv84CQVt8ZiEOWeAMi
Mmk8ec5Iza30LgYjVWkefyOkzRUHRiqDB6kmVnbcbNmv
-----END CERTIFICATE-----
