Certificate:
    Data:
        Version: 3 (0x2)
        Serial Number: 101 (0x65)
    Signature Algorithm: md5WithRSAEncryption
        Issuer: C=US, ST=OH, L=Columbus, O=VikingVPN, OU=MyOrganizationalUnit, CN=VikingVPN CA/name=EasyRSA/emailAddress=me@myhost.mydomain
        Validity
            Not Before: Sep  1 16:18:00 2013 GMT
            Not After : Aug 30 16:18:00 2023 GMT
        Subject: CN=Client70Certdb20f4
        Subject Public Key Info:
            Public Key Algorithm: rsaEncryption
                Public-Key: (4096 bit)
                Modulus:
                    00:da:a5:51:1b:e9:cc:ff:0f:da:41:71:ad:4d:a3:
                    c5:1e:1a:c4:11:76:79:72:ce:34:88:53:9a:da:60:
                    26:1a:01:a8:db:5f:dd:82:c1:4a:8c:02:1a:cb:96:
                    67:9c:a6:f3:c9:a8:81:6b:a6:be:89:e5:63:60:c9:
                    bd:bd:16:bf:56:cc:a0:76:4b:43:9a:1c:53:01:cb:
                    f7:75:3a:da:4f:14:75:19:5a:c4:78:b0:25:94:98:
                    fb:91:16:49:26:df:c6:4c:72:0a:b4:7c:f5:26:ca:
                    11:35:42:7b:0a:56:09:d3:b8:61:d1:55:df:3c:aa:
                    87:21:07:72:6d:ed:e6:d6:f3:0b:3f:23:f1:6e:d5:
                    16:d1:1a:cc:6e:3a:8a:a6:cb:bf:f1:a2:fd:2b:23:
                    6f:de:16:fb:4d:66:3c:a9:ce:06:eb:92:bc:7e:02:
                    fd:26:04:4b:7e:39:88:fa:cb:69:3d:e0:d6:3b:df:
                    8c:43:49:22:c2:46:a7:1a:a6:ab:2a:c5:88:12:a7:
                    23:60:3b:e0:88:67:aa:d5:40:2b:79:5e:4d:36:87:
                    07:7c:d5:dd:f2:16:a5:6c:f5:e1:5c:1b:4f:6a:a6:
                    af:64:ea:57:56:f1:89:e2:12:4c:eb:c4:4f:e2:e3:
                    0a:3c:00:dd:33:55:3e:3f:da:78:c5:22:c3:ce:5a:
                    74:da:45:49:b0:48:4d:6c:7d:0b:dc:84:20:e7:0b:
                    fb:5e:9e:a8:c4:76:84:a1:37:85:3d:54:d9:04:1b:
                    43:93:a5:2d:5c:9a:23:db:29:68:97:55:fa:5f:04:
                    e6:0d:05:6a:00:2b:62:7f:83:8e:b2:ff:62:ca:01:
                    ee:66:0a:5e:0a:e7:2d:19:6f:09:72:84:a6:0b:2d:
                    82:4d:07:5e:8b:25:98:b1:8a:57:85:85:33:b3:91:
                    ea:03:45:c6:bf:80:8b:7b:21:cd:5a:db:f9:40:26:
                    02:b1:7f:a6:3d:ee:98:2f:c7:9f:69:f2:22:07:72:
                    1f:d9:42:e5:40:c1:de:84:98:34:a7:d5:2a:c5:93:
                    3e:d8:b3:f4:76:3d:c6:1b:6a:1d:56:d0:8b:2f:32:
                    24:c8:12:c6:7a:6d:75:85:04:6c:0e:00:46:08:6d:
                    42:bb:d8:a0:7e:6d:e5:ef:e7:26:96:2f:aa:10:e9:
                    a9:c4:f0:1e:8e:f9:63:da:78:14:30:6b:3e:f6:01:
                    d9:1b:f7:4c:31:39:65:cf:4f:73:ba:82:0d:6d:a3:
                    fa:c5:2d:73:d7:5c:f0:c5:81:24:86:a0:66:cd:65:
                    ab:06:4c:86:0d:0c:56:d0:1f:cb:c9:21:0a:04:f4:
                    cf:c7:dd:47:d0:e2:ff:9a:a8:dd:1d:84:92:46:c1:
                    f6:96:53
                Exponent: 65537 (0x10001)
        X509v3 extensions:
            X509v3 Basic Constraints: 
                CA:FALSE
            Netscape Comment: 
                Easy-RSA Generated Certificate
            X509v3 Subject Key Identifier: 
                E3:EF:9B:2D:FF:40:43:3E:B5:04:1F:49:2D:EF:78:0D:0A:84:DD:9D
            X509v3 Authority Key Identifier: 
                keyid:12:CD:60:04:D2:A0:80:9E:70:ED:C6:99:B8:7B:2C:C6:52:FD:19:A1
                DirName:/C=US/ST=OH/L=Columbus/O=VikingVPN/OU=MyOrganizationalUnit/CN=VikingVPN CA/name=EasyRSA/emailAddress=me@myhost.mydomain
                serial:CF:35:85:EE:80:BF:2A:3E

            X509v3 Extended Key Usage: 
                TLS Web Client Authentication
            X509v3 Key Usage: 
                Digital Signature
    Signature Algorithm: md5WithRSAEncryption
         e7:cb:05:97:5f:51:c3:5c:cc:d5:73:ae:1a:87:16:9d:b3:75:
         ff:0d:10:57:ae:25:a7:20:d2:d3:da:ad:ec:1d:07:f6:04:61:
         f3:17:87:bc:7b:bd:6d:b6:51:00:68:d1:a3:78:30:59:8d:8d:
         83:c0:55:23:de:37:c1:0f:8f:34:d2:6b:31:e6:27:75:8b:fc:
         df:06:c6:1f:c7:14:54:3b:a4:c0:79:48:43:98:a9:fd:2e:8c:
         ad:40:ac:b8:ca:35:38:eb:99:1c:fc:c9:89:d5:d6:54:41:b2:
         42:db:4e:70:22:8a:f8:f6:bf:dd:8b:f5:0f:98:d2:d9:a1:c6:
         c3:d9:50:26:9c:2a:d3:9b:a6:01:d9:40:e5:41:85:e8:53:b3:
         c9:78:d4:9f:7d:e4:31:c7:53:d8:c4:34:bc:2a:d5:48:19:41:
         87:d7:58:00:c3:73:43:88:15:ab:d7:5f:83:a8:9a:0a:c8:b6:
         79:09:d8:81:16:fa:e5:14:df:b5:97:9c:75:8f:b1:5f:08:50:
         f3:7c:e7:93:5b:ce:88:46:70:21:56:3e:c5:f6:7f:1b:0a:ac:
         6c:7c:20:b7:01:cb:64:34:08:cf:bb:57:68:1f:be:58:44:c7:
         67:05:18:11:28:93:82:93:88:22:94:91:1a:2e:9a:c9:10:d5:
         5d:93:64:25:eb:79:4a:9e:36:6e:02:d6:58:f5:f1:0a:de:8d:
         c4:d1:f3:fa:29:c8:d8:1a:30:73:a7:e7:5b:b7:2d:a1:53:f8:
         83:75:4f:29:51:db:74:b0:35:eb:fa:63:05:5c:eb:c5:f0:64:
         bd:13:96:07:16:b4:2d:ac:f2:8e:aa:1d:ad:24:79:89:61:98:
         f7:d4:07:9c:db:a7:41:a7:1a:15:b0:89:f1:d5:40:4c:cc:9d:
         62:ba:9b:af:99:84:8a:8c:a3:f1:2e:74:46:62:51:df:04:2a:
         f6:82:6d:af:91:8e:14:22:c3:aa:64:8a:06:1a:49:48:52:8b:
         5d:a7:84:c5:83:a9:a7:88:58:e1:92:49:d2:b0:ec:df:db:25:
         04:3e:a2:be:eb:c3:01:12:37:17:68:59:d1:f6:31:bb:d8:10:
         25:29:8a:54:cb:83:45:35:d4:c5:1d:4f:fc:71:77:7e:e9:50:
         34:51:91:57:8e:53:e9:c2:e9:e8:c7:1c:45:86:96:a0:7b:c8:
         ed:57:04:3d:e1:1a:09:c7:8d:f1:9a:af:0c:3c:1b:80:53:e1:
         67:b4:7c:00:a9:86:87:f1:4d:0c:9e:44:59:aa:a5:e2:5a:12:
         9c:67:09:63:e5:d8:5e:fd:62:14:ff:9c:d3:08:4d:1d:5c:60:
         37:fc:6c:d6:f4:05:13:64
-----BEGIN CERTIFICATE-----
MIIGqjCCBJKgAwIBAgIBZTANBgkqhkiG9w0BAQQFADCBrDELMAkGA1UEBhMCVVMx
CzAJBgNVBAgTAk9IMREwDwYDVQQHEwhDb2x1bWJ1czESMBAGA1UEChMJVmlraW5n
VlBOMR0wGwYDVQQLExRNeU9yZ2FuaXphdGlvbmFsVW5pdDEVMBMGA1UEAxMMVmlr
aW5nVlBOIENBMRAwDgYDVQQpEwdFYXN5UlNBMSEwHwYJKoZIhvcNAQkBFhJtZUBt
eWhvc3QubXlkb21haW4wHhcNMTMwOTAxMTYxODAwWhcNMjMwODMwMTYxODAwWjAd
MRswGQYDVQQDExJDbGllbnQ3MENlcnRkYjIwZjQwggIiMA0GCSqGSIb3DQEBAQUA
A4ICDwAwggIKAoICAQDapVEb6cz/D9pBca1No8UeGsQRdnlyzjSIU5raYCYaAajb
X92CwUqMAhrLlmecpvPJqIFrpr6J5WNgyb29Fr9WzKB2S0OaHFMBy/d1OtpPFHUZ
WsR4sCWUmPuRFkkm38ZMcgq0fPUmyhE1QnsKVgnTuGHRVd88qochB3Jt7ebW8ws/
I/Fu1RbRGsxuOoqmy7/xov0rI2/eFvtNZjypzgbrkrx+Av0mBEt+OYj6y2k94NY7
34xDSSLCRqcapqsqxYgSpyNgO+CIZ6rVQCt5Xk02hwd81d3yFqVs9eFcG09qpq9k
6ldW8YniEkzrxE/i4wo8AN0zVT4/2njFIsPOWnTaRUmwSE1sfQvchCDnC/tenqjE
doShN4U9VNkEG0OTpS1cmiPbKWiXVfpfBOYNBWoAK2J/g46y/2LKAe5mCl4K5y0Z
bwlyhKYLLYJNB16LJZixileFhTOzkeoDRca/gIt7Ic1a2/lAJgKxf6Y97pgvx59p
8iIHch/ZQuVAwd6EmDSn1SrFkz7Ys/R2PcYbah1W0IsvMiTIEsZ6bXWFBGwOAEYI
bUK72KB+beXv5yaWL6oQ6anE8B6O+WPaeBQwaz72Adkb90wxOWXPT3O6gg1to/rF
LXPXXPDFgSSGoGbNZasGTIYNDFbQH8vJIQoE9M/H3UfQ4v+aqN0dhJJGwfaWUwID
AQABo4IBYzCCAV8wCQYDVR0TBAIwADAtBglghkgBhvhCAQ0EIBYeRWFzeS1SU0Eg
R2VuZXJhdGVkIENlcnRpZmljYXRlMB0GA1UdDgQWBBTj75st/0BDPrUEH0kt73gN
CoTdnTCB4QYDVR0jBIHZMIHWgBQSzWAE0qCAnnDtxpm4eyzGUv0ZoaGBsqSBrzCB
rDELMAkGA1UEBhMCVVMxCzAJBgNVBAgTAk9IMREwDwYDVQQHEwhDb2x1bWJ1czES
MBAGA1UEChMJVmlraW5nVlBOMR0wGwYDVQQLExRNeU9yZ2FuaXphdGlvbmFsVW5p
dDEVMBMGA1UEAxMMVmlraW5nVlBOIENBMRAwDgYDVQQpEwdFYXN5UlNBMSEwHwYJ
KoZIhvcNAQkBFhJtZUBteWhvc3QubXlkb21haW6CCQDPNYXugL8qPjATBgNVHSUE
DDAKBggrBgEFBQcDAjALBgNVHQ8EBAMCB4AwDQYJKoZIhvcNAQEEBQADggIBAOfL
BZdfUcNczNVzrhqHFp2zdf8NEFeuJacg0tParewdB/YEYfMXh7x7vW22UQBo0aN4
MFmNjYPAVSPeN8EPjzTSazHmJ3WL/N8Gxh/HFFQ7pMB5SEOYqf0ujK1ArLjKNTjr
mRz8yYnV1lRBskLbTnAiivj2v92L9Q+Y0tmhxsPZUCacKtObpgHZQOVBhehTs8l4
1J995DHHU9jENLwq1UgZQYfXWADDc0OIFavXX4OomgrItnkJ2IEW+uUU37WXnHWP
sV8IUPN855NbzohGcCFWPsX2fxsKrGx8ILcBy2Q0CM+7V2gfvlhEx2cFGBEok4KT
iCKUkRoumskQ1V2TZCXreUqeNm4C1lj18QrejcTR8/opyNgaMHOn51u3LaFT+IN1
TylR23SwNev6YwVc68XwZL0TlgcWtC2s8o6qHa0keYlhmPfUB5zbp0GnGhWwifHV
QEzMnWK6m6+ZhIqMo/EudEZiUd8EKvaCba+RjhQiw6pkigYaSUhSi12nhMWDqaeI
WOGSSdKw7N/bJQQ+or7rwwESNxdoWdH2MbvYECUpilTLg0U11MUdT/xxd37pUDRR
kVeOU+nC6ejHHEWGlqB7yO1XBD3hGgnHjfGarww8G4BT4We0fACphofxTQyeRFmq
peJaEpxnCWPl2F79YhT/nNMITR1cYDf8bNb0BRNk
-----END CERTIFICATE-----
