Certificate:
    Data:
        Version: 3 (0x2)
        Serial Number: 8918 (0x22d6)
    Signature Algorithm: sha256WithRSAEncryption
        Issuer: C=US, ST=OH, L=Columbus, O=VikingVPN, OU=MyOrganizationalUnit, CN=VikingVPN CA/name=EasyRSA/emailAddress=me@myhost.mydomain
        Validity
            Not Before: Aug 28 09:01:14 2016 GMT
            Not After : Aug 26 09:01:14 2026 GMT
        Subject: CN=Client2488Cert5c3eda
        Subject Public Key Info:
            Public Key Algorithm: rsaEncryption
                Public-Key: (4096 bit)
                Modulus:
                    00:de:67:00:e1:42:4d:3a:4a:8c:76:de:3b:e1:b3:
                    27:5c:bb:b5:ba:0b:64:54:b5:91:0b:77:a0:64:ef:
                    9b:8a:0d:bb:07:01:e5:0a:bf:70:d9:1d:de:73:7c:
                    f0:35:67:fb:b7:a3:df:83:d5:52:19:3b:ed:ec:02:
                    8d:25:65:41:e5:e1:3d:51:e1:07:59:86:43:90:5f:
                    1a:55:56:b3:89:09:60:2b:3a:b4:2a:f6:bc:94:df:
                    ad:c3:20:6f:be:0c:ea:83:0f:a1:db:81:c0:07:43:
                    e4:f4:00:a2:b2:43:b3:97:79:b8:e2:65:cd:3e:a7:
                    13:93:a7:e8:b3:fc:96:7b:63:3a:f9:38:a1:60:24:
                    a8:80:20:e9:ec:23:c1:c7:55:f0:90:a4:ea:ee:ba:
                    cd:0f:c7:dc:d6:29:70:bd:ad:fb:98:25:87:9d:c9:
                    bd:aa:c3:de:d3:43:d8:75:ea:f7:9c:c2:fa:33:27:
                    08:3f:96:a6:ec:08:34:8a:36:18:e2:09:84:9a:79:
                    c9:78:8f:80:55:58:08:11:40:e5:f7:09:df:5a:62:
                    44:3d:77:ce:b8:fe:e1:78:08:30:d8:27:12:0f:be:
                    1d:5a:d1:7b:ae:fd:1a:82:0a:db:21:18:7d:eb:95:
                    f4:ac:9a:0a:d9:6f:55:05:25:78:69:fa:32:47:ab:
                    cb:99:56:ba:7d:b4:b4:49:69:ed:a8:ad:73:35:e9:
                    50:0b:bf:23:58:c4:9a:f6:d0:e2:a3:26:8b:fe:e7:
                    3d:19:09:20:5d:20:e0:a7:c9:5d:d4:ca:42:0a:1c:
                    33:09:e4:7b:7f:1a:57:41:7a:3f:12:73:7a:77:91:
                    af:e7:f7:a5:29:0b:7e:31:41:82:4b:70:e5:94:62:
                    21:df:a4:09:2f:71:ba:b2:31:b7:1a:77:94:d3:f5:
                    fd:d9:79:c6:6e:f7:4e:af:96:c9:40:e7:c6:77:ce:
                    3f:a2:50:e7:c2:23:1d:84:f2:b8:83:f7:85:a1:b1:
                    4e:4b:f9:56:c7:eb:c8:92:07:4b:1f:c3:2a:9c:e5:
                    f9:0e:3f:c7:1e:5f:fb:b0:6e:88:47:96:81:51:00:
                    c8:bf:66:fd:48:be:66:0c:48:9d:cb:02:6b:94:47:
                    1d:4d:56:3a:b8:24:83:41:cb:a3:ed:e4:79:9d:8a:
                    1c:19:13:93:72:3d:a2:27:f5:2c:9c:4b:61:9e:32:
                    e2:15:db:75:7e:2a:7a:32:9d:2d:07:04:4d:06:a4:
                    e6:7a:08:35:8c:88:af:63:9c:83:2f:6d:cf:78:60:
                    bd:c4:0c:5d:48:04:11:e8:74:85:fb:fc:e1:cc:da:
                    ef:da:7e:04:eb:29:10:c5:f0:15:04:27:18:4f:7b:
                    c4:71:17
                Exponent: 65537 (0x10001)
        X509v3 extensions:
            X509v3 Basic Constraints: 
                CA:FALSE
            Netscape Comment: 
                Easy-RSA Generated Certificate
            X509v3 Subject Key Identifier: 
                0D:EB:0E:D7:6E:0F:91:C1:61:53:BF:30:C7:27:BC:76:8F:ED:EE:11
            X509v3 Authority Key Identifier: 
                keyid:12:CD:60:04:D2:A0:80:9E:70:ED:C6:99:B8:7B:2C:C6:52:FD:19:A1
                DirName:/C=US/ST=OH/L=Columbus/O=VikingVPN/OU=MyOrganizationalUnit/CN=VikingVPN CA/name=EasyRSA/emailAddress=me@myhost.mydomain
                serial:CF:35:85:EE:80:BF:2A:3E

            X509v3 Extended Key Usage: 
                TLS Web Client Authentication
            X509v3 Key Usage: 
                Digital Signature
    Signature Algorithm: sha256WithRSAEncryption
         86:fe:4b:b9:0c:9a:29:fb:64:d2:fc:62:c0:4c:28:ec:cf:37:
         9f:e2:5d:8e:cc:b0:58:1a:13:c0:d5:96:57:2d:63:71:d8:44:
         8c:1b:06:6f:23:e6:28:c2:90:4b:e0:64:8a:9a:6d:c3:17:6a:
         cd:70:c0:04:b3:d4:08:4a:0c:5f:ff:f0:4e:7d:de:f0:9b:c6:
         7e:2b:bc:5f:95:9e:81:ff:26:22:5c:6b:3c:a2:a4:66:5b:38:
         e5:8b:bd:1a:ce:eb:a1:48:e2:57:9e:da:8e:82:98:4f:3a:31:
         de:50:48:45:35:8f:7d:a2:e2:9c:c6:e6:5c:82:34:be:41:bd:
         5e:20:ec:b6:48:a7:4a:41:fa:c2:5b:60:d3:b0:92:5d:c7:8b:
         dd:3e:1e:83:0f:f5:31:8a:9c:05:a6:c9:c4:aa:92:86:dc:55:
         06:85:a9:16:94:7a:6c:24:3c:7f:57:79:28:91:61:cf:e7:a2:
         31:61:6c:14:f6:9a:dd:c8:6e:be:28:d1:f5:ff:a9:e2:81:f7:
         fe:a7:e6:2c:a9:83:a1:e3:af:fa:63:fd:bd:fa:7c:17:02:5b:
         42:ad:8a:33:b1:0c:e1:a5:d1:86:92:1b:c8:b2:07:84:2a:7d:
         6e:c0:c0:cb:4d:99:ac:8a:d3:fd:07:a9:6e:aa:54:c9:63:31:
         85:af:53:74:c9:64:53:5e:93:cd:d0:36:2e:9f:de:19:3d:49:
         a7:f4:d9:6c:0c:dc:04:8b:04:84:cb:bd:b2:a4:15:f2:60:54:
         2c:09:76:26:e7:b2:b5:0c:27:82:a2:8b:4c:ce:19:d8:9a:d4:
         e1:e8:0a:a1:ba:ec:d2:23:7a:f2:b9:18:a0:9d:05:eb:14:59:
         73:03:a5:35:f6:03:44:c8:18:9f:ff:92:27:38:0d:c5:5e:b4:
         69:39:f7:84:c9:17:17:e9:74:db:79:c1:8d:72:f6:39:2b:8a:
         90:a2:21:fa:a2:27:56:bb:11:a7:05:a7:16:26:bd:69:49:87:
         42:69:f1:d8:a9:19:2a:78:10:81:25:91:e3:a2:ad:35:18:8a:
         65:e9:66:5d:b0:83:80:1a:f1:29:56:5c:7a:a8:8a:c7:8a:2d:
         2b:3b:4b:b8:f3:93:05:a2:de:72:44:dd:c6:dc:ff:b2:dd:57:
         0c:da:64:e3:11:07:b2:e3:1e:7e:46:40:ad:0e:e8:03:49:3e:
         64:5e:56:51:0c:30:67:98:e2:d5:3a:36:47:e9:f3:66:e1:32:
         fd:b2:80:b4:25:63:ca:63:03:a1:65:c0:10:38:b2:85:d6:f0:
         b1:90:39:9c:fe:c3:12:fe:9f:e4:a9:64:10:3e:6f:7f:93:cd:
         36:1f:b8:f7:3c:ec:03:5e
-----BEGIN CERTIFICATE-----
MIIGrTCCBJWgAwIBAgICItYwDQYJKoZIhvcNAQELBQAwgawxCzAJBgNVBAYTAlVT
MQswCQYDVQQIEwJPSDERMA8GA1UEBxMIQ29sdW1idXMxEjAQBgNVBAoTCVZpa2lu
Z1ZQTjEdMBsGA1UECxMUTXlPcmdhbml6YXRpb25hbFVuaXQxFTATBgNVBAMTDFZp
a2luZ1ZQTiBDQTEQMA4GA1UEKRMHRWFzeVJTQTEhMB8GCSqGSIb3DQEJARYSbWVA
bXlob3N0Lm15ZG9tYWluMB4XDTE2MDgyODA5MDExNFoXDTI2MDgyNjA5MDExNFow
HzEdMBsGA1UEAxMUQ2xpZW50MjQ4OENlcnQ1YzNlZGEwggIiMA0GCSqGSIb3DQEB
AQUAA4ICDwAwggIKAoICAQDeZwDhQk06Sox23jvhsydcu7W6C2RUtZELd6Bk75uK
DbsHAeUKv3DZHd5zfPA1Z/u3o9+D1VIZO+3sAo0lZUHl4T1R4QdZhkOQXxpVVrOJ
CWArOrQq9ryU363DIG++DOqDD6HbgcAHQ+T0AKKyQ7OXebjiZc0+pxOTp+iz/JZ7
Yzr5OKFgJKiAIOnsI8HHVfCQpOruus0Px9zWKXC9rfuYJYedyb2qw97TQ9h16vec
wvozJwg/lqbsCDSKNhjiCYSaecl4j4BVWAgRQOX3Cd9aYkQ9d864/uF4CDDYJxIP
vh1a0Xuu/RqCCtshGH3rlfSsmgrZb1UFJXhp+jJHq8uZVrp9tLRJae2orXM16VAL
vyNYxJr20OKjJov+5z0ZCSBdIOCnyV3UykIKHDMJ5Ht/GldBej8Sc3p3ka/n96Up
C34xQYJLcOWUYiHfpAkvcbqyMbcad5TT9f3ZecZu906vlslA58Z3zj+iUOfCIx2E
8riD94WhsU5L+VbH68iSB0sfwyqc5fkOP8ceX/uwbohHloFRAMi/Zv1IvmYMSJ3L
AmuURx1NVjq4JINBy6Pt5HmdihwZE5NyPaIn9SycS2GeMuIV23V+KnoynS0HBE0G
pOZ6CDWMiK9jnIMvbc94YL3EDF1IBBHodIX7/OHM2u/afgTrKRDF8BUEJxhPe8Rx
FwIDAQABo4IBYzCCAV8wCQYDVR0TBAIwADAtBglghkgBhvhCAQ0EIBYeRWFzeS1S
U0EgR2VuZXJhdGVkIENlcnRpZmljYXRlMB0GA1UdDgQWBBQN6w7Xbg+RwWFTvzDH
J7x2j+3uETCB4QYDVR0jBIHZMIHWgBQSzWAE0qCAnnDtxpm4eyzGUv0ZoaGBsqSB
rzCBrDELMAkGA1UEBhMCVVMxCzAJBgNVBAgTAk9IMREwDwYDVQQHEwhDb2x1bWJ1
czESMBAGA1UEChMJVmlraW5nVlBOMR0wGwYDVQQLExRNeU9yZ2FuaXphdGlvbmFs
VW5pdDEVMBMGA1UEAxMMVmlraW5nVlBOIENBMRAwDgYDVQQpEwdFYXN5UlNBMSEw
HwYJKoZIhvcNAQkBFhJtZUBteWhvc3QubXlkb21haW6CCQDPNYXugL8qPjATBgNV
HSUEDDAKBggrBgEFBQcDAjALBgNVHQ8EBAMCB4AwDQYJKoZIhvcNAQELBQADggIB
AIb+S7kMmin7ZNL8YsBMKOzPN5/iXY7MsFgaE8DVllctY3HYRIwbBm8j5ijCkEvg
ZIqabcMXas1wwASz1AhKDF//8E593vCbxn4rvF+VnoH/JiJcazyipGZbOOWLvRrO
66FI4lee2o6CmE86Md5QSEU1j32i4pzG5lyCNL5BvV4g7LZIp0pB+sJbYNOwkl3H
i90+HoMP9TGKnAWmycSqkobcVQaFqRaUemwkPH9XeSiRYc/nojFhbBT2mt3Ibr4o
0fX/qeKB9/6n5iypg6Hjr/pj/b36fBcCW0KtijOxDOGl0YaSG8iyB4QqfW7AwMtN
mayK0/0HqW6qVMljMYWvU3TJZFNek83QNi6f3hk9Saf02WwM3ASLBITLvbKkFfJg
VCwJdibnsrUMJ4Kii0zOGdia1OHoCqG67NIjevK5GKCdBesUWXMDpTX2A0TIGJ//
kic4DcVetGk594TJFxfpdNt5wY1y9jkripCiIfqiJ1a7EacFpxYmvWlJh0Jp8dip
GSp4EIElkeOirTUYimXpZl2wg4Aa8SlWXHqoiseKLSs7S7jzkwWi3nJE3cbc/7Ld
VwzaZOMRB7LjHn5GQK0O6ANJPmReVlEMMGeY4tU6Nkfp82bhMv2ygLQlY8pjA6Fl
wBA4soXW8LGQOZz+wxL+n+SpZBA+b3+TzTYfuPc87ANe
-----END CERTIFICATE-----
