Certificate:
    Data:
        Version: 3 (0x2)
        Serial Number: 5970 (0x1752)
    Signature Algorithm: md5WithRSAEncryption
        Issuer: C=US, ST=OH, L=Columbus, O=VikingVPN, OU=MyOrganizationalUnit, CN=VikingVPN CA/name=EasyRSA/emailAddress=me@myhost.mydomain
        Validity
            Not Before: Aug  4 01:16:52 2015 GMT
            Not After : Aug  1 01:16:52 2025 GMT
        Subject: CN=Client1879Cert270215
        Subject Public Key Info:
            Public Key Algorithm: rsaEncryption
                Public-Key: (4096 bit)
                Modulus:
                    00:de:86:66:4e:a8:e4:3e:a6:51:94:8a:8d:f4:5f:
                    75:87:6b:6f:45:42:37:a2:7a:d5:47:00:68:5d:0a:
                    a9:3a:b3:65:b0:9c:bd:de:ee:e4:3e:83:9c:3c:81:
                    dc:23:1e:20:96:af:a4:8f:5a:21:7a:4a:d4:05:76:
                    5c:d3:6d:b1:4f:81:99:d9:d5:a6:9a:b9:43:1f:37:
                    75:f8:38:9f:e8:ce:4d:4b:29:6c:a0:20:0e:09:60:
                    cc:0a:fd:4d:b6:4b:21:63:94:91:ca:f5:29:18:90:
                    9f:93:6c:34:b3:78:a3:7f:5e:1b:14:2f:69:02:90:
                    1d:91:47:40:ad:6e:ee:cc:a2:e9:14:12:d4:35:32:
                    5d:5b:06:25:3d:30:29:9b:39:bb:69:b6:22:d0:61:
                    df:23:79:4e:06:6d:53:00:3c:53:76:4a:38:e0:c6:
                    16:ec:43:7d:41:bd:82:d1:1a:e7:29:1d:94:0f:95:
                    6f:59:dd:e4:41:45:3e:bd:8c:4b:56:92:a2:71:6b:
                    10:6c:b7:29:78:e0:25:7b:7b:17:2a:ec:3e:8c:f1:
                    bb:46:3a:94:e2:d0:2d:d1:db:40:5d:f2:8c:04:15:
                    f9:bf:e3:81:0d:8d:2e:d6:85:8d:ba:a4:34:22:71:
                    62:8e:c0:d1:a4:0e:8f:61:a4:e0:8e:0e:8a:c3:a8:
                    c2:da:8e:0d:03:e7:be:92:8a:4d:73:b5:a6:bc:82:
                    b1:e4:2d:51:56:bc:50:51:09:25:d2:66:61:af:91:
                    4a:4d:3d:1a:6a:c0:f9:9d:0c:5c:37:37:2a:c0:1c:
                    14:87:ee:12:5e:e1:88:64:b0:54:0c:c7:b9:bc:19:
                    1a:e5:83:d2:1d:bc:7c:c1:96:e2:a7:c4:76:ff:c7:
                    73:73:04:f4:a2:2a:15:fc:7f:53:48:0b:c6:db:d9:
                    09:f2:16:0b:d1:0e:77:3e:fd:f1:62:64:7a:ff:24:
                    6b:b1:40:a6:4a:4c:85:1b:57:99:7d:71:a9:0e:e3:
                    58:5a:db:db:2d:2e:6e:92:bd:88:c8:6e:07:9f:21:
                    ea:52:db:a5:03:e6:2b:aa:4c:56:04:01:f5:a6:a2:
                    a8:46:99:49:20:3e:43:d4:a9:85:64:f2:1d:b6:5b:
                    3d:db:0d:f0:38:1e:25:e1:57:8a:5a:5f:95:11:9f:
                    ea:ef:5f:f4:a3:1a:56:d6:c5:87:e6:36:02:57:24:
                    84:6a:69:3c:fb:56:68:65:ab:8a:a0:c1:73:c7:6d:
                    4a:92:c9:41:4d:11:bc:ff:24:9a:c9:0b:75:bb:be:
                    7e:96:7d:10:d5:a4:79:a4:bc:ea:7d:09:4a:34:e6:
                    17:40:28:84:8d:33:a5:31:ad:51:57:e8:dc:d8:b6:
                    d7:d4:37
                Exponent: 65537 (0x10001)
        X509v3 extensions:
            X509v3 Basic Constraints: 
                CA:FALSE
            Netscape Comment: 
                Easy-RSA Generated Certificate
            X509v3 Subject Key Identifier: 
                DB:A1:A5:9E:B9:63:D9:54:A1:D5:6B:0E:60:B1:23:CC:A4:24:60:88
            X509v3 Authority Key Identifier: 
                keyid:12:CD:60:04:D2:A0:80:9E:70:ED:C6:99:B8:7B:2C:C6:52:FD:19:A1
                DirName:/C=US/ST=OH/L=Columbus/O=VikingVPN/OU=MyOrganizationalUnit/CN=VikingVPN CA/name=EasyRSA/emailAddress=me@myhost.mydomain
                serial:CF:35:85:EE:80:BF:2A:3E

            X509v3 Extended Key Usage: 
                TLS Web Client Authentication
            X509v3 Key Usage: 
                Digital Signature
    Signature Algorithm: md5WithRSAEncryption
         b0:70:77:9c:a4:0a:b7:4e:bb:44:fe:1f:06:15:45:a8:c5:8d:
         36:f7:a1:e1:18:7c:2f:42:13:0b:25:2e:af:d7:eb:be:24:c5:
         5a:8e:c1:40:cc:73:a6:90:c7:57:6a:fa:39:57:1b:c3:70:d3:
         36:2b:0a:1d:94:c9:dd:08:3d:c1:ea:db:4d:83:2f:a6:77:c7:
         75:7a:ee:71:94:78:10:57:7d:1b:77:bf:83:17:52:5b:04:6a:
         de:ed:6a:39:45:79:e8:3d:cc:b9:e9:85:b8:3c:73:14:ff:22:
         fa:b1:3c:b8:bd:36:e6:18:b9:f7:df:4e:5d:86:1a:1e:8b:94:
         68:99:d5:95:a0:31:b1:49:da:bf:1b:4a:e6:1d:3c:68:c3:07:
         5e:b0:3e:58:f5:9f:f7:cd:83:f8:1c:50:74:9d:50:f4:4b:8b:
         84:1f:85:ba:ae:82:21:a4:a6:93:a3:a1:f8:ff:35:2d:11:ed:
         45:32:17:64:1b:1c:2a:1d:d1:6a:c6:71:60:ba:9b:4b:d2:b6:
         05:be:1c:d6:60:4e:1c:c7:b3:51:0f:3b:ec:ad:3a:9e:3d:39:
         c9:df:c4:bf:02:8b:ca:6a:c2:76:bf:97:0b:0e:13:5f:a2:7f:
         07:9c:04:75:6d:dd:ec:72:98:3a:3a:22:c5:67:e0:27:a1:a5:
         fa:60:de:22:31:5e:d3:a4:b7:ec:9c:4f:97:88:ad:5c:8f:b4:
         45:a7:2f:88:81:49:c0:4d:58:5d:a0:b7:1c:81:b2:65:0b:ce:
         ea:e8:9b:57:7e:35:d3:a3:c5:b6:f2:d0:11:58:c3:8c:2a:b1:
         14:66:37:f1:97:dd:52:a1:3e:62:17:59:af:e3:5a:7d:6b:17:
         bb:85:32:f6:c4:ae:7b:3d:f2:6e:55:46:2e:9a:44:30:b4:50:
         a3:36:64:74:0c:57:74:62:51:3e:70:13:77:49:79:e8:d7:88:
         2b:71:0b:bf:e7:44:49:cf:1a:98:7b:c6:81:92:fc:55:a6:75:
         d4:30:f2:bf:9b:ed:ca:68:13:38:ad:8f:ac:73:3f:55:fc:6b:
         49:5e:0d:8e:d5:2e:36:3a:09:05:5b:dd:93:f8:38:e2:2e:bb:
         a1:a0:26:f9:f6:63:50:80:72:e4:b4:40:22:c6:8c:a6:15:3c:
         b0:c4:eb:21:17:cc:53:28:c2:24:45:35:c5:16:3d:77:88:a4:
         d0:80:92:3d:af:38:43:5d:fb:e1:69:ab:ab:df:2d:12:d1:5d:
         0e:37:cb:eb:f9:59:73:c1:64:d3:b4:de:61:67:01:41:09:63:
         9e:3e:99:10:9d:16:69:3e:d5:78:a7:08:dd:20:fc:69:96:82:
         e7:ac:8b:b1:47:dd:42:40
-----BEGIN CERTIFICATE-----
MIIGrTCCBJWgAwIBAgICF1IwDQYJKoZIhvcNAQEEBQAwgawxCzAJBgNVBAYTAlVT
MQswCQYDVQQIEwJPSDERMA8GA1UEBxMIQ29sdW1idXMxEjAQBgNVBAoTCVZpa2lu
Z1ZQTjEdMBsGA1UECxMUTXlPcmdhbml6YXRpb25hbFVuaXQxFTATBgNVBAMTDFZp
a2luZ1ZQTiBDQTEQMA4GA1UEKRMHRWFzeVJTQTEhMB8GCSqGSIb3DQEJARYSbWVA
bXlob3N0Lm15ZG9tYWluMB4XDTE1MDgwNDAxMTY1MloXDTI1MDgwMTAxMTY1Mlow
HzEdMBsGA1UEAxMUQ2xpZW50MTg3OUNlcnQyNzAyMTUwggIiMA0GCSqGSIb3DQEB
AQUAA4ICDwAwggIKAoICAQDehmZOqOQ+plGUio30X3WHa29FQjeietVHAGhdCqk6
s2WwnL3e7uQ+g5w8gdwjHiCWr6SPWiF6StQFdlzTbbFPgZnZ1aaauUMfN3X4OJ/o
zk1LKWygIA4JYMwK/U22SyFjlJHK9SkYkJ+TbDSzeKN/XhsUL2kCkB2RR0Ctbu7M
oukUEtQ1Ml1bBiU9MCmbObtptiLQYd8jeU4GbVMAPFN2SjjgxhbsQ31BvYLRGucp
HZQPlW9Z3eRBRT69jEtWkqJxaxBstyl44CV7excq7D6M8btGOpTi0C3R20Bd8owE
Ffm/44ENjS7WhY26pDQicWKOwNGkDo9hpOCODorDqMLajg0D576Sik1ztaa8grHk
LVFWvFBRCSXSZmGvkUpNPRpqwPmdDFw3NyrAHBSH7hJe4YhksFQMx7m8GRrlg9Id
vHzBluKnxHb/x3NzBPSiKhX8f1NIC8bb2QnyFgvRDnc+/fFiZHr/JGuxQKZKTIUb
V5l9cakO41ha29stLm6SvYjIbgefIepS26UD5iuqTFYEAfWmoqhGmUkgPkPUqYVk
8h22Wz3bDfA4HiXhV4paX5URn+rvX/SjGlbWxYfmNgJXJIRqaTz7Vmhlq4qgwXPH
bUqSyUFNEbz/JJrJC3W7vn6WfRDVpHmkvOp9CUo05hdAKISNM6UxrVFX6NzYttfU
NwIDAQABo4IBYzCCAV8wCQYDVR0TBAIwADAtBglghkgBhvhCAQ0EIBYeRWFzeS1S
U0EgR2VuZXJhdGVkIENlcnRpZmljYXRlMB0GA1UdDgQWBBTboaWeuWPZVKHVaw5g
sSPMpCRgiDCB4QYDVR0jBIHZMIHWgBQSzWAE0qCAnnDtxpm4eyzGUv0ZoaGBsqSB
rzCBrDELMAkGA1UEBhMCVVMxCzAJBgNVBAgTAk9IMREwDwYDVQQHEwhDb2x1bWJ1
czESMBAGA1UEChMJVmlraW5nVlBOMR0wGwYDVQQLExRNeU9yZ2FuaXphdGlvbmFs
VW5pdDEVMBMGA1UEAxMMVmlraW5nVlBOIENBMRAwDgYDVQQpEwdFYXN5UlNBMSEw
HwYJKoZIhvcNAQkBFhJtZUBteWhvc3QubXlkb21haW6CCQDPNYXugL8qPjATBgNV
HSUEDDAKBggrBgEFBQcDAjALBgNVHQ8EBAMCB4AwDQYJKoZIhvcNAQEEBQADggIB
ALBwd5ykCrdOu0T+HwYVRajFjTb3oeEYfC9CEwslLq/X674kxVqOwUDMc6aQx1dq
+jlXG8Nw0zYrCh2Uyd0IPcHq202DL6Z3x3V67nGUeBBXfRt3v4MXUlsEat7tajlF
eeg9zLnphbg8cxT/IvqxPLi9NuYYufffTl2GGh6LlGiZ1ZWgMbFJ2r8bSuYdPGjD
B16wPlj1n/fNg/gcUHSdUPRLi4QfhbqugiGkppOjofj/NS0R7UUyF2QbHCod0WrG
cWC6m0vStgW+HNZgThzHs1EPO+ytOp49OcnfxL8Ci8pqwna/lwsOE1+ifwecBHVt
3exymDo6IsVn4Cehpfpg3iIxXtOkt+ycT5eIrVyPtEWnL4iBScBNWF2gtxyBsmUL
zurom1d+NdOjxbby0BFYw4wqsRRmN/GX3VKhPmIXWa/jWn1rF7uFMvbErns98m5V
Ri6aRDC0UKM2ZHQMV3RiUT5wE3dJeejXiCtxC7/nREnPGph7xoGS/FWmddQw8r+b
7cpoEzitj6xzP1X8a0leDY7VLjY6CQVb3ZP4OOIuu6GgJvn2Y1CAcuS0QCLGjKYV
PLDE6yEXzFMowiRFNcUWPXeIpNCAkj2vOENd++Fpq6vfLRLRXQ43y+v5WXPBZNO0
3mFnAUEJY54+mRCdFmk+1XinCN0g/GmWguesi7FH3UJA
-----END CERTIFICATE-----
