Certificate:
    Data:
        Version: 3 (0x2)
        Serial Number: 11780 (0x2e04)
    Signature Algorithm: sha256WithRSAEncryption
        Issuer: C=US, ST=OH, L=Columbus, O=VikingVPN, OU=MyOrganizationalUnit, CN=VikingVPN CA/name=EasyRSA/emailAddress=me@myhost.mydomain
        Validity
            Not Before: Sep  4 13:27:06 2017 GMT
            Not After : Sep  2 13:27:06 2027 GMT
        Subject: CN=Client2570Cert178f53
        Subject Public Key Info:
            Public Key Algorithm: rsaEncryption
                Public-Key: (4096 bit)
                Modulus:
                    00:a7:3a:11:bb:69:8c:6c:cd:c2:96:5c:a7:ec:69:
                    29:e2:73:f0:7c:d8:0b:81:23:51:1b:ff:36:94:41:
                    cb:f4:b2:75:ed:83:26:27:70:a2:4b:ad:96:b9:a6:
                    b7:64:cf:05:19:53:3f:4b:20:04:0e:ea:4e:46:19:
                    46:5b:2f:26:af:84:5f:c7:1d:7a:3b:71:5a:d1:cb:
                    11:5b:ff:29:e7:fa:c5:44:0b:4e:91:df:15:7b:16:
                    a7:7a:6f:a8:55:5c:30:d8:5f:90:07:41:ac:fa:ee:
                    70:41:45:43:e4:e9:ba:09:b4:28:67:b9:6d:57:ef:
                    44:4f:9a:b4:02:41:28:15:68:34:71:72:74:ca:ce:
                    59:47:53:27:a1:17:bc:dc:f3:0d:7c:a4:f4:2f:97:
                    bb:f4:e1:fd:ca:73:5c:0b:dc:df:01:72:51:7a:81:
                    17:2e:7e:3b:fa:0a:9d:70:40:b3:d4:af:30:80:21:
                    68:04:d7:38:df:f4:f3:56:55:8c:48:be:80:94:80:
                    1c:2f:a2:54:14:58:fd:4b:e5:91:9b:2a:ec:cd:38:
                    cf:44:47:e5:f8:6c:68:f2:df:b4:b6:cc:0d:75:f2:
                    72:1c:1f:f7:ce:c8:a9:73:7c:8d:de:ad:05:77:d7:
                    f2:aa:40:2b:cb:3e:46:d3:91:21:08:b3:94:cb:f4:
                    f3:83:4c:1c:c6:52:65:fa:c2:34:99:e7:27:8a:8c:
                    94:cd:fa:fc:65:bb:d7:dc:2a:65:10:c8:27:1e:da:
                    8d:56:c1:77:59:d7:3e:0e:97:1a:bb:46:d4:5d:2b:
                    72:04:4c:1a:37:21:ce:c2:66:27:49:a4:63:f4:ad:
                    9b:18:b6:58:6b:40:d2:32:fe:02:4b:7f:0e:fc:d4:
                    96:c2:dd:4f:59:6d:06:ad:b0:c1:fb:cd:26:32:dc:
                    b4:6e:e4:9a:de:e6:9c:ac:5d:51:ff:ad:3d:24:f2:
                    86:a9:5b:a4:54:71:45:a5:b5:61:cc:18:ed:0c:5f:
                    84:ba:63:88:b3:67:27:91:0f:c3:54:09:04:f9:6a:
                    62:55:6d:8e:ae:9e:d3:b6:0e:af:99:b4:e9:64:c5:
                    f2:9d:67:98:f6:c0:86:f0:fe:a4:45:26:c0:90:a7:
                    18:a9:fe:02:86:9e:3c:fc:a3:73:7f:56:50:c8:ed:
                    7c:27:b9:72:d2:b8:d3:cd:bf:ac:8c:f4:7f:e3:b0:
                    94:f9:6c:43:b1:5f:ea:d5:8e:0a:ee:0f:c6:d4:b9:
                    38:2e:83:fa:c0:f4:74:d5:de:cb:ef:4b:ac:6c:c2:
                    c5:95:27:36:e6:1b:e1:a9:11:13:fb:ab:9c:8d:b4:
                    de:4c:e9:ca:c8:da:b7:96:af:d2:bc:da:26:90:5e:
                    95:26:d5
                Exponent: 65537 (0x10001)
        X509v3 extensions:
            X509v3 Basic Constraints: 
                CA:FALSE
            Netscape Comment: 
                Easy-RSA Generated Certificate
            X509v3 Subject Key Identifier: 
                05:D7:6B:BB:B6:32:16:84:F4:36:F3:4F:F1:1A:92:AD:A0:71:43:71
            X509v3 Authority Key Identifier: 
                keyid:12:CD:60:04:D2:A0:80:9E:70:ED:C6:99:B8:7B:2C:C6:52:FD:19:A1
                DirName:/C=US/ST=OH/L=Columbus/O=VikingVPN/OU=MyOrganizationalUnit/CN=VikingVPN CA/name=EasyRSA/emailAddress=me@myhost.mydomain
                serial:CF:35:85:EE:80:BF:2A:3E

            X509v3 Extended Key Usage: 
                TLS Web Client Authentication
            X509v3 Key Usage: 
                Digital Signature
    Signature Algorithm: sha256WithRSAEncryption
         69:3e:1d:25:30:42:80:91:85:5a:4c:3f:3f:ca:06:b2:d9:d7:
         3e:69:4b:2e:e8:60:e3:17:ae:35:ae:60:d8:ad:5f:db:83:34:
         84:9f:16:8f:56:08:c7:60:70:bb:6d:4c:d0:ad:51:75:bb:81:
         0b:54:b4:0f:bd:a5:61:4b:c3:e0:76:71:3f:a3:fd:6a:f5:2b:
         e1:45:81:ab:9c:0b:bd:2e:3e:d0:89:96:2e:be:e5:68:8e:6c:
         ed:c5:d4:cb:0d:d6:84:08:b2:a5:9a:62:a7:a5:03:06:f6:57:
         79:2c:3d:a4:6a:73:65:85:cc:99:aa:55:0c:8b:e4:05:6d:da:
         f2:83:d7:d1:e6:31:88:fc:99:82:7b:f2:c4:5c:19:2b:5a:c8:
         02:49:98:03:e0:df:cd:21:73:5d:b6:04:ba:b8:c7:5a:b2:7f:
         c7:67:aa:18:6e:aa:b3:c0:41:74:5d:2e:0d:52:09:d9:59:17:
         5b:ff:a3:9e:36:81:57:39:b5:6e:82:3e:09:f3:1e:de:25:4f:
         04:16:87:48:6a:d6:1b:1a:7a:e7:dc:93:61:a1:e8:2b:54:bf:
         a8:8a:00:ee:2d:3b:0f:a1:3c:9c:88:48:47:0d:4f:cb:ec:0f:
         0e:5e:fc:23:0c:ac:11:51:97:ad:24:11:56:80:7e:3e:45:a0:
         0f:00:e7:85:2c:ab:40:17:0c:b8:3d:60:a4:8c:90:74:8b:a3:
         9e:28:c6:b6:12:30:5d:d1:74:7e:5c:cf:eb:3c:f1:73:79:87:
         e4:0d:47:5a:60:12:92:8f:ed:fc:b9:b8:a1:cc:2e:11:7f:30:
         3a:45:30:6f:48:b2:1b:3a:b2:57:68:cc:54:77:46:b8:97:96:
         c8:f9:78:a2:cb:ba:de:79:18:c1:9c:fd:d7:da:69:d3:47:8d:
         ef:09:6c:c8:06:22:0f:ea:9e:a5:94:1b:d5:6d:f4:35:59:9f:
         5e:25:57:f6:53:81:72:47:6e:e6:76:e4:8d:0f:62:1e:9d:17:
         1a:90:68:e9:95:b3:0e:10:c3:62:21:a1:6d:63:57:bd:bd:7c:
         70:5a:64:5d:42:59:3f:b6:1a:74:24:4b:ae:cb:17:25:09:7d:
         14:97:f8:35:9d:43:23:28:65:c8:91:5c:90:a3:bb:8b:39:ed:
         a6:58:06:e0:24:c8:81:31:a3:75:bb:82:2d:8a:7d:bc:1a:1c:
         91:06:ed:65:ed:95:96:b8:02:a1:bb:72:1b:30:a0:6a:ea:21:
         d9:b0:61:40:de:f2:a3:e2:c0:0b:4d:1b:3c:eb:04:9a:40:ee:
         a3:2f:95:01:cd:10:c7:26:82:0d:63:6f:9d:79:02:b3:0b:95:
         39:c8:10:bf:3e:74:f9:fa
-----BEGIN CERTIFICATE-----
MIIGrTCCBJWgAwIBAgICLgQwDQYJKoZIhvcNAQELBQAwgawxCzAJBgNVBAYTAlVT
MQswCQYDVQQIEwJPSDERMA8GA1UEBxMIQ29sdW1idXMxEjAQBgNVBAoTCVZpa2lu
Z1ZQTjEdMBsGA1UECxMUTXlPcmdhbml6YXRpb25hbFVuaXQxFTATBgNVBAMTDFZp
a2luZ1ZQTiBDQTEQMA4GA1UEKRMHRWFzeVJTQTEhMB8GCSqGSIb3DQEJARYSbWVA
bXlob3N0Lm15ZG9tYWluMB4XDTE3MDkwNDEzMjcwNloXDTI3MDkwMjEzMjcwNlow
HzEdMBsGA1UEAxMUQ2xpZW50MjU3MENlcnQxNzhmNTMwggIiMA0GCSqGSIb3DQEB
AQUAA4ICDwAwggIKAoICAQCnOhG7aYxszcKWXKfsaSnic/B82AuBI1Eb/zaUQcv0
snXtgyYncKJLrZa5prdkzwUZUz9LIAQO6k5GGUZbLyavhF/HHXo7cVrRyxFb/ynn
+sVEC06R3xV7Fqd6b6hVXDDYX5AHQaz67nBBRUPk6boJtChnuW1X70RPmrQCQSgV
aDRxcnTKzllHUyehF7zc8w18pPQvl7v04f3Kc1wL3N8BclF6gRcufjv6Cp1wQLPU
rzCAIWgE1zjf9PNWVYxIvoCUgBwvolQUWP1L5ZGbKuzNOM9ER+X4bGjy37S2zA11
8nIcH/fOyKlzfI3erQV31/KqQCvLPkbTkSEIs5TL9PODTBzGUmX6wjSZ5yeKjJTN
+vxlu9fcKmUQyCce2o1WwXdZ1z4Olxq7RtRdK3IETBo3Ic7CZidJpGP0rZsYtlhr
QNIy/gJLfw781JbC3U9ZbQatsMH7zSYy3LRu5Jre5pysXVH/rT0k8oapW6RUcUWl
tWHMGO0MX4S6Y4izZyeRD8NUCQT5amJVbY6untO2Dq+ZtOlkxfKdZ5j2wIbw/qRF
JsCQpxip/gKGnjz8o3N/VlDI7XwnuXLSuNPNv6yM9H/jsJT5bEOxX+rVjgruD8bU
uTgug/rA9HTV3svvS6xswsWVJzbmG+GpERP7q5yNtN5M6crI2reWr9K82iaQXpUm
1QIDAQABo4IBYzCCAV8wCQYDVR0TBAIwADAtBglghkgBhvhCAQ0EIBYeRWFzeS1S
U0EgR2VuZXJhdGVkIENlcnRpZmljYXRlMB0GA1UdDgQWBBQF12u7tjIWhPQ280/x
GpKtoHFDcTCB4QYDVR0jBIHZMIHWgBQSzWAE0qCAnnDtxpm4eyzGUv0ZoaGBsqSB
rzCBrDELMAkGA1UEBhMCVVMxCzAJBgNVBAgTAk9IMREwDwYDVQQHEwhDb2x1bWJ1
czESMBAGA1UEChMJVmlraW5nVlBOMR0wGwYDVQQLExRNeU9yZ2FuaXphdGlvbmFs
VW5pdDEVMBMGA1UEAxMMVmlraW5nVlBOIENBMRAwDgYDVQQpEwdFYXN5UlNBMSEw
HwYJKoZIhvcNAQkBFhJtZUBteWhvc3QubXlkb21haW6CCQDPNYXugL8qPjATBgNV
HSUEDDAKBggrBgEFBQcDAjALBgNVHQ8EBAMCB4AwDQYJKoZIhvcNAQELBQADggIB
AGk+HSUwQoCRhVpMPz/KBrLZ1z5pSy7oYOMXrjWuYNitX9uDNISfFo9WCMdgcLtt
TNCtUXW7gQtUtA+9pWFLw+B2cT+j/Wr1K+FFgaucC70uPtCJli6+5WiObO3F1MsN
1oQIsqWaYqelAwb2V3ksPaRqc2WFzJmqVQyL5AVt2vKD19HmMYj8mYJ78sRcGSta
yAJJmAPg380hc122BLq4x1qyf8dnqhhuqrPAQXRdLg1SCdlZF1v/o542gVc5tW6C
PgnzHt4lTwQWh0hq1hsaeufck2Gh6CtUv6iKAO4tOw+hPJyISEcNT8vsDw5e/CMM
rBFRl60kEVaAfj5FoA8A54Usq0AXDLg9YKSMkHSLo54oxrYSMF3RdH5cz+s88XN5
h+QNR1pgEpKP7fy5uKHMLhF/MDpFMG9Ishs6sldozFR3RriXlsj5eKLLut55GMGc
/dfaadNHje8JbMgGIg/qnqWUG9Vt9DVZn14lV/ZTgXJHbuZ25I0PYh6dFxqQaOmV
sw4Qw2IhoW1jV729fHBaZF1CWT+2GnQkS67LFyUJfRSX+DWdQyMoZciRXJCju4s5
7aZYBuAkyIExo3W7gi2KfbwaHJEG7WXtlZa4AqG7chswoGrqIdmwYUDe8qPiwAtN
GzzrBJpA7qMvlQHNEMcmgg1jb515ArMLlTnIEL8+dPn6
-----END CERTIFICATE-----
