Certificate:
    Data:
        Version: 3 (0x2)
        Serial Number: 5086 (0x13de)
    Signature Algorithm: md5WithRSAEncryption
        Issuer: C=US, ST=OH, L=Columbus, O=VikingVPN, OU=MyOrganizationalUnit, CN=VikingVPN CA/name=EasyRSA/emailAddress=me@myhost.mydomain
        Validity
            Not Before: Apr 26 07:52:37 2015 GMT
            Not After : Apr 23 07:52:37 2025 GMT
        Subject: CN=Client218Certa35933
        Subject Public Key Info:
            Public Key Algorithm: rsaEncryption
                Public-Key: (4096 bit)
                Modulus:
                    00:ce:10:61:87:36:1e:85:6e:71:18:ec:d2:5b:30:
                    19:df:1a:b4:dc:5c:0e:ae:24:50:2e:86:b8:70:95:
                    8e:7e:4f:f7:c1:d4:5f:0e:1d:ce:08:3e:52:ea:ba:
                    6e:6a:fb:9f:99:d8:d6:5c:aa:9d:c5:0d:38:fd:6a:
                    cd:bf:98:ad:d1:61:39:35:c9:9f:8e:81:64:e3:b1:
                    fa:f8:24:4f:bf:d5:56:09:eb:ab:29:4b:ce:3e:dc:
                    ab:cb:3a:73:1e:09:56:21:5c:3e:b0:8f:5d:00:3e:
                    3e:5a:c4:d7:ac:1b:56:36:0e:0b:4a:1e:34:30:94:
                    e5:c1:2a:e3:25:fc:ea:38:82:0f:71:cc:de:f3:1c:
                    7a:17:8f:a6:bb:81:bc:cb:97:e2:19:69:ec:2e:e3:
                    29:92:d1:cf:32:ff:63:d8:bf:1c:e2:65:d5:01:7d:
                    92:4b:7d:14:69:33:0e:b1:4d:9a:c5:54:f9:da:5e:
                    af:96:d5:d3:2b:73:b1:38:ec:a4:14:29:2d:52:d1:
                    1c:d6:5b:f1:0e:fb:6a:17:1c:96:ed:f2:a1:22:7d:
                    e2:92:df:68:04:0d:9f:0b:10:65:f9:06:18:95:25:
                    27:b1:f4:9b:0b:6c:dd:d6:e6:17:aa:20:d4:d4:ea:
                    9f:e8:c3:e7:9a:ab:2c:7a:96:49:d5:3b:06:bf:61:
                    f1:de:85:7b:c6:a9:d3:ff:5c:7e:e0:67:af:3c:3a:
                    22:22:78:a4:4b:74:9d:40:ba:7f:70:54:59:ea:51:
                    0f:79:99:ed:52:c0:4d:36:74:90:69:41:01:04:83:
                    9d:5a:eb:b8:9d:9f:83:70:a0:41:e0:db:50:f9:2a:
                    ae:ed:3c:5e:3b:1f:e6:0a:5d:89:4d:36:e6:2a:0f:
                    a9:c0:2a:74:52:3c:4b:63:71:c4:c1:8d:5a:ac:bf:
                    52:5e:61:7f:d8:c7:1c:26:74:8c:e5:20:96:26:f7:
                    78:37:25:55:6e:61:ce:c3:ff:f5:31:a1:38:97:6c:
                    fb:16:96:04:54:6f:c2:0a:bb:97:41:a5:47:8b:af:
                    09:cc:56:b8:a9:c5:62:7c:16:3f:25:70:5d:f7:63:
                    74:ab:94:b3:b5:8f:cf:be:3f:10:54:f0:eb:16:2c:
                    fc:1e:af:37:70:e8:1c:db:96:db:af:06:b7:71:2e:
                    fa:c8:81:43:ca:9e:3f:c5:f3:ff:19:15:28:e3:46:
                    b3:0e:16:b8:c0:18:ad:ab:45:4d:a2:b0:56:6a:39:
                    37:2d:fd:26:97:e8:48:cd:f0:d9:39:f2:d4:c7:9d:
                    28:56:4e:06:36:a5:86:13:18:62:51:29:ae:c7:f9:
                    71:e1:db:da:6f:a4:4a:f7:18:64:bd:85:56:6d:fa:
                    59:99:51
                Exponent: 65537 (0x10001)
        X509v3 extensions:
            X509v3 Basic Constraints: 
                CA:FALSE
            Netscape Comment: 
                Easy-RSA Generated Certificate
            X509v3 Subject Key Identifier: 
                E1:FE:A8:43:28:FF:D3:50:24:31:71:95:71:83:CE:FF:D4:91:2F:98
            X509v3 Authority Key Identifier: 
                keyid:12:CD:60:04:D2:A0:80:9E:70:ED:C6:99:B8:7B:2C:C6:52:FD:19:A1
                DirName:/C=US/ST=OH/L=Columbus/O=VikingVPN/OU=MyOrganizationalUnit/CN=VikingVPN CA/name=EasyRSA/emailAddress=me@myhost.mydomain
                serial:CF:35:85:EE:80:BF:2A:3E

            X509v3 Extended Key Usage: 
                TLS Web Client Authentication
            X509v3 Key Usage: 
                Digital Signature
    Signature Algorithm: md5WithRSAEncryption
         69:51:b3:95:49:5b:0b:7a:80:09:1b:bf:3f:2c:7f:77:10:b7:
         90:44:ed:e0:f9:97:f5:52:8f:97:b0:64:20:74:fb:6c:b7:5f:
         93:43:5d:cb:bc:c4:b5:11:63:c3:3a:a2:d2:18:a5:e8:b4:96:
         8f:7c:55:12:81:08:1b:92:d8:c4:eb:fd:e6:e8:45:ce:87:f5:
         99:3f:9c:87:ac:6a:9c:bb:8f:a3:bf:f1:0e:bb:36:7f:41:6b:
         7d:c9:8d:5b:ce:8a:42:92:fe:b8:79:b8:f3:38:8b:a3:52:bf:
         e2:98:46:61:db:3f:22:bb:8b:7d:e2:b8:f8:c3:26:a7:1a:d5:
         e1:e1:60:c7:89:8f:f2:7a:e3:a6:19:e2:ee:7a:c5:74:07:72:
         6e:a1:93:31:40:d3:a0:49:96:0f:95:d4:e8:ab:ca:13:15:cd:
         89:f0:f1:73:5a:f3:bb:c4:fd:80:8a:c6:f0:60:32:20:bb:f9:
         e3:9e:13:21:2f:b9:cd:72:e5:73:0c:c4:75:65:0e:94:72:e8:
         e1:62:55:0e:77:40:d8:67:b1:af:1c:68:97:84:6d:95:03:35:
         56:15:40:d4:1a:42:c4:76:e4:2e:90:95:c0:43:f4:eb:b9:d7:
         cf:c4:ec:65:58:83:ab:68:1f:3b:10:be:fa:e0:2d:57:d1:dc:
         16:f7:52:d8:d3:91:09:a9:7b:68:b8:3f:91:62:01:ab:69:fc:
         af:8c:74:94:ab:52:c9:c0:5f:ec:b5:ae:fa:a4:02:97:9e:2c:
         96:b9:61:da:92:47:6d:ab:44:25:af:a8:c8:df:2f:b9:dd:ca:
         da:8d:8d:66:21:5e:a9:fd:23:58:0b:dc:ac:11:f6:50:3d:b9:
         c2:31:70:22:27:f1:36:8d:7e:10:60:0f:81:a5:ad:a0:53:99:
         c0:dd:a9:59:18:7d:f3:a6:94:d8:4f:57:7c:ec:b5:42:00:20:
         6d:37:15:61:cd:27:c8:6a:7f:29:77:94:c7:f0:d1:e7:87:e2:
         3c:6a:a0:a7:2a:48:b9:aa:b0:f0:42:93:80:16:e3:0b:c0:9e:
         de:29:32:3d:1a:dd:e5:f1:e5:ed:04:57:58:80:2e:43:ec:2a:
         b8:e9:c0:cc:6b:29:a0:81:34:5e:76:95:e9:26:71:0d:69:0f:
         96:41:ff:ca:5e:30:65:d3:3b:8f:d4:be:98:6b:42:62:b8:1c:
         d1:e5:d1:05:d1:fb:13:42:14:62:cd:9a:5e:7f:68:a3:5e:d4:
         87:1a:7b:c0:ce:51:ea:5b:e9:42:fb:5b:05:b3:64:af:b3:38:
         50:4f:dc:f1:14:ba:5b:aa:83:4b:05:3c:ad:24:cf:1a:93:27:
         79:eb:e5:1a:26:71:1a:1a
-----BEGIN CERTIFICATE-----
MIIGrDCCBJSgAwIBAgICE94wDQYJKoZIhvcNAQEEBQAwgawxCzAJBgNVBAYTAlVT
MQswCQYDVQQIEwJPSDERMA8GA1UEBxMIQ29sdW1idXMxEjAQBgNVBAoTCVZpa2lu
Z1ZQTjEdMBsGA1UECxMUTXlPcmdhbml6YXRpb25hbFVuaXQxFTATBgNVBAMTDFZp
a2luZ1ZQTiBDQTEQMA4GA1UEKRMHRWFzeVJTQTEhMB8GCSqGSIb3DQEJARYSbWVA
bXlob3N0Lm15ZG9tYWluMB4XDTE1MDQyNjA3NTIzN1oXDTI1MDQyMzA3NTIzN1ow
HjEcMBoGA1UEAxMTQ2xpZW50MjE4Q2VydGEzNTkzMzCCAiIwDQYJKoZIhvcNAQEB
BQADggIPADCCAgoCggIBAM4QYYc2HoVucRjs0lswGd8atNxcDq4kUC6GuHCVjn5P
98HUXw4dzgg+Uuq6bmr7n5nY1lyqncUNOP1qzb+YrdFhOTXJn46BZOOx+vgkT7/V
VgnrqylLzj7cq8s6cx4JViFcPrCPXQA+PlrE16wbVjYOC0oeNDCU5cEq4yX86jiC
D3HM3vMcehePpruBvMuX4hlp7C7jKZLRzzL/Y9i/HOJl1QF9kkt9FGkzDrFNmsVU
+dper5bV0ytzsTjspBQpLVLRHNZb8Q77ahcclu3yoSJ94pLfaAQNnwsQZfkGGJUl
J7H0mwts3dbmF6og1NTqn+jD55qrLHqWSdU7Br9h8d6Fe8ap0/9cfuBnrzw6IiJ4
pEt0nUC6f3BUWepRD3mZ7VLATTZ0kGlBAQSDnVrruJ2fg3CgQeDbUPkqru08Xjsf
5gpdiU025ioPqcAqdFI8S2NxxMGNWqy/Ul5hf9jHHCZ0jOUglib3eDclVW5hzsP/
9TGhOJds+xaWBFRvwgq7l0GlR4uvCcxWuKnFYnwWPyVwXfdjdKuUs7WPz74/EFTw
6xYs/B6vN3DoHNuW268Gt3Eu+siBQ8qeP8Xz/xkVKONGsw4WuMAYratFTaKwVmo5
Ny39JpfoSM3w2Tny1MedKFZOBjalhhMYYlEprsf5ceHb2m+kSvcYZL2FVm36WZlR
AgMBAAGjggFjMIIBXzAJBgNVHRMEAjAAMC0GCWCGSAGG+EIBDQQgFh5FYXN5LVJT
QSBHZW5lcmF0ZWQgQ2VydGlmaWNhdGUwHQYDVR0OBBYEFOH+qEMo/9NQJDFxlXGD
zv/UkS+YMIHhBgNVHSMEgdkwgdaAFBLNYATSoICecO3Gmbh7LMZS/RmhoYGypIGv
MIGsMQswCQYDVQQGEwJVUzELMAkGA1UECBMCT0gxETAPBgNVBAcTCENvbHVtYnVz
MRIwEAYDVQQKEwlWaWtpbmdWUE4xHTAbBgNVBAsTFE15T3JnYW5pemF0aW9uYWxV
bml0MRUwEwYDVQQDEwxWaWtpbmdWUE4gQ0ExEDAOBgNVBCkTB0Vhc3lSU0ExITAf
BgkqhkiG9w0BCQEWEm1lQG15aG9zdC5teWRvbWFpboIJAM81he6Avyo+MBMGA1Ud
JQQMMAoGCCsGAQUFBwMCMAsGA1UdDwQEAwIHgDANBgkqhkiG9w0BAQQFAAOCAgEA
aVGzlUlbC3qACRu/Pyx/dxC3kETt4PmX9VKPl7BkIHT7bLdfk0Ndy7zEtRFjwzqi
0hil6LSWj3xVEoEIG5LYxOv95uhFzof1mT+ch6xqnLuPo7/xDrs2f0FrfcmNW86K
QpL+uHm48ziLo1K/4phGYds/IruLfeK4+MMmpxrV4eFgx4mP8nrjphni7nrFdAdy
bqGTMUDToEmWD5XU6KvKExXNifDxc1rzu8T9gIrG8GAyILv5454TIS+5zXLlcwzE
dWUOlHLo4WJVDndA2Gexrxxol4RtlQM1VhVA1BpCxHbkLpCVwEP067nXz8TsZViD
q2gfOxC++uAtV9HcFvdS2NORCal7aLg/kWIBq2n8r4x0lKtSycBf7LWu+qQCl54s
lrlh2pJHbatEJa+oyN8vud3K2o2NZiFeqf0jWAvcrBH2UD25wjFwIifxNo1+EGAP
gaWtoFOZwN2pWRh986aU2E9XfOy1QgAgbTcVYc0nyGp/KXeUx/DR54fiPGqgpypI
uaqw8EKTgBbjC8Ce3ikyPRrd5fHl7QRXWIAuQ+wquOnAzGspoIE0XnaV6SZxDWkP
lkH/yl4wZdM7j9S+mGtCYrgc0eXRBdH7E0IUYs2aXn9oo17Uhxp7wM5R6lvpQvtb
BbNkr7M4UE/c8RS6W6qDSwU8rSTPGpMneevlGiZxGho=
-----END CERTIFICATE-----
