Certificate:
    Data:
        Version: 3 (0x2)
        Serial Number: 40 (0x28)
    Signature Algorithm: md5WithRSAEncryption
        Issuer: C=US, ST=OH, L=Columbus, O=VikingVPN, OU=MyOrganizationalUnit, CN=VikingVPN CA/name=EasyRSA/emailAddress=me@myhost.mydomain
        Validity
            Not Before: Jul 31 03:16:15 2013 GMT
            Not After : Jul 29 03:16:15 2023 GMT
        Subject: CN=Client22Cert75411c
        Subject Public Key Info:
            Public Key Algorithm: rsaEncryption
                Public-Key: (4096 bit)
                Modulus:
                    00:d7:a8:b3:b5:a8:39:10:72:6f:54:ff:bb:95:10:
                    19:e1:47:c2:42:cd:9d:ce:d4:ce:63:63:5d:f8:e7:
                    57:21:99:f4:57:a4:ee:2b:22:60:c8:dc:86:3b:35:
                    32:57:a5:be:90:f2:3c:85:02:65:e3:0c:f6:e4:cc:
                    b9:b9:db:cf:c5:5f:aa:e8:a6:e7:5f:57:7c:f7:0a:
                    b3:96:67:2c:1e:34:dc:d3:1e:15:f8:0e:4a:02:83:
                    79:84:21:85:cb:ae:c4:20:bc:60:f4:e0:74:cb:d5:
                    28:26:3a:84:46:68:7c:bf:3f:65:d2:9e:6d:cc:10:
                    c2:78:a7:b5:30:5a:33:b5:81:ae:7a:a2:54:16:7b:
                    6e:b1:a9:b6:da:27:97:26:27:b3:04:88:ea:04:25:
                    b7:36:33:f8:d4:fa:47:7c:e1:66:43:72:55:e5:8b:
                    5a:fe:3a:75:02:e3:18:d1:1d:86:ff:9f:04:df:43:
                    4c:40:4d:bf:28:3d:7e:dc:cb:96:8c:b9:b8:c9:ec:
                    37:78:e5:ed:de:d8:35:d9:0f:e2:d3:4a:3e:e7:82:
                    c6:c1:9b:60:f1:9d:8f:ce:f9:eb:69:f1:23:98:33:
                    c2:59:b1:34:1b:d7:2e:c0:3d:ef:54:16:f0:38:42:
                    a4:2e:93:70:e1:30:6f:ec:f5:66:02:52:54:d5:90:
                    34:7f:58:91:78:7a:09:cf:0b:d5:bc:3d:b2:96:9d:
                    5d:88:a8:3e:b0:eb:97:ee:a8:d3:ea:84:d5:c3:6c:
                    5e:9d:23:2c:cc:e4:5f:dd:f0:cd:91:f9:63:21:8d:
                    b5:ad:ed:0a:d7:dc:a5:18:8f:a6:7c:90:1f:0c:5b:
                    7c:95:55:97:dd:49:41:63:97:14:42:14:d9:5c:67:
                    60:f6:4e:74:f6:c9:50:d1:44:47:44:3a:82:d5:36:
                    77:34:99:23:83:09:b4:13:7a:e9:5e:bc:a0:7d:29:
                    4d:62:36:2c:b4:0e:cb:7b:f9:0b:48:6b:d9:c4:f0:
                    af:a9:71:e6:e8:67:12:a9:23:69:ea:b4:ab:e7:4b:
                    b5:43:fb:19:c8:b7:c7:08:b3:49:97:fb:9d:87:ec:
                    a1:5b:dd:1e:08:3a:9d:cc:b3:d2:ba:51:97:cb:a3:
                    57:6c:40:1f:b4:b4:61:ac:6a:c1:26:83:15:05:00:
                    5f:ad:2d:99:8f:6b:d0:98:70:02:09:ce:89:43:9a:
                    15:bb:9a:20:d4:3a:bf:05:94:0e:c7:86:bc:ba:b5:
                    27:16:21:50:0f:9f:8b:5c:34:c3:43:fb:01:eb:da:
                    b4:9b:e7:11:7b:6b:b2:d3:e9:22:4e:63:f7:f5:f2:
                    cb:11:97:ca:28:38:c5:23:37:26:d1:bf:ab:b0:7f:
                    6b:75:bb
                Exponent: 65537 (0x10001)
        X509v3 extensions:
            X509v3 Basic Constraints: 
                CA:FALSE
            Netscape Comment: 
                Easy-RSA Generated Certificate
            X509v3 Subject Key Identifier: 
                0D:13:78:23:3A:DD:73:5E:10:E0:CA:4B:C2:78:41:83:5F:4A:F4:3D
            X509v3 Authority Key Identifier: 
                keyid:12:CD:60:04:D2:A0:80:9E:70:ED:C6:99:B8:7B:2C:C6:52:FD:19:A1
                DirName:/C=US/ST=OH/L=Columbus/O=VikingVPN/OU=MyOrganizationalUnit/CN=VikingVPN CA/name=EasyRSA/emailAddress=me@myhost.mydomain
                serial:CF:35:85:EE:80:BF:2A:3E

            X509v3 Extended Key Usage: 
                TLS Web Client Authentication
            X509v3 Key Usage: 
                Digital Signature
    Signature Algorithm: md5WithRSAEncryption
         6e:bf:4a:d9:9d:cc:d6:34:91:de:bf:16:c6:06:0c:85:f0:4f:
         8c:3a:72:2d:4c:66:4f:aa:06:53:0b:09:7c:af:5b:e3:2e:38:
         bf:bd:5c:4a:20:1b:af:f8:38:0d:09:e3:05:76:4d:11:f9:7f:
         dc:27:2b:4e:1b:81:24:70:db:98:68:ca:89:8e:cf:cf:4b:b1:
         12:17:36:2e:0c:24:bf:bc:61:91:59:53:4c:f3:ae:8e:cc:b0:
         74:82:7c:88:6d:3a:ea:6e:3b:47:a1:e0:86:21:c8:12:8c:f7:
         c0:94:8c:f0:36:6a:83:02:e4:01:ce:f9:62:21:d9:3e:9f:de:
         6b:d1:7b:2e:a4:c5:86:d9:0f:82:60:39:fe:f6:d2:8d:9a:34:
         77:8c:e0:5a:4c:e5:1a:a4:bd:36:51:8e:83:48:77:c6:09:1b:
         2f:69:cf:27:ef:65:df:53:4f:eb:be:e6:6f:32:22:6d:27:d8:
         a9:aa:39:0b:d1:64:22:73:02:06:f7:0e:0b:9c:4d:08:f1:5c:
         1c:6f:bb:32:94:41:c6:c8:2f:d2:b2:16:21:e9:0a:49:85:56:
         e1:f3:5d:31:34:1b:e8:0b:4e:c0:17:84:56:c0:95:1b:c4:22:
         b2:1b:e1:68:87:51:33:fd:66:0c:69:d2:98:0d:7d:a2:0f:f1:
         67:67:0e:ed:66:a8:ac:51:58:d8:13:d8:d9:8f:69:c6:5d:05:
         f1:cd:02:b5:d2:85:9e:17:37:6c:c9:b7:54:27:fb:01:7b:20:
         cf:c2:49:ca:b3:2e:2c:ad:95:1a:43:4b:4e:91:85:1c:1b:f5:
         cd:39:86:c1:aa:96:80:bf:25:bb:b4:65:f3:ed:73:77:36:e6:
         cf:b6:a1:29:89:9b:3a:d9:60:bf:37:92:23:cd:0b:82:cb:7f:
         59:66:1d:2b:e4:3f:b9:91:5d:6b:f7:a0:62:f9:d4:1c:67:3d:
         a9:0f:e9:76:97:e0:06:aa:ec:41:8c:d4:24:98:47:ac:5c:76:
         5f:9e:e8:a1:dd:ea:15:68:09:c0:06:03:b4:be:2c:b4:19:94:
         3e:4c:b6:75:07:82:33:c2:76:27:64:fc:90:d4:ed:f9:88:3e:
         9c:b9:f7:e7:35:20:2d:c6:6d:ad:fb:e7:53:e1:47:f7:98:df:
         5f:2d:8f:da:20:c5:2b:89:3b:ec:d5:57:dd:5f:f1:c9:b7:c6:
         4c:3e:85:07:8b:6d:9d:f4:09:be:19:2f:54:23:85:02:50:93:
         0f:e0:c0:27:38:dd:49:16:25:ab:e8:da:64:31:82:8a:82:67:
         c4:ed:13:83:0f:38:e8:14:71:22:2e:ce:dd:f3:53:82:1c:0d:
         0a:3a:3e:91:fe:cb:6d:0a
-----BEGIN CERTIFICATE-----
MIIGqjCCBJKgAwIBAgIBKDANBgkqhkiG9w0BAQQFADCBrDELMAkGA1UEBhMCVVMx
CzAJBgNVBAgTAk9IMREwDwYDVQQHEwhDb2x1bWJ1czESMBAGA1UEChMJVmlraW5n
VlBOMR0wGwYDVQQLExRNeU9yZ2FuaXphdGlvbmFsVW5pdDEVMBMGA1UEAxMMVmlr
aW5nVlBOIENBMRAwDgYDVQQpEwdFYXN5UlNBMSEwHwYJKoZIhvcNAQkBFhJtZUBt
eWhvc3QubXlkb21haW4wHhcNMTMwNzMxMDMxNjE1WhcNMjMwNzI5MDMxNjE1WjAd
MRswGQYDVQQDExJDbGllbnQyMkNlcnQ3NTQxMWMwggIiMA0GCSqGSIb3DQEBAQUA
A4ICDwAwggIKAoICAQDXqLO1qDkQcm9U/7uVEBnhR8JCzZ3O1M5jY13451chmfRX
pO4rImDI3IY7NTJXpb6Q8jyFAmXjDPbkzLm528/FX6ropudfV3z3CrOWZyweNNzT
HhX4DkoCg3mEIYXLrsQgvGD04HTL1SgmOoRGaHy/P2XSnm3MEMJ4p7UwWjO1ga56
olQWe26xqbbaJ5cmJ7MEiOoEJbc2M/jU+kd84WZDclXli1r+OnUC4xjRHYb/nwTf
Q0xATb8oPX7cy5aMubjJ7Dd45e3e2DXZD+LTSj7ngsbBm2DxnY/O+etp8SOYM8JZ
sTQb1y7APe9UFvA4QqQuk3DhMG/s9WYCUlTVkDR/WJF4egnPC9W8PbKWnV2IqD6w
65fuqNPqhNXDbF6dIyzM5F/d8M2R+WMhjbWt7QrX3KUYj6Z8kB8MW3yVVZfdSUFj
lxRCFNlcZ2D2TnT2yVDRREdEOoLVNnc0mSODCbQTeulevKB9KU1iNiy0Dst7+QtI
a9nE8K+pceboZxKpI2nqtKvnS7VD+xnIt8cIs0mX+52H7KFb3R4IOp3Ms9K6UZfL
o1dsQB+0tGGsasEmgxUFAF+tLZmPa9CYcAIJzolDmhW7miDUOr8FlA7Hhry6tScW
IVAPn4tcNMND+wHr2rSb5xF7a7LT6SJOY/f18ssRl8ooOMUjNybRv6uwf2t1uwID
AQABo4IBYzCCAV8wCQYDVR0TBAIwADAtBglghkgBhvhCAQ0EIBYeRWFzeS1SU0Eg
R2VuZXJhdGVkIENlcnRpZmljYXRlMB0GA1UdDgQWBBQNE3gjOt1zXhDgykvCeEGD
X0r0PTCB4QYDVR0jBIHZMIHWgBQSzWAE0qCAnnDtxpm4eyzGUv0ZoaGBsqSBrzCB
rDELMAkGA1UEBhMCVVMxCzAJBgNVBAgTAk9IMREwDwYDVQQHEwhDb2x1bWJ1czES
MBAGA1UEChMJVmlraW5nVlBOMR0wGwYDVQQLExRNeU9yZ2FuaXphdGlvbmFsVW5p
dDEVMBMGA1UEAxMMVmlraW5nVlBOIENBMRAwDgYDVQQpEwdFYXN5UlNBMSEwHwYJ
KoZIhvcNAQkBFhJtZUBteWhvc3QubXlkb21haW6CCQDPNYXugL8qPjATBgNVHSUE
DDAKBggrBgEFBQcDAjALBgNVHQ8EBAMCB4AwDQYJKoZIhvcNAQEEBQADggIBAG6/
StmdzNY0kd6/FsYGDIXwT4w6ci1MZk+qBlMLCXyvW+MuOL+9XEogG6/4OA0J4wV2
TRH5f9wnK04bgSRw25hoyomOz89LsRIXNi4MJL+8YZFZU0zzro7MsHSCfIhtOupu
O0eh4IYhyBKM98CUjPA2aoMC5AHO+WIh2T6f3mvRey6kxYbZD4JgOf720o2aNHeM
4FpM5RqkvTZRjoNId8YJGy9pzyfvZd9TT+u+5m8yIm0n2KmqOQvRZCJzAgb3Dguc
TQjxXBxvuzKUQcbIL9KyFiHpCkmFVuHzXTE0G+gLTsAXhFbAlRvEIrIb4WiHUTP9
Zgxp0pgNfaIP8WdnDu1mqKxRWNgT2NmPacZdBfHNArXShZ4XN2zJt1Qn+wF7IM/C
ScqzLiytlRpDS06RhRwb9c05hsGqloC/Jbu0ZfPtc3c25s+2oSmJmzrZYL83kiPN
C4LLf1lmHSvkP7mRXWv3oGL51BxnPakP6XaX4Aaq7EGM1CSYR6xcdl+e6KHd6hVo
CcAGA7S+LLQZlD5MtnUHgjPCdidk/JDU7fmIPpy59+c1IC3Gba3751PhR/eY318t
j9ogxSuJO+zVV91f8cm3xkw+hQeLbZ30Cb4ZL1QjhQJQkw/gwCc43UkWJavo2mQx
goqCZ8TtE4MPOOgUcSIuzt3zU4IcDQo6PpH+y20K
-----END CERTIFICATE-----
