Certificate:
    Data:
        Version: 3 (0x2)
        Serial Number: 618 (0x26a)
    Signature Algorithm: md5WithRSAEncryption
        Issuer: C=US, ST=OH, L=Columbus, O=VikingVPN, OU=MyOrganizationalUnit, CN=VikingVPN CA/name=EasyRSA/emailAddress=me@myhost.mydomain
        Validity
            Not Before: Dec 19 18:13:42 2013 GMT
            Not After : Dec 17 18:13:42 2023 GMT
        Subject: CN=Client241Cert51384c
        Subject Public Key Info:
            Public Key Algorithm: rsaEncryption
                Public-Key: (4096 bit)
                Modulus:
                    00:c4:29:a5:c9:a3:90:e0:78:64:ba:ff:f2:75:7d:
                    3a:cc:f0:a2:ec:9d:40:73:1c:93:bc:43:ad:00:03:
                    13:f4:d6:c8:18:7f:a2:75:ba:ba:60:51:34:92:f2:
                    fa:2f:d3:a8:aa:a9:66:79:9f:ea:89:9e:53:f5:22:
                    4f:73:57:ab:fe:6e:f2:ee:d3:f6:70:9b:22:37:2e:
                    1f:90:8a:a6:6c:c7:aa:ca:c5:b5:d7:90:b1:bf:d1:
                    50:f0:85:6f:07:f5:52:1b:69:19:35:b1:90:85:11:
                    16:14:0d:c0:7b:69:c0:2c:68:e8:48:f8:3e:04:6e:
                    d9:9b:49:bb:f9:4e:c7:33:41:d1:f8:b7:41:a0:b6:
                    2a:eb:84:31:de:6f:e9:8b:bc:44:10:9d:bc:38:4b:
                    8e:7e:52:64:7a:24:3e:d1:6a:62:b1:b9:36:bb:0c:
                    e1:46:9b:93:c5:e7:ca:15:69:ac:a6:10:cf:d8:ec:
                    84:45:b1:51:49:4d:17:b4:d5:73:a4:42:95:7e:54:
                    87:86:16:8c:04:31:e2:52:eb:c7:fc:0c:0e:ce:2f:
                    6e:5b:dc:be:d9:c8:c8:d9:3b:34:68:1d:91:9b:e9:
                    8f:b5:07:84:7a:a8:70:2b:57:6d:96:0b:70:83:2a:
                    9e:18:89:8e:d1:52:75:35:e7:72:09:69:68:09:88:
                    ed:ae:b5:04:47:44:a7:83:c1:d3:1a:d5:4f:50:9f:
                    88:5c:7a:05:b1:8f:b4:21:03:d2:0c:f6:ac:5d:c7:
                    6b:16:9e:18:76:1d:09:a7:6a:88:95:bc:6f:28:8a:
                    db:a1:1d:dd:4e:32:04:0d:31:b2:7e:56:07:55:a9:
                    14:2c:d2:b7:3e:69:45:33:4f:bd:6d:c5:e9:0e:98:
                    95:50:6c:15:ed:87:20:4b:7d:d7:f5:4c:83:63:7b:
                    35:2e:00:b9:9c:b8:c8:38:22:c1:9a:7e:2c:12:1f:
                    05:b0:0f:d0:2f:cd:6a:6d:5f:a3:07:63:7f:24:03:
                    26:4a:21:88:77:c0:59:bc:d1:7f:29:3e:07:bb:cc:
                    d2:c0:4a:25:93:b6:7d:ec:78:8f:5f:0c:94:8e:64:
                    2e:7f:97:24:4e:75:6c:11:73:82:2c:40:31:32:88:
                    91:f8:21:20:38:70:01:d0:23:c1:15:45:5d:b4:2b:
                    ce:26:53:c4:3c:07:b7:6d:41:7a:8e:6c:b3:6e:1e:
                    44:fa:95:a6:28:38:f3:42:02:7a:18:df:0d:47:0f:
                    07:77:63:f3:69:28:bc:93:91:b8:e6:64:a4:4b:96:
                    9e:35:96:e0:a4:3d:bc:71:33:58:05:08:07:ee:e2:
                    88:24:42:43:09:2a:9c:ad:65:82:1c:de:b5:17:1b:
                    07:66:35
                Exponent: 65537 (0x10001)
        X509v3 extensions:
            X509v3 Basic Constraints: 
                CA:FALSE
            Netscape Comment: 
                Easy-RSA Generated Certificate
            X509v3 Subject Key Identifier: 
                CB:2A:2F:DD:C7:33:3F:51:A4:1A:4F:EA:C1:69:24:D6:E1:DD:3D:BB
            X509v3 Authority Key Identifier: 
                keyid:12:CD:60:04:D2:A0:80:9E:70:ED:C6:99:B8:7B:2C:C6:52:FD:19:A1
                DirName:/C=US/ST=OH/L=Columbus/O=VikingVPN/OU=MyOrganizationalUnit/CN=VikingVPN CA/name=EasyRSA/emailAddress=me@myhost.mydomain
                serial:CF:35:85:EE:80:BF:2A:3E

            X509v3 Extended Key Usage: 
                TLS Web Client Authentication
            X509v3 Key Usage: 
                Digital Signature
    Signature Algorithm: md5WithRSAEncryption
         ec:42:e6:ff:c0:92:41:85:4d:0d:9c:83:d1:3e:e3:5d:59:0b:
         65:70:85:87:75:a6:e9:65:dd:93:0d:e9:c7:13:6b:f7:3e:df:
         0e:28:9a:d1:cd:24:67:7c:74:41:84:f8:92:8a:6d:b3:17:33:
         52:a0:52:29:6f:c9:1d:e5:d7:bc:a8:05:a7:04:2b:90:70:1c:
         85:a2:c1:df:5e:2f:f6:a6:06:c3:26:5e:24:7c:8d:2c:2e:ba:
         b6:0a:4f:f9:4d:2d:a8:56:a9:00:ad:c8:b5:47:f4:5f:76:9f:
         a5:aa:6b:b7:f5:9f:5b:b3:3e:c0:ca:c2:57:1a:6d:d9:7c:9e:
         27:cd:af:69:83:0e:a1:0f:12:81:95:b7:e9:ee:7d:71:9f:0a:
         f3:f0:3e:68:f7:24:dc:7d:4d:3a:cb:8c:d2:16:80:01:20:47:
         3a:0f:7b:49:4e:72:e6:b2:75:da:68:03:dc:6b:77:e9:74:5a:
         95:55:bd:81:90:20:32:10:68:aa:90:06:c7:51:c7:06:4b:9e:
         ba:51:77:d8:c1:87:ae:ad:4f:e1:c7:b9:1c:6c:e2:d0:ff:87:
         f6:16:88:39:64:29:c5:ad:d4:50:bb:ae:c2:0f:ef:fc:e3:ba:
         c9:7c:8b:3a:58:a5:96:0d:2e:16:37:90:c4:3d:60:f3:8a:e0:
         24:bd:32:4d:ce:bc:c6:ef:e9:5c:d8:3b:09:ba:7d:81:73:bd:
         7e:1d:e0:b8:ea:5a:14:1e:ea:af:ae:73:33:14:e9:7b:0c:68:
         7f:93:e9:ff:fe:47:39:b2:a7:ce:53:60:db:1a:f2:fa:40:a1:
         27:2c:d7:d9:0b:82:ca:00:0a:31:17:8b:94:4d:21:08:44:e5:
         69:fc:65:0b:cb:3a:2b:72:f7:9a:6a:0e:3e:c1:4d:b1:f2:62:
         57:a1:b0:a1:16:18:36:24:98:2f:63:78:97:54:1a:d7:bc:8e:
         e7:97:11:91:0a:8e:0f:5b:df:9a:22:e2:a3:70:98:78:46:1d:
         49:50:b4:73:40:d1:ab:b2:68:af:4d:38:68:41:81:ba:61:dd:
         4a:7a:4d:7c:8b:7c:65:e6:18:df:0e:e3:e6:e9:18:01:16:6b:
         f3:52:ba:ee:9e:0f:f6:6a:73:78:50:f8:bf:43:d7:8e:b7:c4:
         39:bb:b1:6c:b1:83:e1:02:85:03:a0:67:dc:2c:93:9a:bd:ac:
         1f:ea:b1:9c:68:59:5e:f6:34:67:e9:5d:11:b0:ca:5d:36:50:
         a4:39:0a:50:f0:3a:f1:7b:42:e7:f7:f0:85:69:33:ed:ff:89:
         e1:c4:f5:22:0a:1f:88:d9:d7:37:b1:b4:52:7f:23:80:db:a5:
         4c:59:5f:37:a2:ba:d5:6f
-----BEGIN CERTIFICATE-----
MIIGrDCCBJSgAwIBAgICAmowDQYJKoZIhvcNAQEEBQAwgawxCzAJBgNVBAYTAlVT
MQswCQYDVQQIEwJPSDERMA8GA1UEBxMIQ29sdW1idXMxEjAQBgNVBAoTCVZpa2lu
Z1ZQTjEdMBsGA1UECxMUTXlPcmdhbml6YXRpb25hbFVuaXQxFTATBgNVBAMTDFZp
a2luZ1ZQTiBDQTEQMA4GA1UEKRMHRWFzeVJTQTEhMB8GCSqGSIb3DQEJARYSbWVA
bXlob3N0Lm15ZG9tYWluMB4XDTEzMTIxOTE4MTM0MloXDTIzMTIxNzE4MTM0Mlow
HjEcMBoGA1UEAxMTQ2xpZW50MjQxQ2VydDUxMzg0YzCCAiIwDQYJKoZIhvcNAQEB
BQADggIPADCCAgoCggIBAMQppcmjkOB4ZLr/8nV9OszwouydQHMck7xDrQADE/TW
yBh/onW6umBRNJLy+i/TqKqpZnmf6omeU/UiT3NXq/5u8u7T9nCbIjcuH5CKpmzH
qsrFtdeQsb/RUPCFbwf1UhtpGTWxkIURFhQNwHtpwCxo6Ej4PgRu2ZtJu/lOxzNB
0fi3QaC2KuuEMd5v6Yu8RBCdvDhLjn5SZHokPtFqYrG5NrsM4Uabk8XnyhVprKYQ
z9jshEWxUUlNF7TVc6RClX5Uh4YWjAQx4lLrx/wMDs4vblvcvtnIyNk7NGgdkZvp
j7UHhHqocCtXbZYLcIMqnhiJjtFSdTXncglpaAmI7a61BEdEp4PB0xrVT1CfiFx6
BbGPtCED0gz2rF3HaxaeGHYdCadqiJW8byiK26Ed3U4yBA0xsn5WB1WpFCzStz5p
RTNPvW3F6Q6YlVBsFe2HIEt91/VMg2N7NS4AuZy4yDgiwZp+LBIfBbAP0C/Nam1f
owdjfyQDJkohiHfAWbzRfyk+B7vM0sBKJZO2fex4j18MlI5kLn+XJE51bBFzgixA
MTKIkfghIDhwAdAjwRVFXbQrziZTxDwHt21Beo5ss24eRPqVpig480ICehjfDUcP
B3dj82kovJORuOZkpEuWnjWW4KQ9vHEzWAUIB+7iiCRCQwkqnK1lghzetRcbB2Y1
AgMBAAGjggFjMIIBXzAJBgNVHRMEAjAAMC0GCWCGSAGG+EIBDQQgFh5FYXN5LVJT
QSBHZW5lcmF0ZWQgQ2VydGlmaWNhdGUwHQYDVR0OBBYEFMsqL93HMz9RpBpP6sFp
JNbh3T27MIHhBgNVHSMEgdkwgdaAFBLNYATSoICecO3Gmbh7LMZS/RmhoYGypIGv
MIGsMQswCQYDVQQGEwJVUzELMAkGA1UECBMCT0gxETAPBgNVBAcTCENvbHVtYnVz
MRIwEAYDVQQKEwlWaWtpbmdWUE4xHTAbBgNVBAsTFE15T3JnYW5pemF0aW9uYWxV
bml0MRUwEwYDVQQDEwxWaWtpbmdWUE4gQ0ExEDAOBgNVBCkTB0Vhc3lSU0ExITAf
BgkqhkiG9w0BCQEWEm1lQG15aG9zdC5teWRvbWFpboIJAM81he6Avyo+MBMGA1Ud
JQQMMAoGCCsGAQUFBwMCMAsGA1UdDwQEAwIHgDANBgkqhkiG9w0BAQQFAAOCAgEA
7ELm/8CSQYVNDZyD0T7jXVkLZXCFh3Wm6WXdkw3pxxNr9z7fDiia0c0kZ3x0QYT4
koptsxczUqBSKW/JHeXXvKgFpwQrkHAchaLB314v9qYGwyZeJHyNLC66tgpP+U0t
qFapAK3ItUf0X3afpaprt/WfW7M+wMrCVxpt2XyeJ82vaYMOoQ8SgZW36e59cZ8K
8/A+aPck3H1NOsuM0haAASBHOg97SU5y5rJ12mgD3Gt36XRalVW9gZAgMhBoqpAG
x1HHBkueulF32MGHrq1P4ce5HGzi0P+H9haIOWQpxa3UULuuwg/v/OO6yXyLOlil
lg0uFjeQxD1g84rgJL0yTc68xu/pXNg7Cbp9gXO9fh3guOpaFB7qr65zMxTpewxo
f5Pp//5HObKnzlNg2xry+kChJyzX2QuCygAKMReLlE0hCETlafxlC8s6K3L3mmoO
PsFNsfJiV6GwoRYYNiSYL2N4l1Qa17yO55cRkQqOD1vfmiLio3CYeEYdSVC0c0DR
q7Jor004aEGBumHdSnpNfIt8ZeYY3w7j5ukYARZr81K67p4P9mpzeFD4v0PXjrfE
ObuxbLGD4QKFA6Bn3CyTmr2sH+qxnGhZXvY0Z+ldEbDKXTZQpDkKUPA68XtC5/fw
hWkz7f+J4cT1IgofiNnXN7G0Un8jgNulTFlfN6K61W8=
-----END CERTIFICATE-----
