Certificate:
    Data:
        Version: 3 (0x2)
        Serial Number: 4167 (0x1047)
    Signature Algorithm: md5WithRSAEncryption
        Issuer: C=US, ST=OH, L=Columbus, O=VikingVPN, OU=MyOrganizationalUnit, CN=VikingVPN CA/name=EasyRSA/emailAddress=me@myhost.mydomain
        Validity
            Not Before: Jan 19 06:12:32 2015 GMT
            Not After : Jan 16 06:12:32 2025 GMT
        Subject: CN=Client1375Certf38ce5
        Subject Public Key Info:
            Public Key Algorithm: rsaEncryption
                Public-Key: (4096 bit)
                Modulus:
                    00:f2:78:90:ee:b8:ba:a5:60:07:85:f5:b2:49:53:
                    92:9a:9d:20:f1:b1:f6:e7:65:09:4a:ef:34:24:ca:
                    9e:41:4b:05:b2:79:7b:87:8b:ff:b9:e5:35:2f:97:
                    00:d2:33:00:30:b7:e2:98:4f:7f:04:89:58:65:2d:
                    e4:34:46:d9:8f:bc:62:e7:3a:80:41:83:5b:5b:35:
                    dd:17:09:c6:92:65:46:1c:b7:8b:eb:67:91:5d:97:
                    60:3c:7d:e8:e3:9a:75:4a:f9:20:33:83:61:13:4b:
                    31:2b:8b:01:65:59:22:6a:89:c0:b7:0b:30:6e:f1:
                    b5:25:23:af:0f:99:49:fc:8e:2b:e1:e3:5e:00:98:
                    16:20:6c:79:b7:2e:e3:7e:02:8d:85:d7:30:4d:92:
                    ee:58:1a:8e:7d:0d:42:8d:cf:d6:4b:d0:26:aa:27:
                    bc:fb:bf:43:ca:b9:10:b6:3b:d6:56:79:31:96:c0:
                    e3:23:cc:ae:77:d6:e7:0a:3a:f5:ee:61:50:88:21:
                    92:a1:50:c6:1a:9a:8a:e3:7b:8e:51:98:b9:5f:35:
                    c4:06:bd:21:bc:a2:93:13:ca:9c:71:b3:90:80:a8:
                    6e:27:f8:36:ef:09:d1:05:93:b5:f9:d9:b1:43:6e:
                    a9:a4:df:3f:cc:11:f6:32:76:5f:24:86:2d:bc:6c:
                    31:0d:11:9c:85:4e:84:44:d8:ed:43:03:36:4d:4e:
                    f1:10:c5:61:43:d7:d0:b0:5d:a0:44:73:2e:eb:ef:
                    96:15:0e:01:b7:dc:25:10:0f:e1:73:ec:a0:f8:fd:
                    08:59:92:ef:75:f0:ff:66:15:55:b9:6f:13:8e:5b:
                    64:07:a1:2a:19:01:3d:98:c6:a6:c3:5c:5f:83:54:
                    1e:d8:f0:6f:ed:43:66:99:71:0e:02:7f:15:cc:4c:
                    b1:e3:fe:63:75:62:52:d1:d3:b1:47:0c:0b:00:34:
                    75:2f:f3:05:70:03:b4:e4:57:7d:07:4c:9d:79:44:
                    5b:35:29:c7:6e:7f:45:26:48:d7:a5:d2:bf:c9:f6:
                    30:00:7f:54:3a:10:29:33:fb:f8:b9:c5:5f:d4:d6:
                    3e:1a:15:f3:90:83:90:08:9d:00:f1:e5:ab:50:25:
                    ba:06:dd:3c:25:7d:f9:62:f7:12:09:a0:0a:8d:e0:
                    8b:7b:6f:63:45:88:56:ab:54:7a:15:f2:39:dd:43:
                    28:09:65:af:6a:df:53:46:13:2a:8b:42:33:21:3f:
                    8a:77:25:4c:d6:5b:e8:c8:5d:07:71:d0:ea:19:57:
                    f0:d3:8f:71:95:cd:19:b3:97:16:c7:85:89:ab:05:
                    65:f4:69:c3:20:36:34:3c:c8:5d:b5:c9:c5:66:1f:
                    c0:13:ef
                Exponent: 65537 (0x10001)
        X509v3 extensions:
            X509v3 Basic Constraints: 
                CA:FALSE
            Netscape Comment: 
                Easy-RSA Generated Certificate
            X509v3 Subject Key Identifier: 
                98:1A:18:1B:1A:DB:B3:AA:AC:18:81:B6:F5:D3:8F:C0:6B:C7:6E:70
            X509v3 Authority Key Identifier: 
                keyid:12:CD:60:04:D2:A0:80:9E:70:ED:C6:99:B8:7B:2C:C6:52:FD:19:A1
                DirName:/C=US/ST=OH/L=Columbus/O=VikingVPN/OU=MyOrganizationalUnit/CN=VikingVPN CA/name=EasyRSA/emailAddress=me@myhost.mydomain
                serial:CF:35:85:EE:80:BF:2A:3E

            X509v3 Extended Key Usage: 
                TLS Web Client Authentication
            X509v3 Key Usage: 
                Digital Signature
    Signature Algorithm: md5WithRSAEncryption
         3a:89:c8:1a:3f:e7:49:ff:ec:ed:a9:c6:e6:2a:b7:7a:59:d9:
         49:98:25:83:8b:9b:fd:c1:66:54:17:66:1a:c4:d1:76:cd:bb:
         22:a6:bf:a9:55:c6:ba:b5:d1:eb:62:8f:8b:33:5e:c6:9d:2d:
         7b:8b:33:3f:d9:e3:93:e7:a0:4e:01:02:6e:6d:45:2a:00:52:
         d1:bc:16:7d:a8:0f:c7:ce:d7:27:be:f1:ea:b5:c5:66:33:5c:
         40:be:cd:be:ce:cf:01:7b:fa:8c:e6:af:47:71:89:ff:47:f0:
         56:7a:bc:b9:06:e7:7e:e5:6e:c0:fb:dc:67:7f:ab:ca:72:6a:
         bb:35:9e:2b:8d:5e:74:d0:5d:8e:e8:a1:61:a5:44:50:c4:8d:
         87:c0:64:f6:0f:35:3d:f6:ed:a4:e7:98:9c:80:5c:27:07:58:
         8e:7e:e0:36:ef:ca:36:48:13:59:92:d8:ac:bf:2e:b6:f3:bd:
         8b:47:a3:2e:21:54:de:28:1c:de:73:b7:61:03:3e:d7:51:b8:
         95:ac:e9:f7:0e:48:a0:3b:33:1d:7f:39:41:b5:75:29:55:0d:
         ec:84:9f:cd:30:61:bf:63:70:78:96:9e:42:a6:be:e6:76:f8:
         80:9a:04:6e:6e:fc:73:dd:e2:31:13:42:0e:ca:34:cb:45:fe:
         06:c0:df:88:0f:3f:d4:0d:c5:90:26:1d:b0:f1:a2:b6:8b:49:
         3a:10:71:92:97:d9:ee:01:78:0a:9d:16:46:f5:be:42:db:ed:
         e9:65:5e:f7:18:a6:37:60:25:f1:35:12:70:c4:c1:50:c1:4a:
         95:30:1f:57:65:18:d7:16:6f:49:ec:f4:62:67:c2:2e:40:51:
         50:53:04:45:85:c9:3e:4b:07:ac:bb:8b:4c:28:71:a5:b8:72:
         95:d0:27:d7:95:00:30:46:cb:b8:c3:a3:32:72:88:41:f5:a4:
         7e:3a:64:6c:ce:2e:26:42:ea:84:7c:90:ed:6b:61:1a:0a:91:
         d1:5f:c4:d4:e8:f1:7b:6d:80:f2:12:45:1e:52:0e:b4:65:51:
         54:11:88:82:e3:67:87:87:25:d9:fe:68:55:12:e1:9a:49:e8:
         d7:dd:0c:09:df:be:ba:55:e5:f5:94:1a:6c:d6:14:60:fd:66:
         98:ab:e7:78:1e:a3:66:ac:bc:82:be:fa:b7:e5:ec:6e:bc:70:
         8c:20:6a:96:af:db:eb:7e:49:d5:7b:eb:8d:37:70:17:3d:c2:
         3a:f1:fe:29:ee:2b:a7:46:ea:97:0e:25:1c:86:01:ae:e6:a8:
         ca:ee:b1:5a:51:fc:99:8e:db:bc:17:0f:62:e5:34:44:fb:f8:
         13:07:fc:a9:d2:5d:c7:5d
-----BEGIN CERTIFICATE-----
MIIGrTCCBJWgAwIBAgICEEcwDQYJKoZIhvcNAQEEBQAwgawxCzAJBgNVBAYTAlVT
MQswCQYDVQQIEwJPSDERMA8GA1UEBxMIQ29sdW1idXMxEjAQBgNVBAoTCVZpa2lu
Z1ZQTjEdMBsGA1UECxMUTXlPcmdhbml6YXRpb25hbFVuaXQxFTATBgNVBAMTDFZp
a2luZ1ZQTiBDQTEQMA4GA1UEKRMHRWFzeVJTQTEhMB8GCSqGSIb3DQEJARYSbWVA
bXlob3N0Lm15ZG9tYWluMB4XDTE1MDExOTA2MTIzMloXDTI1MDExNjA2MTIzMlow
HzEdMBsGA1UEAxMUQ2xpZW50MTM3NUNlcnRmMzhjZTUwggIiMA0GCSqGSIb3DQEB
AQUAA4ICDwAwggIKAoICAQDyeJDuuLqlYAeF9bJJU5KanSDxsfbnZQlK7zQkyp5B
SwWyeXuHi/+55TUvlwDSMwAwt+KYT38EiVhlLeQ0RtmPvGLnOoBBg1tbNd0XCcaS
ZUYct4vrZ5Fdl2A8fejjmnVK+SAzg2ETSzEriwFlWSJqicC3CzBu8bUlI68PmUn8
jivh414AmBYgbHm3LuN+Ao2F1zBNku5YGo59DUKNz9ZL0CaqJ7z7v0PKuRC2O9ZW
eTGWwOMjzK531ucKOvXuYVCIIZKhUMYamorje45RmLlfNcQGvSG8opMTypxxs5CA
qG4n+DbvCdEFk7X52bFDbqmk3z/MEfYydl8khi28bDENEZyFToRE2O1DAzZNTvEQ
xWFD19CwXaBEcy7r75YVDgG33CUQD+Fz7KD4/QhZku918P9mFVW5bxOOW2QHoSoZ
AT2YxqbDXF+DVB7Y8G/tQ2aZcQ4CfxXMTLHj/mN1YlLR07FHDAsANHUv8wVwA7Tk
V30HTJ15RFs1Kcduf0UmSNel0r/J9jAAf1Q6ECkz+/i5xV/U1j4aFfOQg5AInQDx
5atQJboG3Twlffli9xIJoAqN4It7b2NFiFarVHoV8jndQygJZa9q31NGEyqLQjMh
P4p3JUzWW+jIXQdx0OoZV/DTj3GVzRmzlxbHhYmrBWX0acMgNjQ8yF21ycVmH8AT
7wIDAQABo4IBYzCCAV8wCQYDVR0TBAIwADAtBglghkgBhvhCAQ0EIBYeRWFzeS1S
U0EgR2VuZXJhdGVkIENlcnRpZmljYXRlMB0GA1UdDgQWBBSYGhgbGtuzqqwYgbb1
04/Aa8ducDCB4QYDVR0jBIHZMIHWgBQSzWAE0qCAnnDtxpm4eyzGUv0ZoaGBsqSB
rzCBrDELMAkGA1UEBhMCVVMxCzAJBgNVBAgTAk9IMREwDwYDVQQHEwhDb2x1bWJ1
czESMBAGA1UEChMJVmlraW5nVlBOMR0wGwYDVQQLExRNeU9yZ2FuaXphdGlvbmFs
VW5pdDEVMBMGA1UEAxMMVmlraW5nVlBOIENBMRAwDgYDVQQpEwdFYXN5UlNBMSEw
HwYJKoZIhvcNAQkBFhJtZUBteWhvc3QubXlkb21haW6CCQDPNYXugL8qPjATBgNV
HSUEDDAKBggrBgEFBQcDAjALBgNVHQ8EBAMCB4AwDQYJKoZIhvcNAQEEBQADggIB
ADqJyBo/50n/7O2pxuYqt3pZ2UmYJYOLm/3BZlQXZhrE0XbNuyKmv6lVxrq10eti
j4szXsadLXuLMz/Z45PnoE4BAm5tRSoAUtG8Fn2oD8fO1ye+8eq1xWYzXEC+zb7O
zwF7+ozmr0dxif9H8FZ6vLkG537lbsD73Gd/q8pyars1niuNXnTQXY7ooWGlRFDE
jYfAZPYPNT327aTnmJyAXCcHWI5+4DbvyjZIE1mS2Ky/LrbzvYtHoy4hVN4oHN5z
t2EDPtdRuJWs6fcOSKA7Mx1/OUG1dSlVDeyEn80wYb9jcHiWnkKmvuZ2+ICaBG5u
/HPd4jETQg7KNMtF/gbA34gPP9QNxZAmHbDxoraLSToQcZKX2e4BeAqdFkb1vkLb
7ellXvcYpjdgJfE1EnDEwVDBSpUwH1dlGNcWb0ns9GJnwi5AUVBTBEWFyT5LB6y7
i0wocaW4cpXQJ9eVADBGy7jDozJyiEH1pH46ZGzOLiZC6oR8kO1rYRoKkdFfxNTo
8XttgPISRR5SDrRlUVQRiILjZ4eHJdn+aFUS4ZpJ6NfdDAnfvrpV5fWUGmzWFGD9
Zpir53geo2asvIK++rfl7G68cIwgapav2+t+SdV76403cBc9wjrx/inuK6dG6pcO
JRyGAa7mqMrusVpR/JmO27wXD2LlNET7+BMH/KnSXcdd
-----END CERTIFICATE-----
