Certificate:
    Data:
        Version: 3 (0x2)
        Serial Number: 10656 (0x29a0)
    Signature Algorithm: sha256WithRSAEncryption
        Issuer: C=US, ST=OH, L=Columbus, O=VikingVPN, OU=MyOrganizationalUnit, CN=VikingVPN CA/name=EasyRSA/emailAddress=me@myhost.mydomain
        Validity
            Not Before: Apr 16 19:03:08 2017 GMT
            Not After : Apr 14 19:03:08 2027 GMT
        Subject: CN=Client341Certaf3718
        Subject Public Key Info:
            Public Key Algorithm: rsaEncryption
                Public-Key: (4096 bit)
                Modulus:
                    00:9a:f6:ac:d8:33:10:59:2a:7d:53:0c:71:d8:6d:
                    9c:5c:64:52:81:22:08:d5:b7:bf:90:7c:ba:66:8c:
                    da:f2:5c:e5:2b:40:05:3d:64:c4:ad:8a:03:8f:bc:
                    5f:39:ae:42:d5:c4:fd:45:1e:66:53:86:ec:f6:4d:
                    0c:bf:12:33:cb:be:ef:a6:50:ee:f4:24:23:d7:dc:
                    06:f6:7a:d5:d0:53:13:99:1d:ee:3f:f3:39:53:57:
                    85:4c:20:98:52:ba:51:52:00:e4:e1:c1:6b:d4:fd:
                    d7:c8:f0:84:ff:cd:2a:16:27:3c:a6:97:89:a4:cd:
                    dd:39:ed:3a:83:dd:23:b4:98:9c:55:6a:d9:32:e6:
                    37:3c:45:9e:dd:cb:cb:1f:d2:e8:48:99:f0:50:49:
                    e8:af:ab:41:57:00:37:31:48:b6:46:b4:6f:8b:29:
                    76:5a:9d:a2:85:3e:71:e7:60:48:49:01:7d:dc:fe:
                    3f:59:21:57:84:d4:a2:a1:2c:1a:6a:86:9a:cc:2b:
                    19:26:c4:6a:22:80:e3:41:9a:d4:82:0d:33:7b:9e:
                    b5:ce:e7:0a:57:c0:cd:40:21:55:ee:4c:ee:70:a6:
                    f8:a7:cf:32:7e:96:be:b8:13:8e:27:26:52:9b:21:
                    c0:96:97:e5:0d:d2:2f:73:93:65:36:8c:f0:58:6c:
                    87:70:4e:6c:3a:01:6e:6e:c4:fe:51:d1:18:a9:4f:
                    cf:3b:85:69:e2:ca:9e:70:5f:42:67:a0:21:37:6e:
                    8a:8d:fa:98:af:39:f3:d3:c0:4a:b9:ab:88:de:e9:
                    cb:43:80:ca:39:36:93:70:bd:fe:57:a9:3e:cd:b4:
                    78:ec:0f:6a:74:70:b1:49:0b:3b:af:6d:70:a2:25:
                    e6:ea:46:b3:6b:8c:c9:84:07:d9:8e:fc:20:ce:08:
                    8c:5c:85:94:a3:7c:b3:1b:73:73:8d:b0:4d:31:f5:
                    fb:c7:d5:d9:c4:44:79:38:9b:71:05:64:3f:a9:8c:
                    1a:64:36:a0:48:c8:fc:74:16:59:83:56:7f:9f:41:
                    2e:c7:8c:10:9f:e5:fb:34:5e:ad:af:ef:a3:77:c6:
                    4e:16:ff:48:12:36:6c:87:ac:d8:63:d7:3b:6d:0e:
                    d8:0e:cc:e0:f7:17:6b:ba:eb:4a:c8:21:60:df:04:
                    cf:82:ba:f4:42:cf:8a:15:d6:d1:b1:18:ec:dd:00:
                    ee:5a:af:9c:07:c4:8d:79:66:f5:c3:b0:a4:60:98:
                    8b:fe:32:b2:05:3b:be:02:06:0a:e2:7c:ca:ea:eb:
                    28:57:4e:a0:ee:ff:4e:0e:2c:56:d4:0f:f3:e3:88:
                    db:0a:59:fd:8a:a8:a6:9a:d4:53:af:12:c6:b6:ea:
                    40:ea:33
                Exponent: 65537 (0x10001)
        X509v3 extensions:
            X509v3 Basic Constraints: 
                CA:FALSE
            Netscape Comment: 
                Easy-RSA Generated Certificate
            X509v3 Subject Key Identifier: 
                77:B5:06:4D:F1:56:81:54:76:FD:07:D0:D1:CF:51:7B:6F:6E:C8:4C
            X509v3 Authority Key Identifier: 
                keyid:12:CD:60:04:D2:A0:80:9E:70:ED:C6:99:B8:7B:2C:C6:52:FD:19:A1
                DirName:/C=US/ST=OH/L=Columbus/O=VikingVPN/OU=MyOrganizationalUnit/CN=VikingVPN CA/name=EasyRSA/emailAddress=me@myhost.mydomain
                serial:CF:35:85:EE:80:BF:2A:3E

            X509v3 Extended Key Usage: 
                TLS Web Client Authentication
            X509v3 Key Usage: 
                Digital Signature
    Signature Algorithm: sha256WithRSAEncryption
         77:1f:1e:09:b4:d2:e2:09:b1:91:bb:6d:47:77:3d:f3:39:6b:
         29:1c:f5:fb:cc:43:f9:90:98:51:0e:46:9a:7b:64:b4:ad:f5:
         fc:46:af:b7:2c:b1:bb:4f:cc:86:c4:32:41:d0:d4:de:fc:41:
         eb:31:e0:4c:a5:04:eb:da:8f:1c:61:f7:1e:2c:50:3f:65:0e:
         26:7b:4b:53:04:ea:e2:a2:85:1c:6e:b3:77:aa:c7:a5:61:d5:
         2f:d0:0b:80:07:39:7c:a7:6c:65:58:1c:ed:91:af:ce:6b:2b:
         96:c2:d9:f3:b6:8b:84:ad:b5:ff:05:12:6c:80:14:c1:c2:ae:
         1d:97:c1:3a:48:9d:af:aa:8a:3f:aa:13:48:e2:4a:90:66:83:
         32:6d:8a:6d:c1:1a:2e:f1:46:ed:db:7e:57:29:f9:7e:01:a8:
         56:5f:10:18:27:65:b7:fd:25:ae:da:f4:b9:5e:b0:ab:ce:35:
         33:76:03:5f:a7:c5:0d:b6:5f:7e:a6:88:43:b7:ae:82:b2:f6:
         fb:1e:21:a4:f3:52:b7:0e:d2:d2:0f:ce:24:1f:7c:ac:b7:4c:
         49:41:a9:46:c5:8e:e7:1f:74:94:49:c2:e9:92:27:78:7f:2a:
         ad:75:5b:08:f9:b0:65:5a:4d:50:7e:20:2a:d4:e2:ea:f6:e5:
         d4:d2:b2:0f:f3:28:d7:56:61:b1:58:d7:bc:ed:3e:6f:1d:aa:
         2d:e7:ca:22:a3:54:0f:12:c2:0a:df:8b:7d:b2:27:57:2e:27:
         e3:c7:2e:f2:01:42:21:9f:a3:f2:78:70:e7:81:7f:d3:04:f4:
         69:09:d6:43:e9:71:9a:3a:66:05:61:a1:8c:4b:f0:66:a8:87:
         74:4d:67:14:42:03:d9:c4:fe:90:61:26:9d:aa:30:b8:01:dc:
         91:bf:71:aa:51:c2:44:b3:ea:4b:db:09:8d:5e:bc:b7:eb:6f:
         88:c3:0d:7f:3e:f6:d0:44:f2:96:d2:41:3f:39:46:10:46:b5:
         68:c0:09:40:30:9e:0a:f5:0a:cc:bd:2b:72:58:cd:34:d2:84:
         7e:24:2f:3c:1d:95:e9:f1:bc:e9:29:fe:19:e9:40:84:47:3e:
         30:14:e8:cb:2c:39:12:b8:be:d4:8b:f6:ff:3e:55:77:34:81:
         a6:58:73:6f:aa:59:00:79:51:d8:d0:d7:b8:ea:b5:1e:47:7e:
         1f:de:d4:07:f9:d5:97:72:06:90:24:d2:1f:f2:56:28:85:8c:
         82:fe:06:11:12:53:ea:63:88:73:62:f8:3e:2c:5f:6c:1f:ff:
         c2:b8:f6:b6:ea:2f:62:ea:8f:13:a5:b6:28:6e:35:95:69:b8:
         16:0a:82:0a:47:c5:b0:a0
-----BEGIN CERTIFICATE-----
MIIGrDCCBJSgAwIBAgICKaAwDQYJKoZIhvcNAQELBQAwgawxCzAJBgNVBAYTAlVT
MQswCQYDVQQIEwJPSDERMA8GA1UEBxMIQ29sdW1idXMxEjAQBgNVBAoTCVZpa2lu
Z1ZQTjEdMBsGA1UECxMUTXlPcmdhbml6YXRpb25hbFVuaXQxFTATBgNVBAMTDFZp
a2luZ1ZQTiBDQTEQMA4GA1UEKRMHRWFzeVJTQTEhMB8GCSqGSIb3DQEJARYSbWVA
bXlob3N0Lm15ZG9tYWluMB4XDTE3MDQxNjE5MDMwOFoXDTI3MDQxNDE5MDMwOFow
HjEcMBoGA1UEAxMTQ2xpZW50MzQxQ2VydGFmMzcxODCCAiIwDQYJKoZIhvcNAQEB
BQADggIPADCCAgoCggIBAJr2rNgzEFkqfVMMcdhtnFxkUoEiCNW3v5B8umaM2vJc
5StABT1kxK2KA4+8XzmuQtXE/UUeZlOG7PZNDL8SM8u+76ZQ7vQkI9fcBvZ61dBT
E5kd7j/zOVNXhUwgmFK6UVIA5OHBa9T918jwhP/NKhYnPKaXiaTN3TntOoPdI7SY
nFVq2TLmNzxFnt3Lyx/S6EiZ8FBJ6K+rQVcANzFItka0b4spdlqdooU+cedgSEkB
fdz+P1khV4TUoqEsGmqGmswrGSbEaiKA40Ga1IINM3uetc7nClfAzUAhVe5M7nCm
+KfPMn6WvrgTjicmUpshwJaX5Q3SL3OTZTaM8Fhsh3BObDoBbm7E/lHRGKlPzzuF
aeLKnnBfQmegITduio36mK8589PASrmriN7py0OAyjk2k3C9/lepPs20eOwPanRw
sUkLO69tcKIl5upGs2uMyYQH2Y78IM4IjFyFlKN8sxtzc42wTTH1+8fV2cREeTib
cQVkP6mMGmQ2oEjI/HQWWYNWf59BLseMEJ/l+zRera/vo3fGThb/SBI2bIes2GPX
O20O2A7M4PcXa7rrSsghYN8Ez4K69ELPihXW0bEY7N0A7lqvnAfEjXlm9cOwpGCY
i/4ysgU7vgIGCuJ8yurrKFdOoO7/Tg4sVtQP8+OI2wpZ/YqopprUU68SxrbqQOoz
AgMBAAGjggFjMIIBXzAJBgNVHRMEAjAAMC0GCWCGSAGG+EIBDQQgFh5FYXN5LVJT
QSBHZW5lcmF0ZWQgQ2VydGlmaWNhdGUwHQYDVR0OBBYEFHe1Bk3xVoFUdv0H0NHP
UXtvbshMMIHhBgNVHSMEgdkwgdaAFBLNYATSoICecO3Gmbh7LMZS/RmhoYGypIGv
MIGsMQswCQYDVQQGEwJVUzELMAkGA1UECBMCT0gxETAPBgNVBAcTCENvbHVtYnVz
MRIwEAYDVQQKEwlWaWtpbmdWUE4xHTAbBgNVBAsTFE15T3JnYW5pemF0aW9uYWxV
bml0MRUwEwYDVQQDEwxWaWtpbmdWUE4gQ0ExEDAOBgNVBCkTB0Vhc3lSU0ExITAf
BgkqhkiG9w0BCQEWEm1lQG15aG9zdC5teWRvbWFpboIJAM81he6Avyo+MBMGA1Ud
JQQMMAoGCCsGAQUFBwMCMAsGA1UdDwQEAwIHgDANBgkqhkiG9w0BAQsFAAOCAgEA
dx8eCbTS4gmxkbttR3c98zlrKRz1+8xD+ZCYUQ5GmntktK31/Eavtyyxu0/MhsQy
QdDU3vxB6zHgTKUE69qPHGH3HixQP2UOJntLUwTq4qKFHG6zd6rHpWHVL9ALgAc5
fKdsZVgc7ZGvzmsrlsLZ87aLhK21/wUSbIAUwcKuHZfBOkidr6qKP6oTSOJKkGaD
Mm2KbcEaLvFG7dt+Vyn5fgGoVl8QGCdlt/0lrtr0uV6wq841M3YDX6fFDbZffqaI
Q7eugrL2+x4hpPNStw7S0g/OJB98rLdMSUGpRsWO5x90lEnC6ZIneH8qrXVbCPmw
ZVpNUH4gKtTi6vbl1NKyD/Mo11ZhsVjXvO0+bx2qLefKIqNUDxLCCt+LfbInVy4n
48cu8gFCIZ+j8nhw54F/0wT0aQnWQ+lxmjpmBWGhjEvwZqiHdE1nFEID2cT+kGEm
naowuAHckb9xqlHCRLPqS9sJjV68t+tviMMNfz720ETyltJBPzlGEEa1aMAJQDCe
CvUKzL0rcljNNNKEfiQvPB2V6fG86Sn+GelAhEc+MBToyyw5Eri+1Iv2/z5VdzSB
plhzb6pZAHlR2NDXuOq1Hkd+H97UB/nVl3IGkCTSH/JWKIWMgv4GERJT6mOIc2L4
PixfbB//wrj2tuovYuqPE6W2KG41lWm4FgqCCkfFsKA=
-----END CERTIFICATE-----
