Certificate:
    Data:
        Version: 3 (0x2)
        Serial Number: 6220 (0x184c)
    Signature Algorithm: md5WithRSAEncryption
        Issuer: C=US, ST=OH, L=Columbus, O=VikingVPN, OU=MyOrganizationalUnit, CN=VikingVPN CA/name=EasyRSA/emailAddress=me@myhost.mydomain
        Validity
            Not Before: Sep  6 18:26:25 2015 GMT
            Not After : Sep  3 18:26:25 2025 GMT
        Subject: CN=Client1895Cert2a17d1
        Subject Public Key Info:
            Public Key Algorithm: rsaEncryption
                Public-Key: (4096 bit)
                Modulus:
                    00:cd:12:0e:96:21:3d:f3:dc:8a:05:4f:43:22:c2:
                    9b:67:d5:a1:88:25:2e:bf:ae:a8:1f:0c:95:01:55:
                    37:2e:74:9c:41:25:76:d7:c5:1d:16:69:7a:41:f8:
                    90:7a:4b:34:62:7f:92:2a:46:86:46:f1:a0:0e:df:
                    c1:4a:fa:fa:2e:3d:c1:c0:4a:c9:ff:34:72:80:12:
                    25:33:cc:52:fb:7a:36:ec:dd:d9:49:82:a7:de:b0:
                    b3:d3:0f:39:00:b1:d4:f7:5c:52:af:de:69:2d:12:
                    6b:f5:f0:44:52:30:d2:0c:8d:c4:cc:48:b5:fd:07:
                    a9:bf:bf:0a:c4:7d:ad:1f:ca:76:ee:2c:3a:ca:73:
                    da:f8:bf:82:56:9e:8c:d2:12:78:14:c6:4a:20:59:
                    27:ec:31:2d:38:0e:9b:b5:2a:a8:c3:c5:df:2f:4f:
                    ef:4a:f2:63:12:9e:d3:dc:c1:81:5a:80:a2:07:e2:
                    ab:91:06:78:8a:ad:e8:2a:61:14:b4:96:88:1a:03:
                    9c:56:62:3c:2a:cb:9d:d7:bd:b2:f1:2f:d9:b3:2d:
                    1b:64:ae:f2:98:d3:64:ec:b6:1d:fe:be:6a:d0:f9:
                    e9:71:27:cb:4c:f6:df:d2:0e:dd:3d:42:81:ea:d9:
                    29:6a:dd:27:83:2f:6c:f5:98:37:bf:d2:c1:58:b0:
                    ae:ee:3b:03:62:ac:b8:6d:e1:e9:34:67:06:95:5c:
                    4c:4b:52:c9:af:2f:db:af:96:18:2d:37:fc:9e:03:
                    59:a6:5c:00:ea:b2:c6:2c:85:7b:1d:0a:27:9e:b1:
                    67:8e:10:5a:df:10:e1:fa:c2:b0:18:bf:82:50:d3:
                    6d:e4:51:e5:b7:d4:58:e9:65:30:18:ba:a8:51:a5:
                    7b:ab:46:f7:49:5f:5e:65:5f:6c:50:10:8f:78:8c:
                    89:d7:d2:2c:3f:4e:b9:9c:54:b8:f4:6b:b5:e7:f4:
                    22:29:da:fa:4e:57:b1:21:f1:e0:a2:c4:76:7f:5e:
                    21:74:9c:ea:d0:c6:3e:55:6d:22:e7:b3:17:0e:99:
                    2a:bb:d2:d2:ea:f7:99:6d:e8:03:94:a0:e7:24:87:
                    a8:46:2b:ae:6c:5a:9f:de:2b:91:de:eb:a7:7d:d6:
                    b4:c0:b0:cc:7e:0c:8e:d7:78:ab:86:c4:54:22:e0:
                    1e:7a:bb:a1:43:26:84:a1:b0:39:77:39:db:b5:5d:
                    b0:e0:79:14:d9:8d:37:80:ea:e1:04:fe:15:f1:3e:
                    b0:3a:fd:4c:9f:58:5a:03:52:40:34:9c:2b:67:ff:
                    eb:5a:ee:a7:43:5a:8b:f8:fa:3c:57:7d:bf:20:ad:
                    d7:9d:fa:64:f7:4d:0b:80:49:80:f0:f6:30:e5:d4:
                    ac:77:45
                Exponent: 65537 (0x10001)
        X509v3 extensions:
            X509v3 Basic Constraints: 
                CA:FALSE
            Netscape Comment: 
                Easy-RSA Generated Certificate
            X509v3 Subject Key Identifier: 
                9B:61:26:AF:32:84:C2:D3:C5:8D:BE:28:80:40:E8:6C:F9:9D:25:F2
            X509v3 Authority Key Identifier: 
                keyid:12:CD:60:04:D2:A0:80:9E:70:ED:C6:99:B8:7B:2C:C6:52:FD:19:A1
                DirName:/C=US/ST=OH/L=Columbus/O=VikingVPN/OU=MyOrganizationalUnit/CN=VikingVPN CA/name=EasyRSA/emailAddress=me@myhost.mydomain
                serial:CF:35:85:EE:80:BF:2A:3E

            X509v3 Extended Key Usage: 
                TLS Web Client Authentication
            X509v3 Key Usage: 
                Digital Signature
    Signature Algorithm: md5WithRSAEncryption
         e5:71:c8:19:e4:2a:c6:ee:c8:22:cc:9e:db:12:f6:35:cd:67:
         28:32:50:e3:9c:e0:87:4c:de:86:7c:4c:92:f9:25:e3:e6:b5:
         db:d6:7e:83:05:22:37:12:17:10:d9:54:5b:2a:f8:24:bf:1a:
         e2:84:ad:69:1a:65:a3:3a:35:7c:37:a0:19:99:d1:f8:32:97:
         39:d3:32:bc:21:3d:28:19:ad:2d:fa:09:2b:fc:c2:8a:ed:85:
         5b:f0:60:93:7d:80:88:cd:b3:4f:64:b5:3f:79:cf:e5:8e:29:
         d3:99:d7:03:fe:41:cf:ad:75:f6:03:8a:92:60:58:eb:01:6f:
         a2:32:0b:45:ad:88:2a:e6:cf:44:68:74:32:3c:3e:37:8d:c1:
         9c:e8:23:db:4d:33:70:3c:69:17:6a:7d:56:5d:86:6b:90:da:
         75:5c:42:1b:b8:8f:a1:ea:4e:3e:e5:6a:86:e1:50:dc:8b:2d:
         ba:c9:5a:16:0d:47:ba:49:63:3d:3b:c7:06:0e:60:3f:7c:e4:
         70:86:ee:b2:8e:45:65:31:66:aa:01:5c:b0:77:1a:fb:26:d0:
         20:0a:e8:2d:ee:88:91:25:8b:25:62:8e:07:a0:7f:a7:9e:fd:
         da:9f:90:05:4c:ba:ed:40:1b:b7:69:72:ca:87:d5:cd:15:2f:
         0a:e2:d5:1d:a4:42:35:b8:46:7a:ae:47:78:98:ab:05:de:27:
         3a:02:00:50:80:7a:e1:d0:e6:98:cf:0a:dd:77:83:2d:36:4b:
         79:90:59:9d:cd:5b:94:a9:e7:23:7c:94:95:9c:4d:d5:81:f5:
         e0:4c:a2:de:36:fc:ea:f6:c8:b9:1c:86:a7:30:c5:64:1e:76:
         34:29:70:64:fb:53:f3:81:fb:8b:61:d9:30:d9:b6:ed:ab:e6:
         61:26:66:0a:b3:48:1c:63:05:67:c1:c4:cc:91:c3:a4:f6:37:
         6c:46:70:54:61:90:4d:15:71:3e:27:00:04:9e:97:c4:f6:bb:
         6f:33:52:f8:ef:60:02:5f:55:c9:d7:1d:50:ce:02:a0:89:59:
         71:34:63:0b:f6:56:db:f1:99:f6:f8:71:3e:5d:83:75:5e:b4:
         c4:b2:f0:45:39:1b:bb:40:d8:9d:0a:2c:4a:ee:c4:f8:8a:02:
         e4:96:0a:96:f0:a9:ca:d6:89:5c:b9:0f:20:74:7c:6d:3c:fc:
         66:67:fa:d1:0a:a1:5d:52:8d:6e:63:a4:3c:8a:a0:a0:bb:58:
         a0:83:f4:6e:15:a8:ab:f9:8d:ea:f4:26:0a:a4:bd:34:2f:b0:
         59:9f:c2:a2:f1:f6:07:ed:30:df:41:d2:78:c8:db:89:a2:42:
         31:9d:04:65:bc:0a:fb:f2
-----BEGIN CERTIFICATE-----
MIIGrTCCBJWgAwIBAgICGEwwDQYJKoZIhvcNAQEEBQAwgawxCzAJBgNVBAYTAlVT
MQswCQYDVQQIEwJPSDERMA8GA1UEBxMIQ29sdW1idXMxEjAQBgNVBAoTCVZpa2lu
Z1ZQTjEdMBsGA1UECxMUTXlPcmdhbml6YXRpb25hbFVuaXQxFTATBgNVBAMTDFZp
a2luZ1ZQTiBDQTEQMA4GA1UEKRMHRWFzeVJTQTEhMB8GCSqGSIb3DQEJARYSbWVA
bXlob3N0Lm15ZG9tYWluMB4XDTE1MDkwNjE4MjYyNVoXDTI1MDkwMzE4MjYyNVow
HzEdMBsGA1UEAxMUQ2xpZW50MTg5NUNlcnQyYTE3ZDEwggIiMA0GCSqGSIb3DQEB
AQUAA4ICDwAwggIKAoICAQDNEg6WIT3z3IoFT0Miwptn1aGIJS6/rqgfDJUBVTcu
dJxBJXbXxR0WaXpB+JB6SzRif5IqRoZG8aAO38FK+vouPcHASsn/NHKAEiUzzFL7
ejbs3dlJgqfesLPTDzkAsdT3XFKv3mktEmv18ERSMNIMjcTMSLX9B6m/vwrEfa0f
ynbuLDrKc9r4v4JWnozSEngUxkogWSfsMS04Dpu1KqjDxd8vT+9K8mMSntPcwYFa
gKIH4quRBniKregqYRS0logaA5xWYjwqy53XvbLxL9mzLRtkrvKY02Tsth3+vmrQ
+elxJ8tM9t/SDt09QoHq2Slq3SeDL2z1mDe/0sFYsK7uOwNirLht4ek0ZwaVXExL
UsmvL9uvlhgtN/yeA1mmXADqssYshXsdCieesWeOEFrfEOH6wrAYv4JQ023kUeW3
1FjpZTAYuqhRpXurRvdJX15lX2xQEI94jInX0iw/TrmcVLj0a7Xn9CIp2vpOV7Eh
8eCixHZ/XiF0nOrQxj5VbSLnsxcOmSq70tLq95lt6AOUoOckh6hGK65sWp/eK5He
66d91rTAsMx+DI7XeKuGxFQi4B56u6FDJoShsDl3Odu1XbDgeRTZjTeA6uEE/hXx
PrA6/UyfWFoDUkA0nCtn/+ta7qdDWov4+jxXfb8grded+mT3TQuASYDw9jDl1Kx3
RQIDAQABo4IBYzCCAV8wCQYDVR0TBAIwADAtBglghkgBhvhCAQ0EIBYeRWFzeS1S
U0EgR2VuZXJhdGVkIENlcnRpZmljYXRlMB0GA1UdDgQWBBSbYSavMoTC08WNviiA
QOhs+Z0l8jCB4QYDVR0jBIHZMIHWgBQSzWAE0qCAnnDtxpm4eyzGUv0ZoaGBsqSB
rzCBrDELMAkGA1UEBhMCVVMxCzAJBgNVBAgTAk9IMREwDwYDVQQHEwhDb2x1bWJ1
czESMBAGA1UEChMJVmlraW5nVlBOMR0wGwYDVQQLExRNeU9yZ2FuaXphdGlvbmFs
VW5pdDEVMBMGA1UEAxMMVmlraW5nVlBOIENBMRAwDgYDVQQpEwdFYXN5UlNBMSEw
HwYJKoZIhvcNAQkBFhJtZUBteWhvc3QubXlkb21haW6CCQDPNYXugL8qPjATBgNV
HSUEDDAKBggrBgEFBQcDAjALBgNVHQ8EBAMCB4AwDQYJKoZIhvcNAQEEBQADggIB
AOVxyBnkKsbuyCLMntsS9jXNZygyUOOc4IdM3oZ8TJL5JePmtdvWfoMFIjcSFxDZ
VFsq+CS/GuKErWkaZaM6NXw3oBmZ0fgylznTMrwhPSgZrS36CSv8worthVvwYJN9
gIjNs09ktT95z+WOKdOZ1wP+Qc+tdfYDipJgWOsBb6IyC0WtiCrmz0RodDI8PjeN
wZzoI9tNM3A8aRdqfVZdhmuQ2nVcQhu4j6HqTj7laobhUNyLLbrJWhYNR7pJYz07
xwYOYD985HCG7rKORWUxZqoBXLB3Gvsm0CAK6C3uiJEliyVijgegf6ee/dqfkAVM
uu1AG7dpcsqH1c0VLwri1R2kQjW4RnquR3iYqwXeJzoCAFCAeuHQ5pjPCt13gy02
S3mQWZ3NW5Sp5yN8lJWcTdWB9eBMot42/Or2yLkchqcwxWQedjQpcGT7U/OB+4th
2TDZtu2r5mEmZgqzSBxjBWfBxMyRw6T2N2xGcFRhkE0VcT4nAASel8T2u28zUvjv
YAJfVcnXHVDOAqCJWXE0Ywv2Vtvxmfb4cT5dg3VetMSy8EU5G7tA2J0KLEruxPiK
AuSWCpbwqcrWiVy5DyB0fG08/GZn+tEKoV1SjW5jpDyKoKC7WKCD9G4VqKv5jer0
JgqkvTQvsFmfwqLx9gftMN9B0njI24miQjGdBGW8Cvvy
-----END CERTIFICATE-----
