Certificate:
    Data:
        Version: 3 (0x2)
        Serial Number: 11972 (0x2ec4)
    Signature Algorithm: sha256WithRSAEncryption
        Issuer: C=US, ST=OH, L=Columbus, O=VikingVPN, OU=MyOrganizationalUnit, CN=VikingVPN CA/name=EasyRSA/emailAddress=me@myhost.mydomain
        Validity
            Not Before: Oct 15 22:25:48 2017 GMT
            Not After : Oct 13 22:25:48 2027 GMT
        Subject: CN=Client3128Cert0bc086
        Subject Public Key Info:
            Public Key Algorithm: rsaEncryption
                Public-Key: (4096 bit)
                Modulus:
                    00:c5:87:12:11:b7:e3:fc:d8:d8:9b:3c:ed:ea:d7:
                    58:1e:ff:3f:26:4f:22:68:4d:f5:a4:c9:a7:f3:99:
                    5c:71:97:cb:95:b1:a4:19:6e:f3:ea:56:c5:a3:5b:
                    64:60:98:95:da:5d:39:a4:20:f2:cf:54:ac:e0:c2:
                    ac:02:d1:df:12:72:7e:5e:e4:6e:e8:a8:87:41:51:
                    d9:44:45:f3:40:9e:a6:d2:d6:5f:18:9a:e5:f3:bc:
                    c7:cc:2d:dd:97:7b:fc:87:4e:d8:fe:8a:d7:6f:be:
                    c4:d6:e6:bc:30:2a:19:84:2c:61:6c:66:a5:30:d2:
                    a6:24:fe:9c:7f:21:33:78:7e:cf:34:b4:1e:52:b4:
                    90:85:03:c1:11:53:36:09:d0:de:dc:c7:fb:42:21:
                    01:3f:20:83:92:d6:c8:24:dd:cf:90:fe:0a:95:03:
                    aa:10:b4:95:fe:0e:f5:5f:0e:c8:c8:91:6c:4f:39:
                    3a:ab:40:85:46:e5:3f:cf:38:b1:23:72:5f:bd:35:
                    dd:f5:7b:9c:c7:f9:c6:b9:aa:07:fd:e6:52:ed:37:
                    d6:6b:d1:0f:80:0a:8f:b0:fa:7d:0d:ca:0f:1b:36:
                    9a:4a:0e:64:ef:df:c1:2a:eb:c7:8a:01:21:d1:87:
                    f2:b1:28:f9:e9:81:3c:44:bd:62:5b:e7:16:ef:ea:
                    a0:b6:ce:61:e5:fa:e1:c4:c9:05:56:71:5f:31:07:
                    db:a3:0c:31:ea:47:1b:8d:56:2a:a0:8c:1c:88:11:
                    7c:87:30:6c:e5:37:c1:3d:a6:8e:33:78:58:c7:ef:
                    b2:fd:51:31:db:68:5a:a7:96:38:88:5b:d4:22:26:
                    84:c8:fe:61:4e:dc:8c:c9:a4:ff:1f:79:32:01:3e:
                    79:6f:ff:14:fe:16:cf:05:73:8a:cb:40:c2:79:27:
                    6e:2e:18:fc:f2:b2:b4:18:d0:20:ac:d0:82:c3:46:
                    62:33:b5:b2:f3:14:e8:4c:d2:6b:d9:5f:67:d4:1d:
                    62:b0:7f:ee:b6:13:b1:98:e4:66:98:53:93:b4:2f:
                    68:c1:e7:0f:d4:6d:f3:eb:8e:f0:df:9d:92:c9:a3:
                    24:4a:cf:af:97:5f:81:8a:21:a4:13:d5:d3:08:e5:
                    99:69:2b:ed:cc:84:a2:6b:64:44:73:41:fb:90:cb:
                    83:b1:38:42:02:e9:ab:e8:44:b6:93:93:62:a3:2e:
                    19:42:bf:4b:35:5c:0c:b0:9b:00:25:26:52:25:54:
                    61:99:80:0f:98:5e:71:2d:b8:61:7b:3a:c5:ca:a8:
                    eb:1d:8b:4b:c7:8b:85:a6:f9:bd:23:0a:76:74:9e:
                    73:32:df:a1:6c:d8:b0:09:05:30:a4:4e:01:1d:34:
                    4f:75:a1
                Exponent: 65537 (0x10001)
        X509v3 extensions:
            X509v3 Basic Constraints: 
                CA:FALSE
            Netscape Comment: 
                Easy-RSA Generated Certificate
            X509v3 Subject Key Identifier: 
                1C:F2:B4:4D:0D:F9:EE:19:A8:82:47:42:1D:B2:FE:58:71:86:42:A2
            X509v3 Authority Key Identifier: 
                keyid:12:CD:60:04:D2:A0:80:9E:70:ED:C6:99:B8:7B:2C:C6:52:FD:19:A1
                DirName:/C=US/ST=OH/L=Columbus/O=VikingVPN/OU=MyOrganizationalUnit/CN=VikingVPN CA/name=EasyRSA/emailAddress=me@myhost.mydomain
                serial:CF:35:85:EE:80:BF:2A:3E

            X509v3 Extended Key Usage: 
                TLS Web Client Authentication
            X509v3 Key Usage: 
                Digital Signature
    Signature Algorithm: sha256WithRSAEncryption
         03:70:1a:f4:bc:46:f6:bb:d1:c8:a3:f8:fb:bf:95:ea:64:1b:
         11:46:1a:10:f3:fc:a1:a2:a7:d6:80:01:b5:3c:24:c7:d9:9f:
         d9:88:14:1b:94:5b:1c:e3:29:9f:74:3f:52:9f:11:f5:b9:3f:
         9d:d0:ed:d8:4a:4d:7a:aa:2b:b4:f5:93:ac:09:77:75:14:51:
         1d:8d:6f:50:03:f6:b4:4a:35:74:df:70:bb:37:63:9d:56:78:
         53:57:4d:d3:be:94:f1:74:96:55:df:43:a0:e4:3f:ea:9c:dc:
         21:50:47:fd:d3:a0:d3:33:0f:b1:fb:d8:e3:98:05:f2:f9:3c:
         97:11:4f:d9:ed:fe:6f:8b:e2:d4:87:fe:72:21:76:2b:6f:01:
         18:e8:cb:d1:96:de:6a:d3:35:70:e3:0f:f9:f2:22:9f:28:9b:
         98:53:c9:93:b8:37:ff:46:8d:3d:ae:ed:9e:42:e3:0f:a7:01:
         4c:10:11:de:94:e2:8e:19:2e:7f:a1:88:6b:25:04:ab:c0:71:
         71:6e:0b:55:64:5b:b7:a3:65:aa:dd:7d:f8:fb:16:d8:df:26:
         d7:d2:cc:ca:a7:be:1a:6a:9c:e6:2c:ad:a5:4d:24:22:88:86:
         6d:57:95:56:3d:68:83:b2:89:4d:ba:d0:ba:ca:7a:4c:32:25:
         a2:b0:32:d4:0d:61:0b:7d:83:2f:62:de:42:2d:f0:9f:e4:a3:
         d6:9c:b8:d5:1c:b3:41:d5:09:0c:26:4f:28:9b:d1:e2:04:8d:
         4f:d5:98:e7:a6:45:f3:44:aa:52:df:85:f4:ee:73:43:1d:26:
         81:b1:42:12:63:c6:aa:af:82:98:c0:8d:77:24:1e:20:3c:14:
         42:e9:6f:e8:ef:5b:f9:cd:3f:09:35:11:bd:ec:c7:c6:eb:60:
         11:ac:bd:29:6c:86:c3:d8:88:ab:80:cc:54:1d:b4:67:0e:72:
         16:fd:a9:32:a9:68:15:a6:87:63:47:c1:7f:c9:30:97:73:fa:
         de:ac:f9:18:86:80:e7:32:c4:eb:44:2d:63:77:de:b1:a0:ab:
         7b:b7:74:6d:aa:f6:ab:bc:d7:7a:3c:e7:10:fe:cf:62:e6:cd:
         50:4b:66:70:92:07:33:32:e5:56:e2:18:9a:14:d2:70:b8:85:
         90:b0:90:2b:71:d5:3c:8f:cc:51:01:4b:13:5a:91:8f:5e:d0:
         49:01:9a:94:90:1f:3b:25:d3:c7:f2:d1:91:44:85:0b:09:0a:
         f4:65:7c:22:6e:6f:26:f4:e8:39:b5:75:61:e5:e6:11:c7:1b:
         f5:03:29:03:cb:f5:8e:84:66:3e:e2:43:c3:a6:cc:86:59:48:
         19:83:60:9a:b0:03:43:13
-----BEGIN CERTIFICATE-----
MIIGrTCCBJWgAwIBAgICLsQwDQYJKoZIhvcNAQELBQAwgawxCzAJBgNVBAYTAlVT
MQswCQYDVQQIEwJPSDERMA8GA1UEBxMIQ29sdW1idXMxEjAQBgNVBAoTCVZpa2lu
Z1ZQTjEdMBsGA1UECxMUTXlPcmdhbml6YXRpb25hbFVuaXQxFTATBgNVBAMTDFZp
a2luZ1ZQTiBDQTEQMA4GA1UEKRMHRWFzeVJTQTEhMB8GCSqGSIb3DQEJARYSbWVA
bXlob3N0Lm15ZG9tYWluMB4XDTE3MTAxNTIyMjU0OFoXDTI3MTAxMzIyMjU0OFow
HzEdMBsGA1UEAxMUQ2xpZW50MzEyOENlcnQwYmMwODYwggIiMA0GCSqGSIb3DQEB
AQUAA4ICDwAwggIKAoICAQDFhxIRt+P82NibPO3q11ge/z8mTyJoTfWkyafzmVxx
l8uVsaQZbvPqVsWjW2RgmJXaXTmkIPLPVKzgwqwC0d8Scn5e5G7oqIdBUdlERfNA
nqbS1l8YmuXzvMfMLd2Xe/yHTtj+itdvvsTW5rwwKhmELGFsZqUw0qYk/px/ITN4
fs80tB5StJCFA8ERUzYJ0N7cx/tCIQE/IIOS1sgk3c+Q/gqVA6oQtJX+DvVfDsjI
kWxPOTqrQIVG5T/POLEjcl+9Nd31e5zH+ca5qgf95lLtN9Zr0Q+ACo+w+n0Nyg8b
NppKDmTv38Eq68eKASHRh/KxKPnpgTxEvWJb5xbv6qC2zmHl+uHEyQVWcV8xB9uj
DDHqRxuNViqgjByIEXyHMGzlN8E9po4zeFjH77L9UTHbaFqnljiIW9QiJoTI/mFO
3IzJpP8feTIBPnlv/xT+Fs8Fc4rLQMJ5J24uGPzysrQY0CCs0ILDRmIztbLzFOhM
0mvZX2fUHWKwf+62E7GY5GaYU5O0L2jB5w/UbfPrjvDfnZLJoyRKz6+XX4GKIaQT
1dMI5ZlpK+3MhKJrZERzQfuQy4OxOEIC6avoRLaTk2KjLhlCv0s1XAywmwAlJlIl
VGGZgA+YXnEtuGF7OsXKqOsdi0vHi4Wm+b0jCnZ0nnMy36Fs2LAJBTCkTgEdNE91
oQIDAQABo4IBYzCCAV8wCQYDVR0TBAIwADAtBglghkgBhvhCAQ0EIBYeRWFzeS1S
U0EgR2VuZXJhdGVkIENlcnRpZmljYXRlMB0GA1UdDgQWBBQc8rRNDfnuGaiCR0Id
sv5YcYZCojCB4QYDVR0jBIHZMIHWgBQSzWAE0qCAnnDtxpm4eyzGUv0ZoaGBsqSB
rzCBrDELMAkGA1UEBhMCVVMxCzAJBgNVBAgTAk9IMREwDwYDVQQHEwhDb2x1bWJ1
czESMBAGA1UEChMJVmlraW5nVlBOMR0wGwYDVQQLExRNeU9yZ2FuaXphdGlvbmFs
VW5pdDEVMBMGA1UEAxMMVmlraW5nVlBOIENBMRAwDgYDVQQpEwdFYXN5UlNBMSEw
HwYJKoZIhvcNAQkBFhJtZUBteWhvc3QubXlkb21haW6CCQDPNYXugL8qPjATBgNV
HSUEDDAKBggrBgEFBQcDAjALBgNVHQ8EBAMCB4AwDQYJKoZIhvcNAQELBQADggIB
AANwGvS8Rva70cij+Pu/lepkGxFGGhDz/KGip9aAAbU8JMfZn9mIFBuUWxzjKZ90
P1KfEfW5P53Q7dhKTXqqK7T1k6wJd3UUUR2Nb1AD9rRKNXTfcLs3Y51WeFNXTdO+
lPF0llXfQ6DkP+qc3CFQR/3ToNMzD7H72OOYBfL5PJcRT9nt/m+L4tSH/nIhditv
ARjoy9GW3mrTNXDjD/nyIp8om5hTyZO4N/9GjT2u7Z5C4w+nAUwQEd6U4o4ZLn+h
iGslBKvAcXFuC1VkW7ejZardffj7FtjfJtfSzMqnvhpqnOYsraVNJCKIhm1XlVY9
aIOyiU260LrKekwyJaKwMtQNYQt9gy9i3kIt8J/ko9acuNUcs0HVCQwmTyib0eIE
jU/VmOemRfNEqlLfhfTuc0MdJoGxQhJjxqqvgpjAjXckHiA8FELpb+jvW/nNPwk1
Eb3sx8brYBGsvSlshsPYiKuAzFQdtGcOchb9qTKpaBWmh2NHwX/JMJdz+t6s+RiG
gOcyxOtELWN33rGgq3u3dG2q9qu813o85xD+z2LmzVBLZnCSBzMy5VbiGJoU0nC4
hZCwkCtx1TyPzFEBSxNakY9e0EkBmpSQHzsl08fy0ZFEhQsJCvRlfCJubyb06Dm1
dWHl5hHHG/UDKQPL9Y6EZj7iQ8OmzIZZSBmDYJqwA0MT
-----END CERTIFICATE-----
