Certificate:
    Data:
        Version: 3 (0x2)
        Serial Number: 12300 (0x300c)
    Signature Algorithm: sha256WithRSAEncryption
        Issuer: C=US, ST=OH, L=Columbus, O=VikingVPN, OU=MyOrganizationalUnit, CN=VikingVPN CA/name=EasyRSA/emailAddress=me@myhost.mydomain
        Validity
            Not Before: Dec 26 23:47:02 2017 GMT
            Not After : Dec 24 23:47:02 2027 GMT
        Subject: CN=Client1929Cert296603
        Subject Public Key Info:
            Public Key Algorithm: rsaEncryption
                Public-Key: (4096 bit)
                Modulus:
                    00:d7:18:aa:b4:77:ec:9c:b9:fc:49:1f:71:5b:d5:
                    fb:5a:3d:bf:09:e9:c8:f2:d6:41:20:3b:95:08:00:
                    77:2a:bd:10:bf:ba:61:c7:67:82:25:f0:e8:57:33:
                    a2:82:1a:5a:db:cb:c8:f4:68:6d:f0:c2:0b:7c:7f:
                    b8:6e:30:3e:c2:6f:f4:ad:57:9a:5d:56:8c:c0:80:
                    10:9c:2d:c6:a7:0d:2f:09:6e:56:b1:55:a5:18:eb:
                    76:8e:e5:00:3e:c0:71:ff:41:b6:55:00:e2:3a:92:
                    60:fc:f7:49:75:69:b7:c5:08:56:21:a0:29:68:70:
                    34:3a:78:76:2f:38:c1:fa:64:d2:2a:0a:ee:31:5d:
                    60:d5:c1:b1:98:b8:a9:a2:25:99:1e:ce:f3:54:45:
                    9e:c8:84:a0:2a:e0:d3:97:38:c9:a4:9b:a2:ac:e0:
                    51:cc:4e:9f:62:43:31:ab:35:c6:44:d4:f8:2b:d0:
                    b9:d4:f8:90:52:08:27:b0:7a:da:37:9b:c6:b9:b1:
                    e3:d2:f6:23:0b:33:4d:fc:ad:cb:04:9f:c4:d2:1d:
                    4e:2d:8e:65:c8:51:ef:c6:30:5f:41:ba:b4:68:3e:
                    12:f9:e2:d4:a4:df:de:b4:f7:5e:29:52:78:7b:ba:
                    92:fb:bc:96:61:d3:39:f5:d3:87:64:f4:56:93:8b:
                    82:9d:75:78:50:ed:5e:c7:21:ec:c5:4a:ec:8c:5a:
                    ed:b5:cd:69:ae:ce:e4:20:27:5c:c4:bd:b8:32:ce:
                    97:7a:9e:ae:4d:c4:09:89:24:d6:eb:0b:6b:30:76:
                    f8:8b:49:65:b1:56:8b:d9:be:47:67:9f:8a:14:8f:
                    c4:37:e1:cc:e2:fc:bf:fb:a3:f3:3b:2f:43:6b:6e:
                    62:d0:23:9d:e2:4a:7f:ad:25:2b:ad:d8:6d:1a:1a:
                    19:86:40:cf:3a:bd:d0:11:f7:94:6b:d5:9b:4a:f2:
                    8b:63:ae:b3:74:fa:a3:5f:2b:75:92:98:f2:63:5c:
                    c9:65:8d:71:5d:33:21:d2:d1:3a:b5:c4:3f:d2:f2:
                    cb:3d:82:72:75:30:17:55:b3:cd:b0:21:e7:49:d4:
                    96:82:e1:41:91:c2:99:00:20:6c:08:05:a2:39:10:
                    45:ce:70:16:73:97:35:58:42:17:c1:09:4d:51:86:
                    61:be:83:25:88:dd:9a:8c:24:58:51:99:62:79:ca:
                    0a:68:25:79:7b:44:11:b4:b3:0c:a7:16:09:98:e5:
                    31:98:cb:d3:51:6b:4a:c4:02:d7:42:0d:23:42:35:
                    22:9d:65:c4:28:de:1a:22:91:3c:3a:6c:92:9d:6b:
                    bd:79:2d:ff:8f:2a:43:ef:a8:9a:ae:53:a7:a1:78:
                    e3:9f:f5
                Exponent: 65537 (0x10001)
        X509v3 extensions:
            X509v3 Basic Constraints: 
                CA:FALSE
            Netscape Comment: 
                Easy-RSA Generated Certificate
            X509v3 Subject Key Identifier: 
                12:C7:03:05:45:DA:61:8D:88:65:EA:EA:3C:AB:91:E5:48:99:56:07
            X509v3 Authority Key Identifier: 
                keyid:12:CD:60:04:D2:A0:80:9E:70:ED:C6:99:B8:7B:2C:C6:52:FD:19:A1
                DirName:/C=US/ST=OH/L=Columbus/O=VikingVPN/OU=MyOrganizationalUnit/CN=VikingVPN CA/name=EasyRSA/emailAddress=me@myhost.mydomain
                serial:CF:35:85:EE:80:BF:2A:3E

            X509v3 Extended Key Usage: 
                TLS Web Client Authentication
            X509v3 Key Usage: 
                Digital Signature
    Signature Algorithm: sha256WithRSAEncryption
         b8:dc:5a:57:83:e3:51:7b:bf:ae:7e:3a:c8:ff:15:04:76:88:
         0b:88:f6:78:43:54:6e:e5:c6:6d:4d:47:55:4a:78:67:9d:9f:
         4f:ef:d5:d3:d4:b8:bb:55:26:26:c3:34:49:19:f4:da:ec:d3:
         48:8a:ba:2c:cf:a5:8a:a2:2e:09:f8:50:22:10:08:55:49:ef:
         18:45:b7:69:f6:44:90:ac:41:a6:a2:18:03:3e:49:ed:a4:0f:
         ee:e0:e6:8e:3a:68:37:2c:c2:0f:11:3a:ed:60:74:25:c6:bc:
         c1:15:05:32:60:53:49:29:79:df:b5:c3:d1:39:88:59:06:05:
         57:3e:0f:8b:58:55:89:5c:01:d8:2e:d0:c1:27:58:8a:d7:7a:
         db:84:55:dd:8a:05:58:3c:3b:64:f8:55:5d:a7:2b:69:c5:64:
         50:b7:c5:13:f7:48:72:d9:8f:76:09:31:43:a0:4a:35:49:4c:
         d7:c6:43:26:d3:a3:fc:97:4f:24:41:ec:3e:bd:8e:c6:16:28:
         41:c6:e7:04:2c:c2:a5:4c:0e:b8:bc:a4:00:d6:33:74:e1:33:
         8d:6a:55:35:f0:80:ca:cc:4a:16:73:15:de:81:8e:3e:71:38:
         29:68:7a:19:bb:21:1a:10:f0:cb:28:8d:fd:96:d5:20:b6:2f:
         a6:eb:92:df:df:3c:6a:df:a7:e9:13:8c:96:ea:33:e7:a4:a1:
         54:f6:8f:56:b5:c0:a2:48:8b:f9:42:fe:4d:8d:9f:c7:6e:a1:
         d2:24:80:97:d5:e9:f6:cc:65:bc:e6:da:a4:2e:8f:97:3f:9e:
         04:d1:28:70:a6:d8:e2:80:34:b4:2a:17:b9:b4:2a:40:2e:8d:
         46:b4:54:32:ff:02:37:08:c7:30:62:95:d2:c5:f2:cb:6b:62:
         ff:2c:20:da:69:a9:52:dc:bf:6b:04:29:a4:72:e6:d8:c8:98:
         7f:b6:75:48:db:2e:e3:32:e2:bd:ed:9e:7f:50:65:ef:cd:74:
         4d:e9:67:81:48:51:ba:bd:9d:ee:62:4d:24:32:c5:f7:1a:08:
         e2:8c:23:71:fa:88:2c:2a:b2:30:4d:42:51:d1:59:59:87:41:
         eb:08:0b:7a:da:ec:43:bd:08:74:49:ff:71:37:6a:4a:33:81:
         42:26:8c:98:58:7b:4b:98:ed:89:d8:47:9a:e8:3e:53:46:bf:
         06:a8:cb:31:32:a9:6b:b7:88:55:ee:cc:74:bc:4c:d6:b0:b8:
         7c:17:6e:2b:d0:00:c8:b3:37:fd:cd:b3:4d:d2:a4:89:d2:d6:
         19:88:9e:e0:b1:7f:02:b2:fe:8b:ba:ac:0b:be:6d:84:15:5e:
         a3:6a:17:b4:8e:e2:e6:d5
-----BEGIN CERTIFICATE-----
MIIGrTCCBJWgAwIBAgICMAwwDQYJKoZIhvcNAQELBQAwgawxCzAJBgNVBAYTAlVT
MQswCQYDVQQIEwJPSDERMA8GA1UEBxMIQ29sdW1idXMxEjAQBgNVBAoTCVZpa2lu
Z1ZQTjEdMBsGA1UECxMUTXlPcmdhbml6YXRpb25hbFVuaXQxFTATBgNVBAMTDFZp
a2luZ1ZQTiBDQTEQMA4GA1UEKRMHRWFzeVJTQTEhMB8GCSqGSIb3DQEJARYSbWVA
bXlob3N0Lm15ZG9tYWluMB4XDTE3MTIyNjIzNDcwMloXDTI3MTIyNDIzNDcwMlow
HzEdMBsGA1UEAxMUQ2xpZW50MTkyOUNlcnQyOTY2MDMwggIiMA0GCSqGSIb3DQEB
AQUAA4ICDwAwggIKAoICAQDXGKq0d+ycufxJH3Fb1ftaPb8J6cjy1kEgO5UIAHcq
vRC/umHHZ4Il8OhXM6KCGlrby8j0aG3wwgt8f7huMD7Cb/StV5pdVozAgBCcLcan
DS8JblaxVaUY63aO5QA+wHH/QbZVAOI6kmD890l1abfFCFYhoClocDQ6eHYvOMH6
ZNIqCu4xXWDVwbGYuKmiJZkezvNURZ7IhKAq4NOXOMmkm6Ks4FHMTp9iQzGrNcZE
1Pgr0LnU+JBSCCeweto3m8a5sePS9iMLM038rcsEn8TSHU4tjmXIUe/GMF9BurRo
PhL54tSk3960914pUnh7upL7vJZh0zn104dk9FaTi4KddXhQ7V7HIezFSuyMWu21
zWmuzuQgJ1zEvbgyzpd6nq5NxAmJJNbrC2swdviLSWWxVovZvkdnn4oUj8Q34czi
/L/7o/M7L0NrbmLQI53iSn+tJSut2G0aGhmGQM86vdAR95Rr1ZtK8otjrrN0+qNf
K3WSmPJjXMlljXFdMyHS0Tq1xD/S8ss9gnJ1MBdVs82wIedJ1JaC4UGRwpkAIGwI
BaI5EEXOcBZzlzVYQhfBCU1RhmG+gyWI3ZqMJFhRmWJ5ygpoJXl7RBG0swynFgmY
5TGYy9NRa0rEAtdCDSNCNSKdZcQo3hoikTw6bJKda715Lf+PKkPvqJquU6eheOOf
9QIDAQABo4IBYzCCAV8wCQYDVR0TBAIwADAtBglghkgBhvhCAQ0EIBYeRWFzeS1S
U0EgR2VuZXJhdGVkIENlcnRpZmljYXRlMB0GA1UdDgQWBBQSxwMFRdphjYhl6uo8
q5HlSJlWBzCB4QYDVR0jBIHZMIHWgBQSzWAE0qCAnnDtxpm4eyzGUv0ZoaGBsqSB
rzCBrDELMAkGA1UEBhMCVVMxCzAJBgNVBAgTAk9IMREwDwYDVQQHEwhDb2x1bWJ1
czESMBAGA1UEChMJVmlraW5nVlBOMR0wGwYDVQQLExRNeU9yZ2FuaXphdGlvbmFs
VW5pdDEVMBMGA1UEAxMMVmlraW5nVlBOIENBMRAwDgYDVQQpEwdFYXN5UlNBMSEw
HwYJKoZIhvcNAQkBFhJtZUBteWhvc3QubXlkb21haW6CCQDPNYXugL8qPjATBgNV
HSUEDDAKBggrBgEFBQcDAjALBgNVHQ8EBAMCB4AwDQYJKoZIhvcNAQELBQADggIB
ALjcWleD41F7v65+Osj/FQR2iAuI9nhDVG7lxm1NR1VKeGedn0/v1dPUuLtVJibD
NEkZ9Nrs00iKuizPpYqiLgn4UCIQCFVJ7xhFt2n2RJCsQaaiGAM+Se2kD+7g5o46
aDcswg8ROu1gdCXGvMEVBTJgU0kped+1w9E5iFkGBVc+D4tYVYlcAdgu0MEnWIrX
etuEVd2KBVg8O2T4VV2nK2nFZFC3xRP3SHLZj3YJMUOgSjVJTNfGQybTo/yXTyRB
7D69jsYWKEHG5wQswqVMDri8pADWM3ThM41qVTXwgMrMShZzFd6Bjj5xOCloehm7
IRoQ8Msojf2W1SC2L6brkt/fPGrfp+kTjJbqM+ekoVT2j1a1wKJIi/lC/k2Nn8du
odIkgJfV6fbMZbzm2qQuj5c/ngTRKHCm2OKANLQqF7m0KkAujUa0VDL/AjcIxzBi
ldLF8strYv8sINppqVLcv2sEKaRy5tjImH+2dUjbLuMy4r3tnn9QZe/NdE3pZ4FI
Ubq9ne5iTSQyxfcaCOKMI3H6iCwqsjBNQlHRWVmHQesIC3ra7EO9CHRJ/3E3akoz
gUImjJhYe0uY7YnYR5roPlNGvwaoyzEyqWu3iFXuzHS8TNawuHwXbivQAMizN/3N
s03SpInS1hmInuCxfwKy/ou6rAu+bYQVXqNqF7SO4ubV
-----END CERTIFICATE-----
