Certificate:
    Data:
        Version: 3 (0x2)
        Serial Number: 3007 (0xbbf)
    Signature Algorithm: md5WithRSAEncryption
        Issuer: C=US, ST=OH, L=Columbus, O=VikingVPN, OU=MyOrganizationalUnit, CN=VikingVPN CA/name=EasyRSA/emailAddress=me@myhost.mydomain
        Validity
            Not Before: Oct  1 16:48:27 2014 GMT
            Not After : Sep 28 16:48:27 2024 GMT
        Subject: CN=Client58Cert4188f5
        Subject Public Key Info:
            Public Key Algorithm: rsaEncryption
                Public-Key: (4096 bit)
                Modulus:
                    00:a5:5d:66:ed:a3:b0:dc:b5:11:df:c8:13:67:d4:
                    e0:c3:e5:d9:e1:d9:d0:52:b0:3c:1c:b6:03:f2:74:
                    b2:f8:51:9a:9a:ce:15:87:ba:11:2d:c9:0a:9e:f9:
                    81:b1:81:a0:8f:21:10:13:f1:fe:e0:96:03:43:a1:
                    fb:f6:8f:32:87:7b:44:83:36:d9:b2:ff:09:7a:53:
                    09:d7:d7:6d:af:f0:d7:30:82:e5:8e:b2:f9:1c:39:
                    da:fc:d4:f5:26:c6:ab:ea:f0:18:ab:96:79:d5:1f:
                    79:a5:44:4e:c0:0c:a5:8c:28:dd:e5:23:06:c9:75:
                    df:73:89:ad:4f:9d:f0:e4:b5:99:73:cd:22:38:10:
                    35:89:72:06:a5:a5:93:c3:9d:b6:ec:6e:73:51:0e:
                    b1:61:0a:8d:a5:1d:2e:80:f1:f7:15:50:e0:48:08:
                    e9:5f:4d:d0:15:a3:40:f8:bb:46:7a:3f:9f:48:20:
                    7e:24:76:78:27:c7:17:54:74:43:4e:c7:cf:60:2f:
                    0f:5f:3c:d5:d3:b3:87:15:48:2b:a3:ac:97:31:fa:
                    9a:00:86:df:cd:57:7d:9c:5f:67:ef:a5:ae:86:8b:
                    09:e1:54:db:00:14:67:a3:7f:c5:18:bb:60:1b:9c:
                    40:91:e4:80:cd:a0:07:da:9f:c1:b4:8f:21:9a:f8:
                    8d:e9:7f:fa:f5:a9:22:ed:3c:ac:0c:52:29:e7:60:
                    2f:77:8b:41:81:90:e2:05:b5:2f:84:0e:b3:e4:13:
                    55:f8:11:c6:d5:f7:40:be:39:3c:24:ca:ce:c6:7e:
                    36:cb:c3:9a:03:09:a8:1a:f2:00:02:5a:80:6d:b6:
                    d1:65:08:6b:e1:74:6f:06:cb:a6:48:dc:56:53:09:
                    f0:a2:ab:4e:75:08:8c:d0:40:5c:e6:67:ad:ce:c2:
                    1f:ff:05:87:44:bf:33:e3:52:91:4a:c4:01:6c:ca:
                    2c:32:ec:a5:7f:c8:25:e6:e8:7c:95:81:ca:e8:95:
                    8c:ad:3a:2d:32:5f:44:32:5b:bb:8a:e8:a0:38:59:
                    89:4a:92:a1:df:f1:0c:74:37:47:48:6c:b1:24:ca:
                    27:8d:b4:f6:74:08:05:58:62:3c:cb:a1:08:fa:3c:
                    b6:ed:f3:c1:31:12:31:59:cf:62:5a:0c:95:65:4b:
                    84:be:01:de:15:80:f2:c3:27:aa:5e:bf:95:85:16:
                    fe:83:ea:b5:24:4f:a4:12:ae:1f:32:e7:d5:a9:bd:
                    50:1f:f4:f4:9a:92:fa:ad:54:65:74:2c:0a:c1:14:
                    75:20:ad:ed:fb:78:85:e8:f4:8c:40:f5:75:6a:54:
                    1b:65:a9:d1:e8:a0:b9:dc:e0:b8:a4:a6:e0:13:d4:
                    86:37:d9
                Exponent: 65537 (0x10001)
        X509v3 extensions:
            X509v3 Basic Constraints: 
                CA:FALSE
            Netscape Comment: 
                Easy-RSA Generated Certificate
            X509v3 Subject Key Identifier: 
                DA:88:24:32:2B:36:38:4A:33:10:9D:DC:7C:4D:66:B5:A9:0A:15:A8
            X509v3 Authority Key Identifier: 
                keyid:12:CD:60:04:D2:A0:80:9E:70:ED:C6:99:B8:7B:2C:C6:52:FD:19:A1
                DirName:/C=US/ST=OH/L=Columbus/O=VikingVPN/OU=MyOrganizationalUnit/CN=VikingVPN CA/name=EasyRSA/emailAddress=me@myhost.mydomain
                serial:CF:35:85:EE:80:BF:2A:3E

            X509v3 Extended Key Usage: 
                TLS Web Client Authentication
            X509v3 Key Usage: 
                Digital Signature
    Signature Algorithm: md5WithRSAEncryption
         25:a7:7f:37:36:6d:78:35:4e:81:2e:db:db:06:53:84:e5:ec:
         40:17:a0:14:88:07:4d:de:9b:d1:73:f5:fe:aa:ab:85:13:1a:
         07:fd:4a:0c:59:b1:b3:70:b1:d7:8f:5b:12:8d:3f:15:4f:31:
         d6:64:25:7b:ab:92:9d:11:5c:03:5d:29:32:b3:5a:ef:8b:e0:
         f3:02:6b:d2:41:44:18:af:92:6c:ca:6e:5f:68:0f:01:5c:14:
         13:66:d5:b0:d3:84:81:7d:1a:77:42:21:5f:fb:ff:91:82:4c:
         1b:7e:32:8b:7e:64:3a:7f:ea:96:6e:9f:88:e0:bc:20:55:94:
         4c:10:99:1e:14:df:fa:51:66:ca:71:02:0c:32:e9:b8:c4:b0:
         cc:f4:fc:e8:78:44:8c:53:4d:95:f1:db:4a:2c:e4:4c:17:67:
         96:61:7b:4c:8c:81:5a:99:35:9e:89:63:25:e0:9c:b4:ca:ec:
         d3:da:e5:29:b5:af:9f:c6:07:0e:11:52:05:5a:63:c7:4a:d0:
         5c:37:be:a2:30:f5:b5:41:c6:45:2c:e4:66:f9:5c:3b:4d:9b:
         29:f4:41:29:ff:91:25:e2:df:63:da:fc:71:6e:93:48:4f:bc:
         dd:2b:8d:d9:9a:1d:ed:e2:15:b7:18:fe:2c:c7:89:f6:36:54:
         c4:36:e8:3e:e6:ba:5c:c6:f1:2e:b9:f0:a5:ac:9a:ed:2c:2e:
         aa:0d:bb:34:72:b1:1c:91:50:7a:50:da:61:dc:91:17:84:c2:
         ad:1e:0c:a6:72:b2:b9:c7:c5:6c:f8:d2:e0:31:2a:71:a3:d7:
         d4:3b:95:8c:00:9f:d0:f7:9b:bf:82:05:31:1f:3f:03:cb:72:
         6d:3f:b1:b7:fb:ae:0e:e1:73:55:a2:57:fc:70:99:ef:35:ae:
         2c:df:df:04:83:af:86:ec:04:45:f8:dc:e8:26:a8:17:b2:60:
         f3:a7:78:c8:b4:f0:f5:10:5b:35:97:3e:80:d4:90:e6:de:49:
         4f:23:d8:39:fc:6c:0e:24:6c:db:b1:10:69:a8:9a:7a:56:39:
         e3:ef:88:42:8e:10:11:91:1a:6c:03:e9:37:ac:24:3b:d8:4d:
         03:a7:a6:d5:6f:57:2b:c6:7a:c4:ee:97:31:0e:84:20:32:58:
         7c:5f:2b:04:ee:43:ff:2b:b7:2b:b5:8c:90:b9:64:f8:d1:a7:
         c2:e9:c8:96:cc:59:25:09:68:8c:c7:5a:b8:41:8a:61:cb:56:
         fc:c1:2d:3f:1f:f1:40:82:b2:94:de:b8:42:ac:a7:46:65:dd:
         5f:84:d5:38:ad:a9:f5:75:78:54:b5:60:61:c1:c9:35:f2:bb:
         7a:da:d2:9b:74:19:75:b6
-----BEGIN CERTIFICATE-----
MIIGqzCCBJOgAwIBAgICC78wDQYJKoZIhvcNAQEEBQAwgawxCzAJBgNVBAYTAlVT
MQswCQYDVQQIEwJPSDERMA8GA1UEBxMIQ29sdW1idXMxEjAQBgNVBAoTCVZpa2lu
Z1ZQTjEdMBsGA1UECxMUTXlPcmdhbml6YXRpb25hbFVuaXQxFTATBgNVBAMTDFZp
a2luZ1ZQTiBDQTEQMA4GA1UEKRMHRWFzeVJTQTEhMB8GCSqGSIb3DQEJARYSbWVA
bXlob3N0Lm15ZG9tYWluMB4XDTE0MTAwMTE2NDgyN1oXDTI0MDkyODE2NDgyN1ow
HTEbMBkGA1UEAxMSQ2xpZW50NThDZXJ0NDE4OGY1MIICIjANBgkqhkiG9w0BAQEF
AAOCAg8AMIICCgKCAgEApV1m7aOw3LUR38gTZ9Tgw+XZ4dnQUrA8HLYD8nSy+FGa
ms4Vh7oRLckKnvmBsYGgjyEQE/H+4JYDQ6H79o8yh3tEgzbZsv8JelMJ19dtr/DX
MILljrL5HDna/NT1Jsar6vAYq5Z51R95pUROwAyljCjd5SMGyXXfc4mtT53w5LWZ
c80iOBA1iXIGpaWTw5227G5zUQ6xYQqNpR0ugPH3FVDgSAjpX03QFaNA+LtGej+f
SCB+JHZ4J8cXVHRDTsfPYC8PXzzV07OHFUgro6yXMfqaAIbfzVd9nF9n76WuhosJ
4VTbABRno3/FGLtgG5xAkeSAzaAH2p/BtI8hmviN6X/69aki7TysDFIp52Avd4tB
gZDiBbUvhA6z5BNV+BHG1fdAvjk8JMrOxn42y8OaAwmoGvIAAlqAbbbRZQhr4XRv
BsumSNxWUwnwoqtOdQiM0EBc5metzsIf/wWHRL8z41KRSsQBbMosMuylf8gl5uh8
lYHK6JWMrTotMl9EMlu7iuigOFmJSpKh3/EMdDdHSGyxJMonjbT2dAgFWGI8y6EI
+jy27fPBMRIxWc9iWgyVZUuEvgHeFYDywyeqXr+VhRb+g+q1JE+kEq4fMufVqb1Q
H/T0mpL6rVRldCwKwRR1IK3t+3iF6PSMQPV1alQbZanR6KC53OC4pKbgE9SGN9kC
AwEAAaOCAWMwggFfMAkGA1UdEwQCMAAwLQYJYIZIAYb4QgENBCAWHkVhc3ktUlNB
IEdlbmVyYXRlZCBDZXJ0aWZpY2F0ZTAdBgNVHQ4EFgQU2ogkMis2OEozEJ3cfE1m
takKFagwgeEGA1UdIwSB2TCB1oAUEs1gBNKggJ5w7caZuHssxlL9GaGhgbKkga8w
gawxCzAJBgNVBAYTAlVTMQswCQYDVQQIEwJPSDERMA8GA1UEBxMIQ29sdW1idXMx
EjAQBgNVBAoTCVZpa2luZ1ZQTjEdMBsGA1UECxMUTXlPcmdhbml6YXRpb25hbFVu
aXQxFTATBgNVBAMTDFZpa2luZ1ZQTiBDQTEQMA4GA1UEKRMHRWFzeVJTQTEhMB8G
CSqGSIb3DQEJARYSbWVAbXlob3N0Lm15ZG9tYWluggkAzzWF7oC/Kj4wEwYDVR0l
BAwwCgYIKwYBBQUHAwIwCwYDVR0PBAQDAgeAMA0GCSqGSIb3DQEBBAUAA4ICAQAl
p383Nm14NU6BLtvbBlOE5exAF6AUiAdN3pvRc/X+qquFExoH/UoMWbGzcLHXj1sS
jT8VTzHWZCV7q5KdEVwDXSkys1rvi+DzAmvSQUQYr5Jsym5faA8BXBQTZtWw04SB
fRp3QiFf+/+RgkwbfjKLfmQ6f+qWbp+I4LwgVZRMEJkeFN/6UWbKcQIMMum4xLDM
9PzoeESMU02V8dtKLORMF2eWYXtMjIFamTWeiWMl4Jy0yuzT2uUpta+fxgcOEVIF
WmPHStBcN76iMPW1QcZFLORm+Vw7TZsp9EEp/5El4t9j2vxxbpNIT7zdK43Zmh3t
4hW3GP4sx4n2NlTENug+5rpcxvEuufClrJrtLC6qDbs0crEckVB6UNph3JEXhMKt
HgymcrK5x8Vs+NLgMSpxo9fUO5WMAJ/Q95u/ggUxHz8Dy3JtP7G3+64O4XNVolf8
cJnvNa4s398Eg6+G7ARF+NzoJqgXsmDzp3jItPD1EFs1lz6A1JDm3klPI9g5/GwO
JGzbsRBpqJp6Vjnj74hCjhARkRpsA+k3rCQ72E0Dp6bVb1crxnrE7pcxDoQgMlh8
XysE7kP/K7crtYyQuWT40afC6ciWzFklCWiMx1q4QYphy1b8wS0/H/FAgrKU3rhC
rKdGZd1fhNU4ran1dXhUtWBhwck18rt62tKbdBl1tg==
-----END CERTIFICATE-----
