Certificate:
    Data:
        Version: 3 (0x2)
        Serial Number: 4274 (0x10b2)
    Signature Algorithm: md5WithRSAEncryption
        Issuer: C=US, ST=OH, L=Columbus, O=VikingVPN, OU=MyOrganizationalUnit, CN=VikingVPN CA/name=EasyRSA/emailAddress=me@myhost.mydomain
        Validity
            Not Before: Jan 26 02:36:08 2015 GMT
            Not After : Jan 23 02:36:08 2025 GMT
        Subject: CN=Client1398Certb45b8b
        Subject Public Key Info:
            Public Key Algorithm: rsaEncryption
                Public-Key: (4096 bit)
                Modulus:
                    00:ad:13:d2:1f:8e:69:fc:6b:35:ed:cf:85:06:58:
                    94:bc:d8:44:8b:2f:29:74:70:34:f2:74:a4:81:ca:
                    e7:32:c9:3d:9e:49:6f:c7:bc:4c:99:67:b2:57:d6:
                    b3:a3:e6:6c:ae:5b:a7:0a:47:d8:49:db:e8:86:f4:
                    3e:c5:93:77:d9:62:24:6c:91:1f:e3:40:eb:e3:8f:
                    e4:7a:71:15:d8:1d:1d:04:77:9e:e5:ba:3b:84:de:
                    3e:d8:36:f6:06:32:89:75:e3:83:f3:d7:58:00:a4:
                    54:c4:73:4f:6a:2f:14:10:af:12:67:0d:8f:61:56:
                    64:28:47:8f:22:20:b9:a1:48:fc:8c:19:3c:01:c5:
                    32:0b:1a:ff:75:29:b2:12:3b:aa:18:72:98:7e:57:
                    f7:17:c8:f5:88:4c:f8:7a:c6:42:5e:63:68:35:29:
                    81:87:05:85:2a:7e:d8:17:35:ae:12:ba:53:2c:7d:
                    bf:82:4c:09:d7:f6:f4:73:e7:16:82:77:bf:07:b4:
                    64:c2:59:25:4d:40:a2:af:56:cf:cc:74:c5:75:57:
                    2a:30:3e:a6:34:55:13:f4:66:b5:ad:49:26:2f:e8:
                    93:6a:57:00:e9:f3:d3:de:eb:bf:a6:77:c8:c8:b8:
                    d5:56:e4:e1:64:4c:f4:31:4a:53:e7:c0:ee:29:3f:
                    0e:3e:b3:41:0d:bb:a3:2a:c6:49:76:ba:9b:f0:bd:
                    3b:15:1e:26:ed:ce:2d:a6:ca:df:b6:b7:15:50:01:
                    a0:ae:d4:f7:23:ca:3d:26:48:41:ec:d9:fe:79:b0:
                    4c:53:e5:06:69:ef:5d:dd:1e:b6:9d:6e:5b:76:06:
                    5e:10:75:9c:39:92:41:de:68:d9:62:4b:69:45:e5:
                    d4:ae:aa:84:68:0b:12:07:5b:78:a0:51:ef:13:ec:
                    9a:48:f8:56:e4:e9:99:5f:95:3d:6b:90:ff:0e:cc:
                    98:3a:d5:3f:69:46:ce:7b:6c:e3:57:23:7b:99:31:
                    1f:85:37:f2:db:1c:1a:78:27:65:73:93:b2:26:de:
                    8f:5a:7c:68:35:c7:6d:98:25:7c:03:2d:7b:81:17:
                    32:05:8a:02:46:b8:e5:f4:5a:de:0e:53:93:a8:20:
                    b4:5b:72:60:e5:d5:6c:38:13:46:c7:24:0a:24:ff:
                    c9:c3:0f:72:03:52:e3:e4:95:d4:3c:dd:ce:04:dd:
                    49:31:c5:ab:f6:50:ad:0f:22:23:97:45:6e:42:d5:
                    c1:76:85:42:14:6f:e4:b3:a6:a1:66:d6:9a:2a:ae:
                    eb:dd:ac:e5:dd:74:65:a4:ab:73:32:1e:b8:36:c3:
                    2d:27:d0:24:c4:6a:c4:82:d6:b6:61:04:7f:19:47:
                    60:41:ef
                Exponent: 65537 (0x10001)
        X509v3 extensions:
            X509v3 Basic Constraints: 
                CA:FALSE
            Netscape Comment: 
                Easy-RSA Generated Certificate
            X509v3 Subject Key Identifier: 
                12:54:94:4D:7E:A2:18:77:EE:7F:44:FD:2C:A8:3D:35:5E:AD:80:BA
            X509v3 Authority Key Identifier: 
                keyid:12:CD:60:04:D2:A0:80:9E:70:ED:C6:99:B8:7B:2C:C6:52:FD:19:A1
                DirName:/C=US/ST=OH/L=Columbus/O=VikingVPN/OU=MyOrganizationalUnit/CN=VikingVPN CA/name=EasyRSA/emailAddress=me@myhost.mydomain
                serial:CF:35:85:EE:80:BF:2A:3E

            X509v3 Extended Key Usage: 
                TLS Web Client Authentication
            X509v3 Key Usage: 
                Digital Signature
    Signature Algorithm: md5WithRSAEncryption
         b7:03:0a:5f:bd:84:3c:74:89:96:fb:66:15:94:82:10:0b:fa:
         2e:a0:bf:03:d3:b2:8a:4c:7f:e5:7c:f9:42:af:de:fd:d5:28:
         92:5d:fd:30:aa:2a:e7:51:dd:b5:cb:48:b4:d1:31:f7:b3:82:
         57:49:ed:fb:f1:24:1b:55:fa:dc:b4:0a:db:14:13:51:db:04:
         e7:be:ad:95:b6:de:c3:fa:16:31:ab:f5:84:b4:d6:bd:01:56:
         66:8b:cd:5d:32:a1:b9:cd:6e:cb:7b:66:42:ca:f5:22:bc:2d:
         b4:5a:17:bf:27:97:c3:de:50:b3:dd:48:23:22:bb:7f:6c:6e:
         0c:78:c6:9a:cb:cb:41:b1:aa:50:1a:37:e6:32:dc:fd:e7:f6:
         df:25:6f:6b:f6:78:f1:21:a5:6c:7d:b1:b5:a0:d1:52:3e:5a:
         31:06:fa:88:88:1d:3a:62:17:c1:b1:b6:91:96:4d:18:b0:ee:
         96:f8:47:b4:3c:d6:c3:ad:a4:2b:6e:2d:5f:bb:13:b2:d5:f4:
         4d:d7:48:f9:34:f6:d5:16:fa:53:64:fb:d8:6c:8e:f0:06:2c:
         95:62:44:5d:f1:62:12:4d:80:24:24:22:3e:6c:65:c0:20:a4:
         f0:60:bc:3d:12:27:ff:05:52:58:20:25:42:76:e2:f9:dc:14:
         99:a8:b9:47:6b:7b:d6:92:8b:6c:30:b3:07:cb:65:e3:56:1c:
         40:c8:18:db:4c:b6:2f:ee:fe:c9:d6:5d:3a:b3:69:13:04:48:
         6e:89:20:ee:0c:10:51:73:a0:ab:3e:a5:b4:8d:e3:64:29:af:
         6d:44:aa:d4:54:3d:40:af:25:c4:a8:86:04:bd:b3:a7:56:a2:
         a9:41:7c:93:1b:38:6e:79:ed:3d:d8:5d:30:50:d6:31:6e:d0:
         d2:fd:26:9d:04:f8:60:fb:16:28:8a:cc:81:bd:d4:4d:a4:8d:
         56:98:71:f1:be:79:6c:4a:71:72:93:53:ac:0f:f4:08:07:39:
         35:f9:bd:bc:94:4b:13:ce:7e:8b:39:01:f8:fb:80:23:d2:63:
         1f:74:f8:36:cb:94:9d:09:a7:92:06:a7:35:eb:b3:93:f7:69:
         09:17:c3:40:90:83:ee:47:15:c3:30:e5:4c:f1:d8:c4:57:2f:
         b4:f3:29:1f:c5:76:ff:66:6a:58:27:cc:96:51:a4:42:4b:65:
         f9:d3:f4:08:12:ad:25:81:22:15:0f:1b:e0:a6:e7:a9:5c:d0:
         fa:24:ec:5e:ef:97:cd:80:a0:bc:9d:cc:c9:b8:39:3a:69:59:
         a7:7e:e3:43:f5:e5:50:39:54:cc:93:fb:94:04:fe:0f:6c:15:
         40:98:77:63:3b:28:6c:19
-----BEGIN CERTIFICATE-----
MIIGrTCCBJWgAwIBAgICELIwDQYJKoZIhvcNAQEEBQAwgawxCzAJBgNVBAYTAlVT
MQswCQYDVQQIEwJPSDERMA8GA1UEBxMIQ29sdW1idXMxEjAQBgNVBAoTCVZpa2lu
Z1ZQTjEdMBsGA1UECxMUTXlPcmdhbml6YXRpb25hbFVuaXQxFTATBgNVBAMTDFZp
a2luZ1ZQTiBDQTEQMA4GA1UEKRMHRWFzeVJTQTEhMB8GCSqGSIb3DQEJARYSbWVA
bXlob3N0Lm15ZG9tYWluMB4XDTE1MDEyNjAyMzYwOFoXDTI1MDEyMzAyMzYwOFow
HzEdMBsGA1UEAxMUQ2xpZW50MTM5OENlcnRiNDViOGIwggIiMA0GCSqGSIb3DQEB
AQUAA4ICDwAwggIKAoICAQCtE9Ifjmn8azXtz4UGWJS82ESLLyl0cDTydKSByucy
yT2eSW/HvEyZZ7JX1rOj5myuW6cKR9hJ2+iG9D7Fk3fZYiRskR/jQOvjj+R6cRXY
HR0Ed57lujuE3j7YNvYGMol144Pz11gApFTEc09qLxQQrxJnDY9hVmQoR48iILmh
SPyMGTwBxTILGv91KbISO6oYcph+V/cXyPWITPh6xkJeY2g1KYGHBYUqftgXNa4S
ulMsfb+CTAnX9vRz5xaCd78HtGTCWSVNQKKvVs/MdMV1VyowPqY0VRP0ZrWtSSYv
6JNqVwDp89Pe67+md8jIuNVW5OFkTPQxSlPnwO4pPw4+s0ENu6Mqxkl2upvwvTsV
Hibtzi2myt+2txVQAaCu1Pcjyj0mSEHs2f55sExT5QZp713dHradblt2Bl4QdZw5
kkHeaNliS2lF5dSuqoRoCxIHW3igUe8T7JpI+Fbk6ZlflT1rkP8OzJg61T9pRs57
bONXI3uZMR+FN/LbHBp4J2Vzk7Im3o9afGg1x22YJXwDLXuBFzIFigJGuOX0Wt4O
U5OoILRbcmDl1Ww4E0bHJAok/8nDD3IDUuPkldQ83c4E3Ukxxav2UK0PIiOXRW5C
1cF2hUIUb+SzpqFm1poqruvdrOXddGWkq3MyHrg2wy0n0CTEasSC1rZhBH8ZR2BB
7wIDAQABo4IBYzCCAV8wCQYDVR0TBAIwADAtBglghkgBhvhCAQ0EIBYeRWFzeS1S
U0EgR2VuZXJhdGVkIENlcnRpZmljYXRlMB0GA1UdDgQWBBQSVJRNfqIYd+5/RP0s
qD01Xq2AujCB4QYDVR0jBIHZMIHWgBQSzWAE0qCAnnDtxpm4eyzGUv0ZoaGBsqSB
rzCBrDELMAkGA1UEBhMCVVMxCzAJBgNVBAgTAk9IMREwDwYDVQQHEwhDb2x1bWJ1
czESMBAGA1UEChMJVmlraW5nVlBOMR0wGwYDVQQLExRNeU9yZ2FuaXphdGlvbmFs
VW5pdDEVMBMGA1UEAxMMVmlraW5nVlBOIENBMRAwDgYDVQQpEwdFYXN5UlNBMSEw
HwYJKoZIhvcNAQkBFhJtZUBteWhvc3QubXlkb21haW6CCQDPNYXugL8qPjATBgNV
HSUEDDAKBggrBgEFBQcDAjALBgNVHQ8EBAMCB4AwDQYJKoZIhvcNAQEEBQADggIB
ALcDCl+9hDx0iZb7ZhWUghAL+i6gvwPTsopMf+V8+UKv3v3VKJJd/TCqKudR3bXL
SLTRMfezgldJ7fvxJBtV+ty0CtsUE1HbBOe+rZW23sP6FjGr9YS01r0BVmaLzV0y
obnNbst7ZkLK9SK8LbRaF78nl8PeULPdSCMiu39sbgx4xprLy0GxqlAaN+Yy3P3n
9t8lb2v2ePEhpWx9sbWg0VI+WjEG+oiIHTpiF8GxtpGWTRiw7pb4R7Q81sOtpCtu
LV+7E7LV9E3XSPk09tUW+lNk+9hsjvAGLJViRF3xYhJNgCQkIj5sZcAgpPBgvD0S
J/8FUlggJUJ24vncFJmouUdre9aSi2wwswfLZeNWHEDIGNtMti/u/snWXTqzaRME
SG6JIO4MEFFzoKs+pbSN42Qpr21EqtRUPUCvJcSohgS9s6dWoqlBfJMbOG557T3Y
XTBQ1jFu0NL9Jp0E+GD7FiiKzIG91E2kjVaYcfG+eWxKcXKTU6wP9AgHOTX5vbyU
SxPOfos5Afj7gCPSYx90+DbLlJ0Jp5IGpzXrs5P3aQkXw0CQg+5HFcMw5Uzx2MRX
L7TzKR/Fdv9malgnzJZRpEJLZfnT9AgSrSWBIhUPG+Cm56lc0Pok7F7vl82AoLyd
zMm4OTppWad+40P15VA5VMyT+5QE/g9sFUCYd2M7KGwZ
-----END CERTIFICATE-----
