Certificate:
    Data:
        Version: 3 (0x2)
        Serial Number: 13065 (0x3309)
    Signature Algorithm: sha256WithRSAEncryption
        Issuer: C=US, ST=OH, L=Columbus, O=VikingVPN, OU=MyOrganizationalUnit, CN=VikingVPN CA/name=EasyRSA/emailAddress=me@myhost.mydomain
        Validity
            Not Before: May  2 19:57:41 2018 GMT
            Not After : Apr 29 19:57:41 2028 GMT
        Subject: CN=Client2551Cert7cb333
        Subject Public Key Info:
            Public Key Algorithm: rsaEncryption
                Public-Key: (4096 bit)
                Modulus:
                    00:a0:50:93:d6:07:6a:5e:93:aa:35:6a:17:a9:0f:
                    69:cd:e4:e3:2e:e4:c2:cc:de:0a:99:a0:86:11:5a:
                    81:01:78:f4:c4:0b:b3:8b:6b:0f:36:e8:fb:39:3e:
                    4d:17:6e:aa:41:f1:5d:74:23:07:a8:ee:e1:8b:08:
                    87:a3:7e:2d:b7:0c:f4:cb:fb:d7:7f:fd:2f:34:e8:
                    71:18:cc:78:5b:99:cb:5b:70:73:1b:fe:96:77:d1:
                    41:b5:05:83:31:e3:f5:f4:81:f5:d0:37:f7:4c:16:
                    54:2d:86:b2:d4:d2:66:25:c1:48:cf:d1:3d:b3:f8:
                    d0:2a:64:8a:91:17:bf:d8:35:35:73:66:b4:a4:64:
                    e3:ce:49:47:04:94:f2:9c:06:71:b9:8d:65:84:23:
                    c0:12:e0:38:51:18:9e:0c:fc:fb:2b:c8:64:90:47:
                    6a:fc:c3:37:21:76:d9:f3:03:04:51:8c:06:63:57:
                    0b:79:0d:f8:35:f9:89:77:00:8a:05:ca:2f:3b:48:
                    b4:e5:09:58:2f:b1:1b:41:db:27:54:42:8d:1c:ce:
                    ff:ef:d5:30:a5:ee:84:d3:b0:30:c1:99:e6:0b:4c:
                    ac:62:30:85:d8:3f:90:58:d4:90:a0:e8:71:29:14:
                    1c:b6:4a:03:f4:61:84:fd:e5:0d:41:10:4d:69:c9:
                    ec:01:82:3a:88:72:a8:64:7f:3b:80:b4:cc:ff:de:
                    52:b8:b5:0e:b7:96:2c:5a:c8:f3:59:eb:f1:2a:30:
                    f9:50:9c:bf:a5:92:d9:e9:35:33:4a:38:01:d8:02:
                    a8:f3:d3:e6:92:f7:7d:b7:44:42:05:c9:8b:ec:da:
                    88:b6:c9:3b:1b:63:91:ef:2b:2f:05:82:f3:0d:f5:
                    15:40:7e:b3:92:fb:d4:f4:4a:03:4d:71:e2:19:25:
                    d5:c0:9d:46:78:c1:6e:9f:31:b9:4d:03:11:c1:33:
                    70:04:52:e7:da:0c:6f:a2:70:21:0e:5c:8a:a3:9f:
                    aa:5a:07:4d:9f:8f:d0:c4:5c:a8:60:9d:d5:6c:93:
                    78:b3:3d:ab:6f:1c:1b:64:d0:bd:aa:8d:06:e1:a5:
                    2f:49:c0:3f:af:a2:dd:3d:f5:9d:f2:4d:19:ff:4b:
                    ac:67:72:84:97:6b:b3:8f:ee:f4:fe:14:36:32:6b:
                    a7:3f:cc:3f:e4:87:65:11:8d:57:99:82:22:0c:9b:
                    8e:c1:02:08:fe:b5:82:2c:2b:8f:4f:1a:af:17:a9:
                    60:a9:48:5c:b1:e2:c3:46:b2:f3:67:fd:fd:e7:ae:
                    5a:9f:8d:fc:cc:71:bf:45:99:b6:5e:ad:88:42:aa:
                    10:1c:3e:21:74:15:7e:1b:32:06:1a:92:9b:a0:ec:
                    d2:91:59
                Exponent: 65537 (0x10001)
        X509v3 extensions:
            X509v3 Basic Constraints: 
                CA:FALSE
            Netscape Comment: 
                Easy-RSA Generated Certificate
            X509v3 Subject Key Identifier: 
                2F:B8:2B:77:54:53:25:17:64:FB:12:2C:B9:97:8D:5C:64:F4:C5:80
            X509v3 Authority Key Identifier: 
                keyid:12:CD:60:04:D2:A0:80:9E:70:ED:C6:99:B8:7B:2C:C6:52:FD:19:A1
                DirName:/C=US/ST=OH/L=Columbus/O=VikingVPN/OU=MyOrganizationalUnit/CN=VikingVPN CA/name=EasyRSA/emailAddress=me@myhost.mydomain
                serial:CF:35:85:EE:80:BF:2A:3E

            X509v3 Extended Key Usage: 
                TLS Web Client Authentication
            X509v3 Key Usage: 
                Digital Signature
    Signature Algorithm: sha256WithRSAEncryption
         e6:15:75:e5:9b:72:fe:75:39:9e:70:24:13:10:85:92:cf:08:
         a4:e1:80:ad:ba:e7:fd:a7:0c:20:60:4f:1d:a7:99:78:44:c5:
         fe:ba:98:f6:64:9a:89:d4:e7:71:48:ea:be:80:8e:ac:43:ef:
         36:09:7c:ef:97:a6:f8:6a:3f:1f:aa:58:69:da:30:df:8a:09:
         5b:20:11:ef:a3:8c:ee:54:2f:53:7f:78:55:4a:36:9f:95:11:
         39:23:34:c0:17:7b:e5:a5:18:c9:a4:3c:09:ff:86:8e:e3:01:
         61:45:8b:b2:7f:a8:94:5e:40:4b:b8:28:75:52:bf:a7:3e:6f:
         f4:12:12:67:c2:b0:c2:a1:02:29:e7:5f:ee:4a:e6:cc:ce:f9:
         1f:29:42:45:87:d4:61:ce:97:7a:f5:be:97:c4:6f:13:19:24:
         d1:13:b9:30:2e:7a:f7:0d:e7:a8:de:db:c0:c8:f6:35:ab:3b:
         17:20:9f:2b:38:73:37:21:b0:b1:3c:c4:ff:f1:ff:39:80:d8:
         ef:76:4d:3c:86:c2:4a:99:91:02:3c:7f:cf:cd:ef:a0:d2:41:
         8a:e6:0e:8c:8e:01:8c:42:5b:10:69:8b:a8:69:9e:40:5f:c6:
         af:68:c2:14:b2:ad:e8:3c:16:59:e8:7c:d3:5f:5e:0a:f0:d5:
         8c:76:db:f5:a4:06:2d:4d:ba:f6:65:59:0a:bb:2d:04:d8:b0:
         f2:38:8a:c4:6a:44:06:5e:be:a0:8a:e1:6d:d9:ac:1d:93:ae:
         b4:02:21:bb:27:c0:0a:5c:32:73:28:af:ae:fe:15:56:9d:d6:
         c7:76:7e:29:03:53:5c:2f:93:83:fd:9e:69:8d:1b:d3:e9:91:
         cc:63:1b:7a:3b:a9:f0:af:41:f3:1d:bd:df:27:4b:22:fd:8c:
         3b:8a:45:d9:ce:2b:7b:47:e6:1c:f7:65:1b:5d:ad:be:3d:63:
         06:65:6c:7b:24:a6:46:c4:db:d8:8e:33:23:a4:fd:a5:f1:c9:
         25:e9:5f:3f:0b:cf:3b:a9:71:84:e3:11:eb:7a:6d:42:e2:0c:
         ef:2c:49:2a:8a:3c:ac:ea:83:10:a3:ef:2f:ee:13:3d:b7:7d:
         73:94:16:a7:d1:21:29:d6:49:03:43:d9:f6:73:14:66:17:99:
         d7:ef:b2:28:26:2a:13:18:d6:14:04:78:7e:d7:bb:17:ff:95:
         54:36:6e:2c:67:b4:08:90:de:a0:e3:c0:ce:76:15:9a:74:c1:
         eb:ae:23:a0:d8:5d:8f:cb:f0:d2:2a:4e:59:77:60:0e:8d:54:
         d1:6a:5d:cd:71:75:f9:1a:96:bc:cc:95:a8:c6:6c:71:de:b5:
         b2:65:27:09:f7:3a:28:e8
-----BEGIN CERTIFICATE-----
MIIGrTCCBJWgAwIBAgICMwkwDQYJKoZIhvcNAQELBQAwgawxCzAJBgNVBAYTAlVT
MQswCQYDVQQIEwJPSDERMA8GA1UEBxMIQ29sdW1idXMxEjAQBgNVBAoTCVZpa2lu
Z1ZQTjEdMBsGA1UECxMUTXlPcmdhbml6YXRpb25hbFVuaXQxFTATBgNVBAMTDFZp
a2luZ1ZQTiBDQTEQMA4GA1UEKRMHRWFzeVJTQTEhMB8GCSqGSIb3DQEJARYSbWVA
bXlob3N0Lm15ZG9tYWluMB4XDTE4MDUwMjE5NTc0MVoXDTI4MDQyOTE5NTc0MVow
HzEdMBsGA1UEAxMUQ2xpZW50MjU1MUNlcnQ3Y2IzMzMwggIiMA0GCSqGSIb3DQEB
AQUAA4ICDwAwggIKAoICAQCgUJPWB2pek6o1ahepD2nN5OMu5MLM3gqZoIYRWoEB
ePTEC7OLaw826Ps5Pk0XbqpB8V10Iweo7uGLCIejfi23DPTL+9d//S806HEYzHhb
mctbcHMb/pZ30UG1BYMx4/X0gfXQN/dMFlQthrLU0mYlwUjP0T2z+NAqZIqRF7/Y
NTVzZrSkZOPOSUcElPKcBnG5jWWEI8AS4DhRGJ4M/PsryGSQR2r8wzchdtnzAwRR
jAZjVwt5Dfg1+Yl3AIoFyi87SLTlCVgvsRtB2ydUQo0czv/v1TCl7oTTsDDBmeYL
TKxiMIXYP5BY1JCg6HEpFBy2SgP0YYT95Q1BEE1pyewBgjqIcqhkfzuAtMz/3lK4
tQ63lixayPNZ6/EqMPlQnL+lktnpNTNKOAHYAqjz0+aS9323REIFyYvs2oi2yTsb
Y5HvKy8FgvMN9RVAfrOS+9T0SgNNceIZJdXAnUZ4wW6fMblNAxHBM3AEUufaDG+i
cCEOXIqjn6paB02fj9DEXKhgndVsk3izPatvHBtk0L2qjQbhpS9JwD+vot099Z3y
TRn/S6xncoSXa7OP7vT+FDYya6c/zD/kh2URjVeZgiIMm47BAgj+tYIsK49PGq8X
qWCpSFyx4sNGsvNn/f3nrlqfjfzMcb9FmbZerYhCqhAcPiF0FX4bMgYakpug7NKR
WQIDAQABo4IBYzCCAV8wCQYDVR0TBAIwADAtBglghkgBhvhCAQ0EIBYeRWFzeS1S
U0EgR2VuZXJhdGVkIENlcnRpZmljYXRlMB0GA1UdDgQWBBQvuCt3VFMlF2T7Eiy5
l41cZPTFgDCB4QYDVR0jBIHZMIHWgBQSzWAE0qCAnnDtxpm4eyzGUv0ZoaGBsqSB
rzCBrDELMAkGA1UEBhMCVVMxCzAJBgNVBAgTAk9IMREwDwYDVQQHEwhDb2x1bWJ1
czESMBAGA1UEChMJVmlraW5nVlBOMR0wGwYDVQQLExRNeU9yZ2FuaXphdGlvbmFs
VW5pdDEVMBMGA1UEAxMMVmlraW5nVlBOIENBMRAwDgYDVQQpEwdFYXN5UlNBMSEw
HwYJKoZIhvcNAQkBFhJtZUBteWhvc3QubXlkb21haW6CCQDPNYXugL8qPjATBgNV
HSUEDDAKBggrBgEFBQcDAjALBgNVHQ8EBAMCB4AwDQYJKoZIhvcNAQELBQADggIB
AOYVdeWbcv51OZ5wJBMQhZLPCKThgK265/2nDCBgTx2nmXhExf66mPZkmonU53FI
6r6AjqxD7zYJfO+XpvhqPx+qWGnaMN+KCVsgEe+jjO5UL1N/eFVKNp+VETkjNMAX
e+WlGMmkPAn/ho7jAWFFi7J/qJReQEu4KHVSv6c+b/QSEmfCsMKhAinnX+5K5szO
+R8pQkWH1GHOl3r1vpfEbxMZJNETuTAuevcN56je28DI9jWrOxcgnys4czchsLE8
xP/x/zmA2O92TTyGwkqZkQI8f8/N76DSQYrmDoyOAYxCWxBpi6hpnkBfxq9owhSy
reg8FlnofNNfXgrw1Yx22/WkBi1NuvZlWQq7LQTYsPI4isRqRAZevqCK4W3ZrB2T
rrQCIbsnwApcMnMor67+FVad1sd2fikDU1wvk4P9nmmNG9PpkcxjG3o7qfCvQfMd
vd8nSyL9jDuKRdnOK3tH5hz3ZRtdrb49YwZlbHskpkbE29iOMyOk/aXxySXpXz8L
zzupcYTjEet6bULiDO8sSSqKPKzqgxCj7y/uEz23fXOUFqfRISnWSQND2fZzFGYX
mdfvsigmKhMY1hQEeH7Xuxf/lVQ2bixntAiQ3qDjwM52FZp0weuuI6DYXY/L8NIq
Tll3YA6NVNFqXc1xdfkalrzMlajGbHHetbJlJwn3Oijo
-----END CERTIFICATE-----
