Certificate:
    Data:
        Version: 3 (0x2)
        Serial Number: 10034 (0x2732)
    Signature Algorithm: sha256WithRSAEncryption
        Issuer: C=US, ST=OH, L=Columbus, O=VikingVPN, OU=MyOrganizationalUnit, CN=VikingVPN CA/name=EasyRSA/emailAddress=me@myhost.mydomain
        Validity
            Not Before: Feb  1 01:51:05 2017 GMT
            Not After : Jan 30 01:51:05 2027 GMT
        Subject: CN=Client2179Certc52d3f
        Subject Public Key Info:
            Public Key Algorithm: rsaEncryption
                Public-Key: (4096 bit)
                Modulus:
                    00:bb:78:39:fc:62:5e:1d:d4:de:c4:62:bd:c1:90:
                    5f:da:81:e1:0e:56:5c:1c:9d:d5:32:d4:d8:f2:01:
                    fd:3c:71:c9:b0:4a:d4:8a:25:32:07:67:85:91:f2:
                    6a:f6:6c:55:70:72:31:21:78:50:a7:f7:03:5e:3f:
                    64:82:b3:cd:50:e0:b9:53:e4:26:91:40:64:bd:3a:
                    c2:ca:ba:0a:db:6d:8f:1a:a8:a8:98:55:a4:73:0a:
                    c8:c8:da:6d:6d:2a:89:4d:35:8d:59:3a:ca:32:46:
                    bb:6d:2f:29:05:2c:8a:fe:d8:42:4e:52:f6:b6:f0:
                    fd:cc:ff:5e:74:b0:09:28:30:bd:a3:dd:44:ab:62:
                    21:b3:85:dd:6a:cb:1b:31:a7:af:d6:4a:6d:19:a6:
                    9f:fe:ba:37:f9:0f:22:73:f1:e3:e3:4c:c5:dd:33:
                    92:86:ea:5d:50:d4:47:47:f6:9a:62:16:aa:e1:21:
                    e2:a3:a8:ee:ac:13:22:99:27:2e:12:a9:5b:63:36:
                    e5:77:82:43:5f:33:66:88:91:d8:c0:67:bf:42:b2:
                    3b:6f:93:75:f4:c2:7a:c0:29:53:41:58:66:db:40:
                    d5:91:76:c1:51:18:c9:a4:ac:15:03:c2:7c:49:57:
                    a1:2d:c0:45:e3:e8:58:f9:16:eb:cd:36:f6:66:b8:
                    1c:08:d3:ec:6d:19:35:73:d1:71:00:26:1a:17:99:
                    c8:06:9c:7a:7c:d8:d6:6b:65:db:86:d1:a0:12:64:
                    bd:47:39:b5:e4:a9:ee:69:73:5c:7c:f3:5f:ae:63:
                    95:db:09:bf:d4:d6:07:92:b4:55:ab:a9:7c:8e:e1:
                    17:f4:2d:ea:8e:65:b3:63:36:3f:55:28:72:7f:fe:
                    af:e1:fa:93:bb:d4:f6:eb:12:ac:4e:ba:06:6f:b4:
                    a7:09:72:00:bc:7d:3d:18:43:7e:d7:76:2d:03:0b:
                    22:6f:15:7d:87:8c:fe:2d:8a:49:5b:c2:85:c1:72:
                    c7:dd:fc:69:dd:d3:b3:dc:61:bb:16:fe:bc:d7:cf:
                    d5:fe:e4:a9:bf:6d:5a:f9:3d:03:2f:39:65:c6:4f:
                    83:a3:eb:da:bb:f1:4c:01:78:1f:85:54:99:5b:c3:
                    63:1a:03:d9:f1:79:1a:b1:ae:a4:2d:0c:e5:e7:8f:
                    78:10:9c:10:ea:35:e5:87:a3:38:21:72:a1:c1:8f:
                    47:bc:24:5e:7b:63:b7:22:8c:83:fe:f1:f5:50:5c:
                    6f:55:8e:51:ca:a7:c7:76:37:36:75:01:bc:e8:de:
                    ac:88:f8:b5:fe:9c:fb:00:06:27:f3:a5:c7:20:d1:
                    09:13:67:95:97:f2:48:1e:a9:03:87:da:60:72:3f:
                    06:99:b5
                Exponent: 65537 (0x10001)
        X509v3 extensions:
            X509v3 Basic Constraints: 
                CA:FALSE
            Netscape Comment: 
                Easy-RSA Generated Certificate
            X509v3 Subject Key Identifier: 
                94:C8:26:BC:D6:52:3D:29:2A:9F:7E:E9:3B:E0:37:DF:F6:2C:3E:40
            X509v3 Authority Key Identifier: 
                keyid:12:CD:60:04:D2:A0:80:9E:70:ED:C6:99:B8:7B:2C:C6:52:FD:19:A1
                DirName:/C=US/ST=OH/L=Columbus/O=VikingVPN/OU=MyOrganizationalUnit/CN=VikingVPN CA/name=EasyRSA/emailAddress=me@myhost.mydomain
                serial:CF:35:85:EE:80:BF:2A:3E

            X509v3 Extended Key Usage: 
                TLS Web Client Authentication
            X509v3 Key Usage: 
                Digital Signature
    Signature Algorithm: sha256WithRSAEncryption
         02:e0:87:f6:0d:9d:59:d0:35:25:26:ae:9b:6f:3d:19:5b:0a:
         41:a9:ca:cd:f0:66:81:63:7d:98:09:c2:ca:59:0c:89:27:e3:
         51:58:81:a1:79:18:4c:a6:97:c2:00:06:5e:8e:ff:8b:ac:4c:
         f3:e6:e0:8c:6a:4a:58:a3:98:ef:fe:92:27:fd:51:49:d4:9a:
         4f:50:65:59:de:f5:a1:ee:21:79:08:dd:5b:59:8d:25:0c:15:
         c7:06:d3:96:e3:ff:94:5e:37:0b:85:9c:08:32:e8:5a:b6:83:
         a0:6f:49:e2:2c:d8:43:35:74:07:50:72:5e:77:3e:08:18:6e:
         3b:c1:2a:d5:ae:f8:f2:78:de:76:c1:e7:c3:23:40:7f:2f:ab:
         35:d3:f5:eb:ff:3d:5b:6b:23:5c:af:9f:39:07:9a:a5:7a:f3:
         ce:d0:7f:e1:38:8c:a1:02:f2:57:4b:d5:e4:79:57:a8:64:5c:
         fc:d4:ba:84:44:f4:4a:fc:8d:e6:f6:b0:58:52:ad:5d:8b:ba:
         2a:98:16:8b:f2:a5:63:a4:06:5b:f3:ff:cf:e1:ef:94:09:23:
         a5:03:9e:e1:8c:17:05:32:b3:81:d6:a2:0a:9d:30:4f:ae:e2:
         fe:70:1c:01:d5:24:51:da:fc:90:db:00:7f:92:b1:01:9e:aa:
         cf:93:50:99:d0:09:85:48:8b:83:2b:bc:57:a7:1e:1e:0e:cf:
         e0:0e:3a:5a:59:92:20:51:3a:53:c8:98:68:b2:5e:83:9b:21:
         1b:e6:f3:eb:ed:ce:48:b7:85:c7:ef:b8:8c:30:02:a9:1a:9a:
         58:2c:c3:4e:34:92:77:c4:6f:00:b1:2c:2b:bc:0f:e5:66:b2:
         da:3b:91:eb:d9:8d:95:1c:78:ad:e8:f9:92:df:1b:17:00:d9:
         eb:bd:f2:07:ac:35:76:6f:f0:9d:37:73:fd:0a:2a:d9:2c:27:
         55:9f:56:8c:e3:b4:20:75:b4:83:88:9c:1a:06:15:a7:f1:7f:
         56:76:28:b3:24:f4:b7:03:fa:ef:cd:90:ab:3a:c4:12:84:4b:
         29:d9:71:c1:24:4c:b2:a8:d8:2b:24:e3:ab:da:7c:04:5e:53:
         02:57:d4:0b:7c:d2:a4:fe:54:45:0e:b7:33:0b:c8:32:16:6e:
         8b:19:10:e2:64:0b:fe:a3:16:43:74:d2:b3:60:5a:c7:28:79:
         1d:f8:3d:e1:fb:36:12:cc:52:29:f2:c1:2c:52:ab:cc:82:0a:
         2a:04:2c:c4:4e:4d:3e:dd:bd:18:5c:ec:1d:e8:43:1b:14:db:
         5a:d6:ce:24:0c:71:eb:3d:a4:88:66:b7:5c:f2:18:98:ab:ef:
         fb:d4:35:2a:a0:4d:14:d5
-----BEGIN CERTIFICATE-----
MIIGrTCCBJWgAwIBAgICJzIwDQYJKoZIhvcNAQELBQAwgawxCzAJBgNVBAYTAlVT
MQswCQYDVQQIEwJPSDERMA8GA1UEBxMIQ29sdW1idXMxEjAQBgNVBAoTCVZpa2lu
Z1ZQTjEdMBsGA1UECxMUTXlPcmdhbml6YXRpb25hbFVuaXQxFTATBgNVBAMTDFZp
a2luZ1ZQTiBDQTEQMA4GA1UEKRMHRWFzeVJTQTEhMB8GCSqGSIb3DQEJARYSbWVA
bXlob3N0Lm15ZG9tYWluMB4XDTE3MDIwMTAxNTEwNVoXDTI3MDEzMDAxNTEwNVow
HzEdMBsGA1UEAxMUQ2xpZW50MjE3OUNlcnRjNTJkM2YwggIiMA0GCSqGSIb3DQEB
AQUAA4ICDwAwggIKAoICAQC7eDn8Yl4d1N7EYr3BkF/ageEOVlwcndUy1NjyAf08
ccmwStSKJTIHZ4WR8mr2bFVwcjEheFCn9wNeP2SCs81Q4LlT5CaRQGS9OsLKugrb
bY8aqKiYVaRzCsjI2m1tKolNNY1ZOsoyRrttLykFLIr+2EJOUva28P3M/150sAko
ML2j3USrYiGzhd1qyxsxp6/WSm0Zpp/+ujf5DyJz8ePjTMXdM5KG6l1Q1EdH9ppi
FqrhIeKjqO6sEyKZJy4SqVtjNuV3gkNfM2aIkdjAZ79Csjtvk3X0wnrAKVNBWGbb
QNWRdsFRGMmkrBUDwnxJV6EtwEXj6Fj5FuvNNvZmuBwI0+xtGTVz0XEAJhoXmcgG
nHp82NZrZduG0aASZL1HObXkqe5pc1x881+uY5XbCb/U1geStFWrqXyO4Rf0LeqO
ZbNjNj9VKHJ//q/h+pO71PbrEqxOugZvtKcJcgC8fT0YQ37Xdi0DCyJvFX2HjP4t
iklbwoXBcsfd/Gnd07PcYbsW/rzXz9X+5Km/bVr5PQMvOWXGT4Oj69q78UwBeB+F
VJlbw2MaA9nxeRqxrqQtDOXnj3gQnBDqNeWHozghcqHBj0e8JF57Y7cijIP+8fVQ
XG9VjlHKp8d2NzZ1Abzo3qyI+LX+nPsABifzpccg0QkTZ5WX8kgeqQOH2mByPwaZ
tQIDAQABo4IBYzCCAV8wCQYDVR0TBAIwADAtBglghkgBhvhCAQ0EIBYeRWFzeS1S
U0EgR2VuZXJhdGVkIENlcnRpZmljYXRlMB0GA1UdDgQWBBSUyCa81lI9KSqffuk7
4Dff9iw+QDCB4QYDVR0jBIHZMIHWgBQSzWAE0qCAnnDtxpm4eyzGUv0ZoaGBsqSB
rzCBrDELMAkGA1UEBhMCVVMxCzAJBgNVBAgTAk9IMREwDwYDVQQHEwhDb2x1bWJ1
czESMBAGA1UEChMJVmlraW5nVlBOMR0wGwYDVQQLExRNeU9yZ2FuaXphdGlvbmFs
VW5pdDEVMBMGA1UEAxMMVmlraW5nVlBOIENBMRAwDgYDVQQpEwdFYXN5UlNBMSEw
HwYJKoZIhvcNAQkBFhJtZUBteWhvc3QubXlkb21haW6CCQDPNYXugL8qPjATBgNV
HSUEDDAKBggrBgEFBQcDAjALBgNVHQ8EBAMCB4AwDQYJKoZIhvcNAQELBQADggIB
AALgh/YNnVnQNSUmrptvPRlbCkGpys3wZoFjfZgJwspZDIkn41FYgaF5GEyml8IA
Bl6O/4usTPPm4IxqSlijmO/+kif9UUnUmk9QZVne9aHuIXkI3VtZjSUMFccG05bj
/5ReNwuFnAgy6Fq2g6BvSeIs2EM1dAdQcl53PggYbjvBKtWu+PJ43nbB58MjQH8v
qzXT9ev/PVtrI1yvnzkHmqV6887Qf+E4jKEC8ldL1eR5V6hkXPzUuoRE9Er8jeb2
sFhSrV2LuiqYFovypWOkBlvz/8/h75QJI6UDnuGMFwUys4HWogqdME+u4v5wHAHV
JFHa/JDbAH+SsQGeqs+TUJnQCYVIi4MrvFenHh4Oz+AOOlpZkiBROlPImGiyXoOb
IRvm8+vtzki3hcfvuIwwAqkamlgsw040knfEbwCxLCu8D+Vmsto7kevZjZUceK3o
+ZLfGxcA2eu98gesNXZv8J03c/0KKtksJ1WfVozjtCB1tIOInBoGFafxf1Z2KLMk
9LcD+u/NkKs6xBKESynZccEkTLKo2Csk46vafAReUwJX1At80qT+VEUOtzMLyDIW
bosZEOJkC/6jFkN00rNgWscoeR34PeH7NhLMUinywSxSq8yCCioELMROTT7dvRhc
7B3oQxsU21rWziQMces9pIhmt1zyGJir7/vUNSqgTRTV
-----END CERTIFICATE-----
