Certificate:
    Data:
        Version: 3 (0x2)
        Serial Number: 4323 (0x10e3)
    Signature Algorithm: md5WithRSAEncryption
        Issuer: C=US, ST=OH, L=Columbus, O=VikingVPN, OU=MyOrganizationalUnit, CN=VikingVPN CA/name=EasyRSA/emailAddress=me@myhost.mydomain
        Validity
            Not Before: Jan 29 11:51:09 2015 GMT
            Not After : Jan 26 11:51:09 2025 GMT
        Subject: CN=Client884Cert1b4b43
        Subject Public Key Info:
            Public Key Algorithm: rsaEncryption
                Public-Key: (4096 bit)
                Modulus:
                    00:a7:26:84:c2:ab:41:01:92:63:7a:8a:7b:8a:f0:
                    b7:dc:06:e8:dd:cf:4b:6c:9a:88:d7:80:13:18:d6:
                    d2:fe:a6:c8:12:a7:2e:bd:c0:43:6a:f7:75:8c:2a:
                    44:22:15:c6:f5:6b:54:a1:57:75:c9:3d:59:d0:86:
                    8d:62:fc:2c:dd:9e:4d:6d:17:6b:6f:5f:0a:3f:3d:
                    6f:84:7b:5b:9e:6a:34:4e:bc:75:e5:6a:13:83:bb:
                    69:2d:5c:42:cf:14:e0:bc:d0:7d:aa:41:97:58:91:
                    55:63:07:c5:10:2e:a3:eb:d8:b6:26:68:89:ab:37:
                    b5:7c:c6:08:05:7d:b5:60:b5:91:7e:b8:2d:31:51:
                    52:97:2b:55:14:fd:19:78:24:6d:5e:2f:53:de:01:
                    23:39:1b:c6:91:62:95:30:67:06:34:ef:30:15:e8:
                    23:0f:65:9e:91:94:a7:0c:39:77:57:ec:2c:45:f4:
                    8c:1d:27:61:4f:69:89:ae:85:15:a7:96:a6:c2:24:
                    8d:82:87:7b:3a:11:a7:41:67:c5:0a:6e:44:42:82:
                    95:af:2c:0b:07:27:88:18:9c:09:9b:65:5c:0f:64:
                    d0:0b:3d:b4:46:df:45:c5:ce:c5:64:a9:4d:33:48:
                    db:eb:ae:3a:0b:f2:5e:d0:f7:63:70:41:aa:5f:4a:
                    41:1c:cc:f5:56:2a:1d:ed:f6:3e:dd:80:2a:b8:11:
                    8e:44:79:78:a6:12:ff:b0:d7:55:61:bb:69:73:d0:
                    89:ac:04:b2:14:98:e5:e8:36:0f:f9:82:4f:35:9c:
                    6b:bb:21:c2:3b:3a:12:3c:d7:dd:6c:5e:89:9e:12:
                    b0:63:9b:e3:cc:c0:36:46:07:ff:d7:ea:1b:9d:f0:
                    c7:1b:31:ae:5b:4e:9c:73:13:3b:e0:0d:99:70:97:
                    13:c1:43:61:b1:fa:2c:d0:b3:4e:f9:63:49:00:35:
                    30:75:48:c9:84:c5:32:c9:25:ca:b3:d1:5c:39:ab:
                    e0:b4:a9:b2:ce:80:f8:b5:3c:76:fe:8a:44:48:a9:
                    6c:be:6a:91:77:80:25:55:d0:25:53:02:ea:ae:f0:
                    58:bc:0d:cd:ad:d3:d8:3e:34:d9:48:fe:10:7e:69:
                    4e:c0:05:27:d4:ad:54:22:09:c9:ad:4d:03:b8:7e:
                    30:10:5a:b0:9b:a4:25:d4:8f:24:69:d3:64:86:bb:
                    74:47:e7:bc:24:6b:6e:34:fb:da:c7:12:46:1d:eb:
                    2c:a7:bb:a7:01:78:a5:00:68:e9:45:a1:c6:a0:ec:
                    2d:67:cc:82:b1:24:5e:84:95:ce:7e:ae:ac:1f:2e:
                    47:1b:91:ba:ad:c0:54:a4:7f:9a:5e:26:b2:ba:0e:
                    c5:53:cb
                Exponent: 65537 (0x10001)
        X509v3 extensions:
            X509v3 Basic Constraints: 
                CA:FALSE
            Netscape Comment: 
                Easy-RSA Generated Certificate
            X509v3 Subject Key Identifier: 
                2D:12:27:11:B2:05:DF:E6:46:61:BC:39:41:32:7A:1F:ED:04:26:FC
            X509v3 Authority Key Identifier: 
                keyid:12:CD:60:04:D2:A0:80:9E:70:ED:C6:99:B8:7B:2C:C6:52:FD:19:A1
                DirName:/C=US/ST=OH/L=Columbus/O=VikingVPN/OU=MyOrganizationalUnit/CN=VikingVPN CA/name=EasyRSA/emailAddress=me@myhost.mydomain
                serial:CF:35:85:EE:80:BF:2A:3E

            X509v3 Extended Key Usage: 
                TLS Web Client Authentication
            X509v3 Key Usage: 
                Digital Signature
    Signature Algorithm: md5WithRSAEncryption
         96:bf:14:40:36:47:8b:94:a9:dc:45:cd:8e:96:a9:39:2a:61:
         16:69:f0:86:04:c2:c0:1c:90:6a:f6:6a:ee:97:8e:af:71:18:
         d3:14:ec:68:8e:79:5c:ec:7f:c5:a3:d4:9c:28:f5:81:53:dc:
         ab:a5:52:37:18:58:05:3f:1a:3a:2c:47:4b:5c:cf:3e:a0:86:
         f5:95:d9:e5:df:29:82:4a:85:97:d4:3c:65:42:17:03:39:c6:
         05:ee:c2:02:23:1e:a0:51:b8:f7:9d:03:73:57:0e:9f:7b:55:
         02:ca:e4:70:82:28:31:83:b0:22:2f:c2:66:ad:b8:45:6c:06:
         de:e8:cc:c7:15:2d:76:b5:d3:af:d4:a4:16:7f:a1:5a:7d:1c:
         d0:77:a6:f9:ca:8c:c7:e2:91:82:37:f7:08:15:21:ad:5a:29:
         9b:94:1c:89:75:8d:46:bf:ff:c8:b4:0f:93:24:dc:4c:58:c9:
         02:89:17:f9:75:b8:6f:b0:08:a6:bb:be:23:27:3b:cb:91:99:
         fb:4e:90:3b:e7:3b:d9:c3:3e:48:c3:e0:54:33:b9:8c:0e:e4:
         00:34:3f:69:55:de:b8:dd:2f:c7:61:e9:f1:05:2b:e5:ad:ec:
         1d:07:de:f8:8e:53:7d:e2:e9:5e:b5:0a:0d:d8:c4:2b:c9:23:
         e4:47:25:5b:d5:10:b8:f0:90:69:08:9f:bf:55:23:ba:ff:8e:
         b6:b6:a8:2e:23:fd:ac:d0:97:e1:b5:8f:3b:e2:c2:1a:f9:a1:
         6b:82:0c:c5:a8:b5:3a:ec:9a:95:0d:ed:7a:c9:66:62:0d:37:
         92:1d:a3:09:9f:65:29:89:f8:ca:73:9f:b7:ba:a3:8b:5a:3a:
         b8:04:13:6d:44:fa:bc:14:fa:0d:a5:74:71:6e:56:67:f3:fb:
         cd:81:9d:7e:f2:88:41:91:2d:09:ac:37:a6:cb:dc:dd:3e:63:
         02:91:96:25:77:24:49:22:a3:a5:5f:d3:e6:8e:ad:04:d8:fa:
         37:0b:2e:66:53:2f:b6:a8:44:53:0a:4d:29:e3:1f:3f:4a:12:
         22:d9:05:29:62:a2:f9:76:9d:d9:51:b3:96:df:7e:3d:8e:9b:
         cb:5b:ef:d0:a2:e5:0a:b8:dd:fb:b0:7f:6d:12:f4:9d:b3:ad:
         7e:2c:be:10:ab:3a:33:d6:1a:7b:4a:3b:1b:5b:ad:c4:b6:15:
         2c:2f:4d:b5:dd:a6:c5:88:91:dc:98:65:65:60:b8:95:c6:21:
         a4:ea:86:1b:87:5f:8a:16:f1:ae:c7:1d:70:c6:52:d4:34:c2:
         a4:01:ba:04:ac:dc:47:f7:62:f9:89:aa:6b:55:0f:e2:24:f7:
         c9:51:8c:68:7d:f8:ab:a9
-----BEGIN CERTIFICATE-----
MIIGrDCCBJSgAwIBAgICEOMwDQYJKoZIhvcNAQEEBQAwgawxCzAJBgNVBAYTAlVT
MQswCQYDVQQIEwJPSDERMA8GA1UEBxMIQ29sdW1idXMxEjAQBgNVBAoTCVZpa2lu
Z1ZQTjEdMBsGA1UECxMUTXlPcmdhbml6YXRpb25hbFVuaXQxFTATBgNVBAMTDFZp
a2luZ1ZQTiBDQTEQMA4GA1UEKRMHRWFzeVJTQTEhMB8GCSqGSIb3DQEJARYSbWVA
bXlob3N0Lm15ZG9tYWluMB4XDTE1MDEyOTExNTEwOVoXDTI1MDEyNjExNTEwOVow
HjEcMBoGA1UEAxMTQ2xpZW50ODg0Q2VydDFiNGI0MzCCAiIwDQYJKoZIhvcNAQEB
BQADggIPADCCAgoCggIBAKcmhMKrQQGSY3qKe4rwt9wG6N3PS2yaiNeAExjW0v6m
yBKnLr3AQ2r3dYwqRCIVxvVrVKFXdck9WdCGjWL8LN2eTW0Xa29fCj89b4R7W55q
NE68deVqE4O7aS1cQs8U4LzQfapBl1iRVWMHxRAuo+vYtiZoias3tXzGCAV9tWC1
kX64LTFRUpcrVRT9GXgkbV4vU94BIzkbxpFilTBnBjTvMBXoIw9lnpGUpww5d1fs
LEX0jB0nYU9pia6FFaeWpsIkjYKHezoRp0FnxQpuREKCla8sCwcniBicCZtlXA9k
0As9tEbfRcXOxWSpTTNI2+uuOgvyXtD3Y3BBql9KQRzM9VYqHe32Pt2AKrgRjkR5
eKYS/7DXVWG7aXPQiawEshSY5eg2D/mCTzWca7shwjs6EjzX3WxeiZ4SsGOb48zA
NkYH/9fqG53wxxsxrltOnHMTO+ANmXCXE8FDYbH6LNCzTvljSQA1MHVIyYTFMskl
yrPRXDmr4LSpss6A+LU8dv6KREipbL5qkXeAJVXQJVMC6q7wWLwNza3T2D402Uj+
EH5pTsAFJ9StVCIJya1NA7h+MBBasJukJdSPJGnTZIa7dEfnvCRrbjT72scSRh3r
LKe7pwF4pQBo6UWhxqDsLWfMgrEkXoSVzn6urB8uRxuRuq3AVKR/ml4msroOxVPL
AgMBAAGjggFjMIIBXzAJBgNVHRMEAjAAMC0GCWCGSAGG+EIBDQQgFh5FYXN5LVJT
QSBHZW5lcmF0ZWQgQ2VydGlmaWNhdGUwHQYDVR0OBBYEFC0SJxGyBd/mRmG8OUEy
eh/tBCb8MIHhBgNVHSMEgdkwgdaAFBLNYATSoICecO3Gmbh7LMZS/RmhoYGypIGv
MIGsMQswCQYDVQQGEwJVUzELMAkGA1UECBMCT0gxETAPBgNVBAcTCENvbHVtYnVz
MRIwEAYDVQQKEwlWaWtpbmdWUE4xHTAbBgNVBAsTFE15T3JnYW5pemF0aW9uYWxV
bml0MRUwEwYDVQQDEwxWaWtpbmdWUE4gQ0ExEDAOBgNVBCkTB0Vhc3lSU0ExITAf
BgkqhkiG9w0BCQEWEm1lQG15aG9zdC5teWRvbWFpboIJAM81he6Avyo+MBMGA1Ud
JQQMMAoGCCsGAQUFBwMCMAsGA1UdDwQEAwIHgDANBgkqhkiG9w0BAQQFAAOCAgEA
lr8UQDZHi5Sp3EXNjpapOSphFmnwhgTCwByQavZq7peOr3EY0xTsaI55XOx/xaPU
nCj1gVPcq6VSNxhYBT8aOixHS1zPPqCG9ZXZ5d8pgkqFl9Q8ZUIXAznGBe7CAiMe
oFG4950Dc1cOn3tVAsrkcIIoMYOwIi/CZq24RWwG3ujMxxUtdrXTr9SkFn+hWn0c
0Hem+cqMx+KRgjf3CBUhrVopm5QciXWNRr//yLQPkyTcTFjJAokX+XW4b7AIpru+
Iyc7y5GZ+06QO+c72cM+SMPgVDO5jA7kADQ/aVXeuN0vx2Hp8QUr5a3sHQfe+I5T
feLpXrUKDdjEK8kj5EclW9UQuPCQaQifv1Ujuv+OtraoLiP9rNCX4bWPO+LCGvmh
a4IMxai1OuyalQ3teslmYg03kh2jCZ9lKYn4ynOft7qji1o6uAQTbUT6vBT6DaV0
cW5WZ/P7zYGdfvKIQZEtCaw3psvc3T5jApGWJXckSSKjpV/T5o6tBNj6NwsuZlMv
tqhEUwpNKeMfP0oSItkFKWKi+Xad2VGzlt9+PY6by1vv0KLlCrjd+7B/bRL0nbOt
fiy+EKs6M9Yae0o7G1utxLYVLC9Ntd2mxYiR3JhlZWC4lcYhpOqGG4dfihbxrscd
cMZS1DTCpAG6BKzcR/di+Ymqa1UP4iT3yVGMaH34q6k=
-----END CERTIFICATE-----
