Certificate:
    Data:
        Version: 3 (0x2)
        Serial Number: 5966 (0x174e)
    Signature Algorithm: md5WithRSAEncryption
        Issuer: C=US, ST=OH, L=Columbus, O=VikingVPN, OU=MyOrganizationalUnit, CN=VikingVPN CA/name=EasyRSA/emailAddress=me@myhost.mydomain
        Validity
            Not Before: Aug  3 22:57:38 2015 GMT
            Not After : Jul 31 22:57:38 2025 GMT
        Subject: CN=Client1163Cert4d14ee
        Subject Public Key Info:
            Public Key Algorithm: rsaEncryption
                Public-Key: (4096 bit)
                Modulus:
                    00:ca:8c:69:d2:a4:16:d6:82:5a:2b:8e:b6:68:43:
                    43:03:90:eb:6d:21:c9:2a:02:51:c1:04:9f:c8:11:
                    17:d9:5f:58:d3:f4:ff:4e:c4:26:5c:e5:f0:9d:f6:
                    e5:26:66:9f:e9:53:15:86:69:db:e5:90:65:1b:dd:
                    8d:55:f6:4a:8e:36:7f:49:af:2b:4e:60:32:66:ef:
                    2b:57:2b:32:a5:db:aa:ce:43:44:74:1c:3e:90:8b:
                    24:4b:ee:d3:6a:ef:6e:7d:09:4f:b6:2d:36:ba:72:
                    41:f0:b1:23:e2:dd:5a:4a:fc:a7:f9:b9:49:3b:11:
                    fc:fd:08:0f:b1:a1:fd:dc:51:2f:4a:17:b8:3e:9b:
                    4b:a5:a7:61:0d:60:f3:bb:97:ad:9f:24:cb:65:cb:
                    c0:a6:31:07:84:7b:aa:4d:26:d8:f1:e6:c5:0c:bb:
                    45:8c:f5:c7:98:8a:d0:47:f4:a0:52:fe:9e:6e:a6:
                    d0:03:38:28:43:d6:c0:83:60:71:88:b7:c4:2c:c3:
                    b8:13:cd:aa:ed:3b:2e:25:3e:7f:74:cf:12:d9:53:
                    84:75:01:0f:b7:2f:23:35:35:30:33:ef:fc:3b:0b:
                    d6:4b:62:bc:cb:99:14:be:bb:40:be:0c:e5:18:1f:
                    7e:5a:bb:20:62:52:46:48:cb:c2:b8:73:4b:51:48:
                    20:92:ad:36:75:d6:da:56:40:36:89:8e:a5:60:c8:
                    1d:f3:ef:ab:c8:83:b3:30:cb:20:ad:28:ad:47:93:
                    9c:eb:12:dc:1a:7a:4d:4a:f3:bc:f1:05:0c:17:66:
                    43:77:68:52:7b:a0:1d:e3:89:9a:e8:e4:1c:af:14:
                    19:42:c7:4c:8d:d2:ff:db:89:e0:5e:8e:70:d1:f1:
                    bd:f9:8d:72:6b:b8:cc:21:7e:70:35:34:c5:e5:11:
                    db:19:70:4a:cb:0f:97:1b:ce:56:33:9d:64:19:92:
                    a4:5f:53:34:60:85:70:89:c0:17:81:d7:a7:62:51:
                    74:0e:c6:39:43:e6:e4:c5:fb:32:06:21:ef:8d:90:
                    84:c4:f7:85:ba:b0:42:cf:6a:2a:88:ad:f6:e7:5d:
                    ed:44:61:03:a4:e0:eb:03:e8:7a:1a:db:28:82:14:
                    00:d5:af:79:b5:b2:18:3e:4f:49:30:6b:a1:fe:3f:
                    96:c6:3d:c1:87:72:95:87:e2:e7:8b:38:09:4f:1f:
                    83:d5:e9:cb:a0:41:77:0d:ad:fc:59:a9:74:d4:f4:
                    af:6d:9c:2b:dc:63:ca:f3:bd:ea:a7:aa:88:d1:a0:
                    3b:f8:c2:ed:27:26:f5:15:c4:43:91:00:82:e2:ce:
                    96:83:53:9f:2a:18:c9:71:f3:c6:9e:0a:a6:40:1e:
                    c5:9f:31
                Exponent: 65537 (0x10001)
        X509v3 extensions:
            X509v3 Basic Constraints: 
                CA:FALSE
            Netscape Comment: 
                Easy-RSA Generated Certificate
            X509v3 Subject Key Identifier: 
                C5:18:37:23:3D:A1:5E:28:AD:B8:78:0E:78:36:6C:DB:5C:85:E8:B3
            X509v3 Authority Key Identifier: 
                keyid:12:CD:60:04:D2:A0:80:9E:70:ED:C6:99:B8:7B:2C:C6:52:FD:19:A1
                DirName:/C=US/ST=OH/L=Columbus/O=VikingVPN/OU=MyOrganizationalUnit/CN=VikingVPN CA/name=EasyRSA/emailAddress=me@myhost.mydomain
                serial:CF:35:85:EE:80:BF:2A:3E

            X509v3 Extended Key Usage: 
                TLS Web Client Authentication
            X509v3 Key Usage: 
                Digital Signature
    Signature Algorithm: md5WithRSAEncryption
         31:4d:4e:a5:53:5e:3b:fd:1c:7c:c3:e6:c1:70:9f:8c:1e:b8:
         77:14:a0:f4:74:6f:3b:70:d3:7c:d0:bc:1d:e0:7e:d8:98:fd:
         53:99:ac:7d:ed:e4:5b:e6:5e:f0:03:6d:98:32:f4:50:bc:60:
         31:2b:ac:a5:c2:92:51:07:20:9e:b3:39:97:e9:43:54:62:3f:
         56:f2:88:01:c1:3a:b0:46:0e:7f:6b:bb:81:1b:80:a0:78:ed:
         d2:4d:e2:7a:6e:d1:67:0d:aa:73:e7:87:63:e7:1c:32:37:2f:
         e8:ee:13:eb:a6:d8:e0:06:5e:5a:3c:61:22:39:04:69:7d:48:
         00:8e:2b:3c:ad:7d:bb:21:8e:87:12:a0:20:8e:8b:a2:d6:da:
         c4:c0:b0:d5:ec:41:3b:e5:c8:98:de:34:29:82:04:b4:0e:f7:
         73:e6:55:2b:ff:16:1b:06:e9:3e:6a:17:a9:76:9e:3b:48:99:
         f2:c8:e0:e8:d5:39:9d:72:34:d5:03:f2:54:46:2c:a8:89:08:
         ea:b3:84:28:a9:19:8c:43:a7:4f:4e:b4:90:72:f7:34:a3:de:
         4b:f3:04:fe:fc:67:86:95:73:00:a6:25:59:17:ef:66:c2:b3:
         55:cc:d0:2a:fe:e0:75:41:7c:62:3b:64:d0:21:46:d4:53:a8:
         ee:77:3a:40:d1:55:db:58:0e:32:1d:92:16:69:26:07:25:13:
         b3:b1:e3:82:8d:a0:8c:ec:e5:8b:61:44:f4:33:bf:65:fd:32:
         ff:83:b9:5b:d3:8f:f1:c8:21:48:a5:6c:5c:69:f0:ba:b5:ac:
         99:ae:9f:d8:73:c5:73:ef:0b:e6:5b:01:0e:17:85:39:01:f3:
         e3:6a:66:39:91:56:f1:e1:e2:e5:d9:c7:ca:f2:e9:0e:40:e7:
         33:66:20:c4:59:6b:69:e6:2c:be:e1:41:da:63:0f:80:be:32:
         65:a3:35:9a:a8:d6:6e:42:94:25:8a:3c:2d:84:fb:5e:00:57:
         59:c8:9e:df:02:07:ab:74:d9:b3:93:14:30:7e:27:2d:ef:27:
         f5:78:ad:75:e5:1a:d2:7f:e9:49:56:30:b1:2c:f0:e8:4e:7a:
         59:30:50:5f:b1:d9:8f:71:b2:76:7d:5c:06:36:5b:85:07:85:
         80:0b:fb:31:8f:de:c0:8b:b1:4c:80:69:e4:7e:5e:94:57:7b:
         7f:5c:82:76:78:88:27:ba:32:9a:8f:d5:a1:51:ea:96:67:16:
         c4:fb:0a:75:d1:6a:67:0a:fc:b2:43:36:6f:8c:b3:b7:77:3e:
         79:da:78:88:19:0f:db:36:a9:59:d7:58:e0:3e:d9:61:f3:b2:
         19:68:5a:d1:3e:2c:be:8a
-----BEGIN CERTIFICATE-----
MIIGrTCCBJWgAwIBAgICF04wDQYJKoZIhvcNAQEEBQAwgawxCzAJBgNVBAYTAlVT
MQswCQYDVQQIEwJPSDERMA8GA1UEBxMIQ29sdW1idXMxEjAQBgNVBAoTCVZpa2lu
Z1ZQTjEdMBsGA1UECxMUTXlPcmdhbml6YXRpb25hbFVuaXQxFTATBgNVBAMTDFZp
a2luZ1ZQTiBDQTEQMA4GA1UEKRMHRWFzeVJTQTEhMB8GCSqGSIb3DQEJARYSbWVA
bXlob3N0Lm15ZG9tYWluMB4XDTE1MDgwMzIyNTczOFoXDTI1MDczMTIyNTczOFow
HzEdMBsGA1UEAxMUQ2xpZW50MTE2M0NlcnQ0ZDE0ZWUwggIiMA0GCSqGSIb3DQEB
AQUAA4ICDwAwggIKAoICAQDKjGnSpBbWglorjrZoQ0MDkOttIckqAlHBBJ/IERfZ
X1jT9P9OxCZc5fCd9uUmZp/pUxWGadvlkGUb3Y1V9kqONn9JrytOYDJm7ytXKzKl
26rOQ0R0HD6QiyRL7tNq7259CU+2LTa6ckHwsSPi3VpK/Kf5uUk7Efz9CA+xof3c
US9KF7g+m0ulp2ENYPO7l62fJMtly8CmMQeEe6pNJtjx5sUMu0WM9ceYitBH9KBS
/p5uptADOChD1sCDYHGIt8Qsw7gTzartOy4lPn90zxLZU4R1AQ+3LyM1NTAz7/w7
C9ZLYrzLmRS+u0C+DOUYH35auyBiUkZIy8K4c0tRSCCSrTZ11tpWQDaJjqVgyB3z
76vIg7MwyyCtKK1Hk5zrEtwaek1K87zxBQwXZkN3aFJ7oB3jiZro5ByvFBlCx0yN
0v/bieBejnDR8b35jXJruMwhfnA1NMXlEdsZcErLD5cbzlYznWQZkqRfUzRghXCJ
wBeB16diUXQOxjlD5uTF+zIGIe+NkITE94W6sELPaiqIrfbnXe1EYQOk4OsD6Hoa
2yiCFADVr3m1shg+T0kwa6H+P5bGPcGHcpWH4ueLOAlPH4PV6cugQXcNrfxZqXTU
9K9tnCvcY8rzveqnqojRoDv4wu0nJvUVxEORAILizpaDU58qGMlx88aeCqZAHsWf
MQIDAQABo4IBYzCCAV8wCQYDVR0TBAIwADAtBglghkgBhvhCAQ0EIBYeRWFzeS1S
U0EgR2VuZXJhdGVkIENlcnRpZmljYXRlMB0GA1UdDgQWBBTFGDcjPaFeKK24eA54
NmzbXIXoszCB4QYDVR0jBIHZMIHWgBQSzWAE0qCAnnDtxpm4eyzGUv0ZoaGBsqSB
rzCBrDELMAkGA1UEBhMCVVMxCzAJBgNVBAgTAk9IMREwDwYDVQQHEwhDb2x1bWJ1
czESMBAGA1UEChMJVmlraW5nVlBOMR0wGwYDVQQLExRNeU9yZ2FuaXphdGlvbmFs
VW5pdDEVMBMGA1UEAxMMVmlraW5nVlBOIENBMRAwDgYDVQQpEwdFYXN5UlNBMSEw
HwYJKoZIhvcNAQkBFhJtZUBteWhvc3QubXlkb21haW6CCQDPNYXugL8qPjATBgNV
HSUEDDAKBggrBgEFBQcDAjALBgNVHQ8EBAMCB4AwDQYJKoZIhvcNAQEEBQADggIB
ADFNTqVTXjv9HHzD5sFwn4weuHcUoPR0bztw03zQvB3gftiY/VOZrH3t5FvmXvAD
bZgy9FC8YDErrKXCklEHIJ6zOZfpQ1RiP1byiAHBOrBGDn9ru4EbgKB47dJN4npu
0WcNqnPnh2PnHDI3L+juE+um2OAGXlo8YSI5BGl9SACOKzytfbshjocSoCCOi6LW
2sTAsNXsQTvlyJjeNCmCBLQO93PmVSv/FhsG6T5qF6l2njtImfLI4OjVOZ1yNNUD
8lRGLKiJCOqzhCipGYxDp09OtJBy9zSj3kvzBP78Z4aVcwCmJVkX72bCs1XM0Cr+
4HVBfGI7ZNAhRtRTqO53OkDRVdtYDjIdkhZpJgclE7Ox44KNoIzs5YthRPQzv2X9
Mv+DuVvTj/HIIUilbFxp8Lq1rJmun9hzxXPvC+ZbAQ4XhTkB8+NqZjmRVvHh4uXZ
x8ry6Q5A5zNmIMRZa2nmLL7hQdpjD4C+MmWjNZqo1m5ClCWKPC2E+14AV1nInt8C
B6t02bOTFDB+Jy3vJ/V4rXXlGtJ/6UlWMLEs8OhOelkwUF+x2Y9xsnZ9XAY2W4UH
hYAL+zGP3sCLsUyAaeR+XpRXe39cgnZ4iCe6MpqP1aFR6pZnFsT7CnXRamcK/LJD
Nm+Ms7d3PnnaeIgZD9s2qVnXWOA+2WHzshloWtE+LL6K
-----END CERTIFICATE-----
