Certificate:
    Data:
        Version: 3 (0x2)
        Serial Number: 6266 (0x187a)
    Signature Algorithm: md5WithRSAEncryption
        Issuer: C=US, ST=OH, L=Columbus, O=VikingVPN, OU=MyOrganizationalUnit, CN=VikingVPN CA/name=EasyRSA/emailAddress=me@myhost.mydomain
        Validity
            Not Before: Sep 14 03:16:12 2015 GMT
            Not After : Sep 11 03:16:12 2025 GMT
        Subject: CN=Client1711Certddfe07
        Subject Public Key Info:
            Public Key Algorithm: rsaEncryption
                Public-Key: (4096 bit)
                Modulus:
                    00:cc:14:6b:d4:16:92:ec:dc:bc:a8:25:c3:af:28:
                    2e:b4:f4:3b:71:a3:f2:f4:7d:c0:1f:42:7d:cd:43:
                    57:b2:95:bc:f3:6a:bc:e4:db:75:34:4e:4d:51:d0:
                    e1:40:c6:61:38:15:cf:12:1b:3e:22:f3:9c:af:77:
                    8e:00:39:a1:b2:e9:8a:cc:bd:33:af:69:1c:de:0a:
                    a5:e3:c8:26:74:81:a9:bc:ce:2b:cf:a3:e6:e9:cf:
                    c0:d1:75:46:f4:16:cf:8d:98:88:d6:bc:2d:19:78:
                    c5:9d:ce:5d:15:9f:a8:a9:8d:ee:6b:15:47:88:e7:
                    72:36:28:e9:ea:dc:63:ff:6f:c9:a7:f6:79:38:f4:
                    2a:69:a8:03:10:75:8a:65:6f:ab:50:12:43:5b:2f:
                    e7:2c:45:e9:08:d4:2b:c4:2f:e9:9a:02:90:73:fd:
                    29:be:bb:c8:ca:bb:6f:f5:2a:6d:e8:1d:1f:e9:86:
                    b4:fd:0c:fb:83:1b:d2:26:21:05:b9:e9:d7:8f:e0:
                    4b:d5:2c:db:a0:c8:be:8e:ef:8d:4c:87:c5:5d:f7:
                    f1:04:9b:35:95:8d:80:a1:ae:09:b4:76:af:76:41:
                    ee:72:4d:35:12:50:77:47:2d:48:71:42:cb:04:22:
                    67:1e:8e:ad:7d:08:6d:76:7d:44:27:0d:d7:2b:b0:
                    c6:23:78:ed:97:68:c9:00:61:4f:44:83:36:ab:03:
                    e8:12:93:b2:25:d4:53:31:38:06:6d:c5:5c:be:99:
                    2d:88:ed:52:0b:f8:3f:c0:cd:ed:b3:b7:e3:ea:be:
                    a2:e3:8c:de:ad:9d:a2:6a:a0:ac:d6:14:be:5a:58:
                    76:31:36:00:4a:3c:62:0f:b6:fa:d0:f9:8c:0e:d7:
                    5f:0a:59:69:f8:39:5f:39:91:4d:26:f5:26:39:71:
                    1f:58:74:6e:56:55:3b:46:a8:71:aa:ac:38:07:6b:
                    c1:8e:8c:26:94:48:af:33:80:dd:78:ea:8e:a5:19:
                    ea:e6:03:06:7b:d0:af:89:ea:8c:3a:85:11:95:5d:
                    70:0f:2e:e3:f3:c1:5b:da:00:86:29:83:0b:51:b6:
                    0c:ce:4b:38:c9:52:cb:c2:41:fd:b8:32:f2:27:64:
                    db:27:87:b5:88:ae:e5:2b:a1:b7:12:6e:61:88:b7:
                    10:e1:84:97:88:ea:fb:4a:e5:87:d5:fd:77:eb:50:
                    ed:51:89:ad:04:2f:49:88:71:3f:d2:77:18:3a:43:
                    a3:53:22:d4:68:61:f1:fe:ee:e5:48:29:b7:9c:fd:
                    9e:23:8f:b6:ef:52:f3:f9:31:00:b6:3a:f7:4b:01:
                    8b:15:dc:71:d4:ef:75:35:19:2c:84:78:01:31:b1:
                    6c:e5:c7
                Exponent: 65537 (0x10001)
        X509v3 extensions:
            X509v3 Basic Constraints: 
                CA:FALSE
            Netscape Comment: 
                Easy-RSA Generated Certificate
            X509v3 Subject Key Identifier: 
                5A:FB:F8:E0:F6:07:6D:EF:03:7F:87:1D:CE:32:6C:A2:77:01:83:C1
            X509v3 Authority Key Identifier: 
                keyid:12:CD:60:04:D2:A0:80:9E:70:ED:C6:99:B8:7B:2C:C6:52:FD:19:A1
                DirName:/C=US/ST=OH/L=Columbus/O=VikingVPN/OU=MyOrganizationalUnit/CN=VikingVPN CA/name=EasyRSA/emailAddress=me@myhost.mydomain
                serial:CF:35:85:EE:80:BF:2A:3E

            X509v3 Extended Key Usage: 
                TLS Web Client Authentication
            X509v3 Key Usage: 
                Digital Signature
    Signature Algorithm: md5WithRSAEncryption
         a7:19:39:1c:6e:a6:d5:bf:de:a9:da:92:93:1a:79:6f:e8:76:
         ce:a3:61:27:a0:00:4b:43:72:fd:6d:b7:8f:36:09:7d:8c:df:
         e2:e7:a9:0c:fc:6f:d5:27:c5:1d:ab:1f:57:47:19:7c:00:f1:
         c6:b9:ed:52:1e:e0:0f:ec:a0:cc:9a:09:f6:64:e1:bb:4e:f0:
         eb:5f:5e:67:20:05:4f:b5:81:1a:46:35:47:bb:1c:f0:18:2b:
         6a:c1:1c:c1:da:f0:23:f6:eb:d6:b9:b4:06:f7:e1:03:25:94:
         68:1f:2e:4e:77:91:1d:82:a8:b6:96:28:8a:05:c9:fb:c1:c5:
         36:0f:6c:5b:e0:98:3e:b6:29:6c:6f:25:d5:2e:27:35:7c:0f:
         3c:f5:7e:e0:14:4c:44:14:b6:41:3c:50:12:10:27:2d:c9:a8:
         d4:70:f3:69:d0:2c:b3:87:33:7c:95:93:f1:fa:50:90:b7:c1:
         e1:87:6c:e9:b7:64:2c:c2:3e:73:71:1c:1f:8a:21:6e:f4:c7:
         4d:f3:d9:f3:43:6d:54:e1:bc:f6:9d:99:81:1a:33:7e:1b:ca:
         8c:23:e9:2c:78:0c:56:07:19:8f:80:e4:3b:24:35:3a:fc:1a:
         c3:c0:12:d7:98:c0:9c:83:85:67:40:d3:97:6d:ec:70:13:8f:
         43:2b:33:53:5d:85:4c:6c:27:f6:06:7e:38:c3:17:d2:de:2f:
         cf:15:c0:11:6c:f8:95:20:1d:82:e9:96:03:98:86:f6:53:35:
         a6:16:91:0f:af:29:0b:20:02:3b:62:76:58:4d:34:3e:14:5d:
         4f:b0:57:54:e4:a0:aa:8c:a8:d8:fe:b1:c4:58:3a:09:67:31:
         6f:48:2e:b6:a3:a1:90:33:78:bd:c6:7a:d6:61:13:ed:ff:2e:
         ef:0b:63:d6:e8:ac:2f:4a:59:68:86:11:9f:f7:38:9f:5c:44:
         d9:d0:26:a9:f2:24:80:ca:1b:48:f5:17:79:56:8d:fc:ac:3f:
         5f:e3:94:a9:a4:0f:4c:d0:41:b5:f5:61:41:03:09:69:93:16:
         7b:80:5c:17:54:25:45:14:c4:39:58:19:6d:a8:d2:c4:7d:d8:
         46:69:df:e1:e9:d4:1f:78:45:b9:03:72:cd:21:31:bb:3e:f0:
         59:b3:33:1f:d1:de:3f:fa:2c:b8:e7:d8:52:02:81:6b:32:da:
         28:5f:93:e5:cc:fc:fc:90:04:fc:c4:3f:f6:8c:45:5a:6b:e2:
         01:50:56:cf:be:b9:fc:84:8d:d6:16:94:b1:f8:cc:44:83:3a:
         7e:3f:15:a6:14:f4:10:73:f6:5f:dd:36:fc:2b:4c:80:e0:b8:
         b8:02:06:b2:91:76:9f:b1
-----BEGIN CERTIFICATE-----
MIIGrTCCBJWgAwIBAgICGHowDQYJKoZIhvcNAQEEBQAwgawxCzAJBgNVBAYTAlVT
MQswCQYDVQQIEwJPSDERMA8GA1UEBxMIQ29sdW1idXMxEjAQBgNVBAoTCVZpa2lu
Z1ZQTjEdMBsGA1UECxMUTXlPcmdhbml6YXRpb25hbFVuaXQxFTATBgNVBAMTDFZp
a2luZ1ZQTiBDQTEQMA4GA1UEKRMHRWFzeVJTQTEhMB8GCSqGSIb3DQEJARYSbWVA
bXlob3N0Lm15ZG9tYWluMB4XDTE1MDkxNDAzMTYxMloXDTI1MDkxMTAzMTYxMlow
HzEdMBsGA1UEAxMUQ2xpZW50MTcxMUNlcnRkZGZlMDcwggIiMA0GCSqGSIb3DQEB
AQUAA4ICDwAwggIKAoICAQDMFGvUFpLs3LyoJcOvKC609Dtxo/L0fcAfQn3NQ1ey
lbzzarzk23U0Tk1R0OFAxmE4Fc8SGz4i85yvd44AOaGy6YrMvTOvaRzeCqXjyCZ0
gam8zivPo+bpz8DRdUb0Fs+NmIjWvC0ZeMWdzl0Vn6ipje5rFUeI53I2KOnq3GP/
b8mn9nk49CppqAMQdYplb6tQEkNbL+csRekI1CvEL+maApBz/Sm+u8jKu2/1Km3o
HR/phrT9DPuDG9ImIQW56deP4EvVLNugyL6O741Mh8Vd9/EEmzWVjYChrgm0dq92
Qe5yTTUSUHdHLUhxQssEImcejq19CG12fUQnDdcrsMYjeO2XaMkAYU9EgzarA+gS
k7Il1FMxOAZtxVy+mS2I7VIL+D/Aze2zt+PqvqLjjN6tnaJqoKzWFL5aWHYxNgBK
PGIPtvrQ+YwO118KWWn4OV85kU0m9SY5cR9YdG5WVTtGqHGqrDgHa8GOjCaUSK8z
gN146o6lGermAwZ70K+J6ow6hRGVXXAPLuPzwVvaAIYpgwtRtgzOSzjJUsvCQf24
MvInZNsnh7WIruUrobcSbmGItxDhhJeI6vtK5YfV/XfrUO1Ria0EL0mIcT/Sdxg6
Q6NTItRoYfH+7uVIKbec/Z4jj7bvUvP5MQC2OvdLAYsV3HHU73U1GSyEeAExsWzl
xwIDAQABo4IBYzCCAV8wCQYDVR0TBAIwADAtBglghkgBhvhCAQ0EIBYeRWFzeS1S
U0EgR2VuZXJhdGVkIENlcnRpZmljYXRlMB0GA1UdDgQWBBRa+/jg9gdt7wN/hx3O
MmyidwGDwTCB4QYDVR0jBIHZMIHWgBQSzWAE0qCAnnDtxpm4eyzGUv0ZoaGBsqSB
rzCBrDELMAkGA1UEBhMCVVMxCzAJBgNVBAgTAk9IMREwDwYDVQQHEwhDb2x1bWJ1
czESMBAGA1UEChMJVmlraW5nVlBOMR0wGwYDVQQLExRNeU9yZ2FuaXphdGlvbmFs
VW5pdDEVMBMGA1UEAxMMVmlraW5nVlBOIENBMRAwDgYDVQQpEwdFYXN5UlNBMSEw
HwYJKoZIhvcNAQkBFhJtZUBteWhvc3QubXlkb21haW6CCQDPNYXugL8qPjATBgNV
HSUEDDAKBggrBgEFBQcDAjALBgNVHQ8EBAMCB4AwDQYJKoZIhvcNAQEEBQADggIB
AKcZORxuptW/3qnakpMaeW/ods6jYSegAEtDcv1tt482CX2M3+LnqQz8b9UnxR2r
H1dHGXwA8ca57VIe4A/soMyaCfZk4btO8OtfXmcgBU+1gRpGNUe7HPAYK2rBHMHa
8CP269a5tAb34QMllGgfLk53kR2CqLaWKIoFyfvBxTYPbFvgmD62KWxvJdUuJzV8
Dzz1fuAUTEQUtkE8UBIQJy3JqNRw82nQLLOHM3yVk/H6UJC3weGHbOm3ZCzCPnNx
HB+KIW70x03z2fNDbVThvPadmYEaM34byowj6Sx4DFYHGY+A5DskNTr8GsPAEteY
wJyDhWdA05dt7HATj0MrM1NdhUxsJ/YGfjjDF9LeL88VwBFs+JUgHYLplgOYhvZT
NaYWkQ+vKQsgAjtidlhNND4UXU+wV1TkoKqMqNj+scRYOglnMW9ILrajoZAzeL3G
etZhE+3/Lu8LY9borC9KWWiGEZ/3OJ9cRNnQJqnyJIDKG0j1F3lWjfysP1/jlKmk
D0zQQbX1YUEDCWmTFnuAXBdUJUUUxDlYGW2o0sR92EZp3+Hp1B94RbkDcs0hMbs+
8FmzMx/R3j/6LLjn2FICgWsy2ihfk+XM/PyQBPzEP/aMRVpr4gFQVs++ufyEjdYW
lLH4zESDOn4/FaYU9BBz9l/dNvwrTIDguLgCBrKRdp+x
-----END CERTIFICATE-----
