Certificate:
    Data:
        Version: 3 (0x2)
        Serial Number: 4211 (0x1073)
    Signature Algorithm: md5WithRSAEncryption
        Issuer: C=US, ST=OH, L=Columbus, O=VikingVPN, OU=MyOrganizationalUnit, CN=VikingVPN CA/name=EasyRSA/emailAddress=me@myhost.mydomain
        Validity
            Not Before: Jan 20 01:12:16 2015 GMT
            Not After : Jan 17 01:12:16 2025 GMT
        Subject: CN=Client431Cert86751d
        Subject Public Key Info:
            Public Key Algorithm: rsaEncryption
                Public-Key: (4096 bit)
                Modulus:
                    00:c1:39:24:49:1b:69:6e:59:f0:c6:50:be:26:9a:
                    3b:e0:9a:24:89:2f:67:70:bd:00:2c:a9:f0:6d:16:
                    be:3b:93:23:b8:a8:1b:15:62:c8:61:01:ab:1d:05:
                    47:16:b4:f2:84:66:02:94:9e:92:9b:67:57:bf:72:
                    ff:74:6c:38:3f:32:e9:37:0a:20:01:37:49:19:54:
                    0c:90:d6:4d:f9:eb:ab:dd:65:43:54:ab:b5:a3:bc:
                    62:eb:57:f2:7d:b5:db:91:18:58:22:00:81:53:44:
                    4d:f8:b1:6c:02:09:73:8f:6c:93:ff:18:11:a0:18:
                    ad:f0:60:fb:c7:11:95:82:63:30:d3:60:64:ce:1a:
                    8c:9d:09:c9:68:0a:75:d8:15:04:63:cd:1f:11:a9:
                    83:9a:cb:f1:62:01:3b:2a:ac:29:77:b7:3a:82:61:
                    90:79:e8:ea:36:9f:ff:8e:a4:b7:50:95:df:0c:7f:
                    f7:27:6d:9a:da:6d:5d:4c:86:f6:ff:06:63:11:79:
                    81:b0:d7:d1:5c:51:2a:7c:d9:b5:a7:ce:f1:14:41:
                    73:67:6a:09:12:97:22:93:0b:11:fa:33:03:b6:59:
                    81:d9:fb:46:1c:55:70:24:ec:bb:e1:c6:df:f0:e5:
                    a0:69:59:29:f9:e9:ac:f3:55:bc:8b:91:29:6e:3e:
                    0c:f8:1b:38:0d:c3:d3:cb:49:d8:f6:9f:59:fa:78:
                    04:9f:3f:08:ca:8c:e8:2d:1c:41:78:42:fe:80:71:
                    ea:89:3a:a6:f5:93:12:59:28:e8:e1:18:87:ae:a4:
                    84:cf:67:9c:a3:55:24:86:7d:35:f6:8a:2c:bb:00:
                    0a:13:51:e6:d5:68:7c:7f:0b:92:9d:d0:af:20:58:
                    00:29:65:23:4f:28:96:e3:bf:b2:02:45:cd:44:54:
                    27:ab:34:db:61:48:5b:43:3a:9a:a8:d8:ca:82:2d:
                    f0:5e:9e:ef:b1:9b:ce:7b:43:d9:58:e7:b9:c6:38:
                    99:f4:3b:d2:bc:1a:bc:61:d6:14:47:3d:82:8e:c6:
                    97:0f:e9:94:7e:8b:b0:60:e5:2d:c8:ed:5a:3d:03:
                    36:de:17:c4:76:b4:19:60:50:cc:73:f0:d0:8b:35:
                    ce:15:cc:f9:fd:4f:13:73:89:6e:72:79:17:7b:1b:
                    40:98:f2:de:1e:58:cb:de:73:88:fb:d1:65:db:9c:
                    96:68:c4:b9:95:0a:64:2e:ee:d2:41:59:48:4f:e1:
                    9e:b1:54:74:7f:a8:a9:53:e6:94:14:51:f5:6f:e9:
                    7e:7a:b0:b0:c3:45:12:02:c2:00:ee:fb:67:87:24:
                    12:b7:8f:bc:01:17:71:a5:26:72:31:72:1a:20:dd:
                    47:cd:1b
                Exponent: 65537 (0x10001)
        X509v3 extensions:
            X509v3 Basic Constraints: 
                CA:FALSE
            Netscape Comment: 
                Easy-RSA Generated Certificate
            X509v3 Subject Key Identifier: 
                25:51:97:E6:F6:A4:F1:18:85:CD:82:F3:95:A0:D8:D0:93:A1:4D:11
            X509v3 Authority Key Identifier: 
                keyid:12:CD:60:04:D2:A0:80:9E:70:ED:C6:99:B8:7B:2C:C6:52:FD:19:A1
                DirName:/C=US/ST=OH/L=Columbus/O=VikingVPN/OU=MyOrganizationalUnit/CN=VikingVPN CA/name=EasyRSA/emailAddress=me@myhost.mydomain
                serial:CF:35:85:EE:80:BF:2A:3E

            X509v3 Extended Key Usage: 
                TLS Web Client Authentication
            X509v3 Key Usage: 
                Digital Signature
    Signature Algorithm: md5WithRSAEncryption
         18:97:8f:e9:ff:95:0e:02:b1:a1:cc:85:47:26:5e:e0:de:5a:
         e8:25:40:5b:5e:91:3f:f9:bc:45:c5:2d:a0:1b:b4:7d:e0:c1:
         a3:ed:64:a5:d5:ce:b2:53:13:5e:00:fb:72:48:a3:42:75:90:
         53:1e:ee:a2:f3:45:79:25:64:82:8a:82:ba:c8:d7:56:18:2d:
         96:d5:96:df:1d:6f:ec:55:82:8d:6a:83:b5:d5:c5:e8:f8:83:
         48:0f:de:f1:43:ec:3f:4d:e4:0c:83:22:e6:12:14:cd:bf:7e:
         93:07:f5:b8:b6:f0:b0:26:c9:f3:7e:0d:4f:07:8a:3a:f4:9e:
         09:6c:d6:9f:ea:26:62:27:66:0d:c7:d6:65:1d:4a:d2:93:c1:
         23:d5:8e:d5:0b:55:30:e1:fd:8e:dd:5c:f6:a5:77:21:80:4a:
         48:89:15:ac:63:41:f5:08:7e:37:86:f4:30:9f:61:7e:d7:19:
         2b:8f:8c:e6:e1:ba:bf:b8:21:65:f7:02:44:05:86:ec:00:06:
         04:7c:36:8d:6e:a5:58:94:67:6f:5d:e4:73:7a:d1:cf:01:46:
         fb:b1:d1:65:c8:88:11:7e:24:f2:25:e3:e0:48:74:4c:2b:2f:
         e6:4f:17:9a:0f:40:aa:40:8e:9b:22:56:84:b8:23:65:12:ce:
         5c:fa:6a:3b:1a:56:cd:79:76:0a:37:d2:ad:4b:8d:36:08:64:
         bb:b0:7e:13:01:18:70:45:62:72:8c:f9:98:57:33:c4:f8:50:
         ba:3a:f5:0d:ca:56:dc:f4:dd:30:21:08:ef:5b:dd:cd:cc:19:
         bc:0e:95:16:9a:9d:6b:9a:9d:4c:a1:49:24:1d:a5:8d:e5:54:
         15:9f:40:5f:96:6c:f1:c4:d7:41:f4:c3:db:78:fc:2b:8e:f2:
         50:26:b1:76:d0:68:6f:d5:9c:25:09:f8:0f:4c:53:48:ce:bc:
         6e:14:77:71:ca:e8:31:5f:0f:83:5f:24:36:89:aa:04:ea:79:
         33:b5:b8:ab:39:02:87:46:0e:ac:cf:a3:ce:b5:ef:a7:a1:e4:
         1f:c5:6d:ba:b4:fc:7f:cf:2f:a8:db:bb:44:72:4a:04:79:34:
         2d:a9:6b:b3:27:96:fa:cd:da:5c:08:7c:13:3c:84:e1:a8:09:
         e3:6f:67:4e:1b:13:ef:93:3d:bc:fd:41:c2:0c:b2:55:62:d8:
         5b:ca:98:26:dc:7d:b6:44:13:79:81:7d:9a:a0:3d:2d:28:1a:
         31:6c:ba:4c:79:61:db:88:e2:a6:01:80:fc:f8:a2:74:73:b6:
         7c:71:ef:e1:bb:97:48:57:51:a8:62:cc:9c:de:d5:a2:3a:08:
         5c:0e:bc:c5:2c:26:4d:fe
-----BEGIN CERTIFICATE-----
MIIGrDCCBJSgAwIBAgICEHMwDQYJKoZIhvcNAQEEBQAwgawxCzAJBgNVBAYTAlVT
MQswCQYDVQQIEwJPSDERMA8GA1UEBxMIQ29sdW1idXMxEjAQBgNVBAoTCVZpa2lu
Z1ZQTjEdMBsGA1UECxMUTXlPcmdhbml6YXRpb25hbFVuaXQxFTATBgNVBAMTDFZp
a2luZ1ZQTiBDQTEQMA4GA1UEKRMHRWFzeVJTQTEhMB8GCSqGSIb3DQEJARYSbWVA
bXlob3N0Lm15ZG9tYWluMB4XDTE1MDEyMDAxMTIxNloXDTI1MDExNzAxMTIxNlow
HjEcMBoGA1UEAxMTQ2xpZW50NDMxQ2VydDg2NzUxZDCCAiIwDQYJKoZIhvcNAQEB
BQADggIPADCCAgoCggIBAME5JEkbaW5Z8MZQviaaO+CaJIkvZ3C9ACyp8G0WvjuT
I7ioGxViyGEBqx0FRxa08oRmApSekptnV79y/3RsOD8y6TcKIAE3SRlUDJDWTfnr
q91lQ1SrtaO8YutX8n2125EYWCIAgVNETfixbAIJc49sk/8YEaAYrfBg+8cRlYJj
MNNgZM4ajJ0JyWgKddgVBGPNHxGpg5rL8WIBOyqsKXe3OoJhkHno6jaf/46kt1CV
3wx/9ydtmtptXUyG9v8GYxF5gbDX0VxRKnzZtafO8RRBc2dqCRKXIpMLEfozA7ZZ
gdn7RhxVcCTsu+HG3/DloGlZKfnprPNVvIuRKW4+DPgbOA3D08tJ2PafWfp4BJ8/
CMqM6C0cQXhC/oBx6ok6pvWTElko6OEYh66khM9nnKNVJIZ9NfaKLLsAChNR5tVo
fH8Lkp3QryBYACllI08oluO/sgJFzURUJ6s022FIW0M6mqjYyoIt8F6e77GbzntD
2VjnucY4mfQ70rwavGHWFEc9go7Glw/plH6LsGDlLcjtWj0DNt4XxHa0GWBQzHPw
0Is1zhXM+f1PE3OJbnJ5F3sbQJjy3h5Yy95ziPvRZduclmjEuZUKZC7u0kFZSE/h
nrFUdH+oqVPmlBRR9W/pfnqwsMNFEgLCAO77Z4ckErePvAEXcaUmcjFyGiDdR80b
AgMBAAGjggFjMIIBXzAJBgNVHRMEAjAAMC0GCWCGSAGG+EIBDQQgFh5FYXN5LVJT
QSBHZW5lcmF0ZWQgQ2VydGlmaWNhdGUwHQYDVR0OBBYEFCVRl+b2pPEYhc2C85Wg
2NCToU0RMIHhBgNVHSMEgdkwgdaAFBLNYATSoICecO3Gmbh7LMZS/RmhoYGypIGv
MIGsMQswCQYDVQQGEwJVUzELMAkGA1UECBMCT0gxETAPBgNVBAcTCENvbHVtYnVz
MRIwEAYDVQQKEwlWaWtpbmdWUE4xHTAbBgNVBAsTFE15T3JnYW5pemF0aW9uYWxV
bml0MRUwEwYDVQQDEwxWaWtpbmdWUE4gQ0ExEDAOBgNVBCkTB0Vhc3lSU0ExITAf
BgkqhkiG9w0BCQEWEm1lQG15aG9zdC5teWRvbWFpboIJAM81he6Avyo+MBMGA1Ud
JQQMMAoGCCsGAQUFBwMCMAsGA1UdDwQEAwIHgDANBgkqhkiG9w0BAQQFAAOCAgEA
GJeP6f+VDgKxocyFRyZe4N5a6CVAW16RP/m8RcUtoBu0feDBo+1kpdXOslMTXgD7
ckijQnWQUx7uovNFeSVkgoqCusjXVhgtltWW3x1v7FWCjWqDtdXF6PiDSA/e8UPs
P03kDIMi5hIUzb9+kwf1uLbwsCbJ834NTweKOvSeCWzWn+omYidmDcfWZR1K0pPB
I9WO1QtVMOH9jt1c9qV3IYBKSIkVrGNB9Qh+N4b0MJ9hftcZK4+M5uG6v7ghZfcC
RAWG7AAGBHw2jW6lWJRnb13kc3rRzwFG+7HRZciIEX4k8iXj4Eh0TCsv5k8Xmg9A
qkCOmyJWhLgjZRLOXPpqOxpWzXl2CjfSrUuNNghku7B+EwEYcEVicoz5mFczxPhQ
ujr1DcpW3PTdMCEI71vdzcwZvA6VFpqda5qdTKFJJB2ljeVUFZ9AX5Zs8cTXQfTD
23j8K47yUCaxdtBob9WcJQn4D0xTSM68bhR3ccroMV8Pg18kNomqBOp5M7W4qzkC
h0YOrM+jzrXvp6HkH8VturT8f88vqNu7RHJKBHk0LalrsyeW+s3aXAh8EzyE4agJ
429nThsT75M9vP1BwgyyVWLYW8qYJtx9tkQTeYF9mqA9LSgaMWy6THlh24jipgGA
/PiidHO2fHHv4buXSFdRqGLMnN7VojoIXA68xSwmTf4=
-----END CERTIFICATE-----
