Certificate:
    Data:
        Version: 3 (0x2)
        Serial Number: 6286 (0x188e)
    Signature Algorithm: md5WithRSAEncryption
        Issuer: C=US, ST=OH, L=Columbus, O=VikingVPN, OU=MyOrganizationalUnit, CN=VikingVPN CA/name=EasyRSA/emailAddress=me@myhost.mydomain
        Validity
            Not Before: Sep 16 05:01:09 2015 GMT
            Not After : Sep 13 05:01:09 2025 GMT
        Subject: CN=Client1951Cert01f592
        Subject Public Key Info:
            Public Key Algorithm: rsaEncryption
                Public-Key: (4096 bit)
                Modulus:
                    00:a8:4d:37:4e:0d:70:8c:04:a4:e7:5b:a2:b3:aa:
                    c2:ec:18:ed:09:f0:a4:7c:4d:a9:dd:ff:1b:a0:dd:
                    c7:8e:8e:c8:91:41:0a:76:27:3b:62:5d:a3:6d:04:
                    d9:ed:b1:d7:8b:78:1b:e8:6f:4d:46:2d:61:52:e6:
                    59:23:ec:0e:aa:f9:34:7f:d0:88:a3:c3:b7:e7:2f:
                    89:57:12:0c:14:bb:15:55:f5:fa:8d:a5:7d:2c:0b:
                    5d:99:a8:53:f4:f9:a1:68:e7:a7:a1:3d:e9:5e:4c:
                    88:16:46:c2:fc:0d:1d:3b:58:5d:0a:25:7e:f8:27:
                    55:ba:9e:c2:8c:a5:e9:2b:7e:1b:ba:3d:ab:a5:37:
                    50:9a:cc:bc:b4:fb:27:54:db:cb:8c:de:97:d8:b6:
                    2a:af:cb:36:75:80:e7:3b:60:d3:5a:63:46:24:54:
                    7a:53:31:f5:73:a9:f8:77:d9:dd:71:28:f3:68:97:
                    41:71:76:5e:d7:5a:21:c3:cb:72:e4:b7:22:4c:2a:
                    8f:68:2b:8a:a6:89:6d:f9:9f:93:04:bb:b7:56:95:
                    18:9b:d6:85:cc:37:ea:94:72:ba:30:4a:6c:81:33:
                    b9:91:63:e9:bf:ab:a8:3b:45:ab:aa:3c:d7:4a:c5:
                    2c:20:2d:05:74:46:91:ef:96:c9:0f:ff:f6:fd:71:
                    b1:2e:62:ee:c3:86:89:65:2b:95:34:b1:1c:a6:77:
                    c6:82:d6:08:12:88:fc:9d:b2:9e:97:90:02:06:9b:
                    01:c7:71:09:7a:91:41:db:3b:a5:20:b4:65:78:4f:
                    0e:32:1a:15:6d:b4:a5:56:0c:15:13:fd:56:ea:2f:
                    19:13:93:ae:5a:b9:1b:11:c9:4c:c0:66:1f:13:8c:
                    2e:d9:89:d2:b9:93:fc:34:5a:25:39:5e:75:92:da:
                    7a:b8:2f:2c:5b:fb:15:f4:d4:26:36:2f:3d:d0:41:
                    1b:4a:1b:67:a2:c9:22:5e:0e:45:09:75:83:6d:9f:
                    01:18:8f:dc:f4:30:7f:fa:9f:c6:a2:6e:15:fe:71:
                    f9:bc:af:a6:80:bd:c2:c9:55:b2:dc:b8:d0:9b:ea:
                    5c:4c:5f:0a:ba:aa:5c:88:6c:76:22:bb:cb:2a:6e:
                    c1:1c:e8:48:72:3a:4b:6e:dd:ca:73:54:19:90:87:
                    04:a3:96:10:5d:9c:f9:01:68:3d:fb:ee:8f:a4:8e:
                    c7:2c:1f:74:ac:4d:32:ee:5b:7d:f3:7a:0f:39:77:
                    d6:40:f1:0e:a9:ee:1d:d8:4d:4c:4e:02:28:c2:62:
                    1f:97:20:55:46:26:1e:b3:bd:c9:8f:fd:27:43:ec:
                    2c:f5:e9:a3:10:5f:d5:8c:73:ba:b6:2c:35:ff:8e:
                    9e:20:8d
                Exponent: 65537 (0x10001)
        X509v3 extensions:
            X509v3 Basic Constraints: 
                CA:FALSE
            Netscape Comment: 
                Easy-RSA Generated Certificate
            X509v3 Subject Key Identifier: 
                63:AE:7F:11:28:35:FE:FE:84:37:EA:D7:6C:96:B7:C3:5F:0D:94:2C
            X509v3 Authority Key Identifier: 
                keyid:12:CD:60:04:D2:A0:80:9E:70:ED:C6:99:B8:7B:2C:C6:52:FD:19:A1
                DirName:/C=US/ST=OH/L=Columbus/O=VikingVPN/OU=MyOrganizationalUnit/CN=VikingVPN CA/name=EasyRSA/emailAddress=me@myhost.mydomain
                serial:CF:35:85:EE:80:BF:2A:3E

            X509v3 Extended Key Usage: 
                TLS Web Client Authentication
            X509v3 Key Usage: 
                Digital Signature
    Signature Algorithm: md5WithRSAEncryption
         a1:b3:69:11:ef:52:9c:66:5e:8b:37:d8:04:53:89:18:37:0f:
         07:05:57:c1:72:6f:71:d1:69:a6:a3:2e:50:9d:3a:75:2f:81:
         6f:b9:25:2d:3e:c8:8c:56:35:3f:a5:4e:ab:ce:82:e5:16:fb:
         9b:d1:5a:37:92:41:64:11:29:4b:ba:54:a3:a4:56:ac:03:36:
         2e:31:a2:b3:1a:ce:86:06:fb:80:31:41:7d:7d:85:11:df:7c:
         0f:d4:ab:ae:ae:44:70:61:07:89:b1:f6:14:47:bc:9e:7f:ef:
         29:f1:32:02:c5:f0:f6:39:66:f6:dd:c7:db:90:e2:d5:09:54:
         77:de:99:e1:c2:cb:84:af:84:89:3f:71:d6:42:00:38:1e:ae:
         71:08:8b:ff:00:c8:5d:88:7c:e0:2e:ec:74:97:86:e1:ab:07:
         6a:92:31:4f:ed:c1:b1:70:20:9d:a6:88:04:be:2a:71:68:82:
         f4:dc:06:19:19:be:90:98:ad:82:c6:2e:30:ec:9b:97:75:09:
         e6:f9:cf:c8:53:14:c0:d6:8f:eb:5f:51:1e:53:a3:1b:2c:fb:
         37:e8:3e:95:05:34:6c:c8:1e:31:6d:d5:28:a2:24:25:1a:a1:
         7b:8a:bb:2d:65:3f:5d:bb:c7:b9:bb:59:47:91:bb:a7:de:30:
         f1:fa:dd:0c:d8:6f:10:8a:c4:d4:c8:91:84:82:bc:01:09:fb:
         84:94:cf:66:66:0c:23:f2:03:47:60:79:7f:4a:ea:49:3f:c3:
         80:46:d7:d3:ba:b8:e2:83:64:ba:25:e1:c5:91:32:b7:f9:07:
         ef:dc:4a:58:85:f2:64:11:8b:14:6b:7b:2b:32:07:d5:21:18:
         fc:75:72:dd:2a:fe:7f:96:16:32:92:88:45:00:44:88:25:5b:
         a9:0d:b5:9d:87:02:0a:f1:8b:37:18:a2:66:c2:89:1d:7e:c6:
         48:70:32:a0:bd:d2:9d:7d:4e:b9:e3:45:98:51:60:22:6b:4d:
         5f:11:9f:a2:bd:c6:1f:c9:54:45:64:0b:78:b7:34:10:73:84:
         c0:ca:ff:b8:91:78:fd:bd:d9:63:23:c5:f3:ab:7d:2d:25:14:
         24:82:37:a0:ef:a6:65:4c:5b:3e:28:a9:86:73:4a:94:f5:f5:
         b3:a0:f7:c3:92:fc:f5:09:0f:23:95:8d:58:be:1a:39:f6:a3:
         7e:a2:a1:b4:cb:29:ad:0f:77:af:50:bc:89:04:15:11:b1:65:
         1d:26:dc:49:4f:0a:2e:34:26:3a:a7:7a:6a:e7:c4:e6:70:1f:
         57:7f:3a:b5:86:19:44:8c:db:d9:75:a6:ab:64:97:30:8c:86:
         9c:93:07:c1:81:a9:ad:d9
-----BEGIN CERTIFICATE-----
MIIGrTCCBJWgAwIBAgICGI4wDQYJKoZIhvcNAQEEBQAwgawxCzAJBgNVBAYTAlVT
MQswCQYDVQQIEwJPSDERMA8GA1UEBxMIQ29sdW1idXMxEjAQBgNVBAoTCVZpa2lu
Z1ZQTjEdMBsGA1UECxMUTXlPcmdhbml6YXRpb25hbFVuaXQxFTATBgNVBAMTDFZp
a2luZ1ZQTiBDQTEQMA4GA1UEKRMHRWFzeVJTQTEhMB8GCSqGSIb3DQEJARYSbWVA
bXlob3N0Lm15ZG9tYWluMB4XDTE1MDkxNjA1MDEwOVoXDTI1MDkxMzA1MDEwOVow
HzEdMBsGA1UEAxMUQ2xpZW50MTk1MUNlcnQwMWY1OTIwggIiMA0GCSqGSIb3DQEB
AQUAA4ICDwAwggIKAoICAQCoTTdODXCMBKTnW6KzqsLsGO0J8KR8Tand/xug3ceO
jsiRQQp2JztiXaNtBNntsdeLeBvob01GLWFS5lkj7A6q+TR/0Iijw7fnL4lXEgwU
uxVV9fqNpX0sC12ZqFP0+aFo56ehPeleTIgWRsL8DR07WF0KJX74J1W6nsKMpekr
fhu6PaulN1CazLy0+ydU28uM3pfYtiqvyzZ1gOc7YNNaY0YkVHpTMfVzqfh32d1x
KPNol0Fxdl7XWiHDy3LktyJMKo9oK4qmiW35n5MEu7dWlRib1oXMN+qUcrowSmyB
M7mRY+m/q6g7RauqPNdKxSwgLQV0RpHvlskP//b9cbEuYu7DhollK5U0sRymd8aC
1ggSiPydsp6XkAIGmwHHcQl6kUHbO6UgtGV4Tw4yGhVttKVWDBUT/VbqLxkTk65a
uRsRyUzAZh8TjC7ZidK5k/w0WiU5XnWS2nq4Lyxb+xX01CY2Lz3QQRtKG2eiySJe
DkUJdYNtnwEYj9z0MH/6n8aibhX+cfm8r6aAvcLJVbLcuNCb6lxMXwq6qlyIbHYi
u8sqbsEc6EhyOktu3cpzVBmQhwSjlhBdnPkBaD377o+kjscsH3SsTTLuW33zeg85
d9ZA8Q6p7h3YTUxOAijCYh+XIFVGJh6zvcmP/SdD7Cz16aMQX9WMc7q2LDX/jp4g
jQIDAQABo4IBYzCCAV8wCQYDVR0TBAIwADAtBglghkgBhvhCAQ0EIBYeRWFzeS1S
U0EgR2VuZXJhdGVkIENlcnRpZmljYXRlMB0GA1UdDgQWBBRjrn8RKDX+/oQ36tds
lrfDXw2ULDCB4QYDVR0jBIHZMIHWgBQSzWAE0qCAnnDtxpm4eyzGUv0ZoaGBsqSB
rzCBrDELMAkGA1UEBhMCVVMxCzAJBgNVBAgTAk9IMREwDwYDVQQHEwhDb2x1bWJ1
czESMBAGA1UEChMJVmlraW5nVlBOMR0wGwYDVQQLExRNeU9yZ2FuaXphdGlvbmFs
VW5pdDEVMBMGA1UEAxMMVmlraW5nVlBOIENBMRAwDgYDVQQpEwdFYXN5UlNBMSEw
HwYJKoZIhvcNAQkBFhJtZUBteWhvc3QubXlkb21haW6CCQDPNYXugL8qPjATBgNV
HSUEDDAKBggrBgEFBQcDAjALBgNVHQ8EBAMCB4AwDQYJKoZIhvcNAQEEBQADggIB
AKGzaRHvUpxmXos32ARTiRg3DwcFV8Fyb3HRaaajLlCdOnUvgW+5JS0+yIxWNT+l
TqvOguUW+5vRWjeSQWQRKUu6VKOkVqwDNi4xorMazoYG+4AxQX19hRHffA/Uq66u
RHBhB4mx9hRHvJ5/7ynxMgLF8PY5Zvbdx9uQ4tUJVHfemeHCy4SvhIk/cdZCADge
rnEIi/8AyF2IfOAu7HSXhuGrB2qSMU/twbFwIJ2miAS+KnFogvTcBhkZvpCYrYLG
LjDsm5d1Ceb5z8hTFMDWj+tfUR5Toxss+zfoPpUFNGzIHjFt1SiiJCUaoXuKuy1l
P127x7m7WUeRu6feMPH63QzYbxCKxNTIkYSCvAEJ+4SUz2ZmDCPyA0dgeX9K6kk/
w4BG19O6uOKDZLol4cWRMrf5B+/cSliF8mQRixRreysyB9UhGPx1ct0q/n+WFjKS
iEUARIglW6kNtZ2HAgrxizcYombCiR1+xkhwMqC90p19TrnjRZhRYCJrTV8Rn6K9
xh/JVEVkC3i3NBBzhMDK/7iReP292WMjxfOrfS0lFCSCN6DvpmVMWz4oqYZzSpT1
9bOg98OS/PUJDyOVjVi+Gjn2o36iobTLKa0Pd69QvIkEFRGxZR0m3ElPCi40Jjqn
emrnxOZwH1d/OrWGGUSM29l1pqtklzCMhpyTB8GBqa3Z
-----END CERTIFICATE-----
