Certificate:
    Data:
        Version: 3 (0x2)
        Serial Number: 8689 (0x21f1)
    Signature Algorithm: sha256WithRSAEncryption
        Issuer: C=US, ST=OH, L=Columbus, O=VikingVPN, OU=MyOrganizationalUnit, CN=VikingVPN CA/name=EasyRSA/emailAddress=me@myhost.mydomain
        Validity
            Not Before: Aug  4 12:20:56 2016 GMT
            Not After : Aug  2 12:20:56 2026 GMT
        Subject: CN=Client1702Cert0696af
        Subject Public Key Info:
            Public Key Algorithm: rsaEncryption
                Public-Key: (4096 bit)
                Modulus:
                    00:de:a2:f6:5c:9e:59:e2:05:58:bd:0e:8e:2c:2e:
                    64:06:cb:2d:8d:79:72:59:df:85:f3:da:76:37:09:
                    fb:a6:16:2e:e5:a6:c2:c1:60:a7:a1:6b:0e:f3:00:
                    61:18:0f:d3:59:bd:0d:72:7d:ca:d0:8e:d5:2e:1c:
                    e7:b0:f1:95:25:71:e1:1b:5d:99:bc:c5:9e:f0:92:
                    b1:cc:0b:b6:d1:39:b0:ce:96:92:e7:6e:f5:b4:59:
                    87:6f:22:2c:c1:53:ba:97:1b:73:35:48:57:c3:e3:
                    82:ae:5c:4f:95:93:12:7c:a6:9f:91:f7:14:c0:89:
                    df:ee:76:c4:e7:51:5b:18:c7:dd:6e:ea:cd:9d:f6:
                    2c:51:15:75:be:a1:2c:8f:54:c4:8d:4e:3c:99:48:
                    8e:03:0e:50:45:aa:8f:c0:f1:02:b6:99:69:e3:dd:
                    f4:b8:3d:07:24:f3:81:ea:30:d1:09:ae:13:1c:76:
                    f1:bd:18:15:fc:f0:27:66:1e:24:4c:41:8a:b5:e6:
                    55:40:15:32:4c:54:c1:44:5d:49:c2:23:b9:10:cb:
                    ad:7b:4a:71:19:76:37:75:de:3c:b2:67:5f:2f:9c:
                    ea:9e:6e:7b:bf:30:ff:f6:5b:cf:ea:2b:de:bd:4f:
                    e8:b3:ae:0c:72:3a:75:e6:4c:15:be:31:05:2b:3a:
                    44:6c:d1:fd:6d:22:ba:4d:65:96:ef:58:b3:ff:7b:
                    6f:e9:35:e1:72:6c:99:78:78:7f:92:7f:a7:86:23:
                    4c:e5:3e:b4:8b:03:18:14:ff:d7:76:bd:59:92:61:
                    45:b0:eb:e6:f3:82:b5:1e:0d:10:1c:05:3c:07:51:
                    10:7c:97:da:dd:ff:8a:63:0c:9d:7d:e1:36:79:5c:
                    48:57:49:74:35:e1:c5:62:8c:7c:be:a1:ad:b4:29:
                    bb:b6:c0:7b:71:43:95:a7:d1:6a:05:a8:89:17:dd:
                    72:30:da:90:13:8e:ce:c2:81:f2:0c:a0:20:8f:b4:
                    f0:a4:b9:de:ab:9a:6c:a4:ae:f6:80:00:f9:d4:d9:
                    2b:39:99:17:e5:ac:bc:9f:93:8e:5a:6b:1b:b7:d5:
                    1b:cb:92:ba:cc:2a:15:3b:68:eb:eb:4c:84:17:79:
                    d6:56:28:d3:46:da:09:1d:f4:e8:ad:90:87:0b:93:
                    c0:23:6d:77:51:24:22:ad:34:41:ae:ed:50:58:7e:
                    53:cf:b8:8a:56:ad:8d:00:79:b2:e0:57:b2:42:d0:
                    41:d3:20:05:ef:0b:8f:b8:2e:da:0d:5c:42:86:c8:
                    f2:5b:62:31:46:c7:51:76:eb:74:ac:6a:13:81:ff:
                    72:80:46:36:14:39:80:73:ed:87:23:b6:23:48:ac:
                    c9:0c:8f
                Exponent: 65537 (0x10001)
        X509v3 extensions:
            X509v3 Basic Constraints: 
                CA:FALSE
            Netscape Comment: 
                Easy-RSA Generated Certificate
            X509v3 Subject Key Identifier: 
                C1:AB:EE:EE:1F:DC:BE:D3:96:92:C8:15:D1:FD:CC:1D:AE:3C:B3:58
            X509v3 Authority Key Identifier: 
                keyid:12:CD:60:04:D2:A0:80:9E:70:ED:C6:99:B8:7B:2C:C6:52:FD:19:A1
                DirName:/C=US/ST=OH/L=Columbus/O=VikingVPN/OU=MyOrganizationalUnit/CN=VikingVPN CA/name=EasyRSA/emailAddress=me@myhost.mydomain
                serial:CF:35:85:EE:80:BF:2A:3E

            X509v3 Extended Key Usage: 
                TLS Web Client Authentication
            X509v3 Key Usage: 
                Digital Signature
    Signature Algorithm: sha256WithRSAEncryption
         df:85:49:4c:91:6f:46:62:6c:fd:2e:14:71:12:09:13:da:4f:
         ec:23:e2:a0:3c:19:78:07:90:7b:23:22:a4:09:d1:85:24:27:
         14:5a:61:cf:d0:0b:e2:16:c8:06:a3:f0:8b:5a:2d:57:4f:1b:
         16:23:15:ff:00:b3:dd:d1:86:92:04:71:da:07:57:7b:17:3a:
         3b:00:50:1c:fa:7e:0a:7e:5c:4f:e6:cb:42:27:39:8f:a7:72:
         47:74:69:38:bf:c9:40:2a:21:7a:ea:8e:86:58:33:9b:d4:1d:
         96:85:f9:af:34:83:3a:b5:67:ae:53:0b:6f:01:40:66:ac:5a:
         3a:86:b2:fb:7b:a2:22:41:2e:19:31:76:7a:14:6c:75:7a:d5:
         ce:20:bf:34:87:d6:78:12:ea:4f:4e:6e:37:07:c7:c6:28:51:
         85:38:87:5d:51:85:92:8c:98:05:93:81:d4:0d:e3:f4:56:76:
         fa:d8:73:43:2b:80:1d:f4:fc:8a:10:79:94:b9:e1:0a:9e:ae:
         97:6d:af:2c:fe:9b:2d:f0:40:03:70:ab:f7:46:fb:2c:4f:82:
         0f:5c:8b:f3:74:6c:63:99:83:f1:e9:d8:ef:78:c7:b0:4c:ee:
         d0:4d:25:ce:03:26:da:4c:1a:74:fb:a5:c4:50:a1:1d:d1:0f:
         83:dc:72:0a:7b:93:9f:3e:01:7c:d7:3b:d9:d4:87:34:ba:fa:
         d5:33:00:36:ba:29:a7:67:c6:bb:d0:7c:f9:e1:19:5a:fc:e8:
         d8:c8:99:fe:f0:23:e6:45:1f:e2:be:bd:18:d3:4a:ce:1d:18:
         d9:01:f4:ff:a5:46:07:33:aa:b7:8b:a7:fe:47:f0:ec:c1:f1:
         d3:08:c6:f0:63:7c:a2:ab:49:b0:4f:4e:f2:86:45:7d:d4:7d:
         d9:f8:df:52:48:08:10:b5:93:87:4c:22:75:10:5d:e6:22:bb:
         6c:58:73:e7:f5:6a:de:44:32:35:de:3c:b9:3f:80:1c:f6:84:
         57:37:e4:bc:0d:38:86:bc:61:c7:cf:cd:f7:13:5d:23:e8:58:
         44:cd:aa:da:71:43:a9:22:c7:48:9c:8e:f1:07:eb:b7:fe:90:
         de:77:05:e8:16:c7:55:33:67:5b:35:09:d4:74:f5:68:06:79:
         36:4b:d9:0a:1d:ce:6f:c5:7e:2b:68:8e:01:aa:9e:71:59:73:
         30:02:47:f1:6b:28:02:82:51:01:58:14:90:71:3c:2e:b3:97:
         c8:5f:2f:fd:d9:33:ab:62:41:0f:49:a4:33:16:c6:f1:58:32:
         d7:d8:f5:14:3a:bf:eb:8d:ed:2c:4e:c1:76:43:aa:5f:27:00:
         8b:a9:aa:1c:58:2f:09:b4
-----BEGIN CERTIFICATE-----
MIIGrTCCBJWgAwIBAgICIfEwDQYJKoZIhvcNAQELBQAwgawxCzAJBgNVBAYTAlVT
MQswCQYDVQQIEwJPSDERMA8GA1UEBxMIQ29sdW1idXMxEjAQBgNVBAoTCVZpa2lu
Z1ZQTjEdMBsGA1UECxMUTXlPcmdhbml6YXRpb25hbFVuaXQxFTATBgNVBAMTDFZp
a2luZ1ZQTiBDQTEQMA4GA1UEKRMHRWFzeVJTQTEhMB8GCSqGSIb3DQEJARYSbWVA
bXlob3N0Lm15ZG9tYWluMB4XDTE2MDgwNDEyMjA1NloXDTI2MDgwMjEyMjA1Nlow
HzEdMBsGA1UEAxMUQ2xpZW50MTcwMkNlcnQwNjk2YWYwggIiMA0GCSqGSIb3DQEB
AQUAA4ICDwAwggIKAoICAQDeovZcnlniBVi9Do4sLmQGyy2NeXJZ34Xz2nY3Cfum
Fi7lpsLBYKehaw7zAGEYD9NZvQ1yfcrQjtUuHOew8ZUlceEbXZm8xZ7wkrHMC7bR
ObDOlpLnbvW0WYdvIizBU7qXG3M1SFfD44KuXE+VkxJ8pp+R9xTAid/udsTnUVsY
x91u6s2d9ixRFXW+oSyPVMSNTjyZSI4DDlBFqo/A8QK2mWnj3fS4PQck84HqMNEJ
rhMcdvG9GBX88CdmHiRMQYq15lVAFTJMVMFEXUnCI7kQy617SnEZdjd13jyyZ18v
nOqebnu/MP/2W8/qK969T+izrgxyOnXmTBW+MQUrOkRs0f1tIrpNZZbvWLP/e2/p
NeFybJl4eH+Sf6eGI0zlPrSLAxgU/9d2vVmSYUWw6+bzgrUeDRAcBTwHURB8l9rd
/4pjDJ194TZ5XEhXSXQ14cVijHy+oa20Kbu2wHtxQ5Wn0WoFqIkX3XIw2pATjs7C
gfIMoCCPtPCkud6rmmykrvaAAPnU2Ss5mRflrLyfk45aaxu31RvLkrrMKhU7aOvr
TIQXedZWKNNG2gkd9OitkIcLk8AjbXdRJCKtNEGu7VBYflPPuIpWrY0AebLgV7JC
0EHTIAXvC4+4LtoNXEKGyPJbYjFGx1F263SsahOB/3KARjYUOYBz7YcjtiNIrMkM
jwIDAQABo4IBYzCCAV8wCQYDVR0TBAIwADAtBglghkgBhvhCAQ0EIBYeRWFzeS1S
U0EgR2VuZXJhdGVkIENlcnRpZmljYXRlMB0GA1UdDgQWBBTBq+7uH9y+05aSyBXR
/cwdrjyzWDCB4QYDVR0jBIHZMIHWgBQSzWAE0qCAnnDtxpm4eyzGUv0ZoaGBsqSB
rzCBrDELMAkGA1UEBhMCVVMxCzAJBgNVBAgTAk9IMREwDwYDVQQHEwhDb2x1bWJ1
czESMBAGA1UEChMJVmlraW5nVlBOMR0wGwYDVQQLExRNeU9yZ2FuaXphdGlvbmFs
VW5pdDEVMBMGA1UEAxMMVmlraW5nVlBOIENBMRAwDgYDVQQpEwdFYXN5UlNBMSEw
HwYJKoZIhvcNAQkBFhJtZUBteWhvc3QubXlkb21haW6CCQDPNYXugL8qPjATBgNV
HSUEDDAKBggrBgEFBQcDAjALBgNVHQ8EBAMCB4AwDQYJKoZIhvcNAQELBQADggIB
AN+FSUyRb0ZibP0uFHESCRPaT+wj4qA8GXgHkHsjIqQJ0YUkJxRaYc/QC+IWyAaj
8ItaLVdPGxYjFf8As93RhpIEcdoHV3sXOjsAUBz6fgp+XE/my0InOY+nckd0aTi/
yUAqIXrqjoZYM5vUHZaF+a80gzq1Z65TC28BQGasWjqGsvt7oiJBLhkxdnoUbHV6
1c4gvzSH1ngS6k9ObjcHx8YoUYU4h11RhZKMmAWTgdQN4/RWdvrYc0MrgB30/IoQ
eZS54Qqerpdtryz+my3wQANwq/dG+yxPgg9ci/N0bGOZg/Hp2O94x7BM7tBNJc4D
JtpMGnT7pcRQoR3RD4Pccgp7k58+AXzXO9nUhzS6+tUzADa6KadnxrvQfPnhGVr8
6NjImf7wI+ZFH+K+vRjTSs4dGNkB9P+lRgczqreLp/5H8OzB8dMIxvBjfKKrSbBP
TvKGRX3Ufdn431JICBC1k4dMInUQXeYiu2xYc+f1at5EMjXePLk/gBz2hFc35LwN
OIa8YcfPzfcTXSPoWETNqtpxQ6kix0icjvEH67f+kN53BegWx1UzZ1s1CdR09WgG
eTZL2Qodzm/FfitojgGqnnFZczACR/FrKAKCUQFYFJBxPC6zl8hfL/3ZM6tiQQ9J
pDMWxvFYMtfY9RQ6v+uN7SxOwXZDql8nAIupqhxYLwm0
-----END CERTIFICATE-----
