Certificate:
    Data:
        Version: 3 (0x2)
        Serial Number: 1990 (0x7c6)
    Signature Algorithm: md5WithRSAEncryption
        Issuer: C=US, ST=OH, L=Columbus, O=VikingVPN, OU=MyOrganizationalUnit, CN=VikingVPN CA/name=EasyRSA/emailAddress=me@myhost.mydomain
        Validity
            Not Before: May 31 22:13:29 2014 GMT
            Not After : May 28 22:13:29 2024 GMT
        Subject: CN=Client689Cert80fd82
        Subject Public Key Info:
            Public Key Algorithm: rsaEncryption
                Public-Key: (4096 bit)
                Modulus:
                    00:e8:35:42:b0:70:ce:2a:47:88:6b:06:ac:6f:81:
                    37:66:fa:5a:aa:50:ce:e7:b5:d4:5b:3d:3d:d0:5e:
                    ae:14:0c:d2:9d:6b:af:bc:c3:92:2f:e3:1c:24:2a:
                    0d:08:15:f2:c1:86:11:1a:a8:5f:07:32:e8:88:49:
                    20:06:45:c9:0c:8a:d0:65:6b:db:ce:c4:09:28:37:
                    0e:e0:d1:11:11:b5:02:e3:9c:3b:fa:cc:e1:ba:66:
                    e3:dd:c2:ff:0c:3a:64:9c:18:17:45:d7:02:bf:ce:
                    c7:c3:4e:89:2b:f8:b1:6f:c5:71:6b:63:dc:84:8a:
                    84:a1:34:fd:9e:b7:14:4a:f9:67:99:27:a1:10:af:
                    ff:b0:3d:ee:04:53:e8:77:6d:62:9b:30:6e:4b:60:
                    d6:5f:a3:44:b0:c1:90:42:5c:ff:47:b7:b3:48:c5:
                    ce:60:f8:b4:31:08:bd:fd:57:e5:fb:fc:54:2f:ea:
                    5e:4a:24:8e:f9:ac:be:bb:d6:24:d3:0c:28:c1:5f:
                    14:2e:d6:dc:13:ec:94:c5:f4:2d:a7:80:ec:68:47:
                    0d:56:67:51:bd:c7:a8:c7:9e:22:2d:d1:e4:67:18:
                    5a:e0:f1:01:e0:2e:d0:74:5f:f8:e2:48:95:69:a0:
                    f5:b6:fe:e0:c7:1d:c3:a8:3b:60:8b:74:4b:bc:19:
                    0c:8d:33:e9:a4:a7:5b:70:c2:43:42:ad:75:33:99:
                    d0:ca:9f:61:ff:1b:4f:0e:74:25:f9:4b:22:a4:5b:
                    20:cc:d1:4c:59:d6:d8:8c:a9:5b:97:d5:2c:21:21:
                    b1:b5:b4:a1:24:a6:ae:98:ec:67:e7:68:5a:d1:48:
                    eb:11:a1:94:0b:dd:2a:48:f3:7b:ae:4a:e0:af:7b:
                    88:11:6e:4d:3f:53:06:6d:36:3b:fe:74:a5:d2:a6:
                    a8:d8:9e:8a:d1:eb:2c:61:82:bd:72:73:b8:e5:c9:
                    f2:65:68:aa:20:3b:60:17:32:f4:1c:e3:1d:c1:84:
                    d4:bb:43:94:73:d3:c9:41:cf:75:d7:f7:fa:63:78:
                    8d:75:a8:cc:67:d4:91:65:a7:69:e0:c9:06:e2:7d:
                    86:0f:be:9e:e0:06:dd:c4:c6:0d:e9:11:9c:e1:b3:
                    bc:53:4f:de:94:37:22:ed:25:1a:4c:a7:a1:d2:c8:
                    34:8a:5e:0f:04:b4:d3:35:f5:85:a9:78:f1:ca:37:
                    de:02:a5:10:3a:5b:0d:12:f1:51:72:18:80:9b:41:
                    ce:10:54:64:2f:0d:a3:7a:fd:da:3e:3d:23:4d:8e:
                    2d:e4:da:ef:42:91:9e:86:9c:41:5d:fe:25:4f:3a:
                    d0:f2:d1:13:39:f3:74:f4:4f:25:55:51:8d:93:15:
                    b3:86:4d
                Exponent: 65537 (0x10001)
        X509v3 extensions:
            X509v3 Basic Constraints: 
                CA:FALSE
            Netscape Comment: 
                Easy-RSA Generated Certificate
            X509v3 Subject Key Identifier: 
                CB:C2:70:1D:C3:BC:88:83:68:A4:12:45:E3:05:35:58:6D:3A:47:20
            X509v3 Authority Key Identifier: 
                keyid:12:CD:60:04:D2:A0:80:9E:70:ED:C6:99:B8:7B:2C:C6:52:FD:19:A1
                DirName:/C=US/ST=OH/L=Columbus/O=VikingVPN/OU=MyOrganizationalUnit/CN=VikingVPN CA/name=EasyRSA/emailAddress=me@myhost.mydomain
                serial:CF:35:85:EE:80:BF:2A:3E

            X509v3 Extended Key Usage: 
                TLS Web Client Authentication
            X509v3 Key Usage: 
                Digital Signature
    Signature Algorithm: md5WithRSAEncryption
         37:8d:a6:89:0a:9c:57:5f:8c:12:f1:dc:b9:bd:ee:af:23:6b:
         9f:aa:46:c5:97:bc:8d:08:23:ce:d2:f1:3e:77:15:15:09:e9:
         54:15:b6:72:2d:ab:d3:a5:62:06:da:1b:b2:c9:fd:c2:fc:a1:
         1b:47:ea:8a:44:7b:16:ad:bd:9e:40:de:25:62:c5:e2:cb:4b:
         35:8e:5c:61:76:8c:37:ba:0d:a2:52:df:3d:c2:c2:2d:0c:e4:
         8d:b4:1d:8b:74:29:28:1b:73:2b:ad:61:8a:23:f3:c7:fa:8e:
         c2:b7:b1:18:bd:1d:ad:4b:ef:6d:2c:ed:c8:70:0f:b4:c9:83:
         96:f5:90:8b:ab:94:11:1e:b9:fd:66:53:3f:b0:e1:d9:df:c6:
         14:fa:e4:21:d0:75:c8:8b:fd:d8:a0:6d:00:aa:8f:41:6c:b9:
         c6:52:d8:cb:ed:81:e9:3e:a6:87:c1:b6:75:ba:21:80:36:29:
         e8:f7:3b:46:99:48:d5:30:c8:0d:2b:b5:f8:4d:68:75:92:3f:
         4b:60:a5:75:cc:42:62:c8:b7:13:cb:c6:f1:60:3d:34:94:0a:
         93:12:50:cf:68:c1:e2:14:a7:83:29:8c:74:4a:b3:a6:86:2e:
         cc:6d:17:d9:b8:66:df:46:f6:4d:04:2d:a0:c5:86:8f:47:f0:
         ce:fa:5e:3b:e3:e2:4b:d1:59:6a:47:43:a5:5f:96:b9:8b:5b:
         03:19:6e:dc:f4:d5:d9:aa:58:79:e0:6d:be:9f:08:21:4d:c2:
         d2:0e:d7:2e:78:93:15:ef:64:96:0b:fc:a7:4e:18:9f:03:5f:
         13:d4:d2:64:8a:11:64:f9:81:85:8d:cb:36:99:b1:2b:29:0e:
         47:a6:76:8d:24:1e:bc:27:86:97:4b:0b:1a:8b:d8:c7:dd:fe:
         f6:53:e1:14:b1:10:c3:fc:83:31:4c:e5:a5:ee:92:9a:ff:95:
         f1:e0:a3:3b:82:d2:33:6f:0a:9c:a2:e0:3b:4b:56:12:18:35:
         92:df:0d:77:ae:81:85:75:79:61:8f:f9:26:69:24:c1:2a:54:
         02:b7:b3:a7:9a:96:3e:d3:d4:99:5c:fa:88:fd:0d:ec:bd:3f:
         3e:9d:d5:c9:55:78:e7:c1:9d:67:1c:b1:f8:61:bd:1e:c1:f0:
         ba:3a:96:2e:05:82:8f:1a:06:4c:03:02:68:08:bb:95:8e:b8:
         13:22:ef:95:4e:3d:9a:2a:f7:96:41:5a:11:ef:6d:93:27:ed:
         6d:fa:24:b5:2f:7e:9a:a5:cf:c7:b5:2c:ad:b0:93:77:61:71:
         56:ac:b2:79:1b:a9:59:3b:72:cd:1f:c2:db:91:70:f1:87:09:
         cc:5f:ee:e5:8e:a3:19:ff
-----BEGIN CERTIFICATE-----
MIIGrDCCBJSgAwIBAgICB8YwDQYJKoZIhvcNAQEEBQAwgawxCzAJBgNVBAYTAlVT
MQswCQYDVQQIEwJPSDERMA8GA1UEBxMIQ29sdW1idXMxEjAQBgNVBAoTCVZpa2lu
Z1ZQTjEdMBsGA1UECxMUTXlPcmdhbml6YXRpb25hbFVuaXQxFTATBgNVBAMTDFZp
a2luZ1ZQTiBDQTEQMA4GA1UEKRMHRWFzeVJTQTEhMB8GCSqGSIb3DQEJARYSbWVA
bXlob3N0Lm15ZG9tYWluMB4XDTE0MDUzMTIyMTMyOVoXDTI0MDUyODIyMTMyOVow
HjEcMBoGA1UEAxMTQ2xpZW50Njg5Q2VydDgwZmQ4MjCCAiIwDQYJKoZIhvcNAQEB
BQADggIPADCCAgoCggIBAOg1QrBwzipHiGsGrG+BN2b6WqpQzue11Fs9PdBerhQM
0p1rr7zDki/jHCQqDQgV8sGGERqoXwcy6IhJIAZFyQyK0GVr287ECSg3DuDRERG1
AuOcO/rM4bpm493C/ww6ZJwYF0XXAr/Ox8NOiSv4sW/FcWtj3ISKhKE0/Z63FEr5
Z5knoRCv/7A97gRT6HdtYpswbktg1l+jRLDBkEJc/0e3s0jFzmD4tDEIvf1X5fv8
VC/qXkokjvmsvrvWJNMMKMFfFC7W3BPslMX0LaeA7GhHDVZnUb3HqMeeIi3R5GcY
WuDxAeAu0HRf+OJIlWmg9bb+4Mcdw6g7YIt0S7wZDI0z6aSnW3DCQ0KtdTOZ0Mqf
Yf8bTw50JflLIqRbIMzRTFnW2IypW5fVLCEhsbW0oSSmrpjsZ+doWtFI6xGhlAvd
Kkjze65K4K97iBFuTT9TBm02O/50pdKmqNieitHrLGGCvXJzuOXJ8mVoqiA7YBcy
9BzjHcGE1LtDlHPTyUHPddf3+mN4jXWozGfUkWWnaeDJBuJ9hg++nuAG3cTGDekR
nOGzvFNP3pQ3Iu0lGkynodLINIpeDwS00zX1hal48co33gKlEDpbDRLxUXIYgJtB
zhBUZC8No3r92j49I02OLeTa70KRnoacQV3+JU860PLREznzdPRPJVVRjZMVs4ZN
AgMBAAGjggFjMIIBXzAJBgNVHRMEAjAAMC0GCWCGSAGG+EIBDQQgFh5FYXN5LVJT
QSBHZW5lcmF0ZWQgQ2VydGlmaWNhdGUwHQYDVR0OBBYEFMvCcB3DvIiDaKQSReMF
NVhtOkcgMIHhBgNVHSMEgdkwgdaAFBLNYATSoICecO3Gmbh7LMZS/RmhoYGypIGv
MIGsMQswCQYDVQQGEwJVUzELMAkGA1UECBMCT0gxETAPBgNVBAcTCENvbHVtYnVz
MRIwEAYDVQQKEwlWaWtpbmdWUE4xHTAbBgNVBAsTFE15T3JnYW5pemF0aW9uYWxV
bml0MRUwEwYDVQQDEwxWaWtpbmdWUE4gQ0ExEDAOBgNVBCkTB0Vhc3lSU0ExITAf
BgkqhkiG9w0BCQEWEm1lQG15aG9zdC5teWRvbWFpboIJAM81he6Avyo+MBMGA1Ud
JQQMMAoGCCsGAQUFBwMCMAsGA1UdDwQEAwIHgDANBgkqhkiG9w0BAQQFAAOCAgEA
N42miQqcV1+MEvHcub3uryNrn6pGxZe8jQgjztLxPncVFQnpVBW2ci2r06ViBtob
ssn9wvyhG0fqikR7Fq29nkDeJWLF4stLNY5cYXaMN7oNolLfPcLCLQzkjbQdi3Qp
KBtzK61hiiPzx/qOwrexGL0drUvvbSztyHAPtMmDlvWQi6uUER65/WZTP7Dh2d/G
FPrkIdB1yIv92KBtAKqPQWy5xlLYy+2B6T6mh8G2dbohgDYp6Pc7RplI1TDIDSu1
+E1odZI/S2CldcxCYsi3E8vG8WA9NJQKkxJQz2jB4hSngymMdEqzpoYuzG0X2bhm
30b2TQQtoMWGj0fwzvpeO+PiS9FZakdDpV+WuYtbAxlu3PTV2apYeeBtvp8IIU3C
0g7XLniTFe9klgv8p04YnwNfE9TSZIoRZPmBhY3LNpmxKykOR6Z2jSQevCeGl0sL
GovYx93+9lPhFLEQw/yDMUzlpe6Smv+V8eCjO4LSM28KnKLgO0tWEhg1kt8Nd66B
hXV5YY/5JmkkwSpUArezp5qWPtPUmVz6iP0N7L0/Pp3VyVV458GdZxyx+GG9HsHw
ujqWLgWCjxoGTAMCaAi7lY64EyLvlU49mir3lkFaEe9tkyftbfoktS9+mqXPx7Us
rbCTd2FxVqyyeRupWTtyzR/C25Fw8YcJzF/u5Y6jGf8=
-----END CERTIFICATE-----
