Certificate:
    Data:
        Version: 3 (0x2)
        Serial Number: 11757 (0x2ded)
    Signature Algorithm: sha256WithRSAEncryption
        Issuer: C=US, ST=OH, L=Columbus, O=VikingVPN, OU=MyOrganizationalUnit, CN=VikingVPN CA/name=EasyRSA/emailAddress=me@myhost.mydomain
        Validity
            Not Before: Sep  1 16:12:57 2017 GMT
            Not After : Aug 30 16:12:57 2027 GMT
        Subject: CN=Client3069Certcabde2
        Subject Public Key Info:
            Public Key Algorithm: rsaEncryption
                Public-Key: (4096 bit)
                Modulus:
                    00:bc:b3:8c:67:06:7e:2d:d0:2b:e7:30:6e:54:b4:
                    98:05:b3:f4:87:1d:bb:f0:7f:4b:40:3c:19:15:46:
                    29:a6:7a:99:39:e5:1e:23:6f:d5:d4:c0:5d:60:ff:
                    51:3f:18:6c:4e:89:e3:2f:92:3a:db:e8:27:fc:29:
                    d8:ec:e8:e3:a3:9b:1a:00:4f:49:1d:fa:83:70:15:
                    8f:c2:95:80:7f:b0:83:53:73:e0:09:5c:27:ca:97:
                    d9:af:26:75:f1:7a:f3:4f:6d:28:d9:96:6f:44:8a:
                    e7:72:a7:60:f8:99:a7:ba:87:e5:f3:a3:1a:85:d2:
                    cc:2f:32:43:a1:dd:e7:0c:9b:1b:64:23:96:c7:f1:
                    54:12:46:97:0d:a2:db:75:53:fd:7d:48:41:7f:ff:
                    98:33:4e:0b:56:c0:38:3f:43:bc:eb:72:ff:7c:9e:
                    e5:ae:2c:ec:ca:e3:db:8d:18:ad:f6:3d:d0:28:0c:
                    bb:4b:12:9a:23:db:1e:22:eb:e9:02:45:f6:dd:5c:
                    4a:92:af:ff:fe:7a:10:be:b6:64:b2:d0:58:0a:5a:
                    54:7d:1c:ed:09:7b:79:56:89:85:1e:3b:de:9d:9a:
                    21:1e:c6:92:e5:aa:0a:95:44:9b:20:d1:41:ff:dd:
                    9b:fb:93:8f:74:10:7a:3f:1b:b0:0b:18:1e:7f:76:
                    6c:5e:e3:0f:d5:d8:d4:3c:6d:bd:49:b3:06:d5:a6:
                    d4:b7:23:53:ed:e2:e4:6c:bd:a7:f3:97:37:28:99:
                    87:3b:66:71:a4:e8:24:ba:3f:6e:25:98:be:09:44:
                    d4:4a:75:8b:cf:00:f8:c9:1d:5a:56:19:88:a4:bc:
                    0a:55:cd:dd:55:cf:fc:5b:7f:df:23:b4:d0:d2:41:
                    06:82:10:90:92:7e:e1:04:da:39:18:e5:36:55:44:
                    b7:fd:24:9b:c2:2c:75:a4:12:18:e7:1e:75:37:6c:
                    f0:02:62:65:36:d2:e3:19:f9:be:cb:e4:09:c2:d5:
                    29:09:80:13:09:0b:2c:ec:2c:92:f3:eb:a7:d7:b5:
                    18:b4:54:0a:b6:7e:54:d9:cb:36:50:ce:ee:04:46:
                    62:c9:1b:b2:e7:d3:57:e5:5d:95:ef:10:e1:80:fc:
                    96:71:ef:ac:89:97:0f:80:15:56:f4:41:e8:d7:d9:
                    ac:02:de:11:ea:96:c3:83:2f:40:6b:2e:54:30:5e:
                    9e:50:df:db:88:57:6b:be:4a:45:37:75:23:0a:47:
                    a3:8b:04:c5:c2:b7:94:bf:83:63:2c:d2:ec:ba:4f:
                    75:13:99:c1:78:84:06:9d:e3:3b:7c:01:d9:34:ee:
                    00:27:6d:60:32:0f:d1:92:1a:94:04:eb:a6:17:95:
                    e5:56:e7
                Exponent: 65537 (0x10001)
        X509v3 extensions:
            X509v3 Basic Constraints: 
                CA:FALSE
            Netscape Comment: 
                Easy-RSA Generated Certificate
            X509v3 Subject Key Identifier: 
                31:B1:37:87:C4:B1:1B:82:43:86:BA:8B:0E:A8:A2:2F:1C:A8:92:6B
            X509v3 Authority Key Identifier: 
                keyid:12:CD:60:04:D2:A0:80:9E:70:ED:C6:99:B8:7B:2C:C6:52:FD:19:A1
                DirName:/C=US/ST=OH/L=Columbus/O=VikingVPN/OU=MyOrganizationalUnit/CN=VikingVPN CA/name=EasyRSA/emailAddress=me@myhost.mydomain
                serial:CF:35:85:EE:80:BF:2A:3E

            X509v3 Extended Key Usage: 
                TLS Web Client Authentication
            X509v3 Key Usage: 
                Digital Signature
    Signature Algorithm: sha256WithRSAEncryption
         69:ad:81:aa:26:50:04:c1:ff:6f:42:2f:fa:a0:a0:15:5f:52:
         78:71:a9:16:2f:bb:a6:0f:7a:09:41:a4:ee:c1:75:a7:95:34:
         12:69:88:13:3f:f4:ea:5c:4e:8e:1f:a9:06:8e:79:23:74:3c:
         3c:62:c9:c3:29:da:60:a1:96:9b:73:e0:3e:8e:59:3c:90:f4:
         02:c4:a4:13:e2:fd:44:f1:09:82:08:e1:45:bf:2b:90:7d:bf:
         eb:54:8e:e8:fc:a7:b5:6d:40:67:69:af:0a:8b:16:9a:f3:49:
         9a:2a:70:aa:8b:d0:b1:66:94:23:dc:4c:c6:73:0f:3d:29:2f:
         ed:12:a3:0e:9d:d0:93:af:47:63:62:cd:ca:c0:cd:1b:cc:4a:
         84:54:42:da:40:af:aa:47:54:f3:54:40:fa:26:5c:66:ef:12:
         33:7d:17:68:11:ad:14:02:a3:0b:a4:10:37:ca:1f:60:e1:a4:
         9f:aa:0d:94:57:b4:4b:29:05:19:de:42:7b:63:e7:d6:30:a7:
         26:3c:9c:e4:0d:5e:b7:2a:02:d9:b9:5a:e3:58:e6:df:97:35:
         1f:07:df:cd:d7:18:a6:f6:fd:2c:c5:3d:9a:79:ad:d4:9a:6f:
         b4:4e:b5:b9:5e:29:fd:2c:91:c0:46:f2:85:53:9a:77:97:05:
         82:64:3b:df:f2:4b:60:ef:3a:57:f7:8f:fa:c0:b2:0f:7d:d9:
         1e:01:40:94:94:41:3d:3d:a3:95:7f:51:a6:88:b4:5b:96:bb:
         5f:78:d6:6a:07:78:3a:eb:cf:10:cd:4a:80:4a:1d:a5:23:2c:
         24:db:ef:0b:b4:cc:2a:ae:1a:f2:fe:a1:43:f2:8d:c3:b7:cd:
         f4:15:61:84:e2:e3:f2:1a:95:90:b0:f5:30:4e:ce:e1:72:9a:
         f6:4c:a9:c2:75:26:b4:7f:15:af:54:bb:a9:a9:3d:9d:3f:7e:
         ed:0f:9e:66:de:38:dc:1c:29:0a:32:1b:26:32:7d:67:1a:ed:
         74:bb:5c:85:d7:76:b8:c2:fb:fe:78:d0:72:99:b9:7b:18:cf:
         01:70:52:d6:68:35:b1:25:be:9e:25:e8:5a:f8:50:4f:5b:2f:
         fe:c6:58:e6:82:8c:bc:82:6c:5a:f2:22:ad:da:d3:c4:23:93:
         b1:79:19:61:8f:1e:43:19:f9:7f:75:e3:54:13:3b:fd:4a:b1:
         aa:41:14:b4:5a:07:78:87:e6:d8:f8:b9:88:f7:b1:cb:f9:e4:
         05:bf:82:2e:e8:cc:cc:57:87:2b:b0:4b:52:68:97:c3:25:34:
         31:5e:13:91:fa:e2:d1:4a:0e:fb:e0:de:4a:49:cd:e3:d7:ad:
         88:98:d2:c2:32:6e:2d:13
-----BEGIN CERTIFICATE-----
MIIGrTCCBJWgAwIBAgICLe0wDQYJKoZIhvcNAQELBQAwgawxCzAJBgNVBAYTAlVT
MQswCQYDVQQIEwJPSDERMA8GA1UEBxMIQ29sdW1idXMxEjAQBgNVBAoTCVZpa2lu
Z1ZQTjEdMBsGA1UECxMUTXlPcmdhbml6YXRpb25hbFVuaXQxFTATBgNVBAMTDFZp
a2luZ1ZQTiBDQTEQMA4GA1UEKRMHRWFzeVJTQTEhMB8GCSqGSIb3DQEJARYSbWVA
bXlob3N0Lm15ZG9tYWluMB4XDTE3MDkwMTE2MTI1N1oXDTI3MDgzMDE2MTI1N1ow
HzEdMBsGA1UEAxMUQ2xpZW50MzA2OUNlcnRjYWJkZTIwggIiMA0GCSqGSIb3DQEB
AQUAA4ICDwAwggIKAoICAQC8s4xnBn4t0CvnMG5UtJgFs/SHHbvwf0tAPBkVRimm
epk55R4jb9XUwF1g/1E/GGxOieMvkjrb6Cf8Kdjs6OOjmxoAT0kd+oNwFY/ClYB/
sINTc+AJXCfKl9mvJnXxevNPbSjZlm9Eiudyp2D4mae6h+XzoxqF0swvMkOh3ecM
mxtkI5bH8VQSRpcNott1U/19SEF//5gzTgtWwDg/Q7zrcv98nuWuLOzK49uNGK32
PdAoDLtLEpoj2x4i6+kCRfbdXEqSr//+ehC+tmSy0FgKWlR9HO0Je3lWiYUeO96d
miEexpLlqgqVRJsg0UH/3Zv7k490EHo/G7ALGB5/dmxe4w/V2NQ8bb1JswbVptS3
I1Pt4uRsvafzlzcomYc7ZnGk6CS6P24lmL4JRNRKdYvPAPjJHVpWGYikvApVzd1V
z/xbf98jtNDSQQaCEJCSfuEE2jkY5TZVRLf9JJvCLHWkEhjnHnU3bPACYmU20uMZ
+b7L5AnC1SkJgBMJCyzsLJLz66fXtRi0VAq2flTZyzZQzu4ERmLJG7Ln01flXZXv
EOGA/JZx76yJlw+AFVb0QejX2awC3hHqlsODL0BrLlQwXp5Q39uIV2u+SkU3dSMK
R6OLBMXCt5S/g2Ms0uy6T3UTmcF4hAad4zt8Adk07gAnbWAyD9GSGpQE66YXleVW
5wIDAQABo4IBYzCCAV8wCQYDVR0TBAIwADAtBglghkgBhvhCAQ0EIBYeRWFzeS1S
U0EgR2VuZXJhdGVkIENlcnRpZmljYXRlMB0GA1UdDgQWBBQxsTeHxLEbgkOGuosO
qKIvHKiSazCB4QYDVR0jBIHZMIHWgBQSzWAE0qCAnnDtxpm4eyzGUv0ZoaGBsqSB
rzCBrDELMAkGA1UEBhMCVVMxCzAJBgNVBAgTAk9IMREwDwYDVQQHEwhDb2x1bWJ1
czESMBAGA1UEChMJVmlraW5nVlBOMR0wGwYDVQQLExRNeU9yZ2FuaXphdGlvbmFs
VW5pdDEVMBMGA1UEAxMMVmlraW5nVlBOIENBMRAwDgYDVQQpEwdFYXN5UlNBMSEw
HwYJKoZIhvcNAQkBFhJtZUBteWhvc3QubXlkb21haW6CCQDPNYXugL8qPjATBgNV
HSUEDDAKBggrBgEFBQcDAjALBgNVHQ8EBAMCB4AwDQYJKoZIhvcNAQELBQADggIB
AGmtgaomUATB/29CL/qgoBVfUnhxqRYvu6YPeglBpO7BdaeVNBJpiBM/9OpcTo4f
qQaOeSN0PDxiycMp2mChlptz4D6OWTyQ9ALEpBPi/UTxCYII4UW/K5B9v+tUjuj8
p7VtQGdprwqLFprzSZoqcKqL0LFmlCPcTMZzDz0pL+0Sow6d0JOvR2NizcrAzRvM
SoRUQtpAr6pHVPNUQPomXGbvEjN9F2gRrRQCowukEDfKH2DhpJ+qDZRXtEspBRne
Qntj59YwpyY8nOQNXrcqAtm5WuNY5t+XNR8H383XGKb2/SzFPZp5rdSab7ROtble
Kf0skcBG8oVTmneXBYJkO9/yS2DvOlf3j/rAsg992R4BQJSUQT09o5V/UaaItFuW
u1941moHeDrrzxDNSoBKHaUjLCTb7wu0zCquGvL+oUPyjcO3zfQVYYTi4/IalZCw
9TBOzuFymvZMqcJ1JrR/Fa9Uu6mpPZ0/fu0PnmbeONwcKQoyGyYyfWca7XS7XIXX
drjC+/540HKZuXsYzwFwUtZoNbElvp4l6Fr4UE9bL/7GWOaCjLyCbFryIq3a08Qj
k7F5GWGPHkMZ+X9141QTO/1KsapBFLRaB3iH5tj4uYj3scv55AW/gi7ozMxXhyuw
S1Jol8MlNDFeE5H64tFKDvvg3kpJzePXrYiY0sIybi0T
-----END CERTIFICATE-----
