Certificate:
    Data:
        Version: 3 (0x2)
        Serial Number: 11990 (0x2ed6)
    Signature Algorithm: sha256WithRSAEncryption
        Issuer: C=US, ST=OH, L=Columbus, O=VikingVPN, OU=MyOrganizationalUnit, CN=VikingVPN CA/name=EasyRSA/emailAddress=me@myhost.mydomain
        Validity
            Not Before: Oct 17 23:05:14 2017 GMT
            Not After : Oct 15 23:05:14 2027 GMT
        Subject: CN=Client3092Cert706ff4
        Subject Public Key Info:
            Public Key Algorithm: rsaEncryption
                Public-Key: (4096 bit)
                Modulus:
                    00:cd:8f:63:b4:08:24:76:36:67:5c:db:ce:84:f2:
                    7c:f7:c7:a9:1c:c5:58:a9:44:bb:fc:4e:a4:e6:dc:
                    9a:39:69:41:64:ad:e7:27:bc:ef:9a:be:2f:e8:a8:
                    e9:d4:20:bb:e8:a9:e4:86:02:f2:9b:62:32:db:4f:
                    b9:96:d0:24:48:d6:a8:a6:16:34:15:60:cc:83:df:
                    ae:f2:13:bf:e6:54:69:7f:6a:c8:04:c9:de:77:bb:
                    23:a2:92:a7:e2:ee:ba:85:d6:6e:6b:01:16:e9:07:
                    05:2e:61:06:96:b0:3d:a2:8f:1d:c2:d9:bb:32:8c:
                    b6:e4:46:e3:c8:c8:4d:a1:f8:34:74:54:6c:03:55:
                    d1:76:76:4e:0b:4d:9f:a8:30:62:c0:bd:9c:b4:da:
                    52:56:22:65:ce:4c:28:c8:13:3d:ea:9b:44:70:35:
                    49:b1:2d:bd:d0:0e:4a:3e:e4:e4:c0:26:04:01:e1:
                    b8:9b:bc:dd:39:79:6f:b2:6e:68:d1:02:96:0d:a9:
                    75:a9:70:7d:07:d4:a8:13:6b:c3:37:7d:1f:ec:1c:
                    62:b6:61:5b:78:78:5a:5c:07:34:7a:7d:bc:af:2f:
                    da:64:40:a6:05:c6:98:b7:2d:8c:04:c1:72:48:22:
                    da:e2:3c:32:0e:b8:14:67:41:ea:12:4d:f5:64:ad:
                    c2:46:9c:a2:f4:5d:b2:fb:94:ac:c7:e3:7f:58:ac:
                    20:47:bc:95:df:d2:5b:c7:dd:81:28:95:81:e3:b3:
                    d6:c9:ef:33:2a:ca:29:22:40:98:d4:c1:9b:d4:94:
                    30:20:c6:23:b5:11:a4:8c:1a:d8:e2:bf:42:ef:14:
                    f4:4d:6f:96:69:45:a3:b0:56:bd:a7:79:75:77:1b:
                    69:85:18:96:4d:44:0f:14:31:d0:2c:8a:48:20:ba:
                    63:3e:37:0b:c8:fc:04:aa:b9:1b:33:36:48:0d:aa:
                    4f:50:3b:09:32:d6:0a:e7:e7:d5:b7:10:74:0a:ad:
                    35:21:89:2f:1b:f1:f3:0a:e6:f6:73:ec:7d:78:47:
                    6e:8d:7b:d3:42:63:ea:a6:3d:48:c6:d4:7e:c6:9c:
                    8d:ac:0b:39:18:72:6e:af:e9:46:7f:ea:bc:a3:31:
                    79:dd:b0:5c:09:5b:1d:2d:99:5c:57:3d:0d:e7:b5:
                    cb:52:c4:1b:15:91:65:e2:2c:0c:07:95:a0:0b:fe:
                    62:be:c0:2a:18:7e:a1:dc:db:fb:96:9f:b6:2a:bc:
                    72:ac:69:4b:8f:fa:ea:eb:dd:a2:86:e3:52:98:b2:
                    cd:ea:61:08:48:9b:38:be:cb:47:e7:36:90:2f:01:
                    e1:1c:0c:ac:d5:ad:a4:0d:44:5f:b3:d5:bb:92:a3:
                    74:f7:1f
                Exponent: 65537 (0x10001)
        X509v3 extensions:
            X509v3 Basic Constraints: 
                CA:FALSE
            Netscape Comment: 
                Easy-RSA Generated Certificate
            X509v3 Subject Key Identifier: 
                EF:A7:02:89:A7:2B:88:03:BA:04:8B:E6:CF:BB:BA:28:19:DF:BE:32
            X509v3 Authority Key Identifier: 
                keyid:12:CD:60:04:D2:A0:80:9E:70:ED:C6:99:B8:7B:2C:C6:52:FD:19:A1
                DirName:/C=US/ST=OH/L=Columbus/O=VikingVPN/OU=MyOrganizationalUnit/CN=VikingVPN CA/name=EasyRSA/emailAddress=me@myhost.mydomain
                serial:CF:35:85:EE:80:BF:2A:3E

            X509v3 Extended Key Usage: 
                TLS Web Client Authentication
            X509v3 Key Usage: 
                Digital Signature
    Signature Algorithm: sha256WithRSAEncryption
         50:d7:91:ef:aa:2c:36:dd:7a:a7:de:ce:8b:a2:be:c7:5a:d7:
         eb:d6:9c:a4:26:0d:22:8b:4b:36:0e:ac:01:e0:5a:87:68:d9:
         d1:ee:78:02:b7:5e:e9:31:66:97:39:8b:4d:4f:9e:c5:e6:7d:
         8c:43:d8:97:62:04:c1:9d:b8:8e:68:21:cb:2e:03:a1:74:26:
         1f:df:f9:f6:46:4f:50:f6:f8:5c:a7:16:32:c4:7a:81:09:ec:
         81:49:e6:d5:dc:96:50:11:93:ad:77:37:e5:74:88:84:ca:59:
         4f:6c:ca:ff:b5:7a:69:b9:b8:2f:48:a5:7b:3d:a3:19:aa:66:
         dc:6a:66:a6:e9:d6:97:5b:a1:d5:d8:2d:0f:63:ad:67:37:97:
         c0:8d:58:83:0c:6a:bf:52:b2:28:77:c6:c1:0a:bf:0b:16:b7:
         c6:ff:2b:2c:91:dd:03:50:91:c3:27:04:35:0f:e4:6d:6b:60:
         1f:f7:54:1d:dd:fc:d1:4f:6c:d3:cf:41:f7:5c:a7:dc:51:99:
         3f:51:c0:a4:38:a3:f5:c5:87:39:d7:70:d3:37:13:39:7d:ce:
         8d:08:21:1f:1c:b1:0d:ca:56:3e:2e:8b:63:e7:16:07:1b:44:
         1d:c8:b3:95:20:4d:8a:bd:cc:0f:6c:ea:84:ba:c1:49:d4:00:
         f1:fc:4f:ef:c4:e4:13:75:0c:52:ea:c3:e7:42:19:f8:87:61:
         8c:8e:d5:3f:62:02:d2:ee:ce:1e:d4:a7:b4:30:cf:3e:4b:ad:
         23:23:4f:a8:4a:71:ee:9a:44:b1:85:35:21:28:aa:0d:52:2a:
         d9:3e:e4:72:19:b3:d0:95:71:aa:d2:5a:01:b9:57:4c:d2:4c:
         ce:60:ba:43:df:56:85:f9:b9:e0:2f:b6:a3:7a:55:d6:c2:0e:
         61:95:18:0d:bd:67:1d:88:92:60:f2:30:72:c7:0f:83:b0:7c:
         26:a1:63:16:08:66:cd:d3:65:2d:b4:85:4f:fb:23:33:2a:a7:
         37:79:6d:6a:9c:74:cf:a4:8e:b7:28:c5:21:2a:86:1b:bc:2a:
         ea:3d:bc:56:71:ca:63:5c:bc:f9:2a:e3:4b:a1:77:f2:65:d2:
         39:3a:e5:e7:13:2b:5e:a9:af:fd:03:e0:1d:8d:6b:80:8c:a6:
         07:6e:01:48:4a:5c:14:bf:f1:ac:51:a7:5d:ca:70:59:11:d6:
         1e:84:95:14:2c:d1:46:78:59:68:48:70:6f:82:6f:71:22:84:
         a3:88:f5:51:a1:e8:4a:22:f6:b2:06:11:10:f1:24:01:b5:ab:
         10:63:f5:d8:a6:ee:97:ce:26:7b:15:eb:86:02:5c:28:16:09:
         da:63:b0:73:99:4e:f2:4b
-----BEGIN CERTIFICATE-----
MIIGrTCCBJWgAwIBAgICLtYwDQYJKoZIhvcNAQELBQAwgawxCzAJBgNVBAYTAlVT
MQswCQYDVQQIEwJPSDERMA8GA1UEBxMIQ29sdW1idXMxEjAQBgNVBAoTCVZpa2lu
Z1ZQTjEdMBsGA1UECxMUTXlPcmdhbml6YXRpb25hbFVuaXQxFTATBgNVBAMTDFZp
a2luZ1ZQTiBDQTEQMA4GA1UEKRMHRWFzeVJTQTEhMB8GCSqGSIb3DQEJARYSbWVA
bXlob3N0Lm15ZG9tYWluMB4XDTE3MTAxNzIzMDUxNFoXDTI3MTAxNTIzMDUxNFow
HzEdMBsGA1UEAxMUQ2xpZW50MzA5MkNlcnQ3MDZmZjQwggIiMA0GCSqGSIb3DQEB
AQUAA4ICDwAwggIKAoICAQDNj2O0CCR2Nmdc286E8nz3x6kcxVipRLv8TqTm3Jo5
aUFkrecnvO+avi/oqOnUILvoqeSGAvKbYjLbT7mW0CRI1qimFjQVYMyD367yE7/m
VGl/asgEyd53uyOikqfi7rqF1m5rARbpBwUuYQaWsD2ijx3C2bsyjLbkRuPIyE2h
+DR0VGwDVdF2dk4LTZ+oMGLAvZy02lJWImXOTCjIEz3qm0RwNUmxLb3QDko+5OTA
JgQB4bibvN05eW+ybmjRApYNqXWpcH0H1KgTa8M3fR/sHGK2YVt4eFpcBzR6fbyv
L9pkQKYFxpi3LYwEwXJIItriPDIOuBRnQeoSTfVkrcJGnKL0XbL7lKzH439YrCBH
vJXf0lvH3YEolYHjs9bJ7zMqyikiQJjUwZvUlDAgxiO1EaSMGtjiv0LvFPRNb5Zp
RaOwVr2neXV3G2mFGJZNRA8UMdAsikggumM+NwvI/ASquRszNkgNqk9QOwky1grn
59W3EHQKrTUhiS8b8fMK5vZz7H14R26Ne9NCY+qmPUjG1H7GnI2sCzkYcm6v6UZ/
6ryjMXndsFwJWx0tmVxXPQ3ntctSxBsVkWXiLAwHlaAL/mK+wCoYfqHc2/uWn7Yq
vHKsaUuP+urr3aKG41KYss3qYQhImzi+y0fnNpAvAeEcDKzVraQNRF+z1buSo3T3
HwIDAQABo4IBYzCCAV8wCQYDVR0TBAIwADAtBglghkgBhvhCAQ0EIBYeRWFzeS1S
U0EgR2VuZXJhdGVkIENlcnRpZmljYXRlMB0GA1UdDgQWBBTvpwKJpyuIA7oEi+bP
u7ooGd++MjCB4QYDVR0jBIHZMIHWgBQSzWAE0qCAnnDtxpm4eyzGUv0ZoaGBsqSB
rzCBrDELMAkGA1UEBhMCVVMxCzAJBgNVBAgTAk9IMREwDwYDVQQHEwhDb2x1bWJ1
czESMBAGA1UEChMJVmlraW5nVlBOMR0wGwYDVQQLExRNeU9yZ2FuaXphdGlvbmFs
VW5pdDEVMBMGA1UEAxMMVmlraW5nVlBOIENBMRAwDgYDVQQpEwdFYXN5UlNBMSEw
HwYJKoZIhvcNAQkBFhJtZUBteWhvc3QubXlkb21haW6CCQDPNYXugL8qPjATBgNV
HSUEDDAKBggrBgEFBQcDAjALBgNVHQ8EBAMCB4AwDQYJKoZIhvcNAQELBQADggIB
AFDXke+qLDbdeqfezouivsda1+vWnKQmDSKLSzYOrAHgWodo2dHueAK3XukxZpc5
i01PnsXmfYxD2JdiBMGduI5oIcsuA6F0Jh/f+fZGT1D2+FynFjLEeoEJ7IFJ5tXc
llARk613N+V0iITKWU9syv+1emm5uC9IpXs9oxmqZtxqZqbp1pdbodXYLQ9jrWc3
l8CNWIMMar9Ssih3xsEKvwsWt8b/KyyR3QNQkcMnBDUP5G1rYB/3VB3d/NFPbNPP
Qfdcp9xRmT9RwKQ4o/XFhznXcNM3Ezl9zo0IIR8csQ3KVj4ui2PnFgcbRB3Is5Ug
TYq9zA9s6oS6wUnUAPH8T+/E5BN1DFLqw+dCGfiHYYyO1T9iAtLuzh7Up7Qwzz5L
rSMjT6hKce6aRLGFNSEoqg1SKtk+5HIZs9CVcarSWgG5V0zSTM5gukPfVoX5ueAv
tqN6VdbCDmGVGA29Zx2IkmDyMHLHD4OwfCahYxYIZs3TZS20hU/7IzMqpzd5bWqc
dM+kjrcoxSEqhhu8Kuo9vFZxymNcvPkq40uhd/Jl0jk65ecTK16pr/0D4B2Na4CM
pgduAUhKXBS/8axRp13KcFkR1h6ElRQs0UZ4WWhIcG+Cb3EihKOI9VGh6Eoi9rIG
ERDxJAG1qxBj9dim7pfOJnsV64YCXCgWCdpjsHOZTvJL
-----END CERTIFICATE-----
