Certificate:
    Data:
        Version: 3 (0x2)
        Serial Number: 9465 (0x24f9)
    Signature Algorithm: sha256WithRSAEncryption
        Issuer: C=US, ST=OH, L=Columbus, O=VikingVPN, OU=MyOrganizationalUnit, CN=VikingVPN CA/name=EasyRSA/emailAddress=me@myhost.mydomain
        Validity
            Not Before: Nov 16 18:49:35 2016 GMT
            Not After : Nov 14 18:49:35 2026 GMT
        Subject: CN=Client2296Cert5387d2
        Subject Public Key Info:
            Public Key Algorithm: rsaEncryption
                Public-Key: (4096 bit)
                Modulus:
                    00:ab:18:4d:79:90:ec:6b:bf:b1:50:37:79:36:9c:
                    e4:85:ce:14:09:0d:e4:29:90:e8:24:97:07:e5:1b:
                    10:1e:60:e8:c4:69:16:cb:ad:16:fd:c7:42:ff:94:
                    b5:e4:09:5e:5c:04:6a:e4:04:56:c8:b6:c5:d1:c3:
                    26:e9:83:c8:d7:21:a1:dd:7f:f1:74:9a:c4:da:c0:
                    af:3a:24:c2:04:c0:d7:bb:5e:f2:6a:d9:91:08:e6:
                    dc:1e:68:9a:69:3e:b4:2d:c5:c3:12:46:e6:cd:af:
                    58:35:3e:1b:72:69:0f:6a:aa:89:44:51:d9:37:11:
                    c6:5c:d6:30:1d:fb:87:bc:c5:a1:34:4b:f0:f9:38:
                    66:93:df:62:42:e3:e6:6b:7f:b3:9f:9d:70:c5:0c:
                    5c:cf:bc:15:f3:de:85:30:3e:40:21:ce:be:7d:6b:
                    fe:d9:58:ce:1e:c0:e2:45:24:41:02:09:52:03:d2:
                    9c:34:bf:a7:2b:f2:f4:06:5b:c6:dd:a8:e2:c2:7a:
                    9d:91:07:79:07:46:4e:cd:b0:df:8f:c7:60:c3:fa:
                    00:f2:09:83:4a:c6:b9:ff:80:57:c2:24:fd:bc:39:
                    4e:15:c0:49:d8:58:c6:de:d9:3c:b5:2c:c1:a1:0e:
                    0c:f8:9f:b6:a5:59:79:d6:0c:10:52:74:25:02:8e:
                    f6:7f:f2:4f:6c:1e:8a:00:4d:52:72:cd:6b:2c:ca:
                    7c:2c:7d:7c:54:99:89:a1:61:4d:89:09:ec:6d:bb:
                    82:cf:19:51:5f:b9:18:c8:81:c0:25:f0:09:f0:1d:
                    17:b4:8a:83:ef:cf:75:ec:c4:7d:23:b2:58:ee:91:
                    f2:73:ec:d1:fd:d8:d5:ea:0e:ef:34:fa:c4:45:3d:
                    95:ec:9c:e3:a7:10:72:34:9a:96:75:e0:19:31:86:
                    d8:f0:8b:3f:ca:94:b3:ce:0d:71:16:6b:b9:a1:d8:
                    15:85:bc:be:fd:da:ef:e0:34:3c:aa:00:83:9d:07:
                    50:c2:14:cd:70:02:4a:46:8d:1b:5f:cc:99:28:40:
                    86:fa:f0:aa:d0:02:7d:69:79:ad:04:39:31:ef:93:
                    45:21:77:a9:12:16:68:79:4a:54:43:00:d4:ae:bf:
                    01:51:32:c3:c8:ca:23:3a:96:76:8c:40:ea:0a:c6:
                    e8:65:bf:a4:e0:c1:07:10:3d:23:44:61:93:92:cf:
                    92:16:0f:78:74:cd:0e:18:c7:59:65:3c:d7:aa:aa:
                    63:31:b0:af:19:83:a5:11:0c:3c:fc:2a:07:63:6a:
                    1b:42:1b:e7:9b:be:46:ef:33:e3:04:17:ba:ec:cf:
                    23:3c:61:8e:03:63:df:c6:18:ce:85:a3:64:72:f4:
                    61:1f:65
                Exponent: 65537 (0x10001)
        X509v3 extensions:
            X509v3 Basic Constraints: 
                CA:FALSE
            Netscape Comment: 
                Easy-RSA Generated Certificate
            X509v3 Subject Key Identifier: 
                B3:47:A6:58:FE:C3:6F:35:CD:A9:5E:96:90:05:E5:D5:4D:C8:63:A1
            X509v3 Authority Key Identifier: 
                keyid:12:CD:60:04:D2:A0:80:9E:70:ED:C6:99:B8:7B:2C:C6:52:FD:19:A1
                DirName:/C=US/ST=OH/L=Columbus/O=VikingVPN/OU=MyOrganizationalUnit/CN=VikingVPN CA/name=EasyRSA/emailAddress=me@myhost.mydomain
                serial:CF:35:85:EE:80:BF:2A:3E

            X509v3 Extended Key Usage: 
                TLS Web Client Authentication
            X509v3 Key Usage: 
                Digital Signature
    Signature Algorithm: sha256WithRSAEncryption
         11:76:a2:c7:11:8a:f5:b1:27:31:5a:12:ca:df:cb:ee:68:fa:
         64:7f:92:df:62:e0:45:2c:b0:30:b2:fb:80:37:c3:9e:96:88:
         2e:b2:1c:b4:32:cb:13:cc:18:42:5c:d7:7c:83:92:8b:d0:6c:
         53:02:1e:49:87:68:e1:e3:0c:9d:6e:ce:ee:5e:07:5a:18:87:
         ab:77:e7:c0:64:ed:d1:62:f1:7f:ad:9b:e4:2b:41:03:6b:ae:
         07:71:9a:a4:20:83:b8:78:31:0c:bc:52:78:9d:8f:2a:93:98:
         df:fd:e1:10:26:a9:2c:1f:e3:33:47:90:16:88:7b:5b:79:65:
         f4:7e:6f:96:02:a2:59:1e:2c:eb:a8:21:91:d2:ba:25:3f:75:
         5d:e9:d6:2e:3f:45:b5:8b:c3:64:55:2c:c0:4e:3d:d8:d8:e3:
         ef:5e:15:f1:48:58:1f:a1:b7:d8:35:a4:ca:50:09:49:b3:d2:
         8a:89:0e:52:b3:33:ba:96:c4:ba:a3:6b:bf:9c:da:ef:68:d9:
         ee:64:bb:0d:7c:52:e2:42:4d:4b:d9:f3:2a:a6:fd:d3:3c:35:
         b5:21:80:c1:64:6c:9c:e7:38:e8:3e:3a:7e:56:f4:ee:3c:2f:
         ac:7c:21:fb:2c:d6:1c:47:b4:5f:12:62:35:9f:a1:5c:6b:48:
         aa:7b:9b:d5:00:83:b2:6b:20:c1:72:e4:e8:07:d7:c8:ef:06:
         70:42:60:e4:fb:ba:fd:c5:88:81:76:0d:fe:3c:37:66:14:19:
         e5:cf:af:58:02:f9:82:7f:dd:46:3c:71:e1:d4:eb:ed:e3:33:
         1e:81:27:27:40:3d:af:b7:f1:b4:ef:7a:df:82:1c:d7:9e:36:
         2f:a6:34:3c:2a:d2:8c:4b:ee:14:e8:5b:24:1c:fd:50:94:0d:
         b2:da:f4:1e:e6:a1:dd:d0:b2:c3:e2:95:9f:4c:93:49:0d:1b:
         73:17:e8:c5:9f:f0:58:02:8d:79:e6:3c:ef:c0:cb:88:bd:f5:
         d8:da:45:1f:3f:19:a1:13:d0:db:95:65:4f:12:aa:50:59:59:
         8d:92:86:dd:34:04:3c:3a:7d:b0:1f:79:ad:64:89:32:6e:a6:
         b7:5a:bc:59:7a:e1:20:10:41:8b:32:40:d2:04:93:65:19:b2:
         5e:ff:8b:5c:f2:f1:73:fb:37:92:f7:0a:fe:49:b3:37:5a:96:
         4d:7a:4c:ce:36:ac:4e:02:3e:63:b0:1e:47:76:7a:7d:64:c2:
         f3:87:c1:5c:e5:bc:53:c5:cd:a6:07:c8:8a:a2:9f:8b:c6:e0:
         5f:4c:a4:42:44:ae:71:ea:89:7a:46:8f:68:2b:70:d1:3f:41:
         66:e8:c0:9c:3c:14:8b:cd
-----BEGIN CERTIFICATE-----
MIIGrTCCBJWgAwIBAgICJPkwDQYJKoZIhvcNAQELBQAwgawxCzAJBgNVBAYTAlVT
MQswCQYDVQQIEwJPSDERMA8GA1UEBxMIQ29sdW1idXMxEjAQBgNVBAoTCVZpa2lu
Z1ZQTjEdMBsGA1UECxMUTXlPcmdhbml6YXRpb25hbFVuaXQxFTATBgNVBAMTDFZp
a2luZ1ZQTiBDQTEQMA4GA1UEKRMHRWFzeVJTQTEhMB8GCSqGSIb3DQEJARYSbWVA
bXlob3N0Lm15ZG9tYWluMB4XDTE2MTExNjE4NDkzNVoXDTI2MTExNDE4NDkzNVow
HzEdMBsGA1UEAxMUQ2xpZW50MjI5NkNlcnQ1Mzg3ZDIwggIiMA0GCSqGSIb3DQEB
AQUAA4ICDwAwggIKAoICAQCrGE15kOxrv7FQN3k2nOSFzhQJDeQpkOgklwflGxAe
YOjEaRbLrRb9x0L/lLXkCV5cBGrkBFbItsXRwybpg8jXIaHdf/F0msTawK86JMIE
wNe7XvJq2ZEI5tweaJppPrQtxcMSRubNr1g1PhtyaQ9qqolEUdk3EcZc1jAd+4e8
xaE0S/D5OGaT32JC4+Zrf7OfnXDFDFzPvBXz3oUwPkAhzr59a/7ZWM4ewOJFJEEC
CVID0pw0v6cr8vQGW8bdqOLCep2RB3kHRk7NsN+Px2DD+gDyCYNKxrn/gFfCJP28
OU4VwEnYWMbe2Ty1LMGhDgz4n7alWXnWDBBSdCUCjvZ/8k9sHooATVJyzWssynws
fXxUmYmhYU2JCextu4LPGVFfuRjIgcAl8AnwHRe0ioPvz3XsxH0jsljukfJz7NH9
2NXqDu80+sRFPZXsnOOnEHI0mpZ14Bkxhtjwiz/KlLPODXEWa7mh2BWFvL792u/g
NDyqAIOdB1DCFM1wAkpGjRtfzJkoQIb68KrQAn1pea0EOTHvk0Uhd6kSFmh5SlRD
ANSuvwFRMsPIyiM6lnaMQOoKxuhlv6TgwQcQPSNEYZOSz5IWD3h0zQ4Yx1llPNeq
qmMxsK8Zg6URDDz8KgdjahtCG+ebvkbvM+MEF7rszyM8YY4DY9/GGM6Fo2Ry9GEf
ZQIDAQABo4IBYzCCAV8wCQYDVR0TBAIwADAtBglghkgBhvhCAQ0EIBYeRWFzeS1S
U0EgR2VuZXJhdGVkIENlcnRpZmljYXRlMB0GA1UdDgQWBBSzR6ZY/sNvNc2pXpaQ
BeXVTchjoTCB4QYDVR0jBIHZMIHWgBQSzWAE0qCAnnDtxpm4eyzGUv0ZoaGBsqSB
rzCBrDELMAkGA1UEBhMCVVMxCzAJBgNVBAgTAk9IMREwDwYDVQQHEwhDb2x1bWJ1
czESMBAGA1UEChMJVmlraW5nVlBOMR0wGwYDVQQLExRNeU9yZ2FuaXphdGlvbmFs
VW5pdDEVMBMGA1UEAxMMVmlraW5nVlBOIENBMRAwDgYDVQQpEwdFYXN5UlNBMSEw
HwYJKoZIhvcNAQkBFhJtZUBteWhvc3QubXlkb21haW6CCQDPNYXugL8qPjATBgNV
HSUEDDAKBggrBgEFBQcDAjALBgNVHQ8EBAMCB4AwDQYJKoZIhvcNAQELBQADggIB
ABF2oscRivWxJzFaEsrfy+5o+mR/kt9i4EUssDCy+4A3w56WiC6yHLQyyxPMGEJc
13yDkovQbFMCHkmHaOHjDJ1uzu5eB1oYh6t358Bk7dFi8X+tm+QrQQNrrgdxmqQg
g7h4MQy8UnidjyqTmN/94RAmqSwf4zNHkBaIe1t5ZfR+b5YColkeLOuoIZHSuiU/
dV3p1i4/RbWLw2RVLMBOPdjY4+9eFfFIWB+ht9g1pMpQCUmz0oqJDlKzM7qWxLqj
a7+c2u9o2e5kuw18UuJCTUvZ8yqm/dM8NbUhgMFkbJznOOg+On5W9O48L6x8Ifss
1hxHtF8SYjWfoVxrSKp7m9UAg7JrIMFy5OgH18jvBnBCYOT7uv3FiIF2Df48N2YU
GeXPr1gC+YJ/3UY8ceHU6+3jMx6BJydAPa+38bTvet+CHNeeNi+mNDwq0oxL7hTo
WyQc/VCUDbLa9B7mod3QssPilZ9Mk0kNG3MX6MWf8FgCjXnmPO/Ay4i99djaRR8/
GaET0NuVZU8SqlBZWY2Sht00BDw6fbAfea1kiTJuprdavFl64SAQQYsyQNIEk2UZ
sl7/i1zy8XP7N5L3Cv5Jszdalk16TM42rE4CPmOwHkd2en1kwvOHwVzlvFPFzaYH
yIqin4vG4F9MpEJErnHqiXpGj2grcNE/QWbowJw8FIvN
-----END CERTIFICATE-----
