Certificate:
    Data:
        Version: 3 (0x2)
        Serial Number: 7849 (0x1ea9)
    Signature Algorithm: md5WithRSAEncryption
        Issuer: C=US, ST=OH, L=Columbus, O=VikingVPN, OU=MyOrganizationalUnit, CN=VikingVPN CA/name=EasyRSA/emailAddress=me@myhost.mydomain
        Validity
            Not Before: Apr 26 17:35:33 2016 GMT
            Not After : Apr 24 17:35:33 2026 GMT
        Subject: CN=Client2274Cert1966e0
        Subject Public Key Info:
            Public Key Algorithm: rsaEncryption
                Public-Key: (4096 bit)
                Modulus:
                    00:ea:e8:6f:e2:38:c2:1a:ce:d3:a7:36:dd:62:ca:
                    d1:25:58:87:d2:1c:c0:ba:26:d4:b6:9b:2d:60:2d:
                    4d:3b:4c:2a:9e:d5:e8:4c:c8:18:59:26:39:f1:44:
                    b7:af:1d:75:a1:31:2d:32:3f:f8:fe:15:bc:5c:ec:
                    e4:f4:95:49:03:eb:c7:03:81:19:b4:7e:af:51:7e:
                    3d:37:54:1b:09:ad:ff:74:0b:10:dc:d1:1b:9a:d6:
                    f4:4c:ff:42:c4:ec:b2:ac:02:f9:a3:7f:ac:5d:7b:
                    78:3f:ea:43:05:ac:e8:07:f5:8b:90:02:3f:47:99:
                    8c:de:ea:5b:c9:52:03:59:b5:3c:f0:d7:0c:37:c3:
                    85:ee:0f:c5:c3:a5:10:0f:b1:f5:c0:5a:ed:d9:74:
                    b1:8a:cd:3f:04:50:b6:2a:37:bb:0b:41:96:42:65:
                    36:32:50:1a:45:47:3e:c7:c1:2d:88:fc:58:6d:74:
                    e1:39:c9:5b:57:3b:1b:ac:3a:9a:24:ef:95:8a:d7:
                    a8:52:91:77:49:f5:39:f6:0a:a3:9e:61:d0:3a:cc:
                    3d:db:24:f4:c2:d6:b5:4a:0a:3e:d5:c6:37:88:3d:
                    a8:55:6a:47:0a:c8:e9:d4:c6:48:07:56:23:1a:fa:
                    07:a3:d1:94:19:b5:c6:fe:48:c8:ea:b3:c0:a2:18:
                    7e:f6:3c:c1:bd:65:b9:46:7c:ab:de:c9:64:f9:09:
                    0d:8c:7c:51:ab:2f:e8:46:3a:b5:07:40:0d:f6:73:
                    74:46:4e:c4:88:56:28:6a:dc:90:51:89:70:9e:a0:
                    fa:b9:ff:bb:15:3e:a2:9a:2e:ad:90:a0:3d:25:1a:
                    70:a3:1f:33:3f:d9:70:67:0b:6b:d6:db:20:22:01:
                    e8:f2:65:43:08:5b:3b:60:03:b3:ca:e6:1e:e9:8e:
                    69:51:63:ef:c8:6c:f8:8c:70:e7:5f:7b:47:30:ac:
                    2f:12:17:21:34:56:dd:54:67:21:2b:d5:b1:74:40:
                    80:68:7b:6b:25:8d:af:9c:a6:9c:e1:1d:28:e0:a6:
                    1f:24:36:2f:1b:20:a8:d2:9d:fd:95:c9:8b:91:5a:
                    37:be:ff:9f:bb:d0:e4:39:90:83:03:ab:79:50:2e:
                    2a:ae:18:5d:64:76:14:e5:ca:17:51:93:75:4d:f0:
                    4b:17:9b:bf:23:f0:94:55:21:ed:8d:b6:11:b1:9c:
                    28:5b:74:f0:95:fd:ea:bc:5b:06:8a:3d:b8:1b:92:
                    88:ff:c1:ff:9b:97:e5:04:24:b4:e6:c9:81:14:23:
                    b6:2f:ca:84:30:43:35:0b:e3:ba:f0:c8:4d:c1:79:
                    71:a5:0f:97:26:b6:e3:3e:71:43:65:c0:b0:80:cb:
                    7c:e5:93
                Exponent: 65537 (0x10001)
        X509v3 extensions:
            X509v3 Basic Constraints: 
                CA:FALSE
            Netscape Comment: 
                Easy-RSA Generated Certificate
            X509v3 Subject Key Identifier: 
                C6:FE:7D:B6:8F:D1:3B:2F:89:30:C0:DC:69:F3:80:41:93:02:E5:E8
            X509v3 Authority Key Identifier: 
                keyid:12:CD:60:04:D2:A0:80:9E:70:ED:C6:99:B8:7B:2C:C6:52:FD:19:A1
                DirName:/C=US/ST=OH/L=Columbus/O=VikingVPN/OU=MyOrganizationalUnit/CN=VikingVPN CA/name=EasyRSA/emailAddress=me@myhost.mydomain
                serial:CF:35:85:EE:80:BF:2A:3E

            X509v3 Extended Key Usage: 
                TLS Web Client Authentication
            X509v3 Key Usage: 
                Digital Signature
    Signature Algorithm: md5WithRSAEncryption
         8c:4d:dd:01:59:50:0f:7a:33:72:f8:75:1f:7a:48:bd:cb:68:
         d3:d9:02:ae:5a:31:33:8d:cd:41:48:bd:6d:38:03:07:a4:19:
         1f:34:8d:9e:62:a5:38:00:c9:56:b9:ce:f4:11:4e:28:bd:6b:
         8d:36:91:31:ea:6e:37:f1:13:09:1f:ad:e9:55:14:8f:90:95:
         38:3d:e6:a0:eb:82:68:3b:ca:1f:aa:7d:cf:48:6d:fe:0f:54:
         fb:00:07:e6:54:cb:8f:bc:d1:9c:0d:4e:2f:ca:32:f2:01:f1:
         33:dc:87:a1:f8:bd:3f:44:f6:8f:99:20:45:12:d8:71:7f:c1:
         71:a6:34:3a:f9:2e:cb:2d:71:d0:98:a3:3a:d7:30:37:84:eb:
         8d:62:eb:19:df:83:f1:83:ae:2b:9a:9e:7f:44:a1:c7:2e:50:
         2a:dc:b5:57:0a:c6:f0:f3:7a:cc:57:73:8b:6d:cb:b0:4c:3c:
         4e:42:89:60:86:16:6b:79:06:fe:38:22:1a:a9:f3:ae:bc:85:
         fa:e5:c4:1d:72:0d:db:3e:1c:c9:7d:99:7f:4f:3c:9b:9c:b2:
         27:11:aa:c5:de:8b:1f:ee:9d:f8:a6:8d:5e:4b:66:18:6d:8d:
         95:89:c3:e5:35:f0:43:e8:a2:0c:05:77:af:87:9c:f2:9e:23:
         07:e1:60:31:a3:cb:86:57:f5:e9:aa:25:a9:3d:bd:87:26:e5:
         e0:bb:2b:ba:2d:02:d9:96:61:29:4e:0f:86:bd:c2:ee:43:ec:
         3b:b0:a2:28:c6:6b:6e:bc:cb:27:6d:03:66:1a:99:50:f1:0d:
         77:38:0c:27:5b:33:c3:e9:e5:43:14:83:5a:d3:e0:f6:d3:61:
         08:46:7f:e5:09:9f:3e:0b:04:5b:22:7b:ec:e7:9f:84:4d:c7:
         07:01:2b:f0:8d:c0:fc:dc:6b:94:c9:72:92:24:fc:13:37:01:
         aa:c0:14:75:68:48:99:d3:ec:d1:95:f7:b2:9a:c8:92:bc:46:
         27:2a:db:36:ba:94:d6:4d:46:98:ca:a3:ae:48:bd:e4:54:6b:
         53:da:b8:6a:a5:5c:b9:0b:50:72:46:2f:75:4c:7a:5c:57:fd:
         f4:dd:b6:a1:4e:85:c6:4a:ac:d7:0d:b7:ea:0b:ee:29:ad:78:
         fb:79:9a:21:64:ad:a8:53:f0:4e:69:06:6c:3b:57:22:2e:a1:
         58:23:74:8e:78:d4:ec:44:1f:05:03:74:01:21:08:a7:32:af:
         f7:f7:e7:99:09:8a:15:c0:08:38:05:fe:e3:21:8f:df:bd:20:
         5f:9f:79:c4:55:0d:fd:46:62:56:cb:7f:46:e1:67:31:49:01:
         dd:7a:db:25:d1:00:6b:37
-----BEGIN CERTIFICATE-----
MIIGrTCCBJWgAwIBAgICHqkwDQYJKoZIhvcNAQEEBQAwgawxCzAJBgNVBAYTAlVT
MQswCQYDVQQIEwJPSDERMA8GA1UEBxMIQ29sdW1idXMxEjAQBgNVBAoTCVZpa2lu
Z1ZQTjEdMBsGA1UECxMUTXlPcmdhbml6YXRpb25hbFVuaXQxFTATBgNVBAMTDFZp
a2luZ1ZQTiBDQTEQMA4GA1UEKRMHRWFzeVJTQTEhMB8GCSqGSIb3DQEJARYSbWVA
bXlob3N0Lm15ZG9tYWluMB4XDTE2MDQyNjE3MzUzM1oXDTI2MDQyNDE3MzUzM1ow
HzEdMBsGA1UEAxMUQ2xpZW50MjI3NENlcnQxOTY2ZTAwggIiMA0GCSqGSIb3DQEB
AQUAA4ICDwAwggIKAoICAQDq6G/iOMIaztOnNt1iytElWIfSHMC6JtS2my1gLU07
TCqe1ehMyBhZJjnxRLevHXWhMS0yP/j+Fbxc7OT0lUkD68cDgRm0fq9Rfj03VBsJ
rf90CxDc0Rua1vRM/0LE7LKsAvmjf6xde3g/6kMFrOgH9YuQAj9HmYze6lvJUgNZ
tTzw1ww3w4XuD8XDpRAPsfXAWu3ZdLGKzT8EULYqN7sLQZZCZTYyUBpFRz7HwS2I
/FhtdOE5yVtXOxusOpok75WK16hSkXdJ9Tn2CqOeYdA6zD3bJPTC1rVKCj7VxjeI
PahVakcKyOnUxkgHViMa+gej0ZQZtcb+SMjqs8CiGH72PMG9ZblGfKveyWT5CQ2M
fFGrL+hGOrUHQA32c3RGTsSIVihq3JBRiXCeoPq5/7sVPqKaLq2QoD0lGnCjHzM/
2XBnC2vW2yAiAejyZUMIWztgA7PK5h7pjmlRY+/IbPiMcOdfe0cwrC8SFyE0Vt1U
ZyEr1bF0QIBoe2slja+cppzhHSjgph8kNi8bIKjSnf2VyYuRWje+/5+70OQ5kIMD
q3lQLiquGF1kdhTlyhdRk3VN8EsXm78j8JRVIe2NthGxnChbdPCV/eq8WwaKPbgb
koj/wf+bl+UEJLTmyYEUI7YvyoQwQzUL47rwyE3BeXGlD5cmtuM+cUNlwLCAy3zl
kwIDAQABo4IBYzCCAV8wCQYDVR0TBAIwADAtBglghkgBhvhCAQ0EIBYeRWFzeS1S
U0EgR2VuZXJhdGVkIENlcnRpZmljYXRlMB0GA1UdDgQWBBTG/n22j9E7L4kwwNxp
84BBkwLl6DCB4QYDVR0jBIHZMIHWgBQSzWAE0qCAnnDtxpm4eyzGUv0ZoaGBsqSB
rzCBrDELMAkGA1UEBhMCVVMxCzAJBgNVBAgTAk9IMREwDwYDVQQHEwhDb2x1bWJ1
czESMBAGA1UEChMJVmlraW5nVlBOMR0wGwYDVQQLExRNeU9yZ2FuaXphdGlvbmFs
VW5pdDEVMBMGA1UEAxMMVmlraW5nVlBOIENBMRAwDgYDVQQpEwdFYXN5UlNBMSEw
HwYJKoZIhvcNAQkBFhJtZUBteWhvc3QubXlkb21haW6CCQDPNYXugL8qPjATBgNV
HSUEDDAKBggrBgEFBQcDAjALBgNVHQ8EBAMCB4AwDQYJKoZIhvcNAQEEBQADggIB
AIxN3QFZUA96M3L4dR96SL3LaNPZAq5aMTONzUFIvW04AwekGR80jZ5ipTgAyVa5
zvQRTii9a402kTHqbjfxEwkfrelVFI+QlTg95qDrgmg7yh+qfc9Ibf4PVPsAB+ZU
y4+80ZwNTi/KMvIB8TPch6H4vT9E9o+ZIEUS2HF/wXGmNDr5LsstcdCYozrXMDeE
641i6xnfg/GDriuann9EoccuUCrctVcKxvDzesxXc4tty7BMPE5CiWCGFmt5Bv44
Ihqp8668hfrlxB1yDds+HMl9mX9PPJucsicRqsXeix/unfimjV5LZhhtjZWJw+U1
8EPoogwFd6+HnPKeIwfhYDGjy4ZX9emqJak9vYcm5eC7K7otAtmWYSlOD4a9wu5D
7DuwoijGa268yydtA2YamVDxDXc4DCdbM8Pp5UMUg1rT4PbTYQhGf+UJnz4LBFsi
e+znn4RNxwcBK/CNwPzca5TJcpIk/BM3AarAFHVoSJnT7NGV97KayJK8Ricq2za6
lNZNRpjKo65IveRUa1PauGqlXLkLUHJGL3VMelxX/fTdtqFOhcZKrNcNt+oL7imt
ePt5miFkrahT8E5pBmw7VyIuoVgjdI541OxEHwUDdAEhCKcyr/f355kJihXACDgF
/uMhj9+9IF+fecRVDf1GYlbLf0bhZzFJAd162yXRAGs3
-----END CERTIFICATE-----
