Certificate:
    Data:
        Version: 3 (0x2)
        Serial Number: 10009 (0x2719)
    Signature Algorithm: sha256WithRSAEncryption
        Issuer: C=US, ST=OH, L=Columbus, O=VikingVPN, OU=MyOrganizationalUnit, CN=VikingVPN CA/name=EasyRSA/emailAddress=me@myhost.mydomain
        Validity
            Not Before: Jan 27 19:57:20 2017 GMT
            Not After : Jan 25 19:57:20 2027 GMT
        Subject: CN=Client2699Cert705f16
        Subject Public Key Info:
            Public Key Algorithm: rsaEncryption
                Public-Key: (4096 bit)
                Modulus:
                    00:d5:e9:1c:01:4d:ec:5f:aa:0e:4b:29:4f:fd:68:
                    97:6a:3d:48:7a:93:00:f5:6b:da:4d:a5:44:ec:ef:
                    5f:ba:dd:dc:38:83:6e:f9:b7:4f:68:82:55:ab:0b:
                    01:07:59:6d:38:b2:b5:06:dc:d0:5a:15:7b:f9:67:
                    3f:0d:8b:9f:83:5b:75:f2:48:d5:6f:00:6b:b8:6a:
                    5c:11:18:e3:15:de:e4:8e:04:cd:e1:2d:dd:94:e9:
                    58:b7:6f:b5:d9:b2:64:4c:ad:41:c7:af:10:a8:0d:
                    da:d3:d0:0a:15:f3:35:dd:5a:05:53:9e:ba:09:e7:
                    26:fe:a4:0a:b9:08:89:f4:1e:a4:56:07:23:53:17:
                    37:c4:ab:24:19:bc:e6:9d:7b:03:40:e9:a5:be:01:
                    e0:dd:c0:12:84:da:d7:bd:f2:bd:22:fd:4c:5f:ec:
                    82:78:28:38:c1:5c:62:b6:da:97:13:8c:63:81:b3:
                    4a:65:aa:16:53:fe:1f:5b:e8:2a:fa:2f:4d:ff:79:
                    f6:fe:7e:86:78:62:ad:1c:13:d5:a7:b7:9a:ae:fc:
                    1b:a2:55:f6:ec:ee:31:6e:38:d5:69:ad:c4:6f:62:
                    ff:eb:fa:79:21:82:92:ec:88:b3:6b:0f:71:34:29:
                    27:e6:8e:fd:09:48:56:3f:a2:70:e4:37:9c:db:d2:
                    7a:11:ac:a6:ea:4c:7b:d5:55:cf:e8:61:f5:2a:44:
                    f4:0b:fa:e4:c5:e2:8c:62:7a:18:e9:d7:41:f3:48:
                    c5:34:ff:10:4b:3c:e9:c7:46:38:15:1c:3f:32:d7:
                    3d:80:56:02:50:8a:4b:1a:9b:c6:09:4f:61:52:22:
                    ac:ff:45:69:00:ef:3a:05:08:27:e8:da:c5:8a:f8:
                    31:c1:76:39:e8:7d:e0:fc:38:e5:b2:5f:9f:23:d3:
                    cd:f2:92:4c:96:77:48:26:bb:91:ca:3e:17:83:85:
                    48:f6:86:16:aa:03:f6:46:8b:cb:48:af:d2:f3:eb:
                    0e:75:72:0b:5f:97:4b:1e:7a:1a:3e:d3:c8:cd:b4:
                    bc:00:b1:60:32:f0:a9:c2:8c:29:4e:a6:7e:cc:01:
                    de:6f:b9:fb:c7:4f:3f:57:fb:a6:7d:c6:7a:1b:dd:
                    fa:68:cd:29:d6:07:c9:2f:36:14:a8:fb:f8:bf:df:
                    35:ba:c7:9c:0d:5d:5b:06:ac:21:81:6a:c2:08:e6:
                    07:4c:6c:4e:25:a1:a2:73:ec:26:3b:fc:e4:04:5f:
                    8c:85:84:21:83:56:47:71:01:ba:c0:2a:22:c3:6e:
                    02:56:a9:8a:ca:34:11:e9:28:e1:31:32:4b:d8:7e:
                    c4:22:e4:81:66:f5:b7:8c:0b:0f:14:d5:01:1a:7e:
                    1d:8f:37
                Exponent: 65537 (0x10001)
        X509v3 extensions:
            X509v3 Basic Constraints: 
                CA:FALSE
            Netscape Comment: 
                Easy-RSA Generated Certificate
            X509v3 Subject Key Identifier: 
                6E:64:C5:92:0C:BA:0E:6F:16:83:F3:72:DC:35:CD:54:B5:3B:A3:76
            X509v3 Authority Key Identifier: 
                keyid:12:CD:60:04:D2:A0:80:9E:70:ED:C6:99:B8:7B:2C:C6:52:FD:19:A1
                DirName:/C=US/ST=OH/L=Columbus/O=VikingVPN/OU=MyOrganizationalUnit/CN=VikingVPN CA/name=EasyRSA/emailAddress=me@myhost.mydomain
                serial:CF:35:85:EE:80:BF:2A:3E

            X509v3 Extended Key Usage: 
                TLS Web Client Authentication
            X509v3 Key Usage: 
                Digital Signature
    Signature Algorithm: sha256WithRSAEncryption
         60:28:c0:e7:27:a6:e3:f2:2c:47:1d:29:a5:40:ba:01:32:12:
         e6:c7:51:3e:70:25:66:60:d5:cd:c1:31:f6:4b:9a:df:73:ed:
         fa:b1:f3:b2:1c:f3:19:8a:89:0a:b5:73:a5:f5:cc:b7:c7:b4:
         46:38:26:25:17:a0:14:f5:8c:0c:f4:53:36:e3:4a:0a:85:8f:
         c6:1a:bf:0b:1a:d0:67:25:01:75:25:c5:b5:9b:53:59:5b:d6:
         f0:53:31:fd:d3:77:25:b4:a0:b8:a5:8a:6e:ed:b0:54:2a:b0:
         84:4e:bf:5a:9a:bb:7f:8a:ae:47:13:0b:8b:fa:1d:2f:20:ce:
         e4:55:a7:f1:55:a3:11:bb:62:89:5c:d2:cc:b0:41:74:c1:28:
         76:30:e0:a1:dc:d5:65:e6:11:b1:7a:91:33:b5:57:47:58:29:
         54:17:b0:20:63:cb:9a:57:e0:b7:48:a2:cc:c9:f2:66:c9:13:
         60:4f:89:4e:aa:8a:d3:62:72:1f:44:e3:08:77:86:ee:33:06:
         e5:a5:78:01:53:a4:5d:d2:47:f3:c4:7f:58:72:f7:cb:03:63:
         e7:87:eb:e6:92:cd:de:cb:9e:01:15:e0:52:7f:fa:95:23:1d:
         9c:3f:de:54:14:93:83:69:84:0c:13:2b:37:c5:f2:c0:99:e2:
         16:08:f5:ca:c5:18:97:f6:7e:ae:4d:2a:37:8a:58:a6:2e:47:
         42:e8:30:c0:01:f9:0d:12:b2:8a:4e:67:bb:ed:ba:b4:7d:76:
         44:64:c0:71:53:5b:3c:1f:a4:f5:f6:f7:b8:8d:c4:d3:9c:08:
         8d:d9:98:ad:fe:28:e1:f4:af:9a:14:78:e9:af:ab:cb:c7:0e:
         f4:81:2b:45:f5:a2:f0:c3:6c:cb:d6:be:00:a7:d1:d6:49:42:
         8e:b3:63:fa:09:96:9a:be:5d:d6:3f:b8:75:01:f9:d5:92:6a:
         18:ea:cc:02:7c:25:9f:65:31:16:24:01:70:13:09:8a:5c:23:
         35:6a:1c:87:2a:06:13:1e:3f:3d:d5:88:42:d5:92:40:6a:83:
         20:00:e0:8e:6d:15:af:ce:9f:56:a4:e6:d3:eb:57:01:cc:d4:
         61:84:a7:93:d6:a7:da:7c:4c:0e:fd:02:3f:e8:da:4a:29:07:
         72:e4:87:64:d6:e1:34:3e:5b:e5:4a:9f:12:f6:a5:51:36:39:
         4c:45:03:f6:02:38:26:1b:c4:29:29:46:d7:51:78:f8:aa:73:
         1d:f3:97:f2:3f:df:a1:ef:b6:5a:ae:3d:92:db:48:7d:68:fc:
         86:7b:d5:08:17:61:7b:28:74:e7:d1:70:1d:02:58:19:6d:3a:
         33:ef:5a:c9:47:c0:49:33
-----BEGIN CERTIFICATE-----
MIIGrTCCBJWgAwIBAgICJxkwDQYJKoZIhvcNAQELBQAwgawxCzAJBgNVBAYTAlVT
MQswCQYDVQQIEwJPSDERMA8GA1UEBxMIQ29sdW1idXMxEjAQBgNVBAoTCVZpa2lu
Z1ZQTjEdMBsGA1UECxMUTXlPcmdhbml6YXRpb25hbFVuaXQxFTATBgNVBAMTDFZp
a2luZ1ZQTiBDQTEQMA4GA1UEKRMHRWFzeVJTQTEhMB8GCSqGSIb3DQEJARYSbWVA
bXlob3N0Lm15ZG9tYWluMB4XDTE3MDEyNzE5NTcyMFoXDTI3MDEyNTE5NTcyMFow
HzEdMBsGA1UEAxMUQ2xpZW50MjY5OUNlcnQ3MDVmMTYwggIiMA0GCSqGSIb3DQEB
AQUAA4ICDwAwggIKAoICAQDV6RwBTexfqg5LKU/9aJdqPUh6kwD1a9pNpUTs71+6
3dw4g275t09oglWrCwEHWW04srUG3NBaFXv5Zz8Ni5+DW3XySNVvAGu4alwRGOMV
3uSOBM3hLd2U6Vi3b7XZsmRMrUHHrxCoDdrT0AoV8zXdWgVTnroJ5yb+pAq5CIn0
HqRWByNTFzfEqyQZvOadewNA6aW+AeDdwBKE2te98r0i/Uxf7IJ4KDjBXGK22pcT
jGOBs0plqhZT/h9b6Cr6L03/efb+foZ4Yq0cE9Wnt5qu/BuiVfbs7jFuONVprcRv
Yv/r+nkhgpLsiLNrD3E0KSfmjv0JSFY/onDkN5zb0noRrKbqTHvVVc/oYfUqRPQL
+uTF4oxiehjp10HzSMU0/xBLPOnHRjgVHD8y1z2AVgJQiksam8YJT2FSIqz/RWkA
7zoFCCfo2sWK+DHBdjnofeD8OOWyX58j083ykkyWd0gmu5HKPheDhUj2hhaqA/ZG
i8tIr9Lz6w51cgtfl0seeho+08jNtLwAsWAy8KnCjClOpn7MAd5vufvHTz9X+6Z9
xnob3fpozSnWB8kvNhSo+/i/3zW6x5wNXVsGrCGBasII5gdMbE4loaJz7CY7/OQE
X4yFhCGDVkdxAbrAKiLDbgJWqYrKNBHpKOExMkvYfsQi5IFm9beMCw8U1QEafh2P
NwIDAQABo4IBYzCCAV8wCQYDVR0TBAIwADAtBglghkgBhvhCAQ0EIBYeRWFzeS1S
U0EgR2VuZXJhdGVkIENlcnRpZmljYXRlMB0GA1UdDgQWBBRuZMWSDLoObxaD83Lc
Nc1UtTujdjCB4QYDVR0jBIHZMIHWgBQSzWAE0qCAnnDtxpm4eyzGUv0ZoaGBsqSB
rzCBrDELMAkGA1UEBhMCVVMxCzAJBgNVBAgTAk9IMREwDwYDVQQHEwhDb2x1bWJ1
czESMBAGA1UEChMJVmlraW5nVlBOMR0wGwYDVQQLExRNeU9yZ2FuaXphdGlvbmFs
VW5pdDEVMBMGA1UEAxMMVmlraW5nVlBOIENBMRAwDgYDVQQpEwdFYXN5UlNBMSEw
HwYJKoZIhvcNAQkBFhJtZUBteWhvc3QubXlkb21haW6CCQDPNYXugL8qPjATBgNV
HSUEDDAKBggrBgEFBQcDAjALBgNVHQ8EBAMCB4AwDQYJKoZIhvcNAQELBQADggIB
AGAowOcnpuPyLEcdKaVAugEyEubHUT5wJWZg1c3BMfZLmt9z7fqx87Ic8xmKiQq1
c6X1zLfHtEY4JiUXoBT1jAz0UzbjSgqFj8Yavwsa0GclAXUlxbWbU1lb1vBTMf3T
dyW0oLilim7tsFQqsIROv1qau3+KrkcTC4v6HS8gzuRVp/FVoxG7Yolc0sywQXTB
KHYw4KHc1WXmEbF6kTO1V0dYKVQXsCBjy5pX4LdIoszJ8mbJE2BPiU6qitNich9E
4wh3hu4zBuWleAFTpF3SR/PEf1hy98sDY+eH6+aSzd7LngEV4FJ/+pUjHZw/3lQU
k4NphAwTKzfF8sCZ4hYI9crFGJf2fq5NKjeKWKYuR0LoMMAB+Q0SsopOZ7vturR9
dkRkwHFTWzwfpPX297iNxNOcCI3ZmK3+KOH0r5oUeOmvq8vHDvSBK0X1ovDDbMvW
vgCn0dZJQo6zY/oJlpq+XdY/uHUB+dWSahjqzAJ8JZ9lMRYkAXATCYpcIzVqHIcq
BhMePz3ViELVkkBqgyAA4I5tFa/On1ak5tPrVwHM1GGEp5PWp9p8TA79Aj/o2kop
B3Lkh2TW4TQ+W+VKnxL2pVE2OUxFA/YCOCYbxCkpRtdRePiqcx3zl/I/36Hvtlqu
PZLbSH1o/IZ71QgXYXsodOfRcB0CWBltOjPvWslHwEkz
-----END CERTIFICATE-----
