Certificate:
    Data:
        Version: 3 (0x2)
        Serial Number: 550 (0x226)
    Signature Algorithm: md5WithRSAEncryption
        Issuer: C=US, ST=OH, L=Columbus, O=VikingVPN, OU=MyOrganizationalUnit, CN=VikingVPN CA/name=EasyRSA/emailAddress=me@myhost.mydomain
        Validity
            Not Before: Dec 11 03:45:37 2013 GMT
            Not After : Dec  9 03:45:37 2023 GMT
        Subject: CN=Client228Cert67ac95
        Subject Public Key Info:
            Public Key Algorithm: rsaEncryption
                Public-Key: (4096 bit)
                Modulus:
                    00:de:3b:1d:b6:77:24:d5:a1:a6:90:86:e0:bc:82:
                    0c:c4:a9:9b:2e:28:b0:59:45:2f:3e:6d:f6:93:80:
                    39:46:cd:9b:35:f0:db:26:e4:32:60:3c:22:a3:80:
                    10:69:9b:03:14:cc:4a:51:e0:d6:5d:e5:c7:fb:ef:
                    7a:b9:af:c1:9c:7c:fe:61:2b:ff:52:90:b7:46:18:
                    dd:10:f6:94:63:55:31:4d:3c:1e:9a:4b:30:53:4f:
                    27:50:80:63:e2:0e:45:bd:43:d1:07:8b:35:35:c5:
                    2b:f0:7c:36:e6:e2:68:f9:4c:a9:84:fa:75:f3:40:
                    2b:aa:f9:c9:ac:55:60:5c:56:10:72:56:e2:91:3f:
                    12:b0:9c:13:fc:1c:1e:b7:ad:f7:c3:5c:2b:f9:7d:
                    62:3c:61:20:a5:d4:25:ac:fd:16:10:55:4a:48:8d:
                    e4:a9:1f:25:7a:fb:93:a0:72:aa:c5:69:0b:a6:89:
                    64:56:78:54:3c:8f:13:d0:ab:f8:9d:33:4e:2c:bc:
                    76:d6:66:f8:d8:64:ad:d7:76:99:28:40:07:5d:9b:
                    6a:80:7f:af:65:ae:0f:f0:13:7e:27:02:a5:18:50:
                    d2:6e:f5:d6:b7:85:d9:e7:f9:e9:94:28:f9:ec:18:
                    30:5c:d6:a8:0b:03:36:c9:f0:a9:4f:c3:33:10:88:
                    de:5a:6c:20:18:f0:7d:16:ab:40:31:0e:68:6a:dd:
                    90:86:c5:57:59:50:b5:c0:80:2d:ad:7c:88:cd:57:
                    83:ec:93:4e:32:a1:b0:b0:08:8a:96:7f:1f:e9:e6:
                    ab:b1:12:40:45:5a:1b:c2:64:aa:b9:cf:29:b4:d9:
                    65:11:9e:e2:d5:b2:9a:82:c1:97:6b:4e:21:98:3f:
                    38:94:9a:bd:61:2b:01:c5:8a:7a:ec:fe:1a:0c:38:
                    b2:ae:cc:f0:c9:a5:fd:51:e8:d9:dc:b6:81:68:30:
                    66:bd:52:50:41:aa:e2:fa:e1:1d:90:8e:ad:5b:37:
                    f0:3f:dd:21:04:77:26:b4:66:94:7d:54:4f:ca:60:
                    f0:14:94:2f:06:6d:ec:16:63:dd:1a:83:37:c3:9a:
                    2b:e6:95:20:7b:24:ca:05:a8:bb:7c:98:1e:d4:1f:
                    9a:0a:6e:50:8d:4e:3c:33:8a:95:91:54:a3:c9:e8:
                    08:c0:28:79:5e:6d:af:76:21:8b:f4:f9:3d:ca:6a:
                    dd:1f:87:7e:a4:17:69:61:bf:9a:15:08:b6:65:df:
                    b0:6f:f8:2b:11:98:37:3b:d6:9d:73:b6:16:f2:66:
                    82:83:93:cd:78:2a:35:9b:82:8e:43:ee:96:5c:74:
                    d4:ce:42:7b:d9:10:74:69:01:b2:1c:29:02:d8:0d:
                    88:81:f3
                Exponent: 65537 (0x10001)
        X509v3 extensions:
            X509v3 Basic Constraints: 
                CA:FALSE
            Netscape Comment: 
                Easy-RSA Generated Certificate
            X509v3 Subject Key Identifier: 
                31:6D:A7:B3:1C:FF:8A:9E:B7:9F:0F:59:44:EE:F4:B5:8B:07:6A:DF
            X509v3 Authority Key Identifier: 
                keyid:12:CD:60:04:D2:A0:80:9E:70:ED:C6:99:B8:7B:2C:C6:52:FD:19:A1
                DirName:/C=US/ST=OH/L=Columbus/O=VikingVPN/OU=MyOrganizationalUnit/CN=VikingVPN CA/name=EasyRSA/emailAddress=me@myhost.mydomain
                serial:CF:35:85:EE:80:BF:2A:3E

            X509v3 Extended Key Usage: 
                TLS Web Client Authentication
            X509v3 Key Usage: 
                Digital Signature
    Signature Algorithm: md5WithRSAEncryption
         75:60:ae:a1:6c:73:99:9c:d9:a8:ee:97:53:5b:66:c1:91:2b:
         a7:8b:5e:7f:eb:05:88:a0:b4:65:0e:ac:ef:2e:93:5f:59:e1:
         79:5d:7a:c1:8f:1b:39:3c:43:09:6d:4a:56:c6:69:4a:7d:93:
         61:50:9e:c6:64:7d:b4:50:6e:07:01:3f:fc:c5:73:23:33:03:
         45:10:ba:3c:97:a5:b7:2d:e7:fd:33:cc:7c:54:34:30:f5:b8:
         11:c0:2e:1f:6a:26:17:85:e8:92:36:ce:af:b9:57:b2:96:98:
         21:3c:ba:1b:33:18:1c:79:07:5e:1e:b2:d2:94:0d:22:9b:cc:
         0c:d0:49:ba:0f:84:af:fa:fb:25:b6:8b:8a:9f:5b:7b:4e:86:
         22:bf:51:74:50:df:1b:7e:dd:cb:c8:11:85:93:d6:81:c0:fe:
         07:d3:03:ff:67:b2:2b:ea:eb:f5:0e:82:1f:dc:12:26:6d:4e:
         4e:a4:dc:c9:5c:79:61:40:8a:f8:3a:cd:cd:6b:d9:cd:10:59:
         97:41:4f:3a:a5:2a:19:1b:90:e0:97:7f:66:3c:6f:2c:1c:0e:
         6f:6b:8f:92:14:61:c8:c5:ae:d4:4e:20:45:23:c3:cc:67:17:
         c5:ee:00:08:a8:c5:e4:38:67:b0:78:c9:6a:87:04:65:1b:c7:
         b1:f8:7a:cc:98:61:89:ae:f3:61:d5:df:9c:33:6a:00:86:71:
         db:f4:0b:fa:51:b1:8f:01:2a:e1:ef:33:20:e2:9c:15:5e:ea:
         aa:46:41:f1:98:b2:1b:69:a1:d1:34:8e:b3:bf:69:dc:d0:df:
         a8:ea:73:39:52:7c:0e:00:56:6e:05:7a:2d:d5:92:2f:2b:21:
         03:4b:6c:c6:12:bc:ab:7d:f3:81:5f:61:cb:b7:45:0b:66:bf:
         33:1f:40:d8:49:cf:d8:7d:59:13:17:f6:8a:29:3a:f3:1d:55:
         cf:af:75:7e:e4:11:b7:a1:ef:0a:d8:38:2d:78:4b:7e:da:bd:
         f8:2a:01:77:22:00:23:e4:ab:b4:a1:00:b4:b0:e6:f1:ca:aa:
         9b:f8:bf:26:13:29:56:4e:79:52:2a:43:34:7f:c4:a8:cf:11:
         c8:cd:35:64:99:13:9a:7a:b9:7d:03:60:2d:0b:b8:34:f4:6a:
         5a:d1:86:d6:18:d2:db:d7:db:b6:37:9c:91:6e:bc:9d:1b:54:
         8b:76:e8:37:e3:1d:bd:07:ec:0b:89:b4:1c:e8:36:55:99:8f:
         84:a1:34:fd:82:91:58:b1:5b:33:73:f3:de:6f:6a:9e:e5:b0:
         af:b5:15:c4:c2:4a:db:46:65:29:65:d9:09:48:53:3d:63:31:
         09:8f:be:47:cc:c0:15:fa
-----BEGIN CERTIFICATE-----
MIIGrDCCBJSgAwIBAgICAiYwDQYJKoZIhvcNAQEEBQAwgawxCzAJBgNVBAYTAlVT
MQswCQYDVQQIEwJPSDERMA8GA1UEBxMIQ29sdW1idXMxEjAQBgNVBAoTCVZpa2lu
Z1ZQTjEdMBsGA1UECxMUTXlPcmdhbml6YXRpb25hbFVuaXQxFTATBgNVBAMTDFZp
a2luZ1ZQTiBDQTEQMA4GA1UEKRMHRWFzeVJTQTEhMB8GCSqGSIb3DQEJARYSbWVA
bXlob3N0Lm15ZG9tYWluMB4XDTEzMTIxMTAzNDUzN1oXDTIzMTIwOTAzNDUzN1ow
HjEcMBoGA1UEAxMTQ2xpZW50MjI4Q2VydDY3YWM5NTCCAiIwDQYJKoZIhvcNAQEB
BQADggIPADCCAgoCggIBAN47HbZ3JNWhppCG4LyCDMSpmy4osFlFLz5t9pOAOUbN
mzXw2ybkMmA8IqOAEGmbAxTMSlHg1l3lx/vvermvwZx8/mEr/1KQt0YY3RD2lGNV
MU08HppLMFNPJ1CAY+IORb1D0QeLNTXFK/B8NubiaPlMqYT6dfNAK6r5yaxVYFxW
EHJW4pE/ErCcE/wcHret98NcK/l9YjxhIKXUJaz9FhBVSkiN5KkfJXr7k6ByqsVp
C6aJZFZ4VDyPE9Cr+J0zTiy8dtZm+Nhkrdd2mShAB12baoB/r2WuD/ATficCpRhQ
0m711reF2ef56ZQo+ewYMFzWqAsDNsnwqU/DMxCI3lpsIBjwfRarQDEOaGrdkIbF
V1lQtcCALa18iM1Xg+yTTjKhsLAIipZ/H+nmq7ESQEVaG8JkqrnPKbTZZRGe4tWy
moLBl2tOIZg/OJSavWErAcWKeuz+Ggw4sq7M8Mml/VHo2dy2gWgwZr1SUEGq4vrh
HZCOrVs38D/dIQR3JrRmlH1UT8pg8BSULwZt7BZj3RqDN8OaK+aVIHskygWou3yY
HtQfmgpuUI1OPDOKlZFUo8noCMAoeV5tr3Yhi/T5Pcpq3R+HfqQXaWG/mhUItmXf
sG/4KxGYNzvWnXO2FvJmgoOTzXgqNZuCjkPullx01M5Ce9kQdGkBshwpAtgNiIHz
AgMBAAGjggFjMIIBXzAJBgNVHRMEAjAAMC0GCWCGSAGG+EIBDQQgFh5FYXN5LVJT
QSBHZW5lcmF0ZWQgQ2VydGlmaWNhdGUwHQYDVR0OBBYEFDFtp7Mc/4qet58PWUTu
9LWLB2rfMIHhBgNVHSMEgdkwgdaAFBLNYATSoICecO3Gmbh7LMZS/RmhoYGypIGv
MIGsMQswCQYDVQQGEwJVUzELMAkGA1UECBMCT0gxETAPBgNVBAcTCENvbHVtYnVz
MRIwEAYDVQQKEwlWaWtpbmdWUE4xHTAbBgNVBAsTFE15T3JnYW5pemF0aW9uYWxV
bml0MRUwEwYDVQQDEwxWaWtpbmdWUE4gQ0ExEDAOBgNVBCkTB0Vhc3lSU0ExITAf
BgkqhkiG9w0BCQEWEm1lQG15aG9zdC5teWRvbWFpboIJAM81he6Avyo+MBMGA1Ud
JQQMMAoGCCsGAQUFBwMCMAsGA1UdDwQEAwIHgDANBgkqhkiG9w0BAQQFAAOCAgEA
dWCuoWxzmZzZqO6XU1tmwZErp4tef+sFiKC0ZQ6s7y6TX1nheV16wY8bOTxDCW1K
VsZpSn2TYVCexmR9tFBuBwE//MVzIzMDRRC6PJelty3n/TPMfFQ0MPW4EcAuH2om
F4XokjbOr7lXspaYITy6GzMYHHkHXh6y0pQNIpvMDNBJug+Er/r7JbaLip9be06G
Ir9RdFDfG37dy8gRhZPWgcD+B9MD/2eyK+rr9Q6CH9wSJm1OTqTcyVx5YUCK+DrN
zWvZzRBZl0FPOqUqGRuQ4Jd/ZjxvLBwOb2uPkhRhyMWu1E4gRSPDzGcXxe4ACKjF
5DhnsHjJaocEZRvHsfh6zJhhia7zYdXfnDNqAIZx2/QL+lGxjwEq4e8zIOKcFV7q
qkZB8ZiyG2mh0TSOs79p3NDfqOpzOVJ8DgBWbgV6LdWSLyshA0tsxhK8q33zgV9h
y7dFC2a/Mx9A2EnP2H1ZExf2iik68x1Vz691fuQRt6HvCtg4LXhLftq9+CoBdyIA
I+SrtKEAtLDm8cqqm/i/JhMpVk55UipDNH/EqM8RyM01ZJkTmnq5fQNgLQu4NPRq
WtGG1hjS29fbtjeckW68nRtUi3boN+MdvQfsC4m0HOg2VZmPhKE0/YKRWLFbM3Pz
3m9qnuWwr7UVxMJK20ZlKWXZCUhTPWMxCY++R8zAFfo=
-----END CERTIFICATE-----
