Certificate:
    Data:
        Version: 3 (0x2)
        Serial Number: 7271 (0x1c67)
    Signature Algorithm: md5WithRSAEncryption
        Issuer: C=US, ST=OH, L=Columbus, O=VikingVPN, OU=MyOrganizationalUnit, CN=VikingVPN CA/name=EasyRSA/emailAddress=me@myhost.mydomain
        Validity
            Not Before: Feb 22 23:36:34 2016 GMT
            Not After : Feb 19 23:36:34 2026 GMT
        Subject: CN=Client2081Cert105fbe
        Subject Public Key Info:
            Public Key Algorithm: rsaEncryption
                Public-Key: (4096 bit)
                Modulus:
                    00:c4:a2:41:ce:22:39:22:81:c7:1c:9c:db:56:b9:
                    d8:b3:45:7a:d9:90:43:7b:9b:97:03:53:a6:31:69:
                    1e:db:94:06:05:fc:80:3b:c0:23:f3:c8:44:72:a5:
                    96:16:b6:d6:ec:01:de:48:8d:c9:84:90:ab:98:1c:
                    66:a7:74:bc:26:ad:30:1b:3f:99:f0:f2:52:77:17:
                    93:4e:31:c3:9a:ad:5b:ab:15:fa:a2:a1:de:75:d2:
                    ef:7a:e4:01:12:06:1e:a3:aa:0f:c5:e0:a2:f0:2a:
                    3f:3e:00:77:22:b0:37:ed:0f:3f:2c:7f:e3:cb:22:
                    23:39:80:32:ee:90:10:37:25:86:36:1e:5a:eb:92:
                    a0:4f:31:9a:f2:11:d1:c6:45:34:ec:37:45:e6:e9:
                    1f:06:ac:58:d2:9b:f8:c7:ef:8d:27:e1:c5:86:d4:
                    3a:c2:21:72:ca:82:98:a0:14:a7:d6:36:d2:96:4a:
                    af:25:2e:3b:9c:f6:ac:ed:d5:c1:cb:4e:40:9c:b8:
                    95:c2:6d:b0:7f:32:a1:d9:ee:44:d0:a3:8d:10:0d:
                    15:f4:66:b9:66:0c:2c:58:51:12:9b:21:53:5b:af:
                    67:49:a0:14:a9:5a:f4:0d:b1:3e:5c:08:32:17:2e:
                    90:0d:9c:21:49:63:32:88:a6:da:dc:ee:f5:46:15:
                    e0:45:50:20:4b:c5:2e:d1:14:c3:76:c8:3d:52:54:
                    e3:c0:6b:5f:e6:06:05:6d:a4:2b:42:fb:91:f4:98:
                    2b:80:27:df:6e:8e:01:fb:60:28:e1:29:77:be:3b:
                    66:d9:2a:63:f7:b1:37:2b:e8:40:1f:b8:2f:22:7d:
                    95:c3:a3:89:e9:ac:9a:51:4a:7e:da:3a:36:00:3a:
                    d3:8b:37:d2:ee:37:eb:0e:01:25:dc:65:42:de:9a:
                    5a:c5:f2:65:0b:a7:0c:12:f4:28:51:66:02:8d:f7:
                    23:95:2f:eb:9b:30:74:04:55:f4:e7:44:0f:46:c1:
                    6c:96:60:a9:ac:60:0e:20:9a:5b:25:a5:46:1b:25:
                    13:35:7c:f0:91:13:ee:88:6d:21:16:d7:8c:5f:14:
                    55:ce:d8:b2:c4:8a:a5:58:1a:1d:95:66:5e:4c:23:
                    50:61:9b:cd:b6:5c:65:54:e4:59:0d:ce:b8:24:10:
                    c7:af:63:c2:cf:ff:56:d2:05:f4:12:9b:b6:01:2b:
                    fa:df:aa:6c:dd:6d:c2:da:2a:1c:7e:de:87:bc:4e:
                    a9:76:3a:e0:a8:54:e8:73:28:fa:a4:f0:3d:48:24:
                    80:23:e7:cc:d9:7e:13:be:72:a2:55:d7:4f:81:a1:
                    20:73:d2:ee:1c:ae:75:bc:a6:be:88:9f:91:1d:a2:
                    fe:87:21
                Exponent: 65537 (0x10001)
        X509v3 extensions:
            X509v3 Basic Constraints: 
                CA:FALSE
            Netscape Comment: 
                Easy-RSA Generated Certificate
            X509v3 Subject Key Identifier: 
                58:EF:38:E6:79:11:23:36:7A:64:76:B5:86:D3:1F:2D:C2:9F:DC:20
            X509v3 Authority Key Identifier: 
                keyid:12:CD:60:04:D2:A0:80:9E:70:ED:C6:99:B8:7B:2C:C6:52:FD:19:A1
                DirName:/C=US/ST=OH/L=Columbus/O=VikingVPN/OU=MyOrganizationalUnit/CN=VikingVPN CA/name=EasyRSA/emailAddress=me@myhost.mydomain
                serial:CF:35:85:EE:80:BF:2A:3E

            X509v3 Extended Key Usage: 
                TLS Web Client Authentication
            X509v3 Key Usage: 
                Digital Signature
    Signature Algorithm: md5WithRSAEncryption
         40:fa:24:71:32:bf:c3:a3:ef:63:34:a4:35:e0:53:cc:37:e4:
         48:78:27:91:47:b9:8c:c3:81:46:e1:d8:52:2c:b2:3f:10:5c:
         ed:93:51:96:8e:83:3a:53:af:a8:bb:9b:27:bd:7e:47:28:88:
         e2:24:fe:cf:e0:e2:d9:f4:31:93:0d:ec:56:89:8f:61:e2:be:
         9d:75:a2:d9:c5:7a:2e:8e:95:7d:5f:a2:cb:63:f1:b0:44:55:
         dc:09:f9:10:a3:fb:15:38:dc:33:8b:28:b9:d4:4f:f4:49:91:
         41:98:e4:eb:74:b1:1a:da:52:ae:bf:d7:7f:e9:3d:c6:d1:c6:
         90:1d:fb:15:58:96:e7:d5:15:c4:04:fa:ac:d8:b0:c5:33:a5:
         a5:b2:67:a4:ff:3f:26:70:b2:2a:d1:77:b9:a7:9f:cc:ff:d5:
         4a:fe:6e:ee:3d:62:2d:a1:32:e4:98:4c:0b:2d:ed:35:30:f9:
         20:9c:5d:5d:4a:d3:63:8d:6d:33:9e:d5:cc:33:16:de:56:89:
         34:05:ea:91:84:e8:e2:57:13:a3:92:e1:b4:ad:50:8b:c5:39:
         f2:6d:8d:8f:b3:cc:a0:76:00:27:10:b4:cc:6b:d9:1d:63:ce:
         46:54:73:6b:ba:e5:a2:59:54:30:4e:0e:75:9f:2f:66:d0:c6:
         3c:e6:b5:37:3b:29:5c:98:ab:33:4b:3c:bd:5c:70:9a:bb:bc:
         e4:7e:3b:c7:85:0a:80:68:07:ee:d8:b9:76:b5:f6:39:17:9e:
         dc:a1:dc:68:3b:05:90:df:f9:65:37:23:37:8b:9e:f5:22:7f:
         fe:0b:74:7b:09:0a:78:2f:3b:a8:94:14:55:b1:36:03:0c:94:
         95:d9:9c:5f:8e:d7:dd:3a:3f:9f:07:a0:42:31:f8:2d:de:1a:
         9f:08:06:bd:72:e7:a9:8f:82:50:e8:fc:cc:ad:51:57:05:c4:
         7e:21:5e:c2:3b:c4:ff:38:a8:72:d3:bd:15:be:dd:b6:50:1a:
         ea:66:21:2c:96:ae:74:df:29:e7:bd:cd:82:1e:67:69:58:d4:
         69:5c:ab:45:e7:f9:57:a9:d3:d2:03:0e:1f:de:e4:a1:38:72:
         6f:02:c8:3e:10:f1:31:81:48:4b:d7:09:0f:09:36:3b:36:5e:
         29:8e:a6:59:53:ac:8c:92:6b:1b:f9:32:13:0f:3c:05:fd:10:
         e5:78:2d:f9:13:5a:02:c0:f6:55:8f:f5:52:86:75:35:33:5a:
         93:76:21:f8:e0:37:fd:47:cc:61:b1:96:89:46:7f:06:96:a8:
         f8:82:d1:71:24:64:f4:fa:2b:84:64:99:ce:1d:88:18:ea:03:
         4d:ef:eb:a4:77:57:78:7d
-----BEGIN CERTIFICATE-----
MIIGrTCCBJWgAwIBAgICHGcwDQYJKoZIhvcNAQEEBQAwgawxCzAJBgNVBAYTAlVT
MQswCQYDVQQIEwJPSDERMA8GA1UEBxMIQ29sdW1idXMxEjAQBgNVBAoTCVZpa2lu
Z1ZQTjEdMBsGA1UECxMUTXlPcmdhbml6YXRpb25hbFVuaXQxFTATBgNVBAMTDFZp
a2luZ1ZQTiBDQTEQMA4GA1UEKRMHRWFzeVJTQTEhMB8GCSqGSIb3DQEJARYSbWVA
bXlob3N0Lm15ZG9tYWluMB4XDTE2MDIyMjIzMzYzNFoXDTI2MDIxOTIzMzYzNFow
HzEdMBsGA1UEAxMUQ2xpZW50MjA4MUNlcnQxMDVmYmUwggIiMA0GCSqGSIb3DQEB
AQUAA4ICDwAwggIKAoICAQDEokHOIjkigcccnNtWudizRXrZkEN7m5cDU6YxaR7b
lAYF/IA7wCPzyERypZYWttbsAd5IjcmEkKuYHGandLwmrTAbP5nw8lJ3F5NOMcOa
rVurFfqiod510u965AESBh6jqg/F4KLwKj8+AHcisDftDz8sf+PLIiM5gDLukBA3
JYY2HlrrkqBPMZryEdHGRTTsN0Xm6R8GrFjSm/jH740n4cWG1DrCIXLKgpigFKfW
NtKWSq8lLjuc9qzt1cHLTkCcuJXCbbB/MqHZ7kTQo40QDRX0ZrlmDCxYURKbIVNb
r2dJoBSpWvQNsT5cCDIXLpANnCFJYzKIptrc7vVGFeBFUCBLxS7RFMN2yD1SVOPA
a1/mBgVtpCtC+5H0mCuAJ99ujgH7YCjhKXe+O2bZKmP3sTcr6EAfuC8ifZXDo4np
rJpRSn7aOjYAOtOLN9LuN+sOASXcZULemlrF8mULpwwS9ChRZgKN9yOVL+ubMHQE
VfTnRA9GwWyWYKmsYA4gmlslpUYbJRM1fPCRE+6IbSEW14xfFFXO2LLEiqVYGh2V
Zl5MI1Bhm822XGVU5FkNzrgkEMevY8LP/1bSBfQSm7YBK/rfqmzdbcLaKhx+3oe8
Tql2OuCoVOhzKPqk8D1IJIAj58zZfhO+cqJV10+BoSBz0u4crnW8pr6In5Edov6H
IQIDAQABo4IBYzCCAV8wCQYDVR0TBAIwADAtBglghkgBhvhCAQ0EIBYeRWFzeS1S
U0EgR2VuZXJhdGVkIENlcnRpZmljYXRlMB0GA1UdDgQWBBRY7zjmeREjNnpkdrWG
0x8twp/cIDCB4QYDVR0jBIHZMIHWgBQSzWAE0qCAnnDtxpm4eyzGUv0ZoaGBsqSB
rzCBrDELMAkGA1UEBhMCVVMxCzAJBgNVBAgTAk9IMREwDwYDVQQHEwhDb2x1bWJ1
czESMBAGA1UEChMJVmlraW5nVlBOMR0wGwYDVQQLExRNeU9yZ2FuaXphdGlvbmFs
VW5pdDEVMBMGA1UEAxMMVmlraW5nVlBOIENBMRAwDgYDVQQpEwdFYXN5UlNBMSEw
HwYJKoZIhvcNAQkBFhJtZUBteWhvc3QubXlkb21haW6CCQDPNYXugL8qPjATBgNV
HSUEDDAKBggrBgEFBQcDAjALBgNVHQ8EBAMCB4AwDQYJKoZIhvcNAQEEBQADggIB
AED6JHEyv8Oj72M0pDXgU8w35Eh4J5FHuYzDgUbh2FIssj8QXO2TUZaOgzpTr6i7
mye9fkcoiOIk/s/g4tn0MZMN7FaJj2Hivp11otnFei6OlX1fostj8bBEVdwJ+RCj
+xU43DOLKLnUT/RJkUGY5Ot0sRraUq6/13/pPcbRxpAd+xVYlufVFcQE+qzYsMUz
paWyZ6T/PyZwsirRd7mnn8z/1Ur+bu49Yi2hMuSYTAst7TUw+SCcXV1K02ONbTOe
1cwzFt5WiTQF6pGE6OJXE6OS4bStUIvFOfJtjY+zzKB2ACcQtMxr2R1jzkZUc2u6
5aJZVDBODnWfL2bQxjzmtTc7KVyYqzNLPL1ccJq7vOR+O8eFCoBoB+7YuXa19jkX
ntyh3Gg7BZDf+WU3IzeLnvUif/4LdHsJCngvO6iUFFWxNgMMlJXZnF+O1906P58H
oEIx+C3eGp8IBr1y56mPglDo/MytUVcFxH4hXsI7xP84qHLTvRW+3bZQGupmISyW
rnTfKee9zYIeZ2lY1Glcq0Xn+Vep09IDDh/e5KE4cm8CyD4Q8TGBSEvXCQ8JNjs2
XimOpllTrIySaxv5MhMPPAX9EOV4LfkTWgLA9lWP9VKGdTUzWpN2IfjgN/1HzGGx
lolGfwaWqPiC0XEkZPT6K4Rkmc4diBjqA03v66R3V3h9
-----END CERTIFICATE-----
