Certificate:
    Data:
        Version: 3 (0x2)
        Serial Number: 3465 (0xd89)
    Signature Algorithm: md5WithRSAEncryption
        Issuer: C=US, ST=OH, L=Columbus, O=VikingVPN, OU=MyOrganizationalUnit, CN=VikingVPN CA/name=EasyRSA/emailAddress=me@myhost.mydomain
        Validity
            Not Before: Nov 22 06:46:07 2014 GMT
            Not After : Nov 19 06:46:07 2024 GMT
        Subject: CN=Client1190Certc18416
        Subject Public Key Info:
            Public Key Algorithm: rsaEncryption
                Public-Key: (4096 bit)
                Modulus:
                    00:d3:12:40:f8:10:a3:2b:90:86:ec:79:60:ce:9d:
                    02:19:b6:66:b4:53:bf:2f:d6:4a:a5:13:57:b4:39:
                    8a:3b:49:08:8c:43:7f:8e:5e:2f:cf:65:39:87:f0:
                    b8:9e:b2:98:92:65:96:2d:f8:c9:c1:7f:8b:fc:a3:
                    a3:17:75:06:2b:1b:05:e5:25:5e:c8:be:62:38:2d:
                    b7:51:0e:ca:29:0e:15:ad:74:f6:d7:bd:65:6e:2f:
                    77:99:0d:f4:1f:67:e4:a6:5e:f4:a3:8b:29:4c:72:
                    a8:fc:a7:2b:75:4a:1d:56:28:8d:de:a2:6b:42:1c:
                    6c:43:0d:06:15:d9:d7:ff:60:a4:e4:f8:f5:7e:3f:
                    ab:cd:67:a8:16:8e:ab:81:78:b1:1e:23:29:7e:2c:
                    e9:64:49:d2:4d:3a:46:c0:e1:04:1d:03:8a:19:da:
                    31:d6:88:7d:26:a5:28:06:c3:e2:35:7b:5d:c9:c5:
                    6e:6e:fe:cf:31:8e:6a:7e:4c:1f:a1:f7:83:37:50:
                    1d:c2:e0:da:38:8e:13:c9:ec:4e:96:aa:03:9e:d8:
                    42:fc:03:3a:e7:a9:a5:4c:f9:df:39:7d:97:9e:ba:
                    10:a5:81:2d:13:d8:8a:f8:4b:1a:3b:4d:a6:e9:f9:
                    89:bb:99:7d:20:36:81:1d:bc:2c:a7:c9:39:96:a6:
                    55:64:87:77:8d:b2:35:da:37:68:d5:3d:61:e7:20:
                    92:bd:d6:9e:3c:3f:cf:9c:77:8a:20:68:37:2d:96:
                    35:1b:88:88:0a:27:70:ed:05:b6:cc:1d:8a:ca:c1:
                    53:67:01:44:2a:df:43:06:8d:22:a5:44:6f:a1:9f:
                    b5:4f:49:9f:38:4c:96:bd:3e:e7:48:f4:8d:93:e9:
                    60:a2:eb:17:bc:7d:4c:0e:74:aa:99:0b:3b:32:cd:
                    93:44:78:0a:6f:ac:e8:fe:00:a1:18:ab:64:68:1d:
                    ca:32:49:f4:b5:b9:94:cf:bb:27:7c:b4:d4:24:bf:
                    13:f6:16:4a:ec:5b:99:26:f1:3b:4a:4a:e9:94:e7:
                    f0:81:5c:1c:a8:12:7c:34:e8:a8:d9:fa:91:a6:56:
                    89:de:55:2d:62:45:1a:5e:c9:a1:38:22:ae:1e:04:
                    8e:ec:cc:f8:b8:63:c2:fd:a4:ab:fa:c4:b2:56:e4:
                    f9:01:30:7c:b0:d1:34:a7:c7:04:18:39:c8:f3:cf:
                    2b:35:4f:b4:29:c5:e8:cf:27:1d:71:4f:bc:79:50:
                    2c:e3:70:90:9f:fe:4b:fd:1b:29:e8:67:59:f4:ce:
                    b3:9c:1c:7e:eb:27:7b:38:f2:05:75:dd:5f:02:6e:
                    2f:2f:2d:c0:9e:c8:a5:80:29:25:cd:8e:fd:0f:43:
                    aa:df:31
                Exponent: 65537 (0x10001)
        X509v3 extensions:
            X509v3 Basic Constraints: 
                CA:FALSE
            Netscape Comment: 
                Easy-RSA Generated Certificate
            X509v3 Subject Key Identifier: 
                2D:68:21:6A:12:BC:1B:6F:69:95:E6:EB:3C:57:8B:AF:7D:0E:88:B3
            X509v3 Authority Key Identifier: 
                keyid:12:CD:60:04:D2:A0:80:9E:70:ED:C6:99:B8:7B:2C:C6:52:FD:19:A1
                DirName:/C=US/ST=OH/L=Columbus/O=VikingVPN/OU=MyOrganizationalUnit/CN=VikingVPN CA/name=EasyRSA/emailAddress=me@myhost.mydomain
                serial:CF:35:85:EE:80:BF:2A:3E

            X509v3 Extended Key Usage: 
                TLS Web Client Authentication
            X509v3 Key Usage: 
                Digital Signature
    Signature Algorithm: md5WithRSAEncryption
         33:3c:c2:01:8e:00:54:1c:ec:ab:74:78:59:9f:f5:2c:ce:9b:
         c7:1a:e2:43:89:62:77:45:e8:8c:03:87:6c:c1:17:d8:b3:d6:
         03:b6:fd:d5:ae:23:1f:c8:89:a8:3c:d2:d9:6e:e4:c2:54:10:
         e9:0f:2d:9b:77:f3:b6:3b:7d:af:94:10:ea:b3:59:82:07:45:
         df:74:64:2b:97:dc:2a:41:13:32:b5:d4:22:33:1b:42:ad:a6:
         dd:05:21:5a:9a:28:56:20:bd:01:56:5a:76:1d:ff:ea:82:c0:
         98:96:75:57:79:33:35:d9:34:50:cb:5f:f6:57:d1:e0:28:b6:
         92:f8:d4:fc:17:a0:71:d6:87:ed:c4:81:74:64:30:f1:9d:ce:
         cd:f0:33:bb:de:a3:2f:42:83:d9:d0:9e:1b:78:86:4e:41:45:
         61:3c:78:44:27:94:57:9b:e6:c7:3c:29:6d:4d:74:31:1b:33:
         5a:b1:91:01:d7:42:51:b4:5d:67:2c:47:2c:79:33:5c:77:cb:
         68:14:94:98:c7:c5:19:28:f1:7e:a7:36:c5:88:2b:cb:73:43:
         95:0e:26:b4:75:ba:dd:ed:dd:17:01:a2:68:ad:5c:fb:ef:a4:
         d7:e5:5d:5d:df:d2:d5:26:bc:60:db:08:28:ef:0b:5f:d9:84:
         e0:96:11:30:0c:09:d4:33:57:fc:48:0b:7f:3b:cb:58:cc:fe:
         22:6f:3e:34:d5:ed:0f:72:ab:ea:2f:86:ed:c8:08:98:86:88:
         1e:c7:e4:41:b8:5b:0a:e9:81:8c:ce:2d:ec:3b:ed:2c:db:db:
         48:0e:23:45:a5:3c:12:2a:98:c2:4f:d0:f2:8b:f2:bc:3c:81:
         67:ee:03:87:dc:14:ae:70:49:0f:b0:47:70:1e:4c:84:5a:5b:
         36:fd:10:cb:b1:52:2f:af:ba:ea:08:90:f2:77:2b:74:bd:83:
         63:8b:15:97:ea:e5:b5:34:fa:53:9a:49:2c:70:55:da:72:59:
         97:6a:ed:3d:0a:63:ca:73:d2:1f:3f:6f:82:5d:0a:1f:ee:12:
         60:7c:6b:54:8b:e7:93:6e:c9:c1:6b:a9:8c:0d:fa:10:53:02:
         3b:35:1a:e4:11:04:eb:e7:82:c7:3d:3b:bb:ad:3f:fd:b9:f7:
         8f:e1:51:b0:ab:ca:ba:eb:ae:10:4d:05:5b:91:35:cf:d5:61:
         8e:53:2b:3d:fb:d5:0a:d3:1e:f4:66:51:46:b5:1a:c4:d7:5d:
         67:41:a4:fd:73:9f:c8:88:63:27:ed:64:0d:3a:44:3a:7a:e8:
         f3:28:ce:1d:88:3f:01:fa:a8:50:bf:9a:e5:d4:1f:8b:12:92:
         59:37:16:d4:29:3b:d1:b2
-----BEGIN CERTIFICATE-----
MIIGrTCCBJWgAwIBAgICDYkwDQYJKoZIhvcNAQEEBQAwgawxCzAJBgNVBAYTAlVT
MQswCQYDVQQIEwJPSDERMA8GA1UEBxMIQ29sdW1idXMxEjAQBgNVBAoTCVZpa2lu
Z1ZQTjEdMBsGA1UECxMUTXlPcmdhbml6YXRpb25hbFVuaXQxFTATBgNVBAMTDFZp
a2luZ1ZQTiBDQTEQMA4GA1UEKRMHRWFzeVJTQTEhMB8GCSqGSIb3DQEJARYSbWVA
bXlob3N0Lm15ZG9tYWluMB4XDTE0MTEyMjA2NDYwN1oXDTI0MTExOTA2NDYwN1ow
HzEdMBsGA1UEAxMUQ2xpZW50MTE5MENlcnRjMTg0MTYwggIiMA0GCSqGSIb3DQEB
AQUAA4ICDwAwggIKAoICAQDTEkD4EKMrkIbseWDOnQIZtma0U78v1kqlE1e0OYo7
SQiMQ3+OXi/PZTmH8LiespiSZZYt+MnBf4v8o6MXdQYrGwXlJV7IvmI4LbdRDsop
DhWtdPbXvWVuL3eZDfQfZ+SmXvSjiylMcqj8pyt1Sh1WKI3eomtCHGxDDQYV2df/
YKTk+PV+P6vNZ6gWjquBeLEeIyl+LOlkSdJNOkbA4QQdA4oZ2jHWiH0mpSgGw+I1
e13JxW5u/s8xjmp+TB+h94M3UB3C4No4jhPJ7E6WqgOe2EL8AzrnqaVM+d85fZee
uhClgS0T2Ir4Sxo7Tabp+Ym7mX0gNoEdvCynyTmWplVkh3eNsjXaN2jVPWHnIJK9
1p48P8+cd4ogaDctljUbiIgKJ3DtBbbMHYrKwVNnAUQq30MGjSKlRG+hn7VPSZ84
TJa9PudI9I2T6WCi6xe8fUwOdKqZCzsyzZNEeApvrOj+AKEYq2RoHcoySfS1uZTP
uyd8tNQkvxP2FkrsW5km8TtKSumU5/CBXByoEnw06KjZ+pGmVoneVS1iRRpeyaE4
Iq4eBI7szPi4Y8L9pKv6xLJW5PkBMHyw0TSnxwQYOcjzzys1T7QpxejPJx1xT7x5
UCzjcJCf/kv9GynoZ1n0zrOcHH7rJ3s48gV13V8Cbi8vLcCeyKWAKSXNjv0PQ6rf
MQIDAQABo4IBYzCCAV8wCQYDVR0TBAIwADAtBglghkgBhvhCAQ0EIBYeRWFzeS1S
U0EgR2VuZXJhdGVkIENlcnRpZmljYXRlMB0GA1UdDgQWBBQtaCFqErwbb2mV5us8
V4uvfQ6IszCB4QYDVR0jBIHZMIHWgBQSzWAE0qCAnnDtxpm4eyzGUv0ZoaGBsqSB
rzCBrDELMAkGA1UEBhMCVVMxCzAJBgNVBAgTAk9IMREwDwYDVQQHEwhDb2x1bWJ1
czESMBAGA1UEChMJVmlraW5nVlBOMR0wGwYDVQQLExRNeU9yZ2FuaXphdGlvbmFs
VW5pdDEVMBMGA1UEAxMMVmlraW5nVlBOIENBMRAwDgYDVQQpEwdFYXN5UlNBMSEw
HwYJKoZIhvcNAQkBFhJtZUBteWhvc3QubXlkb21haW6CCQDPNYXugL8qPjATBgNV
HSUEDDAKBggrBgEFBQcDAjALBgNVHQ8EBAMCB4AwDQYJKoZIhvcNAQEEBQADggIB
ADM8wgGOAFQc7Kt0eFmf9SzOm8ca4kOJYndF6IwDh2zBF9iz1gO2/dWuIx/Iiag8
0tlu5MJUEOkPLZt387Y7fa+UEOqzWYIHRd90ZCuX3CpBEzK11CIzG0Ktpt0FIVqa
KFYgvQFWWnYd/+qCwJiWdVd5MzXZNFDLX/ZX0eAotpL41PwXoHHWh+3EgXRkMPGd
zs3wM7veoy9Cg9nQnht4hk5BRWE8eEQnlFeb5sc8KW1NdDEbM1qxkQHXQlG0XWcs
Ryx5M1x3y2gUlJjHxRko8X6nNsWIK8tzQ5UOJrR1ut3t3RcBomitXPvvpNflXV3f
0tUmvGDbCCjvC1/ZhOCWETAMCdQzV/xIC387y1jM/iJvPjTV7Q9yq+ovhu3ICJiG
iB7H5EG4WwrpgYzOLew77Szb20gOI0WlPBIqmMJP0PKL8rw8gWfuA4fcFK5wSQ+w
R3AeTIRaWzb9EMuxUi+vuuoIkPJ3K3S9g2OLFZfq5bU0+lOaSSxwVdpyWZdq7T0K
Y8pz0h8/b4JdCh/uEmB8a1SL55NuycFrqYwN+hBTAjs1GuQRBOvngsc9O7utP/25
94/hUbCryrrrrhBNBVuRNc/VYY5TKz371QrTHvRmUUa1GsTXXWdBpP1zn8iIYyft
ZA06RDp66PMozh2IPwH6qFC/muXUH4sSklk3FtQpO9Gy
-----END CERTIFICATE-----
