Certificate:
    Data:
        Version: 3 (0x2)
        Serial Number: 6283 (0x188b)
    Signature Algorithm: md5WithRSAEncryption
        Issuer: C=US, ST=OH, L=Columbus, O=VikingVPN, OU=MyOrganizationalUnit, CN=VikingVPN CA/name=EasyRSA/emailAddress=me@myhost.mydomain
        Validity
            Not Before: Sep 16 04:46:26 2015 GMT
            Not After : Sep 13 04:46:26 2025 GMT
        Subject: CN=Client1951Cert2780ea
        Subject Public Key Info:
            Public Key Algorithm: rsaEncryption
                Public-Key: (4096 bit)
                Modulus:
                    00:d0:86:27:49:a0:6b:b6:e1:29:69:7c:20:3b:e7:
                    d1:d4:7b:03:ea:e3:7d:e4:8d:c5:3e:19:07:f7:e5:
                    3b:5f:64:34:e6:76:13:ec:ea:79:04:ed:19:e1:45:
                    bb:a5:2a:3b:2f:71:05:78:77:24:34:19:4a:13:db:
                    bd:82:8f:f5:6a:4a:b7:e2:1d:00:23:79:73:07:ad:
                    34:3f:e1:80:45:bd:ce:87:51:e4:d0:d3:c5:7d:61:
                    b7:6c:7a:79:c5:52:c2:cf:c0:83:a0:89:a6:32:01:
                    22:d6:5a:7b:f5:4a:f5:8d:6a:86:4a:a0:19:8c:7e:
                    08:24:0f:d6:e6:88:f7:6f:13:73:39:27:82:18:cb:
                    2b:56:91:2f:57:7a:35:3b:72:52:9d:ac:f2:ac:c2:
                    9e:1b:2a:a4:4b:36:1a:fe:2b:b7:29:75:af:54:fb:
                    85:1b:18:58:7f:25:77:4b:fa:c1:77:ee:99:b6:db:
                    51:43:42:4f:15:01:f2:95:71:9d:a4:62:ae:10:97:
                    c2:f1:f9:a2:ca:4d:f2:4e:eb:3f:80:7e:fb:5c:a4:
                    df:da:32:4e:71:ae:cc:b2:1c:0e:79:8d:d5:6f:d6:
                    24:58:16:ce:f9:1e:da:7a:05:50:21:e3:b7:f7:00:
                    ec:2c:12:6e:e7:d1:bb:3a:52:cb:9e:8a:71:25:f5:
                    e7:15:43:3b:f2:87:7e:4e:84:71:e8:16:ea:7d:23:
                    99:46:24:5c:83:b3:6a:1a:38:56:d6:93:58:d3:32:
                    f4:a4:d7:5a:fe:99:f6:f2:1e:79:cc:60:2a:f2:f7:
                    fb:f9:ad:6c:26:c1:13:1e:5b:17:df:24:37:ac:58:
                    25:06:3b:91:92:73:1b:a7:0a:4f:2f:80:25:2e:e9:
                    d0:ba:bf:c9:2c:e8:30:ac:9d:fb:84:d0:56:d0:52:
                    c2:ec:ac:47:d5:5a:fd:6d:db:36:b5:7c:a4:78:be:
                    7b:91:d5:ae:18:59:e1:b7:1d:2b:fb:39:99:a1:2c:
                    d7:85:28:67:20:7d:48:57:80:3e:1b:2b:e0:a3:8d:
                    7f:be:dd:8f:24:b8:f7:b8:33:b2:95:2c:0a:37:69:
                    d4:f5:f2:0f:ff:a1:b8:cb:71:83:9e:64:7f:df:82:
                    27:0f:c8:46:8b:27:9e:d4:82:32:3a:3d:0f:d9:ca:
                    c8:cd:0f:9c:56:7a:15:3d:63:e2:9a:5c:04:4e:ea:
                    e0:27:62:39:80:f8:ae:f8:a7:66:c0:69:2f:2f:8c:
                    35:8c:1f:68:a3:a3:c3:0c:db:69:14:ac:2d:23:1f:
                    01:6c:0d:dd:13:f1:5d:f0:b0:7c:7f:d8:79:7e:12:
                    d7:fe:21:14:f6:ca:96:4f:8b:09:0b:96:fe:98:09:
                    af:73:c5
                Exponent: 65537 (0x10001)
        X509v3 extensions:
            X509v3 Basic Constraints: 
                CA:FALSE
            Netscape Comment: 
                Easy-RSA Generated Certificate
            X509v3 Subject Key Identifier: 
                85:C1:92:1E:16:D2:17:C3:D1:D3:3C:D7:38:B5:5E:66:FB:14:1C:ED
            X509v3 Authority Key Identifier: 
                keyid:12:CD:60:04:D2:A0:80:9E:70:ED:C6:99:B8:7B:2C:C6:52:FD:19:A1
                DirName:/C=US/ST=OH/L=Columbus/O=VikingVPN/OU=MyOrganizationalUnit/CN=VikingVPN CA/name=EasyRSA/emailAddress=me@myhost.mydomain
                serial:CF:35:85:EE:80:BF:2A:3E

            X509v3 Extended Key Usage: 
                TLS Web Client Authentication
            X509v3 Key Usage: 
                Digital Signature
    Signature Algorithm: md5WithRSAEncryption
         4a:99:db:f4:04:63:81:d9:3f:d8:ba:8e:2a:95:87:74:f5:05:
         b4:d0:f4:0c:e1:ad:30:01:8f:2b:1d:05:1c:b7:8f:19:ff:1f:
         52:01:a5:23:80:d8:4c:57:37:7f:0d:53:f1:21:37:e2:f6:f2:
         35:65:fb:4b:72:af:c8:18:2a:b8:67:a7:10:97:e4:01:d3:71:
         96:30:f7:98:78:d5:2c:e7:91:cb:5c:e3:73:f2:f2:dd:6d:b5:
         8b:e5:e9:69:ca:e7:f8:ff:42:8a:11:ca:40:29:d3:01:a2:5b:
         03:ab:8f:b7:47:21:97:3f:35:9a:ef:78:19:be:da:d4:6f:53:
         ad:75:24:73:a0:cc:fc:43:d1:35:96:4d:70:1a:fc:f9:8c:5c:
         9e:07:7b:c0:25:88:ba:f0:02:07:61:fb:47:44:2f:f3:fc:22:
         85:92:28:a4:7b:b5:95:7d:1f:b6:b7:eb:27:df:2d:c4:eb:df:
         d2:51:8e:25:fc:8b:dc:bb:d4:e4:7f:c3:e8:7e:9d:76:09:27:
         97:32:60:9f:bf:79:2c:b9:31:cd:a1:5e:c2:9a:33:6b:cd:40:
         c8:8a:d0:c3:7a:7d:14:83:3c:fc:7e:02:0a:0f:a7:ae:ef:b1:
         3e:88:bd:c6:db:b1:90:0f:51:f2:99:c1:5b:72:d1:d3:96:a9:
         ed:48:9e:4f:e5:c1:75:e5:5e:90:65:58:0b:3f:6d:51:46:38:
         2b:57:b0:b9:b4:4f:bb:bd:94:f7:90:86:16:8e:a4:85:06:63:
         32:9a:ae:e3:5c:54:00:d8:ea:3c:82:37:3a:8b:8b:a5:f2:3c:
         cf:38:eb:88:88:83:e0:e4:19:4b:d9:c1:27:77:10:ec:ea:95:
         9f:ee:e7:fd:a6:c7:cc:9e:33:ee:7d:54:6b:6f:4d:dc:57:6d:
         d9:0b:6d:52:c2:e6:80:77:e0:34:b6:4b:5d:7f:4f:3b:1f:e5:
         b1:a4:42:25:6b:39:53:96:e1:89:bf:4b:7b:42:16:4d:9c:17:
         7e:32:aa:42:6c:42:d4:3f:f7:82:56:88:b5:fd:1f:d3:d5:97:
         e6:66:55:33:80:c3:22:74:c8:4a:6b:ee:fb:dc:ee:e6:5e:9b:
         b5:52:38:87:99:84:18:75:70:64:2b:cb:d7:1a:7e:4e:d2:78:
         a4:51:d0:b6:8a:68:10:84:13:39:20:a3:de:8b:e1:b5:84:00:
         8a:ea:5d:3e:1b:e2:f5:fd:a4:34:45:34:db:5e:27:af:bd:34:
         65:3f:95:6d:dd:12:cc:8a:64:98:e3:71:c0:cb:a8:e1:3f:36:
         b2:5e:8f:84:34:ee:2b:c3:fa:53:52:02:3a:f4:67:ec:91:12:
         94:5c:12:4c:5e:12:81:18
-----BEGIN CERTIFICATE-----
MIIGrTCCBJWgAwIBAgICGIswDQYJKoZIhvcNAQEEBQAwgawxCzAJBgNVBAYTAlVT
MQswCQYDVQQIEwJPSDERMA8GA1UEBxMIQ29sdW1idXMxEjAQBgNVBAoTCVZpa2lu
Z1ZQTjEdMBsGA1UECxMUTXlPcmdhbml6YXRpb25hbFVuaXQxFTATBgNVBAMTDFZp
a2luZ1ZQTiBDQTEQMA4GA1UEKRMHRWFzeVJTQTEhMB8GCSqGSIb3DQEJARYSbWVA
bXlob3N0Lm15ZG9tYWluMB4XDTE1MDkxNjA0NDYyNloXDTI1MDkxMzA0NDYyNlow
HzEdMBsGA1UEAxMUQ2xpZW50MTk1MUNlcnQyNzgwZWEwggIiMA0GCSqGSIb3DQEB
AQUAA4ICDwAwggIKAoICAQDQhidJoGu24SlpfCA759HUewPq433kjcU+GQf35Ttf
ZDTmdhPs6nkE7RnhRbulKjsvcQV4dyQ0GUoT272Cj/VqSrfiHQAjeXMHrTQ/4YBF
vc6HUeTQ08V9YbdsennFUsLPwIOgiaYyASLWWnv1SvWNaoZKoBmMfggkD9bmiPdv
E3M5J4IYyytWkS9XejU7clKdrPKswp4bKqRLNhr+K7cpda9U+4UbGFh/JXdL+sF3
7pm221FDQk8VAfKVcZ2kYq4Ql8Lx+aLKTfJO6z+AfvtcpN/aMk5xrsyyHA55jdVv
1iRYFs75Htp6BVAh47f3AOwsEm7n0bs6UsueinEl9ecVQzvyh35OhHHoFup9I5lG
JFyDs2oaOFbWk1jTMvSk11r+mfbyHnnMYCry9/v5rWwmwRMeWxffJDesWCUGO5GS
cxunCk8vgCUu6dC6v8ks6DCsnfuE0FbQUsLsrEfVWv1t2za1fKR4vnuR1a4YWeG3
HSv7OZmhLNeFKGcgfUhXgD4bK+CjjX++3Y8kuPe4M7KVLAo3adT18g//objLcYOe
ZH/fgicPyEaLJ57UgjI6PQ/ZysjND5xWehU9Y+KaXARO6uAnYjmA+K74p2bAaS8v
jDWMH2ijo8MM22kUrC0jHwFsDd0T8V3wsHx/2Hl+Etf+IRT2ypZPiwkLlv6YCa9z
xQIDAQABo4IBYzCCAV8wCQYDVR0TBAIwADAtBglghkgBhvhCAQ0EIBYeRWFzeS1S
U0EgR2VuZXJhdGVkIENlcnRpZmljYXRlMB0GA1UdDgQWBBSFwZIeFtIXw9HTPNc4
tV5m+xQc7TCB4QYDVR0jBIHZMIHWgBQSzWAE0qCAnnDtxpm4eyzGUv0ZoaGBsqSB
rzCBrDELMAkGA1UEBhMCVVMxCzAJBgNVBAgTAk9IMREwDwYDVQQHEwhDb2x1bWJ1
czESMBAGA1UEChMJVmlraW5nVlBOMR0wGwYDVQQLExRNeU9yZ2FuaXphdGlvbmFs
VW5pdDEVMBMGA1UEAxMMVmlraW5nVlBOIENBMRAwDgYDVQQpEwdFYXN5UlNBMSEw
HwYJKoZIhvcNAQkBFhJtZUBteWhvc3QubXlkb21haW6CCQDPNYXugL8qPjATBgNV
HSUEDDAKBggrBgEFBQcDAjALBgNVHQ8EBAMCB4AwDQYJKoZIhvcNAQEEBQADggIB
AEqZ2/QEY4HZP9i6jiqVh3T1BbTQ9AzhrTABjysdBRy3jxn/H1IBpSOA2ExXN38N
U/EhN+L28jVl+0tyr8gYKrhnpxCX5AHTcZYw95h41Sznkctc43Py8t1ttYvl6WnK
5/j/QooRykAp0wGiWwOrj7dHIZc/NZrveBm+2tRvU611JHOgzPxD0TWWTXAa/PmM
XJ4He8AliLrwAgdh+0dEL/P8IoWSKKR7tZV9H7a36yffLcTr39JRjiX8i9y71OR/
w+h+nXYJJ5cyYJ+/eSy5Mc2hXsKaM2vNQMiK0MN6fRSDPPx+AgoPp67vsT6Ivcbb
sZAPUfKZwVty0dOWqe1Ink/lwXXlXpBlWAs/bVFGOCtXsLm0T7u9lPeQhhaOpIUG
YzKaruNcVADY6jyCNzqLi6XyPM8464iIg+DkGUvZwSd3EOzqlZ/u5/2mx8yeM+59
VGtvTdxXbdkLbVLC5oB34DS2S11/Tzsf5bGkQiVrOVOW4Ym/S3tCFk2cF34yqkJs
QtQ/94JWiLX9H9PVl+ZmVTOAwyJ0yEpr7vvc7uZem7VSOIeZhBh1cGQry9cafk7S
eKRR0LaKaBCEEzkgo96L4bWEAIrqXT4b4vX9pDRFNNteJ6+9NGU/lW3dEsyKZJjj
ccDLqOE/NrJej4Q07ivD+lNSAjr0Z+yREpRcEkxeEoEY
-----END CERTIFICATE-----
