Certificate:
    Data:
        Version: 3 (0x2)
        Serial Number: 5583 (0x15cf)
    Signature Algorithm: md5WithRSAEncryption
        Issuer: C=US, ST=OH, L=Columbus, O=VikingVPN, OU=MyOrganizationalUnit, CN=VikingVPN CA/name=EasyRSA/emailAddress=me@myhost.mydomain
        Validity
            Not Before: Jun 18 21:54:33 2015 GMT
            Not After : Jun 15 21:54:33 2025 GMT
        Subject: CN=Client1266Certc76c1a
        Subject Public Key Info:
            Public Key Algorithm: rsaEncryption
                Public-Key: (4096 bit)
                Modulus:
                    00:b1:bf:f7:65:c8:7f:1f:56:10:5b:1f:d8:c8:16:
                    74:4e:48:f5:15:57:05:e3:ec:49:62:e6:1f:e2:5c:
                    8a:78:c1:f9:5a:e1:34:9e:89:3e:38:2e:b0:b4:fd:
                    da:34:88:46:7f:b8:4e:88:84:5d:ab:f1:cd:0a:be:
                    d5:f5:a2:a5:88:6d:b3:03:b2:37:e3:bf:3c:ff:49:
                    7b:95:e1:3f:f5:0b:51:9d:60:a5:1f:0c:a5:ec:6a:
                    8a:8b:63:a9:c6:cd:ea:c8:ba:2f:95:6c:41:bf:9f:
                    83:40:24:e4:fd:63:c2:c0:e8:70:c8:1e:da:98:7d:
                    2f:3b:e1:f3:83:92:84:5a:db:c7:60:f2:c8:7e:17:
                    ca:a7:db:65:ad:8f:7a:25:96:25:99:64:5f:62:72:
                    68:1e:80:dc:8b:bf:d5:59:ca:fa:81:bd:72:3e:1d:
                    1a:a1:a4:a0:3b:74:c2:45:ce:57:bf:e1:b2:b2:8e:
                    00:41:5a:45:bc:bd:ea:b3:55:22:04:89:05:22:66:
                    f7:46:c2:6a:a9:09:6d:b8:df:14:33:f9:42:9d:5d:
                    17:50:77:4c:6f:1a:ab:f7:7b:0d:75:aa:ef:cc:5d:
                    d8:be:11:94:81:d4:a4:61:12:31:36:dc:47:ba:04:
                    e7:da:62:55:d7:3d:b9:c9:83:f2:b8:f9:1f:f5:9d:
                    61:85:c5:d4:e6:61:70:83:95:3f:9b:31:90:34:14:
                    dc:c6:53:b8:0e:11:a3:a5:fc:30:b6:d3:77:29:d2:
                    8c:6e:38:91:28:8f:e7:5e:92:cf:fb:e0:d4:ae:80:
                    ac:cb:c7:f4:f8:02:12:23:b1:c0:66:e0:c6:23:ec:
                    cb:77:a2:fe:bf:13:a1:aa:29:23:d7:84:61:57:74:
                    f4:1e:ef:05:d2:53:ae:b9:4c:6d:be:c3:4b:82:f0:
                    e0:31:51:4b:f6:09:51:5d:df:6d:84:3d:d9:e2:6c:
                    3c:ab:19:70:b3:49:3b:54:3b:e7:75:63:e0:4b:38:
                    9a:9b:25:dd:8a:9c:62:7a:df:14:7c:5e:1e:a4:f3:
                    23:53:32:33:2d:33:97:d4:39:38:7c:bc:a2:cf:60:
                    39:d7:75:2a:b3:4a:d4:54:41:69:8b:b6:2b:ba:c2:
                    03:10:8d:54:0c:c1:f6:e6:e9:d1:ad:79:c7:2b:4f:
                    17:54:9c:1b:d2:56:14:bc:04:98:c1:52:17:fc:43:
                    d9:48:66:7e:1a:08:c6:f4:34:31:7a:c9:63:24:e4:
                    89:24:2d:0d:61:82:c8:03:28:26:9d:db:be:2d:a4:
                    ea:0b:17:db:ea:42:4d:19:0a:da:f8:a4:05:10:59:
                    cc:b7:01:10:1c:ae:18:43:b3:8b:6c:e0:c1:f7:69:
                    86:0f:b9
                Exponent: 65537 (0x10001)
        X509v3 extensions:
            X509v3 Basic Constraints: 
                CA:FALSE
            Netscape Comment: 
                Easy-RSA Generated Certificate
            X509v3 Subject Key Identifier: 
                9C:BA:FD:B0:CF:B8:ED:93:B9:D5:5E:A7:B0:7B:87:25:2F:48:B6:C5
            X509v3 Authority Key Identifier: 
                keyid:12:CD:60:04:D2:A0:80:9E:70:ED:C6:99:B8:7B:2C:C6:52:FD:19:A1
                DirName:/C=US/ST=OH/L=Columbus/O=VikingVPN/OU=MyOrganizationalUnit/CN=VikingVPN CA/name=EasyRSA/emailAddress=me@myhost.mydomain
                serial:CF:35:85:EE:80:BF:2A:3E

            X509v3 Extended Key Usage: 
                TLS Web Client Authentication
            X509v3 Key Usage: 
                Digital Signature
    Signature Algorithm: md5WithRSAEncryption
         39:35:e8:ea:5f:45:db:4d:2b:a4:3d:4e:08:e7:15:d0:66:7a:
         89:68:66:5e:03:76:fc:7f:b7:aa:4c:43:0c:ca:5c:f9:db:ac:
         31:51:1b:55:0d:33:12:d7:66:d5:3b:dc:70:a4:60:37:f4:cd:
         9e:6a:f3:10:04:44:c5:d0:ab:5e:fd:af:df:58:0e:fa:cc:e1:
         c4:69:94:f1:4f:61:54:18:fc:a9:99:ea:e0:87:69:15:1f:7a:
         c0:5f:57:ab:10:11:3f:e0:d0:09:60:c5:34:0a:73:73:1f:44:
         1a:d4:d0:0e:73:51:07:1e:20:8b:97:91:c7:8c:68:51:98:a2:
         77:89:d6:b1:f4:30:a6:e9:90:1d:4f:e7:e5:fe:40:f8:a5:65:
         3a:48:72:2c:c2:f5:8b:b2:c1:50:10:4e:84:a2:e8:4e:e6:ef:
         0b:de:83:1c:9a:d0:01:b9:55:b2:7a:48:6c:4c:8b:a2:c9:53:
         ed:90:10:ab:bc:78:b3:df:dc:2f:09:fb:23:cf:fe:c5:ba:b2:
         9d:f5:a7:20:50:30:df:0f:72:51:04:8b:0a:72:e9:9f:dd:71:
         e4:10:6d:8d:f4:8f:a1:75:5e:7a:54:47:57:e3:fd:84:9c:40:
         32:39:06:25:92:60:c0:3e:20:67:c4:61:65:b1:43:b2:f8:47:
         f8:93:56:36:d1:e5:e7:6c:57:e2:68:96:4c:bf:13:bf:db:a1:
         80:ad:2e:1a:13:6c:31:6a:b8:5b:c6:b3:14:2e:76:19:41:66:
         91:a1:a1:0b:b8:b9:e7:d8:9b:dd:b4:a3:46:70:4b:e6:ca:2c:
         f7:38:04:1f:38:1b:1c:a8:d5:e4:73:6d:dd:ae:93:cc:27:ae:
         de:5d:2a:b4:15:b7:5b:63:7c:09:ff:fe:c0:cc:7b:ce:55:56:
         fa:c9:1a:61:dc:e2:a6:12:8d:e8:b1:41:92:c0:e4:4d:48:37:
         cc:31:15:69:8c:77:5c:12:a6:01:9c:0b:74:27:3b:fa:45:ac:
         65:4b:03:97:9d:18:10:f2:df:e3:cb:bc:6e:4e:35:65:4d:95:
         41:4c:93:fc:ff:9d:94:c2:44:e2:d6:aa:49:b9:91:d4:de:7a:
         c5:6d:17:84:4e:26:bc:7e:11:9f:b9:1e:d7:53:df:17:56:02:
         26:31:6d:44:38:e6:12:07:b0:6c:f2:0e:57:f7:b3:4d:8c:59:
         ba:35:40:0c:ff:51:41:1b:13:18:84:aa:50:71:3f:a7:81:3c:
         52:89:41:ad:3c:e5:87:40:58:38:e0:ba:7a:48:1c:97:e0:11:
         c6:af:9c:cf:43:2d:7c:bf:23:7b:fd:56:40:9a:18:17:81:7a:
         9e:22:a1:aa:28:f6:9b:f6
-----BEGIN CERTIFICATE-----
MIIGrTCCBJWgAwIBAgICFc8wDQYJKoZIhvcNAQEEBQAwgawxCzAJBgNVBAYTAlVT
MQswCQYDVQQIEwJPSDERMA8GA1UEBxMIQ29sdW1idXMxEjAQBgNVBAoTCVZpa2lu
Z1ZQTjEdMBsGA1UECxMUTXlPcmdhbml6YXRpb25hbFVuaXQxFTATBgNVBAMTDFZp
a2luZ1ZQTiBDQTEQMA4GA1UEKRMHRWFzeVJTQTEhMB8GCSqGSIb3DQEJARYSbWVA
bXlob3N0Lm15ZG9tYWluMB4XDTE1MDYxODIxNTQzM1oXDTI1MDYxNTIxNTQzM1ow
HzEdMBsGA1UEAxMUQ2xpZW50MTI2NkNlcnRjNzZjMWEwggIiMA0GCSqGSIb3DQEB
AQUAA4ICDwAwggIKAoICAQCxv/dlyH8fVhBbH9jIFnROSPUVVwXj7Eli5h/iXIp4
wfla4TSeiT44LrC0/do0iEZ/uE6IhF2r8c0KvtX1oqWIbbMDsjfjvzz/SXuV4T/1
C1GdYKUfDKXsaoqLY6nGzerIui+VbEG/n4NAJOT9Y8LA6HDIHtqYfS874fODkoRa
28dg8sh+F8qn22Wtj3olliWZZF9icmgegNyLv9VZyvqBvXI+HRqhpKA7dMJFzle/
4bKyjgBBWkW8veqzVSIEiQUiZvdGwmqpCW243xQz+UKdXRdQd0xvGqv3ew11qu/M
Xdi+EZSB1KRhEjE23Ee6BOfaYlXXPbnJg/K4+R/1nWGFxdTmYXCDlT+bMZA0FNzG
U7gOEaOl/DC203cp0oxuOJEoj+deks/74NSugKzLx/T4AhIjscBm4MYj7Mt3ov6/
E6GqKSPXhGFXdPQe7wXSU665TG2+w0uC8OAxUUv2CVFd322EPdnibDyrGXCzSTtU
O+d1Y+BLOJqbJd2KnGJ63xR8Xh6k8yNTMjMtM5fUOTh8vKLPYDnXdSqzStRUQWmL
tiu6wgMQjVQMwfbm6dGteccrTxdUnBvSVhS8BJjBUhf8Q9lIZn4aCMb0NDF6yWMk
5IkkLQ1hgsgDKCad274tpOoLF9vqQk0ZCtr4pAUQWcy3ARAcrhhDs4ts4MH3aYYP
uQIDAQABo4IBYzCCAV8wCQYDVR0TBAIwADAtBglghkgBhvhCAQ0EIBYeRWFzeS1S
U0EgR2VuZXJhdGVkIENlcnRpZmljYXRlMB0GA1UdDgQWBBScuv2wz7jtk7nVXqew
e4clL0i2xTCB4QYDVR0jBIHZMIHWgBQSzWAE0qCAnnDtxpm4eyzGUv0ZoaGBsqSB
rzCBrDELMAkGA1UEBhMCVVMxCzAJBgNVBAgTAk9IMREwDwYDVQQHEwhDb2x1bWJ1
czESMBAGA1UEChMJVmlraW5nVlBOMR0wGwYDVQQLExRNeU9yZ2FuaXphdGlvbmFs
VW5pdDEVMBMGA1UEAxMMVmlraW5nVlBOIENBMRAwDgYDVQQpEwdFYXN5UlNBMSEw
HwYJKoZIhvcNAQkBFhJtZUBteWhvc3QubXlkb21haW6CCQDPNYXugL8qPjATBgNV
HSUEDDAKBggrBgEFBQcDAjALBgNVHQ8EBAMCB4AwDQYJKoZIhvcNAQEEBQADggIB
ADk16OpfRdtNK6Q9TgjnFdBmeoloZl4Ddvx/t6pMQwzKXPnbrDFRG1UNMxLXZtU7
3HCkYDf0zZ5q8xAERMXQq179r99YDvrM4cRplPFPYVQY/KmZ6uCHaRUfesBfV6sQ
ET/g0AlgxTQKc3MfRBrU0A5zUQceIIuXkceMaFGYoneJ1rH0MKbpkB1P5+X+QPil
ZTpIcizC9YuywVAQToSi6E7m7wvegxya0AG5VbJ6SGxMi6LJU+2QEKu8eLPf3C8J
+yPP/sW6sp31pyBQMN8PclEEiwpy6Z/dceQQbY30j6F1XnpUR1fj/YScQDI5BiWS
YMA+IGfEYWWxQ7L4R/iTVjbR5edsV+Jolky/E7/boYCtLhoTbDFquFvGsxQudhlB
ZpGhoQu4uefYm920o0ZwS+bKLPc4BB84Gxyo1eRzbd2uk8wnrt5dKrQVt1tjfAn/
/sDMe85VVvrJGmHc4qYSjeixQZLA5E1IN8wxFWmMd1wSpgGcC3QnO/pFrGVLA5ed
GBDy3+PLvG5ONWVNlUFMk/z/nZTCROLWqkm5kdTeesVtF4ROJrx+EZ+5HtdT3xdW
AiYxbUQ45hIHsGzyDlf3s02MWbo1QAz/UUEbExiEqlBxP6eBPFKJQa085YdAWDjg
unpIHJfgEcavnM9DLXy/I3v9VkCaGBeBep4ioaoo9pv2
-----END CERTIFICATE-----
