Certificate:
    Data:
        Version: 3 (0x2)
        Serial Number: 12525 (0x30ed)
    Signature Algorithm: sha256WithRSAEncryption
        Issuer: C=US, ST=OH, L=Columbus, O=VikingVPN, OU=MyOrganizationalUnit, CN=VikingVPN CA/name=EasyRSA/emailAddress=me@myhost.mydomain
        Validity
            Not Before: Feb  6 05:25:35 2018 GMT
            Not After : Feb  4 05:25:35 2028 GMT
        Subject: CN=Client340Cert68fa16
        Subject Public Key Info:
            Public Key Algorithm: rsaEncryption
                Public-Key: (4096 bit)
                Modulus:
                    00:df:d7:cf:4b:29:1f:34:f4:dd:f2:42:de:16:f5:
                    4a:a8:34:e5:2a:d6:8d:8e:17:b5:cc:69:33:77:0c:
                    a4:bb:72:b5:6d:10:8b:5f:00:8c:c3:2d:57:96:16:
                    da:23:28:ed:99:3b:8b:06:55:99:ff:e6:c3:61:dd:
                    ad:d4:b8:b1:5d:03:50:af:1f:a4:6d:0f:6f:f0:3d:
                    65:ad:e5:ea:e5:41:9e:bb:92:cd:cf:cd:fd:d8:29:
                    5d:f5:02:f1:ff:74:35:cc:0d:8f:df:df:91:22:61:
                    1e:6c:11:06:b9:27:12:8e:2a:c7:6c:8f:8f:ba:47:
                    72:12:4c:63:e6:ed:96:30:78:74:99:44:4f:5a:d4:
                    ea:7d:0c:3f:05:3d:41:08:e0:31:b5:fc:d9:ab:5f:
                    8c:dd:3f:3b:ef:17:b1:63:79:d8:a7:16:eb:53:bb:
                    46:47:e6:26:f5:53:6e:b4:6c:eb:36:a9:0d:b5:de:
                    e4:14:7d:a5:ca:81:2b:fc:8b:ea:aa:0b:56:d1:87:
                    9d:93:b4:92:37:43:76:f1:9a:95:ca:64:b3:e6:27:
                    31:cf:4a:ab:c4:e1:7d:2b:28:ed:5d:57:4a:8d:35:
                    51:18:9a:f8:be:a8:a5:b9:94:a4:ec:ce:6a:60:68:
                    f8:9f:d8:bc:ec:39:0c:29:27:70:c9:1d:54:d4:da:
                    74:9e:7a:28:1f:71:b8:09:52:db:77:2d:94:8a:7e:
                    a4:f8:cb:a9:f7:60:68:3c:a5:70:f7:72:4e:d9:bc:
                    09:62:6a:f0:84:f1:42:8c:53:c4:e4:ba:d6:ec:81:
                    6a:b5:32:97:a8:a3:b6:2b:8d:cf:2e:64:53:de:01:
                    08:96:e7:5e:ca:84:77:1c:8f:95:85:88:eb:8e:b1:
                    ad:ce:1b:0a:dd:c0:42:40:c9:f9:8d:1d:06:bb:ac:
                    8d:85:c2:66:01:3b:1b:b9:b6:76:24:9a:0d:35:ea:
                    31:9a:23:7d:08:42:6b:ca:6e:09:b1:0c:ee:61:ae:
                    f4:6f:b0:d7:ee:a7:8c:a0:ef:74:a5:4d:be:18:8d:
                    9c:0c:bc:be:cf:04:2e:73:4a:9f:ab:42:0d:e8:57:
                    83:d9:54:75:24:a6:02:93:8f:20:0d:95:0e:f0:d5:
                    7c:cf:53:4e:4d:97:04:f1:c3:7c:e2:21:b7:3c:66:
                    b2:4b:ed:68:32:b9:cb:41:23:3a:63:f0:e0:97:3e:
                    7e:61:0e:13:51:c3:df:36:8b:e1:65:4f:a0:46:fd:
                    84:42:40:46:e6:43:dd:b1:e8:a5:a3:d3:79:2d:7f:
                    b4:42:41:6f:9d:f9:6a:29:05:28:0d:bc:5f:6d:00:
                    77:72:21:2c:bf:dc:d4:fb:ea:ea:70:93:41:09:ec:
                    84:0f:ed
                Exponent: 65537 (0x10001)
        X509v3 extensions:
            X509v3 Basic Constraints: 
                CA:FALSE
            Netscape Comment: 
                Easy-RSA Generated Certificate
            X509v3 Subject Key Identifier: 
                9C:C7:E1:D8:CF:F9:8A:6E:97:0E:A3:13:EC:0D:B4:7B:7D:7E:CC:87
            X509v3 Authority Key Identifier: 
                keyid:12:CD:60:04:D2:A0:80:9E:70:ED:C6:99:B8:7B:2C:C6:52:FD:19:A1
                DirName:/C=US/ST=OH/L=Columbus/O=VikingVPN/OU=MyOrganizationalUnit/CN=VikingVPN CA/name=EasyRSA/emailAddress=me@myhost.mydomain
                serial:CF:35:85:EE:80:BF:2A:3E

            X509v3 Extended Key Usage: 
                TLS Web Client Authentication
            X509v3 Key Usage: 
                Digital Signature
    Signature Algorithm: sha256WithRSAEncryption
         89:5a:62:74:8c:34:c9:8c:e7:e5:bd:67:5e:ca:2b:6b:3a:66:
         74:58:7b:d3:9c:a7:62:3b:8d:d8:27:b8:a7:9e:2d:95:58:49:
         1f:9b:2b:e0:de:04:1c:97:79:15:a8:a3:0e:39:0c:d5:4d:52:
         e1:b6:9d:46:85:ce:f7:5a:ae:c8:83:7d:19:08:28:34:9f:63:
         da:df:48:9b:a4:f2:13:b1:1e:1c:42:c8:0c:8c:9b:83:f8:cc:
         72:a2:3d:f6:92:1a:8a:bf:f7:09:6e:0b:e3:d2:5e:b3:ee:7f:
         6d:1c:1b:cb:25:d6:54:3b:29:df:97:01:88:7e:26:59:60:88:
         ed:6d:db:6b:46:cf:f7:30:78:2b:92:6f:f1:86:a8:0c:c3:33:
         3f:01:d3:d3:2b:5c:61:9f:63:7b:fb:c7:de:e7:40:5a:e3:53:
         48:38:1e:13:ca:e1:87:93:28:b7:2a:30:4f:34:81:c4:c1:70:
         35:2d:d7:17:80:e7:50:c6:a6:96:43:64:80:ec:17:bf:89:d4:
         eb:51:6c:75:fb:28:7a:1f:fe:c4:0e:fd:02:f1:80:24:55:7c:
         f8:56:36:c6:7b:aa:e3:4c:77:cc:21:98:56:2e:7c:10:51:84:
         fe:4b:de:63:bb:43:49:d1:b9:47:1b:56:3d:e7:94:bc:fb:1b:
         a9:55:1d:6e:6c:5e:72:8e:89:9a:1b:79:1e:59:0e:31:22:bd:
         52:3d:2f:71:f0:02:7d:fd:9e:4f:a9:12:56:72:86:92:83:1a:
         1f:8f:d0:c7:7f:50:19:f3:96:20:d2:b6:90:eb:3a:d2:b0:cb:
         c9:52:89:5c:e4:18:08:f1:6d:1a:ab:0d:e7:ca:11:a1:e1:4e:
         80:75:92:91:15:cc:8f:d4:b9:73:a9:f6:d8:59:b6:92:e9:fb:
         05:0a:af:a7:49:5d:4e:29:41:71:db:99:03:ba:95:6e:b6:fc:
         94:7e:ad:9f:f2:3c:0a:88:ee:e7:1c:31:ab:19:be:b8:4d:8d:
         39:4a:1a:7b:85:f3:38:1e:bb:b1:95:4b:16:10:49:4f:19:ea:
         cc:2a:2c:34:20:58:fc:b5:6b:41:e9:7e:25:90:a2:05:36:f5:
         7c:40:5a:71:63:0f:d0:f1:d6:49:0a:9e:ef:38:d2:43:fe:27:
         44:6e:5b:fa:3b:6f:45:da:47:1d:0e:42:67:ea:c0:b4:1e:6f:
         2a:46:87:a6:4e:81:64:49:14:ae:78:e6:26:c9:16:13:00:9b:
         29:2d:15:a4:7f:cc:67:d0:72:21:a2:cc:78:5f:6e:3e:8c:0e:
         6d:3a:d5:c9:43:2b:98:5e:3b:34:07:85:e3:2a:c3:3a:c1:2a:
         62:45:2b:55:a6:ce:08:e3
-----BEGIN CERTIFICATE-----
MIIGrDCCBJSgAwIBAgICMO0wDQYJKoZIhvcNAQELBQAwgawxCzAJBgNVBAYTAlVT
MQswCQYDVQQIEwJPSDERMA8GA1UEBxMIQ29sdW1idXMxEjAQBgNVBAoTCVZpa2lu
Z1ZQTjEdMBsGA1UECxMUTXlPcmdhbml6YXRpb25hbFVuaXQxFTATBgNVBAMTDFZp
a2luZ1ZQTiBDQTEQMA4GA1UEKRMHRWFzeVJTQTEhMB8GCSqGSIb3DQEJARYSbWVA
bXlob3N0Lm15ZG9tYWluMB4XDTE4MDIwNjA1MjUzNVoXDTI4MDIwNDA1MjUzNVow
HjEcMBoGA1UEAxMTQ2xpZW50MzQwQ2VydDY4ZmExNjCCAiIwDQYJKoZIhvcNAQEB
BQADggIPADCCAgoCggIBAN/Xz0spHzT03fJC3hb1Sqg05SrWjY4XtcxpM3cMpLty
tW0Qi18AjMMtV5YW2iMo7Zk7iwZVmf/mw2HdrdS4sV0DUK8fpG0Pb/A9Za3l6uVB
nruSzc/N/dgpXfUC8f90NcwNj9/fkSJhHmwRBrknEo4qx2yPj7pHchJMY+btljB4
dJlET1rU6n0MPwU9QQjgMbX82atfjN0/O+8XsWN52KcW61O7RkfmJvVTbrRs6zap
DbXe5BR9pcqBK/yL6qoLVtGHnZO0kjdDdvGalcpks+YnMc9Kq8ThfSso7V1XSo01
URia+L6opbmUpOzOamBo+J/YvOw5DCkncMkdVNTadJ56KB9xuAlS23ctlIp+pPjL
qfdgaDylcPdyTtm8CWJq8ITxQoxTxOS61uyBarUyl6ijtiuNzy5kU94BCJbnXsqE
dxyPlYWI646xrc4bCt3AQkDJ+Y0dBrusjYXCZgE7G7m2diSaDTXqMZojfQhCa8pu
CbEM7mGu9G+w1+6njKDvdKVNvhiNnAy8vs8ELnNKn6tCDehXg9lUdSSmApOPIA2V
DvDVfM9TTk2XBPHDfOIhtzxmskvtaDK5y0EjOmPw4Jc+fmEOE1HD3zaL4WVPoEb9
hEJARuZD3bHopaPTeS1/tEJBb535aikFKA28X20Ad3IhLL/c1Pvq6nCTQQnshA/t
AgMBAAGjggFjMIIBXzAJBgNVHRMEAjAAMC0GCWCGSAGG+EIBDQQgFh5FYXN5LVJT
QSBHZW5lcmF0ZWQgQ2VydGlmaWNhdGUwHQYDVR0OBBYEFJzH4djP+Ypulw6jE+wN
tHt9fsyHMIHhBgNVHSMEgdkwgdaAFBLNYATSoICecO3Gmbh7LMZS/RmhoYGypIGv
MIGsMQswCQYDVQQGEwJVUzELMAkGA1UECBMCT0gxETAPBgNVBAcTCENvbHVtYnVz
MRIwEAYDVQQKEwlWaWtpbmdWUE4xHTAbBgNVBAsTFE15T3JnYW5pemF0aW9uYWxV
bml0MRUwEwYDVQQDEwxWaWtpbmdWUE4gQ0ExEDAOBgNVBCkTB0Vhc3lSU0ExITAf
BgkqhkiG9w0BCQEWEm1lQG15aG9zdC5teWRvbWFpboIJAM81he6Avyo+MBMGA1Ud
JQQMMAoGCCsGAQUFBwMCMAsGA1UdDwQEAwIHgDANBgkqhkiG9w0BAQsFAAOCAgEA
iVpidIw0yYzn5b1nXsorazpmdFh705ynYjuN2Ce4p54tlVhJH5sr4N4EHJd5Faij
DjkM1U1S4badRoXO91quyIN9GQgoNJ9j2t9Im6TyE7EeHELIDIybg/jMcqI99pIa
ir/3CW4L49Jes+5/bRwbyyXWVDsp35cBiH4mWWCI7W3ba0bP9zB4K5Jv8YaoDMMz
PwHT0ytcYZ9je/vH3udAWuNTSDgeE8rhh5MotyowTzSBxMFwNS3XF4DnUMamlkNk
gOwXv4nU61Fsdfsoeh/+xA79AvGAJFV8+FY2xnuq40x3zCGYVi58EFGE/kveY7tD
SdG5RxtWPeeUvPsbqVUdbmxeco6Jmht5HlkOMSK9Uj0vcfACff2eT6kSVnKGkoMa
H4/Qx39QGfOWINK2kOs60rDLyVKJXOQYCPFtGqsN58oRoeFOgHWSkRXMj9S5c6n2
2Fm2kun7BQqvp0ldTilBcduZA7qVbrb8lH6tn/I8Coju5xwxqxm+uE2NOUoae4Xz
OB67sZVLFhBJTxnqzCosNCBY/LVrQel+JZCiBTb1fEBacWMP0PHWSQqe7zjSQ/4n
RG5b+jtvRdpHHQ5CZ+rAtB5vKkaHpk6BZEkUrnjmJskWEwCbKS0VpH/MZ9ByIaLM
eF9uPowObTrVyUMrmF47NAeF4yrDOsEqYkUrVabOCOM=
-----END CERTIFICATE-----
