Certificate:
    Data:
        Version: 3 (0x2)
        Serial Number: 2303 (0x8ff)
    Signature Algorithm: md5WithRSAEncryption
        Issuer: C=US, ST=OH, L=Columbus, O=VikingVPN, OU=MyOrganizationalUnit, CN=VikingVPN CA/name=EasyRSA/emailAddress=me@myhost.mydomain
        Validity
            Not Before: Jul 16 20:57:26 2014 GMT
            Not After : Jul 13 20:57:26 2024 GMT
        Subject: CN=Client327Cert62b606
        Subject Public Key Info:
            Public Key Algorithm: rsaEncryption
                Public-Key: (4096 bit)
                Modulus:
                    00:e7:17:c9:f9:5b:1a:45:bb:e3:ea:17:51:db:82:
                    9f:b8:e9:b4:16:8e:02:09:f9:a4:ad:82:c8:9a:79:
                    d5:05:e1:99:2d:f8:77:1b:b2:cb:81:2e:f1:c8:b8:
                    0e:cf:cc:18:8e:ad:89:32:67:f0:82:44:0a:39:89:
                    ac:e4:b8:01:49:88:9b:46:48:01:18:73:69:44:62:
                    93:45:89:4e:1b:3b:3f:67:4d:1e:99:5d:98:1f:6c:
                    35:58:5e:95:fa:a2:b8:5c:6d:36:c1:23:34:01:da:
                    34:34:cc:29:7f:33:3a:fd:16:7d:11:db:82:f2:dc:
                    a7:db:3a:0b:c1:b6:89:08:d5:c0:17:e2:22:78:69:
                    66:5a:ba:f5:41:e9:65:94:4f:7e:8d:69:a4:b4:ba:
                    17:79:1a:b3:e1:a7:b4:e7:26:34:44:e6:de:c0:61:
                    a8:b6:20:13:e8:2d:56:b9:8f:96:a1:65:c2:d3:6e:
                    e3:eb:d4:64:fe:c0:83:8e:67:7b:3e:a1:4f:da:d8:
                    2e:e3:66:44:e0:07:7e:c0:08:a0:4a:e8:62:e4:1f:
                    1f:72:98:9b:ab:8e:17:b1:08:d7:4f:d1:c1:9c:8f:
                    84:89:dc:32:69:f0:a4:89:92:1b:5e:43:9f:e5:7c:
                    09:9f:d9:12:99:27:89:57:a4:9d:80:f2:8f:80:09:
                    ba:d9:3d:d8:6d:1b:36:de:0c:3f:37:ab:1e:20:3a:
                    23:ca:51:13:dc:97:0b:41:cb:33:4d:9e:86:60:8d:
                    6f:2d:9e:b6:71:ea:79:3b:66:73:40:c4:3e:ea:77:
                    7d:6e:18:7e:df:22:07:06:ee:e2:a8:1d:59:91:d8:
                    27:d3:61:98:3a:14:88:35:85:ff:37:70:ea:7f:a2:
                    89:b1:7f:71:75:5d:e5:f2:b7:62:ed:0f:98:b5:82:
                    1c:65:6d:54:bf:5e:40:31:a7:b4:7b:9e:ca:96:f3:
                    51:84:c1:9d:9a:98:1c:8d:52:0c:f7:a3:aa:f2:0a:
                    47:d3:ea:08:f3:c1:f8:3a:15:4e:36:11:39:a8:a1:
                    11:da:b8:d8:39:87:0b:87:61:d1:71:38:bb:34:cd:
                    46:e4:94:d6:86:26:c2:8f:7f:5a:62:91:10:8b:ab:
                    75:e4:8e:ac:50:48:4d:c2:ad:23:35:16:cb:57:03:
                    56:6d:85:ba:36:c8:3f:f1:31:5e:20:c7:0c:18:5a:
                    0e:3f:22:72:ec:27:ca:c8:c1:5e:c1:ba:60:10:f2:
                    30:4e:01:62:e2:02:cc:dc:b0:24:7d:d5:a9:05:83:
                    bd:8f:d3:d1:0f:75:89:72:c3:37:f4:21:a0:a2:4e:
                    c0:f3:23:97:bf:26:a6:f2:dc:fc:9f:b2:22:48:f6:
                    a8:fc:af
                Exponent: 65537 (0x10001)
        X509v3 extensions:
            X509v3 Basic Constraints: 
                CA:FALSE
            Netscape Comment: 
                Easy-RSA Generated Certificate
            X509v3 Subject Key Identifier: 
                AD:BA:40:1C:F6:4E:69:DF:C1:F2:0C:8E:B3:4B:D1:F6:E0:DC:3D:22
            X509v3 Authority Key Identifier: 
                keyid:12:CD:60:04:D2:A0:80:9E:70:ED:C6:99:B8:7B:2C:C6:52:FD:19:A1
                DirName:/C=US/ST=OH/L=Columbus/O=VikingVPN/OU=MyOrganizationalUnit/CN=VikingVPN CA/name=EasyRSA/emailAddress=me@myhost.mydomain
                serial:CF:35:85:EE:80:BF:2A:3E

            X509v3 Extended Key Usage: 
                TLS Web Client Authentication
            X509v3 Key Usage: 
                Digital Signature
    Signature Algorithm: md5WithRSAEncryption
         47:cf:78:af:2e:83:dc:bd:76:55:93:53:7e:0d:57:6e:b5:f0:
         ac:dd:e3:f1:1b:e6:73:ca:94:f6:6c:64:2f:de:03:35:f8:8c:
         6e:26:f9:31:9d:24:fc:27:b2:b0:f4:f3:d6:57:d0:22:0a:84:
         60:22:e9:f3:fa:0e:4d:7b:48:be:f8:07:95:d9:bf:42:99:03:
         82:8c:53:d1:32:b9:5a:4f:1b:18:30:59:f5:0b:a0:de:d7:64:
         ac:cd:67:3b:a1:d7:f1:c1:6e:50:df:ff:54:09:08:94:25:9c:
         30:ba:dc:93:fe:43:6c:cc:72:d7:97:9e:0d:15:34:57:fa:52:
         20:ee:eb:be:f8:b8:80:d6:14:6d:c4:16:dc:f0:f3:93:95:d9:
         eb:37:a0:b8:8d:d6:d8:98:54:7c:c8:17:3d:c5:37:84:1f:16:
         ee:f6:a0:33:dd:35:7b:15:15:c4:07:5c:be:39:89:21:65:b4:
         5f:a7:0c:25:f8:00:b7:49:55:ab:d0:b3:0f:62:fc:35:cf:ff:
         75:59:b5:e6:ca:cd:48:16:5f:cb:cf:a2:d2:26:d3:28:08:52:
         d2:c2:20:00:15:f6:8a:80:d8:4d:53:20:5b:c9:ee:0c:e1:9c:
         3f:cc:cf:34:52:79:90:3b:53:b4:7b:4d:d5:07:92:0c:f8:aa:
         ae:b8:5a:e1:1b:cf:e5:fb:4a:3b:11:3b:bc:73:44:d2:d7:0d:
         02:92:53:52:b9:f8:4d:e6:13:49:b9:f9:2d:ed:aa:47:1a:69:
         a2:1f:af:f9:ee:18:14:b1:71:2b:e4:e1:1c:0e:89:a5:aa:ee:
         e2:e7:9a:55:ce:44:02:f3:72:47:21:0a:0c:fc:b3:06:11:63:
         9f:6d:9d:8d:80:65:40:31:18:63:a2:35:d8:81:bb:37:b4:ff:
         88:fe:04:d0:c7:2d:70:a6:4e:8e:2c:1d:17:30:e4:99:66:b6:
         07:e4:8b:aa:56:eb:3a:f2:2d:1f:44:b1:1c:a9:ea:12:7f:04:
         9c:2d:9b:a9:1e:d3:e8:5b:e4:10:d6:af:ed:e6:ba:8c:14:95:
         a9:0b:77:ec:dc:bf:45:07:da:5c:5f:4d:64:34:6b:4a:7a:62:
         a3:18:f3:79:88:24:8c:97:09:6c:1d:c6:fd:24:ad:1f:3c:0b:
         20:53:ba:5a:ef:49:50:20:d4:6b:57:44:7d:11:e2:af:8f:9d:
         90:5b:ce:27:aa:e3:71:b8:98:20:8e:8c:b4:56:e6:10:9a:49:
         bc:da:f2:0d:fe:23:ed:40:e8:e2:fe:f8:a7:59:81:4d:c3:d4:
         db:98:b1:6b:bd:5a:8f:10:bb:d7:5c:2a:a8:55:fa:a4:7a:bc:
         96:f5:16:6e:4a:85:b7:3b
-----BEGIN CERTIFICATE-----
MIIGrDCCBJSgAwIBAgICCP8wDQYJKoZIhvcNAQEEBQAwgawxCzAJBgNVBAYTAlVT
MQswCQYDVQQIEwJPSDERMA8GA1UEBxMIQ29sdW1idXMxEjAQBgNVBAoTCVZpa2lu
Z1ZQTjEdMBsGA1UECxMUTXlPcmdhbml6YXRpb25hbFVuaXQxFTATBgNVBAMTDFZp
a2luZ1ZQTiBDQTEQMA4GA1UEKRMHRWFzeVJTQTEhMB8GCSqGSIb3DQEJARYSbWVA
bXlob3N0Lm15ZG9tYWluMB4XDTE0MDcxNjIwNTcyNloXDTI0MDcxMzIwNTcyNlow
HjEcMBoGA1UEAxMTQ2xpZW50MzI3Q2VydDYyYjYwNjCCAiIwDQYJKoZIhvcNAQEB
BQADggIPADCCAgoCggIBAOcXyflbGkW74+oXUduCn7jptBaOAgn5pK2CyJp51QXh
mS34dxuyy4Eu8ci4Ds/MGI6tiTJn8IJECjmJrOS4AUmIm0ZIARhzaURik0WJThs7
P2dNHpldmB9sNVhelfqiuFxtNsEjNAHaNDTMKX8zOv0WfRHbgvLcp9s6C8G2iQjV
wBfiInhpZlq69UHpZZRPfo1ppLS6F3kas+GntOcmNETm3sBhqLYgE+gtVrmPlqFl
wtNu4+vUZP7Ag45nez6hT9rYLuNmROAHfsAIoEroYuQfH3KYm6uOF7EI10/RwZyP
hIncMmnwpImSG15Dn+V8CZ/ZEpkniVeknYDyj4AJutk92G0bNt4MPzerHiA6I8pR
E9yXC0HLM02ehmCNby2etnHqeTtmc0DEPup3fW4Yft8iBwbu4qgdWZHYJ9NhmDoU
iDWF/zdw6n+iibF/cXVd5fK3Yu0PmLWCHGVtVL9eQDGntHueypbzUYTBnZqYHI1S
DPejqvIKR9PqCPPB+DoVTjYROaihEdq42DmHC4dh0XE4uzTNRuSU1oYmwo9/WmKR
EIurdeSOrFBITcKtIzUWy1cDVm2FujbIP/ExXiDHDBhaDj8icuwnysjBXsG6YBDy
ME4BYuICzNywJH3VqQWDvY/T0Q91iXLDN/QhoKJOwPMjl78mpvLc/J+yIkj2qPyv
AgMBAAGjggFjMIIBXzAJBgNVHRMEAjAAMC0GCWCGSAGG+EIBDQQgFh5FYXN5LVJT
QSBHZW5lcmF0ZWQgQ2VydGlmaWNhdGUwHQYDVR0OBBYEFK26QBz2TmnfwfIMjrNL
0fbg3D0iMIHhBgNVHSMEgdkwgdaAFBLNYATSoICecO3Gmbh7LMZS/RmhoYGypIGv
MIGsMQswCQYDVQQGEwJVUzELMAkGA1UECBMCT0gxETAPBgNVBAcTCENvbHVtYnVz
MRIwEAYDVQQKEwlWaWtpbmdWUE4xHTAbBgNVBAsTFE15T3JnYW5pemF0aW9uYWxV
bml0MRUwEwYDVQQDEwxWaWtpbmdWUE4gQ0ExEDAOBgNVBCkTB0Vhc3lSU0ExITAf
BgkqhkiG9w0BCQEWEm1lQG15aG9zdC5teWRvbWFpboIJAM81he6Avyo+MBMGA1Ud
JQQMMAoGCCsGAQUFBwMCMAsGA1UdDwQEAwIHgDANBgkqhkiG9w0BAQQFAAOCAgEA
R894ry6D3L12VZNTfg1XbrXwrN3j8Rvmc8qU9mxkL94DNfiMbib5MZ0k/CeysPTz
1lfQIgqEYCLp8/oOTXtIvvgHldm/QpkDgoxT0TK5Wk8bGDBZ9Qug3tdkrM1nO6HX
8cFuUN//VAkIlCWcMLrck/5DbMxy15eeDRU0V/pSIO7rvvi4gNYUbcQW3PDzk5XZ
6zeguI3W2JhUfMgXPcU3hB8W7vagM901exUVxAdcvjmJIWW0X6cMJfgAt0lVq9Cz
D2L8Nc//dVm15srNSBZfy8+i0ibTKAhS0sIgABX2ioDYTVMgW8nuDOGcP8zPNFJ5
kDtTtHtN1QeSDPiqrrha4RvP5ftKOxE7vHNE0tcNApJTUrn4TeYTSbn5Le2qRxpp
oh+v+e4YFLFxK+ThHA6Jparu4ueaVc5EAvNyRyEKDPyzBhFjn22djYBlQDEYY6I1
2IG7N7T/iP4E0MctcKZOjiwdFzDkmWa2B+SLqlbrOvItH0SxHKnqEn8EnC2bqR7T
6FvkENav7ea6jBSVqQt37Ny/RQfaXF9NZDRrSnpioxjzeYgkjJcJbB3G/SStHzwL
IFO6Wu9JUCDUa1dEfRHir4+dkFvOJ6rjcbiYII6MtFbmEJpJvNryDf4j7UDo4v74
p1mBTcPU25ixa71ajxC711wqqFX6pHq8lvUWbkqFtzs=
-----END CERTIFICATE-----
