Certificate:
    Data:
        Version: 3 (0x2)
        Serial Number: 12866 (0x3242)
    Signature Algorithm: sha256WithRSAEncryption
        Issuer: C=US, ST=OH, L=Columbus, O=VikingVPN, OU=MyOrganizationalUnit, CN=VikingVPN CA/name=EasyRSA/emailAddress=me@myhost.mydomain
        Validity
            Not Before: Apr  2 08:23:07 2018 GMT
            Not After : Mar 30 08:23:07 2028 GMT
        Subject: CN=Client1682Certeab856
        Subject Public Key Info:
            Public Key Algorithm: rsaEncryption
                Public-Key: (4096 bit)
                Modulus:
                    00:cc:60:b6:7a:29:ab:64:e7:2c:fd:97:3c:3f:6c:
                    dc:f7:c2:58:ad:97:10:62:71:46:36:ac:0f:57:0c:
                    39:9f:ad:70:e8:8b:8c:78:7c:7f:4e:81:a7:18:c8:
                    bd:bb:58:f8:1b:4d:a3:47:82:2c:a4:b1:d0:85:78:
                    59:50:0d:03:ee:a7:74:7a:84:99:d1:15:a3:28:ce:
                    1f:b5:33:3d:96:d3:5c:78:54:56:a0:cf:db:2b:f2:
                    e3:ba:54:bd:ec:23:09:2e:dd:14:29:b1:2c:2a:22:
                    18:69:c9:2c:1e:e4:9f:4b:cb:68:54:ea:fe:0c:41:
                    67:7d:58:43:0e:8a:da:2b:0a:93:15:d5:ce:3e:02:
                    82:49:71:f0:55:36:f1:ab:fd:62:5f:bf:90:bc:c1:
                    a7:8f:2d:81:b3:34:ed:b4:e5:75:36:46:b9:25:22:
                    96:e5:ba:f8:d8:7e:e3:e6:eb:86:50:41:8f:b4:50:
                    9b:c4:06:3f:fd:81:0e:21:e2:67:94:72:b9:72:9e:
                    03:db:2a:10:5b:e4:f3:98:22:1e:3a:22:b5:56:53:
                    eb:30:58:5c:13:76:2f:63:2a:c5:51:08:85:18:5f:
                    48:4b:a8:a2:47:0a:a5:37:81:e3:b9:d9:97:10:aa:
                    ec:f3:c6:88:b7:46:95:95:d6:fd:64:99:42:3e:d0:
                    3f:81:58:71:3e:32:64:62:3f:3b:6c:66:0b:1d:58:
                    11:6d:56:c8:9d:61:a6:dc:f2:0c:fe:9f:5e:f3:e1:
                    9f:7b:b8:d9:36:ad:2b:2a:2a:55:bb:15:df:f7:9f:
                    ba:85:aa:a8:2a:b5:ef:ae:9d:33:0a:d1:d2:e9:3f:
                    41:31:c8:26:64:60:4c:3c:35:69:55:34:41:3d:68:
                    c3:e7:99:30:a2:ce:b2:94:30:15:de:a1:1f:91:47:
                    ad:91:79:b5:04:06:61:8d:71:15:d0:83:a8:37:9b:
                    1d:bf:40:24:e5:81:c3:6a:ef:f5:4e:76:83:7d:6b:
                    4b:5b:a9:54:99:80:cd:b4:bb:49:f8:76:4e:2f:9a:
                    fd:f4:81:5b:e9:ec:2e:05:c1:37:af:2b:a8:81:f9:
                    8c:fe:ad:a3:fa:c1:72:cc:63:37:b7:35:c2:2a:5f:
                    ab:18:40:6d:0a:c8:9b:20:ea:27:e3:4a:49:dc:6d:
                    96:81:bd:c4:42:be:e4:00:55:ad:37:2d:f7:e8:06:
                    dc:b2:56:27:fe:95:9f:82:a8:15:57:62:b1:f6:dd:
                    9e:94:b6:7d:b4:6f:4f:e5:48:0c:e0:6f:f8:0d:f4:
                    33:3e:3d:39:c2:5b:be:ec:23:61:d0:9a:ac:06:b5:
                    41:e8:85:77:ad:c9:3b:eb:c7:d3:a0:8a:a4:76:bb:
                    5f:82:97
                Exponent: 65537 (0x10001)
        X509v3 extensions:
            X509v3 Basic Constraints: 
                CA:FALSE
            Netscape Comment: 
                Easy-RSA Generated Certificate
            X509v3 Subject Key Identifier: 
                FD:28:42:8A:FD:AB:4A:4B:D4:03:AB:19:09:1F:29:33:01:39:FF:0E
            X509v3 Authority Key Identifier: 
                keyid:12:CD:60:04:D2:A0:80:9E:70:ED:C6:99:B8:7B:2C:C6:52:FD:19:A1
                DirName:/C=US/ST=OH/L=Columbus/O=VikingVPN/OU=MyOrganizationalUnit/CN=VikingVPN CA/name=EasyRSA/emailAddress=me@myhost.mydomain
                serial:CF:35:85:EE:80:BF:2A:3E

            X509v3 Extended Key Usage: 
                TLS Web Client Authentication
            X509v3 Key Usage: 
                Digital Signature
    Signature Algorithm: sha256WithRSAEncryption
         7d:2e:ee:bc:72:47:06:d1:19:d7:8c:f5:c2:8f:d6:1c:23:2a:
         a5:a9:86:30:a3:3d:72:ee:ba:a3:6e:ae:52:39:1b:29:0b:31:
         1f:38:b1:fb:b8:e6:da:90:ea:6d:48:81:de:a1:b4:a3:27:16:
         93:5e:bf:ad:d4:ba:02:c2:73:a5:ac:46:67:57:52:7f:61:5e:
         46:07:97:b7:b2:d9:6e:ea:ef:34:ed:89:93:ef:e6:77:99:9b:
         73:43:61:19:99:ee:5b:39:ad:42:44:19:10:c3:e2:6f:83:5d:
         4c:7b:9e:0a:8e:42:ed:24:92:bd:d8:53:45:2d:53:56:ca:db:
         35:86:5c:d6:87:4a:7d:42:80:7c:6d:cc:c3:5b:de:4d:96:a0:
         41:a5:d8:c7:21:b6:aa:e4:c0:e9:a9:5a:e8:6c:ba:3d:0e:a0:
         be:af:89:d2:0f:9b:cd:70:44:3a:5d:5a:c2:13:2e:3d:78:84:
         7f:38:68:04:b2:e7:c0:2b:be:17:59:e2:7f:ba:ad:8d:9b:38:
         53:fe:2d:5e:17:7c:cf:09:4e:f9:9e:e6:8c:15:a1:03:a9:d9:
         02:07:87:e9:b2:6b:0b:65:a8:c3:b2:57:db:dd:b7:d1:21:fa:
         4e:ca:38:93:84:25:4a:ed:1d:c7:9c:5d:4a:c6:74:20:1a:85:
         5e:27:d5:ac:a3:80:ab:a9:6b:42:40:17:b5:57:e8:19:e9:d1:
         56:2a:7c:e2:a8:d1:c6:ff:96:ea:24:b9:ed:0b:0d:8a:70:6a:
         79:3f:b1:a1:32:13:f7:cb:a1:2e:cd:56:16:0c:ac:d0:79:6b:
         ec:f3:93:9a:5e:e9:d8:be:24:51:e2:36:62:e4:1f:b1:1a:33:
         7d:59:8e:94:41:52:a9:ab:e9:8b:1c:82:22:78:fe:8d:59:42:
         2b:87:b3:53:cb:d5:d5:8f:f7:90:ad:20:17:98:d2:90:90:2f:
         53:c5:52:ad:ad:f5:f1:f1:60:82:ce:41:98:bf:b8:a6:c5:ec:
         95:42:d1:cf:b3:05:4c:ab:0b:83:54:97:d1:84:f6:88:c5:ae:
         63:0f:da:90:f6:13:9a:a2:46:f5:ba:28:b0:3a:39:0c:e5:3c:
         92:28:90:4f:a9:c2:d2:54:5b:34:e0:fa:b0:90:ee:38:d7:2a:
         e3:89:59:d1:b5:41:02:d3:de:86:a8:82:76:50:ae:e3:11:0e:
         fd:d0:de:4a:bc:ba:7d:75:7b:65:d8:84:ac:97:ee:98:1b:b5:
         cf:2f:e4:07:d7:40:22:63:48:23:04:3d:36:95:35:c4:6e:55:
         3b:63:63:98:69:f7:61:35:1a:e5:ed:6b:d2:d6:a2:6b:64:62:
         0f:43:c2:cd:70:f2:1a:f1
-----BEGIN CERTIFICATE-----
MIIGrTCCBJWgAwIBAgICMkIwDQYJKoZIhvcNAQELBQAwgawxCzAJBgNVBAYTAlVT
MQswCQYDVQQIEwJPSDERMA8GA1UEBxMIQ29sdW1idXMxEjAQBgNVBAoTCVZpa2lu
Z1ZQTjEdMBsGA1UECxMUTXlPcmdhbml6YXRpb25hbFVuaXQxFTATBgNVBAMTDFZp
a2luZ1ZQTiBDQTEQMA4GA1UEKRMHRWFzeVJTQTEhMB8GCSqGSIb3DQEJARYSbWVA
bXlob3N0Lm15ZG9tYWluMB4XDTE4MDQwMjA4MjMwN1oXDTI4MDMzMDA4MjMwN1ow
HzEdMBsGA1UEAxMUQ2xpZW50MTY4MkNlcnRlYWI4NTYwggIiMA0GCSqGSIb3DQEB
AQUAA4ICDwAwggIKAoICAQDMYLZ6Katk5yz9lzw/bNz3wlitlxBicUY2rA9XDDmf
rXDoi4x4fH9OgacYyL27WPgbTaNHgiyksdCFeFlQDQPup3R6hJnRFaMozh+1Mz2W
01x4VFagz9sr8uO6VL3sIwku3RQpsSwqIhhpySwe5J9Ly2hU6v4MQWd9WEMOitor
CpMV1c4+AoJJcfBVNvGr/WJfv5C8waePLYGzNO205XU2RrklIpbluvjYfuPm64ZQ
QY+0UJvEBj/9gQ4h4meUcrlyngPbKhBb5POYIh46IrVWU+swWFwTdi9jKsVRCIUY
X0hLqKJHCqU3geO52ZcQquzzxoi3RpWV1v1kmUI+0D+BWHE+MmRiPztsZgsdWBFt
VsidYabc8gz+n17z4Z97uNk2rSsqKlW7Fd/3n7qFqqgqte+unTMK0dLpP0ExyCZk
YEw8NWlVNEE9aMPnmTCizrKUMBXeoR+RR62RebUEBmGNcRXQg6g3mx2/QCTlgcNq
7/VOdoN9a0tbqVSZgM20u0n4dk4vmv30gVvp7C4FwTevK6iB+Yz+raP6wXLMYze3
NcIqX6sYQG0KyJsg6ifjSkncbZaBvcRCvuQAVa03LffoBtyyVif+lZ+CqBVXYrH2
3Z6Utn20b0/lSAzgb/gN9DM+PTnCW77sI2HQmqwGtUHohXetyTvrx9OgiqR2u1+C
lwIDAQABo4IBYzCCAV8wCQYDVR0TBAIwADAtBglghkgBhvhCAQ0EIBYeRWFzeS1S
U0EgR2VuZXJhdGVkIENlcnRpZmljYXRlMB0GA1UdDgQWBBT9KEKK/atKS9QDqxkJ
HykzATn/DjCB4QYDVR0jBIHZMIHWgBQSzWAE0qCAnnDtxpm4eyzGUv0ZoaGBsqSB
rzCBrDELMAkGA1UEBhMCVVMxCzAJBgNVBAgTAk9IMREwDwYDVQQHEwhDb2x1bWJ1
czESMBAGA1UEChMJVmlraW5nVlBOMR0wGwYDVQQLExRNeU9yZ2FuaXphdGlvbmFs
VW5pdDEVMBMGA1UEAxMMVmlraW5nVlBOIENBMRAwDgYDVQQpEwdFYXN5UlNBMSEw
HwYJKoZIhvcNAQkBFhJtZUBteWhvc3QubXlkb21haW6CCQDPNYXugL8qPjATBgNV
HSUEDDAKBggrBgEFBQcDAjALBgNVHQ8EBAMCB4AwDQYJKoZIhvcNAQELBQADggIB
AH0u7rxyRwbRGdeM9cKP1hwjKqWphjCjPXLuuqNurlI5GykLMR84sfu45tqQ6m1I
gd6htKMnFpNev63UugLCc6WsRmdXUn9hXkYHl7ey2W7q7zTtiZPv5neZm3NDYRmZ
7ls5rUJEGRDD4m+DXUx7ngqOQu0kkr3YU0UtU1bK2zWGXNaHSn1CgHxtzMNb3k2W
oEGl2MchtqrkwOmpWuhsuj0OoL6vidIPm81wRDpdWsITLj14hH84aASy58ArvhdZ
4n+6rY2bOFP+LV4XfM8JTvme5owVoQOp2QIHh+myawtlqMOyV9vdt9Eh+k7KOJOE
JUrtHcecXUrGdCAahV4n1ayjgKupa0JAF7VX6Bnp0VYqfOKo0cb/luokue0LDYpw
ank/saEyE/fLoS7NVhYMrNB5a+zzk5pe6di+JFHiNmLkH7EaM31ZjpRBUqmr6Ysc
giJ4/o1ZQiuHs1PL1dWP95CtIBeY0pCQL1PFUq2t9fHxYILOQZi/uKbF7JVC0c+z
BUyrC4NUl9GE9ojFrmMP2pD2E5qiRvW6KLA6OQzlPJIokE+pwtJUWzTg+rCQ7jjX
KuOJWdG1QQLT3oaognZQruMRDv3Q3kq8un11e2XYhKyX7pgbtc8v5AfXQCJjSCME
PTaVNcRuVTtjY5hp92E1GuXta9LWomtkYg9Dws1w8hrx
-----END CERTIFICATE-----
