Certificate:
    Data:
        Version: 3 (0x2)
        Serial Number: 3511 (0xdb7)
    Signature Algorithm: md5WithRSAEncryption
        Issuer: C=US, ST=OH, L=Columbus, O=VikingVPN, OU=MyOrganizationalUnit, CN=VikingVPN CA/name=EasyRSA/emailAddress=me@myhost.mydomain
        Validity
            Not Before: Nov 27 01:52:41 2014 GMT
            Not After : Nov 24 01:52:41 2024 GMT
        Subject: CN=Client1177Certda25b9
        Subject Public Key Info:
            Public Key Algorithm: rsaEncryption
                Public-Key: (4096 bit)
                Modulus:
                    00:c5:57:32:fb:cd:65:2e:fe:00:c8:5c:57:bf:a0:
                    5c:45:46:5d:11:ea:54:8f:de:71:1e:5e:b2:9d:53:
                    bf:2d:42:87:9e:14:cd:a3:26:df:fe:3b:66:ed:0b:
                    23:a1:31:87:9d:53:f5:68:aa:a4:26:f1:a4:e1:26:
                    18:fd:21:22:ef:85:e0:16:df:d3:d4:1d:67:af:7f:
                    21:78:8e:f3:27:a1:7d:9c:fa:c3:2d:1e:ff:35:44:
                    9f:6e:b1:33:7d:9d:62:ac:34:e8:18:29:b3:5d:89:
                    00:6a:00:37:14:c1:15:55:3a:39:1d:c8:f5:87:dc:
                    40:b6:dc:ed:a8:4c:bc:16:94:c1:85:27:a6:8d:80:
                    37:52:fa:88:46:4f:67:1b:4c:cc:28:c5:c1:87:17:
                    ea:90:48:8f:af:61:b5:95:96:ed:28:28:97:5c:ef:
                    5e:63:ea:37:ab:21:38:ba:56:b7:eb:66:97:f9:24:
                    28:8c:e9:e6:1c:85:51:3b:90:c9:35:68:81:05:fd:
                    f0:05:d0:bc:c5:e7:f8:bb:37:91:b1:85:ee:a5:e7:
                    93:f6:03:b3:a0:7e:dd:1b:fc:19:0b:b9:71:d9:ad:
                    30:a2:c4:32:fb:28:6e:a3:96:72:c1:6d:e6:50:11:
                    bb:34:f0:4c:af:db:2f:22:a3:ed:79:8f:c2:8f:02:
                    85:5c:e4:a1:cc:06:84:f2:c3:6f:cc:b6:1c:68:62:
                    63:1b:28:1b:02:8b:34:3b:5e:0b:54:84:2d:79:c2:
                    22:bc:17:e7:0f:e0:07:64:fe:d6:bf:e7:b2:47:69:
                    c6:2a:17:9d:af:9c:99:33:6f:72:26:36:21:1b:fa:
                    61:19:69:66:76:a1:86:db:6c:30:c9:97:a0:7f:f3:
                    5f:88:87:12:22:c7:b6:e6:b0:b1:de:0e:56:2b:a2:
                    88:65:0d:58:15:9c:9b:b9:12:3b:23:43:ea:56:e0:
                    d0:6f:dd:50:dc:3e:e0:70:a0:e6:02:56:f7:92:09:
                    bc:a0:eb:40:c9:ec:fa:aa:1e:f3:9e:06:6d:f1:56:
                    06:85:6c:13:4c:21:0e:8d:b5:b2:5a:71:b4:37:d6:
                    44:ac:e4:52:e1:44:a8:b1:f8:ce:db:e3:3d:3e:3d:
                    11:77:c9:bc:ef:6c:3f:20:da:be:50:5a:a3:a8:76:
                    67:44:4b:88:0e:60:3f:00:d5:6c:95:ec:a0:84:de:
                    44:f1:2f:62:ff:75:e9:d6:d6:c0:12:9c:96:b6:d6:
                    e4:c3:08:8a:24:c0:10:31:ee:7f:19:20:8e:c2:07:
                    7e:9e:5a:1b:83:19:78:73:58:c3:2d:ab:30:b9:e8:
                    2d:e4:7f:b2:cc:4d:0b:da:7b:00:d2:74:ee:da:5f:
                    71:78:f9
                Exponent: 65537 (0x10001)
        X509v3 extensions:
            X509v3 Basic Constraints: 
                CA:FALSE
            Netscape Comment: 
                Easy-RSA Generated Certificate
            X509v3 Subject Key Identifier: 
                54:F6:CC:FF:D3:91:CE:F7:A0:66:21:E3:86:C0:E4:52:9C:CA:E9:79
            X509v3 Authority Key Identifier: 
                keyid:12:CD:60:04:D2:A0:80:9E:70:ED:C6:99:B8:7B:2C:C6:52:FD:19:A1
                DirName:/C=US/ST=OH/L=Columbus/O=VikingVPN/OU=MyOrganizationalUnit/CN=VikingVPN CA/name=EasyRSA/emailAddress=me@myhost.mydomain
                serial:CF:35:85:EE:80:BF:2A:3E

            X509v3 Extended Key Usage: 
                TLS Web Client Authentication
            X509v3 Key Usage: 
                Digital Signature
    Signature Algorithm: md5WithRSAEncryption
         cf:bf:3b:11:fc:f3:4a:a1:39:4c:1a:82:88:b2:8d:ad:06:c8:
         c9:3a:7d:41:5d:55:3a:e9:a2:95:6c:b6:12:4e:78:97:a5:e2:
         bc:8e:78:43:48:52:1b:02:c0:66:31:d1:43:58:22:f4:11:a1:
         2c:06:56:4b:c8:be:bf:10:0a:7d:2e:4b:d0:7d:73:f8:01:33:
         8a:e6:27:8e:e3:8c:00:cc:1a:61:66:77:41:31:1e:96:51:b6:
         d9:b9:4b:6a:ec:db:af:11:2f:d5:9e:fb:97:48:4f:44:8a:ca:
         2f:14:a7:3f:52:cd:e1:e5:61:19:04:02:22:40:08:70:f4:2d:
         b4:50:16:17:9b:5c:57:2d:46:7c:a4:e5:7b:e0:ff:94:37:38:
         e2:c4:2e:45:b0:30:87:85:32:8a:10:65:ea:43:66:5b:92:11:
         17:52:eb:f2:97:15:61:97:e5:f0:54:49:f3:2b:41:c9:c1:5b:
         a8:da:7a:97:0b:cd:ab:cb:07:79:7f:11:7d:f4:68:29:83:8b:
         9a:70:d1:2a:64:04:ba:02:7c:28:52:1a:95:99:e5:56:8a:50:
         f7:3a:30:1f:52:f2:fd:c3:24:37:aa:4c:79:24:26:4e:b3:ef:
         b6:d9:1f:9b:40:b6:bd:3c:82:59:87:fd:be:9d:03:96:97:8b:
         3c:71:18:ff:ff:bb:18:90:37:eb:ef:dd:5b:46:b1:7b:91:1f:
         21:dd:44:c9:db:80:69:aa:24:fe:bf:41:2e:58:9f:ab:06:73:
         6c:af:3d:6d:e3:8b:64:71:5e:0b:2c:25:12:1c:d7:f1:1f:02:
         27:db:3b:a7:e5:aa:96:ec:da:ef:74:a1:9f:1c:45:7e:f6:05:
         1c:dc:a5:93:b6:2a:f4:1e:e5:92:40:93:49:f2:2a:be:e0:19:
         a3:d5:1e:7b:0b:60:72:4f:6e:77:9c:5f:a6:37:6b:ce:7f:47:
         cb:4f:5d:0f:db:42:a5:ab:69:86:f5:6c:cd:7a:3b:b8:13:91:
         0c:15:c9:00:44:e9:10:5f:cb:cf:a8:23:4a:91:68:06:8d:cd:
         40:c8:f3:46:7d:96:7c:a4:e1:66:ac:81:f5:75:60:30:a6:8a:
         97:9c:40:bf:8a:ba:49:e7:47:61:b7:f6:af:b1:c6:82:68:23:
         dc:d6:d9:58:1f:36:ed:b0:1f:66:29:7e:bc:d7:98:ec:76:88:
         1c:a2:2c:0f:5b:9d:29:0b:82:3a:62:33:ef:7d:32:7a:a7:07:
         38:60:2c:70:48:a1:ca:df:31:17:df:63:2e:4d:bb:a9:ad:de:
         97:c6:f1:c4:48:77:db:db:90:5c:8a:5a:0a:c0:ac:94:d6:f8:
         69:22:f0:50:d1:91:43:56
-----BEGIN CERTIFICATE-----
MIIGrTCCBJWgAwIBAgICDbcwDQYJKoZIhvcNAQEEBQAwgawxCzAJBgNVBAYTAlVT
MQswCQYDVQQIEwJPSDERMA8GA1UEBxMIQ29sdW1idXMxEjAQBgNVBAoTCVZpa2lu
Z1ZQTjEdMBsGA1UECxMUTXlPcmdhbml6YXRpb25hbFVuaXQxFTATBgNVBAMTDFZp
a2luZ1ZQTiBDQTEQMA4GA1UEKRMHRWFzeVJTQTEhMB8GCSqGSIb3DQEJARYSbWVA
bXlob3N0Lm15ZG9tYWluMB4XDTE0MTEyNzAxNTI0MVoXDTI0MTEyNDAxNTI0MVow
HzEdMBsGA1UEAxMUQ2xpZW50MTE3N0NlcnRkYTI1YjkwggIiMA0GCSqGSIb3DQEB
AQUAA4ICDwAwggIKAoICAQDFVzL7zWUu/gDIXFe/oFxFRl0R6lSP3nEeXrKdU78t
QoeeFM2jJt/+O2btCyOhMYedU/VoqqQm8aThJhj9ISLvheAW39PUHWevfyF4jvMn
oX2c+sMtHv81RJ9usTN9nWKsNOgYKbNdiQBqADcUwRVVOjkdyPWH3EC23O2oTLwW
lMGFJ6aNgDdS+ohGT2cbTMwoxcGHF+qQSI+vYbWVlu0oKJdc715j6jerITi6Vrfr
Zpf5JCiM6eYchVE7kMk1aIEF/fAF0LzF5/i7N5Gxhe6l55P2A7Ogft0b/BkLuXHZ
rTCixDL7KG6jlnLBbeZQEbs08Eyv2y8io+15j8KPAoVc5KHMBoTyw2/MthxoYmMb
KBsCizQ7XgtUhC15wiK8F+cP4Adk/ta/57JHacYqF52vnJkzb3ImNiEb+mEZaWZ2
oYbbbDDJl6B/81+IhxIix7bmsLHeDlYroohlDVgVnJu5EjsjQ+pW4NBv3VDcPuBw
oOYCVveSCbyg60DJ7PqqHvOeBm3xVgaFbBNMIQ6NtbJacbQ31kSs5FLhRKix+M7b
4z0+PRF3ybzvbD8g2r5QWqOodmdES4gOYD8A1WyV7KCE3kTxL2L/denW1sASnJa2
1uTDCIokwBAx7n8ZII7CB36eWhuDGXhzWMMtqzC56C3kf7LMTQvaewDSdO7aX3F4
+QIDAQABo4IBYzCCAV8wCQYDVR0TBAIwADAtBglghkgBhvhCAQ0EIBYeRWFzeS1S
U0EgR2VuZXJhdGVkIENlcnRpZmljYXRlMB0GA1UdDgQWBBRU9sz/05HO96BmIeOG
wORSnMrpeTCB4QYDVR0jBIHZMIHWgBQSzWAE0qCAnnDtxpm4eyzGUv0ZoaGBsqSB
rzCBrDELMAkGA1UEBhMCVVMxCzAJBgNVBAgTAk9IMREwDwYDVQQHEwhDb2x1bWJ1
czESMBAGA1UEChMJVmlraW5nVlBOMR0wGwYDVQQLExRNeU9yZ2FuaXphdGlvbmFs
VW5pdDEVMBMGA1UEAxMMVmlraW5nVlBOIENBMRAwDgYDVQQpEwdFYXN5UlNBMSEw
HwYJKoZIhvcNAQkBFhJtZUBteWhvc3QubXlkb21haW6CCQDPNYXugL8qPjATBgNV
HSUEDDAKBggrBgEFBQcDAjALBgNVHQ8EBAMCB4AwDQYJKoZIhvcNAQEEBQADggIB
AM+/OxH880qhOUwagoiyja0GyMk6fUFdVTrpopVsthJOeJel4ryOeENIUhsCwGYx
0UNYIvQRoSwGVkvIvr8QCn0uS9B9c/gBM4rmJ47jjADMGmFmd0ExHpZRttm5S2rs
268RL9We+5dIT0SKyi8Upz9SzeHlYRkEAiJACHD0LbRQFhebXFctRnyk5Xvg/5Q3
OOLELkWwMIeFMooQZepDZluSERdS6/KXFWGX5fBUSfMrQcnBW6jaepcLzavLB3l/
EX30aCmDi5pw0SpkBLoCfChSGpWZ5VaKUPc6MB9S8v3DJDeqTHkkJk6z77bZH5tA
tr08glmH/b6dA5aXizxxGP//uxiQN+vv3VtGsXuRHyHdRMnbgGmqJP6/QS5Yn6sG
c2yvPW3ji2RxXgssJRIc1/EfAifbO6flqpbs2u90oZ8cRX72BRzcpZO2KvQe5ZJA
k0nyKr7gGaPVHnsLYHJPbnecX6Y3a85/R8tPXQ/bQqWraYb1bM16O7gTkQwVyQBE
6RBfy8+oI0qRaAaNzUDI80Z9lnyk4WasgfV1YDCmipecQL+KuknnR2G39q+xxoJo
I9zW2VgfNu2wH2YpfrzXmOx2iByiLA9bnSkLgjpiM+99MnqnBzhgLHBIocrfMRff
Yy5Nu6mt3pfG8cRId9vbkFyKWgrArJTW+Gki8FDRkUNW
-----END CERTIFICATE-----
