Certificate:
    Data:
        Version: 3 (0x2)
        Serial Number: 967 (0x3c7)
    Signature Algorithm: md5WithRSAEncryption
        Issuer: C=US, ST=OH, L=Columbus, O=VikingVPN, OU=MyOrganizationalUnit, CN=VikingVPN CA/name=EasyRSA/emailAddress=me@myhost.mydomain
        Validity
            Not Before: Feb  6 18:51:25 2014 GMT
            Not After : Feb  4 18:51:25 2024 GMT
        Subject: CN=Client356Certa5a64e
        Subject Public Key Info:
            Public Key Algorithm: rsaEncryption
                Public-Key: (4096 bit)
                Modulus:
                    00:ad:ba:9f:42:07:9a:58:ec:b2:f4:15:4a:07:1a:
                    17:f6:49:61:87:64:5f:12:0f:d7:3c:2d:99:13:71:
                    15:8f:31:f2:7b:1c:37:c6:af:e6:51:60:d7:42:5e:
                    63:88:a0:23:df:61:7d:8e:2c:5e:20:30:6a:ea:8d:
                    3a:a2:f1:62:52:a3:ba:48:cd:eb:25:eb:eb:db:7c:
                    87:7d:d9:0d:54:ad:1b:d4:3b:12:54:43:53:57:69:
                    cc:1e:a3:14:e2:fb:2d:56:8d:4e:a5:f9:e9:72:f9:
                    6c:5a:29:65:e7:f8:6a:8c:42:3c:18:6b:60:0b:45:
                    dc:97:07:f6:85:02:db:2a:23:3d:ff:ec:46:50:0f:
                    55:26:19:87:4b:92:9b:ac:eb:de:6d:af:27:5f:a2:
                    ca:89:69:dd:fb:f0:f3:8e:32:5f:0f:a4:67:0a:71:
                    1e:f6:bc:24:44:62:e5:7e:15:23:04:b0:a5:21:db:
                    54:51:03:df:7b:ee:fa:c9:a4:8c:7c:e2:eb:4f:19:
                    93:77:1a:f8:12:56:4b:c2:63:74:c9:b3:58:e0:51:
                    d4:1c:6c:7f:7e:24:b1:1e:3e:77:57:cc:07:43:3c:
                    56:ff:3b:45:26:1d:67:6f:51:76:98:f5:6a:14:5d:
                    33:3f:d0:1f:f8:35:05:f8:39:45:e0:98:05:cd:a0:
                    ec:7f:64:8a:1a:ef:9b:c9:84:fa:09:ba:35:be:be:
                    88:43:6a:50:b0:1e:13:3f:60:ab:3e:e6:41:70:d6:
                    15:aa:82:94:03:6f:80:5a:3e:9b:8e:6c:1d:8c:fb:
                    d6:0a:bc:88:59:7a:a7:37:d6:63:ca:b0:b6:c5:e7:
                    13:1b:f2:5d:5a:f4:f3:44:d5:6a:39:93:17:b3:70:
                    25:54:15:fd:33:f9:34:7c:76:5b:85:bf:74:53:6e:
                    a2:c7:cd:1c:74:8f:1d:b8:3b:8d:87:23:bb:ee:96:
                    f2:58:c0:d9:da:f8:da:ee:ac:2c:ad:6a:52:07:e9:
                    96:21:96:eb:c3:d7:bc:d9:1e:ea:6e:18:21:7e:b5:
                    fa:b2:3f:ec:b5:bd:6e:ad:a1:fa:a8:3c:b7:66:92:
                    70:e5:ac:22:42:ef:78:0e:3c:54:a7:7d:e9:9d:40:
                    86:8e:de:0b:ad:76:16:0e:5e:07:0f:db:83:d2:22:
                    1f:73:ee:9a:91:7f:e0:ab:4a:b2:74:1d:d3:c5:8e:
                    bd:60:a3:00:45:26:00:28:b4:9c:2a:f7:74:c3:65:
                    4c:f0:32:dd:3d:f5:83:54:87:84:6c:93:49:92:83:
                    6f:c5:1c:11:17:11:54:2e:01:4e:a7:f7:03:58:83:
                    a4:60:69:4a:93:a8:80:39:ed:49:72:d2:83:ad:c1:
                    e9:37:a5
                Exponent: 65537 (0x10001)
        X509v3 extensions:
            X509v3 Basic Constraints: 
                CA:FALSE
            Netscape Comment: 
                Easy-RSA Generated Certificate
            X509v3 Subject Key Identifier: 
                07:31:9D:65:03:5F:5D:48:10:04:CE:2A:BF:04:26:28:13:69:3B:D5
            X509v3 Authority Key Identifier: 
                keyid:12:CD:60:04:D2:A0:80:9E:70:ED:C6:99:B8:7B:2C:C6:52:FD:19:A1
                DirName:/C=US/ST=OH/L=Columbus/O=VikingVPN/OU=MyOrganizationalUnit/CN=VikingVPN CA/name=EasyRSA/emailAddress=me@myhost.mydomain
                serial:CF:35:85:EE:80:BF:2A:3E

            X509v3 Extended Key Usage: 
                TLS Web Client Authentication
            X509v3 Key Usage: 
                Digital Signature
    Signature Algorithm: md5WithRSAEncryption
         11:f5:d4:a0:d9:6b:64:99:9d:8e:1d:cc:02:48:a0:46:2e:23:
         e6:67:14:c0:10:97:44:72:0c:44:00:2d:32:af:01:4c:a1:f5:
         b6:06:5e:6e:3f:43:bc:e4:1e:a8:e4:b6:23:1e:36:a8:5f:1b:
         de:8a:40:2a:8f:e2:35:44:2f:a4:bc:77:51:bc:63:85:62:f3:
         1c:4f:a0:00:89:e6:0d:87:dd:0a:50:c8:27:a0:3e:ea:e3:35:
         bc:9e:9c:59:1e:ec:c6:7c:c1:d5:92:13:c3:41:dd:fd:16:49:
         c9:9d:72:79:7a:a1:c1:dc:c9:cb:d9:28:81:de:ae:e0:61:a8:
         95:01:51:74:ec:47:04:b2:b3:8c:71:71:e7:78:e9:dd:e1:60:
         20:e6:76:12:1e:c4:a6:da:b7:f4:97:22:94:20:5f:26:fb:d6:
         66:a2:9c:cc:0f:32:fe:e0:11:c8:03:20:32:e3:de:5d:b3:12:
         b1:ad:4d:7d:c9:ea:b0:be:98:90:5a:c5:13:8b:31:91:a2:73:
         5d:49:4f:85:1b:7a:a5:4b:4c:90:61:6e:2e:11:b5:8f:fc:b5:
         ee:f6:2b:b8:6e:6f:b7:62:aa:dc:af:87:38:2d:4d:2f:9b:5d:
         14:bd:b7:d0:6f:bb:15:80:cd:48:ea:19:33:89:8f:54:44:44:
         9d:15:8b:91:91:64:29:c1:fe:d9:23:94:2a:a2:7e:17:43:f5:
         d5:3d:9e:25:9d:67:b7:be:d2:6c:ea:08:f3:ea:e3:dc:e9:0e:
         2c:7b:d6:00:5c:f7:a4:5f:b7:94:11:86:ea:c4:53:61:44:9d:
         b4:be:d1:3d:f5:f8:56:b5:de:29:b4:b3:53:d2:95:c5:02:b7:
         15:82:34:12:68:31:85:23:bf:bf:96:c8:8e:fc:f4:7f:a4:80:
         6d:ee:e9:f5:25:01:b9:7c:bb:28:c7:89:7e:24:60:44:a5:12:
         d8:96:fc:1d:26:c6:78:a1:1f:33:6e:32:b3:44:bf:d7:2a:cc:
         cf:99:ca:e6:c3:85:21:21:b8:23:82:fa:6c:b0:de:98:df:c7:
         d5:fe:d9:1f:8c:87:75:3c:b5:74:c7:ee:48:29:42:fd:74:3c:
         e4:70:39:8b:63:f2:f8:e5:2d:1c:f2:6d:94:69:c5:e3:c2:ac:
         4a:d6:63:8b:04:38:c8:b9:ae:46:d4:2c:85:00:a5:60:af:e1:
         0c:96:8b:4f:7c:6a:b8:fd:fd:84:a9:4c:a7:2d:27:d7:4b:62:
         fb:bb:c1:ba:ac:35:41:6a:b1:24:e4:b5:fa:b5:41:90:39:46:
         78:9a:88:60:e0:6b:c2:be:be:ad:ad:d0:42:99:62:c9:62:36:
         e6:44:40:57:50:81:43:c9
-----BEGIN CERTIFICATE-----
MIIGrDCCBJSgAwIBAgICA8cwDQYJKoZIhvcNAQEEBQAwgawxCzAJBgNVBAYTAlVT
MQswCQYDVQQIEwJPSDERMA8GA1UEBxMIQ29sdW1idXMxEjAQBgNVBAoTCVZpa2lu
Z1ZQTjEdMBsGA1UECxMUTXlPcmdhbml6YXRpb25hbFVuaXQxFTATBgNVBAMTDFZp
a2luZ1ZQTiBDQTEQMA4GA1UEKRMHRWFzeVJTQTEhMB8GCSqGSIb3DQEJARYSbWVA
bXlob3N0Lm15ZG9tYWluMB4XDTE0MDIwNjE4NTEyNVoXDTI0MDIwNDE4NTEyNVow
HjEcMBoGA1UEAxMTQ2xpZW50MzU2Q2VydGE1YTY0ZTCCAiIwDQYJKoZIhvcNAQEB
BQADggIPADCCAgoCggIBAK26n0IHmljssvQVSgcaF/ZJYYdkXxIP1zwtmRNxFY8x
8nscN8av5lFg10JeY4igI99hfY4sXiAwauqNOqLxYlKjukjN6yXr69t8h33ZDVSt
G9Q7ElRDU1dpzB6jFOL7LVaNTqX56XL5bFopZef4aoxCPBhrYAtF3JcH9oUC2yoj
Pf/sRlAPVSYZh0uSm6zr3m2vJ1+iyolp3fvw844yXw+kZwpxHva8JERi5X4VIwSw
pSHbVFED33vu+smkjHzi608Zk3ca+BJWS8JjdMmzWOBR1Bxsf34ksR4+d1fMB0M8
Vv87RSYdZ29Rdpj1ahRdMz/QH/g1Bfg5ReCYBc2g7H9kihrvm8mE+gm6Nb6+iENq
ULAeEz9gqz7mQXDWFaqClANvgFo+m45sHYz71gq8iFl6pzfWY8qwtsXnExvyXVr0
80TVajmTF7NwJVQV/TP5NHx2W4W/dFNuosfNHHSPHbg7jYcju+6W8ljA2dr42u6s
LK1qUgfpliGW68PXvNke6m4YIX61+rI/7LW9bq2h+qg8t2aScOWsIkLveA48VKd9
6Z1Aho7eC612Fg5eBw/bg9IiH3PumpF/4KtKsnQd08WOvWCjAEUmACi0nCr3dMNl
TPAy3T31g1SHhGyTSZKDb8UcERcRVC4BTqf3A1iDpGBpSpOogDntSXLSg63B6Tel
AgMBAAGjggFjMIIBXzAJBgNVHRMEAjAAMC0GCWCGSAGG+EIBDQQgFh5FYXN5LVJT
QSBHZW5lcmF0ZWQgQ2VydGlmaWNhdGUwHQYDVR0OBBYEFAcxnWUDX11IEATOKr8E
JigTaTvVMIHhBgNVHSMEgdkwgdaAFBLNYATSoICecO3Gmbh7LMZS/RmhoYGypIGv
MIGsMQswCQYDVQQGEwJVUzELMAkGA1UECBMCT0gxETAPBgNVBAcTCENvbHVtYnVz
MRIwEAYDVQQKEwlWaWtpbmdWUE4xHTAbBgNVBAsTFE15T3JnYW5pemF0aW9uYWxV
bml0MRUwEwYDVQQDEwxWaWtpbmdWUE4gQ0ExEDAOBgNVBCkTB0Vhc3lSU0ExITAf
BgkqhkiG9w0BCQEWEm1lQG15aG9zdC5teWRvbWFpboIJAM81he6Avyo+MBMGA1Ud
JQQMMAoGCCsGAQUFBwMCMAsGA1UdDwQEAwIHgDANBgkqhkiG9w0BAQQFAAOCAgEA
EfXUoNlrZJmdjh3MAkigRi4j5mcUwBCXRHIMRAAtMq8BTKH1tgZebj9DvOQeqOS2
Ix42qF8b3opAKo/iNUQvpLx3UbxjhWLzHE+gAInmDYfdClDIJ6A+6uM1vJ6cWR7s
xnzB1ZITw0Hd/RZJyZ1yeXqhwdzJy9kogd6u4GGolQFRdOxHBLKzjHFx53jp3eFg
IOZ2Eh7Eptq39JcilCBfJvvWZqKczA8y/uARyAMgMuPeXbMSsa1NfcnqsL6YkFrF
E4sxkaJzXUlPhRt6pUtMkGFuLhG1j/y17vYruG5vt2Kq3K+HOC1NL5tdFL230G+7
FYDNSOoZM4mPVEREnRWLkZFkKcH+2SOUKqJ+F0P11T2eJZ1nt77SbOoI8+rj3OkO
LHvWAFz3pF+3lBGG6sRTYUSdtL7RPfX4VrXeKbSzU9KVxQK3FYI0EmgxhSO/v5bI
jvz0f6SAbe7p9SUBuXy7KMeJfiRgRKUS2Jb8HSbGeKEfM24ys0S/1yrMz5nK5sOF
ISG4I4L6bLDemN/H1f7ZH4yHdTy1dMfuSClC/XQ85HA5i2Py+OUtHPJtlGnF48Ks
StZjiwQ4yLmuRtQshQClYK/hDJaLT3xquP39hKlMpy0n10ti+7vBuqw1QWqxJOS1
+rVBkDlGeJqIYOBrwr6+ra3QQpliyWI25kRAV1CBQ8k=
-----END CERTIFICATE-----
