Certificate:
    Data:
        Version: 3 (0x2)
        Serial Number: 7607 (0x1db7)
    Signature Algorithm: md5WithRSAEncryption
        Issuer: C=US, ST=OH, L=Columbus, O=VikingVPN, OU=MyOrganizationalUnit, CN=VikingVPN CA/name=EasyRSA/emailAddress=me@myhost.mydomain
        Validity
            Not Before: Mar 26 02:03:38 2016 GMT
            Not After : Mar 24 02:03:38 2026 GMT
        Subject: CN=Client2139Cert5980eb
        Subject Public Key Info:
            Public Key Algorithm: rsaEncryption
                Public-Key: (4096 bit)
                Modulus:
                    00:c6:d4:e8:3b:5b:8c:5d:2a:02:d6:ef:6a:77:6b:
                    4f:7d:6b:01:e8:4b:a6:60:51:ab:93:d1:e4:29:f2:
                    35:24:17:a6:63:20:cb:88:05:d8:99:7c:7b:1d:80:
                    19:17:f0:fc:25:46:ee:4b:99:a3:58:15:d0:43:37:
                    a7:87:15:8b:49:c3:df:e1:b4:9f:0e:d5:07:cc:38:
                    47:8d:19:d6:63:98:5c:5a:d8:5f:45:a4:98:bd:26:
                    72:c4:6d:3b:2f:3e:33:54:ff:f5:5a:08:88:83:25:
                    56:1b:e1:32:3a:ed:09:99:9a:63:44:45:f6:f4:04:
                    a0:fb:46:ca:70:21:69:d9:df:2d:f6:3a:bf:91:8f:
                    84:21:82:a1:48:fb:ca:5f:51:80:6d:bf:91:16:e2:
                    14:7c:ff:ab:1c:00:b0:63:6e:5b:dc:59:fb:d0:b7:
                    48:8d:b2:64:9e:7a:ef:5f:85:16:18:36:b3:3b:c6:
                    18:cf:d8:2c:a9:25:48:3f:5a:45:8b:bb:20:0d:cf:
                    10:d0:86:7e:13:63:e4:77:88:5c:5a:a3:e5:58:ca:
                    61:af:6b:74:05:0a:fb:ba:7f:3e:f6:24:2c:d6:ff:
                    1a:ee:5d:e2:c5:fe:7c:39:16:b1:35:19:41:45:94:
                    1a:16:52:ac:47:3e:2a:a4:98:1c:a8:b3:ff:d3:51:
                    61:b4:20:70:6d:25:4b:bb:c6:8b:7b:46:09:41:9b:
                    c7:79:c0:1c:10:2b:89:9d:d0:d5:b7:0d:6e:28:1e:
                    09:0d:5d:d0:bd:1b:d2:04:5c:d2:0f:4d:f0:c4:4e:
                    0f:fc:62:7d:93:69:09:41:7f:eb:6f:61:3a:57:f9:
                    88:3a:22:42:47:6c:ce:8c:27:7b:f3:94:2b:4c:df:
                    1f:c4:0f:37:8f:05:0a:84:fa:14:ef:90:f4:2e:0d:
                    0d:ec:ba:31:07:b2:b3:72:87:bb:39:c2:99:9c:b0:
                    b7:fe:84:6b:4a:17:30:f5:f3:e8:04:af:49:51:ac:
                    81:d1:e3:f6:32:1d:6a:07:f4:9e:4a:6d:c7:5f:ab:
                    df:9c:60:e0:ee:9c:94:9e:4d:ee:df:c2:19:0c:84:
                    6e:99:26:dd:5b:ca:c1:d6:b9:46:3a:3e:1c:4d:55:
                    13:68:29:64:fc:80:8e:08:a9:49:c6:dc:9b:78:b4:
                    94:28:69:b4:6d:03:5f:c5:d4:bf:2b:31:9b:a3:81:
                    82:f8:8a:11:4f:70:e5:c7:4f:fa:b1:7e:ca:e9:6d:
                    d4:8f:e7:99:fc:36:db:3c:0b:8e:45:9c:46:c0:71:
                    f0:c3:17:3e:85:4d:ef:0a:f4:93:56:90:0b:d7:55:
                    d5:38:d7:d9:bc:e5:63:37:b6:7a:ac:dd:c3:74:67:
                    01:6d:ed
                Exponent: 65537 (0x10001)
        X509v3 extensions:
            X509v3 Basic Constraints: 
                CA:FALSE
            Netscape Comment: 
                Easy-RSA Generated Certificate
            X509v3 Subject Key Identifier: 
                05:30:A5:43:80:74:D2:CB:66:55:E7:41:DC:87:C8:93:B1:B6:1E:14
            X509v3 Authority Key Identifier: 
                keyid:12:CD:60:04:D2:A0:80:9E:70:ED:C6:99:B8:7B:2C:C6:52:FD:19:A1
                DirName:/C=US/ST=OH/L=Columbus/O=VikingVPN/OU=MyOrganizationalUnit/CN=VikingVPN CA/name=EasyRSA/emailAddress=me@myhost.mydomain
                serial:CF:35:85:EE:80:BF:2A:3E

            X509v3 Extended Key Usage: 
                TLS Web Client Authentication
            X509v3 Key Usage: 
                Digital Signature
    Signature Algorithm: md5WithRSAEncryption
         8c:40:36:26:bb:a1:51:c2:4e:4d:6a:57:90:ff:12:a2:90:bd:
         36:b3:50:69:44:44:23:5c:ad:22:c3:71:f5:de:ba:b9:64:69:
         f0:ac:e3:10:d3:bf:68:fa:5d:67:f9:a3:ef:69:cc:7c:6d:77:
         da:11:d9:1f:22:6d:d1:46:7e:24:46:f1:3f:b5:18:d9:e3:76:
         55:c6:4e:84:db:77:b3:aa:b1:cf:73:51:01:92:1d:6e:7c:c8:
         36:72:cb:c3:60:e8:63:0e:81:cc:ec:5c:89:d5:6a:1c:b3:80:
         52:eb:ab:28:51:9d:b6:9a:fa:f7:43:7a:55:0f:1a:38:3e:2b:
         fb:ec:84:c7:63:22:78:9f:16:21:ab:75:41:01:33:73:13:5f:
         0c:25:08:3c:ea:6e:2d:cd:82:38:66:f8:d0:54:ad:87:38:f0:
         77:13:1c:5d:32:07:f6:e8:c7:ba:8c:33:98:9e:94:04:8b:bd:
         7b:e5:9e:e9:04:07:97:ad:a3:ee:35:9c:13:6b:94:a7:ae:b1:
         40:21:11:cc:83:65:6f:76:28:e4:79:8a:44:20:61:e5:64:e1:
         24:e6:ce:20:c7:e3:40:4b:b8:0c:2c:0c:f5:a2:52:e7:d6:24:
         d3:55:d6:ec:43:ed:df:2a:f2:64:e6:a5:41:73:9d:c4:68:b3:
         95:98:5c:22:a5:f4:1a:71:ac:93:3c:41:30:27:7e:dc:82:b9:
         9c:22:cd:1d:d4:a9:d3:28:21:e5:8c:c0:d5:6d:82:09:72:5b:
         cb:13:af:6a:85:0a:cb:73:3d:36:28:78:58:26:4b:2a:9c:06:
         be:e0:76:0a:eb:2a:79:f4:09:3f:3c:47:4e:56:9d:02:3e:0c:
         ae:e1:7f:14:46:97:6d:29:ea:ad:c3:79:6d:80:5d:f3:55:6d:
         c4:8a:f0:53:8d:b8:28:a2:53:15:be:a5:c2:5a:e9:b8:8b:37:
         8a:e4:0d:32:44:86:cb:d0:9c:f0:94:13:2f:a4:c2:5f:cd:31:
         f7:f0:6e:b3:a4:ef:f8:7f:c6:f4:b3:e3:86:34:71:07:34:b9:
         b8:7f:63:30:09:6e:70:9b:30:26:02:26:4d:46:65:f3:39:f1:
         4a:3c:c5:08:5c:44:62:0d:ca:59:39:33:04:68:ce:52:9b:b6:
         69:46:6e:83:68:14:01:ed:3a:33:10:55:0b:f9:53:6c:2b:f1:
         fb:58:2f:ed:1a:20:41:52:90:a3:b4:92:ae:77:e3:a4:86:88:
         8a:1a:33:e4:48:ba:ae:91:73:a0:a7:30:98:e1:c6:08:ec:e8:
         65:53:e2:52:4c:4b:d5:b6:1c:dd:eb:e5:bb:ef:79:24:1d:ba:
         52:ee:2d:da:0a:24:78:c8
-----BEGIN CERTIFICATE-----
MIIGrTCCBJWgAwIBAgICHbcwDQYJKoZIhvcNAQEEBQAwgawxCzAJBgNVBAYTAlVT
MQswCQYDVQQIEwJPSDERMA8GA1UEBxMIQ29sdW1idXMxEjAQBgNVBAoTCVZpa2lu
Z1ZQTjEdMBsGA1UECxMUTXlPcmdhbml6YXRpb25hbFVuaXQxFTATBgNVBAMTDFZp
a2luZ1ZQTiBDQTEQMA4GA1UEKRMHRWFzeVJTQTEhMB8GCSqGSIb3DQEJARYSbWVA
bXlob3N0Lm15ZG9tYWluMB4XDTE2MDMyNjAyMDMzOFoXDTI2MDMyNDAyMDMzOFow
HzEdMBsGA1UEAxMUQ2xpZW50MjEzOUNlcnQ1OTgwZWIwggIiMA0GCSqGSIb3DQEB
AQUAA4ICDwAwggIKAoICAQDG1Og7W4xdKgLW72p3a099awHoS6ZgUauT0eQp8jUk
F6ZjIMuIBdiZfHsdgBkX8PwlRu5LmaNYFdBDN6eHFYtJw9/htJ8O1QfMOEeNGdZj
mFxa2F9FpJi9JnLEbTsvPjNU//VaCIiDJVYb4TI67QmZmmNERfb0BKD7RspwIWnZ
3y32Or+Rj4QhgqFI+8pfUYBtv5EW4hR8/6scALBjblvcWfvQt0iNsmSeeu9fhRYY
NrM7xhjP2CypJUg/WkWLuyANzxDQhn4TY+R3iFxao+VYymGva3QFCvu6fz72JCzW
/xruXeLF/nw5FrE1GUFFlBoWUqxHPiqkmByos//TUWG0IHBtJUu7xot7RglBm8d5
wBwQK4md0NW3DW4oHgkNXdC9G9IEXNIPTfDETg/8Yn2TaQlBf+tvYTpX+Yg6IkJH
bM6MJ3vzlCtM3x/EDzePBQqE+hTvkPQuDQ3sujEHsrNyh7s5wpmcsLf+hGtKFzD1
8+gEr0lRrIHR4/YyHWoH9J5Kbcdfq9+cYODunJSeTe7fwhkMhG6ZJt1bysHWuUY6
PhxNVRNoKWT8gI4IqUnG3Jt4tJQoabRtA1/F1L8rMZujgYL4ihFPcOXHT/qxfsrp
bdSP55n8Nts8C45FnEbAcfDDFz6FTe8K9JNWkAvXVdU419m85WM3tnqs3cN0ZwFt
7QIDAQABo4IBYzCCAV8wCQYDVR0TBAIwADAtBglghkgBhvhCAQ0EIBYeRWFzeS1S
U0EgR2VuZXJhdGVkIENlcnRpZmljYXRlMB0GA1UdDgQWBBQFMKVDgHTSy2ZV50Hc
h8iTsbYeFDCB4QYDVR0jBIHZMIHWgBQSzWAE0qCAnnDtxpm4eyzGUv0ZoaGBsqSB
rzCBrDELMAkGA1UEBhMCVVMxCzAJBgNVBAgTAk9IMREwDwYDVQQHEwhDb2x1bWJ1
czESMBAGA1UEChMJVmlraW5nVlBOMR0wGwYDVQQLExRNeU9yZ2FuaXphdGlvbmFs
VW5pdDEVMBMGA1UEAxMMVmlraW5nVlBOIENBMRAwDgYDVQQpEwdFYXN5UlNBMSEw
HwYJKoZIhvcNAQkBFhJtZUBteWhvc3QubXlkb21haW6CCQDPNYXugL8qPjATBgNV
HSUEDDAKBggrBgEFBQcDAjALBgNVHQ8EBAMCB4AwDQYJKoZIhvcNAQEEBQADggIB
AIxANia7oVHCTk1qV5D/EqKQvTazUGlERCNcrSLDcfXeurlkafCs4xDTv2j6XWf5
o+9pzHxtd9oR2R8ibdFGfiRG8T+1GNnjdlXGToTbd7Oqsc9zUQGSHW58yDZyy8Ng
6GMOgczsXInVahyzgFLrqyhRnbaa+vdDelUPGjg+K/vshMdjInifFiGrdUEBM3MT
XwwlCDzqbi3Ngjhm+NBUrYc48HcTHF0yB/box7qMM5ielASLvXvlnukEB5eto+41
nBNrlKeusUAhEcyDZW92KOR5ikQgYeVk4STmziDH40BLuAwsDPWiUufWJNNV1uxD
7d8q8mTmpUFzncRos5WYXCKl9BpxrJM8QTAnftyCuZwizR3UqdMoIeWMwNVtggly
W8sTr2qFCstzPTYoeFgmSyqcBr7gdgrrKnn0CT88R05WnQI+DK7hfxRGl20p6q3D
eW2AXfNVbcSK8FONuCiiUxW+pcJa6biLN4rkDTJEhsvQnPCUEy+kwl/NMffwbrOk
7/h/xvSz44Y0cQc0ubh/YzAJbnCbMCYCJk1GZfM58Uo8xQhcRGINylk5MwRozlKb
tmlGboNoFAHtOjMQVQv5U2wr8ftYL+0aIEFSkKO0kq5346SGiIoaM+RIuq6Rc6Cn
MJjhxgjs6GVT4lJMS9W2HN3r5bvveSQdulLuLdoKJHjI
-----END CERTIFICATE-----
