Certificate:
    Data:
        Version: 3 (0x2)
        Serial Number: 998 (0x3e6)
    Signature Algorithm: md5WithRSAEncryption
        Issuer: C=US, ST=OH, L=Columbus, O=VikingVPN, OU=MyOrganizationalUnit, CN=VikingVPN CA/name=EasyRSA/emailAddress=me@myhost.mydomain
        Validity
            Not Before: Feb  9 19:42:17 2014 GMT
            Not After : Feb  7 19:42:17 2024 GMT
        Subject: CN=Client365Cert0a8a41
        Subject Public Key Info:
            Public Key Algorithm: rsaEncryption
                Public-Key: (4096 bit)
                Modulus:
                    00:e6:e9:5a:dd:43:38:4b:79:39:2b:44:01:35:d3:
                    33:5c:8d:2d:65:8a:76:8c:ef:b1:84:5e:86:1a:2d:
                    31:38:9d:50:0b:ef:bc:3f:ec:91:c1:c0:c4:ca:58:
                    dd:ec:b5:65:ed:6e:0e:6e:47:54:95:f9:68:55:e2:
                    fd:25:6e:a3:b5:31:5e:38:38:23:55:f3:d2:fb:06:
                    82:fb:5a:8b:5c:19:7f:38:1a:78:ec:ae:b5:b5:73:
                    1a:b6:7b:68:e3:57:d9:f8:98:7d:a5:ba:81:eb:d2:
                    b6:15:18:d8:de:ca:2e:ec:3f:ec:4b:25:d4:82:91:
                    b8:d2:a8:ab:a8:81:50:51:8d:49:49:f3:a4:80:ca:
                    78:8a:c6:55:d2:49:1f:2e:3a:0e:11:a2:81:36:21:
                    eb:9a:87:78:13:8a:fc:bd:12:70:0f:30:b1:01:88:
                    2e:e8:c2:8f:4a:30:88:6c:ec:da:fc:9b:21:f1:a0:
                    1a:99:d0:ef:61:8e:3f:47:38:06:fc:4a:7f:4d:9b:
                    ce:91:04:79:e9:10:ae:60:9b:65:96:cf:f5:91:9d:
                    94:c7:f3:a0:b4:b9:33:a8:87:03:79:15:fe:91:a8:
                    e0:ea:91:1e:9e:8b:b4:18:3c:8a:df:13:d7:8b:08:
                    31:7d:42:19:81:24:5e:af:58:a3:80:d2:47:c6:c6:
                    5e:9e:0c:2e:36:8c:2a:a8:5f:f9:c5:64:b4:ab:77:
                    46:87:70:23:fa:b5:21:e7:1a:4f:43:14:1c:02:c1:
                    1f:59:ff:b2:e0:2b:09:e3:86:f5:a7:55:b1:a2:c6:
                    b8:25:96:d8:d0:69:40:fc:2e:ac:a4:32:ca:01:cb:
                    91:80:3d:31:cf:de:7e:a1:a2:7f:42:94:bc:28:0e:
                    39:3e:7f:5b:01:63:f2:20:eb:78:82:c5:ce:f2:0d:
                    a6:10:24:3b:78:c1:4a:2b:62:e9:1f:32:4c:0d:3c:
                    3e:a8:9b:9d:e2:d5:54:87:a7:a6:13:00:0b:05:97:
                    45:a5:4b:14:29:03:de:ac:4c:0c:b1:bf:d5:ae:39:
                    7e:3f:99:a1:73:46:50:84:f0:b5:8c:51:f0:ea:3c:
                    b0:1d:ea:79:b8:f8:d6:c9:d7:bc:c7:24:98:d0:ef:
                    02:bf:1b:3a:a0:6b:28:38:27:2a:25:77:1b:e6:21:
                    0f:bf:8c:8b:80:74:bd:cb:b1:a7:0b:f7:03:53:15:
                    43:07:ba:78:30:59:4d:6e:ae:f4:75:18:7a:7a:61:
                    44:ba:45:83:f6:30:d2:16:e3:e9:39:99:c5:a3:9e:
                    32:56:37:38:b3:33:8f:c7:92:4d:62:3a:d9:a4:2c:
                    40:b5:c6:81:a0:83:a1:e4:b6:c4:19:56:1c:38:81:
                    af:98:21
                Exponent: 65537 (0x10001)
        X509v3 extensions:
            X509v3 Basic Constraints: 
                CA:FALSE
            Netscape Comment: 
                Easy-RSA Generated Certificate
            X509v3 Subject Key Identifier: 
                01:1E:DF:A5:A0:64:14:AE:7B:87:39:C5:1E:79:02:DA:D5:1E:9D:F3
            X509v3 Authority Key Identifier: 
                keyid:12:CD:60:04:D2:A0:80:9E:70:ED:C6:99:B8:7B:2C:C6:52:FD:19:A1
                DirName:/C=US/ST=OH/L=Columbus/O=VikingVPN/OU=MyOrganizationalUnit/CN=VikingVPN CA/name=EasyRSA/emailAddress=me@myhost.mydomain
                serial:CF:35:85:EE:80:BF:2A:3E

            X509v3 Extended Key Usage: 
                TLS Web Client Authentication
            X509v3 Key Usage: 
                Digital Signature
    Signature Algorithm: md5WithRSAEncryption
         ac:10:29:cd:d0:ca:6f:5e:1d:c7:29:02:cc:0b:ab:5e:f5:17:
         bc:dd:67:a3:f2:21:fb:06:18:49:73:aa:43:94:da:31:b4:79:
         ad:2c:a0:18:a6:4a:a6:e7:1e:9e:6d:f4:07:24:bb:ee:9b:3c:
         3b:4d:41:eb:8d:7b:c9:80:ee:7a:c6:be:ca:de:c3:45:df:fc:
         4c:eb:a1:f4:07:2c:f5:a1:72:af:39:31:c6:e5:43:a3:51:ff:
         86:19:4a:f1:bc:cd:ca:ab:7f:42:cd:2b:db:b2:79:6e:7d:7d:
         09:67:8f:e5:13:0d:8a:f7:81:62:6d:b7:a4:28:22:94:d0:31:
         c2:14:d2:2b:d4:5a:c2:95:0e:35:db:dc:7c:43:fe:12:ea:a2:
         33:c1:32:5c:d1:0d:c2:be:6f:63:76:f8:4b:d2:5e:2b:c4:ce:
         36:2f:5d:de:11:97:76:2f:c2:ff:4f:9f:38:61:8f:c6:8b:a2:
         f7:50:77:81:fc:ab:36:04:88:bc:67:ec:66:82:d6:05:bf:3f:
         c7:0d:0e:1a:43:b5:8f:1c:28:f8:e5:d8:c2:da:32:1e:08:69:
         14:17:54:fe:97:4e:5d:3b:8e:d5:86:ba:f8:1b:eb:99:06:bc:
         3d:47:cf:e7:23:a9:89:bf:6d:88:8b:c9:fa:9d:8a:c8:af:a8:
         ca:aa:9e:94:0e:26:ad:2f:f2:15:1f:ac:a6:fb:d2:c2:ba:d0:
         86:f0:51:04:22:68:c1:b9:19:e8:80:50:08:ee:13:c1:ef:fc:
         19:8c:a4:f0:c0:02:6c:99:89:09:56:c2:33:2c:8e:89:91:9c:
         38:9e:46:c9:9c:37:6e:62:10:71:27:b8:0e:8e:03:3e:ae:5e:
         6e:2d:d3:b4:db:f5:e5:03:1d:01:45:cd:7c:75:aa:d8:07:f4:
         d5:87:5c:86:be:55:77:65:44:70:ce:59:85:5a:47:e6:54:92:
         dc:74:43:11:16:26:42:c2:91:fe:f7:6e:b8:ad:35:cb:1a:c4:
         f2:40:9c:50:0b:51:38:4f:66:59:1b:f3:c6:5d:a9:c3:f9:0c:
         c3:47:58:58:15:a6:f3:49:0c:19:81:ce:9f:19:14:39:59:71:
         e8:40:48:8b:ae:1d:4d:ec:7e:24:7e:6a:48:3f:6c:7d:90:23:
         1b:ad:11:4d:ca:8a:fd:de:65:9a:b3:42:92:1d:04:38:e9:3b:
         76:81:4a:b2:55:f8:a5:e6:8d:4b:42:18:11:ae:56:a7:cc:b3:
         ef:f9:51:55:1b:25:38:0a:02:22:ef:7a:cd:cc:af:45:ac:c1:
         6a:07:02:6f:ba:b3:0b:70:b9:f4:77:d1:13:dc:d5:35:80:26:
         45:e4:d9:a7:79:00:61:6e
-----BEGIN CERTIFICATE-----
MIIGrDCCBJSgAwIBAgICA+YwDQYJKoZIhvcNAQEEBQAwgawxCzAJBgNVBAYTAlVT
MQswCQYDVQQIEwJPSDERMA8GA1UEBxMIQ29sdW1idXMxEjAQBgNVBAoTCVZpa2lu
Z1ZQTjEdMBsGA1UECxMUTXlPcmdhbml6YXRpb25hbFVuaXQxFTATBgNVBAMTDFZp
a2luZ1ZQTiBDQTEQMA4GA1UEKRMHRWFzeVJTQTEhMB8GCSqGSIb3DQEJARYSbWVA
bXlob3N0Lm15ZG9tYWluMB4XDTE0MDIwOTE5NDIxN1oXDTI0MDIwNzE5NDIxN1ow
HjEcMBoGA1UEAxMTQ2xpZW50MzY1Q2VydDBhOGE0MTCCAiIwDQYJKoZIhvcNAQEB
BQADggIPADCCAgoCggIBAObpWt1DOEt5OStEATXTM1yNLWWKdozvsYRehhotMTid
UAvvvD/skcHAxMpY3ey1Ze1uDm5HVJX5aFXi/SVuo7UxXjg4I1Xz0vsGgvtai1wZ
fzgaeOyutbVzGrZ7aONX2fiYfaW6gevSthUY2N7KLuw/7Esl1IKRuNKoq6iBUFGN
SUnzpIDKeIrGVdJJHy46DhGigTYh65qHeBOK/L0ScA8wsQGILujCj0owiGzs2vyb
IfGgGpnQ72GOP0c4BvxKf02bzpEEeekQrmCbZZbP9ZGdlMfzoLS5M6iHA3kV/pGo
4OqRHp6LtBg8it8T14sIMX1CGYEkXq9Yo4DSR8bGXp4MLjaMKqhf+cVktKt3Rodw
I/q1IecaT0MUHALBH1n/suArCeOG9adVsaLGuCWW2NBpQPwurKQyygHLkYA9Mc/e
fqGif0KUvCgOOT5/WwFj8iDreILFzvINphAkO3jBSiti6R8yTA08PqibneLVVIen
phMACwWXRaVLFCkD3qxMDLG/1a45fj+ZoXNGUITwtYxR8Oo8sB3qebj41snXvMck
mNDvAr8bOqBrKDgnKiV3G+YhD7+Mi4B0vcuxpwv3A1MVQwe6eDBZTW6u9HUYenph
RLpFg/Yw0hbj6TmZxaOeMlY3OLMzj8eSTWI62aQsQLXGgaCDoeS2xBlWHDiBr5gh
AgMBAAGjggFjMIIBXzAJBgNVHRMEAjAAMC0GCWCGSAGG+EIBDQQgFh5FYXN5LVJT
QSBHZW5lcmF0ZWQgQ2VydGlmaWNhdGUwHQYDVR0OBBYEFAEe36WgZBSue4c5xR55
AtrVHp3zMIHhBgNVHSMEgdkwgdaAFBLNYATSoICecO3Gmbh7LMZS/RmhoYGypIGv
MIGsMQswCQYDVQQGEwJVUzELMAkGA1UECBMCT0gxETAPBgNVBAcTCENvbHVtYnVz
MRIwEAYDVQQKEwlWaWtpbmdWUE4xHTAbBgNVBAsTFE15T3JnYW5pemF0aW9uYWxV
bml0MRUwEwYDVQQDEwxWaWtpbmdWUE4gQ0ExEDAOBgNVBCkTB0Vhc3lSU0ExITAf
BgkqhkiG9w0BCQEWEm1lQG15aG9zdC5teWRvbWFpboIJAM81he6Avyo+MBMGA1Ud
JQQMMAoGCCsGAQUFBwMCMAsGA1UdDwQEAwIHgDANBgkqhkiG9w0BAQQFAAOCAgEA
rBApzdDKb14dxykCzAurXvUXvN1no/Ih+wYYSXOqQ5TaMbR5rSygGKZKpucenm30
ByS77ps8O01B6417yYDuesa+yt7DRd/8TOuh9Acs9aFyrzkxxuVDo1H/hhlK8bzN
yqt/Qs0r27J5bn19CWeP5RMNiveBYm23pCgilNAxwhTSK9RawpUONdvcfEP+Euqi
M8EyXNENwr5vY3b4S9JeK8TONi9d3hGXdi/C/0+fOGGPxoui91B3gfyrNgSIvGfs
ZoLWBb8/xw0OGkO1jxwo+OXYwtoyHghpFBdU/pdOXTuO1Ya6+BvrmQa8PUfP5yOp
ib9tiIvJ+p2KyK+oyqqelA4mrS/yFR+spvvSwrrQhvBRBCJowbkZ6IBQCO4Twe/8
GYyk8MACbJmJCVbCMyyOiZGcOJ5GyZw3bmIQcSe4Do4DPq5ebi3TtNv15QMdAUXN
fHWq2Af01Ydchr5Vd2VEcM5ZhVpH5lSS3HRDERYmQsKR/vduuK01yxrE8kCcUAtR
OE9mWRvzxl2pw/kMw0dYWBWm80kMGYHOnxkUOVlx6EBIi64dTex+JH5qSD9sfZAj
G60RTcqK/d5lmrNCkh0EOOk7doFKslX4peaNS0IYEa5Wp8yz7/lRVRslOAoCIu96
zcyvRazBagcCb7qzC3C59HfRE9zVNYAmReTZp3kAYW4=
-----END CERTIFICATE-----
