Certificate:
    Data:
        Version: 3 (0x2)
        Serial Number: 11040 (0x2b20)
    Signature Algorithm: sha256WithRSAEncryption
        Issuer: C=US, ST=OH, L=Columbus, O=VikingVPN, OU=MyOrganizationalUnit, CN=VikingVPN CA/name=EasyRSA/emailAddress=me@myhost.mydomain
        Validity
            Not Before: May 29 11:27:49 2017 GMT
            Not After : May 27 11:27:49 2027 GMT
        Subject: CN=Client2935Cert4b6c84
        Subject Public Key Info:
            Public Key Algorithm: rsaEncryption
                Public-Key: (4096 bit)
                Modulus:
                    00:e4:0b:13:9a:ca:f8:da:84:9e:35:34:de:da:6b:
                    c9:6f:9c:f7:f6:ec:43:a6:cd:0a:a2:be:55:fb:fe:
                    81:af:be:2c:d0:91:4c:8d:32:06:36:52:64:6d:d3:
                    8e:a2:1c:00:a6:8d:c5:eb:31:61:80:07:26:86:dc:
                    3b:45:84:55:09:ed:00:65:7c:63:1c:19:d5:49:73:
                    9e:4b:a3:a1:ad:3f:10:de:05:b1:98:6b:60:82:71:
                    80:76:b3:54:d5:0e:36:f3:ef:dc:30:da:a6:79:a3:
                    1e:c4:b7:48:b1:73:d9:d7:22:fd:e7:21:00:53:71:
                    0e:28:03:bc:23:27:6f:51:eb:a6:8c:8a:ed:c4:f6:
                    5f:21:ec:14:2a:db:2b:97:a4:dc:07:82:b9:79:59:
                    a6:cc:1c:47:3c:f4:e9:0e:89:ff:f2:f2:1b:e2:c0:
                    99:35:d1:12:00:34:cd:66:db:ec:ba:fa:ba:82:fe:
                    f9:82:db:4d:39:85:40:64:e4:40:bf:75:c5:f8:6c:
                    50:cf:1f:f2:b5:3c:88:d5:fa:60:f1:af:ee:ed:61:
                    9d:48:19:0e:46:84:c6:3c:df:11:b4:53:2b:05:e1:
                    08:44:be:53:03:72:52:88:4c:e2:85:e9:d2:e2:c4:
                    26:85:97:c7:94:b3:4f:5e:c9:08:b0:60:75:89:5f:
                    a5:e8:e3:13:cd:7f:5d:1b:11:0b:97:ff:05:1f:ec:
                    ad:b3:dd:7b:a7:00:c9:c3:96:79:66:d5:c0:de:38:
                    b9:cf:fa:e9:03:8f:71:00:df:92:aa:a8:6e:5d:8a:
                    5e:c9:2a:d0:d8:5d:6c:76:cc:97:d4:73:f5:ba:10:
                    21:fd:27:03:c5:b7:d4:c4:f4:39:57:97:aa:9d:9e:
                    86:a6:2c:30:2a:00:af:7c:3a:ec:c6:95:0c:e2:67:
                    98:77:d0:27:e4:6f:22:d9:e6:37:8d:84:6e:11:cc:
                    73:b4:da:ef:64:c3:94:77:83:67:11:fb:3c:a4:ac:
                    8b:21:6d:c4:32:71:22:81:51:14:ba:e1:ab:ae:3b:
                    47:90:ea:49:e2:ce:09:64:1a:8b:ac:74:ac:9c:ac:
                    5e:14:fb:f1:31:fa:8a:2b:07:d9:09:ab:82:27:1e:
                    dd:ff:b0:d9:24:25:7e:4b:01:8e:e0:1e:6c:11:14:
                    02:d0:5c:4a:92:9a:b1:66:c8:d4:f0:e5:a5:03:37:
                    50:36:91:97:25:7e:84:35:ab:17:b8:eb:74:e6:01:
                    34:32:5a:7a:10:88:db:13:a8:97:0e:e1:8b:1f:8a:
                    e5:3d:22:11:9e:f5:c2:9c:9e:a7:c6:45:f8:6d:78:
                    cc:e6:73:f9:32:34:f0:40:2b:8c:d5:45:82:81:ba:
                    9e:1c:fd
                Exponent: 65537 (0x10001)
        X509v3 extensions:
            X509v3 Basic Constraints: 
                CA:FALSE
            Netscape Comment: 
                Easy-RSA Generated Certificate
            X509v3 Subject Key Identifier: 
                A7:F0:3E:89:A7:61:8D:5A:07:56:E1:D4:C6:36:1F:B5:23:48:F9:65
            X509v3 Authority Key Identifier: 
                keyid:12:CD:60:04:D2:A0:80:9E:70:ED:C6:99:B8:7B:2C:C6:52:FD:19:A1
                DirName:/C=US/ST=OH/L=Columbus/O=VikingVPN/OU=MyOrganizationalUnit/CN=VikingVPN CA/name=EasyRSA/emailAddress=me@myhost.mydomain
                serial:CF:35:85:EE:80:BF:2A:3E

            X509v3 Extended Key Usage: 
                TLS Web Client Authentication
            X509v3 Key Usage: 
                Digital Signature
    Signature Algorithm: sha256WithRSAEncryption
         7e:06:34:46:5b:6b:a0:71:58:1c:ea:e9:44:2b:53:43:7f:59:
         29:16:e7:31:ff:ae:ce:7b:88:aa:6e:79:3c:77:f8:9d:e2:32:
         36:53:e8:74:38:8c:76:f6:56:48:f2:ff:a4:50:9a:e8:25:dd:
         7f:5a:8b:c5:52:1d:c4:af:c2:76:30:55:53:14:07:9a:ac:d0:
         40:bb:80:b8:3e:79:5c:a4:aa:df:c1:c5:98:a3:43:f7:2c:5d:
         c8:9e:25:3d:59:c0:69:24:ab:35:a4:58:cd:30:9a:15:33:16:
         9b:17:1c:37:f9:2a:ac:59:c2:ed:fa:78:c1:46:ed:af:b9:f0:
         e8:f9:bb:ef:f9:5b:23:c4:93:23:5c:44:23:19:9d:f3:38:ca:
         1a:47:bd:7a:b5:9b:03:73:27:ac:ae:a8:01:98:79:b9:ea:71:
         de:51:cb:56:88:24:82:e9:ee:42:a3:15:ea:2c:83:00:c2:61:
         7f:c6:b6:d0:2e:9d:f6:c8:da:5a:47:30:59:78:9e:42:2d:ee:
         6d:ed:73:10:a5:8e:54:bd:9c:e7:40:88:6c:20:66:d9:ea:63:
         c6:7a:84:00:7e:73:21:f8:3c:ad:4f:d5:50:e5:1c:e8:af:5b:
         4b:d1:ff:86:25:77:06:df:91:cd:15:52:e2:e9:e5:c2:a9:6f:
         3b:0f:d3:3f:0a:e1:3a:ca:3b:8d:d0:ce:03:3c:c5:46:2e:79:
         e2:93:3a:60:dc:ed:38:54:0a:09:ab:34:66:65:86:64:e1:69:
         5b:19:fb:8d:9b:10:03:be:01:9e:f5:99:33:c3:c3:7c:4f:94:
         b1:f4:47:d3:7c:93:2e:00:6e:15:f1:70:a2:fc:48:a0:cc:65:
         38:1c:0a:6a:4a:a7:78:8e:08:61:c4:3a:7c:aa:df:48:65:90:
         39:b5:ab:f2:c5:a2:26:c7:a6:8f:9b:97:05:f3:76:68:9a:76:
         76:70:5d:44:cb:32:15:23:87:56:27:86:38:d5:7c:36:be:bb:
         84:fc:5d:b8:10:99:36:21:7c:00:73:e2:ba:26:7f:f5:cf:da:
         16:f2:9e:e7:9a:28:2e:41:c0:8e:81:51:0f:78:50:40:ef:61:
         a5:99:d5:95:41:22:e8:95:32:54:cc:2f:42:a1:9c:9a:74:15:
         fe:e7:df:2a:a1:59:f9:a1:4a:db:14:05:c8:69:91:3d:9d:90:
         54:60:89:51:58:93:5f:43:ad:cc:20:21:20:fd:b0:4c:fa:8e:
         db:e6:b1:39:6d:36:9e:f4:2e:ef:c1:bd:3e:09:d2:ae:35:8e:
         29:45:37:1a:65:45:b1:8f:b4:a7:dc:18:67:8b:a4:2f:b3:bf:
         39:07:dd:70:4a:93:f1:da
-----BEGIN CERTIFICATE-----
MIIGrTCCBJWgAwIBAgICKyAwDQYJKoZIhvcNAQELBQAwgawxCzAJBgNVBAYTAlVT
MQswCQYDVQQIEwJPSDERMA8GA1UEBxMIQ29sdW1idXMxEjAQBgNVBAoTCVZpa2lu
Z1ZQTjEdMBsGA1UECxMUTXlPcmdhbml6YXRpb25hbFVuaXQxFTATBgNVBAMTDFZp
a2luZ1ZQTiBDQTEQMA4GA1UEKRMHRWFzeVJTQTEhMB8GCSqGSIb3DQEJARYSbWVA
bXlob3N0Lm15ZG9tYWluMB4XDTE3MDUyOTExMjc0OVoXDTI3MDUyNzExMjc0OVow
HzEdMBsGA1UEAxMUQ2xpZW50MjkzNUNlcnQ0YjZjODQwggIiMA0GCSqGSIb3DQEB
AQUAA4ICDwAwggIKAoICAQDkCxOayvjahJ41NN7aa8lvnPf27EOmzQqivlX7/oGv
vizQkUyNMgY2UmRt046iHACmjcXrMWGAByaG3DtFhFUJ7QBlfGMcGdVJc55Lo6Gt
PxDeBbGYa2CCcYB2s1TVDjbz79ww2qZ5ox7Et0ixc9nXIv3nIQBTcQ4oA7wjJ29R
66aMiu3E9l8h7BQq2yuXpNwHgrl5WabMHEc89OkOif/y8hviwJk10RIANM1m2+y6
+rqC/vmC2005hUBk5EC/dcX4bFDPH/K1PIjV+mDxr+7tYZ1IGQ5GhMY83xG0UysF
4QhEvlMDclKITOKF6dLixCaFl8eUs09eyQiwYHWJX6Xo4xPNf10bEQuX/wUf7K2z
3XunAMnDlnlm1cDeOLnP+ukDj3EA35KqqG5dil7JKtDYXWx2zJfUc/W6ECH9JwPF
t9TE9DlXl6qdnoamLDAqAK98OuzGlQziZ5h30CfkbyLZ5jeNhG4RzHO02u9kw5R3
g2cR+zykrIshbcQycSKBURS64auuO0eQ6knizglkGousdKycrF4U+/Ex+oorB9kJ
q4InHt3/sNkkJX5LAY7gHmwRFALQXEqSmrFmyNTw5aUDN1A2kZclfoQ1qxe463Tm
ATQyWnoQiNsTqJcO4YsfiuU9IhGe9cKcnqfGRfhteMzmc/kyNPBAK4zVRYKBup4c
/QIDAQABo4IBYzCCAV8wCQYDVR0TBAIwADAtBglghkgBhvhCAQ0EIBYeRWFzeS1S
U0EgR2VuZXJhdGVkIENlcnRpZmljYXRlMB0GA1UdDgQWBBSn8D6Jp2GNWgdW4dTG
Nh+1I0j5ZTCB4QYDVR0jBIHZMIHWgBQSzWAE0qCAnnDtxpm4eyzGUv0ZoaGBsqSB
rzCBrDELMAkGA1UEBhMCVVMxCzAJBgNVBAgTAk9IMREwDwYDVQQHEwhDb2x1bWJ1
czESMBAGA1UEChMJVmlraW5nVlBOMR0wGwYDVQQLExRNeU9yZ2FuaXphdGlvbmFs
VW5pdDEVMBMGA1UEAxMMVmlraW5nVlBOIENBMRAwDgYDVQQpEwdFYXN5UlNBMSEw
HwYJKoZIhvcNAQkBFhJtZUBteWhvc3QubXlkb21haW6CCQDPNYXugL8qPjATBgNV
HSUEDDAKBggrBgEFBQcDAjALBgNVHQ8EBAMCB4AwDQYJKoZIhvcNAQELBQADggIB
AH4GNEZba6BxWBzq6UQrU0N/WSkW5zH/rs57iKpueTx3+J3iMjZT6HQ4jHb2Vkjy
/6RQmugl3X9ai8VSHcSvwnYwVVMUB5qs0EC7gLg+eVykqt/BxZijQ/csXcieJT1Z
wGkkqzWkWM0wmhUzFpsXHDf5KqxZwu36eMFG7a+58Oj5u+/5WyPEkyNcRCMZnfM4
yhpHvXq1mwNzJ6yuqAGYebnqcd5Ry1aIJILp7kKjFeosgwDCYX/GttAunfbI2lpH
MFl4nkIt7m3tcxCljlS9nOdAiGwgZtnqY8Z6hAB+cyH4PK1P1VDlHOivW0vR/4Yl
dwbfkc0VUuLp5cKpbzsP0z8K4TrKO43QzgM8xUYueeKTOmDc7ThUCgmrNGZlhmTh
aVsZ+42bEAO+AZ71mTPDw3xPlLH0R9N8ky4AbhXxcKL8SKDMZTgcCmpKp3iOCGHE
Onyq30hlkDm1q/LFoibHpo+blwXzdmiadnZwXUTLMhUjh1YnhjjVfDa+u4T8XbgQ
mTYhfABz4romf/XP2hbynueaKC5BwI6BUQ94UEDvYaWZ1ZVBIuiVMlTML0KhnJp0
Ff7n3yqhWfmhStsUBchpkT2dkFRgiVFYk19DrcwgISD9sEz6jtvmsTltNp70Lu/B
vT4J0q41jilFNxplRbGPtKfcGGeLpC+zvzkH3XBKk/Ha
-----END CERTIFICATE-----
