Certificate:
    Data:
        Version: 3 (0x2)
        Serial Number: 12851 (0x3233)
    Signature Algorithm: sha256WithRSAEncryption
        Issuer: C=US, ST=OH, L=Columbus, O=VikingVPN, OU=MyOrganizationalUnit, CN=VikingVPN CA/name=EasyRSA/emailAddress=me@myhost.mydomain
        Validity
            Not Before: Mar 31 18:47:09 2018 GMT
            Not After : Mar 28 18:47:09 2028 GMT
        Subject: CN=Client2836Certaca18d
        Subject Public Key Info:
            Public Key Algorithm: rsaEncryption
                Public-Key: (4096 bit)
                Modulus:
                    00:ba:b2:20:6b:bd:c3:67:78:c9:af:54:48:92:fd:
                    51:5e:16:9b:f2:a5:95:e0:4e:70:96:05:80:1a:80:
                    b4:ba:61:ab:5a:38:87:15:a3:d1:fb:5d:bc:87:0a:
                    31:4f:42:4c:a0:46:11:fb:2d:cc:b4:e7:2e:f9:63:
                    89:2b:c5:ee:f4:23:c0:97:9b:3f:4a:46:d8:80:d3:
                    b1:93:64:80:19:dc:62:d6:ff:92:49:8c:4e:92:cb:
                    6b:29:67:17:0a:13:20:06:e6:8c:e1:aa:ac:38:6d:
                    b0:a6:1f:9a:b3:91:4b:c6:09:3d:ee:48:3e:c0:1a:
                    2d:39:2c:a8:73:7a:1a:5d:1b:c7:c4:44:d8:35:37:
                    f2:11:b9:ad:b3:72:41:d1:a7:6f:12:d9:82:9b:ee:
                    a0:04:b8:27:8c:a0:7d:bc:73:f7:7a:8f:3b:3e:51:
                    62:e7:f8:b6:8c:ed:ae:50:c9:54:5b:77:de:49:a6:
                    66:de:7d:ca:71:c5:aa:ca:d5:8a:dc:14:b7:a2:ef:
                    3e:e2:1a:7f:11:b5:5e:e5:92:76:32:3b:76:4e:89:
                    f3:22:5f:b5:0a:35:8a:a1:3a:51:f8:5d:82:f5:31:
                    bd:de:18:dc:b1:f7:78:58:b5:84:39:ee:07:e9:5d:
                    97:6d:0e:e5:a2:40:1f:fd:55:da:66:2a:4a:e7:62:
                    e2:78:22:7a:15:c1:03:25:c4:a7:99:67:77:66:11:
                    f6:77:3f:1f:f0:66:54:95:bd:a2:1c:22:b8:25:82:
                    9e:28:52:3d:a1:44:53:81:f3:23:4d:1d:9a:fb:81:
                    0f:3d:64:86:fb:0d:b6:78:70:1d:f5:48:50:28:83:
                    6a:75:e6:c4:df:73:8a:7b:21:cf:70:1f:01:8a:9a:
                    5f:51:68:c7:1c:94:53:96:62:31:15:cb:be:3d:c3:
                    91:09:47:d4:fb:1a:bb:28:00:ff:b5:b1:af:ec:a0:
                    ad:d0:11:65:37:f9:e0:2e:5a:d8:d3:2f:78:f7:aa:
                    60:83:06:10:13:55:e1:8b:63:ff:84:ea:33:92:ce:
                    e1:3d:70:a6:8f:a6:59:29:d2:de:49:e4:7f:8f:51:
                    cf:55:b1:79:ce:b4:95:33:23:13:39:e4:1b:f4:66:
                    ee:ad:66:37:d4:9f:0b:2a:f5:0b:10:fd:e4:cc:ef:
                    3e:94:b0:34:94:40:74:79:82:60:f0:3c:fe:1c:42:
                    b8:ad:fa:7d:ec:29:d7:ba:4c:69:39:a8:4e:28:d1:
                    38:9f:7e:81:59:3e:57:55:3d:94:07:83:86:41:12:
                    62:ca:f3:05:00:fa:2b:0e:7b:56:89:cd:8b:18:87:
                    74:ef:bc:c3:19:da:5f:97:7a:b7:19:82:ca:ac:0f:
                    0d:84:0b
                Exponent: 65537 (0x10001)
        X509v3 extensions:
            X509v3 Basic Constraints: 
                CA:FALSE
            Netscape Comment: 
                Easy-RSA Generated Certificate
            X509v3 Subject Key Identifier: 
                19:B1:8D:A3:96:F3:F9:E6:0E:F4:40:E5:C5:5B:4A:5C:06:8F:4D:6F
            X509v3 Authority Key Identifier: 
                keyid:12:CD:60:04:D2:A0:80:9E:70:ED:C6:99:B8:7B:2C:C6:52:FD:19:A1
                DirName:/C=US/ST=OH/L=Columbus/O=VikingVPN/OU=MyOrganizationalUnit/CN=VikingVPN CA/name=EasyRSA/emailAddress=me@myhost.mydomain
                serial:CF:35:85:EE:80:BF:2A:3E

            X509v3 Extended Key Usage: 
                TLS Web Client Authentication
            X509v3 Key Usage: 
                Digital Signature
    Signature Algorithm: sha256WithRSAEncryption
         da:73:b3:b3:da:cc:69:be:1f:be:08:7c:85:34:0e:a2:ce:fe:
         ad:be:81:a5:42:ec:0e:3c:0c:d4:0b:c8:8f:1d:5b:0d:61:53:
         0d:25:c0:b3:1b:45:25:89:46:e2:c1:d8:1e:90:94:eb:6d:19:
         65:5e:7e:da:b7:34:72:02:6f:32:fa:b1:5e:5f:91:c6:5e:e2:
         5d:a2:84:fa:74:b0:e7:b8:08:cd:e9:18:9b:9c:2f:1c:6e:7e:
         11:4f:1d:64:fa:4e:bb:8e:bd:e7:24:51:f2:02:3a:1c:24:f3:
         10:65:38:f3:33:9f:6e:74:1b:72:63:42:ed:fb:f1:36:81:ab:
         2a:8a:96:00:8c:dc:60:7a:f3:aa:a7:64:b1:e9:8b:90:8b:11:
         8d:ef:77:61:4e:ea:ba:08:76:58:a3:74:40:26:01:93:6c:91:
         c6:ed:b1:4c:13:a1:73:b7:ea:8a:a5:ad:27:48:16:fe:e3:ac:
         87:2c:79:66:80:1d:50:c9:d6:80:c9:06:be:2f:c2:76:5e:d9:
         db:5f:77:d6:4e:c5:ce:56:7f:23:a1:d0:44:52:af:72:88:2a:
         57:7f:f7:2f:36:10:7a:81:81:4c:de:b9:74:be:4d:0f:57:e4:
         4d:4e:89:25:d1:79:ec:99:08:52:b3:38:a8:7b:de:8b:53:b7:
         d3:cb:27:30:cd:df:cd:3b:09:c9:42:31:10:d0:d4:4a:fd:b7:
         d2:af:4f:b9:c3:be:14:23:7d:01:33:a0:77:d6:e5:d4:a3:a8:
         81:05:ea:88:45:76:95:d1:40:62:2b:92:7f:29:ab:1e:76:13:
         ff:e2:21:6a:b6:6f:2e:c0:0c:54:61:ac:d7:6f:81:35:26:e8:
         60:bb:16:58:76:24:b0:08:c5:8b:55:f8:2d:9b:ad:d1:4a:92:
         46:0b:3b:70:89:87:44:0b:47:77:05:49:5d:b2:16:9b:a8:c0:
         be:f7:21:84:92:1f:de:ca:f2:03:68:a0:41:5f:a4:55:6f:88:
         a4:0d:4a:5c:cc:a6:89:c0:9f:06:db:b1:7b:1c:7f:d4:92:da:
         71:77:a0:b8:5f:d7:ea:a5:7e:63:bc:9a:27:a7:56:5c:5f:70:
         cb:19:dc:ca:3a:42:35:f8:14:98:bf:b9:ad:ee:9d:a8:e9:48:
         b8:fb:90:ea:b0:c1:98:d0:3e:6c:e6:fc:b7:99:db:dc:e7:46:
         ee:20:1f:ca:aa:e6:58:56:43:1e:21:24:b9:db:a9:0e:58:2b:
         d4:31:00:a9:02:5c:de:21:bf:4e:40:29:83:4b:62:3c:7f:df:
         87:ee:e8:6a:7c:c4:0f:28:dc:8f:09:88:f4:48:85:d4:6f:e9:
         d2:6c:f7:a0:03:09:78:ce
-----BEGIN CERTIFICATE-----
MIIGrTCCBJWgAwIBAgICMjMwDQYJKoZIhvcNAQELBQAwgawxCzAJBgNVBAYTAlVT
MQswCQYDVQQIEwJPSDERMA8GA1UEBxMIQ29sdW1idXMxEjAQBgNVBAoTCVZpa2lu
Z1ZQTjEdMBsGA1UECxMUTXlPcmdhbml6YXRpb25hbFVuaXQxFTATBgNVBAMTDFZp
a2luZ1ZQTiBDQTEQMA4GA1UEKRMHRWFzeVJTQTEhMB8GCSqGSIb3DQEJARYSbWVA
bXlob3N0Lm15ZG9tYWluMB4XDTE4MDMzMTE4NDcwOVoXDTI4MDMyODE4NDcwOVow
HzEdMBsGA1UEAxMUQ2xpZW50MjgzNkNlcnRhY2ExOGQwggIiMA0GCSqGSIb3DQEB
AQUAA4ICDwAwggIKAoICAQC6siBrvcNneMmvVEiS/VFeFpvypZXgTnCWBYAagLS6
YataOIcVo9H7XbyHCjFPQkygRhH7Lcy05y75Y4krxe70I8CXmz9KRtiA07GTZIAZ
3GLW/5JJjE6Sy2spZxcKEyAG5ozhqqw4bbCmH5qzkUvGCT3uSD7AGi05LKhzehpd
G8fERNg1N/IRua2zckHRp28S2YKb7qAEuCeMoH28c/d6jzs+UWLn+LaM7a5QyVRb
d95JpmbefcpxxarK1YrcFLei7z7iGn8RtV7lknYyO3ZOifMiX7UKNYqhOlH4XYL1
Mb3eGNyx93hYtYQ57gfpXZdtDuWiQB/9VdpmKkrnYuJ4InoVwQMlxKeZZ3dmEfZ3
Px/wZlSVvaIcIrglgp4oUj2hRFOB8yNNHZr7gQ89ZIb7DbZ4cB31SFAog2p15sTf
c4p7Ic9wHwGKml9RaMcclFOWYjEVy749w5EJR9T7GrsoAP+1sa/soK3QEWU3+eAu
WtjTL3j3qmCDBhATVeGLY/+E6jOSzuE9cKaPplkp0t5J5H+PUc9VsXnOtJUzIxM5
5Bv0Zu6tZjfUnwsq9QsQ/eTM7z6UsDSUQHR5gmDwPP4cQrit+n3sKde6TGk5qE4o
0TiffoFZPldVPZQHg4ZBEmLK8wUA+isOe1aJzYsYh3TvvMMZ2l+XercZgsqsDw2E
CwIDAQABo4IBYzCCAV8wCQYDVR0TBAIwADAtBglghkgBhvhCAQ0EIBYeRWFzeS1S
U0EgR2VuZXJhdGVkIENlcnRpZmljYXRlMB0GA1UdDgQWBBQZsY2jlvP55g70QOXF
W0pcBo9NbzCB4QYDVR0jBIHZMIHWgBQSzWAE0qCAnnDtxpm4eyzGUv0ZoaGBsqSB
rzCBrDELMAkGA1UEBhMCVVMxCzAJBgNVBAgTAk9IMREwDwYDVQQHEwhDb2x1bWJ1
czESMBAGA1UEChMJVmlraW5nVlBOMR0wGwYDVQQLExRNeU9yZ2FuaXphdGlvbmFs
VW5pdDEVMBMGA1UEAxMMVmlraW5nVlBOIENBMRAwDgYDVQQpEwdFYXN5UlNBMSEw
HwYJKoZIhvcNAQkBFhJtZUBteWhvc3QubXlkb21haW6CCQDPNYXugL8qPjATBgNV
HSUEDDAKBggrBgEFBQcDAjALBgNVHQ8EBAMCB4AwDQYJKoZIhvcNAQELBQADggIB
ANpzs7PazGm+H74IfIU0DqLO/q2+gaVC7A48DNQLyI8dWw1hUw0lwLMbRSWJRuLB
2B6QlOttGWVeftq3NHICbzL6sV5fkcZe4l2ihPp0sOe4CM3pGJucLxxufhFPHWT6
TruOveckUfICOhwk8xBlOPMzn250G3JjQu378TaBqyqKlgCM3GB686qnZLHpi5CL
EY3vd2FO6roIdlijdEAmAZNskcbtsUwToXO36oqlrSdIFv7jrIcseWaAHVDJ1oDJ
Br4vwnZe2dtfd9ZOxc5WfyOh0ERSr3KIKld/9y82EHqBgUzeuXS+TQ9X5E1OiSXR
eeyZCFKzOKh73otTt9PLJzDN3807CclCMRDQ1Er9t9KvT7nDvhQjfQEzoHfW5dSj
qIEF6ohFdpXRQGIrkn8pqx52E//iIWq2by7ADFRhrNdvgTUm6GC7Flh2JLAIxYtV
+C2brdFKkkYLO3CJh0QLR3cFSV2yFpuowL73IYSSH97K8gNooEFfpFVviKQNSlzM
ponAnwbbsXscf9SS2nF3oLhf1+qlfmO8mienVlxfcMsZ3Mo6QjX4FJi/ua3unajp
SLj7kOqwwZjQPmzm/LeZ29znRu4gH8qq5lhWQx4hJLnbqQ5YK9QxAKkCXN4hv05A
KYNLYjx/34fu6Gp8xA8o3I8JiPRIhdRv6dJs96ADCXjO
-----END CERTIFICATE-----
