Certificate:
    Data:
        Version: 3 (0x2)
        Serial Number: 6613 (0x19d5)
    Signature Algorithm: md5WithRSAEncryption
        Issuer: C=US, ST=OH, L=Columbus, O=VikingVPN, OU=MyOrganizationalUnit, CN=VikingVPN CA/name=EasyRSA/emailAddress=me@myhost.mydomain
        Validity
            Not Before: Nov  2 22:37:24 2015 GMT
            Not After : Oct 30 22:37:24 2025 GMT
        Subject: CN=Client1219Cert66ecfe
        Subject Public Key Info:
            Public Key Algorithm: rsaEncryption
                Public-Key: (4096 bit)
                Modulus:
                    00:db:75:ef:47:d9:94:b8:d8:ff:05:d1:bf:cf:27:
                    f4:89:57:c4:96:6d:dc:c8:84:54:85:12:70:09:ef:
                    95:0b:bb:92:81:52:8f:e9:c0:11:c9:26:f4:6b:4d:
                    af:4a:82:2f:c8:a7:06:e8:96:d5:4f:f5:ad:7e:28:
                    67:85:80:bf:9f:a1:54:6f:dc:38:ef:78:d2:8a:2d:
                    95:73:29:bf:5c:1c:e1:22:e8:ea:9c:40:34:d4:53:
                    f8:8e:7b:5d:7f:61:75:70:4f:b2:44:0f:f8:ca:a9:
                    e4:27:6f:e1:6b:7a:1d:2f:c7:41:f3:25:e7:c1:dc:
                    ec:7c:cd:2e:05:cf:90:92:79:b9:5b:e5:9f:c1:33:
                    73:6b:ee:c2:0d:f4:47:88:4f:36:0c:f1:08:cd:ea:
                    8f:d2:b5:dd:52:a9:34:a4:cd:7a:db:dc:1e:72:8a:
                    72:84:82:0f:02:ca:18:ca:52:56:47:4b:da:5d:a7:
                    de:2f:a9:be:23:2e:a2:5c:77:41:33:67:b9:f0:09:
                    02:19:9e:8f:6c:8d:9f:cc:bf:b8:ec:b1:ca:26:39:
                    bf:bd:14:39:44:ce:0f:b8:9f:e0:fa:87:0f:dd:d6:
                    f1:15:ba:b7:ef:77:44:96:12:57:48:76:45:86:e4:
                    72:0f:7a:5c:39:d9:36:9e:81:a4:6b:5b:c0:f5:bb:
                    53:59:0e:64:cc:d6:2f:53:e3:5e:db:76:c1:d6:53:
                    26:5b:6a:3f:c9:46:99:d5:88:c5:ea:e0:71:16:48:
                    b1:e3:8c:27:32:77:f9:50:f8:4d:28:c7:77:99:9c:
                    83:b3:95:97:2a:24:79:00:4f:5b:3f:ef:6f:cc:1e:
                    db:43:7b:d2:03:53:20:0a:50:34:72:76:8f:66:09:
                    56:0d:b2:b1:53:08:4d:46:df:cd:22:69:2c:00:ed:
                    68:a1:aa:6f:f6:a0:6f:08:98:7b:92:4d:b4:d8:b4:
                    09:c7:cb:b5:d1:9f:e5:9e:16:fe:6b:77:1f:ec:5a:
                    78:70:77:5e:fa:2b:c0:77:0c:0e:b8:f5:c4:02:44:
                    5a:27:25:7c:c4:50:00:f1:9c:cd:7d:2b:c6:62:95:
                    6e:3a:a8:84:ff:94:b8:37:c7:c1:71:dd:6c:11:c4:
                    62:7d:83:ec:52:57:a7:65:d5:3d:62:1d:cc:03:69:
                    3e:1d:06:73:5a:d5:53:06:27:c5:10:09:b6:ce:29:
                    17:bf:41:79:6f:72:ae:8a:9b:12:4d:91:91:36:c1:
                    b5:51:4d:3d:4c:7a:a6:3e:1f:ea:15:b5:d1:00:91:
                    78:f2:17:42:da:18:aa:28:97:3e:18:d0:60:77:97:
                    7a:83:40:47:9e:de:fd:01:ec:87:49:f9:e4:9b:2d:
                    1c:cb:5b
                Exponent: 65537 (0x10001)
        X509v3 extensions:
            X509v3 Basic Constraints: 
                CA:FALSE
            Netscape Comment: 
                Easy-RSA Generated Certificate
            X509v3 Subject Key Identifier: 
                76:B7:BB:31:FC:27:D6:47:09:95:0A:44:7D:C4:B8:73:7F:15:04:09
            X509v3 Authority Key Identifier: 
                keyid:12:CD:60:04:D2:A0:80:9E:70:ED:C6:99:B8:7B:2C:C6:52:FD:19:A1
                DirName:/C=US/ST=OH/L=Columbus/O=VikingVPN/OU=MyOrganizationalUnit/CN=VikingVPN CA/name=EasyRSA/emailAddress=me@myhost.mydomain
                serial:CF:35:85:EE:80:BF:2A:3E

            X509v3 Extended Key Usage: 
                TLS Web Client Authentication
            X509v3 Key Usage: 
                Digital Signature
    Signature Algorithm: md5WithRSAEncryption
         21:47:71:84:56:08:dc:51:08:ab:d1:ed:8a:f4:82:03:1f:9a:
         bf:e8:75:dc:9b:45:8f:5a:a0:65:0e:89:6f:83:7c:37:08:5e:
         1f:5e:90:61:b1:89:f9:c9:f3:db:bf:b2:55:23:3a:a5:e8:8d:
         e2:be:c5:03:73:d3:d6:71:c8:28:1f:a6:16:5f:ee:92:c7:95:
         5f:99:9a:94:c1:62:06:7f:1d:ea:e7:e9:4b:e9:e8:cf:e1:20:
         da:4e:f4:3d:82:8e:e8:c8:de:01:6f:62:de:fb:45:fc:8f:81:
         a2:44:8e:37:d1:c7:e7:73:a6:57:48:aa:c2:da:d1:47:3d:e5:
         75:0b:c1:4d:d3:b4:08:90:f6:ce:3c:49:b0:80:9e:15:4f:6e:
         eb:8d:32:c7:e0:24:1f:06:44:f4:c6:57:94:d3:37:27:a7:f4:
         1e:5b:b6:da:f0:77:e8:de:1f:61:e6:33:86:68:ec:c0:fc:d6:
         5d:f6:de:7a:51:51:f8:d9:52:6b:3d:c5:29:f9:9b:85:eb:1e:
         29:6a:9d:5d:b0:52:23:54:43:d7:d5:0a:7a:b8:a3:8e:3a:e8:
         4f:56:1b:46:a6:de:73:06:0a:71:f8:b5:1f:e4:9c:93:ca:0a:
         28:7c:5e:ac:54:d3:71:1b:e6:d1:ca:3a:c9:43:e9:ab:ad:8c:
         d1:a3:ef:9d:ec:2e:10:9e:ad:00:f3:4f:4e:f4:9a:ed:c3:97:
         6a:7b:fd:9a:9f:b0:06:67:4e:b6:9a:14:52:ba:68:49:e6:18:
         65:d7:a5:47:8c:fc:d3:e7:e9:21:6f:9c:36:a7:b3:70:35:54:
         8c:db:23:79:f3:7a:73:41:33:af:6e:03:99:33:46:77:87:63:
         60:aa:98:8f:81:9c:59:f4:b8:be:64:54:9b:4a:cc:74:59:46:
         8b:0e:66:1b:60:e6:33:e6:3a:b5:ba:af:b0:f3:0b:a6:f7:2c:
         d0:92:21:b2:cb:54:2f:bb:a3:42:75:d0:67:d7:0c:07:19:a6:
         0c:34:fd:a4:f0:aa:e2:75:ed:41:d3:3c:7e:23:ca:eb:9a:fb:
         c0:02:f6:37:0d:8b:a9:54:d2:de:30:b7:8c:7b:ab:92:b6:af:
         c9:98:c5:00:d0:39:56:39:b5:a9:c0:71:11:48:1a:2e:ae:de:
         b6:eb:7e:eb:80:ea:9b:33:f5:42:98:e1:8a:d3:f2:63:7e:7d:
         d2:e7:8f:bc:80:ab:44:0e:7e:1b:87:05:64:d3:82:da:fa:21:
         7c:44:c5:31:6f:1b:34:3b:dd:84:7f:f9:3b:d3:98:21:ce:96:
         a5:db:90:10:7e:ab:9f:48:99:54:12:cd:1c:7e:bc:ee:c2:86:
         c9:1e:47:2c:ff:c5:84:df
-----BEGIN CERTIFICATE-----
MIIGrTCCBJWgAwIBAgICGdUwDQYJKoZIhvcNAQEEBQAwgawxCzAJBgNVBAYTAlVT
MQswCQYDVQQIEwJPSDERMA8GA1UEBxMIQ29sdW1idXMxEjAQBgNVBAoTCVZpa2lu
Z1ZQTjEdMBsGA1UECxMUTXlPcmdhbml6YXRpb25hbFVuaXQxFTATBgNVBAMTDFZp
a2luZ1ZQTiBDQTEQMA4GA1UEKRMHRWFzeVJTQTEhMB8GCSqGSIb3DQEJARYSbWVA
bXlob3N0Lm15ZG9tYWluMB4XDTE1MTEwMjIyMzcyNFoXDTI1MTAzMDIyMzcyNFow
HzEdMBsGA1UEAxMUQ2xpZW50MTIxOUNlcnQ2NmVjZmUwggIiMA0GCSqGSIb3DQEB
AQUAA4ICDwAwggIKAoICAQDbde9H2ZS42P8F0b/PJ/SJV8SWbdzIhFSFEnAJ75UL
u5KBUo/pwBHJJvRrTa9Kgi/IpwboltVP9a1+KGeFgL+foVRv3DjveNKKLZVzKb9c
HOEi6OqcQDTUU/iOe11/YXVwT7JED/jKqeQnb+Freh0vx0HzJefB3Ox8zS4Fz5CS
eblb5Z/BM3Nr7sIN9EeITzYM8QjN6o/Std1SqTSkzXrb3B5yinKEgg8CyhjKUlZH
S9pdp94vqb4jLqJcd0EzZ7nwCQIZno9sjZ/Mv7jsscomOb+9FDlEzg+4n+D6hw/d
1vEVurfvd0SWEldIdkWG5HIPelw52TaegaRrW8D1u1NZDmTM1i9T417bdsHWUyZb
aj/JRpnViMXq4HEWSLHjjCcyd/lQ+E0ox3eZnIOzlZcqJHkAT1s/72/MHttDe9ID
UyAKUDRydo9mCVYNsrFTCE1G380iaSwA7Wihqm/2oG8ImHuSTbTYtAnHy7XRn+We
Fv5rdx/sWnhwd176K8B3DA649cQCRFonJXzEUADxnM19K8ZilW46qIT/lLg3x8Fx
3WwRxGJ9g+xSV6dl1T1iHcwDaT4dBnNa1VMGJ8UQCbbOKRe/QXlvcq6KmxJNkZE2
wbVRTT1MeqY+H+oVtdEAkXjyF0LaGKoolz4Y0GB3l3qDQEee3v0B7IdJ+eSbLRzL
WwIDAQABo4IBYzCCAV8wCQYDVR0TBAIwADAtBglghkgBhvhCAQ0EIBYeRWFzeS1S
U0EgR2VuZXJhdGVkIENlcnRpZmljYXRlMB0GA1UdDgQWBBR2t7sx/CfWRwmVCkR9
xLhzfxUECTCB4QYDVR0jBIHZMIHWgBQSzWAE0qCAnnDtxpm4eyzGUv0ZoaGBsqSB
rzCBrDELMAkGA1UEBhMCVVMxCzAJBgNVBAgTAk9IMREwDwYDVQQHEwhDb2x1bWJ1
czESMBAGA1UEChMJVmlraW5nVlBOMR0wGwYDVQQLExRNeU9yZ2FuaXphdGlvbmFs
VW5pdDEVMBMGA1UEAxMMVmlraW5nVlBOIENBMRAwDgYDVQQpEwdFYXN5UlNBMSEw
HwYJKoZIhvcNAQkBFhJtZUBteWhvc3QubXlkb21haW6CCQDPNYXugL8qPjATBgNV
HSUEDDAKBggrBgEFBQcDAjALBgNVHQ8EBAMCB4AwDQYJKoZIhvcNAQEEBQADggIB
ACFHcYRWCNxRCKvR7Yr0ggMfmr/oddybRY9aoGUOiW+DfDcIXh9ekGGxifnJ89u/
slUjOqXojeK+xQNz09ZxyCgfphZf7pLHlV+ZmpTBYgZ/Hern6Uvp6M/hINpO9D2C
jujI3gFvYt77RfyPgaJEjjfRx+dzpldIqsLa0Uc95XULwU3TtAiQ9s48SbCAnhVP
buuNMsfgJB8GRPTGV5TTNyen9B5bttrwd+jeH2HmM4Zo7MD81l323npRUfjZUms9
xSn5m4XrHilqnV2wUiNUQ9fVCnq4o4466E9WG0am3nMGCnH4tR/knJPKCih8XqxU
03Eb5tHKOslD6autjNGj753sLhCerQDzT070mu3Dl2p7/ZqfsAZnTraaFFK6aEnm
GGXXpUeM/NPn6SFvnDans3A1VIzbI3nzenNBM69uA5kzRneHY2CqmI+BnFn0uL5k
VJtKzHRZRosOZhtg5jPmOrW6r7DzC6b3LNCSIbLLVC+7o0J10GfXDAcZpgw0/aTw
quJ17UHTPH4jyuua+8AC9jcNi6lU0t4wt4x7q5K2r8mYxQDQOVY5tanAcRFIGi6u
3rbrfuuA6psz9UKY4YrT8mN+fdLnj7yAq0QOfhuHBWTTgtr6IXxExTFvGzQ73YR/
+TvTmCHOlqXbkBB+q59ImVQSzRx+vO7ChskeRyz/xYTf
-----END CERTIFICATE-----
