Certificate:
    Data:
        Version: 3 (0x2)
        Serial Number: 12462 (0x30ae)
    Signature Algorithm: sha256WithRSAEncryption
        Issuer: C=US, ST=OH, L=Columbus, O=VikingVPN, OU=MyOrganizationalUnit, CN=VikingVPN CA/name=EasyRSA/emailAddress=me@myhost.mydomain
        Validity
            Not Before: Jan 22 21:46:55 2018 GMT
            Not After : Jan 20 21:46:55 2028 GMT
        Subject: CN=Client1643Cert5c3f75
        Subject Public Key Info:
            Public Key Algorithm: rsaEncryption
                Public-Key: (4096 bit)
                Modulus:
                    00:c4:ae:8b:79:7c:0a:28:0d:ec:91:6c:ff:ab:0e:
                    c9:7e:79:28:e5:84:c6:da:e3:20:eb:d8:53:3c:e0:
                    48:11:1f:d7:09:0e:dd:09:74:4b:b4:35:3c:f6:d6:
                    65:46:01:bf:f1:71:fb:d3:6b:79:b5:e6:3c:09:8d:
                    32:b5:66:2c:17:e5:6c:d4:e0:5d:48:36:0d:f7:92:
                    ff:a7:83:6a:87:53:ad:ac:65:c5:9e:ed:60:94:c7:
                    f1:3f:b8:32:00:30:d4:1c:0f:d2:28:53:e3:00:00:
                    67:51:16:37:7d:ff:53:12:e7:1e:52:f9:4c:32:33:
                    aa:80:2a:4e:e1:0d:98:4c:bc:99:b2:05:b7:52:b6:
                    a4:a8:5c:4b:4a:25:c4:e6:8c:cb:2c:70:51:a9:3f:
                    48:a7:a4:34:91:8a:dd:36:5a:43:90:df:75:f9:57:
                    6d:91:5b:3f:d8:44:a5:2d:8a:89:42:2f:0c:b9:9d:
                    cf:91:fb:c9:00:5a:8f:ad:13:2f:1d:a4:f4:62:c8:
                    b7:29:a8:4d:aa:1d:28:61:6a:27:ab:cd:bb:9d:7d:
                    92:68:dd:5f:d2:85:09:9a:46:67:91:03:38:da:a9:
                    58:b9:65:a8:a3:83:b5:28:0f:92:44:81:9b:35:f7:
                    2b:da:59:ab:ca:6a:e6:f4:c1:b9:b4:0b:30:70:ff:
                    3b:cc:a8:80:f8:9f:90:c7:19:40:e0:0c:57:69:0f:
                    68:8c:4d:31:f7:e8:1e:2a:98:64:f0:6a:1d:48:99:
                    5c:46:b7:d1:4b:a4:ee:11:f2:63:e2:c0:97:78:05:
                    97:31:26:80:4c:1c:95:77:4e:ff:c7:ab:93:8f:b4:
                    d0:24:36:13:05:00:62:38:e7:93:19:7d:7b:06:13:
                    08:cb:98:f9:ae:e6:dd:e1:38:87:a2:e7:90:1c:09:
                    87:df:dc:0c:d6:07:08:3d:81:f6:0d:b2:a3:0f:a4:
                    bb:75:f3:55:d0:95:cc:ae:a8:c0:d6:36:2f:33:bc:
                    39:3e:de:4f:49:26:34:2f:d5:3e:b5:d9:65:27:95:
                    5b:eb:94:27:5c:b2:02:58:ea:94:bf:b8:74:c8:46:
                    2e:19:96:66:ba:d2:a9:c1:0f:1a:dc:be:8c:b6:43:
                    7f:15:76:65:31:34:f1:f5:d8:c2:46:47:de:78:c0:
                    b2:9f:2f:5a:3d:ca:f2:52:e8:09:48:ec:09:4b:97:
                    a2:ac:8a:9c:46:51:f6:03:c0:58:22:91:2d:c8:df:
                    ec:2c:d7:b9:db:f6:9a:d5:76:0d:d8:fd:42:aa:c3:
                    09:d9:97:b6:12:b3:f0:0c:1f:66:30:e5:51:9a:57:
                    7a:5a:48:41:4d:29:cd:6d:9c:a9:98:da:63:17:ec:
                    4c:d1:e7
                Exponent: 65537 (0x10001)
        X509v3 extensions:
            X509v3 Basic Constraints: 
                CA:FALSE
            Netscape Comment: 
                Easy-RSA Generated Certificate
            X509v3 Subject Key Identifier: 
                B1:BC:89:E4:C2:C9:40:B7:D5:3B:7D:79:92:3F:3A:F8:F3:60:24:8B
            X509v3 Authority Key Identifier: 
                keyid:12:CD:60:04:D2:A0:80:9E:70:ED:C6:99:B8:7B:2C:C6:52:FD:19:A1
                DirName:/C=US/ST=OH/L=Columbus/O=VikingVPN/OU=MyOrganizationalUnit/CN=VikingVPN CA/name=EasyRSA/emailAddress=me@myhost.mydomain
                serial:CF:35:85:EE:80:BF:2A:3E

            X509v3 Extended Key Usage: 
                TLS Web Client Authentication
            X509v3 Key Usage: 
                Digital Signature
    Signature Algorithm: sha256WithRSAEncryption
         55:91:ae:3b:91:25:a6:01:8e:b5:2c:95:80:4d:b1:ff:9c:5b:
         8c:13:58:ff:31:75:14:bf:15:12:a5:b0:77:29:7c:96:9c:73:
         bc:f5:9b:f6:18:16:e7:35:1b:81:b9:71:7c:87:0b:dd:b8:b1:
         39:96:15:34:68:52:2f:52:a0:b7:bd:0c:43:be:ec:69:04:28:
         9f:bc:e4:f0:e2:ff:ba:85:05:03:73:bc:70:b3:df:a5:9d:43:
         d9:9d:97:38:39:32:f7:65:d0:b0:3e:9e:8d:0e:ab:bc:6a:89:
         d6:5d:29:be:3d:58:db:f2:02:98:89:0d:1c:e6:1a:73:00:69:
         ef:a4:30:33:40:4d:ef:61:74:fd:56:1b:01:a7:86:be:25:62:
         cb:7b:68:65:be:f1:76:e5:2c:f8:76:ef:73:06:19:4e:c5:e7:
         5b:7f:1b:ac:1d:8d:3f:8b:b1:80:b2:18:d4:03:58:0d:2e:88:
         8c:95:e2:4c:fb:94:c4:ce:14:bc:a6:a1:23:7d:98:d4:d6:b4:
         0b:de:c6:42:4c:3f:bc:63:52:83:9e:91:6e:fa:19:97:12:d0:
         ed:39:45:5b:5a:ac:2b:d5:32:0c:f6:7d:f5:7b:60:9d:86:2e:
         35:0f:39:13:19:eb:25:49:b4:08:89:1d:22:58:a7:14:e8:aa:
         b9:aa:10:53:ef:b1:6d:a1:df:3c:f7:0a:1a:d1:11:31:29:49:
         ac:47:e1:af:1c:26:9a:a0:3f:a0:f1:a2:c9:b2:cb:aa:b0:b7:
         d9:8a:1e:7a:da:71:87:e2:03:89:60:ea:46:51:63:85:33:6f:
         00:33:a1:31:49:c5:8e:b8:a4:c2:8e:b3:aa:9c:53:4c:c1:2a:
         03:3d:af:32:95:41:90:d0:a1:0a:37:51:d4:d7:77:ce:88:93:
         bf:da:6f:ff:3c:75:19:fe:6a:57:12:60:8e:98:6b:9e:f2:06:
         73:4e:a5:95:83:92:5d:a4:f9:df:8b:87:d8:08:9c:39:cb:f4:
         a9:f7:8f:49:b9:7c:5e:5d:75:e1:9d:5d:6b:8c:3f:0a:f4:6b:
         f3:a0:60:cd:72:5e:a3:39:93:8c:44:a8:b4:6b:ef:6b:00:4e:
         25:c9:d9:27:25:94:ae:95:2d:c5:f6:92:8b:fc:37:bd:04:7c:
         d1:6f:d2:73:bc:08:d0:80:88:79:33:c2:ee:34:e5:1c:db:6b:
         93:bb:76:87:70:20:4f:9b:50:42:e6:1b:1e:5a:e8:b4:19:fb:
         53:6a:fd:6e:fc:b1:68:ac:2f:3c:dc:37:1d:29:8f:5c:d1:4f:
         60:28:84:16:fa:55:c1:25:ec:82:03:17:7b:6e:83:cf:b2:1f:
         7c:f0:1c:27:eb:de:78:12
-----BEGIN CERTIFICATE-----
MIIGrTCCBJWgAwIBAgICMK4wDQYJKoZIhvcNAQELBQAwgawxCzAJBgNVBAYTAlVT
MQswCQYDVQQIEwJPSDERMA8GA1UEBxMIQ29sdW1idXMxEjAQBgNVBAoTCVZpa2lu
Z1ZQTjEdMBsGA1UECxMUTXlPcmdhbml6YXRpb25hbFVuaXQxFTATBgNVBAMTDFZp
a2luZ1ZQTiBDQTEQMA4GA1UEKRMHRWFzeVJTQTEhMB8GCSqGSIb3DQEJARYSbWVA
bXlob3N0Lm15ZG9tYWluMB4XDTE4MDEyMjIxNDY1NVoXDTI4MDEyMDIxNDY1NVow
HzEdMBsGA1UEAxMUQ2xpZW50MTY0M0NlcnQ1YzNmNzUwggIiMA0GCSqGSIb3DQEB
AQUAA4ICDwAwggIKAoICAQDErot5fAooDeyRbP+rDsl+eSjlhMba4yDr2FM84EgR
H9cJDt0JdEu0NTz21mVGAb/xcfvTa3m15jwJjTK1ZiwX5WzU4F1INg33kv+ng2qH
U62sZcWe7WCUx/E/uDIAMNQcD9IoU+MAAGdRFjd9/1MS5x5S+UwyM6qAKk7hDZhM
vJmyBbdStqSoXEtKJcTmjMsscFGpP0inpDSRit02WkOQ33X5V22RWz/YRKUtiolC
Lwy5nc+R+8kAWo+tEy8dpPRiyLcpqE2qHShhaierzbudfZJo3V/ShQmaRmeRAzja
qVi5Zaijg7UoD5JEgZs19yvaWavKaub0wbm0CzBw/zvMqID4n5DHGUDgDFdpD2iM
TTH36B4qmGTwah1ImVxGt9FLpO4R8mPiwJd4BZcxJoBMHJV3Tv/Hq5OPtNAkNhMF
AGI455MZfXsGEwjLmPmu5t3hOIei55AcCYff3AzWBwg9gfYNsqMPpLt181XQlcyu
qMDWNi8zvDk+3k9JJjQv1T612WUnlVvrlCdcsgJY6pS/uHTIRi4Zlma60qnBDxrc
voy2Q38VdmUxNPH12MJGR954wLKfL1o9yvJS6AlI7AlLl6KsipxGUfYDwFgikS3I
3+ws17nb9prVdg3Y/UKqwwnZl7YSs/AMH2Yw5VGaV3paSEFNKc1tnKmY2mMX7EzR
5wIDAQABo4IBYzCCAV8wCQYDVR0TBAIwADAtBglghkgBhvhCAQ0EIBYeRWFzeS1S
U0EgR2VuZXJhdGVkIENlcnRpZmljYXRlMB0GA1UdDgQWBBSxvInkwslAt9U7fXmS
Pzr482AkizCB4QYDVR0jBIHZMIHWgBQSzWAE0qCAnnDtxpm4eyzGUv0ZoaGBsqSB
rzCBrDELMAkGA1UEBhMCVVMxCzAJBgNVBAgTAk9IMREwDwYDVQQHEwhDb2x1bWJ1
czESMBAGA1UEChMJVmlraW5nVlBOMR0wGwYDVQQLExRNeU9yZ2FuaXphdGlvbmFs
VW5pdDEVMBMGA1UEAxMMVmlraW5nVlBOIENBMRAwDgYDVQQpEwdFYXN5UlNBMSEw
HwYJKoZIhvcNAQkBFhJtZUBteWhvc3QubXlkb21haW6CCQDPNYXugL8qPjATBgNV
HSUEDDAKBggrBgEFBQcDAjALBgNVHQ8EBAMCB4AwDQYJKoZIhvcNAQELBQADggIB
AFWRrjuRJaYBjrUslYBNsf+cW4wTWP8xdRS/FRKlsHcpfJacc7z1m/YYFuc1G4G5
cXyHC924sTmWFTRoUi9SoLe9DEO+7GkEKJ+85PDi/7qFBQNzvHCz36WdQ9mdlzg5
Mvdl0LA+no0Oq7xqidZdKb49WNvyApiJDRzmGnMAae+kMDNATe9hdP1WGwGnhr4l
Yst7aGW+8XblLPh273MGGU7F51t/G6wdjT+LsYCyGNQDWA0uiIyV4kz7lMTOFLym
oSN9mNTWtAvexkJMP7xjUoOekW76GZcS0O05RVtarCvVMgz2ffV7YJ2GLjUPORMZ
6yVJtAiJHSJYpxToqrmqEFPvsW2h3zz3ChrRETEpSaxH4a8cJpqgP6Dxosmyy6qw
t9mKHnracYfiA4lg6kZRY4UzbwAzoTFJxY64pMKOs6qcU0zBKgM9rzKVQZDQoQo3
UdTXd86Ik7/ab/88dRn+alcSYI6Ya57yBnNOpZWDkl2k+d+Lh9gInDnL9Kn3j0m5
fF5ddeGdXWuMPwr0a/OgYM1yXqM5k4xEqLRr72sATiXJ2ScllK6VLcX2kov8N70E
fNFv0nO8CNCAiHkzwu405Rzba5O7dodwIE+bUELmGx5a6LQZ+1Nq/W78sWisLzzc
Nx0pj1zRT2AohBb6VcEl7IIDF3tug8+yH3zwHCfr3ngS
-----END CERTIFICATE-----
