Certificate:
    Data:
        Version: 3 (0x2)
        Serial Number: 5529 (0x1599)
    Signature Algorithm: md5WithRSAEncryption
        Issuer: C=US, ST=OH, L=Columbus, O=VikingVPN, OU=MyOrganizationalUnit, CN=VikingVPN CA/name=EasyRSA/emailAddress=me@myhost.mydomain
        Validity
            Not Before: Jun 12 17:22:37 2015 GMT
            Not After : Jun  9 17:22:37 2025 GMT
        Subject: CN=Client1259Certb8100c
        Subject Public Key Info:
            Public Key Algorithm: rsaEncryption
                Public-Key: (4096 bit)
                Modulus:
                    00:d4:2b:6b:f6:50:af:be:cf:6c:31:5b:52:88:57:
                    bc:5d:45:c9:49:80:2e:b6:93:64:f5:91:b2:bb:e3:
                    ab:1b:b7:fd:61:00:a1:31:13:3e:7e:1e:d4:f9:08:
                    8a:46:c9:1e:51:87:bc:0e:51:5d:82:eb:f6:29:6c:
                    05:69:34:e3:02:32:3d:a4:73:eb:37:a2:77:b1:39:
                    8d:8a:b5:76:f3:0a:99:8b:1b:c7:d6:c1:41:06:dd:
                    5d:03:74:1f:ad:3a:f2:03:57:fe:d7:a4:dd:d7:04:
                    ad:97:8f:80:5e:ce:bf:fa:b3:25:ef:9f:84:e0:e8:
                    53:f0:8f:3b:ba:3e:af:85:34:9c:0d:cd:84:c6:e2:
                    8c:01:29:fd:b5:22:be:27:73:19:0d:02:9b:cd:d3:
                    8a:9c:b3:81:ac:3e:30:2a:cf:d4:55:29:f6:8b:b8:
                    cd:cc:b7:25:d0:cb:a8:86:54:33:39:6e:77:c5:72:
                    2d:e2:40:92:c1:b2:d7:cf:9a:6a:d6:98:88:cd:1e:
                    54:7a:37:e6:f2:b5:8d:b3:e0:bd:34:93:eb:e6:e5:
                    c2:e8:f9:44:59:20:95:71:37:78:37:b5:11:8e:5a:
                    d9:14:86:38:be:cc:98:d4:44:3b:07:c5:4d:3b:2c:
                    1c:0b:c5:dd:78:0d:72:58:64:6a:1d:ae:c0:e4:62:
                    8f:a8:c3:af:3b:f0:45:9d:a3:23:96:d8:ac:9d:a9:
                    74:49:da:bd:bd:a2:41:0c:83:d0:38:20:7a:da:6d:
                    6c:64:23:28:f3:2c:78:28:bb:c8:86:fe:37:3f:0b:
                    b5:a0:bb:4e:72:5a:39:35:34:10:5c:77:50:1f:de:
                    49:8a:3e:1b:c1:3a:85:4d:c3:12:e5:15:32:54:0f:
                    cf:cc:79:59:f5:35:cc:50:3e:c5:63:81:68:15:2b:
                    68:4d:63:45:1a:76:40:d7:37:b9:b9:fc:7f:9d:1a:
                    21:e3:53:88:9e:70:2e:0e:e9:5d:bc:28:8b:f1:b1:
                    d0:e0:34:42:28:46:5a:d3:72:91:c8:1f:7c:b3:20:
                    5b:99:e0:90:e7:5e:5e:52:4e:48:08:9e:97:d8:35:
                    a5:73:75:9a:23:b1:98:e4:11:95:13:da:82:aa:44:
                    9e:97:1e:20:e1:6d:54:dd:49:4f:28:cc:a6:74:2e:
                    03:8b:19:81:1d:3e:49:3a:2a:46:6f:fa:66:fb:02:
                    28:04:83:f6:4a:6e:61:c4:9a:33:59:0f:ee:1b:5a:
                    84:0a:46:bb:9a:77:75:4c:a5:c9:41:22:3d:6c:bd:
                    a9:cc:cc:00:6c:e9:7b:ea:a5:0a:e8:2a:5b:8d:9e:
                    21:e4:c7:f2:d4:4d:2f:cd:b6:92:e4:ca:3a:2d:c5:
                    f8:92:51
                Exponent: 65537 (0x10001)
        X509v3 extensions:
            X509v3 Basic Constraints: 
                CA:FALSE
            Netscape Comment: 
                Easy-RSA Generated Certificate
            X509v3 Subject Key Identifier: 
                AB:43:CE:8D:66:BA:21:38:44:BF:34:CB:F3:79:04:E7:CE:43:73:E4
            X509v3 Authority Key Identifier: 
                keyid:12:CD:60:04:D2:A0:80:9E:70:ED:C6:99:B8:7B:2C:C6:52:FD:19:A1
                DirName:/C=US/ST=OH/L=Columbus/O=VikingVPN/OU=MyOrganizationalUnit/CN=VikingVPN CA/name=EasyRSA/emailAddress=me@myhost.mydomain
                serial:CF:35:85:EE:80:BF:2A:3E

            X509v3 Extended Key Usage: 
                TLS Web Client Authentication
            X509v3 Key Usage: 
                Digital Signature
    Signature Algorithm: md5WithRSAEncryption
         55:4e:7d:05:26:8d:11:a4:5c:a2:ae:ce:b1:ed:02:f8:3f:4a:
         ad:25:9f:b7:c2:d2:33:18:d7:1f:d3:a7:a1:a6:ff:c6:e7:21:
         f7:be:39:14:5d:5c:26:ca:3c:0a:b9:ad:cd:2e:f3:9d:4b:f2:
         92:ae:33:81:c4:e1:22:ff:02:cb:ff:33:3c:e1:ee:4a:da:68:
         58:c7:ad:00:5f:de:ba:bd:92:86:e4:f9:bd:fb:30:9f:9e:f4:
         d6:25:9c:16:7f:6b:a4:59:99:e6:2f:bf:e9:03:ec:cd:19:cd:
         94:73:60:0c:fe:c1:06:97:d9:ba:1b:95:3c:c2:b8:ae:55:a6:
         bc:71:cc:9f:a8:91:b9:87:0b:67:d9:d7:33:ca:99:08:68:84:
         c1:4d:e2:09:fe:82:48:03:cf:e5:37:fb:85:94:a8:96:b3:bd:
         3f:2e:68:8d:5d:d2:be:71:7e:82:68:c3:8d:59:63:e2:d3:1b:
         c4:ea:d5:1b:62:87:86:5f:fc:a4:0a:29:f9:2c:a3:b1:78:32:
         7d:de:3e:3c:16:77:fc:b3:ed:d3:53:8a:f1:d1:e5:6c:3b:a0:
         f2:e7:d6:61:ee:d3:02:79:67:1d:63:e8:05:69:f3:f4:bd:bd:
         6f:7d:2c:8c:af:49:4f:38:83:01:0d:8d:e6:74:18:26:9b:13:
         9f:f1:88:f9:d1:f7:50:ff:bd:5d:92:99:df:1b:84:24:14:e1:
         72:52:f5:80:e4:e6:1e:9e:76:b6:d4:6a:b5:e0:a4:c1:8b:37:
         87:f4:9a:fe:91:6a:71:d3:09:ad:a5:94:a4:13:16:0e:b8:dc:
         3e:87:4e:a3:d3:71:96:11:a4:ec:c1:27:a1:a2:1f:ff:e5:d2:
         e5:86:bd:de:e2:5d:52:37:c8:37:10:81:f5:b7:a7:8c:f1:ea:
         a3:08:b4:ba:ab:f5:6e:b9:fe:10:3c:cf:fc:90:59:2f:7f:56:
         7c:05:8b:11:0e:c2:e6:c6:a2:31:37:dd:8a:b1:d1:44:15:77:
         bf:5b:a2:40:0c:ac:51:fd:85:bc:87:99:49:e1:da:90:d0:a8:
         da:50:91:19:d5:f6:3d:9c:9e:48:8f:3c:b0:7f:c5:c7:5f:e0:
         38:93:98:1c:88:e7:5a:9b:eb:c8:52:db:a6:30:59:f7:04:cd:
         2c:18:07:58:19:33:77:0e:90:fd:8c:bb:23:20:62:69:b3:1c:
         6f:74:79:55:b3:f3:a2:98:1c:ad:58:8f:e4:f0:79:15:1b:64:
         d6:5e:16:2f:18:b6:34:be:19:be:93:ab:13:fa:ef:30:6a:f3:
         93:cb:95:f4:38:5a:a8:17:57:22:78:25:8d:13:3e:1a:e6:94:
         08:68:0f:44:b7:26:1b:9b
-----BEGIN CERTIFICATE-----
MIIGrTCCBJWgAwIBAgICFZkwDQYJKoZIhvcNAQEEBQAwgawxCzAJBgNVBAYTAlVT
MQswCQYDVQQIEwJPSDERMA8GA1UEBxMIQ29sdW1idXMxEjAQBgNVBAoTCVZpa2lu
Z1ZQTjEdMBsGA1UECxMUTXlPcmdhbml6YXRpb25hbFVuaXQxFTATBgNVBAMTDFZp
a2luZ1ZQTiBDQTEQMA4GA1UEKRMHRWFzeVJTQTEhMB8GCSqGSIb3DQEJARYSbWVA
bXlob3N0Lm15ZG9tYWluMB4XDTE1MDYxMjE3MjIzN1oXDTI1MDYwOTE3MjIzN1ow
HzEdMBsGA1UEAxMUQ2xpZW50MTI1OUNlcnRiODEwMGMwggIiMA0GCSqGSIb3DQEB
AQUAA4ICDwAwggIKAoICAQDUK2v2UK++z2wxW1KIV7xdRclJgC62k2T1kbK746sb
t/1hAKExEz5+HtT5CIpGyR5Rh7wOUV2C6/YpbAVpNOMCMj2kc+s3onexOY2KtXbz
CpmLG8fWwUEG3V0DdB+tOvIDV/7XpN3XBK2Xj4Bezr/6syXvn4Tg6FPwjzu6Pq+F
NJwNzYTG4owBKf21Ir4ncxkNApvN04qcs4GsPjAqz9RVKfaLuM3MtyXQy6iGVDM5
bnfFci3iQJLBstfPmmrWmIjNHlR6N+bytY2z4L00k+vm5cLo+URZIJVxN3g3tRGO
WtkUhji+zJjURDsHxU07LBwLxd14DXJYZGodrsDkYo+ow6878EWdoyOW2KydqXRJ
2r29okEMg9A4IHrabWxkIyjzLHgou8iG/jc/C7Wgu05yWjk1NBBcd1Af3kmKPhvB
OoVNwxLlFTJUD8/MeVn1NcxQPsVjgWgVK2hNY0UadkDXN7m5/H+dGiHjU4iecC4O
6V28KIvxsdDgNEIoRlrTcpHIH3yzIFuZ4JDnXl5STkgInpfYNaVzdZojsZjkEZUT
2oKqRJ6XHiDhbVTdSU8ozKZ0LgOLGYEdPkk6KkZv+mb7AigEg/ZKbmHEmjNZD+4b
WoQKRruad3VMpclBIj1svanMzABs6XvqpQroKluNniHkx/LUTS/NtpLkyjotxfiS
UQIDAQABo4IBYzCCAV8wCQYDVR0TBAIwADAtBglghkgBhvhCAQ0EIBYeRWFzeS1S
U0EgR2VuZXJhdGVkIENlcnRpZmljYXRlMB0GA1UdDgQWBBSrQ86NZrohOES/NMvz
eQTnzkNz5DCB4QYDVR0jBIHZMIHWgBQSzWAE0qCAnnDtxpm4eyzGUv0ZoaGBsqSB
rzCBrDELMAkGA1UEBhMCVVMxCzAJBgNVBAgTAk9IMREwDwYDVQQHEwhDb2x1bWJ1
czESMBAGA1UEChMJVmlraW5nVlBOMR0wGwYDVQQLExRNeU9yZ2FuaXphdGlvbmFs
VW5pdDEVMBMGA1UEAxMMVmlraW5nVlBOIENBMRAwDgYDVQQpEwdFYXN5UlNBMSEw
HwYJKoZIhvcNAQkBFhJtZUBteWhvc3QubXlkb21haW6CCQDPNYXugL8qPjATBgNV
HSUEDDAKBggrBgEFBQcDAjALBgNVHQ8EBAMCB4AwDQYJKoZIhvcNAQEEBQADggIB
AFVOfQUmjRGkXKKuzrHtAvg/Sq0ln7fC0jMY1x/Tp6Gm/8bnIfe+ORRdXCbKPAq5
rc0u851L8pKuM4HE4SL/Asv/Mzzh7kraaFjHrQBf3rq9kobk+b37MJ+e9NYlnBZ/
a6RZmeYvv+kD7M0ZzZRzYAz+wQaX2boblTzCuK5VprxxzJ+okbmHC2fZ1zPKmQho
hMFN4gn+gkgDz+U3+4WUqJazvT8uaI1d0r5xfoJow41ZY+LTG8Tq1Rtih4Zf/KQK
Kfkso7F4Mn3ePjwWd/yz7dNTivHR5Ww7oPLn1mHu0wJ5Zx1j6AVp8/S9vW99LIyv
SU84gwENjeZ0GCabE5/xiPnR91D/vV2Smd8bhCQU4XJS9YDk5h6edrbUarXgpMGL
N4f0mv6RanHTCa2llKQTFg643D6HTqPTcZYRpOzBJ6GiH//l0uWGvd7iXVI3yDcQ
gfW3p4zx6qMItLqr9W65/hA8z/yQWS9/VnwFixEOwubGojE33Yqx0UQVd79bokAM
rFH9hbyHmUnh2pDQqNpQkRnV9j2cnkiPPLB/xcdf4DiTmByI51qb68hS26YwWfcE
zSwYB1gZM3cOkP2MuyMgYmmzHG90eVWz86KYHK1Yj+TweRUbZNZeFi8YtjS+Gb6T
qxP67zBq85PLlfQ4WqgXVyJ4JY0TPhrmlAhoD0S3Jhub
-----END CERTIFICATE-----
