Certificate:
    Data:
        Version: 3 (0x2)
        Serial Number: 2920 (0xb68)
    Signature Algorithm: md5WithRSAEncryption
        Issuer: C=US, ST=OH, L=Columbus, O=VikingVPN, OU=MyOrganizationalUnit, CN=VikingVPN CA/name=EasyRSA/emailAddress=me@myhost.mydomain
        Validity
            Not Before: Sep 22 01:16:59 2014 GMT
            Not After : Sep 19 01:16:59 2024 GMT
        Subject: CN=Client955Cert11f7f8
        Subject Public Key Info:
            Public Key Algorithm: rsaEncryption
                Public-Key: (4096 bit)
                Modulus:
                    00:a1:69:5c:96:e5:26:eb:cc:1d:fd:eb:4d:ee:ee:
                    8d:39:6f:5e:67:aa:6a:e2:4b:bb:16:aa:47:46:58:
                    dc:ee:d4:11:d1:d7:72:1c:ec:5c:bc:05:16:6d:cc:
                    6d:5d:45:3a:b9:3c:67:94:14:40:62:be:60:47:26:
                    08:b1:32:b3:a7:48:50:fa:f6:a8:7e:0f:e4:72:1a:
                    a7:55:dc:cb:1e:32:3b:46:2a:07:a7:06:10:e9:d0:
                    81:58:8d:5e:75:54:6a:bd:f1:49:06:b0:03:6c:15:
                    c6:44:fe:b3:bf:bd:f9:9d:be:7e:f8:76:d9:87:6c:
                    a9:4f:87:c2:6b:b8:44:58:13:e0:de:b4:f5:32:99:
                    ff:02:d6:e0:b7:e7:32:5d:40:14:85:a0:7b:a2:41:
                    88:3d:af:37:81:20:74:d2:76:c6:e9:a9:13:9d:f3:
                    09:29:83:c3:76:49:25:89:0a:68:1c:d8:d3:29:b8:
                    bc:34:62:c8:2d:36:4b:a6:4d:17:a0:6d:b5:8d:e0:
                    98:15:95:e9:8b:c2:5b:53:fe:60:a3:25:c4:61:16:
                    60:1d:98:15:71:eb:be:31:5a:fc:cd:7b:a9:97:59:
                    77:30:06:ce:c5:47:9d:c1:ea:ad:d9:93:80:52:90:
                    9c:d5:f5:5a:7c:21:ef:b5:ac:ab:56:6b:a3:a4:c6:
                    0c:8a:91:73:ee:2c:6a:0e:59:7a:a1:a5:8e:0c:c3:
                    30:e0:0c:63:6b:de:93:da:86:1e:43:5e:56:53:58:
                    68:6e:15:5b:fa:32:ce:0f:df:1c:d3:ca:0d:91:f4:
                    3d:10:b1:ef:8f:f7:12:76:7a:48:1b:43:16:e9:6a:
                    1b:15:cf:0f:29:bd:87:9a:3e:ef:e4:61:48:87:ad:
                    b3:be:58:73:6e:27:ab:e3:70:a2:e3:4a:b5:90:7d:
                    02:f8:76:d7:00:61:a2:19:6b:21:dd:73:65:a6:e5:
                    35:03:1a:bf:32:fe:f0:13:67:c4:ea:db:8b:f2:a6:
                    60:d1:10:79:ea:e2:6d:c4:7b:f7:5c:10:66:d3:ea:
                    58:2f:46:4c:fa:3d:68:c9:f6:25:51:c5:25:7b:f5:
                    97:04:60:cf:5a:db:08:a1:91:54:61:46:b0:ea:58:
                    9f:49:fa:e3:85:58:52:e2:47:e4:b3:06:4b:ea:df:
                    cd:1e:b9:d0:b3:91:24:d9:b8:de:fb:16:63:19:18:
                    d3:9e:d0:7d:19:ff:ec:24:e9:e3:38:aa:21:0c:d1:
                    33:25:cf:1d:5c:83:73:41:1d:83:d8:22:6e:c3:9a:
                    12:06:cd:81:67:e2:dd:0a:6f:2f:1e:3e:6a:9b:3d:
                    5e:ea:35:83:bd:7e:97:db:ac:01:3e:0a:7a:7f:e0:
                    43:c3:a1
                Exponent: 65537 (0x10001)
        X509v3 extensions:
            X509v3 Basic Constraints: 
                CA:FALSE
            Netscape Comment: 
                Easy-RSA Generated Certificate
            X509v3 Subject Key Identifier: 
                B6:E9:EC:A7:21:D0:A5:50:E5:F0:15:9C:4C:FC:C6:0B:96:C9:60:E4
            X509v3 Authority Key Identifier: 
                keyid:12:CD:60:04:D2:A0:80:9E:70:ED:C6:99:B8:7B:2C:C6:52:FD:19:A1
                DirName:/C=US/ST=OH/L=Columbus/O=VikingVPN/OU=MyOrganizationalUnit/CN=VikingVPN CA/name=EasyRSA/emailAddress=me@myhost.mydomain
                serial:CF:35:85:EE:80:BF:2A:3E

            X509v3 Extended Key Usage: 
                TLS Web Client Authentication
            X509v3 Key Usage: 
                Digital Signature
    Signature Algorithm: md5WithRSAEncryption
         5f:14:70:f1:db:22:4b:47:8c:79:a7:98:48:c9:32:ea:2d:23:
         f6:3e:0c:a7:e5:f1:f0:6c:6d:dc:86:a6:5d:d2:01:d5:8f:bc:
         97:a4:1b:7a:63:ce:77:9e:4a:5f:b6:23:d7:30:83:9b:ae:d7:
         ad:0b:ec:23:0f:59:1f:d3:d3:d0:6d:59:18:ec:fe:4d:f8:77:
         94:2b:24:d3:82:21:04:b8:7c:2b:b9:c9:48:1a:89:2b:57:70:
         52:72:b6:91:72:84:c5:95:f5:8c:25:66:eb:d2:9f:33:ab:6b:
         13:12:b9:17:57:ae:3d:9f:54:ac:d0:ca:32:04:6a:f8:33:d4:
         31:b6:5b:b3:36:ea:f8:94:c1:31:6c:bb:5d:36:34:90:e5:7a:
         d3:19:8c:1a:88:63:57:c0:0c:6f:fa:87:48:26:e0:81:e0:c9:
         f4:61:c6:a4:50:90:26:1d:f2:20:8a:bb:85:f9:ee:d6:2d:aa:
         3c:76:cd:b4:09:c1:5f:ed:41:22:07:c8:7e:fc:fa:ae:84:a8:
         dc:25:fb:e1:ff:02:bf:bd:35:9f:06:cd:c2:47:b1:ac:30:e9:
         a6:22:11:51:62:fa:19:c2:9e:66:01:8d:34:3b:0a:54:ee:d4:
         ed:7c:68:0d:cf:bd:57:cb:6a:cc:11:99:05:76:af:da:e2:bc:
         ad:69:6a:3e:fe:32:32:32:26:5a:a5:4d:83:55:6d:10:93:30:
         6b:28:ab:94:90:9c:5b:3c:52:53:3b:84:3a:22:a5:b5:68:46:
         32:26:b2:3a:d5:89:f0:4b:3a:8d:0f:31:fb:6b:79:ba:47:6a:
         2b:6f:6e:37:16:d6:e8:d9:01:aa:e2:6f:ef:d2:33:fd:b1:47:
         d8:37:8d:ff:3b:e5:8f:f6:df:4c:ff:27:ca:e6:51:d4:3a:d0:
         38:c8:1e:59:b5:66:a7:5c:8f:0a:d0:08:ff:f6:c2:b9:cc:c2:
         94:fa:99:6e:f9:bd:88:37:b2:56:d8:ce:39:ce:29:15:45:bf:
         8c:48:06:6b:30:d6:44:f3:ef:df:69:bd:3f:ee:90:a1:e2:55:
         36:73:9d:f9:0f:90:c7:5d:0c:62:f1:09:86:39:83:35:87:69:
         8a:09:66:3b:0a:57:ff:bb:d2:ed:02:e1:df:78:3e:86:a8:23:
         76:14:5b:6e:bc:f2:4a:21:a4:eb:6e:a0:8c:61:4a:a9:0f:78:
         9d:86:06:2b:05:2d:ad:19:7f:b0:c4:50:66:19:59:81:e1:6d:
         28:f4:bd:ad:f9:1d:1e:a2:64:c5:ab:f7:2f:4e:c3:8e:57:b7:
         65:53:06:08:ba:df:a1:40:c3:02:70:45:eb:88:60:73:2f:9b:
         20:99:50:ca:10:cc:fe:f3
-----BEGIN CERTIFICATE-----
MIIGrDCCBJSgAwIBAgICC2gwDQYJKoZIhvcNAQEEBQAwgawxCzAJBgNVBAYTAlVT
MQswCQYDVQQIEwJPSDERMA8GA1UEBxMIQ29sdW1idXMxEjAQBgNVBAoTCVZpa2lu
Z1ZQTjEdMBsGA1UECxMUTXlPcmdhbml6YXRpb25hbFVuaXQxFTATBgNVBAMTDFZp
a2luZ1ZQTiBDQTEQMA4GA1UEKRMHRWFzeVJTQTEhMB8GCSqGSIb3DQEJARYSbWVA
bXlob3N0Lm15ZG9tYWluMB4XDTE0MDkyMjAxMTY1OVoXDTI0MDkxOTAxMTY1OVow
HjEcMBoGA1UEAxMTQ2xpZW50OTU1Q2VydDExZjdmODCCAiIwDQYJKoZIhvcNAQEB
BQADggIPADCCAgoCggIBAKFpXJblJuvMHf3rTe7ujTlvXmeqauJLuxaqR0ZY3O7U
EdHXchzsXLwFFm3MbV1FOrk8Z5QUQGK+YEcmCLEys6dIUPr2qH4P5HIap1Xcyx4y
O0YqB6cGEOnQgViNXnVUar3xSQawA2wVxkT+s7+9+Z2+fvh22YdsqU+Hwmu4RFgT
4N609TKZ/wLW4LfnMl1AFIWge6JBiD2vN4EgdNJ2xumpE53zCSmDw3ZJJYkKaBzY
0ym4vDRiyC02S6ZNF6BttY3gmBWV6YvCW1P+YKMlxGEWYB2YFXHrvjFa/M17qZdZ
dzAGzsVHncHqrdmTgFKQnNX1Wnwh77Wsq1Zro6TGDIqRc+4sag5ZeqGljgzDMOAM
Y2vek9qGHkNeVlNYaG4VW/oyzg/fHNPKDZH0PRCx74/3EnZ6SBtDFulqGxXPDym9
h5o+7+RhSIets75Yc24nq+NwouNKtZB9Avh21wBhohlrId1zZablNQMavzL+8BNn
xOrbi/KmYNEQeeribcR791wQZtPqWC9GTPo9aMn2JVHFJXv1lwRgz1rbCKGRVGFG
sOpYn0n644VYUuJH5LMGS+rfzR650LORJNm43vsWYxkY057QfRn/7CTp4ziqIQzR
MyXPHVyDc0Edg9gibsOaEgbNgWfi3QpvLx4+aps9Xuo1g71+l9usAT4Ken/gQ8Oh
AgMBAAGjggFjMIIBXzAJBgNVHRMEAjAAMC0GCWCGSAGG+EIBDQQgFh5FYXN5LVJT
QSBHZW5lcmF0ZWQgQ2VydGlmaWNhdGUwHQYDVR0OBBYEFLbp7Kch0KVQ5fAVnEz8
xguWyWDkMIHhBgNVHSMEgdkwgdaAFBLNYATSoICecO3Gmbh7LMZS/RmhoYGypIGv
MIGsMQswCQYDVQQGEwJVUzELMAkGA1UECBMCT0gxETAPBgNVBAcTCENvbHVtYnVz
MRIwEAYDVQQKEwlWaWtpbmdWUE4xHTAbBgNVBAsTFE15T3JnYW5pemF0aW9uYWxV
bml0MRUwEwYDVQQDEwxWaWtpbmdWUE4gQ0ExEDAOBgNVBCkTB0Vhc3lSU0ExITAf
BgkqhkiG9w0BCQEWEm1lQG15aG9zdC5teWRvbWFpboIJAM81he6Avyo+MBMGA1Ud
JQQMMAoGCCsGAQUFBwMCMAsGA1UdDwQEAwIHgDANBgkqhkiG9w0BAQQFAAOCAgEA
XxRw8dsiS0eMeaeYSMky6i0j9j4Mp+Xx8Gxt3IamXdIB1Y+8l6QbemPOd55KX7Yj
1zCDm67XrQvsIw9ZH9PT0G1ZGOz+Tfh3lCsk04IhBLh8K7nJSBqJK1dwUnK2kXKE
xZX1jCVm69KfM6trExK5F1euPZ9UrNDKMgRq+DPUMbZbszbq+JTBMWy7XTY0kOV6
0xmMGohjV8AMb/qHSCbggeDJ9GHGpFCQJh3yIIq7hfnu1i2qPHbNtAnBX+1BIgfI
fvz6roSo3CX74f8Cv701nwbNwkexrDDppiIRUWL6GcKeZgGNNDsKVO7U7XxoDc+9
V8tqzBGZBXav2uK8rWlqPv4yMjImWqVNg1VtEJMwayirlJCcWzxSUzuEOiKltWhG
MiayOtWJ8Es6jQ8x+2t5ukdqK29uNxbW6NkBquJv79Iz/bFH2DeN/zvlj/bfTP8n
yuZR1DrQOMgeWbVmp1yPCtAI//bCuczClPqZbvm9iDeyVtjOOc4pFUW/jEgGazDW
RPPv32m9P+6QoeJVNnOd+Q+Qx10MYvEJhjmDNYdpiglmOwpX/7vS7QLh33g+hqgj
dhRbbrzySiGk626gjGFKqQ94nYYGKwUtrRl/sMRQZhlZgeFtKPS9rfkdHqJkxav3
L07Djle3ZVMGCLrfoUDDAnBF64hgcy+bIJlQyhDM/vM=
-----END CERTIFICATE-----
