Certificate:
    Data:
        Version: 3 (0x2)
        Serial Number: 7356 (0x1cbc)
    Signature Algorithm: md5WithRSAEncryption
        Issuer: C=US, ST=OH, L=Columbus, O=VikingVPN, OU=MyOrganizationalUnit, CN=VikingVPN CA/name=EasyRSA/emailAddress=me@myhost.mydomain
        Validity
            Not Before: Feb 29 18:42:40 2016 GMT
            Not After : Feb 26 18:42:40 2026 GMT
        Subject: CN=Client1389Cert6a576c
        Subject Public Key Info:
            Public Key Algorithm: rsaEncryption
                Public-Key: (4096 bit)
                Modulus:
                    00:db:39:e7:19:51:62:9b:56:47:16:d1:5f:38:6e:
                    fa:bd:da:96:c1:ad:9e:94:6a:f8:09:fc:6f:d2:ce:
                    2d:71:7e:35:58:2b:20:ea:40:15:7b:40:40:cf:38:
                    14:3d:4e:2d:5c:16:d0:f0:29:95:d1:55:2d:90:9c:
                    52:6a:1f:69:04:9d:3f:ac:71:6f:12:57:8a:a7:a1:
                    10:1e:bb:db:8b:f3:5b:38:dd:86:e5:c9:fe:c0:ac:
                    2d:4d:ea:21:82:da:cb:55:ea:7d:9a:58:d5:b3:4b:
                    d6:40:4c:72:f3:3b:cc:e2:55:04:6f:ee:cd:3d:4f:
                    fe:d7:b2:e4:3a:86:98:86:1e:60:3a:a9:90:1c:cc:
                    74:84:62:76:52:c7:98:c4:c8:7d:86:10:93:ce:32:
                    da:43:3a:06:98:ae:b4:72:e5:b9:28:a3:9c:fa:f3:
                    51:48:4a:db:c9:ba:e9:e6:c1:0b:a9:5a:ad:69:93:
                    5e:f1:b0:7b:a9:8f:a3:25:f1:a7:43:ca:b3:4d:92:
                    13:87:82:01:cf:ac:b7:ca:5f:33:a1:48:ba:80:86:
                    93:44:10:97:3f:e0:7e:3c:c0:e1:37:22:25:31:7d:
                    75:a7:29:de:d1:ec:14:43:39:b3:ff:46:59:41:b5:
                    b6:1c:2e:ef:ab:7c:4c:c5:7c:de:ca:22:38:fa:e6:
                    db:e7:f1:8f:56:b2:d8:7b:7c:ee:1a:66:7d:ba:ea:
                    c6:1d:be:a9:3a:7b:df:72:52:52:a3:6d:62:af:ac:
                    fb:5c:94:ac:ae:a0:65:25:32:ad:0c:b5:aa:91:b3:
                    d4:b3:e5:80:93:fa:3c:14:3f:f5:2a:51:ba:aa:33:
                    d0:20:07:09:e5:31:6b:f6:06:7a:cb:3a:b0:6c:bb:
                    a0:17:f0:7b:57:f4:9c:d3:f0:fa:08:7d:fb:6a:c1:
                    0c:f6:64:fe:60:9d:96:2c:c1:e4:a3:3c:ab:d4:ca:
                    39:86:3d:04:55:e8:19:1d:bd:a2:dd:00:89:2c:63:
                    92:d0:19:da:d8:39:84:78:25:00:fb:be:ac:d4:7c:
                    64:b6:71:37:b5:69:b7:60:a7:c8:e4:d8:05:d5:fd:
                    4c:3b:16:75:29:6a:3e:51:4d:cc:73:e9:eb:a6:37:
                    a2:f9:b7:ea:f8:4a:54:70:26:91:59:76:94:db:8e:
                    77:f5:59:b3:18:f7:d1:a9:53:f2:5a:dc:bf:8c:fa:
                    c7:e2:2b:1c:4f:d6:d8:1d:b9:bc:17:01:74:36:58:
                    db:62:85:21:57:9c:e3:43:3b:d1:c7:a2:8d:8b:7f:
                    41:3f:75:bc:e7:51:72:25:30:78:e1:c3:47:b8:6e:
                    69:bb:84:a8:59:82:54:c5:93:3d:4a:af:69:2c:11:
                    d6:fc:09
                Exponent: 65537 (0x10001)
        X509v3 extensions:
            X509v3 Basic Constraints: 
                CA:FALSE
            Netscape Comment: 
                Easy-RSA Generated Certificate
            X509v3 Subject Key Identifier: 
                E6:71:CE:A4:4C:43:21:07:52:2E:3D:E8:E2:BA:08:2C:ED:D6:2E:B5
            X509v3 Authority Key Identifier: 
                keyid:12:CD:60:04:D2:A0:80:9E:70:ED:C6:99:B8:7B:2C:C6:52:FD:19:A1
                DirName:/C=US/ST=OH/L=Columbus/O=VikingVPN/OU=MyOrganizationalUnit/CN=VikingVPN CA/name=EasyRSA/emailAddress=me@myhost.mydomain
                serial:CF:35:85:EE:80:BF:2A:3E

            X509v3 Extended Key Usage: 
                TLS Web Client Authentication
            X509v3 Key Usage: 
                Digital Signature
    Signature Algorithm: md5WithRSAEncryption
         91:3a:b6:eb:12:87:b6:90:01:3a:8e:17:05:85:7e:52:d5:6c:
         95:e8:39:96:77:c3:24:1e:88:2f:a6:c6:dd:8c:59:cd:70:e6:
         90:47:a9:63:d2:c1:da:2f:bb:6b:c3:43:75:81:50:b3:6f:cd:
         cf:c7:af:da:d6:fa:0c:e5:18:80:e0:46:0c:0c:50:6c:33:8e:
         09:f0:58:bf:d6:f6:cd:70:4b:39:9f:19:8a:b6:60:bf:1d:28:
         dc:99:55:75:7c:a9:78:75:50:52:66:57:74:c9:e6:5b:7b:53:
         3f:36:c1:ec:58:62:4d:ea:75:a1:92:1a:fe:59:42:75:5c:06:
         23:08:f9:e6:92:00:f8:fa:f1:75:2f:05:6b:df:70:6a:b1:d9:
         cf:a5:b8:32:99:45:69:48:17:26:9e:09:93:3c:4d:05:d2:47:
         de:a7:ab:49:de:f9:83:cc:50:48:42:ec:80:0a:3e:e4:cc:c5:
         61:3c:76:e6:6a:30:7f:15:41:b2:89:59:4d:5a:1c:d3:24:7d:
         42:94:92:8f:78:02:0b:33:f5:52:32:32:a9:40:fc:59:35:ca:
         52:6f:af:84:55:20:15:73:90:ef:68:06:39:24:76:a1:e2:88:
         9c:7b:e9:47:0b:79:6c:3b:5d:f1:8d:b3:39:a0:a6:af:12:34:
         65:cf:3d:84:c2:35:d6:6e:5e:c6:8f:41:1f:7f:0a:37:37:65:
         af:64:09:76:6e:9e:6a:fd:04:3b:f4:1e:dd:05:37:5c:60:d0:
         73:d9:dc:41:d2:2f:d3:d7:eb:2f:82:f7:7b:ea:cd:07:08:55:
         e7:63:fe:93:90:73:54:32:72:38:88:c9:3d:b2:24:86:16:4e:
         79:1c:a0:25:e4:ae:87:3f:8e:e3:b7:3a:95:a7:aa:2f:de:15:
         41:6b:69:47:12:65:33:98:a8:b6:5b:a6:69:75:89:a7:f6:ba:
         96:76:4c:a4:6b:a7:db:10:4d:fc:c0:9c:b6:c7:ce:47:a4:07:
         d0:c6:20:aa:d8:1d:3d:67:58:ea:17:8b:f7:d4:55:41:f0:b5:
         f0:6d:e0:77:22:a5:59:69:8c:38:b0:b1:c3:96:ed:f0:01:4f:
         f0:86:43:f3:c3:66:61:8d:73:2e:f8:51:15:2e:f0:c5:05:92:
         63:2d:4f:dc:49:a5:f1:ba:c3:57:c5:75:11:ee:df:78:f3:cf:
         4e:2e:c6:ac:6e:cc:ad:1c:48:58:d0:58:44:c8:56:46:6c:73:
         b2:8e:89:db:d8:b1:9b:61:be:85:21:01:44:72:2d:22:9d:c3:
         ef:18:3a:fa:ef:d7:90:cd:a7:0f:3d:0e:57:da:a4:de:d0:34:
         33:47:95:cb:35:91:57:4b
-----BEGIN CERTIFICATE-----
MIIGrTCCBJWgAwIBAgICHLwwDQYJKoZIhvcNAQEEBQAwgawxCzAJBgNVBAYTAlVT
MQswCQYDVQQIEwJPSDERMA8GA1UEBxMIQ29sdW1idXMxEjAQBgNVBAoTCVZpa2lu
Z1ZQTjEdMBsGA1UECxMUTXlPcmdhbml6YXRpb25hbFVuaXQxFTATBgNVBAMTDFZp
a2luZ1ZQTiBDQTEQMA4GA1UEKRMHRWFzeVJTQTEhMB8GCSqGSIb3DQEJARYSbWVA
bXlob3N0Lm15ZG9tYWluMB4XDTE2MDIyOTE4NDI0MFoXDTI2MDIyNjE4NDI0MFow
HzEdMBsGA1UEAxMUQ2xpZW50MTM4OUNlcnQ2YTU3NmMwggIiMA0GCSqGSIb3DQEB
AQUAA4ICDwAwggIKAoICAQDbOecZUWKbVkcW0V84bvq92pbBrZ6UavgJ/G/Szi1x
fjVYKyDqQBV7QEDPOBQ9Ti1cFtDwKZXRVS2QnFJqH2kEnT+scW8SV4qnoRAeu9uL
81s43Yblyf7ArC1N6iGC2stV6n2aWNWzS9ZATHLzO8ziVQRv7s09T/7XsuQ6hpiG
HmA6qZAczHSEYnZSx5jEyH2GEJPOMtpDOgaYrrRy5bkoo5z681FIStvJuunmwQup
Wq1pk17xsHupj6Ml8adDyrNNkhOHggHPrLfKXzOhSLqAhpNEEJc/4H48wOE3IiUx
fXWnKd7R7BRDObP/RllBtbYcLu+rfEzFfN7KIjj65tvn8Y9Wsth7fO4aZn266sYd
vqk6e99yUlKjbWKvrPtclKyuoGUlMq0MtaqRs9Sz5YCT+jwUP/UqUbqqM9AgBwnl
MWv2BnrLOrBsu6AX8HtX9JzT8PoIfftqwQz2ZP5gnZYsweSjPKvUyjmGPQRV6Bkd
vaLdAIksY5LQGdrYOYR4JQD7vqzUfGS2cTe1abdgp8jk2AXV/Uw7FnUpaj5RTcxz
6eumN6L5t+r4SlRwJpFZdpTbjnf1WbMY99GpU/Ja3L+M+sfiKxxP1tgdubwXAXQ2
WNtihSFXnONDO9HHoo2Lf0E/dbznUXIlMHjhw0e4bmm7hKhZglTFkz1Kr2ksEdb8
CQIDAQABo4IBYzCCAV8wCQYDVR0TBAIwADAtBglghkgBhvhCAQ0EIBYeRWFzeS1S
U0EgR2VuZXJhdGVkIENlcnRpZmljYXRlMB0GA1UdDgQWBBTmcc6kTEMhB1IuPeji
uggs7dYutTCB4QYDVR0jBIHZMIHWgBQSzWAE0qCAnnDtxpm4eyzGUv0ZoaGBsqSB
rzCBrDELMAkGA1UEBhMCVVMxCzAJBgNVBAgTAk9IMREwDwYDVQQHEwhDb2x1bWJ1
czESMBAGA1UEChMJVmlraW5nVlBOMR0wGwYDVQQLExRNeU9yZ2FuaXphdGlvbmFs
VW5pdDEVMBMGA1UEAxMMVmlraW5nVlBOIENBMRAwDgYDVQQpEwdFYXN5UlNBMSEw
HwYJKoZIhvcNAQkBFhJtZUBteWhvc3QubXlkb21haW6CCQDPNYXugL8qPjATBgNV
HSUEDDAKBggrBgEFBQcDAjALBgNVHQ8EBAMCB4AwDQYJKoZIhvcNAQEEBQADggIB
AJE6tusSh7aQATqOFwWFflLVbJXoOZZ3wyQeiC+mxt2MWc1w5pBHqWPSwdovu2vD
Q3WBULNvzc/Hr9rW+gzlGIDgRgwMUGwzjgnwWL/W9s1wSzmfGYq2YL8dKNyZVXV8
qXh1UFJmV3TJ5lt7Uz82wexYYk3qdaGSGv5ZQnVcBiMI+eaSAPj68XUvBWvfcGqx
2c+luDKZRWlIFyaeCZM8TQXSR96nq0ne+YPMUEhC7IAKPuTMxWE8duZqMH8VQbKJ
WU1aHNMkfUKUko94Agsz9VIyMqlA/Fk1ylJvr4RVIBVzkO9oBjkkdqHiiJx76UcL
eWw7XfGNszmgpq8SNGXPPYTCNdZuXsaPQR9/Cjc3Za9kCXZunmr9BDv0Ht0FN1xg
0HPZ3EHSL9PX6y+C93vqzQcIVedj/pOQc1QycjiIyT2yJIYWTnkcoCXkroc/juO3
OpWnqi/eFUFraUcSZTOYqLZbpml1iaf2upZ2TKRrp9sQTfzAnLbHzkekB9DGIKrY
HT1nWOoXi/fUVUHwtfBt4HcipVlpjDiwscOW7fABT/CGQ/PDZmGNcy74URUu8MUF
kmMtT9xJpfG6w1fFdRHu33jzz04uxqxuzK0cSFjQWETIVkZsc7KOidvYsZthvoUh
AURyLSKdw+8YOvrv15DNpw89DlfapN7QNDNHlcs1kVdL
-----END CERTIFICATE-----
