Certificate:
    Data:
        Version: 3 (0x2)
        Serial Number: 10271 (0x281f)
    Signature Algorithm: sha256WithRSAEncryption
        Issuer: C=US, ST=OH, L=Columbus, O=VikingVPN, OU=MyOrganizationalUnit, CN=VikingVPN CA/name=EasyRSA/emailAddress=me@myhost.mydomain
        Validity
            Not Before: Mar  9 21:37:20 2017 GMT
            Not After : Mar  7 21:37:20 2027 GMT
        Subject: CN=Client1913Cert19ed1f
        Subject Public Key Info:
            Public Key Algorithm: rsaEncryption
                Public-Key: (4096 bit)
                Modulus:
                    00:a9:57:06:fa:f0:e9:c4:f8:a2:ea:5a:8f:fe:7c:
                    d5:94:92:7e:50:6e:c6:df:c1:bf:61:a8:07:69:7c:
                    d5:72:65:f3:1e:1b:f0:2e:c0:2e:27:9f:86:a1:5b:
                    25:5f:86:7a:6c:97:cf:3e:f1:7d:0c:72:1e:1c:64:
                    fb:40:a8:88:98:66:31:8b:ec:8c:02:da:8a:93:e0:
                    9e:90:a5:e9:77:3a:15:f6:fc:b6:96:0f:9f:45:33:
                    a2:ad:4e:8c:e3:12:92:85:1e:25:53:fb:3e:92:01:
                    62:86:ef:57:0f:00:a8:3a:01:6a:fa:fd:ca:7e:be:
                    d3:4a:6a:6c:e4:71:b7:96:cf:70:79:28:ee:dd:08:
                    6b:6f:df:f8:79:45:f3:8a:d8:77:55:53:f0:b7:b0:
                    f4:3d:ac:c6:ad:14:5f:3d:35:dd:d2:2c:ed:f5:ca:
                    30:d3:5b:1d:9f:a2:98:36:a3:7c:12:ca:6d:9e:41:
                    52:d4:cb:11:a3:ad:71:aa:aa:88:49:67:bf:09:80:
                    65:d6:9e:79:12:dc:aa:ed:bf:d9:2f:ba:da:7f:77:
                    09:e3:ca:1a:3c:2a:c2:dc:62:4f:b2:4c:e9:e1:e9:
                    b0:e4:c7:55:cc:ca:ca:99:23:35:72:5b:56:e5:10:
                    7d:b5:54:fc:aa:22:f5:c8:cc:e3:24:5a:3d:5a:a2:
                    4b:37:3e:d0:b0:08:49:0c:0c:da:29:d4:24:70:5a:
                    f8:9e:34:71:65:cd:8e:f2:e7:2d:e0:7e:77:fa:94:
                    94:24:11:96:04:81:25:ae:14:de:b5:d7:53:d2:84:
                    f8:d9:ff:aa:94:8f:64:e5:ec:89:60:ed:88:93:ba:
                    0b:fc:cb:9a:25:80:2f:1a:f1:5f:11:ea:38:ad:e0:
                    3f:89:75:0d:2d:cf:9a:84:9a:fd:53:2e:2c:22:0e:
                    ab:f7:a3:50:da:4a:2e:75:d4:bd:8f:21:ac:92:dc:
                    6b:28:1d:47:3e:a9:b7:27:b6:b3:34:b3:c0:18:c0:
                    ce:98:b0:c0:b8:2b:92:d7:3d:ed:5a:11:f7:26:27:
                    2f:c5:26:e1:6b:5e:f6:cc:6f:39:e4:ea:08:73:6c:
                    66:a5:8b:84:94:a1:08:2d:e0:d8:10:05:64:bd:e2:
                    21:fb:86:34:07:a0:be:c3:30:fb:12:39:06:65:a2:
                    4f:a6:cf:2e:bd:bd:f0:d6:cf:7f:b7:be:c7:cb:c3:
                    04:2e:8a:41:9f:16:07:16:d0:51:e0:e6:2c:1a:56:
                    fd:dc:5e:3f:d5:d3:41:d6:28:af:40:13:42:d3:f3:
                    67:69:0a:a0:be:c9:e4:8e:3a:43:ab:e2:c5:5a:80:
                    cb:15:cf:11:ca:32:60:44:ac:14:75:8f:db:fb:69:
                    8c:c5:65
                Exponent: 65537 (0x10001)
        X509v3 extensions:
            X509v3 Basic Constraints: 
                CA:FALSE
            Netscape Comment: 
                Easy-RSA Generated Certificate
            X509v3 Subject Key Identifier: 
                EE:6B:C5:4A:AB:17:27:36:9B:03:2C:E8:46:6E:09:A3:6B:CE:5A:60
            X509v3 Authority Key Identifier: 
                keyid:12:CD:60:04:D2:A0:80:9E:70:ED:C6:99:B8:7B:2C:C6:52:FD:19:A1
                DirName:/C=US/ST=OH/L=Columbus/O=VikingVPN/OU=MyOrganizationalUnit/CN=VikingVPN CA/name=EasyRSA/emailAddress=me@myhost.mydomain
                serial:CF:35:85:EE:80:BF:2A:3E

            X509v3 Extended Key Usage: 
                TLS Web Client Authentication
            X509v3 Key Usage: 
                Digital Signature
    Signature Algorithm: sha256WithRSAEncryption
         05:f9:2d:48:2b:6c:f7:e2:5a:b1:6f:81:e2:f3:e0:5c:eb:ad:
         25:c6:94:5a:14:92:b1:c3:e1:ee:3d:33:54:d5:5a:ac:f1:23:
         e6:0b:79:93:0d:14:e3:e1:78:81:06:7c:69:7d:5a:81:c4:6a:
         d0:89:da:3d:38:18:c8:eb:90:ac:4d:fd:6d:26:29:1e:34:d1:
         cf:fe:25:5d:87:24:8b:07:9f:3e:a2:9e:22:a4:de:86:fc:5c:
         d2:d7:aa:1c:ad:ca:52:f1:a4:16:4a:80:6a:79:12:8f:f4:d9:
         49:59:f0:75:c9:ac:d9:f2:47:c1:dc:a1:d9:39:a2:83:8d:66:
         57:b6:5b:b5:63:0b:d8:c4:d4:7c:9a:f2:ba:98:ef:ef:fd:d7:
         61:4c:35:4e:37:57:f8:33:b1:c9:95:12:7e:16:68:c2:d0:48:
         77:e7:9e:c5:64:20:a2:71:3b:96:32:93:8e:50:e0:57:60:79:
         ef:da:a5:d5:aa:96:17:13:84:42:d2:f0:e8:25:2e:21:17:1f:
         ee:ec:c2:03:b4:51:fe:05:52:fb:d6:4f:58:7c:6a:1c:72:29:
         fa:f2:09:a4:35:71:b6:70:83:a3:16:1d:19:96:37:ae:93:31:
         8d:d4:c3:9c:35:69:d5:42:c9:82:f0:8a:d5:d8:65:d2:27:1a:
         14:be:af:8e:91:31:6a:92:81:80:a9:64:55:5f:50:91:7a:70:
         75:5c:a5:f8:bf:4b:34:bc:89:2d:23:46:6a:1c:52:38:06:e7:
         14:f7:3a:34:f4:1f:a6:80:6a:c4:3d:01:9e:57:ce:31:31:a5:
         e9:e6:57:95:9d:65:47:d6:f6:5e:06:41:b4:4a:c1:67:3f:c5:
         f4:ec:e5:a3:30:42:52:72:15:f1:77:31:c0:71:cf:ca:d7:3e:
         40:15:d6:ca:51:ae:a4:7b:76:b2:ee:38:fb:19:c3:17:31:fb:
         fc:43:48:6f:51:4a:94:69:66:39:6a:b9:65:3a:a5:7c:11:e2:
         33:bd:83:6c:79:9d:7b:53:0d:0c:a0:70:59:20:d8:f5:d0:ba:
         d7:73:3d:78:2d:1e:49:e2:ed:c1:f2:ba:41:bf:a1:74:55:91:
         54:a0:34:3b:84:e3:b1:d1:c3:71:63:cf:ec:7c:08:38:e4:7c:
         88:0e:2c:f8:4f:85:71:3e:9c:9c:2e:77:42:3d:69:51:2d:80:
         14:3a:19:a3:1d:00:55:14:92:4f:03:d0:a5:fa:d3:da:ad:31:
         39:86:a7:d4:99:4a:88:68:69:9e:b5:57:e5:a0:94:a0:80:1d:
         1f:22:1a:9f:e5:43:cc:be:96:ff:22:9b:1d:97:6b:59:f1:e5:
         e8:69:9f:ec:b1:64:ff:c6
-----BEGIN CERTIFICATE-----
MIIGrTCCBJWgAwIBAgICKB8wDQYJKoZIhvcNAQELBQAwgawxCzAJBgNVBAYTAlVT
MQswCQYDVQQIEwJPSDERMA8GA1UEBxMIQ29sdW1idXMxEjAQBgNVBAoTCVZpa2lu
Z1ZQTjEdMBsGA1UECxMUTXlPcmdhbml6YXRpb25hbFVuaXQxFTATBgNVBAMTDFZp
a2luZ1ZQTiBDQTEQMA4GA1UEKRMHRWFzeVJTQTEhMB8GCSqGSIb3DQEJARYSbWVA
bXlob3N0Lm15ZG9tYWluMB4XDTE3MDMwOTIxMzcyMFoXDTI3MDMwNzIxMzcyMFow
HzEdMBsGA1UEAxMUQ2xpZW50MTkxM0NlcnQxOWVkMWYwggIiMA0GCSqGSIb3DQEB
AQUAA4ICDwAwggIKAoICAQCpVwb68OnE+KLqWo/+fNWUkn5Qbsbfwb9hqAdpfNVy
ZfMeG/AuwC4nn4ahWyVfhnpsl88+8X0Mch4cZPtAqIiYZjGL7IwC2oqT4J6Qpel3
OhX2/LaWD59FM6KtTozjEpKFHiVT+z6SAWKG71cPAKg6AWr6/cp+vtNKamzkcbeW
z3B5KO7dCGtv3/h5RfOK2HdVU/C3sPQ9rMatFF89Nd3SLO31yjDTWx2fopg2o3wS
ym2eQVLUyxGjrXGqqohJZ78JgGXWnnkS3Krtv9kvutp/dwnjyho8KsLcYk+yTOnh
6bDkx1XMysqZIzVyW1blEH21VPyqIvXIzOMkWj1aoks3PtCwCEkMDNop1CRwWvie
NHFlzY7y5y3gfnf6lJQkEZYEgSWuFN6111PShPjZ/6qUj2Tl7Ilg7YiTugv8y5ol
gC8a8V8R6jit4D+JdQ0tz5qEmv1TLiwiDqv3o1DaSi511L2PIayS3GsoHUc+qbcn
trM0s8AYwM6YsMC4K5LXPe1aEfcmJy/FJuFrXvbMbznk6ghzbGali4SUoQgt4NgQ
BWS94iH7hjQHoL7DMPsSOQZlok+mzy69vfDWz3+3vsfLwwQuikGfFgcW0FHg5iwa
Vv3cXj/V00HWKK9AE0LT82dpCqC+yeSOOkOr4sVagMsVzxHKMmBErBR1j9v7aYzF
ZQIDAQABo4IBYzCCAV8wCQYDVR0TBAIwADAtBglghkgBhvhCAQ0EIBYeRWFzeS1S
U0EgR2VuZXJhdGVkIENlcnRpZmljYXRlMB0GA1UdDgQWBBTua8VKqxcnNpsDLOhG
bgmja85aYDCB4QYDVR0jBIHZMIHWgBQSzWAE0qCAnnDtxpm4eyzGUv0ZoaGBsqSB
rzCBrDELMAkGA1UEBhMCVVMxCzAJBgNVBAgTAk9IMREwDwYDVQQHEwhDb2x1bWJ1
czESMBAGA1UEChMJVmlraW5nVlBOMR0wGwYDVQQLExRNeU9yZ2FuaXphdGlvbmFs
VW5pdDEVMBMGA1UEAxMMVmlraW5nVlBOIENBMRAwDgYDVQQpEwdFYXN5UlNBMSEw
HwYJKoZIhvcNAQkBFhJtZUBteWhvc3QubXlkb21haW6CCQDPNYXugL8qPjATBgNV
HSUEDDAKBggrBgEFBQcDAjALBgNVHQ8EBAMCB4AwDQYJKoZIhvcNAQELBQADggIB
AAX5LUgrbPfiWrFvgeLz4FzrrSXGlFoUkrHD4e49M1TVWqzxI+YLeZMNFOPheIEG
fGl9WoHEatCJ2j04GMjrkKxN/W0mKR400c/+JV2HJIsHnz6iniKk3ob8XNLXqhyt
ylLxpBZKgGp5Eo/02UlZ8HXJrNnyR8Hcodk5ooONZle2W7VjC9jE1Hya8rqY7+/9
12FMNU43V/gzscmVEn4WaMLQSHfnnsVkIKJxO5Yyk45Q4Fdgee/apdWqlhcThELS
8OglLiEXH+7swgO0Uf4FUvvWT1h8ahxyKfryCaQ1cbZwg6MWHRmWN66TMY3Uw5w1
adVCyYLwitXYZdInGhS+r46RMWqSgYCpZFVfUJF6cHVcpfi/SzS8iS0jRmocUjgG
5xT3OjT0H6aAasQ9AZ5XzjExpenmV5WdZUfW9l4GQbRKwWc/xfTs5aMwQlJyFfF3
McBxz8rXPkAV1spRrqR7drLuOPsZwxcx+/xDSG9RSpRpZjlquWU6pXwR4jO9g2x5
nXtTDQygcFkg2PXQutdzPXgtHkni7cHyukG/oXRVkVSgNDuE47HRw3Fjz+x8CDjk
fIgOLPhPhXE+nJwud0I9aVEtgBQ6GaMdAFUUkk8D0KX609qtMTmGp9SZSohoaZ61
V+WglKCAHR8iGp/lQ8y+lv8imx2Xa1nx5ehpn+yxZP/G
-----END CERTIFICATE-----
