Certificate:
    Data:
        Version: 3 (0x2)
        Serial Number: 5848 (0x16d8)
    Signature Algorithm: md5WithRSAEncryption
        Issuer: C=US, ST=OH, L=Columbus, O=VikingVPN, OU=MyOrganizationalUnit, CN=VikingVPN CA/name=EasyRSA/emailAddress=me@myhost.mydomain
        Validity
            Not Before: Jul 17 15:39:47 2015 GMT
            Not After : Jul 14 15:39:47 2025 GMT
        Subject: CN=Client1841Cert4c0c80
        Subject Public Key Info:
            Public Key Algorithm: rsaEncryption
                Public-Key: (4096 bit)
                Modulus:
                    00:d5:3c:98:3d:bf:15:b4:e6:1f:d4:35:4c:56:38:
                    c9:14:c7:65:b6:4e:a5:61:61:2c:67:f7:11:11:7b:
                    ee:44:34:81:72:5e:65:f9:53:71:67:08:ef:22:d9:
                    fb:ad:ff:23:8c:b6:d8:0b:9d:03:26:3e:02:53:dc:
                    a4:46:e0:93:6d:d0:b9:77:20:c6:40:ef:ad:8a:5f:
                    74:39:07:59:ca:1e:69:80:8c:cc:4c:ec:fb:29:2c:
                    69:6a:eb:e9:f9:f1:8d:b7:a3:d5:7c:66:9c:51:40:
                    81:41:ba:f3:7c:2e:44:2d:ce:5a:3b:07:8e:f8:65:
                    88:48:39:3a:7e:c3:f1:39:2e:b7:c5:0b:56:05:23:
                    a7:d6:6b:92:94:79:7f:f6:6d:90:0f:97:0c:ba:a8:
                    ca:84:a4:10:b0:f2:9a:7d:28:40:00:37:a6:03:42:
                    70:70:b8:8a:06:cf:a9:1d:6f:7a:65:e0:4c:52:5b:
                    7c:e0:2a:af:4e:ab:f3:5b:fe:ba:ee:14:0e:fe:da:
                    cd:ba:94:b5:48:a5:d8:bd:14:0d:68:af:4e:e2:2b:
                    7a:44:3b:41:09:ec:45:bf:17:54:a4:ac:50:ef:a4:
                    57:c8:dc:fd:95:5e:e6:7d:57:5e:c0:fe:17:db:80:
                    d6:e6:d8:07:06:e8:73:bf:dd:af:06:04:59:9d:71:
                    78:0f:63:df:2b:f2:29:bd:58:b3:98:63:01:ba:e7:
                    3e:f7:fd:75:22:95:59:13:b0:e9:7e:44:4c:db:63:
                    07:47:07:19:da:ba:3b:b9:df:5f:15:ee:68:39:f5:
                    9b:9f:01:62:2d:56:f1:50:a5:ad:1d:1e:b9:dd:7d:
                    e8:9d:8c:70:51:f8:c1:71:4b:33:8a:d7:63:a7:a3:
                    4b:36:2c:80:ec:d8:25:9b:f9:9a:b2:43:af:b7:48:
                    01:cf:ed:94:13:0c:fe:2b:be:79:57:b6:a1:26:3d:
                    e0:4a:de:c9:fe:b4:c0:52:b1:8d:6c:c8:5b:b4:de:
                    ae:14:60:a4:67:71:5a:10:e1:a9:d8:83:84:89:4c:
                    a9:0f:e8:ad:d1:b3:fc:67:aa:dd:44:3d:b7:b4:8d:
                    0b:35:19:09:56:04:47:d1:90:a4:99:18:29:1b:e3:
                    10:30:13:b9:82:7d:a5:ec:78:7f:59:70:9a:a8:ba:
                    f3:0e:31:3e:eb:27:d9:1c:8e:4d:e3:bb:e3:ee:7c:
                    f6:d7:56:c9:9d:15:78:a1:c8:bc:25:ec:d8:c2:0a:
                    ce:c4:b6:e5:a9:7f:1b:f0:df:b3:76:37:be:1a:7e:
                    50:84:d8:cd:d5:5b:cd:81:6e:ae:14:98:c9:07:e0:
                    2e:10:90:de:c3:a3:e8:4a:2c:a9:5e:7a:18:79:e4:
                    4c:61:81
                Exponent: 65537 (0x10001)
        X509v3 extensions:
            X509v3 Basic Constraints: 
                CA:FALSE
            Netscape Comment: 
                Easy-RSA Generated Certificate
            X509v3 Subject Key Identifier: 
                5A:A5:F4:6A:9B:22:7B:F2:E0:17:D8:11:8C:41:D9:A5:18:5E:16:DB
            X509v3 Authority Key Identifier: 
                keyid:12:CD:60:04:D2:A0:80:9E:70:ED:C6:99:B8:7B:2C:C6:52:FD:19:A1
                DirName:/C=US/ST=OH/L=Columbus/O=VikingVPN/OU=MyOrganizationalUnit/CN=VikingVPN CA/name=EasyRSA/emailAddress=me@myhost.mydomain
                serial:CF:35:85:EE:80:BF:2A:3E

            X509v3 Extended Key Usage: 
                TLS Web Client Authentication
            X509v3 Key Usage: 
                Digital Signature
    Signature Algorithm: md5WithRSAEncryption
         d3:f9:13:af:c8:c9:fd:85:21:aa:64:de:6f:29:71:90:c8:e5:
         61:16:f4:2d:10:ee:5d:35:3e:37:6c:74:69:97:0c:c9:7e:e5:
         4c:d0:23:21:9e:20:c6:95:3f:9b:f5:84:0f:48:aa:90:1d:70:
         27:dd:37:9a:eb:4e:cf:c3:8f:a0:b6:e5:09:5a:f8:11:7a:59:
         c9:40:17:9e:ac:4e:f4:b2:e4:07:ad:fc:73:3a:5d:eb:bb:71:
         04:bd:9a:63:f5:ec:ec:0a:74:c0:ed:b2:d9:ba:66:61:f1:90:
         99:5c:09:91:c1:c1:7b:d7:2c:87:c8:d2:ad:a8:82:19:eb:86:
         9d:37:a1:4c:c0:42:49:31:3d:60:bf:8c:6f:2b:a3:58:84:3c:
         83:a7:c9:51:dd:e2:87:38:eb:9c:88:84:47:bd:cd:a4:99:60:
         38:3b:57:ae:27:ed:7b:91:4c:71:3f:de:97:35:e7:ce:b8:7e:
         0c:fc:a9:eb:10:96:ab:0c:ae:8f:22:e8:2a:35:21:ce:d6:0d:
         47:78:29:70:d9:89:24:02:52:ed:b6:1d:e5:b5:77:43:4f:f1:
         64:01:e7:07:fa:25:f7:0b:8f:45:b9:56:95:46:4f:f5:41:f2:
         b7:aa:a5:78:ef:28:35:76:e0:6b:f7:9d:2e:76:ed:4b:13:91:
         21:b7:f9:68:58:98:df:3d:a6:0c:3d:64:10:48:d0:30:e5:bc:
         7b:d4:c7:13:0d:10:7a:98:52:bd:6d:0b:d4:78:af:58:6d:0c:
         ed:bf:17:64:65:ee:74:8e:b1:1a:59:bf:11:8c:20:bd:92:1f:
         67:ae:7e:20:75:c0:0c:f6:7f:77:e5:7e:89:50:6d:ba:b0:dd:
         77:4d:3d:ba:5b:e4:32:fa:9f:d5:ed:6d:dc:f8:72:74:91:2f:
         8e:f4:84:84:09:5c:12:59:cc:7d:81:e2:31:39:2b:f1:d3:36:
         05:0f:8d:df:05:92:5f:9a:37:d6:0b:97:a5:2d:0f:ab:68:c2:
         4f:58:e4:f5:bc:1a:0d:33:58:b0:74:3f:5d:69:d7:9a:28:2f:
         94:09:d8:ce:74:6b:71:fc:ab:92:a1:aa:02:d3:56:04:c8:c7:
         5c:d9:3c:07:39:cc:32:87:dc:e9:09:78:53:27:51:74:bc:02:
         e3:ee:15:00:e3:84:80:5c:aa:fd:0f:1c:56:71:f1:23:15:0d:
         0b:89:51:38:e8:4d:f3:dd:80:9c:27:db:28:6d:98:1c:95:f8:
         e2:70:60:fa:76:38:a3:ad:6b:ec:26:60:7a:c1:04:b0:74:22:
         f9:76:08:72:e5:be:b6:d8:ef:17:67:81:43:ab:7f:7b:e9:6e:
         9f:c1:2a:f0:e3:25:61:85
-----BEGIN CERTIFICATE-----
MIIGrTCCBJWgAwIBAgICFtgwDQYJKoZIhvcNAQEEBQAwgawxCzAJBgNVBAYTAlVT
MQswCQYDVQQIEwJPSDERMA8GA1UEBxMIQ29sdW1idXMxEjAQBgNVBAoTCVZpa2lu
Z1ZQTjEdMBsGA1UECxMUTXlPcmdhbml6YXRpb25hbFVuaXQxFTATBgNVBAMTDFZp
a2luZ1ZQTiBDQTEQMA4GA1UEKRMHRWFzeVJTQTEhMB8GCSqGSIb3DQEJARYSbWVA
bXlob3N0Lm15ZG9tYWluMB4XDTE1MDcxNzE1Mzk0N1oXDTI1MDcxNDE1Mzk0N1ow
HzEdMBsGA1UEAxMUQ2xpZW50MTg0MUNlcnQ0YzBjODAwggIiMA0GCSqGSIb3DQEB
AQUAA4ICDwAwggIKAoICAQDVPJg9vxW05h/UNUxWOMkUx2W2TqVhYSxn9xERe+5E
NIFyXmX5U3FnCO8i2fut/yOMttgLnQMmPgJT3KRG4JNt0Ll3IMZA762KX3Q5B1nK
HmmAjMxM7PspLGlq6+n58Y23o9V8ZpxRQIFBuvN8LkQtzlo7B474ZYhIOTp+w/E5
LrfFC1YFI6fWa5KUeX/2bZAPlwy6qMqEpBCw8pp9KEAAN6YDQnBwuIoGz6kdb3pl
4ExSW3zgKq9Oq/Nb/rruFA7+2s26lLVIpdi9FA1or07iK3pEO0EJ7EW/F1SkrFDv
pFfI3P2VXuZ9V17A/hfbgNbm2AcG6HO/3a8GBFmdcXgPY98r8im9WLOYYwG65z73
/XUilVkTsOl+REzbYwdHBxnauju5318V7mg59ZufAWItVvFQpa0dHrndfeidjHBR
+MFxSzOK12Ono0s2LIDs2CWb+ZqyQ6+3SAHP7ZQTDP4rvnlXtqEmPeBK3sn+tMBS
sY1syFu03q4UYKRncVoQ4anYg4SJTKkP6K3Rs/xnqt1EPbe0jQs1GQlWBEfRkKSZ
GCkb4xAwE7mCfaXseH9ZcJqouvMOMT7rJ9kcjk3ju+PufPbXVsmdFXihyLwl7NjC
Cs7EtuWpfxvw37N2N74aflCE2M3VW82Bbq4UmMkH4C4QkN7Do+hKLKleehh55Exh
gQIDAQABo4IBYzCCAV8wCQYDVR0TBAIwADAtBglghkgBhvhCAQ0EIBYeRWFzeS1S
U0EgR2VuZXJhdGVkIENlcnRpZmljYXRlMB0GA1UdDgQWBBRapfRqmyJ78uAX2BGM
QdmlGF4W2zCB4QYDVR0jBIHZMIHWgBQSzWAE0qCAnnDtxpm4eyzGUv0ZoaGBsqSB
rzCBrDELMAkGA1UEBhMCVVMxCzAJBgNVBAgTAk9IMREwDwYDVQQHEwhDb2x1bWJ1
czESMBAGA1UEChMJVmlraW5nVlBOMR0wGwYDVQQLExRNeU9yZ2FuaXphdGlvbmFs
VW5pdDEVMBMGA1UEAxMMVmlraW5nVlBOIENBMRAwDgYDVQQpEwdFYXN5UlNBMSEw
HwYJKoZIhvcNAQkBFhJtZUBteWhvc3QubXlkb21haW6CCQDPNYXugL8qPjATBgNV
HSUEDDAKBggrBgEFBQcDAjALBgNVHQ8EBAMCB4AwDQYJKoZIhvcNAQEEBQADggIB
ANP5E6/Iyf2FIapk3m8pcZDI5WEW9C0Q7l01PjdsdGmXDMl+5UzQIyGeIMaVP5v1
hA9IqpAdcCfdN5rrTs/Dj6C25Qla+BF6WclAF56sTvSy5Aet/HM6Xeu7cQS9mmP1
7OwKdMDtstm6ZmHxkJlcCZHBwXvXLIfI0q2oghnrhp03oUzAQkkxPWC/jG8ro1iE
PIOnyVHd4oc465yIhEe9zaSZYDg7V64n7XuRTHE/3pc15864fgz8qesQlqsMro8i
6Co1Ic7WDUd4KXDZiSQCUu22HeW1d0NP8WQB5wf6JfcLj0W5VpVGT/VB8reqpXjv
KDV24Gv3nS527UsTkSG3+WhYmN89pgw9ZBBI0DDlvHvUxxMNEHqYUr1tC9R4r1ht
DO2/F2Rl7nSOsRpZvxGMIL2SH2eufiB1wAz2f3flfolQbbqw3XdNPbpb5DL6n9Xt
bdz4cnSRL470hIQJXBJZzH2B4jE5K/HTNgUPjd8Fkl+aN9YLl6UtD6towk9Y5PW8
Gg0zWLB0P11p15ooL5QJ2M50a3H8q5KhqgLTVgTIx1zZPAc5zDKH3OkJeFMnUXS8
AuPuFQDjhIBcqv0PHFZx8SMVDQuJUTjoTfPdgJwn2yhtmByV+OJwYPp2OKOta+wm
YHrBBLB0Ivl2CHLlvrbY7xdngUOrf3vpbp/BKvDjJWGF
-----END CERTIFICATE-----
