Certificate:
    Data:
        Version: 3 (0x2)
        Serial Number: 9114 (0x239a)
    Signature Algorithm: sha256WithRSAEncryption
        Issuer: C=US, ST=OH, L=Columbus, O=VikingVPN, OU=MyOrganizationalUnit, CN=VikingVPN CA/name=EasyRSA/emailAddress=me@myhost.mydomain
        Validity
            Not Before: Sep 29 04:04:04 2016 GMT
            Not After : Sep 27 04:04:04 2026 GMT
        Subject: CN=Client2518Certe90320
        Subject Public Key Info:
            Public Key Algorithm: rsaEncryption
                Public-Key: (4096 bit)
                Modulus:
                    00:9b:38:8c:37:7c:b1:6a:7f:73:83:2e:c6:d2:a6:
                    a1:6d:bb:ea:17:c3:d2:5f:74:82:82:34:ea:22:2d:
                    a0:31:01:25:1c:b7:59:2e:6a:7b:13:41:29:70:e1:
                    ae:42:d7:52:04:c6:3a:00:dc:97:22:be:3a:d8:a9:
                    3d:97:51:3d:ba:ff:bd:3a:86:3d:df:4a:59:6b:27:
                    e1:65:0b:3b:76:94:87:bd:6f:4e:4f:7e:aa:95:3e:
                    3b:3c:58:0e:42:ba:75:1b:33:c4:54:42:67:c9:20:
                    22:7a:f7:36:2f:48:53:76:b9:b8:6b:cb:35:b4:34:
                    81:da:35:19:39:aa:62:a3:d1:59:3e:1b:9f:b7:95:
                    a7:50:f9:0c:32:b0:87:63:83:f4:7c:72:ac:a7:b6:
                    9b:d0:0c:6d:fd:47:f5:06:3f:54:b1:05:8b:32:83:
                    19:62:7f:43:85:55:e4:a0:26:84:7b:7b:1b:fc:e5:
                    bb:a5:7c:c0:36:9c:3f:1e:f2:a0:2b:d2:3f:4a:e7:
                    08:dc:5a:11:30:51:15:ac:04:71:fc:0d:0c:a8:ef:
                    29:d2:66:a0:cb:e1:41:49:29:4f:d0:f8:81:6d:88:
                    17:7b:2a:09:a0:14:f0:89:62:f3:15:a2:fd:7d:45:
                    f8:48:e4:12:1d:4c:9f:e7:5c:f2:77:bc:94:51:3f:
                    6e:82:73:47:f2:e9:b9:aa:36:12:48:55:14:ee:41:
                    4b:7e:ec:e0:bd:e8:db:18:3e:4f:c7:c8:5a:97:b7:
                    6b:3b:6c:2a:3e:53:fd:19:3d:eb:bf:ed:3b:f8:db:
                    7c:ca:c7:1f:0d:c5:47:61:1a:2a:5b:61:f0:7a:d0:
                    d0:12:51:c3:16:7c:2a:65:46:03:79:88:56:0b:ee:
                    77:1a:d1:e3:67:43:6e:3a:3f:79:b3:9d:bd:bd:85:
                    1c:39:81:40:9e:97:2c:45:68:12:28:7a:c4:aa:5e:
                    1d:f1:23:07:02:eb:66:aa:4b:c5:f6:f4:16:d5:29:
                    ae:67:42:16:e9:a0:8f:be:0d:4b:8a:c7:f3:35:52:
                    f8:3a:de:9e:a2:2e:76:b1:b5:9b:14:4e:ac:30:66:
                    51:d9:28:d8:05:73:3f:0d:79:71:5d:a4:60:7f:64:
                    8a:69:9f:3f:8d:9c:3d:e8:a9:ec:2a:ae:77:30:68:
                    ff:6e:35:50:df:23:a1:37:98:0d:69:e4:17:58:0d:
                    6a:df:29:c8:c2:5c:f4:0c:19:87:b5:bf:0e:93:58:
                    37:03:87:f7:cd:a6:52:01:f2:2d:8c:36:9d:84:f3:
                    ec:6e:5e:12:96:78:68:d5:d9:57:03:da:dd:37:8c:
                    f3:be:a9:aa:7a:df:98:14:d0:b6:34:d8:41:1c:54:
                    25:9e:03
                Exponent: 65537 (0x10001)
        X509v3 extensions:
            X509v3 Basic Constraints: 
                CA:FALSE
            Netscape Comment: 
                Easy-RSA Generated Certificate
            X509v3 Subject Key Identifier: 
                CB:96:5A:78:E5:C8:B4:11:EF:01:EC:FD:9B:63:E5:43:C5:56:A5:60
            X509v3 Authority Key Identifier: 
                keyid:12:CD:60:04:D2:A0:80:9E:70:ED:C6:99:B8:7B:2C:C6:52:FD:19:A1
                DirName:/C=US/ST=OH/L=Columbus/O=VikingVPN/OU=MyOrganizationalUnit/CN=VikingVPN CA/name=EasyRSA/emailAddress=me@myhost.mydomain
                serial:CF:35:85:EE:80:BF:2A:3E

            X509v3 Extended Key Usage: 
                TLS Web Client Authentication
            X509v3 Key Usage: 
                Digital Signature
    Signature Algorithm: sha256WithRSAEncryption
         22:7c:29:17:36:f7:a4:3b:c2:e5:2a:0a:2f:23:c4:6b:11:2f:
         83:a8:8b:1e:08:85:cd:c5:bb:51:a7:a6:3f:ad:99:5b:aa:fa:
         62:61:61:f6:52:b4:b1:d8:1c:f2:9e:21:97:f4:e8:58:51:36:
         af:03:55:53:da:80:5b:fb:bb:e2:74:b1:a9:4e:2c:80:79:58:
         16:01:8d:b5:ed:3d:87:44:ad:8e:0a:11:cf:77:c3:98:86:36:
         78:38:34:b7:59:7f:96:58:a8:08:74:a1:89:c0:76:c2:86:c8:
         06:f9:b2:f1:09:fd:1a:4e:99:de:90:02:08:09:fb:b8:a7:71:
         2b:8e:b3:12:b6:7f:da:35:85:d4:f6:f8:80:ad:d3:5e:5a:9a:
         7e:66:25:27:d9:b9:0d:43:0f:44:e1:fd:9e:12:dc:b8:94:ef:
         d1:d4:91:d9:12:35:84:e8:55:e1:2e:e0:63:d8:73:ac:c4:a6:
         0a:25:b7:21:fd:28:9d:85:34:05:63:aa:98:eb:f8:cd:4e:95:
         97:8c:03:a6:f2:cf:79:73:a2:3a:f0:ba:73:9f:09:78:1c:e6:
         36:ce:cc:eb:e9:64:c8:8b:72:44:1c:84:96:f3:3b:46:ef:a1:
         a3:c4:ad:0a:a2:26:16:e4:35:af:14:0c:46:c0:f6:dc:66:68:
         a2:27:3b:ae:bf:04:15:86:a5:dc:08:70:4b:38:71:c1:06:15:
         51:bf:90:1f:da:82:d0:75:d5:61:32:03:5b:24:a5:61:cb:33:
         d4:7d:a7:db:06:a5:c6:9a:17:7e:19:22:1b:87:5a:0d:12:b6:
         6b:50:28:9c:8b:18:f4:c0:33:12:ce:ec:5d:e5:37:d9:a1:7f:
         25:18:fa:fb:90:79:ea:f6:35:ae:4b:62:79:d4:7f:78:97:89:
         38:c3:88:80:f5:d3:f1:26:0b:af:fd:f3:45:88:28:dc:5d:82:
         2b:55:69:05:56:3c:9f:7c:11:da:e7:57:4e:9b:cf:d5:86:5a:
         e3:87:32:d9:21:c8:f2:7e:97:e9:3b:78:50:a0:0b:e3:cf:6f:
         85:ad:95:70:3a:aa:f8:c5:60:ad:98:79:20:85:83:85:b3:ab:
         22:c7:63:fa:f9:ec:a9:76:56:a7:41:5c:0e:e7:85:e0:e0:ca:
         22:8d:1a:02:58:43:1d:96:8f:9c:63:3a:da:29:14:ae:46:e4:
         2f:3f:f5:ef:3f:4b:39:cf:7d:bb:f0:50:3f:c9:5a:a3:ae:de:
         db:22:a1:64:2a:9a:67:35:de:4b:08:a4:ad:76:d3:6a:83:20:
         3f:5b:df:bc:36:97:a1:35:e8:05:58:95:03:15:a8:75:b5:ac:
         54:e5:62:28:91:c0:32:0e
-----BEGIN CERTIFICATE-----
MIIGrTCCBJWgAwIBAgICI5owDQYJKoZIhvcNAQELBQAwgawxCzAJBgNVBAYTAlVT
MQswCQYDVQQIEwJPSDERMA8GA1UEBxMIQ29sdW1idXMxEjAQBgNVBAoTCVZpa2lu
Z1ZQTjEdMBsGA1UECxMUTXlPcmdhbml6YXRpb25hbFVuaXQxFTATBgNVBAMTDFZp
a2luZ1ZQTiBDQTEQMA4GA1UEKRMHRWFzeVJTQTEhMB8GCSqGSIb3DQEJARYSbWVA
bXlob3N0Lm15ZG9tYWluMB4XDTE2MDkyOTA0MDQwNFoXDTI2MDkyNzA0MDQwNFow
HzEdMBsGA1UEAxMUQ2xpZW50MjUxOENlcnRlOTAzMjAwggIiMA0GCSqGSIb3DQEB
AQUAA4ICDwAwggIKAoICAQCbOIw3fLFqf3ODLsbSpqFtu+oXw9JfdIKCNOoiLaAx
ASUct1kuansTQSlw4a5C11IExjoA3JcivjrYqT2XUT26/706hj3fSllrJ+FlCzt2
lIe9b05PfqqVPjs8WA5CunUbM8RUQmfJICJ69zYvSFN2ubhryzW0NIHaNRk5qmKj
0Vk+G5+3ladQ+QwysIdjg/R8cqyntpvQDG39R/UGP1SxBYsygxlif0OFVeSgJoR7
exv85bulfMA2nD8e8qAr0j9K5wjcWhEwURWsBHH8DQyo7ynSZqDL4UFJKU/Q+IFt
iBd7KgmgFPCJYvMVov19RfhI5BIdTJ/nXPJ3vJRRP26Cc0fy6bmqNhJIVRTuQUt+
7OC96NsYPk/HyFqXt2s7bCo+U/0ZPeu/7Tv423zKxx8NxUdhGipbYfB60NASUcMW
fCplRgN5iFYL7nca0eNnQ246P3mznb29hRw5gUCelyxFaBIoesSqXh3xIwcC62aq
S8X29BbVKa5nQhbpoI++DUuKx/M1Uvg63p6iLnaxtZsUTqwwZlHZKNgFcz8NeXFd
pGB/ZIppnz+NnD3oqewqrncwaP9uNVDfI6E3mA1p5BdYDWrfKcjCXPQMGYe1vw6T
WDcDh/fNplIB8i2MNp2E8+xuXhKWeGjV2VcD2t03jPO+qap635gU0LY02EEcVCWe
AwIDAQABo4IBYzCCAV8wCQYDVR0TBAIwADAtBglghkgBhvhCAQ0EIBYeRWFzeS1S
U0EgR2VuZXJhdGVkIENlcnRpZmljYXRlMB0GA1UdDgQWBBTLllp45ci0Ee8B7P2b
Y+VDxValYDCB4QYDVR0jBIHZMIHWgBQSzWAE0qCAnnDtxpm4eyzGUv0ZoaGBsqSB
rzCBrDELMAkGA1UEBhMCVVMxCzAJBgNVBAgTAk9IMREwDwYDVQQHEwhDb2x1bWJ1
czESMBAGA1UEChMJVmlraW5nVlBOMR0wGwYDVQQLExRNeU9yZ2FuaXphdGlvbmFs
VW5pdDEVMBMGA1UEAxMMVmlraW5nVlBOIENBMRAwDgYDVQQpEwdFYXN5UlNBMSEw
HwYJKoZIhvcNAQkBFhJtZUBteWhvc3QubXlkb21haW6CCQDPNYXugL8qPjATBgNV
HSUEDDAKBggrBgEFBQcDAjALBgNVHQ8EBAMCB4AwDQYJKoZIhvcNAQELBQADggIB
ACJ8KRc296Q7wuUqCi8jxGsRL4Ooix4Ihc3Fu1Gnpj+tmVuq+mJhYfZStLHYHPKe
IZf06FhRNq8DVVPagFv7u+J0salOLIB5WBYBjbXtPYdErY4KEc93w5iGNng4NLdZ
f5ZYqAh0oYnAdsKGyAb5svEJ/RpOmd6QAggJ+7incSuOsxK2f9o1hdT2+ICt015a
mn5mJSfZuQ1DD0Th/Z4S3LiU79HUkdkSNYToVeEu4GPYc6zEpgoltyH9KJ2FNAVj
qpjr+M1OlZeMA6byz3lzojrwunOfCXgc5jbOzOvpZMiLckQchJbzO0bvoaPErQqi
JhbkNa8UDEbA9txmaKInO66/BBWGpdwIcEs4ccEGFVG/kB/agtB11WEyA1skpWHL
M9R9p9sGpcaaF34ZIhuHWg0StmtQKJyLGPTAMxLO7F3lN9mhfyUY+vuQeer2Na5L
YnnUf3iXiTjDiID10/EmC6/980WIKNxdgitVaQVWPJ98EdrnV06bz9WGWuOHMtkh
yPJ+l+k7eFCgC+PPb4WtlXA6qvjFYK2YeSCFg4WzqyLHY/r57Kl2VqdBXA7nheDg
yiKNGgJYQx2Wj5xjOtopFK5G5C8/9e8/SznPfbvwUD/JWqOu3tsioWQqmmc13ksI
pK1202qDID9b37w2l6E16AVYlQMVqHW1rFTlYiiRwDIO
-----END CERTIFICATE-----
