Certificate:
    Data:
        Version: 3 (0x2)
        Serial Number: 4637 (0x121d)
    Signature Algorithm: md5WithRSAEncryption
        Issuer: C=US, ST=OH, L=Columbus, O=VikingVPN, OU=MyOrganizationalUnit, CN=VikingVPN CA/name=EasyRSA/emailAddress=me@myhost.mydomain
        Validity
            Not Before: Mar  2 18:53:02 2015 GMT
            Not After : Feb 27 18:53:02 2025 GMT
        Subject: CN=Client1504Cert104cea
        Subject Public Key Info:
            Public Key Algorithm: rsaEncryption
                Public-Key: (4096 bit)
                Modulus:
                    00:b1:07:6b:54:59:d0:1c:a7:b3:51:84:23:f8:5a:
                    29:5b:0d:5f:21:14:e2:0c:e1:51:d8:0a:b4:5a:56:
                    ca:bf:35:70:73:c6:14:7a:ac:a7:c6:e4:2b:98:f6:
                    e1:ea:1f:f9:d4:a1:e6:7c:91:65:cb:fd:40:eb:63:
                    02:c5:c5:38:2d:64:07:f0:9e:6e:d9:27:52:13:2b:
                    4b:0d:89:5c:df:56:3d:16:3f:e7:4d:b4:c5:c3:9d:
                    c9:91:ec:78:1d:5b:d7:28:c1:6b:f3:8e:14:d9:aa:
                    da:3f:db:f7:56:f8:44:69:21:f0:51:00:7e:44:ad:
                    f2:7e:21:83:53:55:82:38:a2:37:a7:d0:be:ae:8d:
                    a3:8b:36:2f:dd:b4:32:25:4e:83:ea:61:52:e4:e4:
                    c2:e6:5f:4d:bb:6e:10:64:91:f9:2c:fa:43:c2:a0:
                    11:7e:bb:a4:49:1b:b6:ce:55:9c:40:d0:5a:17:d5:
                    3e:e6:9e:70:86:3f:20:6e:10:b9:76:ad:ab:46:ff:
                    fa:f3:6d:00:f9:1c:68:eb:b7:09:ab:1b:a5:cf:69:
                    4c:bd:c7:12:17:8c:dd:de:41:53:c0:83:32:f5:14:
                    a5:b9:03:02:15:b5:5b:72:3d:f8:9a:11:ee:dd:0b:
                    c6:10:f4:dd:9e:79:fc:f7:43:95:84:32:01:ff:6f:
                    3d:e9:a5:e8:24:7c:30:c8:65:04:cd:7d:bc:b0:fe:
                    7e:c2:5a:9e:29:6b:87:0c:8b:af:08:12:f8:2b:69:
                    50:42:1a:fe:aa:4e:8e:04:79:38:ff:30:70:72:83:
                    23:73:c5:8a:e6:5b:1f:e2:41:06:3d:2b:2c:dd:27:
                    9e:0a:9e:76:9c:65:6d:6c:b4:82:cd:95:95:34:ef:
                    fa:3d:34:77:5b:3d:ee:7f:34:89:61:4d:6f:38:13:
                    3d:ca:3f:67:ce:58:ba:fd:e0:eb:0f:cb:f1:a6:5d:
                    a5:36:be:d1:1b:95:4c:a2:fd:1e:0b:f4:13:36:02:
                    a5:a9:e1:25:6c:f6:a6:a6:ba:2c:21:5d:05:09:c5:
                    af:d5:34:5f:25:17:c4:05:e2:af:81:54:87:79:9d:
                    ac:c1:e4:78:2d:54:4b:dd:56:d0:72:2d:fc:25:8b:
                    52:dd:15:e0:26:50:89:2b:d9:57:55:cd:2e:be:a8:
                    66:46:83:8a:ad:26:68:fb:66:29:61:15:94:b3:9a:
                    9a:c9:af:11:ba:48:a8:2a:54:b9:c1:3f:1e:88:09:
                    80:f8:7a:2c:0d:e4:1d:f6:36:72:af:62:b0:64:8b:
                    41:fe:9b:15:45:b1:6f:5c:4c:cc:0a:08:42:f2:48:
                    a8:a6:2a:52:00:62:51:1f:ed:0c:96:65:62:03:89:
                    c3:95:03
                Exponent: 65537 (0x10001)
        X509v3 extensions:
            X509v3 Basic Constraints: 
                CA:FALSE
            Netscape Comment: 
                Easy-RSA Generated Certificate
            X509v3 Subject Key Identifier: 
                80:06:F4:CA:06:9A:E4:08:37:41:D5:3C:6D:5E:B7:34:38:3E:C1:82
            X509v3 Authority Key Identifier: 
                keyid:12:CD:60:04:D2:A0:80:9E:70:ED:C6:99:B8:7B:2C:C6:52:FD:19:A1
                DirName:/C=US/ST=OH/L=Columbus/O=VikingVPN/OU=MyOrganizationalUnit/CN=VikingVPN CA/name=EasyRSA/emailAddress=me@myhost.mydomain
                serial:CF:35:85:EE:80:BF:2A:3E

            X509v3 Extended Key Usage: 
                TLS Web Client Authentication
            X509v3 Key Usage: 
                Digital Signature
    Signature Algorithm: md5WithRSAEncryption
         db:c7:06:94:2e:ea:91:dc:8b:2f:c1:6c:8e:c4:6a:37:67:b7:
         c0:2a:96:63:be:01:4a:42:93:38:c5:15:8e:d6:ce:99:48:cb:
         96:1c:66:d0:44:f8:d5:ca:07:8a:d5:9a:95:48:80:d2:19:54:
         8f:03:1c:44:c7:f7:0d:4a:9f:14:15:17:65:ff:3f:e3:4e:d9:
         62:8e:db:f3:51:8d:e4:10:f0:65:15:ca:b5:c8:45:21:e2:8b:
         7c:f6:16:f8:92:21:5d:cc:f2:9c:15:54:73:43:87:88:52:06:
         87:6f:3d:e2:e7:7e:09:c7:20:16:d0:91:65:e7:6f:b7:18:5e:
         ce:68:d2:9e:ec:9f:28:e8:8c:80:3e:b5:18:66:16:33:3a:6f:
         30:a0:13:ea:bf:41:b9:c2:62:a2:cd:56:39:17:14:55:fc:7a:
         69:08:27:63:6e:51:c7:d7:ca:2a:85:38:d6:ba:7b:16:d7:53:
         2b:50:2f:14:c9:2b:8a:a9:8c:3a:32:1d:f9:32:bd:51:3e:c5:
         ff:19:68:2b:d9:05:42:49:f2:1e:6d:65:2a:13:aa:88:c7:19:
         3d:23:50:2f:f4:e5:0a:5c:5f:37:fc:a4:e7:44:57:40:e6:a7:
         b6:7d:01:68:a6:04:30:94:3c:eb:1d:3f:16:2a:79:eb:d3:7e:
         8f:0a:da:b2:31:6e:7a:94:b4:d4:32:f4:a9:0a:67:dd:0c:fa:
         02:ee:46:e0:13:53:94:3d:aa:24:a9:f0:d5:4e:e3:e3:dd:5b:
         8f:ac:46:7b:18:20:eb:a0:61:f8:47:82:21:5a:3a:c9:81:e7:
         17:05:7f:c8:07:97:f7:b1:fa:3b:74:a2:ae:93:88:39:57:0a:
         f0:0d:b6:8e:70:56:d1:13:1b:24:6d:95:9c:7d:a4:95:5c:18:
         0a:44:40:41:e3:93:33:df:3f:64:d4:5b:8e:55:af:19:53:7b:
         f4:26:6b:c9:7b:31:cc:7f:4a:17:93:e0:78:3b:95:24:b6:e1:
         82:da:19:33:5a:91:4a:df:c9:e9:bc:cc:23:9e:3b:47:da:f3:
         b8:85:a0:37:69:da:65:e5:15:84:99:db:e6:c0:3d:82:ec:ff:
         56:be:47:e7:a4:d1:c7:4a:0d:2e:aa:4b:db:3a:23:61:35:bf:
         cc:b7:e4:62:f8:91:91:76:1b:58:b8:e4:7c:4d:16:68:33:54:
         1a:9f:de:c3:21:9e:48:62:38:63:e0:f2:c1:da:11:cf:e5:2e:
         bf:1a:42:c7:13:06:51:43:dc:93:d1:1b:e9:4e:99:c3:40:0c:
         80:dc:a3:26:03:e6:30:cd:88:b7:12:f3:73:9f:be:81:f4:ba:
         2a:46:ae:50:d7:78:42:ce
-----BEGIN CERTIFICATE-----
MIIGrTCCBJWgAwIBAgICEh0wDQYJKoZIhvcNAQEEBQAwgawxCzAJBgNVBAYTAlVT
MQswCQYDVQQIEwJPSDERMA8GA1UEBxMIQ29sdW1idXMxEjAQBgNVBAoTCVZpa2lu
Z1ZQTjEdMBsGA1UECxMUTXlPcmdhbml6YXRpb25hbFVuaXQxFTATBgNVBAMTDFZp
a2luZ1ZQTiBDQTEQMA4GA1UEKRMHRWFzeVJTQTEhMB8GCSqGSIb3DQEJARYSbWVA
bXlob3N0Lm15ZG9tYWluMB4XDTE1MDMwMjE4NTMwMloXDTI1MDIyNzE4NTMwMlow
HzEdMBsGA1UEAxMUQ2xpZW50MTUwNENlcnQxMDRjZWEwggIiMA0GCSqGSIb3DQEB
AQUAA4ICDwAwggIKAoICAQCxB2tUWdAcp7NRhCP4WilbDV8hFOIM4VHYCrRaVsq/
NXBzxhR6rKfG5CuY9uHqH/nUoeZ8kWXL/UDrYwLFxTgtZAfwnm7ZJ1ITK0sNiVzf
Vj0WP+dNtMXDncmR7HgdW9cowWvzjhTZqto/2/dW+ERpIfBRAH5ErfJ+IYNTVYI4
ojen0L6ujaOLNi/dtDIlToPqYVLk5MLmX027bhBkkfks+kPCoBF+u6RJG7bOVZxA
0FoX1T7mnnCGPyBuELl2ratG//rzbQD5HGjrtwmrG6XPaUy9xxIXjN3eQVPAgzL1
FKW5AwIVtVtyPfiaEe7dC8YQ9N2eefz3Q5WEMgH/bz3ppegkfDDIZQTNfbyw/n7C
Wp4pa4cMi68IEvgraVBCGv6qTo4EeTj/MHBygyNzxYrmWx/iQQY9KyzdJ54Knnac
ZW1stILNlZU07/o9NHdbPe5/NIlhTW84Ez3KP2fOWLr94OsPy/GmXaU2vtEblUyi
/R4L9BM2AqWp4SVs9qamuiwhXQUJxa/VNF8lF8QF4q+BVId5nazB5HgtVEvdVtBy
Lfwli1LdFeAmUIkr2VdVzS6+qGZGg4qtJmj7ZilhFZSzmprJrxG6SKgqVLnBPx6I
CYD4eiwN5B32NnKvYrBki0H+mxVFsW9cTMwKCELySKimKlIAYlEf7QyWZWIDicOV
AwIDAQABo4IBYzCCAV8wCQYDVR0TBAIwADAtBglghkgBhvhCAQ0EIBYeRWFzeS1S
U0EgR2VuZXJhdGVkIENlcnRpZmljYXRlMB0GA1UdDgQWBBSABvTKBprkCDdB1Txt
Xrc0OD7BgjCB4QYDVR0jBIHZMIHWgBQSzWAE0qCAnnDtxpm4eyzGUv0ZoaGBsqSB
rzCBrDELMAkGA1UEBhMCVVMxCzAJBgNVBAgTAk9IMREwDwYDVQQHEwhDb2x1bWJ1
czESMBAGA1UEChMJVmlraW5nVlBOMR0wGwYDVQQLExRNeU9yZ2FuaXphdGlvbmFs
VW5pdDEVMBMGA1UEAxMMVmlraW5nVlBOIENBMRAwDgYDVQQpEwdFYXN5UlNBMSEw
HwYJKoZIhvcNAQkBFhJtZUBteWhvc3QubXlkb21haW6CCQDPNYXugL8qPjATBgNV
HSUEDDAKBggrBgEFBQcDAjALBgNVHQ8EBAMCB4AwDQYJKoZIhvcNAQEEBQADggIB
ANvHBpQu6pHciy/BbI7Eajdnt8AqlmO+AUpCkzjFFY7WzplIy5YcZtBE+NXKB4rV
mpVIgNIZVI8DHETH9w1KnxQVF2X/P+NO2WKO2/NRjeQQ8GUVyrXIRSHii3z2FviS
IV3M8pwVVHNDh4hSBodvPeLnfgnHIBbQkWXnb7cYXs5o0p7snyjojIA+tRhmFjM6
bzCgE+q/QbnCYqLNVjkXFFX8emkIJ2NuUcfXyiqFONa6exbXUytQLxTJK4qpjDoy
HfkyvVE+xf8ZaCvZBUJJ8h5tZSoTqojHGT0jUC/05QpcXzf8pOdEV0Dmp7Z9AWim
BDCUPOsdPxYqeevTfo8K2rIxbnqUtNQy9KkKZ90M+gLuRuATU5Q9qiSp8NVO4+Pd
W4+sRnsYIOugYfhHgiFaOsmB5xcFf8gHl/ex+jt0oq6TiDlXCvANto5wVtETGyRt
lZx9pJVcGApEQEHjkzPfP2TUW45VrxlTe/Qma8l7Mcx/SheT4Hg7lSS24YLaGTNa
kUrfyem8zCOeO0fa87iFoDdp2mXlFYSZ2+bAPYLs/1a+R+ek0cdKDS6qS9s6I2E1
v8y35GL4kZF2G1i45HxNFmgzVBqf3sMhnkhiOGPg8sHaEc/lLr8aQscTBlFD3JPR
G+lOmcNADIDcoyYD5jDNiLcS83OfvoH0uipGrlDXeELO
-----END CERTIFICATE-----
