Certificate:
    Data:
        Version: 3 (0x2)
        Serial Number: 8357 (0x20a5)
    Signature Algorithm: md5WithRSAEncryption
        Issuer: C=US, ST=OH, L=Columbus, O=VikingVPN, OU=MyOrganizationalUnit, CN=VikingVPN CA/name=EasyRSA/emailAddress=me@myhost.mydomain
        Validity
            Not Before: Jun 25 20:28:35 2016 GMT
            Not After : Jun 23 20:28:35 2026 GMT
        Subject: CN=Client2403Cert01ff00
        Subject Public Key Info:
            Public Key Algorithm: rsaEncryption
                Public-Key: (4096 bit)
                Modulus:
                    00:d5:49:6e:51:88:df:70:44:5a:c3:06:e5:a9:eb:
                    08:2d:18:e3:40:fe:9f:69:30:cc:e5:50:7c:0d:3b:
                    9a:d1:04:8d:43:94:fe:e7:73:91:af:d6:0b:41:db:
                    ba:c4:e3:c7:ae:87:bc:9f:ff:03:18:f5:c5:42:a2:
                    22:de:96:2d:1d:c1:8e:37:91:2b:60:e5:ee:ba:b2:
                    e6:0d:a9:d9:0c:e9:17:38:38:9a:f1:18:ff:21:b1:
                    a7:65:0a:09:e3:64:b0:f0:8c:ec:da:ac:56:88:4d:
                    71:4a:4d:06:52:12:96:7c:3b:3a:d2:f0:57:c0:ca:
                    8c:ec:62:a8:c7:dd:c7:99:d0:d4:5f:e2:3f:1b:20:
                    02:fd:7d:c8:95:a2:31:93:77:65:82:b6:e1:66:54:
                    df:10:14:3c:64:6d:6a:0b:28:81:79:c0:39:76:e3:
                    e8:4d:6d:fa:ce:e6:21:f7:b1:b6:b7:e5:6f:30:91:
                    c5:28:75:a0:25:21:07:5a:c2:16:d6:c1:5c:7a:84:
                    96:d6:34:aa:c6:35:b8:6a:56:3a:ff:d4:4e:ff:65:
                    5c:47:a4:07:2c:45:21:cd:bf:e8:ea:99:b6:fe:af:
                    7f:1f:01:63:ad:48:85:9d:22:e1:e8:45:42:0d:11:
                    04:f3:34:93:de:c7:eb:73:89:6a:d9:bb:f4:e7:a4:
                    1b:be:c7:52:7c:18:c3:91:d1:f6:fc:86:ac:0d:e9:
                    d5:91:e7:8a:5a:06:f8:ea:9f:98:d4:5f:ac:1d:b2:
                    fd:84:4a:f4:51:2e:15:a1:b2:2b:0e:2b:ec:5e:92:
                    8a:f8:d8:d8:ed:68:01:d2:41:3c:08:8f:ff:43:01:
                    ee:27:3a:28:79:ac:7b:e9:b3:87:4e:27:55:c9:bb:
                    09:e1:13:fc:19:71:54:af:cd:55:e7:ff:c5:7c:75:
                    56:54:00:54:96:c9:da:d4:39:74:00:41:f8:5b:83:
                    74:28:a9:21:6f:9b:0b:7c:04:c3:e2:41:2d:df:81:
                    86:60:15:54:10:aa:d4:38:3d:42:72:34:96:2d:cb:
                    d6:97:5a:24:44:3c:49:ed:03:ca:7f:76:4a:74:c6:
                    db:60:4d:73:3b:76:04:2d:cc:e9:6f:ca:8d:ea:98:
                    bd:14:c0:b6:22:ed:13:50:8d:df:bc:49:0c:24:47:
                    7e:5f:75:a5:4e:f6:2d:9d:dd:1b:5d:f3:14:7a:ed:
                    2d:d1:6e:43:78:7f:82:ac:ab:59:a1:cc:2d:79:3d:
                    4c:1e:d7:64:c0:e0:da:51:f0:84:8d:85:62:7c:8d:
                    fd:48:5d:69:d6:b3:3d:c6:82:e5:bf:a7:24:d0:c5:
                    b8:60:18:3c:ae:77:64:e8:5b:bf:08:85:cd:a3:fa:
                    95:2d:69
                Exponent: 65537 (0x10001)
        X509v3 extensions:
            X509v3 Basic Constraints: 
                CA:FALSE
            Netscape Comment: 
                Easy-RSA Generated Certificate
            X509v3 Subject Key Identifier: 
                14:87:28:BD:B3:4E:27:E7:17:06:5D:43:01:FF:5D:2E:6A:A3:96:68
            X509v3 Authority Key Identifier: 
                keyid:12:CD:60:04:D2:A0:80:9E:70:ED:C6:99:B8:7B:2C:C6:52:FD:19:A1
                DirName:/C=US/ST=OH/L=Columbus/O=VikingVPN/OU=MyOrganizationalUnit/CN=VikingVPN CA/name=EasyRSA/emailAddress=me@myhost.mydomain
                serial:CF:35:85:EE:80:BF:2A:3E

            X509v3 Extended Key Usage: 
                TLS Web Client Authentication
            X509v3 Key Usage: 
                Digital Signature
    Signature Algorithm: md5WithRSAEncryption
         76:fd:2f:47:9c:8c:f4:36:a7:37:1a:94:11:c9:bd:5f:09:60:
         a6:6c:af:d7:6d:5e:8c:fe:90:ad:33:ef:eb:ff:a3:6e:49:55:
         a6:80:05:c1:31:2f:b0:6e:0b:a9:19:0a:69:3d:00:fc:8d:e9:
         0b:79:07:50:94:79:dc:47:31:98:b8:ce:37:87:40:13:bc:09:
         30:49:52:9e:e5:6c:9b:80:8a:52:69:c0:f3:5c:af:b3:65:24:
         4f:92:7d:ff:f9:70:b2:e5:71:10:d4:3e:7e:b9:ca:84:c1:fa:
         ab:56:6b:13:18:80:98:d3:a8:fb:2f:52:08:ed:2b:5b:6d:e0:
         14:9f:e6:75:84:9f:68:61:2f:18:cd:70:98:7c:46:d9:3a:29:
         17:6b:d9:d1:a5:af:a7:66:1f:b8:35:bd:16:27:c0:18:16:9d:
         d0:d9:d9:f3:ad:85:2e:ba:36:31:b7:9f:d4:a0:fa:8a:34:50:
         d0:10:3d:fc:e6:88:c0:38:7d:77:b1:38:26:0e:a0:fd:af:84:
         cf:73:e1:1c:b6:59:df:5b:b1:64:04:4b:3b:0c:e3:49:ed:90:
         99:c6:a4:a0:08:b5:9d:00:b8:4f:7c:d8:7e:86:39:08:e3:49:
         e7:cb:49:c8:82:d7:a8:0e:f0:a0:12:1e:52:50:f9:c7:d9:59:
         aa:e2:59:f4:95:06:55:72:78:51:ab:91:9b:04:61:47:96:62:
         ec:98:17:9b:c0:98:cc:f0:07:9d:37:de:3b:8d:0d:66:fd:be:
         d3:c2:6b:bb:7e:e0:49:3c:9d:53:24:f3:e0:14:36:1a:fa:ae:
         d5:ea:3f:43:67:03:2a:20:07:14:1f:46:18:c7:46:4d:ba:08:
         24:e0:aa:32:42:b8:c2:ca:c9:1f:ce:df:e7:ce:67:6a:9d:a2:
         bd:57:5d:71:78:be:3d:e3:3d:f7:a8:5d:80:46:ab:ea:68:10:
         bd:46:b1:a7:8a:a7:4f:77:2e:3e:ed:03:7b:25:93:44:15:87:
         07:06:d6:37:32:16:71:84:29:e9:59:61:db:8d:08:2f:cd:cf:
         5f:d3:b0:47:35:d2:93:e5:bb:62:5d:d7:d0:8f:cc:27:c1:e6:
         11:52:bf:d4:5d:82:5a:70:0c:f5:f4:6c:ed:46:d0:1c:b2:02:
         42:b9:9f:f4:47:a5:ab:70:04:7b:af:8d:5c:62:1c:82:e3:c9:
         db:e2:68:2a:e4:9f:9b:fa:a2:ee:5e:bc:c3:6e:64:9e:cb:4d:
         ab:bc:0c:03:8e:30:44:0d:8f:15:dd:2d:ad:ec:a8:10:1c:2e:
         60:99:d7:10:7a:8e:63:00:0a:ef:df:e4:de:bb:39:06:e4:29:
         d1:85:b0:9e:a6:19:76:92
-----BEGIN CERTIFICATE-----
MIIGrTCCBJWgAwIBAgICIKUwDQYJKoZIhvcNAQEEBQAwgawxCzAJBgNVBAYTAlVT
MQswCQYDVQQIEwJPSDERMA8GA1UEBxMIQ29sdW1idXMxEjAQBgNVBAoTCVZpa2lu
Z1ZQTjEdMBsGA1UECxMUTXlPcmdhbml6YXRpb25hbFVuaXQxFTATBgNVBAMTDFZp
a2luZ1ZQTiBDQTEQMA4GA1UEKRMHRWFzeVJTQTEhMB8GCSqGSIb3DQEJARYSbWVA
bXlob3N0Lm15ZG9tYWluMB4XDTE2MDYyNTIwMjgzNVoXDTI2MDYyMzIwMjgzNVow
HzEdMBsGA1UEAxMUQ2xpZW50MjQwM0NlcnQwMWZmMDAwggIiMA0GCSqGSIb3DQEB
AQUAA4ICDwAwggIKAoICAQDVSW5RiN9wRFrDBuWp6wgtGONA/p9pMMzlUHwNO5rR
BI1DlP7nc5Gv1gtB27rE48euh7yf/wMY9cVCoiLeli0dwY43kStg5e66suYNqdkM
6Rc4OJrxGP8hsadlCgnjZLDwjOzarFaITXFKTQZSEpZ8OzrS8FfAyozsYqjH3ceZ
0NRf4j8bIAL9fciVojGTd2WCtuFmVN8QFDxkbWoLKIF5wDl24+hNbfrO5iH3sba3
5W8wkcUodaAlIQdawhbWwVx6hJbWNKrGNbhqVjr/1E7/ZVxHpAcsRSHNv+jqmbb+
r38fAWOtSIWdIuHoRUINEQTzNJPex+tziWrZu/TnpBu+x1J8GMOR0fb8hqwN6dWR
54paBvjqn5jUX6wdsv2ESvRRLhWhsisOK+xekor42NjtaAHSQTwIj/9DAe4nOih5
rHvps4dOJ1XJuwnhE/wZcVSvzVXn/8V8dVZUAFSWydrUOXQAQfhbg3QoqSFvmwt8
BMPiQS3fgYZgFVQQqtQ4PUJyNJYty9aXWiREPEntA8p/dkp0xttgTXM7dgQtzOlv
yo3qmL0UwLYi7RNQjd+8SQwkR35fdaVO9i2d3Rtd8xR67S3RbkN4f4Ksq1mhzC15
PUwe12TA4NpR8ISNhWJ8jf1IXWnWsz3GguW/pyTQxbhgGDyud2ToW78Ihc2j+pUt
aQIDAQABo4IBYzCCAV8wCQYDVR0TBAIwADAtBglghkgBhvhCAQ0EIBYeRWFzeS1S
U0EgR2VuZXJhdGVkIENlcnRpZmljYXRlMB0GA1UdDgQWBBQUhyi9s04n5xcGXUMB
/10uaqOWaDCB4QYDVR0jBIHZMIHWgBQSzWAE0qCAnnDtxpm4eyzGUv0ZoaGBsqSB
rzCBrDELMAkGA1UEBhMCVVMxCzAJBgNVBAgTAk9IMREwDwYDVQQHEwhDb2x1bWJ1
czESMBAGA1UEChMJVmlraW5nVlBOMR0wGwYDVQQLExRNeU9yZ2FuaXphdGlvbmFs
VW5pdDEVMBMGA1UEAxMMVmlraW5nVlBOIENBMRAwDgYDVQQpEwdFYXN5UlNBMSEw
HwYJKoZIhvcNAQkBFhJtZUBteWhvc3QubXlkb21haW6CCQDPNYXugL8qPjATBgNV
HSUEDDAKBggrBgEFBQcDAjALBgNVHQ8EBAMCB4AwDQYJKoZIhvcNAQEEBQADggIB
AHb9L0ecjPQ2pzcalBHJvV8JYKZsr9dtXoz+kK0z7+v/o25JVaaABcExL7BuC6kZ
Cmk9APyN6Qt5B1CUedxHMZi4zjeHQBO8CTBJUp7lbJuAilJpwPNcr7NlJE+Sff/5
cLLlcRDUPn65yoTB+qtWaxMYgJjTqPsvUgjtK1tt4BSf5nWEn2hhLxjNcJh8Rtk6
KRdr2dGlr6dmH7g1vRYnwBgWndDZ2fOthS66NjG3n9Sg+oo0UNAQPfzmiMA4fXex
OCYOoP2vhM9z4Ry2Wd9bsWQESzsM40ntkJnGpKAItZ0AuE982H6GOQjjSefLSciC
16gO8KASHlJQ+cfZWariWfSVBlVyeFGrkZsEYUeWYuyYF5vAmMzwB5033juNDWb9
vtPCa7t+4Ek8nVMk8+AUNhr6rtXqP0NnAyogBxQfRhjHRk26CCTgqjJCuMLKyR/O
3+fOZ2qdor1XXXF4vj3jPfeoXYBGq+poEL1GsaeKp093Lj7tA3slk0QVhwcG1jcy
FnGEKelZYduNCC/Nz1/TsEc10pPlu2Jd19CPzCfB5hFSv9RdglpwDPX0bO1G0Byy
AkK5n/RHpatwBHuvjVxiHILjydviaCrkn5v6ou5evMNuZJ7LTau8DAOOMEQNjxXd
La3sqBAcLmCZ1xB6jmMACu/f5N67OQbkKdGFsJ6mGXaS
-----END CERTIFICATE-----
