Certificate:
    Data:
        Version: 3 (0x2)
        Serial Number: 7063 (0x1b97)
    Signature Algorithm: md5WithRSAEncryption
        Issuer: C=US, ST=OH, L=Columbus, O=VikingVPN, OU=MyOrganizationalUnit, CN=VikingVPN CA/name=EasyRSA/emailAddress=me@myhost.mydomain
        Validity
            Not Before: Jan 20 21:27:59 2016 GMT
            Not After : Jan 17 21:27:59 2026 GMT
        Subject: CN=Client2146Cert78adc8
        Subject Public Key Info:
            Public Key Algorithm: rsaEncryption
                Public-Key: (4096 bit)
                Modulus:
                    00:b5:bb:86:70:5b:0b:e1:45:60:93:b8:9b:69:83:
                    c0:3d:ac:82:c6:de:24:2a:0d:3b:ba:96:0f:54:3f:
                    e7:c7:be:02:6d:9b:5f:30:90:d4:87:54:20:54:6f:
                    9d:ce:d7:54:79:2a:54:e8:1c:2f:3a:34:77:31:e7:
                    31:41:7a:37:20:2f:f7:51:be:a5:e7:ba:4f:99:56:
                    7e:12:38:f5:db:2f:c1:46:ad:ad:7b:27:9e:14:7b:
                    ce:a2:57:f0:b9:57:4b:77:f8:67:92:01:6b:8f:67:
                    d4:fe:c7:30:b7:51:26:bf:26:ea:c7:53:85:95:93:
                    36:96:2c:64:51:55:d9:c6:e8:28:ee:f5:55:58:dd:
                    b0:76:b1:ce:d7:45:24:d6:22:b0:fa:e4:17:7e:28:
                    aa:42:cb:75:31:4d:cb:74:d8:a5:2e:8b:d2:e9:36:
                    a5:6c:f8:10:01:f1:d7:eb:41:ab:ac:3e:7c:c3:3d:
                    bc:4f:2c:35:e4:c3:43:df:62:8e:10:31:3e:25:63:
                    7c:ca:01:51:75:34:78:8e:26:48:83:8d:de:bd:31:
                    9b:68:36:59:3a:5c:5b:c7:a3:5d:75:e1:9f:a5:bb:
                    fc:77:98:86:b7:24:ea:a5:7e:f6:c9:d8:40:02:3f:
                    e7:e0:c6:83:58:1d:56:58:9f:9d:40:2a:40:70:c5:
                    42:b2:0d:50:5b:e1:1c:8b:ab:68:04:e2:b6:2f:ba:
                    b2:3e:6f:6e:a7:b7:d6:74:13:ff:10:7a:cb:1d:9c:
                    1f:8e:0c:73:53:f8:59:df:a4:0d:0b:b0:2a:5f:61:
                    4f:49:6f:1a:23:4d:43:ad:cb:86:39:a4:a0:54:8f:
                    4e:09:12:0c:9e:4d:80:1a:16:2b:43:cc:52:34:88:
                    78:99:dd:6c:96:58:00:a2:01:a4:d5:a4:35:31:5b:
                    7e:1a:2d:07:08:35:19:a0:08:cc:47:2d:0e:fd:fb:
                    ea:28:1c:37:fb:88:72:d3:95:28:05:bb:2d:ec:28:
                    60:00:df:27:bf:2b:0b:b4:43:31:0b:a9:c4:37:6e:
                    8c:d0:7d:6a:45:da:bb:3c:a2:74:56:38:31:3c:7c:
                    29:a8:0b:65:ca:5f:b8:59:d7:00:6a:b4:7f:dd:19:
                    62:3e:d7:4b:6b:4e:2e:7b:49:6d:67:b2:69:74:b2:
                    f2:33:94:8d:0d:60:43:96:a1:0c:a7:7a:90:89:ae:
                    d7:13:59:e6:fc:32:51:e5:88:75:3d:1d:48:98:e0:
                    59:d4:84:77:7b:3e:65:25:ba:72:d1:38:81:9b:09:
                    49:39:22:69:6c:47:49:e4:a1:03:51:60:12:00:9f:
                    b3:a2:f4:d1:de:3f:c3:08:81:0c:14:83:57:a9:ee:
                    07:80:13
                Exponent: 65537 (0x10001)
        X509v3 extensions:
            X509v3 Basic Constraints: 
                CA:FALSE
            Netscape Comment: 
                Easy-RSA Generated Certificate
            X509v3 Subject Key Identifier: 
                7C:DE:7D:61:ED:67:8B:3D:36:5F:A2:11:63:48:6F:B1:9E:F9:8D:47
            X509v3 Authority Key Identifier: 
                keyid:12:CD:60:04:D2:A0:80:9E:70:ED:C6:99:B8:7B:2C:C6:52:FD:19:A1
                DirName:/C=US/ST=OH/L=Columbus/O=VikingVPN/OU=MyOrganizationalUnit/CN=VikingVPN CA/name=EasyRSA/emailAddress=me@myhost.mydomain
                serial:CF:35:85:EE:80:BF:2A:3E

            X509v3 Extended Key Usage: 
                TLS Web Client Authentication
            X509v3 Key Usage: 
                Digital Signature
    Signature Algorithm: md5WithRSAEncryption
         7d:c3:62:43:ce:47:f8:fe:d4:48:5c:4c:d8:8d:05:30:72:96:
         ba:2f:ab:f9:3d:aa:da:79:a7:0e:02:1a:25:3c:6f:b8:c8:5e:
         b4:11:94:42:eb:73:8d:e2:ab:86:0e:e2:29:79:e7:89:ab:12:
         b9:e4:e0:8e:d4:cc:01:c8:35:d7:9b:84:c3:f0:93:c3:70:93:
         f8:af:d7:0f:fb:62:d6:d0:8a:76:1f:54:bb:cd:af:29:58:59:
         c8:8a:39:3f:c5:67:35:c0:5a:72:a8:3a:bf:b2:85:50:b5:74:
         14:ba:04:29:3c:08:8e:4c:ba:14:a7:49:19:43:1f:82:b0:a8:
         99:48:8e:e7:7f:09:14:82:10:7e:c0:e5:dd:4d:c0:3d:7f:ac:
         b8:bc:12:f1:b8:a3:98:cd:9d:83:32:0e:11:da:dc:0b:91:cf:
         ea:d5:69:99:e9:9f:41:5e:96:07:58:31:5d:5c:da:f6:d2:94:
         18:9a:4d:5b:bc:ef:59:95:3e:7f:cf:31:98:04:98:7f:8f:b2:
         9e:65:c1:b4:f2:3a:25:20:cd:b7:3c:9a:c1:9b:90:c0:b5:9d:
         52:49:36:68:16:c7:8f:2c:2f:6e:c8:eb:05:26:c6:b1:1e:97:
         b8:15:56:84:1d:72:46:ba:94:78:ea:94:b0:c9:c3:95:4d:c6:
         59:86:fc:6e:1e:12:3f:ee:92:a6:48:83:06:5b:23:64:dd:65:
         e2:c5:b1:4d:96:f3:2e:7f:b9:67:d2:b3:e6:51:43:34:2c:3d:
         27:59:49:0d:0c:b3:69:88:57:4f:fe:7e:4e:d4:25:d2:cd:81:
         3f:44:6c:ed:e5:0c:1a:1b:90:fa:95:5b:d1:03:66:29:19:a2:
         14:17:cb:cf:a7:d9:2f:82:9f:ca:4a:76:cf:e4:53:e5:83:3f:
         e7:a0:6b:be:41:82:0b:6f:76:d5:86:b9:6c:65:3f:9b:e3:e2:
         be:0f:b1:74:10:5e:51:9e:f6:3d:d6:c5:7c:36:cf:70:66:7d:
         af:a1:97:6a:6e:c3:27:67:ea:0f:79:82:b6:26:a4:7e:da:f2:
         b7:05:f9:d0:31:73:c6:71:c2:59:0c:ce:fa:7a:47:42:8a:30:
         ae:8a:68:ed:f3:d8:34:65:e2:1c:da:57:3c:1c:83:90:c9:f5:
         a5:99:f3:f4:20:a2:77:42:24:a5:26:bc:9b:3d:32:b3:02:3b:
         1e:7f:1c:04:2a:9d:e3:a0:c6:f4:4a:0d:5f:e6:a5:91:d6:1c:
         88:11:a6:7c:97:af:26:30:e1:35:31:7b:8e:d5:95:85:ad:97:
         f5:5a:a3:64:05:51:3f:e7:01:bc:f4:52:64:21:38:d7:8f:ed:
         99:b6:19:65:79:27:cb:6a
-----BEGIN CERTIFICATE-----
MIIGrTCCBJWgAwIBAgICG5cwDQYJKoZIhvcNAQEEBQAwgawxCzAJBgNVBAYTAlVT
MQswCQYDVQQIEwJPSDERMA8GA1UEBxMIQ29sdW1idXMxEjAQBgNVBAoTCVZpa2lu
Z1ZQTjEdMBsGA1UECxMUTXlPcmdhbml6YXRpb25hbFVuaXQxFTATBgNVBAMTDFZp
a2luZ1ZQTiBDQTEQMA4GA1UEKRMHRWFzeVJTQTEhMB8GCSqGSIb3DQEJARYSbWVA
bXlob3N0Lm15ZG9tYWluMB4XDTE2MDEyMDIxMjc1OVoXDTI2MDExNzIxMjc1OVow
HzEdMBsGA1UEAxMUQ2xpZW50MjE0NkNlcnQ3OGFkYzgwggIiMA0GCSqGSIb3DQEB
AQUAA4ICDwAwggIKAoICAQC1u4ZwWwvhRWCTuJtpg8A9rILG3iQqDTu6lg9UP+fH
vgJtm18wkNSHVCBUb53O11R5KlToHC86NHcx5zFBejcgL/dRvqXnuk+ZVn4SOPXb
L8FGra17J54Ue86iV/C5V0t3+GeSAWuPZ9T+xzC3USa/JurHU4WVkzaWLGRRVdnG
6Cju9VVY3bB2sc7XRSTWIrD65Bd+KKpCy3UxTct02KUui9LpNqVs+BAB8dfrQaus
PnzDPbxPLDXkw0PfYo4QMT4lY3zKAVF1NHiOJkiDjd69MZtoNlk6XFvHo1114Z+l
u/x3mIa3JOqlfvbJ2EACP+fgxoNYHVZYn51AKkBwxUKyDVBb4RyLq2gE4rYvurI+
b26nt9Z0E/8QessdnB+ODHNT+FnfpA0LsCpfYU9JbxojTUOty4Y5pKBUj04JEgye
TYAaFitDzFI0iHiZ3WyWWACiAaTVpDUxW34aLQcINRmgCMxHLQ79++ooHDf7iHLT
lSgFuy3sKGAA3ye/Kwu0QzELqcQ3bozQfWpF2rs8onRWODE8fCmoC2XKX7hZ1wBq
tH/dGWI+10trTi57SW1nsml0svIzlI0NYEOWoQynepCJrtcTWeb8MlHliHU9HUiY
4FnUhHd7PmUlunLROIGbCUk5ImlsR0nkoQNRYBIAn7Oi9NHeP8MIgQwUg1ep7geA
EwIDAQABo4IBYzCCAV8wCQYDVR0TBAIwADAtBglghkgBhvhCAQ0EIBYeRWFzeS1S
U0EgR2VuZXJhdGVkIENlcnRpZmljYXRlMB0GA1UdDgQWBBR83n1h7WeLPTZfohFj
SG+xnvmNRzCB4QYDVR0jBIHZMIHWgBQSzWAE0qCAnnDtxpm4eyzGUv0ZoaGBsqSB
rzCBrDELMAkGA1UEBhMCVVMxCzAJBgNVBAgTAk9IMREwDwYDVQQHEwhDb2x1bWJ1
czESMBAGA1UEChMJVmlraW5nVlBOMR0wGwYDVQQLExRNeU9yZ2FuaXphdGlvbmFs
VW5pdDEVMBMGA1UEAxMMVmlraW5nVlBOIENBMRAwDgYDVQQpEwdFYXN5UlNBMSEw
HwYJKoZIhvcNAQkBFhJtZUBteWhvc3QubXlkb21haW6CCQDPNYXugL8qPjATBgNV
HSUEDDAKBggrBgEFBQcDAjALBgNVHQ8EBAMCB4AwDQYJKoZIhvcNAQEEBQADggIB
AH3DYkPOR/j+1EhcTNiNBTBylrovq/k9qtp5pw4CGiU8b7jIXrQRlELrc43iq4YO
4il554mrErnk4I7UzAHINdebhMPwk8Nwk/iv1w/7YtbQinYfVLvNrylYWciKOT/F
ZzXAWnKoOr+yhVC1dBS6BCk8CI5MuhSnSRlDH4KwqJlIjud/CRSCEH7A5d1NwD1/
rLi8EvG4o5jNnYMyDhHa3AuRz+rVaZnpn0FelgdYMV1c2vbSlBiaTVu871mVPn/P
MZgEmH+Psp5lwbTyOiUgzbc8msGbkMC1nVJJNmgWx48sL27I6wUmxrEel7gVVoQd
cka6lHjqlLDJw5VNxlmG/G4eEj/ukqZIgwZbI2TdZeLFsU2W8y5/uWfSs+ZRQzQs
PSdZSQ0Ms2mIV0/+fk7UJdLNgT9EbO3lDBobkPqVW9EDZikZohQXy8+n2S+Cn8pK
ds/kU+WDP+ega75BggtvdtWGuWxlP5vj4r4PsXQQXlGe9j3WxXw2z3Bmfa+hl2pu
wydn6g95grYmpH7a8rcF+dAxc8ZxwlkMzvp6R0KKMK6KaO3z2DRl4hzaVzwcg5DJ
9aWZ8/QgondCJKUmvJs9MrMCOx5/HAQqneOgxvRKDV/mpZHWHIgRpnyXryYw4TUx
e47VlYWtl/Vao2QFUT/nAbz0UmQhONeP7Zm2GWV5J8tq
-----END CERTIFICATE-----
