Certificate:
    Data:
        Version: 3 (0x2)
        Serial Number: 8175 (0x1fef)
    Signature Algorithm: md5WithRSAEncryption
        Issuer: C=US, ST=OH, L=Columbus, O=VikingVPN, OU=MyOrganizationalUnit, CN=VikingVPN CA/name=EasyRSA/emailAddress=me@myhost.mydomain
        Validity
            Not Before: Jun  5 15:22:47 2016 GMT
            Not After : Jun  3 15:22:47 2026 GMT
        Subject: CN=Client2375Cert3b704f
        Subject Public Key Info:
            Public Key Algorithm: rsaEncryption
                Public-Key: (4096 bit)
                Modulus:
                    00:e7:d6:35:7d:75:18:7d:1d:e4:34:5e:87:f2:51:
                    c4:ac:a7:9e:85:66:ef:16:db:01:84:44:3c:e7:80:
                    79:f0:ff:d4:ca:7a:42:0d:a9:c0:fe:e7:c6:c4:a1:
                    31:61:e7:3d:a5:f8:6f:24:41:eb:b0:26:8e:85:2f:
                    20:e8:0f:ef:77:07:cc:d4:90:c9:77:fa:8c:69:39:
                    25:b4:f7:d0:47:83:4b:8e:9b:83:66:a8:d4:b9:d5:
                    12:a0:c5:2f:0d:03:54:b8:89:80:6e:d7:61:3a:46:
                    4c:23:9a:ad:54:00:a7:1c:82:82:ae:ca:07:2b:6b:
                    71:56:61:ea:7b:3f:4d:75:cf:82:8a:77:75:c2:89:
                    f8:b7:c9:b7:6c:5a:fd:ac:57:0c:37:7f:2a:5b:9d:
                    b2:b5:a1:96:00:af:f9:6f:c0:5a:1e:a9:c1:ac:d1:
                    15:7a:fa:28:17:fa:e8:f4:b0:9c:8a:62:bf:6f:72:
                    ba:89:89:67:26:6d:92:f4:5c:44:b6:96:8a:d8:87:
                    d2:94:14:53:c8:24:15:4d:a6:e0:70:8e:e5:67:77:
                    31:34:36:fe:8e:33:23:9b:3e:97:48:47:2f:13:03:
                    cb:9f:48:46:2c:41:ce:75:d5:b1:d4:a8:91:35:f1:
                    75:fc:95:23:e8:45:b6:14:e9:42:18:19:f0:a3:b1:
                    17:ad:bd:f2:08:b9:13:05:ff:d3:f4:bb:29:6c:36:
                    0d:8e:81:86:ce:8d:6b:d6:98:9a:da:e9:58:37:61:
                    84:1c:d0:dd:bc:f6:67:19:6c:07:cf:d8:dd:f2:be:
                    80:09:24:2e:7d:be:47:04:7a:cd:f3:d0:b7:5a:81:
                    df:e0:b8:47:fd:d4:9f:d2:06:8e:bd:6d:82:be:6c:
                    e4:59:f9:be:06:c5:4d:26:11:13:3e:8b:65:07:33:
                    d1:d5:d3:13:5b:c4:f5:b5:a1:e6:fe:06:91:e7:2f:
                    58:51:ae:7b:8a:37:23:53:9a:6f:19:d8:9d:a5:60:
                    c0:61:00:3d:20:97:7e:b7:c7:87:10:25:34:08:4f:
                    bf:56:b3:93:f7:17:24:36:ba:00:b9:66:60:71:4f:
                    48:dc:1b:a1:d0:97:eb:52:73:5f:30:fa:2e:81:65:
                    82:71:47:9f:80:63:45:d7:87:57:23:ad:07:7f:35:
                    40:17:48:5d:24:ba:36:d4:ff:b5:0a:94:32:15:7c:
                    e6:9c:e2:f5:d2:ee:54:3f:7c:26:24:d5:13:47:3f:
                    ff:7b:46:61:ef:39:81:fb:b7:22:87:f4:ed:34:60:
                    90:61:c3:95:95:b3:01:c8:bc:c0:47:b4:e4:61:b0:
                    59:c4:28:cf:3b:36:f1:ee:0e:1e:39:bd:04:cb:c6:
                    6a:75:5f
                Exponent: 65537 (0x10001)
        X509v3 extensions:
            X509v3 Basic Constraints: 
                CA:FALSE
            Netscape Comment: 
                Easy-RSA Generated Certificate
            X509v3 Subject Key Identifier: 
                2D:40:DA:B2:2D:94:57:23:B0:07:EE:28:A8:FF:F9:78:7A:D2:A9:EF
            X509v3 Authority Key Identifier: 
                keyid:12:CD:60:04:D2:A0:80:9E:70:ED:C6:99:B8:7B:2C:C6:52:FD:19:A1
                DirName:/C=US/ST=OH/L=Columbus/O=VikingVPN/OU=MyOrganizationalUnit/CN=VikingVPN CA/name=EasyRSA/emailAddress=me@myhost.mydomain
                serial:CF:35:85:EE:80:BF:2A:3E

            X509v3 Extended Key Usage: 
                TLS Web Client Authentication
            X509v3 Key Usage: 
                Digital Signature
    Signature Algorithm: md5WithRSAEncryption
         36:51:90:cb:9a:91:4f:1d:a0:b8:68:1c:a3:56:a3:7f:51:6f:
         26:ef:c2:70:62:d3:e9:9d:13:18:3c:74:d3:ce:e1:28:28:14:
         72:e1:a9:0a:24:79:b7:ac:54:66:84:78:75:c3:e1:aa:11:68:
         29:1c:02:0f:01:de:0b:17:88:ea:79:d9:c2:e7:e9:26:38:14:
         eb:f0:db:96:c7:36:df:79:b2:75:bf:90:cb:09:f6:93:9a:5a:
         57:5b:40:38:11:d2:15:14:e0:70:bc:9b:aa:75:ee:12:48:0d:
         ee:ba:14:2b:47:92:22:28:eb:7e:74:6e:90:85:19:f0:a1:f0:
         c5:c1:ce:41:9b:38:51:4e:46:15:e1:e6:46:f7:a6:f3:d2:c3:
         d9:4f:90:19:65:25:42:21:76:ae:38:74:20:b1:3d:b3:e5:0d:
         f7:b1:b0:6b:d6:0b:4e:bf:d6:09:ab:48:7b:f7:10:a6:1f:09:
         9a:b9:03:a7:3d:f3:18:32:25:da:e2:9a:e3:7e:74:ba:f1:8d:
         50:40:b3:bd:22:bf:8b:56:aa:97:7f:d5:1f:2a:7f:a2:25:dd:
         14:94:cc:61:b4:b6:04:0d:4a:7e:61:28:70:8c:32:a5:2a:ba:
         b1:f8:fb:73:ff:03:3b:8c:74:c9:3c:d0:0f:84:de:b4:36:3c:
         78:02:69:ea:b7:e6:d4:c3:6d:3d:54:79:47:68:fd:99:a2:a9:
         83:db:a0:76:95:58:34:10:03:17:94:cb:6a:6a:29:11:e1:1b:
         2e:66:1a:34:0b:74:cf:6c:d8:1b:f4:c3:bf:bd:ed:5c:ff:6e:
         6f:c0:df:e5:22:ca:a7:b1:cb:da:d4:a7:c1:c4:5e:77:23:be:
         e7:7e:8a:19:70:86:cd:44:74:bb:d0:da:15:67:58:e5:98:78:
         fc:1d:e2:ca:b3:b5:c5:5a:6e:db:c9:f7:85:27:90:7a:bc:be:
         34:f0:bd:b8:a7:92:a0:84:7a:99:c1:9c:d5:8f:c5:91:4c:8c:
         1a:10:91:04:15:4b:53:94:24:de:e4:49:9c:e8:9c:8a:66:f6:
         2e:5c:67:2e:f8:e7:2f:1c:4f:eb:68:17:5d:25:aa:e6:4b:b0:
         8d:e7:40:4f:d2:74:7a:77:25:25:09:64:59:b0:fe:c5:7c:85:
         12:f2:41:3d:db:88:f1:ec:b2:72:ce:97:82:ef:77:97:0c:a3:
         82:88:f4:f7:d2:52:3c:3d:3c:0c:75:1f:20:05:bb:5c:2f:02:
         5b:96:10:34:ae:ea:2d:d7:e9:98:3f:1f:e7:53:12:51:1b:10:
         96:4b:be:7e:74:2e:c6:0b:ac:f7:49:6e:22:fa:77:fc:4a:4f:
         89:6a:7f:3a:10:9f:f6:9f
-----BEGIN CERTIFICATE-----
MIIGrTCCBJWgAwIBAgICH+8wDQYJKoZIhvcNAQEEBQAwgawxCzAJBgNVBAYTAlVT
MQswCQYDVQQIEwJPSDERMA8GA1UEBxMIQ29sdW1idXMxEjAQBgNVBAoTCVZpa2lu
Z1ZQTjEdMBsGA1UECxMUTXlPcmdhbml6YXRpb25hbFVuaXQxFTATBgNVBAMTDFZp
a2luZ1ZQTiBDQTEQMA4GA1UEKRMHRWFzeVJTQTEhMB8GCSqGSIb3DQEJARYSbWVA
bXlob3N0Lm15ZG9tYWluMB4XDTE2MDYwNTE1MjI0N1oXDTI2MDYwMzE1MjI0N1ow
HzEdMBsGA1UEAxMUQ2xpZW50MjM3NUNlcnQzYjcwNGYwggIiMA0GCSqGSIb3DQEB
AQUAA4ICDwAwggIKAoICAQDn1jV9dRh9HeQ0XofyUcSsp56FZu8W2wGERDzngHnw
/9TKekINqcD+58bEoTFh5z2l+G8kQeuwJo6FLyDoD+93B8zUkMl3+oxpOSW099BH
g0uOm4NmqNS51RKgxS8NA1S4iYBu12E6Rkwjmq1UAKccgoKuygcra3FWYep7P011
z4KKd3XCifi3ybdsWv2sVww3fypbnbK1oZYAr/lvwFoeqcGs0RV6+igX+uj0sJyK
Yr9vcrqJiWcmbZL0XES2lorYh9KUFFPIJBVNpuBwjuVndzE0Nv6OMyObPpdIRy8T
A8ufSEYsQc511bHUqJE18XX8lSPoRbYU6UIYGfCjsRetvfIIuRMF/9P0uylsNg2O
gYbOjWvWmJra6Vg3YYQc0N289mcZbAfP2N3yvoAJJC59vkcEes3z0Ldagd/guEf9
1J/SBo69bYK+bORZ+b4GxU0mERM+i2UHM9HV0xNbxPW1oeb+BpHnL1hRrnuKNyNT
mm8Z2J2lYMBhAD0gl363x4cQJTQIT79Ws5P3FyQ2ugC5ZmBxT0jcG6HQl+tSc18w
+i6BZYJxR5+AY0XXh1cjrQd/NUAXSF0kujbU/7UKlDIVfOac4vXS7lQ/fCYk1RNH
P/97RmHvOYH7tyKH9O00YJBhw5WVswHIvMBHtORhsFnEKM87NvHuDh45vQTLxmp1
XwIDAQABo4IBYzCCAV8wCQYDVR0TBAIwADAtBglghkgBhvhCAQ0EIBYeRWFzeS1S
U0EgR2VuZXJhdGVkIENlcnRpZmljYXRlMB0GA1UdDgQWBBQtQNqyLZRXI7AH7iio
//l4etKp7zCB4QYDVR0jBIHZMIHWgBQSzWAE0qCAnnDtxpm4eyzGUv0ZoaGBsqSB
rzCBrDELMAkGA1UEBhMCVVMxCzAJBgNVBAgTAk9IMREwDwYDVQQHEwhDb2x1bWJ1
czESMBAGA1UEChMJVmlraW5nVlBOMR0wGwYDVQQLExRNeU9yZ2FuaXphdGlvbmFs
VW5pdDEVMBMGA1UEAxMMVmlraW5nVlBOIENBMRAwDgYDVQQpEwdFYXN5UlNBMSEw
HwYJKoZIhvcNAQkBFhJtZUBteWhvc3QubXlkb21haW6CCQDPNYXugL8qPjATBgNV
HSUEDDAKBggrBgEFBQcDAjALBgNVHQ8EBAMCB4AwDQYJKoZIhvcNAQEEBQADggIB
ADZRkMuakU8doLhoHKNWo39RbybvwnBi0+mdExg8dNPO4SgoFHLhqQokebesVGaE
eHXD4aoRaCkcAg8B3gsXiOp52cLn6SY4FOvw25bHNt95snW/kMsJ9pOaWldbQDgR
0hUU4HC8m6p17hJIDe66FCtHkiIo6350bpCFGfCh8MXBzkGbOFFORhXh5kb3pvPS
w9lPkBllJUIhdq44dCCxPbPlDfexsGvWC06/1gmrSHv3EKYfCZq5A6c98xgyJdri
muN+dLrxjVBAs70iv4tWqpd/1R8qf6Il3RSUzGG0tgQNSn5hKHCMMqUqurH4+3P/
AzuMdMk80A+E3rQ2PHgCaeq35tTDbT1UeUdo/ZmiqYPboHaVWDQQAxeUy2pqKRHh
Gy5mGjQLdM9s2Bv0w7+97Vz/bm/A3+Uiyqexy9rUp8HEXncjvud+ihlwhs1EdLvQ
2hVnWOWYePwd4sqztcVabtvJ94UnkHq8vjTwvbinkqCEepnBnNWPxZFMjBoQkQQV
S1OUJN7kSZzonIpm9i5cZy745y8cT+toF10lquZLsI3nQE/SdHp3JSUJZFmw/sV8
hRLyQT3biPHssnLOl4Lvd5cMo4KI9PfSUjw9PAx1HyAFu1wvAluWEDSu6i3X6Zg/
H+dTElEbEJZLvn50LsYLrPdJbiL6d/xKT4lqfzoQn/af
-----END CERTIFICATE-----
