Certificate:
    Data:
        Version: 3 (0x2)
        Serial Number: 11083 (0x2b4b)
    Signature Algorithm: sha256WithRSAEncryption
        Issuer: C=US, ST=OH, L=Columbus, O=VikingVPN, OU=MyOrganizationalUnit, CN=VikingVPN CA/name=EasyRSA/emailAddress=me@myhost.mydomain
        Validity
            Not Before: Jun  5 19:28:49 2017 GMT
            Not After : Jun  3 19:28:49 2027 GMT
        Subject: CN=Client2944Certe956aa
        Subject Public Key Info:
            Public Key Algorithm: rsaEncryption
                Public-Key: (4096 bit)
                Modulus:
                    00:ac:cc:38:fd:43:ae:61:05:e5:a8:2b:23:42:a8:
                    46:7b:64:d2:c7:30:c2:00:87:5b:95:38:1a:99:4c:
                    e0:95:13:ad:26:e3:4f:fa:03:4c:4c:61:ed:f3:46:
                    aa:fd:2b:37:45:94:8e:52:34:bf:4b:83:fa:e6:2b:
                    79:5b:f9:25:16:41:1b:97:b1:a3:c8:d0:6f:e7:ed:
                    71:39:9b:55:e9:8b:46:38:b6:2b:91:10:4b:28:5b:
                    bc:f5:56:45:a2:bc:63:d6:f4:11:d1:bb:a4:fe:c6:
                    e9:f9:29:a3:bb:2e:d6:e6:ff:bd:7b:88:2d:3b:29:
                    f5:16:e1:d7:f2:d4:ad:b5:8a:22:04:67:1d:4f:45:
                    0b:a7:c1:87:ad:86:f2:7f:4d:b7:77:cb:f7:ee:bd:
                    5a:1a:e0:ff:77:79:6d:8b:bc:fc:85:11:b5:3b:20:
                    e2:39:68:c9:33:5d:9e:b0:bf:7c:98:f5:a2:12:f5:
                    6c:71:2a:48:ca:c3:e8:c9:de:a0:b7:e1:36:ec:f3:
                    a7:33:a1:f8:dd:ff:b5:69:80:5b:1d:ea:ae:35:b2:
                    2d:56:89:f7:e3:a9:cd:8a:15:81:e1:b8:5b:25:a2:
                    24:4e:60:ef:ff:28:6c:04:05:8a:6f:af:a3:74:96:
                    18:93:ab:09:99:07:ef:c1:90:66:c1:fa:9f:a6:9f:
                    ee:7a:3f:c8:8c:42:58:3e:3b:d1:86:c1:c6:74:89:
                    2a:a3:ca:29:96:94:22:42:ed:de:ea:f2:0b:c4:c8:
                    d6:99:1c:7b:ee:1c:93:96:87:41:64:c1:90:1d:4c:
                    95:4c:71:6a:ce:e1:f3:f9:31:b5:d8:b9:0a:2f:31:
                    08:1c:59:b6:76:c5:df:96:d7:7c:9d:bf:d1:a5:0a:
                    e3:61:79:9c:92:f4:87:7e:54:53:99:f0:fd:ee:c6:
                    2d:57:7b:31:3f:99:bb:db:c4:71:56:fa:1d:74:4b:
                    96:13:63:95:fa:45:8d:79:a2:90:e9:ef:23:ff:a2:
                    ac:1b:21:95:41:a0:54:5e:3c:10:d5:27:1b:27:66:
                    75:b8:3e:55:58:38:77:da:c6:60:ba:8c:39:96:77:
                    21:c2:43:7e:09:d7:53:09:c0:cf:6b:03:ec:4e:11:
                    6d:0f:4a:21:21:56:1b:5c:e5:a0:82:23:1e:17:3c:
                    15:5e:0a:4a:90:0a:b5:e8:24:2c:90:23:1a:8e:a2:
                    25:15:e0:a7:96:d9:4e:33:3b:7b:40:37:a4:3e:32:
                    3d:3b:71:25:3a:31:1c:ce:e3:2a:ce:62:4e:1a:a6:
                    96:39:06:74:cf:b3:69:51:e8:dd:f7:15:ba:f2:86:
                    a4:cd:ec:da:25:75:16:c4:fd:37:52:e0:29:ef:3b:
                    e9:ce:cb
                Exponent: 65537 (0x10001)
        X509v3 extensions:
            X509v3 Basic Constraints: 
                CA:FALSE
            Netscape Comment: 
                Easy-RSA Generated Certificate
            X509v3 Subject Key Identifier: 
                21:F7:1F:06:43:4E:7E:3A:B7:66:B4:39:62:46:2A:FB:3F:1E:FA:49
            X509v3 Authority Key Identifier: 
                keyid:12:CD:60:04:D2:A0:80:9E:70:ED:C6:99:B8:7B:2C:C6:52:FD:19:A1
                DirName:/C=US/ST=OH/L=Columbus/O=VikingVPN/OU=MyOrganizationalUnit/CN=VikingVPN CA/name=EasyRSA/emailAddress=me@myhost.mydomain
                serial:CF:35:85:EE:80:BF:2A:3E

            X509v3 Extended Key Usage: 
                TLS Web Client Authentication
            X509v3 Key Usage: 
                Digital Signature
    Signature Algorithm: sha256WithRSAEncryption
         7b:e6:20:fd:33:4c:c8:17:c5:f4:87:57:bb:d9:14:b3:a4:8b:
         60:c9:05:c1:0a:45:13:7e:07:f7:3d:ee:56:f2:b5:e3:fe:3e:
         a9:44:8c:64:00:42:a5:33:d7:ae:3e:0f:16:ac:b4:a8:41:f0:
         35:ce:e5:af:d2:5e:f1:40:9d:a5:7e:e4:e2:be:29:dd:ff:f6:
         10:cd:c8:1f:71:6b:13:d7:86:2c:a1:90:f5:f2:61:f8:f4:ae:
         ae:1b:e0:43:03:46:b8:9b:ec:1a:79:cb:b8:81:f5:d9:59:13:
         74:d0:48:36:44:1f:42:99:a2:f7:9b:2d:2a:bf:8f:d0:2f:35:
         0e:82:77:d7:6b:f5:6c:cb:84:f1:65:16:cf:f4:ce:5e:ba:a2:
         75:ea:42:21:8f:2a:4a:d9:55:aa:b5:85:a6:ce:12:e1:75:0d:
         64:44:bf:f3:5e:11:13:5f:7e:9f:2f:c0:4e:6e:83:8c:28:3e:
         e0:17:94:7b:4a:7f:77:e3:7f:0c:85:c7:38:24:be:d9:e2:d4:
         e6:85:51:19:2d:35:d8:c1:31:9a:98:ff:6f:df:29:69:a9:63:
         7c:ef:e0:c3:e3:35:b5:88:ee:b8:46:33:41:86:a0:3b:8d:00:
         a5:f7:6a:44:dc:4f:e8:dc:8e:8c:6d:fa:b4:a9:70:9b:67:16:
         cd:6c:ab:ae:aa:6f:38:7f:7c:e8:c1:d4:a1:03:ab:9e:5a:80:
         42:58:f3:cf:98:9e:27:8d:a9:23:b4:b1:16:ee:b7:53:5b:ee:
         af:78:f0:f5:a6:d7:9f:4c:99:5d:66:4e:2d:1e:49:14:5e:f3:
         dc:18:aa:2c:7f:70:06:65:68:a2:2f:30:87:72:97:1d:96:ca:
         1a:a9:41:e5:96:8d:d5:53:58:3f:3d:18:fe:b1:45:68:28:04:
         18:2e:e0:d2:8b:7e:85:b6:2c:12:01:a4:80:6a:04:e3:48:ca:
         25:93:53:b9:e0:5b:78:79:ba:ae:78:42:b1:f1:da:ec:ac:d4:
         e0:bc:14:55:3c:08:e3:4a:e8:39:20:72:16:b5:8d:ef:6d:df:
         3e:6c:7b:03:79:88:00:26:96:46:93:ae:45:c0:83:e6:2a:48:
         33:a2:62:09:6c:b4:63:2f:07:83:4a:a5:87:17:17:70:d0:4c:
         ce:e6:45:46:c6:37:f9:cc:5c:d4:bc:0c:80:eb:11:29:d5:bc:
         41:d1:fe:07:0f:ae:66:c8:1e:96:fc:57:57:a9:4a:48:c8:77:
         bf:4d:2b:ca:4d:af:41:f4:b6:cc:d1:d1:30:17:75:f8:31:bc:
         03:df:65:85:1d:1b:ed:22:6e:28:10:61:1e:6e:37:f3:66:4b:
         30:a6:ed:35:b2:62:ed:0e
-----BEGIN CERTIFICATE-----
MIIGrTCCBJWgAwIBAgICK0swDQYJKoZIhvcNAQELBQAwgawxCzAJBgNVBAYTAlVT
MQswCQYDVQQIEwJPSDERMA8GA1UEBxMIQ29sdW1idXMxEjAQBgNVBAoTCVZpa2lu
Z1ZQTjEdMBsGA1UECxMUTXlPcmdhbml6YXRpb25hbFVuaXQxFTATBgNVBAMTDFZp
a2luZ1ZQTiBDQTEQMA4GA1UEKRMHRWFzeVJTQTEhMB8GCSqGSIb3DQEJARYSbWVA
bXlob3N0Lm15ZG9tYWluMB4XDTE3MDYwNTE5Mjg0OVoXDTI3MDYwMzE5Mjg0OVow
HzEdMBsGA1UEAxMUQ2xpZW50Mjk0NENlcnRlOTU2YWEwggIiMA0GCSqGSIb3DQEB
AQUAA4ICDwAwggIKAoICAQCszDj9Q65hBeWoKyNCqEZ7ZNLHMMIAh1uVOBqZTOCV
E60m40/6A0xMYe3zRqr9KzdFlI5SNL9Lg/rmK3lb+SUWQRuXsaPI0G/n7XE5m1Xp
i0Y4tiuREEsoW7z1VkWivGPW9BHRu6T+xun5KaO7Ltbm/717iC07KfUW4dfy1K21
iiIEZx1PRQunwYethvJ/Tbd3y/fuvVoa4P93eW2LvPyFEbU7IOI5aMkzXZ6wv3yY
9aIS9WxxKkjKw+jJ3qC34Tbs86czofjd/7VpgFsd6q41si1Wiffjqc2KFYHhuFsl
oiROYO//KGwEBYpvr6N0lhiTqwmZB+/BkGbB+p+mn+56P8iMQlg+O9GGwcZ0iSqj
yimWlCJC7d7q8gvEyNaZHHvuHJOWh0FkwZAdTJVMcWrO4fP5MbXYuQovMQgcWbZ2
xd+W13ydv9GlCuNheZyS9Id+VFOZ8P3uxi1XezE/mbvbxHFW+h10S5YTY5X6RY15
opDp7yP/oqwbIZVBoFRePBDVJxsnZnW4PlVYOHfaxmC6jDmWdyHCQ34J11MJwM9r
A+xOEW0PSiEhVhtc5aCCIx4XPBVeCkqQCrXoJCyQIxqOoiUV4KeW2U4zO3tAN6Q+
Mj07cSU6MRzO4yrOYk4appY5BnTPs2lR6N33FbryhqTN7NoldRbE/TdS4CnvO+nO
ywIDAQABo4IBYzCCAV8wCQYDVR0TBAIwADAtBglghkgBhvhCAQ0EIBYeRWFzeS1S
U0EgR2VuZXJhdGVkIENlcnRpZmljYXRlMB0GA1UdDgQWBBQh9x8GQ05+OrdmtDli
Rir7Px76STCB4QYDVR0jBIHZMIHWgBQSzWAE0qCAnnDtxpm4eyzGUv0ZoaGBsqSB
rzCBrDELMAkGA1UEBhMCVVMxCzAJBgNVBAgTAk9IMREwDwYDVQQHEwhDb2x1bWJ1
czESMBAGA1UEChMJVmlraW5nVlBOMR0wGwYDVQQLExRNeU9yZ2FuaXphdGlvbmFs
VW5pdDEVMBMGA1UEAxMMVmlraW5nVlBOIENBMRAwDgYDVQQpEwdFYXN5UlNBMSEw
HwYJKoZIhvcNAQkBFhJtZUBteWhvc3QubXlkb21haW6CCQDPNYXugL8qPjATBgNV
HSUEDDAKBggrBgEFBQcDAjALBgNVHQ8EBAMCB4AwDQYJKoZIhvcNAQELBQADggIB
AHvmIP0zTMgXxfSHV7vZFLOki2DJBcEKRRN+B/c97lbyteP+PqlEjGQAQqUz164+
DxastKhB8DXO5a/SXvFAnaV+5OK+Kd3/9hDNyB9xaxPXhiyhkPXyYfj0rq4b4EMD
Rrib7Bp5y7iB9dlZE3TQSDZEH0KZovebLSq/j9AvNQ6Cd9dr9WzLhPFlFs/0zl66
onXqQiGPKkrZVaq1habOEuF1DWREv/NeERNffp8vwE5ug4woPuAXlHtKf3fjfwyF
xzgkvtni1OaFURktNdjBMZqY/2/fKWmpY3zv4MPjNbWI7rhGM0GGoDuNAKX3akTc
T+jcjoxt+rSpcJtnFs1sq66qbzh/fOjB1KEDq55agEJY88+YnieNqSO0sRbut1Nb
7q948PWm159MmV1mTi0eSRRe89wYqix/cAZlaKIvMIdylx2WyhqpQeWWjdVTWD89
GP6xRWgoBBgu4NKLfoW2LBIBpIBqBONIyiWTU7ngW3h5uq54QrHx2uys1OC8FFU8
CONK6Dkgcha1je9t3z5sewN5iAAmlkaTrkXAg+YqSDOiYglstGMvB4NKpYcXF3DQ
TM7mRUbGN/nMXNS8DIDrESnVvEHR/gcPrmbIHpb8V1epSkjId79NK8pNr0H0tszR
0TAXdfgxvAPfZYUdG+0ibigQYR5uN/NmSzCm7TWyYu0O
-----END CERTIFICATE-----
