Certificate:
    Data:
        Version: 3 (0x2)
        Serial Number: 11638 (0x2d76)
    Signature Algorithm: sha256WithRSAEncryption
        Issuer: C=US, ST=OH, L=Columbus, O=VikingVPN, OU=MyOrganizationalUnit, CN=VikingVPN CA/name=EasyRSA/emailAddress=me@myhost.mydomain
        Validity
            Not Before: Aug 26 11:31:33 2017 GMT
            Not After : Aug 24 11:31:33 2027 GMT
        Subject: CN=Client2940Certc44c0b
        Subject Public Key Info:
            Public Key Algorithm: rsaEncryption
                Public-Key: (4096 bit)
                Modulus:
                    00:ca:c0:9a:b7:97:a4:85:e1:6c:cd:88:9b:de:2b:
                    cd:b8:f6:27:4f:f9:8e:5a:e6:fd:f6:18:84:7a:61:
                    e7:86:b6:85:2d:b7:8c:6e:01:bf:bc:cd:cd:2e:51:
                    f5:18:18:1a:28:22:dd:9f:ac:4b:41:75:32:3b:ad:
                    3d:c7:ef:cf:0c:85:c2:6e:ba:44:9d:0f:23:c6:dd:
                    3f:63:0f:72:a3:7a:c0:47:d1:b6:ee:13:f9:69:fd:
                    6b:f6:c1:38:60:ab:5d:a2:a0:61:e8:32:86:2b:71:
                    5e:56:11:d7:9b:f9:36:7b:ca:9a:e3:ca:ee:af:14:
                    c6:5f:4d:5d:07:50:0d:bf:36:ea:66:45:0c:e1:ab:
                    de:91:55:ac:9b:9e:13:66:92:4e:3c:fe:f0:aa:2a:
                    89:4e:8a:83:3c:bc:08:e2:86:64:e2:ca:df:35:0a:
                    d6:3c:84:1c:0f:20:e9:b8:58:f1:06:c7:57:97:b0:
                    d5:de:2f:d9:2b:f1:ab:01:85:35:97:98:6d:22:bf:
                    73:22:dd:6f:1b:7f:56:5f:ef:97:82:d8:c9:97:b0:
                    e6:16:5f:9b:8a:cc:98:99:ab:d4:c9:7a:2f:28:fc:
                    9b:d9:f9:15:b6:a4:06:9e:6d:b0:85:f3:fe:7a:1a:
                    a1:90:01:d0:f5:ca:c7:06:f6:5f:03:c9:3f:b0:25:
                    2d:5f:91:e2:26:49:64:a9:c2:d9:62:5f:12:78:b2:
                    cf:5d:bf:e3:91:ce:85:a4:7c:34:ff:2a:18:eb:bf:
                    89:2a:8f:5d:fd:54:dc:14:35:93:13:09:8c:b6:c1:
                    b4:c1:5a:4d:18:f3:cd:e3:96:32:b6:ae:41:03:4f:
                    48:b2:31:03:e9:ff:bd:a5:c8:71:27:e9:92:f7:5b:
                    18:b6:93:5b:33:8f:0e:4d:9b:cd:84:4c:1a:f2:75:
                    8a:ac:f4:9e:d0:aa:a1:8e:24:02:8d:52:55:c7:ef:
                    51:ad:fa:d6:9e:6f:4d:34:74:c0:c7:2c:40:21:f7:
                    14:fe:aa:a2:59:7b:ad:28:78:37:fe:26:91:eb:eb:
                    b3:8f:e3:6b:30:ba:39:05:c4:c4:70:b9:f1:cc:b5:
                    88:05:d6:6d:17:bc:58:35:9e:12:e4:1c:e3:c9:fa:
                    06:0a:1e:3a:4f:73:ba:22:c9:ed:10:7e:95:cf:15:
                    eb:a1:85:76:f9:6c:7c:15:0f:ba:1e:8f:ff:09:84:
                    2d:fb:90:6c:24:15:3f:94:d3:e6:ae:47:62:51:99:
                    ce:5c:87:0e:12:33:7f:18:d5:92:ff:74:fd:21:b3:
                    64:d2:4c:85:91:f2:17:44:2a:97:6b:ca:5c:08:4f:
                    a1:da:16:c5:c8:3b:26:90:53:ee:f0:81:7e:fa:4d:
                    3e:1c:ff
                Exponent: 65537 (0x10001)
        X509v3 extensions:
            X509v3 Basic Constraints: 
                CA:FALSE
            Netscape Comment: 
                Easy-RSA Generated Certificate
            X509v3 Subject Key Identifier: 
                79:0B:8C:A8:AC:A7:12:D2:07:80:55:39:F4:A6:3C:F8:A3:78:23:17
            X509v3 Authority Key Identifier: 
                keyid:12:CD:60:04:D2:A0:80:9E:70:ED:C6:99:B8:7B:2C:C6:52:FD:19:A1
                DirName:/C=US/ST=OH/L=Columbus/O=VikingVPN/OU=MyOrganizationalUnit/CN=VikingVPN CA/name=EasyRSA/emailAddress=me@myhost.mydomain
                serial:CF:35:85:EE:80:BF:2A:3E

            X509v3 Extended Key Usage: 
                TLS Web Client Authentication
            X509v3 Key Usage: 
                Digital Signature
    Signature Algorithm: sha256WithRSAEncryption
         d7:e2:f2:08:31:1b:a9:99:dd:b2:01:b3:aa:57:02:d2:16:3d:
         e6:d4:7b:09:98:cc:88:0f:e6:80:57:3a:10:54:d6:9d:89:eb:
         b4:b8:ec:ea:db:b5:ae:d3:d3:2c:98:c8:19:60:ae:03:e9:e6:
         2e:18:94:75:ab:15:e0:b7:8e:dd:8c:6b:2d:65:11:92:6b:7e:
         df:60:7b:86:7e:92:e2:10:21:28:a9:88:ee:81:cd:d7:b9:0c:
         5f:d6:ae:b2:1f:3b:63:fa:31:c3:b9:b8:86:72:4e:84:09:b4:
         f0:04:13:f7:3f:67:6e:38:55:4b:86:6e:76:5e:ba:f4:4b:67:
         db:3a:0b:62:5c:ed:16:df:68:e4:d7:eb:dd:0f:d8:35:67:88:
         96:fd:a5:db:06:34:78:f8:e3:29:f1:dd:e6:1d:01:0d:c6:07:
         b9:e3:fd:c5:fe:ed:28:c6:f5:c4:e5:95:30:8f:70:e3:7d:9b:
         49:38:8f:1d:ed:8c:15:5d:9a:9c:b2:5a:6b:b7:27:cc:cd:95:
         8a:18:11:49:06:a4:9f:47:8d:7b:4b:18:52:d1:f9:d2:86:d7:
         81:9b:d4:c2:41:28:88:0a:ff:13:6f:78:5a:28:60:3d:67:e6:
         d7:02:da:d6:de:37:aa:a8:ef:e2:43:27:04:70:b0:83:53:e0:
         4d:6c:36:ad:a9:2c:e3:d1:40:16:d8:c2:e2:e6:a6:af:e7:25:
         c3:f5:83:27:e4:01:bd:9b:dc:aa:88:ab:48:23:00:07:9d:0c:
         9c:49:8d:59:04:bb:59:03:9d:d1:dc:94:e2:d0:a1:d5:99:f1:
         9e:0e:d4:cd:1d:5f:d5:6c:6d:3c:5a:1c:40:a8:68:95:7d:4d:
         05:7f:f9:1e:0f:57:f6:f7:95:03:48:fb:56:de:81:16:58:f0:
         6d:2a:dd:ee:e9:a8:2f:8f:e7:ee:82:cb:06:0f:45:9b:6c:36:
         0d:91:0e:20:31:6d:c4:55:0b:99:24:18:fa:aa:3e:db:f5:f1:
         ca:18:0e:56:d1:cf:73:de:af:7d:78:cd:01:70:d8:72:56:7b:
         73:18:c3:a5:94:69:6a:73:a2:27:55:7e:19:d1:43:e1:44:e6:
         df:f3:cd:8b:97:e5:10:a0:d4:30:0c:0b:2d:45:56:35:6e:02:
         74:dc:c4:df:1e:24:16:b7:66:40:b2:c2:99:fa:07:fd:45:dd:
         87:b8:31:60:b6:e3:ad:51:7e:55:ce:53:a9:93:1a:d2:54:f9:
         2b:e1:25:6f:65:6e:7e:83:d2:2e:5e:40:f6:3d:c2:85:d4:6e:
         a2:3e:6a:3c:0c:c6:1f:c9:7f:31:5f:c3:ea:e0:a3:76:ec:7a:
         07:e7:a1:e3:69:ff:f8:a5
-----BEGIN CERTIFICATE-----
MIIGrTCCBJWgAwIBAgICLXYwDQYJKoZIhvcNAQELBQAwgawxCzAJBgNVBAYTAlVT
MQswCQYDVQQIEwJPSDERMA8GA1UEBxMIQ29sdW1idXMxEjAQBgNVBAoTCVZpa2lu
Z1ZQTjEdMBsGA1UECxMUTXlPcmdhbml6YXRpb25hbFVuaXQxFTATBgNVBAMTDFZp
a2luZ1ZQTiBDQTEQMA4GA1UEKRMHRWFzeVJTQTEhMB8GCSqGSIb3DQEJARYSbWVA
bXlob3N0Lm15ZG9tYWluMB4XDTE3MDgyNjExMzEzM1oXDTI3MDgyNDExMzEzM1ow
HzEdMBsGA1UEAxMUQ2xpZW50Mjk0MENlcnRjNDRjMGIwggIiMA0GCSqGSIb3DQEB
AQUAA4ICDwAwggIKAoICAQDKwJq3l6SF4WzNiJveK8249idP+Y5a5v32GIR6YeeG
toUtt4xuAb+8zc0uUfUYGBooIt2frEtBdTI7rT3H788MhcJuukSdDyPG3T9jD3Kj
esBH0bbuE/lp/Wv2wThgq12ioGHoMoYrcV5WEdeb+TZ7yprjyu6vFMZfTV0HUA2/
NupmRQzhq96RVaybnhNmkk48/vCqKolOioM8vAjihmTiyt81CtY8hBwPIOm4WPEG
x1eXsNXeL9kr8asBhTWXmG0iv3Mi3W8bf1Zf75eC2MmXsOYWX5uKzJiZq9TJei8o
/JvZ+RW2pAaebbCF8/56GqGQAdD1yscG9l8DyT+wJS1fkeImSWSpwtliXxJ4ss9d
v+ORzoWkfDT/Khjrv4kqj139VNwUNZMTCYy2wbTBWk0Y883jljK2rkEDT0iyMQPp
/72lyHEn6ZL3Wxi2k1szjw5Nm82ETBrydYqs9J7QqqGOJAKNUlXH71Gt+taeb000
dMDHLEAh9xT+qqJZe60oeDf+JpHr67OP42swujkFxMRwufHMtYgF1m0XvFg1nhLk
HOPJ+gYKHjpPc7oiye0QfpXPFeuhhXb5bHwVD7oej/8JhC37kGwkFT+U0+auR2JR
mc5chw4SM38Y1ZL/dP0hs2TSTIWR8hdEKpdrylwIT6HaFsXIOyaQU+7wgX76TT4c
/wIDAQABo4IBYzCCAV8wCQYDVR0TBAIwADAtBglghkgBhvhCAQ0EIBYeRWFzeS1S
U0EgR2VuZXJhdGVkIENlcnRpZmljYXRlMB0GA1UdDgQWBBR5C4yorKcS0geAVTn0
pjz4o3gjFzCB4QYDVR0jBIHZMIHWgBQSzWAE0qCAnnDtxpm4eyzGUv0ZoaGBsqSB
rzCBrDELMAkGA1UEBhMCVVMxCzAJBgNVBAgTAk9IMREwDwYDVQQHEwhDb2x1bWJ1
czESMBAGA1UEChMJVmlraW5nVlBOMR0wGwYDVQQLExRNeU9yZ2FuaXphdGlvbmFs
VW5pdDEVMBMGA1UEAxMMVmlraW5nVlBOIENBMRAwDgYDVQQpEwdFYXN5UlNBMSEw
HwYJKoZIhvcNAQkBFhJtZUBteWhvc3QubXlkb21haW6CCQDPNYXugL8qPjATBgNV
HSUEDDAKBggrBgEFBQcDAjALBgNVHQ8EBAMCB4AwDQYJKoZIhvcNAQELBQADggIB
ANfi8ggxG6mZ3bIBs6pXAtIWPebUewmYzIgP5oBXOhBU1p2J67S47Orbta7T0yyY
yBlgrgPp5i4YlHWrFeC3jt2May1lEZJrft9ge4Z+kuIQISipiO6Bzde5DF/WrrIf
O2P6McO5uIZyToQJtPAEE/c/Z244VUuGbnZeuvRLZ9s6C2Jc7RbfaOTX690P2DVn
iJb9pdsGNHj44ynx3eYdAQ3GB7nj/cX+7SjG9cTllTCPcON9m0k4jx3tjBVdmpyy
Wmu3J8zNlYoYEUkGpJ9HjXtLGFLR+dKG14Gb1MJBKIgK/xNveFooYD1n5tcC2tbe
N6qo7+JDJwRwsINT4E1sNq2pLOPRQBbYwuLmpq/nJcP1gyfkAb2b3KqIq0gjAAed
DJxJjVkEu1kDndHclOLQodWZ8Z4O1M0dX9VsbTxaHECoaJV9TQV/+R4PV/b3lQNI
+1begRZY8G0q3e7pqC+P5+6CywYPRZtsNg2RDiAxbcRVC5kkGPqqPtv18coYDlbR
z3Per314zQFw2HJWe3MYw6WUaWpzoidVfhnRQ+FE5t/zzYuX5RCg1DAMCy1FVjVu
AnTcxN8eJBa3ZkCywpn6B/1F3Ye4MWC2461RflXOU6mTGtJU+SvhJW9lbn6D0i5e
QPY9woXUbqI+ajwMxh/JfzFfw+rgo3bsegfnoeNp//il
-----END CERTIFICATE-----
