Certificate:
    Data:
        Version: 3 (0x2)
        Serial Number: 7392 (0x1ce0)
    Signature Algorithm: md5WithRSAEncryption
        Issuer: C=US, ST=OH, L=Columbus, O=VikingVPN, OU=MyOrganizationalUnit, CN=VikingVPN CA/name=EasyRSA/emailAddress=me@myhost.mydomain
        Validity
            Not Before: Mar  3 03:49:50 2016 GMT
            Not After : Mar  1 03:49:50 2026 GMT
        Subject: CN=Client2209Cert49bb1c
        Subject Public Key Info:
            Public Key Algorithm: rsaEncryption
                Public-Key: (4096 bit)
                Modulus:
                    00:a8:c2:25:03:3c:6c:2c:30:a3:97:9b:c3:72:1c:
                    02:47:b3:98:70:f9:ae:de:21:47:4c:1f:5b:7f:4e:
                    44:d3:3f:2d:39:66:42:06:53:80:93:cb:1e:0d:ba:
                    c5:3d:70:bc:d9:d5:6b:ad:5a:17:42:a5:18:6a:db:
                    e2:5a:ee:31:e3:5f:2a:b8:dd:c8:ea:67:ce:43:6c:
                    8c:29:db:e7:9e:60:2c:b5:13:06:5d:08:33:b3:40:
                    68:cc:05:c6:e1:3a:30:5d:fa:e9:7f:20:0a:eb:90:
                    93:c2:d1:84:d1:7e:b2:b1:7c:1a:73:d2:0c:92:3a:
                    a5:d1:32:a4:fb:0f:68:b7:db:31:11:85:79:31:24:
                    e1:0e:14:7d:ad:19:07:49:13:c5:eb:21:25:0c:c0:
                    11:f7:1d:17:73:18:0f:33:a2:8c:a8:50:b4:89:1c:
                    20:58:7e:10:f3:45:15:c1:b4:5a:41:a8:dd:e3:d3:
                    4e:d2:e9:83:79:42:01:80:50:43:49:53:b4:d1:b9:
                    98:fd:31:03:0d:8f:fe:c5:60:1c:c6:5d:44:a7:98:
                    c4:53:e7:6f:a4:5c:3a:b5:c3:33:40:70:ba:1d:c5:
                    1a:7d:a5:fe:27:7f:c8:cb:a0:33:67:79:8f:18:f9:
                    e3:4e:14:1d:f2:8e:89:87:3c:fc:63:29:cb:cd:a6:
                    f1:ae:83:c2:fe:54:d5:b0:b0:5e:90:96:8d:bf:ec:
                    73:cd:f8:1a:a4:c6:52:d4:c6:07:e3:5a:78:bb:4a:
                    29:db:5e:82:5d:cc:31:f1:4d:3b:6a:20:f7:32:5a:
                    84:09:ad:a7:17:47:0d:d1:49:41:95:c7:16:b6:cf:
                    6e:fc:b2:c3:e8:ad:e1:be:b7:ec:64:35:c7:96:28:
                    c9:c4:c6:8e:8a:dd:27:08:b3:de:c6:9b:1f:d6:23:
                    3d:56:6c:72:6a:8e:e6:04:ce:1e:47:67:77:09:b6:
                    e4:79:bf:12:ee:e0:6a:8b:18:bf:a4:3e:e8:fd:ed:
                    53:ec:e0:e5:b6:a2:33:53:47:e6:34:7b:88:69:60:
                    5c:fe:69:8b:dc:f4:f9:0e:fa:52:3f:f8:66:4b:d5:
                    6c:55:a0:03:9c:10:b3:40:72:f5:a1:19:1d:cb:6a:
                    6c:c3:49:99:cd:a5:b9:d7:9b:dd:92:26:14:9c:61:
                    43:8f:f8:08:3c:60:51:5a:5d:0a:4e:4e:84:d9:d0:
                    d5:ce:5d:f8:ce:63:9f:76:ef:4d:04:b4:ab:96:d8:
                    5a:91:b8:cb:e6:b4:5d:3d:10:95:a3:8a:2a:a9:cd:
                    a6:94:53:74:b3:f2:8a:8b:f4:2a:b2:77:72:ab:2a:
                    46:b7:ab:c3:b4:47:12:d6:70:e7:6c:97:f0:e3:fe:
                    30:6a:c7
                Exponent: 65537 (0x10001)
        X509v3 extensions:
            X509v3 Basic Constraints: 
                CA:FALSE
            Netscape Comment: 
                Easy-RSA Generated Certificate
            X509v3 Subject Key Identifier: 
                3A:55:FF:C3:5A:D7:6B:54:B2:46:E7:25:22:98:32:25:65:0C:1A:93
            X509v3 Authority Key Identifier: 
                keyid:12:CD:60:04:D2:A0:80:9E:70:ED:C6:99:B8:7B:2C:C6:52:FD:19:A1
                DirName:/C=US/ST=OH/L=Columbus/O=VikingVPN/OU=MyOrganizationalUnit/CN=VikingVPN CA/name=EasyRSA/emailAddress=me@myhost.mydomain
                serial:CF:35:85:EE:80:BF:2A:3E

            X509v3 Extended Key Usage: 
                TLS Web Client Authentication
            X509v3 Key Usage: 
                Digital Signature
    Signature Algorithm: md5WithRSAEncryption
         41:0e:59:81:25:76:53:5d:f9:28:4e:4a:70:53:1a:40:7f:f7:
         49:93:fc:92:ff:c6:6c:12:2a:b8:a7:43:2e:e9:e4:7a:8e:1d:
         56:e2:79:e6:5e:5b:c2:b1:6d:9b:37:8e:e1:96:be:2f:dd:5a:
         57:b4:35:2d:7a:ee:48:0d:1e:f0:1f:15:59:47:28:45:3b:4f:
         e5:00:46:96:d1:82:88:93:f7:13:fd:d1:5b:04:a8:ad:af:5f:
         d4:7f:ad:e9:93:e7:19:d3:b5:9d:8b:d7:f6:d3:e5:21:26:dc:
         51:f0:8e:7f:c0:c6:5a:ce:3e:51:a6:d8:72:44:2d:b8:bd:a1:
         d9:a9:da:5b:1c:36:4c:ef:8c:b6:33:d5:4c:9f:21:26:58:f5:
         93:96:a6:e2:e7:61:75:6c:97:d6:15:cd:29:c6:06:35:6c:df:
         cf:5f:0b:64:15:38:3a:7a:80:17:5f:4f:99:83:dc:16:5d:4f:
         ab:02:5f:eb:4a:fe:08:8a:27:6c:5c:ab:f5:9d:71:3d:33:82:
         58:3c:b3:d8:62:55:9f:03:4c:ad:13:91:cb:f5:55:f4:e1:74:
         c2:6e:75:a4:52:3d:b1:57:c1:f9:ae:dc:9d:df:6b:fe:ae:71:
         88:7e:a7:77:2a:fe:ee:e1:9b:b6:35:eb:0a:96:f1:b3:24:17:
         0b:96:2a:63:ac:c8:61:78:77:ad:56:af:5c:fd:9e:38:48:60:
         3b:75:20:b7:87:57:69:c0:b0:67:c5:ac:2d:d4:f8:d4:d2:f8:
         e8:d0:51:85:48:26:eb:6e:ad:76:3c:b4:38:ce:bc:f6:1f:9e:
         2b:91:13:34:3a:d3:ec:39:91:6d:12:aa:fe:80:6d:95:69:fd:
         2c:c8:4b:60:1a:77:01:32:3f:7f:57:53:25:41:32:0f:a7:94:
         66:f7:82:1d:2b:18:68:60:88:80:6e:28:ac:65:3f:0d:54:85:
         7e:bd:8e:73:63:c0:55:18:4a:8c:68:7d:57:e7:15:61:7e:28:
         2f:6d:e1:e4:23:17:02:e0:2d:e6:15:83:56:9c:99:9a:16:27:
         2c:ae:3b:4e:34:97:49:e5:eb:7e:05:7d:6d:71:09:6d:88:0d:
         57:1d:6a:8f:e4:dd:64:d2:1d:9a:9f:39:ca:e6:14:99:25:fd:
         54:20:5a:f3:37:2c:6d:26:6a:7d:44:6c:82:39:92:70:23:3d:
         be:95:6e:58:39:ff:ed:ac:2a:b3:31:47:40:98:00:b1:d8:28:
         44:e7:95:37:53:89:5c:c5:46:3e:33:03:c7:0b:fb:0d:80:9e:
         2b:33:8f:2b:0f:55:00:96:82:25:99:f9:02:b3:29:43:17:c8:
         be:98:cc:81:65:74:5d:71
-----BEGIN CERTIFICATE-----
MIIGrTCCBJWgAwIBAgICHOAwDQYJKoZIhvcNAQEEBQAwgawxCzAJBgNVBAYTAlVT
MQswCQYDVQQIEwJPSDERMA8GA1UEBxMIQ29sdW1idXMxEjAQBgNVBAoTCVZpa2lu
Z1ZQTjEdMBsGA1UECxMUTXlPcmdhbml6YXRpb25hbFVuaXQxFTATBgNVBAMTDFZp
a2luZ1ZQTiBDQTEQMA4GA1UEKRMHRWFzeVJTQTEhMB8GCSqGSIb3DQEJARYSbWVA
bXlob3N0Lm15ZG9tYWluMB4XDTE2MDMwMzAzNDk1MFoXDTI2MDMwMTAzNDk1MFow
HzEdMBsGA1UEAxMUQ2xpZW50MjIwOUNlcnQ0OWJiMWMwggIiMA0GCSqGSIb3DQEB
AQUAA4ICDwAwggIKAoICAQCowiUDPGwsMKOXm8NyHAJHs5hw+a7eIUdMH1t/TkTT
Py05ZkIGU4CTyx4NusU9cLzZ1WutWhdCpRhq2+Ja7jHjXyq43cjqZ85DbIwp2+ee
YCy1EwZdCDOzQGjMBcbhOjBd+ul/IArrkJPC0YTRfrKxfBpz0gySOqXRMqT7D2i3
2zERhXkxJOEOFH2tGQdJE8XrISUMwBH3HRdzGA8zooyoULSJHCBYfhDzRRXBtFpB
qN3j007S6YN5QgGAUENJU7TRuZj9MQMNj/7FYBzGXUSnmMRT52+kXDq1wzNAcLod
xRp9pf4nf8jLoDNneY8Y+eNOFB3yjomHPPxjKcvNpvGug8L+VNWwsF6Qlo2/7HPN
+BqkxlLUxgfjWni7SinbXoJdzDHxTTtqIPcyWoQJracXRw3RSUGVxxa2z278ssPo
reG+t+xkNceWKMnExo6K3ScIs97Gmx/WIz1WbHJqjuYEzh5HZ3cJtuR5vxLu4GqL
GL+kPuj97VPs4OW2ojNTR+Y0e4hpYFz+aYvc9PkO+lI/+GZL1WxVoAOcELNAcvWh
GR3LamzDSZnNpbnXm92SJhScYUOP+Ag8YFFaXQpOToTZ0NXOXfjOY592700EtKuW
2FqRuMvmtF09EJWjiiqpzaaUU3Sz8oqL9Cqyd3KrKka3q8O0RxLWcOdsl/Dj/jBq
xwIDAQABo4IBYzCCAV8wCQYDVR0TBAIwADAtBglghkgBhvhCAQ0EIBYeRWFzeS1S
U0EgR2VuZXJhdGVkIENlcnRpZmljYXRlMB0GA1UdDgQWBBQ6Vf/DWtdrVLJG5yUi
mDIlZQwakzCB4QYDVR0jBIHZMIHWgBQSzWAE0qCAnnDtxpm4eyzGUv0ZoaGBsqSB
rzCBrDELMAkGA1UEBhMCVVMxCzAJBgNVBAgTAk9IMREwDwYDVQQHEwhDb2x1bWJ1
czESMBAGA1UEChMJVmlraW5nVlBOMR0wGwYDVQQLExRNeU9yZ2FuaXphdGlvbmFs
VW5pdDEVMBMGA1UEAxMMVmlraW5nVlBOIENBMRAwDgYDVQQpEwdFYXN5UlNBMSEw
HwYJKoZIhvcNAQkBFhJtZUBteWhvc3QubXlkb21haW6CCQDPNYXugL8qPjATBgNV
HSUEDDAKBggrBgEFBQcDAjALBgNVHQ8EBAMCB4AwDQYJKoZIhvcNAQEEBQADggIB
AEEOWYEldlNd+ShOSnBTGkB/90mT/JL/xmwSKrinQy7p5HqOHVbieeZeW8KxbZs3
juGWvi/dWle0NS167kgNHvAfFVlHKEU7T+UARpbRgoiT9xP90VsEqK2vX9R/remT
5xnTtZ2L1/bT5SEm3FHwjn/AxlrOPlGm2HJELbi9odmp2lscNkzvjLYz1UyfISZY
9ZOWpuLnYXVsl9YVzSnGBjVs389fC2QVODp6gBdfT5mD3BZdT6sCX+tK/giKJ2xc
q/WdcT0zglg8s9hiVZ8DTK0Tkcv1VfThdMJudaRSPbFXwfmu3J3fa/6ucYh+p3cq
/u7hm7Y16wqW8bMkFwuWKmOsyGF4d61Wr1z9njhIYDt1ILeHV2nAsGfFrC3U+NTS
+OjQUYVIJuturXY8tDjOvPYfniuREzQ60+w5kW0Sqv6AbZVp/SzIS2AadwEyP39X
UyVBMg+nlGb3gh0rGGhgiIBuKKxlPw1UhX69jnNjwFUYSoxofVfnFWF+KC9t4eQj
FwLgLeYVg1acmZoWJyyuO040l0nl634FfW1xCW2IDVcdao/k3WTSHZqfOcrmFJkl
/VQgWvM3LG0man1EbII5knAjPb6Vblg5/+2sKrMxR0CYALHYKETnlTdTiVzFRj4z
A8cL+w2AniszjysPVQCWgiWZ+QKzKUMXyL6YzIFldF1x
-----END CERTIFICATE-----
