Certificate:
    Data:
        Version: 3 (0x2)
        Serial Number: 4882 (0x1312)
    Signature Algorithm: md5WithRSAEncryption
        Issuer: C=US, ST=OH, L=Columbus, O=VikingVPN, OU=MyOrganizationalUnit, CN=VikingVPN CA/name=EasyRSA/emailAddress=me@myhost.mydomain
        Validity
            Not Before: Apr  3 21:32:56 2015 GMT
            Not After : Mar 31 21:32:56 2025 GMT
        Subject: CN=Client1590Cert4bdea1
        Subject Public Key Info:
            Public Key Algorithm: rsaEncryption
                Public-Key: (4096 bit)
                Modulus:
                    00:ea:8f:2c:98:b1:51:08:e8:c4:f3:b3:ca:cd:80:
                    0e:dc:8d:a9:3a:21:2e:5d:ac:ea:6a:db:44:dd:62:
                    aa:62:96:1d:a7:77:fc:ed:b6:96:04:f5:82:a8:0d:
                    1a:23:a8:17:93:58:3e:bf:9b:8b:72:72:43:92:4a:
                    4b:8a:4e:b3:5c:eb:84:e4:5a:35:3b:46:b8:47:af:
                    9f:da:83:10:f8:94:73:61:69:64:38:0d:d6:86:80:
                    57:30:0d:fb:0b:86:d6:e9:bc:23:63:f2:98:87:86:
                    67:6b:23:fa:03:3a:ca:99:13:97:21:24:d5:c1:29:
                    de:00:d4:81:15:58:48:61:d3:77:ee:c2:6f:80:ab:
                    17:a4:e1:36:56:22:6e:c0:cb:10:44:49:8d:ba:50:
                    72:10:30:05:51:35:a4:32:b7:57:37:77:80:1f:58:
                    bd:b6:c1:bc:f6:3a:09:84:a5:af:4b:7f:ae:87:2d:
                    2d:fe:9c:b4:43:92:79:d2:f0:a2:38:25:60:3f:33:
                    74:b3:84:7b:f6:73:38:77:69:eb:ea:f1:07:73:8c:
                    65:30:a5:85:a4:e8:ac:50:11:0a:31:a8:86:1d:d0:
                    33:71:74:25:30:3f:8b:ed:57:8c:f8:7f:55:ad:bb:
                    7f:50:d4:28:aa:97:07:f3:67:f5:d5:e8:cb:dc:8d:
                    ee:a0:1c:ce:38:60:90:ae:b7:5d:74:39:1a:99:74:
                    80:76:59:c4:24:a2:42:45:28:97:8d:93:90:2c:8f:
                    97:01:19:51:03:4c:ce:b7:2c:a7:bd:2b:88:18:9a:
                    71:79:8a:8c:a4:b3:b4:6b:2e:be:6d:b5:f3:28:e0:
                    47:a0:39:0c:fb:77:9e:28:da:a7:c4:1e:fa:ac:91:
                    a0:28:aa:ac:e3:f1:79:7a:aa:ae:0a:5c:9c:be:7d:
                    2a:e7:eb:7d:64:dd:1b:df:72:55:29:91:5e:9d:5d:
                    51:4c:61:14:ec:54:ff:14:25:e5:af:56:04:d4:96:
                    f2:ef:a7:e7:cb:0b:95:a1:51:82:af:58:73:9f:53:
                    49:a4:e4:70:a4:33:4c:95:e4:d4:be:a8:b9:59:80:
                    5e:11:f9:13:d3:62:17:f7:cf:ed:6f:9b:37:56:a6:
                    73:fd:2f:b9:98:1f:5f:1c:2c:c0:bb:c5:ed:ef:09:
                    9e:b5:69:82:1a:3c:eb:ef:b3:fa:96:67:c8:a8:5b:
                    55:75:61:41:1d:72:98:51:4e:47:ed:74:ba:ce:ca:
                    31:1d:91:e7:a0:68:f4:7b:00:8c:21:9b:f5:6e:02:
                    29:1b:75:38:d8:c7:96:6f:16:03:b7:64:df:cc:b7:
                    b2:23:50:e3:fc:4f:14:69:02:04:7e:a6:e5:12:73:
                    4f:dc:7b
                Exponent: 65537 (0x10001)
        X509v3 extensions:
            X509v3 Basic Constraints: 
                CA:FALSE
            Netscape Comment: 
                Easy-RSA Generated Certificate
            X509v3 Subject Key Identifier: 
                FA:17:DE:25:40:0C:1E:35:87:E9:B6:70:BA:B3:2F:61:F2:DB:35:7C
            X509v3 Authority Key Identifier: 
                keyid:12:CD:60:04:D2:A0:80:9E:70:ED:C6:99:B8:7B:2C:C6:52:FD:19:A1
                DirName:/C=US/ST=OH/L=Columbus/O=VikingVPN/OU=MyOrganizationalUnit/CN=VikingVPN CA/name=EasyRSA/emailAddress=me@myhost.mydomain
                serial:CF:35:85:EE:80:BF:2A:3E

            X509v3 Extended Key Usage: 
                TLS Web Client Authentication
            X509v3 Key Usage: 
                Digital Signature
    Signature Algorithm: md5WithRSAEncryption
         af:28:ce:3d:63:c2:30:dc:53:7f:8d:27:1d:2c:aa:0a:c2:62:
         13:7b:21:3b:72:0e:24:a2:75:da:fe:9c:67:26:76:88:40:dd:
         3c:35:a4:03:7b:fc:e9:0d:05:7f:b1:d2:4b:dc:f8:c9:7a:87:
         bd:a0:65:43:58:cd:4e:1e:7f:ce:58:ac:5d:01:9f:89:18:08:
         98:fd:5c:c2:e2:7f:9a:8e:7d:84:a9:51:d9:dd:fe:65:b8:62:
         ee:42:0e:cf:05:bc:a6:3f:78:8c:30:28:58:5c:a9:b2:be:23:
         b5:54:3a:7e:90:3e:d2:88:95:b3:20:e3:d1:11:e3:cf:85:80:
         21:3c:56:79:78:bc:ed:cc:30:4d:c5:13:8a:23:57:90:60:f9:
         cd:aa:09:7f:67:59:aa:e2:a5:51:d2:57:31:d8:76:1b:be:cf:
         93:cb:89:cc:79:f4:1f:81:83:da:11:93:a5:b1:ee:eb:bf:34:
         c7:73:d2:14:b1:3c:c7:f7:f6:c6:d8:ec:f6:fb:ae:81:5f:c2:
         0c:b6:9d:29:06:7a:53:10:dc:e6:ef:d2:13:6d:32:9c:12:ac:
         5b:55:d2:4a:90:86:3c:e8:4d:ee:b5:cb:36:c1:45:f7:6b:28:
         46:9b:3a:25:3d:dd:42:17:f7:d6:ba:65:44:9c:83:ec:58:6f:
         ed:e6:2a:d8:2b:c4:f8:6c:a8:03:d9:9b:ce:c8:6d:6d:15:1c:
         78:48:6e:88:93:a7:93:4d:35:67:7a:fd:eb:d9:72:a3:9d:97:
         ab:a1:9b:49:17:36:77:91:70:63:f3:9e:65:8c:ab:b3:48:ce:
         a0:40:73:20:26:43:32:95:6a:7e:c7:bf:18:b8:f0:92:2a:d5:
         13:48:50:72:9f:75:0d:88:a7:00:af:b7:bb:9c:c6:89:0b:58:
         2a:73:68:a8:ac:32:d4:08:31:3a:81:77:14:2a:7b:17:8b:d2:
         90:85:66:20:75:33:83:f7:2b:44:9b:4f:0d:18:0c:8e:2a:5e:
         06:53:6f:9f:94:c2:69:e6:d0:d5:18:09:5e:a4:a0:43:f7:11:
         e6:84:b7:23:d8:15:06:4e:db:9a:f8:b9:5a:46:67:91:f0:9a:
         7a:c7:62:31:d6:e4:62:c2:d6:e9:7c:7c:b6:c8:77:c3:2a:4a:
         59:a1:fd:32:1a:d2:94:fb:19:01:94:3d:f3:63:d1:08:c1:51:
         13:0e:19:3d:f1:6b:3a:4a:6d:b7:25:02:04:22:72:86:33:f3:
         0e:5d:9b:9c:46:58:0c:6f:04:89:a7:50:51:e9:5f:77:0b:58:
         5d:e9:eb:ce:4f:40:94:e5:b8:da:33:9b:c1:a9:f9:f0:de:2b:
         a6:83:54:2d:51:ad:6b:42
-----BEGIN CERTIFICATE-----
MIIGrTCCBJWgAwIBAgICExIwDQYJKoZIhvcNAQEEBQAwgawxCzAJBgNVBAYTAlVT
MQswCQYDVQQIEwJPSDERMA8GA1UEBxMIQ29sdW1idXMxEjAQBgNVBAoTCVZpa2lu
Z1ZQTjEdMBsGA1UECxMUTXlPcmdhbml6YXRpb25hbFVuaXQxFTATBgNVBAMTDFZp
a2luZ1ZQTiBDQTEQMA4GA1UEKRMHRWFzeVJTQTEhMB8GCSqGSIb3DQEJARYSbWVA
bXlob3N0Lm15ZG9tYWluMB4XDTE1MDQwMzIxMzI1NloXDTI1MDMzMTIxMzI1Nlow
HzEdMBsGA1UEAxMUQ2xpZW50MTU5MENlcnQ0YmRlYTEwggIiMA0GCSqGSIb3DQEB
AQUAA4ICDwAwggIKAoICAQDqjyyYsVEI6MTzs8rNgA7cjak6IS5drOpq20TdYqpi
lh2nd/zttpYE9YKoDRojqBeTWD6/m4tyckOSSkuKTrNc64TkWjU7RrhHr5/agxD4
lHNhaWQ4DdaGgFcwDfsLhtbpvCNj8piHhmdrI/oDOsqZE5chJNXBKd4A1IEVWEhh
03fuwm+Aqxek4TZWIm7AyxBESY26UHIQMAVRNaQyt1c3d4AfWL22wbz2OgmEpa9L
f66HLS3+nLRDknnS8KI4JWA/M3SzhHv2czh3aevq8QdzjGUwpYWk6KxQEQoxqIYd
0DNxdCUwP4vtV4z4f1Wtu39Q1CiqlwfzZ/XV6Mvcje6gHM44YJCut110ORqZdIB2
WcQkokJFKJeNk5Asj5cBGVEDTM63LKe9K4gYmnF5ioyks7RrLr5ttfMo4EegOQz7
d54o2qfEHvqskaAoqqzj8Xl6qq4KXJy+fSrn631k3RvfclUpkV6dXVFMYRTsVP8U
JeWvVgTUlvLvp+fLC5WhUYKvWHOfU0mk5HCkM0yV5NS+qLlZgF4R+RPTYhf3z+1v
mzdWpnP9L7mYH18cLMC7xe3vCZ61aYIaPOvvs/qWZ8ioW1V1YUEdcphRTkftdLrO
yjEdkeegaPR7AIwhm/VuAikbdTjYx5ZvFgO3ZN/Mt7IjUOP8TxRpAgR+puUSc0/c
ewIDAQABo4IBYzCCAV8wCQYDVR0TBAIwADAtBglghkgBhvhCAQ0EIBYeRWFzeS1S
U0EgR2VuZXJhdGVkIENlcnRpZmljYXRlMB0GA1UdDgQWBBT6F94lQAweNYfptnC6
sy9h8ts1fDCB4QYDVR0jBIHZMIHWgBQSzWAE0qCAnnDtxpm4eyzGUv0ZoaGBsqSB
rzCBrDELMAkGA1UEBhMCVVMxCzAJBgNVBAgTAk9IMREwDwYDVQQHEwhDb2x1bWJ1
czESMBAGA1UEChMJVmlraW5nVlBOMR0wGwYDVQQLExRNeU9yZ2FuaXphdGlvbmFs
VW5pdDEVMBMGA1UEAxMMVmlraW5nVlBOIENBMRAwDgYDVQQpEwdFYXN5UlNBMSEw
HwYJKoZIhvcNAQkBFhJtZUBteWhvc3QubXlkb21haW6CCQDPNYXugL8qPjATBgNV
HSUEDDAKBggrBgEFBQcDAjALBgNVHQ8EBAMCB4AwDQYJKoZIhvcNAQEEBQADggIB
AK8ozj1jwjDcU3+NJx0sqgrCYhN7ITtyDiSiddr+nGcmdohA3Tw1pAN7/OkNBX+x
0kvc+Ml6h72gZUNYzU4ef85YrF0Bn4kYCJj9XMLif5qOfYSpUdnd/mW4Yu5CDs8F
vKY/eIwwKFhcqbK+I7VUOn6QPtKIlbMg49ER48+FgCE8Vnl4vO3MME3FE4ojV5Bg
+c2qCX9nWaripVHSVzHYdhu+z5PLicx59B+Bg9oRk6Wx7uu/NMdz0hSxPMf39sbY
7Pb7roFfwgy2nSkGelMQ3Obv0hNtMpwSrFtV0kqQhjzoTe61yzbBRfdrKEabOiU9
3UIX99a6ZUScg+xYb+3mKtgrxPhsqAPZm87IbW0VHHhIboiTp5NNNWd6/evZcqOd
l6uhm0kXNneRcGPznmWMq7NIzqBAcyAmQzKVan7Hvxi48JIq1RNIUHKfdQ2IpwCv
t7ucxokLWCpzaKisMtQIMTqBdxQqexeL0pCFZiB1M4P3K0SbTw0YDI4qXgZTb5+U
wmnm0NUYCV6koEP3EeaEtyPYFQZO25r4uVpGZ5HwmnrHYjHW5GLC1ul8fLbId8Mq
Slmh/TIa0pT7GQGUPfNj0QjBURMOGT3xazpKbbclAgQicoYz8w5dm5xGWAxvBImn
UFHpX3cLWF3p685PQJTluNozm8Gp+fDeK6aDVC1RrWtC
-----END CERTIFICATE-----
