Certificate:
    Data:
        Version: 3 (0x2)
        Serial Number: 2635 (0xa4b)
    Signature Algorithm: md5WithRSAEncryption
        Issuer: C=US, ST=OH, L=Columbus, O=VikingVPN, OU=MyOrganizationalUnit, CN=VikingVPN CA/name=EasyRSA/emailAddress=me@myhost.mydomain
        Validity
            Not Before: Aug 21 20:34:28 2014 GMT
            Not After : Aug 18 20:34:28 2024 GMT
        Subject: CN=Client72Certc778f5
        Subject Public Key Info:
            Public Key Algorithm: rsaEncryption
                Public-Key: (4096 bit)
                Modulus:
                    00:d4:c9:ea:c1:69:7c:43:1d:82:c3:9a:5f:e0:80:
                    ad:0c:e1:ca:1f:4b:0f:e9:ea:ce:ac:63:e9:08:96:
                    ec:ee:fb:2c:a8:9f:8b:c3:6c:18:bb:10:e4:e5:9a:
                    26:ab:57:f9:96:60:fc:c2:68:4d:d5:ad:24:57:b0:
                    91:fa:bd:87:7a:52:dc:63:e5:21:69:91:a4:82:f1:
                    e6:fa:b4:98:7a:fb:82:de:ce:1a:0a:a2:86:f2:6b:
                    f5:4d:58:e2:31:2b:67:20:ef:c8:da:d8:c4:8b:12:
                    c2:29:93:b3:b0:c0:63:41:6d:f1:b3:79:d5:0a:c1:
                    eb:d1:c4:cb:5b:71:42:41:26:e7:8e:f9:88:c3:ba:
                    28:83:52:2a:70:82:34:97:75:6d:40:18:48:5e:4c:
                    73:55:ee:c2:b9:1e:f7:a9:cb:4b:26:cd:b6:77:66:
                    20:39:85:4e:43:b5:09:79:cf:2b:94:74:28:41:99:
                    78:1f:da:0f:1f:2d:9a:47:12:e6:f8:59:05:bc:ea:
                    d0:bf:90:8f:4c:7b:54:d9:de:5a:c7:3a:60:ab:92:
                    75:5d:bc:a2:f1:eb:d5:b0:9a:eb:36:fb:3b:04:fe:
                    1f:13:8d:c7:94:01:0a:1b:ab:f0:46:b2:28:2a:4c:
                    f1:ac:2c:d2:d0:f7:25:74:60:d6:be:3c:58:fe:24:
                    1d:c7:8f:3a:af:fc:59:28:b5:6b:8a:43:d8:8b:2d:
                    cb:87:aa:84:c0:eb:df:13:14:27:86:e1:b7:c4:0d:
                    b3:4c:48:ef:a8:7c:b4:45:bd:0f:a2:94:57:34:9e:
                    43:d3:d7:70:fc:e4:bc:ed:c1:c2:bd:24:e5:1c:44:
                    a2:93:40:23:0e:07:ec:10:3b:64:a4:15:f5:3a:c1:
                    bb:10:1b:6f:e3:be:a1:6a:a6:d2:47:30:ee:d8:7d:
                    e9:c4:f9:bc:c5:f9:d0:39:d6:62:52:a2:c5:6f:c5:
                    f7:76:ea:e1:e7:2f:0f:80:71:39:fa:65:df:ad:6e:
                    58:ad:0f:b7:b7:80:c6:3b:50:8d:c1:9a:81:71:12:
                    99:6f:49:96:c1:87:0a:6c:56:91:1e:15:37:df:dc:
                    90:8f:62:6c:5e:a3:e4:6e:34:5d:e6:16:56:61:0c:
                    f4:60:2b:e5:09:44:68:64:d1:4d:13:27:a4:07:7c:
                    31:5f:07:41:c1:fe:14:c0:bc:32:04:86:57:65:d8:
                    ee:8a:84:58:3a:40:6a:ae:06:0b:e5:d7:36:82:0f:
                    32:1d:bf:ba:c4:9c:16:8c:da:89:3d:41:64:79:cd:
                    3b:97:db:c3:db:e5:ad:bd:bc:77:3a:b3:36:e8:8d:
                    a5:f4:1b:e0:d2:b8:76:2e:14:8c:96:c9:15:35:f7:
                    ae:c1:a9
                Exponent: 65537 (0x10001)
        X509v3 extensions:
            X509v3 Basic Constraints: 
                CA:FALSE
            Netscape Comment: 
                Easy-RSA Generated Certificate
            X509v3 Subject Key Identifier: 
                5A:E2:3D:DB:31:E6:41:B5:AA:6B:E0:50:F6:17:54:BF:4F:C3:E7:F6
            X509v3 Authority Key Identifier: 
                keyid:12:CD:60:04:D2:A0:80:9E:70:ED:C6:99:B8:7B:2C:C6:52:FD:19:A1
                DirName:/C=US/ST=OH/L=Columbus/O=VikingVPN/OU=MyOrganizationalUnit/CN=VikingVPN CA/name=EasyRSA/emailAddress=me@myhost.mydomain
                serial:CF:35:85:EE:80:BF:2A:3E

            X509v3 Extended Key Usage: 
                TLS Web Client Authentication
            X509v3 Key Usage: 
                Digital Signature
    Signature Algorithm: md5WithRSAEncryption
         5a:15:e4:6b:e3:17:01:b7:68:5c:10:51:95:ec:ab:b4:85:19:
         49:85:68:c6:3f:39:21:5a:fb:3a:43:cb:f4:53:a6:31:8e:19:
         03:5b:96:f2:b8:0a:38:ba:6d:b1:27:7a:e7:17:b9:3d:1c:81:
         c6:cb:fc:79:09:45:ad:e6:8b:13:76:08:b9:2c:d6:e9:cc:7d:
         9f:1e:24:f4:c1:03:13:fc:0e:77:5c:43:e7:c7:4a:39:e0:3f:
         48:46:6b:2a:54:df:b7:5f:05:58:fa:17:5a:84:a2:db:c2:4e:
         9f:9b:bb:69:d7:f8:25:5e:a7:c5:3c:28:3d:0d:ac:ae:2d:04:
         0b:8b:92:67:c5:43:8a:33:89:5d:61:ed:ef:06:60:65:27:37:
         84:7c:2c:24:d2:e8:d1:a6:66:ce:1b:93:58:83:e8:97:95:ff:
         ca:8c:43:8b:b7:a0:21:e1:b8:cc:fc:42:a0:ca:18:91:7f:d0:
         49:98:0a:7c:31:ca:b5:a6:6a:46:fb:37:25:fe:b0:6c:9b:fd:
         3e:55:78:8d:f0:7b:1d:c8:df:f4:1d:83:ca:eb:6c:0a:94:f3:
         0e:b7:48:6d:a0:37:15:83:58:96:e1:5a:7a:61:2e:cc:85:f8:
         bc:bd:df:8d:44:76:c7:b9:a4:dd:f9:81:ee:1d:fb:4e:b6:12:
         32:0e:bc:8c:5a:ac:64:b7:df:35:e2:0b:1b:f4:04:3c:44:bd:
         1f:06:44:9f:a5:8c:ba:f5:a8:b8:e7:b5:26:02:43:d5:86:90:
         02:07:77:49:68:96:86:34:7c:91:12:67:cd:fc:10:e3:a6:33:
         c0:38:83:44:23:5b:1e:0f:e2:26:43:ce:d7:8f:7a:9b:1e:eb:
         4f:e0:3d:07:d6:cd:99:a0:f1:4b:a8:10:ca:14:b7:a0:6b:e2:
         2a:c6:1a:43:eb:ba:9a:d8:9d:dd:25:0f:1c:39:7e:10:e9:81:
         f9:dc:0a:34:c6:a6:c9:db:a1:2e:21:e4:a8:47:a3:6a:ea:f8:
         53:6e:38:e5:a9:a6:0b:eb:06:14:f0:88:8b:6d:df:8f:e8:0d:
         e3:d4:99:0a:e9:76:b7:de:45:84:04:31:3f:6b:6b:d9:2f:b4:
         4c:41:01:e1:ea:93:84:6a:e5:7d:03:80:38:03:2a:70:d9:c6:
         53:36:b6:1f:de:c6:b5:38:f6:9f:18:f0:5d:a5:d4:d2:a1:55:
         1f:16:4a:e6:5e:0c:9c:0b:46:2a:40:09:44:6e:f0:b7:a0:81:
         67:11:89:2d:7f:aa:5b:ab:8c:dd:ad:d9:6f:1c:3f:cc:ba:24:
         9d:a0:65:9a:07:0e:fd:8c:36:dd:6c:4f:eb:44:cd:4a:3c:09:
         c4:44:68:4a:ca:8d:d6:01
-----BEGIN CERTIFICATE-----
MIIGqzCCBJOgAwIBAgICCkswDQYJKoZIhvcNAQEEBQAwgawxCzAJBgNVBAYTAlVT
MQswCQYDVQQIEwJPSDERMA8GA1UEBxMIQ29sdW1idXMxEjAQBgNVBAoTCVZpa2lu
Z1ZQTjEdMBsGA1UECxMUTXlPcmdhbml6YXRpb25hbFVuaXQxFTATBgNVBAMTDFZp
a2luZ1ZQTiBDQTEQMA4GA1UEKRMHRWFzeVJTQTEhMB8GCSqGSIb3DQEJARYSbWVA
bXlob3N0Lm15ZG9tYWluMB4XDTE0MDgyMTIwMzQyOFoXDTI0MDgxODIwMzQyOFow
HTEbMBkGA1UEAxMSQ2xpZW50NzJDZXJ0Yzc3OGY1MIICIjANBgkqhkiG9w0BAQEF
AAOCAg8AMIICCgKCAgEA1MnqwWl8Qx2Cw5pf4ICtDOHKH0sP6erOrGPpCJbs7vss
qJ+Lw2wYuxDk5Zomq1f5lmD8wmhN1a0kV7CR+r2HelLcY+UhaZGkgvHm+rSYevuC
3s4aCqKG8mv1TVjiMStnIO/I2tjEixLCKZOzsMBjQW3xs3nVCsHr0cTLW3FCQSbn
jvmIw7oog1IqcII0l3VtQBhIXkxzVe7CuR73qctLJs22d2YgOYVOQ7UJec8rlHQo
QZl4H9oPHy2aRxLm+FkFvOrQv5CPTHtU2d5axzpgq5J1Xbyi8evVsJrrNvs7BP4f
E43HlAEKG6vwRrIoKkzxrCzS0PcldGDWvjxY/iQdx486r/xZKLVrikPYiy3Lh6qE
wOvfExQnhuG3xA2zTEjvqHy0Rb0PopRXNJ5D09dw/OS87cHCvSTlHESik0AjDgfs
EDtkpBX1OsG7EBtv476haqbSRzDu2H3pxPm8xfnQOdZiUqLFb8X3durh5y8PgHE5
+mXfrW5YrQ+3t4DGO1CNwZqBcRKZb0mWwYcKbFaRHhU339yQj2JsXqPkbjRd5hZW
YQz0YCvlCURoZNFNEyekB3wxXwdBwf4UwLwyBIZXZdjuioRYOkBqrgYL5dc2gg8y
Hb+6xJwWjNqJPUFkec07l9vD2+Wtvbx3OrM26I2l9Bvg0rh2LhSMlskVNfeuwakC
AwEAAaOCAWMwggFfMAkGA1UdEwQCMAAwLQYJYIZIAYb4QgENBCAWHkVhc3ktUlNB
IEdlbmVyYXRlZCBDZXJ0aWZpY2F0ZTAdBgNVHQ4EFgQUWuI92zHmQbWqa+BQ9hdU
v0/D5/YwgeEGA1UdIwSB2TCB1oAUEs1gBNKggJ5w7caZuHssxlL9GaGhgbKkga8w
gawxCzAJBgNVBAYTAlVTMQswCQYDVQQIEwJPSDERMA8GA1UEBxMIQ29sdW1idXMx
EjAQBgNVBAoTCVZpa2luZ1ZQTjEdMBsGA1UECxMUTXlPcmdhbml6YXRpb25hbFVu
aXQxFTATBgNVBAMTDFZpa2luZ1ZQTiBDQTEQMA4GA1UEKRMHRWFzeVJTQTEhMB8G
CSqGSIb3DQEJARYSbWVAbXlob3N0Lm15ZG9tYWluggkAzzWF7oC/Kj4wEwYDVR0l
BAwwCgYIKwYBBQUHAwIwCwYDVR0PBAQDAgeAMA0GCSqGSIb3DQEBBAUAA4ICAQBa
FeRr4xcBt2hcEFGV7Ku0hRlJhWjGPzkhWvs6Q8v0U6YxjhkDW5byuAo4um2xJ3rn
F7k9HIHGy/x5CUWt5osTdgi5LNbpzH2fHiT0wQMT/A53XEPnx0o54D9IRmsqVN+3
XwVY+hdahKLbwk6fm7tp1/glXqfFPCg9DayuLQQLi5JnxUOKM4ldYe3vBmBlJzeE
fCwk0ujRpmbOG5NYg+iXlf/KjEOLt6Ah4bjM/EKgyhiRf9BJmAp8Mcq1pmpG+zcl
/rBsm/0+VXiN8HsdyN/0HYPK62wKlPMOt0htoDcVg1iW4Vp6YS7Mhfi8vd+NRHbH
uaTd+YHuHftOthIyDryMWqxkt9814gsb9AQ8RL0fBkSfpYy69ai457UmAkPVhpAC
B3dJaJaGNHyREmfN/BDjpjPAOINEI1seD+ImQ87Xj3qbHutP4D0H1s2ZoPFLqBDK
FLega+IqxhpD67qa2J3dJQ8cOX4Q6YH53Ao0xqbJ26EuIeSoR6Nq6vhTbjjlqaYL
6wYU8IiLbd+P6A3j1JkK6Xa33kWEBDE/a2vZL7RMQQHh6pOEauV9A4A4Aypw2cZT
NrYf3sa1OPafGPBdpdTSoVUfFkrmXgycC0YqQAlEbvC3oIFnEYktf6pbq4zdrdlv
HD/MuiSdoGWaBw79jDbdbE/rRM1KPAnERGhKyo3WAQ==
-----END CERTIFICATE-----
