Certificate:
    Data:
        Version: 3 (0x2)
        Serial Number: 11320 (0x2c38)
    Signature Algorithm: sha256WithRSAEncryption
        Issuer: C=US, ST=OH, L=Columbus, O=VikingVPN, OU=MyOrganizationalUnit, CN=VikingVPN CA/name=EasyRSA/emailAddress=me@myhost.mydomain
        Validity
            Not Before: Jul 14 04:17:13 2017 GMT
            Not After : Jul 12 04:17:13 2027 GMT
        Subject: CN=Client2909Cert4121d8
        Subject Public Key Info:
            Public Key Algorithm: rsaEncryption
                Public-Key: (4096 bit)
                Modulus:
                    00:ae:92:dd:d3:96:00:dc:4d:a8:90:bd:a7:03:ba:
                    86:a0:4c:4f:70:9a:9f:f9:3e:46:f1:0c:ee:18:65:
                    53:17:ae:ec:e7:c7:5b:0a:0a:81:b7:59:09:99:f6:
                    82:d3:a9:85:74:66:26:61:38:b9:1c:cb:bd:69:14:
                    83:59:ad:c6:67:80:34:03:41:6a:de:2a:4f:4d:b1:
                    e2:61:73:54:37:5b:3c:db:99:34:2a:ce:a7:a8:2e:
                    00:43:45:50:7b:0b:b6:63:a2:ff:d8:b5:e1:7c:02:
                    26:d3:27:3e:74:5b:63:8b:98:e6:5c:cb:7d:d7:0f:
                    63:c5:f5:5d:42:85:f8:36:7e:02:14:f0:61:e4:d1:
                    f2:33:d0:72:96:9e:a2:fb:3b:b8:3d:c9:cf:9d:41:
                    74:3c:fc:cb:8f:ce:7f:e6:53:7e:69:7b:b9:6a:22:
                    c6:d0:5f:7b:f8:93:32:f7:c5:9a:66:d9:e3:0f:be:
                    3c:2e:74:71:e7:cc:6f:da:45:c2:02:94:c5:8c:ec:
                    66:f8:73:e7:06:e3:5a:d8:f5:c0:8f:72:61:64:d7:
                    96:fe:68:a2:ec:c6:54:4f:da:ee:d3:2c:c1:8f:93:
                    3f:d2:19:44:89:dc:3e:4d:03:4c:f4:15:57:51:a4:
                    42:75:65:3d:d6:28:2d:ec:9a:62:11:5c:e0:13:67:
                    f1:49:53:ba:9b:0d:67:9d:bd:ba:8d:54:00:c8:3c:
                    38:cc:b6:e6:5c:b5:94:61:d9:cd:5d:fb:ae:5a:62:
                    b9:f0:90:08:0a:91:8c:d3:e2:df:dd:63:9a:0a:e2:
                    57:97:c2:1a:eb:b5:49:ba:c8:97:46:82:45:70:aa:
                    d7:56:f3:02:66:3a:8b:1d:b1:97:0e:24:50:5f:b6:
                    25:6d:89:88:5a:36:71:4b:3d:87:50:d9:3c:ee:3f:
                    97:34:0b:84:f0:29:8a:6b:dd:c7:79:a9:d9:19:c7:
                    ca:c0:ae:05:94:bb:a7:fc:01:50:7e:bd:59:ab:19:
                    09:d7:6a:8d:e3:7a:46:1e:99:92:d6:69:9e:0b:e2:
                    ad:21:cb:85:52:86:b9:70:74:bb:a4:0b:30:a9:de:
                    10:d2:98:03:fc:9d:d2:3a:a4:5c:50:39:09:19:18:
                    8d:5e:87:49:6c:dd:cb:66:4a:dd:3a:27:f2:b4:0d:
                    eb:e6:4b:28:8c:43:ea:29:6e:09:cd:ba:72:66:94:
                    8b:e9:cc:75:bf:c1:36:75:63:21:bb:42:04:a0:05:
                    f3:3a:56:0a:92:e1:04:de:75:21:59:47:a0:d8:51:
                    3d:c5:4a:d0:62:f0:0e:78:33:01:25:ba:2f:6e:b5:
                    e4:7a:ac:a5:dd:dd:eb:dc:1d:e7:85:3b:87:4c:6c:
                    c2:29:33
                Exponent: 65537 (0x10001)
        X509v3 extensions:
            X509v3 Basic Constraints: 
                CA:FALSE
            Netscape Comment: 
                Easy-RSA Generated Certificate
            X509v3 Subject Key Identifier: 
                0B:0C:3C:89:0F:E1:41:34:F7:D7:26:8F:5F:BF:04:05:E7:49:08:F0
            X509v3 Authority Key Identifier: 
                keyid:12:CD:60:04:D2:A0:80:9E:70:ED:C6:99:B8:7B:2C:C6:52:FD:19:A1
                DirName:/C=US/ST=OH/L=Columbus/O=VikingVPN/OU=MyOrganizationalUnit/CN=VikingVPN CA/name=EasyRSA/emailAddress=me@myhost.mydomain
                serial:CF:35:85:EE:80:BF:2A:3E

            X509v3 Extended Key Usage: 
                TLS Web Client Authentication
            X509v3 Key Usage: 
                Digital Signature
    Signature Algorithm: sha256WithRSAEncryption
         77:d2:ad:a1:65:6d:b9:72:44:51:b0:00:c9:51:80:80:08:99:
         b5:54:42:7d:a8:e6:a8:92:ab:d7:f1:9f:76:4e:5a:ce:61:55:
         61:f9:c3:10:14:f4:71:eb:5c:6a:53:f7:fd:08:7f:83:d4:6f:
         bc:13:55:ee:a0:ba:80:a9:ff:34:8e:f5:6a:4d:19:4c:32:f7:
         ad:83:95:af:9e:38:04:4f:d5:8c:41:22:27:3a:15:72:be:34:
         2d:d3:11:c5:72:70:cd:fa:4f:e3:4e:39:bb:f0:f4:89:50:59:
         ca:34:fb:2c:c9:bb:03:a4:6a:8f:87:58:b0:62:43:93:99:80:
         6f:0e:76:87:48:65:bb:24:f4:4c:f0:12:d7:68:de:39:ee:6e:
         4c:5f:60:1f:c8:d6:8d:b7:72:0c:d4:ef:b3:b1:68:59:43:2c:
         db:fc:86:81:5d:a6:09:55:74:3b:d7:61:70:ba:cb:81:5e:dd:
         b1:d4:c8:be:ea:b2:ba:63:ad:2e:09:d5:ab:e2:bb:60:dc:89:
         2e:32:70:c7:11:b9:7e:02:8e:99:e6:ca:f9:53:fa:3e:58:39:
         86:cf:23:59:79:25:b9:ce:80:a7:e7:53:90:4e:17:d2:5b:74:
         fb:ba:77:cb:4f:1a:33:f8:19:51:7d:e2:f3:bd:79:be:c1:a5:
         d5:84:31:b2:90:9e:25:54:24:41:08:69:bd:1e:a8:9c:68:1b:
         b9:8d:81:17:62:4f:88:28:b5:de:3f:ad:e2:83:95:a1:fe:94:
         52:0a:78:b7:ee:8a:a1:e7:9e:1b:b1:7b:2b:72:45:13:71:00:
         85:e0:01:78:41:ae:fb:f7:d2:d5:a9:4a:3b:3f:64:c4:8f:d2:
         e3:7a:89:6a:63:30:e0:27:04:c6:2f:15:60:dd:2d:79:53:59:
         40:f9:66:4c:d6:e1:95:7c:6d:d1:e7:1b:ee:53:50:70:fd:c0:
         3f:16:b2:30:19:6b:f1:b5:5c:5c:d1:c4:6f:2e:34:b8:e9:bd:
         a7:94:a5:94:df:c0:78:21:dd:e3:01:49:fd:15:3e:08:3a:46:
         6c:05:ad:4b:ba:2e:ac:c0:8f:92:cb:c4:a4:b8:4b:21:a6:95:
         1c:d0:cf:1e:aa:0d:0c:b8:4d:f3:5c:4e:1e:db:9f:7d:b5:3b:
         66:40:12:54:89:af:cd:e9:f9:27:ae:28:9d:c2:50:cd:00:5c:
         c2:ad:bb:f7:be:29:1c:7a:40:33:be:5e:e1:58:4b:8f:ec:ba:
         68:bf:01:8d:2e:3d:28:04:79:99:79:f3:28:d4:b1:23:89:9a:
         e1:35:47:2b:ce:8d:21:a8:05:d4:84:4f:f1:b9:73:58:e3:2e:
         de:9b:40:71:2f:d1:92:e6
-----BEGIN CERTIFICATE-----
MIIGrTCCBJWgAwIBAgICLDgwDQYJKoZIhvcNAQELBQAwgawxCzAJBgNVBAYTAlVT
MQswCQYDVQQIEwJPSDERMA8GA1UEBxMIQ29sdW1idXMxEjAQBgNVBAoTCVZpa2lu
Z1ZQTjEdMBsGA1UECxMUTXlPcmdhbml6YXRpb25hbFVuaXQxFTATBgNVBAMTDFZp
a2luZ1ZQTiBDQTEQMA4GA1UEKRMHRWFzeVJTQTEhMB8GCSqGSIb3DQEJARYSbWVA
bXlob3N0Lm15ZG9tYWluMB4XDTE3MDcxNDA0MTcxM1oXDTI3MDcxMjA0MTcxM1ow
HzEdMBsGA1UEAxMUQ2xpZW50MjkwOUNlcnQ0MTIxZDgwggIiMA0GCSqGSIb3DQEB
AQUAA4ICDwAwggIKAoICAQCukt3TlgDcTaiQvacDuoagTE9wmp/5PkbxDO4YZVMX
ruznx1sKCoG3WQmZ9oLTqYV0ZiZhOLkcy71pFINZrcZngDQDQWreKk9NseJhc1Q3
WzzbmTQqzqeoLgBDRVB7C7Zjov/YteF8AibTJz50W2OLmOZcy33XD2PF9V1Chfg2
fgIU8GHk0fIz0HKWnqL7O7g9yc+dQXQ8/MuPzn/mU35pe7lqIsbQX3v4kzL3xZpm
2eMPvjwudHHnzG/aRcIClMWM7Gb4c+cG41rY9cCPcmFk15b+aKLsxlRP2u7TLMGP
kz/SGUSJ3D5NA0z0FVdRpEJ1ZT3WKC3smmIRXOATZ/FJU7qbDWedvbqNVADIPDjM
tuZctZRh2c1d+65aYrnwkAgKkYzT4t/dY5oK4leXwhrrtUm6yJdGgkVwqtdW8wJm
OosdsZcOJFBftiVtiYhaNnFLPYdQ2TzuP5c0C4TwKYpr3cd5qdkZx8rArgWUu6f8
AVB+vVmrGQnXao3jekYemZLWaZ4L4q0hy4VShrlwdLukCzCp3hDSmAP8ndI6pFxQ
OQkZGI1eh0ls3ctmSt06J/K0DevmSyiMQ+opbgnNunJmlIvpzHW/wTZ1YyG7QgSg
BfM6VgqS4QTedSFZR6DYUT3FStBi8A54MwElui9uteR6rKXd3evcHeeFO4dMbMIp
MwIDAQABo4IBYzCCAV8wCQYDVR0TBAIwADAtBglghkgBhvhCAQ0EIBYeRWFzeS1S
U0EgR2VuZXJhdGVkIENlcnRpZmljYXRlMB0GA1UdDgQWBBQLDDyJD+FBNPfXJo9f
vwQF50kI8DCB4QYDVR0jBIHZMIHWgBQSzWAE0qCAnnDtxpm4eyzGUv0ZoaGBsqSB
rzCBrDELMAkGA1UEBhMCVVMxCzAJBgNVBAgTAk9IMREwDwYDVQQHEwhDb2x1bWJ1
czESMBAGA1UEChMJVmlraW5nVlBOMR0wGwYDVQQLExRNeU9yZ2FuaXphdGlvbmFs
VW5pdDEVMBMGA1UEAxMMVmlraW5nVlBOIENBMRAwDgYDVQQpEwdFYXN5UlNBMSEw
HwYJKoZIhvcNAQkBFhJtZUBteWhvc3QubXlkb21haW6CCQDPNYXugL8qPjATBgNV
HSUEDDAKBggrBgEFBQcDAjALBgNVHQ8EBAMCB4AwDQYJKoZIhvcNAQELBQADggIB
AHfSraFlbblyRFGwAMlRgIAImbVUQn2o5qiSq9fxn3ZOWs5hVWH5wxAU9HHrXGpT
9/0If4PUb7wTVe6guoCp/zSO9WpNGUwy962Dla+eOARP1YxBIic6FXK+NC3TEcVy
cM36T+NOObvw9IlQWco0+yzJuwOkao+HWLBiQ5OZgG8OdodIZbsk9EzwEtdo3jnu
bkxfYB/I1o23cgzU77OxaFlDLNv8hoFdpglVdDvXYXC6y4Fe3bHUyL7qsrpjrS4J
1aviu2DciS4ycMcRuX4CjpnmyvlT+j5YOYbPI1l5JbnOgKfnU5BOF9JbdPu6d8tP
GjP4GVF94vO9eb7BpdWEMbKQniVUJEEIab0eqJxoG7mNgRdiT4gotd4/reKDlaH+
lFIKeLfuiqHnnhuxeytyRRNxAIXgAXhBrvv30tWpSjs/ZMSP0uN6iWpjMOAnBMYv
FWDdLXlTWUD5ZkzW4ZV8bdHnG+5TUHD9wD8WsjAZa/G1XFzRxG8uNLjpvaeUpZTf
wHgh3eMBSf0VPgg6RmwFrUu6LqzAj5LLxKS4SyGmlRzQzx6qDQy4TfNcTh7bn321
O2ZAElSJr83p+SeuKJ3CUM0AXMKtu/e+KRx6QDO+XuFYS4/sumi/AY0uPSgEeZl5
8yjUsSOJmuE1RyvOjSGoBdSET/G5c1jjLt6bQHEv0ZLm
-----END CERTIFICATE-----
