Certificate:
    Data:
        Version: 3 (0x2)
        Serial Number: 2486 (0x9b6)
    Signature Algorithm: md5WithRSAEncryption
        Issuer: C=US, ST=OH, L=Columbus, O=VikingVPN, OU=MyOrganizationalUnit, CN=VikingVPN CA/name=EasyRSA/emailAddress=me@myhost.mydomain
        Validity
            Not Before: Aug  7 14:37:11 2014 GMT
            Not After : Aug  4 14:37:11 2024 GMT
        Subject: CN=Client848Cert0c48b4
        Subject Public Key Info:
            Public Key Algorithm: rsaEncryption
                Public-Key: (4096 bit)
                Modulus:
                    00:d4:69:9c:b2:bf:bd:b5:e7:3f:b7:bc:80:c7:dc:
                    e4:5f:69:55:11:71:c7:f8:f0:b0:13:68:96:e4:6e:
                    79:97:c3:04:32:9c:26:73:f5:10:4f:44:51:63:e9:
                    f6:4c:a6:d1:91:12:3c:2e:36:bb:2a:6c:0a:c9:2b:
                    5a:34:de:0d:d8:fb:7a:db:18:c9:84:78:0e:40:25:
                    a9:1a:1f:0c:db:4e:1f:7b:22:d7:1d:2c:75:b1:62:
                    13:bf:e9:a8:9f:68:52:8e:1e:1a:69:84:dd:65:f0:
                    54:48:29:55:d6:1d:33:f8:86:12:4c:25:1d:96:19:
                    6f:f0:e8:e9:97:40:71:4d:28:3f:e2:80:53:e8:38:
                    67:47:64:53:d6:fb:75:4f:cf:98:8e:17:9d:27:f3:
                    0f:7d:ab:c3:29:c3:87:7b:a1:55:62:de:ef:51:32:
                    d1:6e:e4:12:2c:4c:4f:3a:7b:7d:51:d5:2e:63:25:
                    ff:4e:b1:26:cf:47:d1:88:f9:0c:8d:15:32:06:3b:
                    e0:84:9c:a7:b0:18:04:ce:39:65:71:ff:fb:3e:2a:
                    69:70:a9:46:a3:d0:d0:0a:9f:65:e7:e7:f2:b9:6e:
                    58:4a:e9:85:69:71:4e:e7:1a:ce:cc:81:20:a8:2b:
                    63:78:89:6b:a1:bc:a8:b6:e6:2d:b1:36:3d:5f:d2:
                    b0:1a:60:9d:c3:f4:7f:05:64:5b:b6:39:5a:e2:1a:
                    94:ae:29:3d:cf:ae:72:dd:83:72:1e:74:b0:17:62:
                    5a:2e:f7:9c:81:3b:4b:22:5e:6f:23:4b:87:7c:c7:
                    6d:77:f0:f8:94:71:87:19:7c:7e:99:20:93:19:30:
                    80:33:d5:2a:38:fe:43:ed:34:76:34:ae:f1:9f:38:
                    db:d9:68:c9:ce:ff:41:53:47:e1:d0:8c:9d:2e:6b:
                    b2:cb:a1:5a:32:7f:7f:aa:e1:89:d6:60:1c:c9:cb:
                    10:fc:d2:ec:85:1b:ec:35:11:17:0c:db:d8:b8:86:
                    49:85:03:ac:e9:96:e1:9e:59:36:18:2c:fc:cd:d6:
                    99:73:6d:f6:76:45:61:1c:e2:ad:a3:f9:ef:cf:34:
                    f6:f9:1a:9e:3d:2b:35:bf:5b:c5:b9:a4:b8:a3:47:
                    9a:83:53:e1:a3:26:d9:3a:eb:bf:66:71:3b:71:1a:
                    05:c8:96:11:24:7e:a0:7d:2b:57:50:11:48:86:f8:
                    ca:41:09:7f:d5:fe:00:9c:fe:7f:04:de:e4:8d:b3:
                    c1:bc:6b:a2:fe:ae:f1:68:47:78:3c:6d:eb:8a:65:
                    18:e7:71:6a:04:2c:d5:05:8e:86:54:61:9c:c4:c9:
                    42:61:b8:a1:e5:8e:17:99:c9:eb:cb:86:52:48:86:
                    5a:b1:e5
                Exponent: 65537 (0x10001)
        X509v3 extensions:
            X509v3 Basic Constraints: 
                CA:FALSE
            Netscape Comment: 
                Easy-RSA Generated Certificate
            X509v3 Subject Key Identifier: 
                94:A6:D0:4D:67:ED:DF:5D:FE:DF:48:37:45:1A:AE:F7:CE:79:1D:4E
            X509v3 Authority Key Identifier: 
                keyid:12:CD:60:04:D2:A0:80:9E:70:ED:C6:99:B8:7B:2C:C6:52:FD:19:A1
                DirName:/C=US/ST=OH/L=Columbus/O=VikingVPN/OU=MyOrganizationalUnit/CN=VikingVPN CA/name=EasyRSA/emailAddress=me@myhost.mydomain
                serial:CF:35:85:EE:80:BF:2A:3E

            X509v3 Extended Key Usage: 
                TLS Web Client Authentication
            X509v3 Key Usage: 
                Digital Signature
    Signature Algorithm: md5WithRSAEncryption
         3d:e7:9c:11:32:59:4f:a0:c8:ab:67:9b:a8:7a:b6:90:55:46:
         51:72:66:10:d1:c0:ed:37:d2:44:07:83:ad:34:78:60:3c:cc:
         64:60:64:e8:6b:4d:79:33:83:2d:dd:4e:d9:69:22:4c:d3:f4:
         15:30:4c:cb:fb:99:df:62:ef:33:7b:09:d4:74:2d:85:fe:3c:
         6f:68:f2:6c:51:7b:66:3e:21:e1:08:4e:1b:20:0f:62:00:05:
         2a:46:95:a8:48:70:6e:54:5a:17:d3:4f:2d:ef:f4:d2:be:ae:
         9c:0d:ae:25:67:1c:79:af:fe:88:6e:6f:98:90:99:59:28:e4:
         0b:0c:2c:e8:df:62:d1:35:40:76:b7:c5:f3:57:5e:a9:78:18:
         13:c9:e1:c7:ae:46:cd:a8:b0:c9:74:ec:0f:2b:da:85:49:f6:
         28:4d:9b:0c:19:42:b6:ca:ea:80:b2:50:db:ea:f8:60:d3:e9:
         2b:b6:85:2a:94:05:8a:74:76:ad:e2:dd:60:9a:75:42:6f:03:
         72:d0:d4:c8:15:1d:39:28:11:ab:b1:6f:b7:57:59:44:95:64:
         1e:eb:e8:d7:c6:c8:8e:9e:5a:95:18:9a:17:3f:cd:0d:f1:c0:
         0b:8d:8e:7f:41:1e:8b:50:23:94:03:80:32:90:97:06:a2:fc:
         d9:73:e2:d0:0d:2b:76:98:9b:07:ec:f1:9b:f2:e5:00:0b:1f:
         91:08:8f:3f:bf:f7:37:1c:8c:07:24:a2:4a:07:e9:6c:77:c3:
         b8:88:fe:fa:82:12:ea:09:ff:c6:3f:df:73:79:14:c7:b5:3c:
         5c:1f:c0:d6:a9:cb:04:60:a2:24:b4:dc:58:77:11:c6:ae:10:
         c2:a4:44:c2:d9:32:71:0c:e0:54:c2:10:cb:da:c6:b9:66:9b:
         f2:05:53:4e:82:91:a0:2b:91:2d:03:dd:46:53:89:c2:76:9d:
         c4:21:30:cd:61:38:7a:bb:c1:09:69:0d:79:3f:c0:9b:3e:a4:
         7f:21:a0:8f:18:7b:78:0b:db:dd:98:ac:92:1f:af:bd:aa:f4:
         3d:75:4c:1c:6a:22:49:4d:3a:92:f8:26:22:ed:d3:0b:04:0b:
         9b:e5:c1:fd:2c:5d:8e:f3:04:48:5c:eb:c2:a4:cb:3a:6f:d2:
         37:2e:29:c3:cf:a4:ab:e0:f0:1f:e8:a7:44:bd:9a:b1:86:cd:
         04:7d:f6:74:d0:1c:52:5b:52:33:a2:65:1a:b1:0d:1a:e9:50:
         10:28:40:a3:08:4f:f4:80:0f:48:4c:30:69:cb:16:a8:dc:c2:
         22:91:73:46:42:bf:cc:bf:21:7b:7d:5d:c8:12:1e:5b:35:8c:
         57:ae:9f:c0:1a:06:56:b8
-----BEGIN CERTIFICATE-----
MIIGrDCCBJSgAwIBAgICCbYwDQYJKoZIhvcNAQEEBQAwgawxCzAJBgNVBAYTAlVT
MQswCQYDVQQIEwJPSDERMA8GA1UEBxMIQ29sdW1idXMxEjAQBgNVBAoTCVZpa2lu
Z1ZQTjEdMBsGA1UECxMUTXlPcmdhbml6YXRpb25hbFVuaXQxFTATBgNVBAMTDFZp
a2luZ1ZQTiBDQTEQMA4GA1UEKRMHRWFzeVJTQTEhMB8GCSqGSIb3DQEJARYSbWVA
bXlob3N0Lm15ZG9tYWluMB4XDTE0MDgwNzE0MzcxMVoXDTI0MDgwNDE0MzcxMVow
HjEcMBoGA1UEAxMTQ2xpZW50ODQ4Q2VydDBjNDhiNDCCAiIwDQYJKoZIhvcNAQEB
BQADggIPADCCAgoCggIBANRpnLK/vbXnP7e8gMfc5F9pVRFxx/jwsBNoluRueZfD
BDKcJnP1EE9EUWPp9kym0ZESPC42uypsCskrWjTeDdj7etsYyYR4DkAlqRofDNtO
H3si1x0sdbFiE7/pqJ9oUo4eGmmE3WXwVEgpVdYdM/iGEkwlHZYZb/Do6ZdAcU0o
P+KAU+g4Z0dkU9b7dU/PmI4XnSfzD32rwynDh3uhVWLe71Ey0W7kEixMTzp7fVHV
LmMl/06xJs9H0Yj5DI0VMgY74IScp7AYBM45ZXH/+z4qaXCpRqPQ0AqfZefn8rlu
WErphWlxTucazsyBIKgrY3iJa6G8qLbmLbE2PV/SsBpgncP0fwVkW7Y5WuIalK4p
Pc+uct2Dch50sBdiWi73nIE7SyJebyNLh3zHbXfw+JRxhxl8fpkgkxkwgDPVKjj+
Q+00djSu8Z8429loyc7/QVNH4dCMnS5rssuhWjJ/f6rhidZgHMnLEPzS7IUb7DUR
Fwzb2LiGSYUDrOmW4Z5ZNhgs/M3WmXNt9nZFYRziraP578809vkanj0rNb9bxbmk
uKNHmoNT4aMm2Trrv2ZxO3EaBciWESR+oH0rV1ARSIb4ykEJf9X+AJz+fwTe5I2z
wbxrov6u8WhHeDxt64plGOdxagQs1QWOhlRhnMTJQmG4oeWOF5nJ68uGUkiGWrHl
AgMBAAGjggFjMIIBXzAJBgNVHRMEAjAAMC0GCWCGSAGG+EIBDQQgFh5FYXN5LVJT
QSBHZW5lcmF0ZWQgQ2VydGlmaWNhdGUwHQYDVR0OBBYEFJSm0E1n7d9d/t9IN0Ua
rvfOeR1OMIHhBgNVHSMEgdkwgdaAFBLNYATSoICecO3Gmbh7LMZS/RmhoYGypIGv
MIGsMQswCQYDVQQGEwJVUzELMAkGA1UECBMCT0gxETAPBgNVBAcTCENvbHVtYnVz
MRIwEAYDVQQKEwlWaWtpbmdWUE4xHTAbBgNVBAsTFE15T3JnYW5pemF0aW9uYWxV
bml0MRUwEwYDVQQDEwxWaWtpbmdWUE4gQ0ExEDAOBgNVBCkTB0Vhc3lSU0ExITAf
BgkqhkiG9w0BCQEWEm1lQG15aG9zdC5teWRvbWFpboIJAM81he6Avyo+MBMGA1Ud
JQQMMAoGCCsGAQUFBwMCMAsGA1UdDwQEAwIHgDANBgkqhkiG9w0BAQQFAAOCAgEA
PeecETJZT6DIq2ebqHq2kFVGUXJmENHA7TfSRAeDrTR4YDzMZGBk6GtNeTODLd1O
2WkiTNP0FTBMy/uZ32LvM3sJ1HQthf48b2jybFF7Zj4h4QhOGyAPYgAFKkaVqEhw
blRaF9NPLe/00r6unA2uJWccea/+iG5vmJCZWSjkCwws6N9i0TVAdrfF81deqXgY
E8nhx65GzaiwyXTsDyvahUn2KE2bDBlCtsrqgLJQ2+r4YNPpK7aFKpQFinR2reLd
YJp1Qm8DctDUyBUdOSgRq7Fvt1dZRJVkHuvo18bIjp5alRiaFz/NDfHAC42Of0Ee
i1AjlAOAMpCXBqL82XPi0A0rdpibB+zxm/LlAAsfkQiPP7/3NxyMBySiSgfpbHfD
uIj++oIS6gn/xj/fc3kUx7U8XB/A1qnLBGCiJLTcWHcRxq4QwqREwtkycQzgVMIQ
y9rGuWab8gVTToKRoCuRLQPdRlOJwnadxCEwzWE4ervBCWkNeT/Amz6kfyGgjxh7
eAvb3Ziskh+vvar0PXVMHGoiSU06kvgmIu3TCwQLm+XB/SxdjvMESFzrwqTLOm/S
Ny4pw8+kq+DwH+inRL2asYbNBH32dNAcUltSM6JlGrENGulQEChAowhP9IAPSEww
acsWqNzCIpFzRkK/zL8he31dyBIeWzWMV66fwBoGVrg=
-----END CERTIFICATE-----
