Certificate:
    Data:
        Version: 3 (0x2)
        Serial Number: 9983 (0x26ff)
    Signature Algorithm: sha256WithRSAEncryption
        Issuer: C=US, ST=OH, L=Columbus, O=VikingVPN, OU=MyOrganizationalUnit, CN=VikingVPN CA/name=EasyRSA/emailAddress=me@myhost.mydomain
        Validity
            Not Before: Jan 25 19:01:37 2017 GMT
            Not After : Jan 23 19:01:37 2027 GMT
        Subject: CN=Client2585Cert54f000
        Subject Public Key Info:
            Public Key Algorithm: rsaEncryption
                Public-Key: (4096 bit)
                Modulus:
                    00:c3:7b:18:3a:70:4b:05:82:97:a8:03:f6:c5:88:
                    d5:db:02:65:36:56:a4:f3:ca:2e:0f:c0:be:af:82:
                    68:04:4c:69:b9:56:ae:71:9b:2a:cf:03:0e:73:8b:
                    a3:c6:35:0c:19:fe:22:8c:8d:6c:6b:c9:65:4b:ab:
                    d3:03:a8:3c:34:6e:59:73:d1:01:b0:f0:63:65:9d:
                    da:94:7d:f1:e1:06:a2:fd:c0:58:c9:1e:1b:3f:3f:
                    1d:01:6f:8a:43:fe:c5:bc:d6:1f:16:9d:56:29:58:
                    12:5d:9a:03:a7:09:75:20:9a:40:1f:90:34:dd:e9:
                    07:39:b9:e0:73:d0:2b:0d:73:3b:e8:67:4a:0d:79:
                    a4:72:40:69:01:e3:2e:1e:86:39:61:08:9f:eb:1a:
                    d4:ca:84:5e:1a:f1:f9:11:77:29:3b:2c:eb:52:65:
                    9d:7e:8f:be:eb:21:59:37:e9:30:bb:7d:f4:e3:eb:
                    7d:27:43:56:66:92:70:29:93:da:91:76:a6:2c:2e:
                    e6:89:58:8b:6d:2c:59:f3:83:d0:05:c2:fa:94:5b:
                    21:13:32:8a:75:db:8f:00:75:57:02:d1:86:99:35:
                    21:e6:1b:1c:3a:83:0c:9a:25:9b:d5:37:a3:1f:aa:
                    cb:5a:65:16:2e:25:e1:d9:38:c7:17:bf:26:8c:7f:
                    ba:68:69:d8:51:67:2d:7a:71:20:6a:a0:93:8b:2f:
                    86:d8:6f:33:1c:a6:cb:14:83:96:61:09:1b:de:e5:
                    a1:37:35:ee:fe:de:7e:e7:db:36:4e:6e:9a:7f:9e:
                    43:b7:b7:b4:e9:9d:08:ce:57:82:a5:fe:b6:4b:ac:
                    12:df:fd:c3:03:0b:d0:b3:e9:59:c4:35:02:0b:06:
                    fc:b0:2d:85:f3:bf:65:b2:a9:83:bf:c0:47:19:11:
                    a6:72:1f:f6:eb:58:c5:56:6c:51:5f:80:d0:6e:74:
                    c4:c6:7a:b2:d4:86:1b:47:5f:57:3b:54:c5:0b:b9:
                    60:ee:38:57:8e:40:57:a1:a4:0c:36:6d:06:11:5c:
                    bd:84:5c:3e:e5:47:06:90:8a:f9:fd:49:4a:99:94:
                    62:4c:e0:0d:67:ed:14:c9:7b:41:b9:98:0d:98:73:
                    b1:2e:dc:9d:80:ba:a7:a1:87:59:5c:5b:a6:14:b7:
                    c7:4d:43:10:9e:e7:37:27:7c:a0:1b:fe:1b:fb:36:
                    40:d4:a9:4b:3c:be:35:bb:e3:a9:d8:41:d2:ac:73:
                    ee:51:7f:8f:d0:a8:2f:16:a1:57:d5:d8:e5:3d:06:
                    93:e4:3b:3f:e5:aa:99:69:ad:65:74:b7:37:06:c3:
                    9a:db:bf:fe:2f:a8:98:45:10:5e:83:ee:eb:5f:ab:
                    46:07:eb
                Exponent: 65537 (0x10001)
        X509v3 extensions:
            X509v3 Basic Constraints: 
                CA:FALSE
            Netscape Comment: 
                Easy-RSA Generated Certificate
            X509v3 Subject Key Identifier: 
                68:9C:96:84:B7:66:3C:53:AC:74:78:C1:A6:4B:E2:E0:87:D6:C6:4F
            X509v3 Authority Key Identifier: 
                keyid:12:CD:60:04:D2:A0:80:9E:70:ED:C6:99:B8:7B:2C:C6:52:FD:19:A1
                DirName:/C=US/ST=OH/L=Columbus/O=VikingVPN/OU=MyOrganizationalUnit/CN=VikingVPN CA/name=EasyRSA/emailAddress=me@myhost.mydomain
                serial:CF:35:85:EE:80:BF:2A:3E

            X509v3 Extended Key Usage: 
                TLS Web Client Authentication
            X509v3 Key Usage: 
                Digital Signature
    Signature Algorithm: sha256WithRSAEncryption
         46:a3:cc:f4:9f:00:dc:b3:a6:75:f6:77:6e:e5:a4:31:01:b9:
         1b:bc:3c:b1:e4:23:ee:ad:41:e9:03:2f:9c:87:8b:28:4d:2a:
         7b:f7:1b:a4:95:9b:19:c1:a8:1f:af:6b:34:cb:25:2c:35:25:
         c1:8d:37:63:dd:0d:f1:01:f7:bf:12:b1:07:7f:4d:b9:d8:06:
         27:47:e2:c3:48:96:24:13:22:a4:25:dc:a4:7c:4b:34:41:69:
         68:e1:d7:2f:e9:21:f1:b6:92:55:ef:ce:51:c5:44:43:8e:86:
         2b:60:43:5e:ca:6d:5c:4d:47:db:87:be:28:50:d0:b3:ee:9f:
         94:88:b2:94:a5:22:4a:63:9f:ca:f6:c5:7f:5a:c5:c3:7e:53:
         ae:68:05:44:80:11:90:88:4d:8f:a7:1e:d7:b9:5e:75:6f:0b:
         3a:a1:bf:75:37:9b:9c:01:50:82:c8:c1:ea:db:0c:19:dd:41:
         7d:c6:aa:b9:12:8d:d3:54:93:c4:f6:e1:77:dd:8f:d8:cc:af:
         75:63:d6:b6:4e:95:56:56:02:3d:87:5f:cc:27:32:e4:60:74:
         5d:0f:81:4e:27:32:43:e2:8a:4b:38:1d:7f:76:e9:fd:03:98:
         2a:26:5c:18:b3:37:a7:9a:73:37:a5:a2:4b:f3:7b:b3:24:0c:
         a6:6c:ba:71:e8:d4:e5:2f:72:f8:a1:f1:77:56:e0:51:94:73:
         7f:9d:f9:6f:c0:04:12:77:b9:be:52:76:76:a8:7d:21:de:4f:
         3a:15:c1:69:0b:7f:18:c0:5a:1d:a4:ac:5f:1c:4d:92:20:f6:
         9a:5c:8a:32:11:50:fb:85:c0:d9:75:a1:7d:4d:0f:b9:c5:f5:
         d2:9c:4c:2d:51:aa:4a:75:8f:96:2a:12:ae:a1:24:f3:3f:9c:
         00:e0:18:eb:53:48:df:17:80:8e:c8:64:dc:65:37:68:35:20:
         37:de:ca:96:b2:fe:f9:cc:db:57:69:c9:5d:93:3b:2b:78:a9:
         8b:94:74:5e:90:ca:56:7d:5c:c7:9d:70:78:dd:50:64:f3:c8:
         c8:b5:e4:da:33:bf:ca:93:1c:d3:2a:08:3a:22:aa:69:ab:e1:
         c6:32:d9:77:9d:a9:46:e8:96:bf:84:12:91:5a:f4:d9:48:d2:
         33:f9:8b:ff:08:30:e3:71:f0:81:23:e8:df:6d:68:92:c9:15:
         80:49:16:6a:f9:bf:5d:51:19:91:29:41:a1:f3:22:21:0a:26:
         f8:56:18:4e:ce:e9:c4:3b:e1:4a:71:42:3c:3d:24:4d:fb:0d:
         4b:64:99:9b:f3:83:8a:2c:37:70:42:ff:c4:8a:aa:4b:67:3d:
         7d:bb:b7:58:dc:5c:b0:ae
-----BEGIN CERTIFICATE-----
MIIGrTCCBJWgAwIBAgICJv8wDQYJKoZIhvcNAQELBQAwgawxCzAJBgNVBAYTAlVT
MQswCQYDVQQIEwJPSDERMA8GA1UEBxMIQ29sdW1idXMxEjAQBgNVBAoTCVZpa2lu
Z1ZQTjEdMBsGA1UECxMUTXlPcmdhbml6YXRpb25hbFVuaXQxFTATBgNVBAMTDFZp
a2luZ1ZQTiBDQTEQMA4GA1UEKRMHRWFzeVJTQTEhMB8GCSqGSIb3DQEJARYSbWVA
bXlob3N0Lm15ZG9tYWluMB4XDTE3MDEyNTE5MDEzN1oXDTI3MDEyMzE5MDEzN1ow
HzEdMBsGA1UEAxMUQ2xpZW50MjU4NUNlcnQ1NGYwMDAwggIiMA0GCSqGSIb3DQEB
AQUAA4ICDwAwggIKAoICAQDDexg6cEsFgpeoA/bFiNXbAmU2VqTzyi4PwL6vgmgE
TGm5Vq5xmyrPAw5zi6PGNQwZ/iKMjWxryWVLq9MDqDw0bllz0QGw8GNlndqUffHh
BqL9wFjJHhs/Px0Bb4pD/sW81h8WnVYpWBJdmgOnCXUgmkAfkDTd6Qc5ueBz0CsN
czvoZ0oNeaRyQGkB4y4ehjlhCJ/rGtTKhF4a8fkRdyk7LOtSZZ1+j77rIVk36TC7
ffTj630nQ1ZmknApk9qRdqYsLuaJWIttLFnzg9AFwvqUWyETMop1248AdVcC0YaZ
NSHmGxw6gwyaJZvVN6MfqstaZRYuJeHZOMcXvyaMf7poadhRZy16cSBqoJOLL4bY
bzMcpssUg5ZhCRve5aE3Ne7+3n7n2zZObpp/nkO3t7TpnQjOV4Kl/rZLrBLf/cMD
C9Cz6VnENQILBvywLYXzv2WyqYO/wEcZEaZyH/brWMVWbFFfgNBudMTGerLUhhtH
X1c7VMULuWDuOFeOQFehpAw2bQYRXL2EXD7lRwaQivn9SUqZlGJM4A1n7RTJe0G5
mA2Yc7Eu3J2Auqehh1lcW6YUt8dNQxCe5zcnfKAb/hv7NkDUqUs8vjW746nYQdKs
c+5Rf4/QqC8WoVfV2OU9BpPkOz/lqplprWV0tzcGw5rbv/4vqJhFEF6D7utfq0YH
6wIDAQABo4IBYzCCAV8wCQYDVR0TBAIwADAtBglghkgBhvhCAQ0EIBYeRWFzeS1S
U0EgR2VuZXJhdGVkIENlcnRpZmljYXRlMB0GA1UdDgQWBBRonJaEt2Y8U6x0eMGm
S+Lgh9bGTzCB4QYDVR0jBIHZMIHWgBQSzWAE0qCAnnDtxpm4eyzGUv0ZoaGBsqSB
rzCBrDELMAkGA1UEBhMCVVMxCzAJBgNVBAgTAk9IMREwDwYDVQQHEwhDb2x1bWJ1
czESMBAGA1UEChMJVmlraW5nVlBOMR0wGwYDVQQLExRNeU9yZ2FuaXphdGlvbmFs
VW5pdDEVMBMGA1UEAxMMVmlraW5nVlBOIENBMRAwDgYDVQQpEwdFYXN5UlNBMSEw
HwYJKoZIhvcNAQkBFhJtZUBteWhvc3QubXlkb21haW6CCQDPNYXugL8qPjATBgNV
HSUEDDAKBggrBgEFBQcDAjALBgNVHQ8EBAMCB4AwDQYJKoZIhvcNAQELBQADggIB
AEajzPSfANyzpnX2d27lpDEBuRu8PLHkI+6tQekDL5yHiyhNKnv3G6SVmxnBqB+v
azTLJSw1JcGNN2PdDfEB978SsQd/TbnYBidH4sNIliQTIqQl3KR8SzRBaWjh1y/p
IfG2klXvzlHFREOOhitgQ17KbVxNR9uHvihQ0LPun5SIspSlIkpjn8r2xX9axcN+
U65oBUSAEZCITY+nHte5XnVvCzqhv3U3m5wBUILIwerbDBndQX3GqrkSjdNUk8T2
4Xfdj9jMr3Vj1rZOlVZWAj2HX8wnMuRgdF0PgU4nMkPiiks4HX926f0DmComXBiz
N6eaczelokvze7MkDKZsunHo1OUvcvih8XdW4FGUc3+d+W/ABBJ3ub5SdnaofSHe
TzoVwWkLfxjAWh2krF8cTZIg9ppcijIRUPuFwNl1oX1ND7nF9dKcTC1Rqkp1j5Yq
Eq6hJPM/nADgGOtTSN8XgI7IZNxlN2g1IDfeypay/vnM21dpyV2TOyt4qYuUdF6Q
ylZ9XMedcHjdUGTzyMi15Nozv8qTHNMqCDoiqmmr4cYy2XedqUbolr+EEpFa9NlI
0jP5i/8IMONx8IEj6N9taJLJFYBJFmr5v11RGZEpQaHzIiEKJvhWGE7O6cQ74Upx
Qjw9JE37DUtkmZvzg4osN3BC/8SKqktnPX27t1jcXLCu
-----END CERTIFICATE-----
