Certificate:
    Data:
        Version: 3 (0x2)
        Serial Number: 13004 (0x32cc)
    Signature Algorithm: sha256WithRSAEncryption
        Issuer: C=US, ST=OH, L=Columbus, O=VikingVPN, OU=MyOrganizationalUnit, CN=VikingVPN CA/name=EasyRSA/emailAddress=me@myhost.mydomain
        Validity
            Not Before: Apr 20 14:38:24 2018 GMT
            Not After : Apr 17 14:38:24 2028 GMT
        Subject: CN=Client3256Certce56e2
        Subject Public Key Info:
            Public Key Algorithm: rsaEncryption
                Public-Key: (4096 bit)
                Modulus:
                    00:c9:2e:a1:8a:da:41:9c:98:b5:9e:d7:95:6d:85:
                    be:a9:b4:c5:65:e4:ba:67:85:35:2d:93:d8:cd:ac:
                    cb:98:87:fb:e2:c2:d2:44:af:1e:15:c9:70:70:a7:
                    17:b0:25:f1:30:c6:ed:be:b5:f9:a1:d3:bb:e5:78:
                    73:0d:08:4b:79:42:b3:3f:98:47:a5:35:78:61:a3:
                    27:ef:6d:c5:97:7b:d6:ef:42:3a:6f:70:50:9f:e3:
                    e7:89:53:51:b6:9e:29:b0:0f:b1:85:55:5e:40:bd:
                    fa:36:a5:75:51:04:61:9b:2e:c5:1a:74:b2:ad:08:
                    32:48:ed:e2:15:53:2a:30:c0:e6:64:49:09:62:20:
                    26:df:41:3f:cd:08:f4:9c:28:9d:7f:6e:65:30:2e:
                    5e:6a:80:e3:2f:70:4c:f2:f8:d3:a5:5a:89:db:c3:
                    e8:31:8a:a0:16:b2:e0:7c:cb:4f:a8:26:50:d7:62:
                    e0:c7:e6:b9:30:e7:af:45:ba:f0:2e:85:69:0f:e2:
                    b2:31:26:b2:1a:30:64:b6:a4:7f:00:ac:9e:5b:e0:
                    8f:56:3e:ab:bb:ea:2d:cc:c9:f8:4f:50:23:52:0d:
                    16:69:29:44:05:6c:f5:08:91:f6:00:2f:ba:6f:36:
                    0f:f6:31:34:7a:5b:34:1d:76:7e:7c:73:58:18:d4:
                    0e:35:e4:c1:f2:7f:f7:e1:53:8f:33:10:99:2d:83:
                    c3:8d:4f:cf:ab:2e:6e:14:00:ca:6c:a8:38:a3:84:
                    e9:d8:90:d2:7a:e5:f2:ba:35:c0:52:52:47:d7:19:
                    3b:4f:20:d4:09:8b:10:a9:e9:92:d2:c0:3c:bb:9f:
                    03:93:c2:3a:2c:02:a4:64:1f:ac:e7:a4:45:5a:d7:
                    17:a0:12:2a:44:ed:33:b5:e4:2a:a5:5d:55:f4:83:
                    e7:d5:ef:df:5e:45:3a:38:f6:50:65:cc:8f:c0:89:
                    ca:4e:ee:0e:74:56:91:a3:fb:8b:1a:5c:47:8e:d0:
                    cc:cd:1e:f6:ae:d1:f8:17:6a:ba:81:2e:94:c8:90:
                    c4:a8:8c:74:fd:6f:db:70:a8:77:3f:5d:12:96:b8:
                    0d:e3:ac:bc:07:84:e8:08:96:42:bf:65:72:e9:2a:
                    3f:3c:37:78:96:62:93:4a:37:7c:1b:a9:38:0a:60:
                    e5:7f:36:67:2c:17:71:31:08:b4:d3:4a:d0:8f:7a:
                    47:d9:94:96:aa:61:03:20:24:bc:0a:29:a4:c3:42:
                    2d:3f:fd:a4:f3:a9:f0:b9:e4:0b:dc:c1:6e:e9:51:
                    69:a7:83:33:2a:2e:88:ac:7b:b3:18:79:af:2b:20:
                    62:2e:f4:92:09:4b:f0:f8:31:e4:23:02:dd:61:3d:
                    31:99:fb
                Exponent: 65537 (0x10001)
        X509v3 extensions:
            X509v3 Basic Constraints: 
                CA:FALSE
            Netscape Comment: 
                Easy-RSA Generated Certificate
            X509v3 Subject Key Identifier: 
                81:85:10:27:DF:CA:6C:83:B3:49:30:87:5F:5A:79:57:56:86:29:88
            X509v3 Authority Key Identifier: 
                keyid:12:CD:60:04:D2:A0:80:9E:70:ED:C6:99:B8:7B:2C:C6:52:FD:19:A1
                DirName:/C=US/ST=OH/L=Columbus/O=VikingVPN/OU=MyOrganizationalUnit/CN=VikingVPN CA/name=EasyRSA/emailAddress=me@myhost.mydomain
                serial:CF:35:85:EE:80:BF:2A:3E

            X509v3 Extended Key Usage: 
                TLS Web Client Authentication
            X509v3 Key Usage: 
                Digital Signature
    Signature Algorithm: sha256WithRSAEncryption
         ce:23:4a:2d:e6:fc:e4:72:a0:ac:3a:c2:17:3c:da:d4:14:4f:
         9c:96:a4:3f:e0:bb:65:6e:ed:31:b1:fb:53:c6:0a:b4:45:d6:
         d4:49:d9:69:6e:12:d1:4b:74:1a:14:b3:d7:ea:29:3d:25:82:
         75:88:03:9d:00:17:a8:5c:28:fe:dc:79:12:bd:e1:59:66:c2:
         a4:4d:cf:63:fd:6f:87:d3:62:5a:44:33:5e:b7:02:55:b6:5a:
         6b:fa:18:07:92:46:1a:dd:ff:d9:ca:0c:aa:ad:73:aa:39:68:
         ce:53:f7:b5:b4:5e:2c:63:4d:9d:4c:9b:77:5d:94:4f:90:ca:
         ab:de:2c:10:6b:27:f8:2e:91:c3:11:60:ea:26:5e:3d:e3:e5:
         f9:cc:87:68:5a:68:1c:4b:f1:8d:e6:ff:3c:85:a9:2f:e5:4f:
         7d:3f:c6:28:4a:4c:93:de:1a:c7:6c:44:5d:4e:12:c7:7e:b9:
         4d:94:55:f7:3f:70:31:de:2c:8e:b2:b8:61:71:4b:6b:08:27:
         2b:3b:25:f4:ad:9c:b1:dd:79:85:16:43:b6:9e:54:d6:b9:01:
         b6:32:6a:ce:7b:72:29:74:06:75:3f:49:bd:40:b0:18:a7:cb:
         cd:2a:48:60:82:dc:9f:fa:2a:14:5d:32:33:06:66:8e:69:4d:
         68:de:be:b3:44:1f:0e:fe:01:7e:b5:60:30:f6:4a:f7:12:4b:
         75:82:75:15:49:74:06:14:b7:2d:92:10:99:99:93:a9:77:1f:
         38:b2:88:fe:f2:6a:e2:0d:ec:06:45:f3:1c:8c:b7:e7:4a:10:
         ef:47:ac:d1:5b:bc:fe:d3:40:06:07:b0:15:fa:9a:57:bf:f8:
         52:f6:b0:41:8e:40:0c:c1:ff:f0:37:8f:7f:85:f2:d1:39:32:
         e5:3e:c7:88:d6:26:75:ce:09:ea:bb:fa:1a:9d:2f:e0:7c:d3:
         97:5b:67:01:91:52:9b:7c:82:43:9f:6d:4f:24:ba:03:11:4e:
         25:53:fd:be:0c:da:f1:16:81:b1:48:9c:a6:72:ff:9e:33:45:
         e1:61:c2:66:8c:ff:84:62:3d:cc:c3:f0:90:c6:fd:2a:5a:f6:
         3b:d4:79:e3:a6:29:7a:ae:90:14:77:15:0a:16:ec:2a:d0:d7:
         ac:e9:84:21:cb:cc:bd:43:a2:8d:2c:93:b2:c5:6c:6f:05:a8:
         04:c1:e0:05:a7:e9:c6:37:a6:56:4f:4a:25:fc:54:8b:21:bc:
         0b:af:39:45:c5:29:b5:3a:ef:07:cd:94:8a:82:05:1a:86:1d:
         c9:4f:30:1b:30:84:73:56:7a:a7:cb:7b:35:9a:c6:92:0c:58:
         e8:36:4e:04:16:b5:53:ad
-----BEGIN CERTIFICATE-----
MIIGrTCCBJWgAwIBAgICMswwDQYJKoZIhvcNAQELBQAwgawxCzAJBgNVBAYTAlVT
MQswCQYDVQQIEwJPSDERMA8GA1UEBxMIQ29sdW1idXMxEjAQBgNVBAoTCVZpa2lu
Z1ZQTjEdMBsGA1UECxMUTXlPcmdhbml6YXRpb25hbFVuaXQxFTATBgNVBAMTDFZp
a2luZ1ZQTiBDQTEQMA4GA1UEKRMHRWFzeVJTQTEhMB8GCSqGSIb3DQEJARYSbWVA
bXlob3N0Lm15ZG9tYWluMB4XDTE4MDQyMDE0MzgyNFoXDTI4MDQxNzE0MzgyNFow
HzEdMBsGA1UEAxMUQ2xpZW50MzI1NkNlcnRjZTU2ZTIwggIiMA0GCSqGSIb3DQEB
AQUAA4ICDwAwggIKAoICAQDJLqGK2kGcmLWe15Vthb6ptMVl5LpnhTUtk9jNrMuY
h/viwtJErx4VyXBwpxewJfEwxu2+tfmh07vleHMNCEt5QrM/mEelNXhhoyfvbcWX
e9bvQjpvcFCf4+eJU1G2nimwD7GFVV5Avfo2pXVRBGGbLsUadLKtCDJI7eIVUyow
wOZkSQliICbfQT/NCPScKJ1/bmUwLl5qgOMvcEzy+NOlWonbw+gxiqAWsuB8y0+o
JlDXYuDH5rkw569FuvAuhWkP4rIxJrIaMGS2pH8ArJ5b4I9WPqu76i3MyfhPUCNS
DRZpKUQFbPUIkfYAL7pvNg/2MTR6WzQddn58c1gY1A415MHyf/fhU48zEJktg8ON
T8+rLm4UAMpsqDijhOnYkNJ65fK6NcBSUkfXGTtPINQJixCp6ZLSwDy7nwOTwjos
AqRkH6znpEVa1xegEipE7TO15CqlXVX0g+fV799eRTo49lBlzI/AicpO7g50VpGj
+4saXEeO0MzNHvau0fgXarqBLpTIkMSojHT9b9twqHc/XRKWuA3jrLwHhOgIlkK/
ZXLpKj88N3iWYpNKN3wbqTgKYOV/NmcsF3ExCLTTStCPekfZlJaqYQMgJLwKKaTD
Qi0//aTzqfC55AvcwW7pUWmngzMqLoise7MYea8rIGIu9JIJS/D4MeQjAt1hPTGZ
+wIDAQABo4IBYzCCAV8wCQYDVR0TBAIwADAtBglghkgBhvhCAQ0EIBYeRWFzeS1S
U0EgR2VuZXJhdGVkIENlcnRpZmljYXRlMB0GA1UdDgQWBBSBhRAn38psg7NJMIdf
WnlXVoYpiDCB4QYDVR0jBIHZMIHWgBQSzWAE0qCAnnDtxpm4eyzGUv0ZoaGBsqSB
rzCBrDELMAkGA1UEBhMCVVMxCzAJBgNVBAgTAk9IMREwDwYDVQQHEwhDb2x1bWJ1
czESMBAGA1UEChMJVmlraW5nVlBOMR0wGwYDVQQLExRNeU9yZ2FuaXphdGlvbmFs
VW5pdDEVMBMGA1UEAxMMVmlraW5nVlBOIENBMRAwDgYDVQQpEwdFYXN5UlNBMSEw
HwYJKoZIhvcNAQkBFhJtZUBteWhvc3QubXlkb21haW6CCQDPNYXugL8qPjATBgNV
HSUEDDAKBggrBgEFBQcDAjALBgNVHQ8EBAMCB4AwDQYJKoZIhvcNAQELBQADggIB
AM4jSi3m/ORyoKw6whc82tQUT5yWpD/gu2Vu7TGx+1PGCrRF1tRJ2WluEtFLdBoU
s9fqKT0lgnWIA50AF6hcKP7ceRK94VlmwqRNz2P9b4fTYlpEM163AlW2Wmv6GAeS
Rhrd/9nKDKqtc6o5aM5T97W0XixjTZ1Mm3ddlE+QyqveLBBrJ/gukcMRYOomXj3j
5fnMh2haaBxL8Y3m/zyFqS/lT30/xihKTJPeGsdsRF1OEsd+uU2UVfc/cDHeLI6y
uGFxS2sIJys7JfStnLHdeYUWQ7aeVNa5AbYyas57cil0BnU/Sb1AsBiny80qSGCC
3J/6KhRdMjMGZo5pTWjevrNEHw7+AX61YDD2SvcSS3WCdRVJdAYUty2SEJmZk6l3
HziyiP7yauIN7AZF8xyMt+dKEO9HrNFbvP7TQAYHsBX6mle/+FL2sEGOQAzB//A3
j3+F8tE5MuU+x4jWJnXOCeq7+hqdL+B805dbZwGRUpt8gkOfbU8kugMRTiVT/b4M
2vEWgbFInKZy/54zReFhwmaM/4RiPczD8JDG/Spa9jvUeeOmKXqukBR3FQoW7CrQ
16zphCHLzL1Doo0sk7LFbG8FqATB4AWn6cY3plZPSiX8VIshvAuvOUXFKbU67wfN
lIqCBRqGHclPMBswhHNWeqfLezWaxpIMWOg2TgQWtVOt
-----END CERTIFICATE-----
