Certificate:
    Data:
        Version: 3 (0x2)
        Serial Number: 2582 (0xa16)
    Signature Algorithm: md5WithRSAEncryption
        Issuer: C=US, ST=OH, L=Columbus, O=VikingVPN, OU=MyOrganizationalUnit, CN=VikingVPN CA/name=EasyRSA/emailAddress=me@myhost.mydomain
        Validity
            Not Before: Aug 15 00:44:33 2014 GMT
            Not After : Aug 12 00:44:33 2024 GMT
        Subject: CN=Client891Certd0fbd4
        Subject Public Key Info:
            Public Key Algorithm: rsaEncryption
                Public-Key: (4096 bit)
                Modulus:
                    00:98:f0:70:83:1b:04:6b:78:f0:a3:90:f9:98:86:
                    86:fd:e4:91:f4:43:c9:89:6a:dd:d1:2c:84:dc:66:
                    6b:0f:2a:c2:df:e9:af:e3:f1:10:e9:28:f5:c1:9f:
                    7c:9d:63:ae:35:ab:2d:c3:eb:7f:63:79:7e:bb:1f:
                    d7:15:53:b2:48:92:09:78:bc:d6:e3:81:72:70:43:
                    21:de:02:f9:57:a5:81:07:7b:48:3f:38:c5:d2:81:
                    dc:31:13:4e:da:32:6d:90:bf:a7:d9:43:57:96:03:
                    e3:7d:4f:67:d3:e4:a0:73:93:84:57:3c:75:01:dd:
                    c4:0e:ba:f3:74:b0:ae:58:85:b7:6d:44:00:6c:63:
                    09:75:7a:c6:a5:00:3e:6f:0e:b1:fa:f9:93:0b:e9:
                    98:c6:5e:ca:a5:aa:dd:d2:cb:55:a4:18:a3:91:4b:
                    5b:a9:ca:d7:97:26:74:81:a6:83:2e:c4:dd:0a:a2:
                    d3:ee:f3:27:9a:bf:0a:f7:0b:42:46:74:53:69:0b:
                    be:f6:cf:67:6a:b3:e9:84:8e:76:d9:ce:79:20:de:
                    72:06:68:6e:22:85:a2:5a:97:c3:a1:03:64:bf:73:
                    ab:53:46:2d:fb:e0:02:e0:1f:13:eb:b1:ca:ef:dd:
                    fc:09:12:24:3d:3a:47:60:00:3d:13:32:57:f3:6b:
                    bc:46:20:80:78:d3:62:c0:07:61:e4:5a:81:51:7e:
                    ab:56:c3:1d:ea:f1:5e:30:54:ee:4d:a5:bc:b5:30:
                    73:0e:e3:bf:4b:f1:22:58:98:55:c8:49:50:d6:46:
                    a8:00:a6:d6:4c:aa:3b:8c:30:c3:39:33:66:e2:92:
                    60:ad:dc:79:7e:87:90:d1:3e:f2:c2:e1:b0:f2:34:
                    91:03:14:a7:c4:a9:92:67:87:0f:f2:9b:a6:8d:85:
                    76:a4:38:69:fe:13:22:ec:a0:a0:03:b6:42:47:af:
                    45:87:f5:b7:f2:85:b5:74:fa:4b:7a:ca:d1:a8:31:
                    59:c2:08:60:ea:9b:76:fb:5f:9a:3d:13:e8:78:5a:
                    63:2b:ed:7f:50:92:c6:df:f9:9c:75:b4:5e:47:2b:
                    06:20:dc:a5:dc:c6:ef:d5:2b:58:24:be:c3:aa:db:
                    70:4c:9f:43:c1:53:72:01:51:54:e7:17:e7:41:12:
                    d2:c7:b4:b5:38:d0:16:f7:70:02:62:1f:2f:4c:2c:
                    c0:b6:32:d5:33:26:1c:d0:aa:ab:77:87:43:86:41:
                    a9:9f:65:26:26:be:09:bb:0f:b9:02:cf:5a:f9:c2:
                    4e:ff:65:13:12:82:0f:f9:a9:c8:f6:4c:aa:4e:df:
                    b8:b1:94:a7:05:9e:fd:20:00:b1:67:e8:1c:7e:27:
                    86:e5:1d
                Exponent: 65537 (0x10001)
        X509v3 extensions:
            X509v3 Basic Constraints: 
                CA:FALSE
            Netscape Comment: 
                Easy-RSA Generated Certificate
            X509v3 Subject Key Identifier: 
                CB:4A:CB:59:88:BB:10:F9:35:8F:4D:C4:EE:C9:A0:B7:B2:F9:1C:97
            X509v3 Authority Key Identifier: 
                keyid:12:CD:60:04:D2:A0:80:9E:70:ED:C6:99:B8:7B:2C:C6:52:FD:19:A1
                DirName:/C=US/ST=OH/L=Columbus/O=VikingVPN/OU=MyOrganizationalUnit/CN=VikingVPN CA/name=EasyRSA/emailAddress=me@myhost.mydomain
                serial:CF:35:85:EE:80:BF:2A:3E

            X509v3 Extended Key Usage: 
                TLS Web Client Authentication
            X509v3 Key Usage: 
                Digital Signature
    Signature Algorithm: md5WithRSAEncryption
         cd:54:f8:9c:4c:9a:b5:43:74:7c:b7:50:52:a7:da:b8:27:cc:
         94:05:4c:0e:92:5f:6a:f7:87:a6:b1:b7:7d:88:03:be:f1:8e:
         00:7a:fc:fe:06:a8:11:d6:27:21:2c:0a:f0:95:62:54:ac:11:
         9d:47:3e:98:6b:be:9b:eb:b9:88:e7:fd:75:a5:d1:a7:6f:12:
         12:0e:c1:e2:b7:f6:a9:96:11:43:2f:e1:db:d3:b4:be:3c:b8:
         bf:47:fd:5d:05:3f:f8:7a:4f:5c:15:b5:9d:bc:2f:37:68:77:
         ba:b9:b9:74:f4:0c:77:93:72:61:a9:ed:79:19:86:c1:8e:5d:
         fa:68:99:4f:56:f4:0e:a9:e4:69:7b:90:6d:e8:ab:e9:61:39:
         2f:2e:e2:dc:e3:2f:ed:47:05:ce:c3:79:5a:f5:1e:fa:1a:c9:
         33:3e:f3:e1:9f:e3:d2:c0:7a:9a:53:21:20:2f:04:53:45:1c:
         72:8e:b0:93:63:5a:93:69:02:61:7e:9e:ef:06:b6:4d:d0:d0:
         7c:e5:6b:d1:0e:aa:24:55:a6:1c:b3:24:4a:b5:56:f6:53:ac:
         c9:ae:81:1a:92:04:09:aa:e8:90:ef:f0:eb:f5:71:70:39:ab:
         10:f6:41:2d:6b:63:30:56:91:69:aa:9c:29:97:83:1f:f9:a2:
         74:43:6c:63:46:36:8d:f0:36:f9:fa:87:8f:35:bb:7d:65:f9:
         05:dc:98:c4:0c:39:8a:a9:fa:ca:35:02:ad:6e:1b:35:3b:49:
         a8:db:6b:1a:a3:1f:c8:4b:92:b3:03:6d:90:55:2c:1b:15:8a:
         00:00:67:e2:37:f1:82:7d:4b:63:68:36:4b:51:56:2e:ea:94:
         c5:31:13:65:c1:c0:aa:e1:ee:3f:c3:18:26:2f:82:8f:25:cb:
         f0:e2:44:ec:e1:6c:38:57:eb:5d:ae:91:9c:a1:35:75:a9:88:
         28:d7:37:bc:7f:d1:92:59:bc:d5:f4:a9:9e:e3:17:d7:79:9e:
         4b:ec:54:41:e2:a7:36:7f:d8:0b:ab:66:0f:a8:5b:53:bb:59:
         88:a1:59:5e:b4:d7:7e:d1:b3:af:4f:ff:02:86:f9:74:84:8e:
         b9:ea:ce:21:a6:e3:13:a1:d0:ad:90:6e:25:fa:7e:37:2d:f5:
         dc:a6:a0:9f:e3:29:6d:51:e4:7f:97:2e:91:76:cb:6e:0f:fd:
         ca:31:eb:97:f8:93:94:54:95:ce:ae:b5:82:a6:04:40:77:12:
         db:36:06:8c:5c:a7:68:e7:ec:1a:9d:56:5b:f1:ac:a8:6a:58:
         97:28:27:f4:f6:56:12:e9:0d:4e:c9:03:a4:26:92:a4:70:a3:
         a3:43:2a:76:95:a2:fd:16
-----BEGIN CERTIFICATE-----
MIIGrDCCBJSgAwIBAgICChYwDQYJKoZIhvcNAQEEBQAwgawxCzAJBgNVBAYTAlVT
MQswCQYDVQQIEwJPSDERMA8GA1UEBxMIQ29sdW1idXMxEjAQBgNVBAoTCVZpa2lu
Z1ZQTjEdMBsGA1UECxMUTXlPcmdhbml6YXRpb25hbFVuaXQxFTATBgNVBAMTDFZp
a2luZ1ZQTiBDQTEQMA4GA1UEKRMHRWFzeVJTQTEhMB8GCSqGSIb3DQEJARYSbWVA
bXlob3N0Lm15ZG9tYWluMB4XDTE0MDgxNTAwNDQzM1oXDTI0MDgxMjAwNDQzM1ow
HjEcMBoGA1UEAxMTQ2xpZW50ODkxQ2VydGQwZmJkNDCCAiIwDQYJKoZIhvcNAQEB
BQADggIPADCCAgoCggIBAJjwcIMbBGt48KOQ+ZiGhv3kkfRDyYlq3dEshNxmaw8q
wt/pr+PxEOko9cGffJ1jrjWrLcPrf2N5frsf1xVTskiSCXi81uOBcnBDId4C+Vel
gQd7SD84xdKB3DETTtoybZC/p9lDV5YD431PZ9PkoHOThFc8dQHdxA6683SwrliF
t21EAGxjCXV6xqUAPm8Osfr5kwvpmMZeyqWq3dLLVaQYo5FLW6nK15cmdIGmgy7E
3Qqi0+7zJ5q/CvcLQkZ0U2kLvvbPZ2qz6YSOdtnOeSDecgZobiKFolqXw6EDZL9z
q1NGLfvgAuAfE+uxyu/d/AkSJD06R2AAPRMyV/NrvEYggHjTYsAHYeRagVF+q1bD
HerxXjBU7k2lvLUwcw7jv0vxIliYVchJUNZGqACm1kyqO4wwwzkzZuKSYK3ceX6H
kNE+8sLhsPI0kQMUp8SpkmeHD/Kbpo2FdqQ4af4TIuygoAO2QkevRYf1t/KFtXT6
S3rK0agxWcIIYOqbdvtfmj0T6HhaYyvtf1CSxt/5nHW0XkcrBiDcpdzG79UrWCS+
w6rbcEyfQ8FTcgFRVOcX50ES0se0tTjQFvdwAmIfL0wswLYy1TMmHNCqq3eHQ4ZB
qZ9lJia+CbsPuQLPWvnCTv9lExKCD/mpyPZMqk7fuLGUpwWe/SAAsWfoHH4nhuUd
AgMBAAGjggFjMIIBXzAJBgNVHRMEAjAAMC0GCWCGSAGG+EIBDQQgFh5FYXN5LVJT
QSBHZW5lcmF0ZWQgQ2VydGlmaWNhdGUwHQYDVR0OBBYEFMtKy1mIuxD5NY9NxO7J
oLey+RyXMIHhBgNVHSMEgdkwgdaAFBLNYATSoICecO3Gmbh7LMZS/RmhoYGypIGv
MIGsMQswCQYDVQQGEwJVUzELMAkGA1UECBMCT0gxETAPBgNVBAcTCENvbHVtYnVz
MRIwEAYDVQQKEwlWaWtpbmdWUE4xHTAbBgNVBAsTFE15T3JnYW5pemF0aW9uYWxV
bml0MRUwEwYDVQQDEwxWaWtpbmdWUE4gQ0ExEDAOBgNVBCkTB0Vhc3lSU0ExITAf
BgkqhkiG9w0BCQEWEm1lQG15aG9zdC5teWRvbWFpboIJAM81he6Avyo+MBMGA1Ud
JQQMMAoGCCsGAQUFBwMCMAsGA1UdDwQEAwIHgDANBgkqhkiG9w0BAQQFAAOCAgEA
zVT4nEyatUN0fLdQUqfauCfMlAVMDpJfaveHprG3fYgDvvGOAHr8/gaoEdYnISwK
8JViVKwRnUc+mGu+m+u5iOf9daXRp28SEg7B4rf2qZYRQy/h29O0vjy4v0f9XQU/
+HpPXBW1nbwvN2h3urm5dPQMd5NyYanteRmGwY5d+miZT1b0DqnkaXuQbeir6WE5
Ly7i3OMv7UcFzsN5WvUe+hrJMz7z4Z/j0sB6mlMhIC8EU0Ucco6wk2Nak2kCYX6e
7wa2TdDQfOVr0Q6qJFWmHLMkSrVW9lOsya6BGpIECarokO/w6/VxcDmrEPZBLWtj
MFaRaaqcKZeDH/midENsY0Y2jfA2+fqHjzW7fWX5BdyYxAw5iqn6yjUCrW4bNTtJ
qNtrGqMfyEuSswNtkFUsGxWKAABn4jfxgn1LY2g2S1FWLuqUxTETZcHAquHuP8MY
Ji+CjyXL8OJE7OFsOFfrXa6RnKE1damIKNc3vH/Rklm81fSpnuMX13meS+xUQeKn
Nn/YC6tmD6hbU7tZiKFZXrTXftGzr0//Aob5dISOuerOIabjE6HQrZBuJfp+Ny31
3Kagn+MpbVHkf5cukXbLbg/9yjHrl/iTlFSVzq61gqYEQHcS2zYGjFynaOfsGp1W
W/GsqGpYlygn9PZWEukNTskDpCaSpHCjo0MqdpWi/RY=
-----END CERTIFICATE-----
