Certificate:
    Data:
        Version: 3 (0x2)
        Serial Number: 5925 (0x1725)
    Signature Algorithm: md5WithRSAEncryption
        Issuer: C=US, ST=OH, L=Columbus, O=VikingVPN, OU=MyOrganizationalUnit, CN=VikingVPN CA/name=EasyRSA/emailAddress=me@myhost.mydomain
        Validity
            Not Before: Jul 27 00:38:00 2015 GMT
            Not After : Jul 24 00:38:00 2025 GMT
        Subject: CN=Client3Cert65a723
        Subject Public Key Info:
            Public Key Algorithm: rsaEncryption
                Public-Key: (4096 bit)
                Modulus:
                    00:d7:28:09:1d:9a:6e:e3:0c:ec:dd:36:dd:ad:0c:
                    08:f7:31:e9:c1:25:da:e8:38:2b:7e:af:7a:62:5a:
                    3b:7f:f9:f8:e5:3d:c4:35:87:01:02:13:e2:0e:73:
                    fd:cc:ec:6d:c7:62:53:f9:64:00:48:b6:37:c8:5d:
                    a5:b2:2c:a8:c5:08:18:ec:3f:78:3b:a9:63:56:d3:
                    d4:84:67:cf:b0:43:75:52:ae:8d:28:2f:c2:42:dc:
                    d5:73:fa:e4:30:b8:8e:04:69:9c:8b:ed:9b:c6:25:
                    3f:a2:90:24:f8:fe:c5:13:93:49:04:0d:6f:65:43:
                    b7:d0:44:ad:2f:d4:6e:ba:df:45:e6:f9:48:a4:68:
                    0f:92:66:14:ea:8b:4f:ac:73:46:db:d5:b9:23:26:
                    06:92:1c:f9:b8:83:a2:5e:8b:7c:38:a8:5d:87:63:
                    f3:25:9c:e8:6a:b5:a7:d3:f3:1e:16:cf:1f:bb:46:
                    c7:4f:bb:04:d8:8c:af:73:31:93:c4:fb:7b:8a:56:
                    9d:1a:dd:0d:09:d7:ad:7c:e7:a1:11:5f:e4:ca:fe:
                    d3:a5:14:c3:d1:0c:b9:45:1d:12:af:6b:79:59:9f:
                    63:d4:f4:ae:ea:66:c6:7a:cd:56:ad:98:37:bc:3e:
                    fd:bb:96:eb:d1:ed:fa:c3:09:96:b7:0c:46:b6:56:
                    f5:21:34:e3:06:94:53:d9:c1:25:6e:7d:de:c3:14:
                    4e:97:6c:4d:60:9a:da:d4:30:d1:19:7c:4e:a4:96:
                    6f:26:56:10:46:49:54:e9:b6:68:83:5a:10:de:29:
                    75:6c:f4:ad:fb:9f:f1:c7:df:50:11:f6:f6:f2:b9:
                    dd:17:f7:8c:44:38:4a:30:69:50:07:a5:ea:06:78:
                    50:5b:5c:0c:f3:8f:9f:0a:b5:e0:3c:23:2f:1d:02:
                    ba:df:76:7c:65:6d:7d:9f:d7:b0:a8:53:67:f3:6b:
                    16:67:e4:11:c2:23:41:09:74:ab:92:5c:dc:95:16:
                    ba:02:44:06:2c:00:e3:a8:15:fe:c4:e2:ff:87:e6:
                    dc:0a:bd:03:1b:0f:67:a6:59:fd:e4:18:1c:85:fa:
                    93:fc:c2:78:33:be:f1:4b:df:15:92:32:d9:32:d3:
                    7c:b4:31:7c:12:50:1a:e0:3a:77:85:3f:ea:5d:7a:
                    12:ff:09:ad:8c:fb:e0:89:4c:17:8a:f0:02:ae:2a:
                    c2:30:97:22:f5:8b:ef:cc:29:c0:c2:0c:98:19:2c:
                    41:14:83:2b:f1:52:cf:5b:48:03:9f:91:41:ab:90:
                    24:42:91:c5:17:ec:a9:c8:44:f0:d8:37:9b:ff:a6:
                    e3:59:66:48:fb:96:bf:31:cb:fa:55:2c:c9:5d:59:
                    b7:72:3f
                Exponent: 65537 (0x10001)
        X509v3 extensions:
            X509v3 Basic Constraints: 
                CA:FALSE
            Netscape Comment: 
                Easy-RSA Generated Certificate
            X509v3 Subject Key Identifier: 
                70:59:08:81:D9:AF:BC:92:CF:46:24:76:71:4E:56:D6:1C:98:AF:D9
            X509v3 Authority Key Identifier: 
                keyid:12:CD:60:04:D2:A0:80:9E:70:ED:C6:99:B8:7B:2C:C6:52:FD:19:A1
                DirName:/C=US/ST=OH/L=Columbus/O=VikingVPN/OU=MyOrganizationalUnit/CN=VikingVPN CA/name=EasyRSA/emailAddress=me@myhost.mydomain
                serial:CF:35:85:EE:80:BF:2A:3E

            X509v3 Extended Key Usage: 
                TLS Web Client Authentication
            X509v3 Key Usage: 
                Digital Signature
    Signature Algorithm: md5WithRSAEncryption
         85:58:2d:c9:04:d3:bc:b7:57:5b:35:0c:94:a1:08:40:53:13:
         1c:87:e7:49:0d:7d:94:a1:72:c3:55:2b:9a:6c:da:b3:cf:0b:
         ea:d0:69:39:34:df:70:da:49:a8:17:5b:77:fe:3a:52:c4:b7:
         21:e3:3d:c3:56:eb:64:13:49:1b:84:b3:ba:86:3b:31:d3:15:
         71:29:2b:7f:96:35:77:b9:68:a9:c2:4f:47:06:f8:57:73:e2:
         f7:9b:78:3d:f8:6f:57:46:62:ce:ea:1e:14:c0:bc:f7:6d:d7:
         49:73:59:a9:fa:c6:bf:24:ce:d8:c0:14:c8:c1:66:c6:ee:5b:
         e1:14:cc:f7:5d:87:e6:ce:15:76:3e:03:04:e3:15:73:d0:71:
         57:84:8b:8d:a9:ed:11:10:56:2f:89:5d:40:50:84:6a:19:03:
         5f:a3:b7:0a:fa:20:f9:6f:f6:64:13:5e:eb:7a:69:66:c4:6c:
         90:39:a5:56:fc:9f:65:66:f7:07:2e:73:b0:47:87:0d:13:4c:
         3b:42:9f:66:89:58:5e:99:af:c6:6f:67:61:08:8f:51:09:c0:
         06:bc:df:5c:35:a0:5e:59:c9:c4:40:f7:4f:d5:30:f7:81:bb:
         15:69:a6:c8:b9:1c:86:7d:30:f7:37:4d:68:38:e3:43:5e:d3:
         3d:7c:be:6a:a5:b3:bc:dd:a3:9d:54:fb:e3:20:23:f0:81:b2:
         9b:a3:28:55:64:38:6e:d9:70:5e:59:f7:cd:7a:9a:e9:16:0d:
         a4:ce:f3:f9:42:08:56:1c:fd:d2:e7:0a:e7:52:64:4d:c4:5f:
         25:3f:85:2a:c7:ac:00:31:3f:19:3f:8e:a1:ca:28:41:6e:a0:
         32:01:62:2a:d8:46:4c:65:ee:7f:49:fb:22:1b:49:2f:0c:a5:
         ad:4d:be:88:03:a1:9a:00:35:70:cf:1b:b1:d6:3f:b5:72:b4:
         c8:42:5c:cd:63:92:b1:64:d0:d2:55:44:97:0b:6c:31:10:11:
         44:ef:7e:e1:3e:18:42:7b:6e:df:65:d7:25:b6:44:39:dd:0e:
         3b:03:e3:c4:b5:8f:d1:b8:35:04:63:d2:8d:b7:0c:57:25:57:
         b1:5d:ba:a4:0c:71:b3:d7:c7:80:3c:4c:98:5f:a7:5d:af:6c:
         2d:f7:e8:89:0f:10:1f:d8:e7:d6:c4:1b:9b:be:7b:b2:fd:77:
         43:d0:00:97:bb:cd:5c:b9:f6:1c:24:d4:b4:ed:d2:c1:ba:f2:
         97:0b:82:ca:b2:d7:12:22:38:d8:1f:c0:b9:25:f9:33:d5:e8:
         04:91:79:da:3a:f3:2d:a3:f0:40:b5:01:19:ef:1c:29:37:ef:
         17:68:c6:49:24:81:6a:ca
-----BEGIN CERTIFICATE-----
MIIGqjCCBJKgAwIBAgICFyUwDQYJKoZIhvcNAQEEBQAwgawxCzAJBgNVBAYTAlVT
MQswCQYDVQQIEwJPSDERMA8GA1UEBxMIQ29sdW1idXMxEjAQBgNVBAoTCVZpa2lu
Z1ZQTjEdMBsGA1UECxMUTXlPcmdhbml6YXRpb25hbFVuaXQxFTATBgNVBAMTDFZp
a2luZ1ZQTiBDQTEQMA4GA1UEKRMHRWFzeVJTQTEhMB8GCSqGSIb3DQEJARYSbWVA
bXlob3N0Lm15ZG9tYWluMB4XDTE1MDcyNzAwMzgwMFoXDTI1MDcyNDAwMzgwMFow
HDEaMBgGA1UEAxMRQ2xpZW50M0NlcnQ2NWE3MjMwggIiMA0GCSqGSIb3DQEBAQUA
A4ICDwAwggIKAoICAQDXKAkdmm7jDOzdNt2tDAj3MenBJdroOCt+r3piWjt/+fjl
PcQ1hwECE+IOc/3M7G3HYlP5ZABItjfIXaWyLKjFCBjsP3g7qWNW09SEZ8+wQ3VS
ro0oL8JC3NVz+uQwuI4EaZyL7ZvGJT+ikCT4/sUTk0kEDW9lQ7fQRK0v1G6630Xm
+UikaA+SZhTqi0+sc0bb1bkjJgaSHPm4g6Jei3w4qF2HY/MlnOhqtafT8x4Wzx+7
RsdPuwTYjK9zMZPE+3uKVp0a3Q0J161856ERX+TK/tOlFMPRDLlFHRKva3lZn2PU
9K7qZsZ6zVatmDe8Pv27luvR7frDCZa3DEa2VvUhNOMGlFPZwSVufd7DFE6XbE1g
mtrUMNEZfE6klm8mVhBGSVTptmiDWhDeKXVs9K37n/HH31AR9vbyud0X94xEOEow
aVAHpeoGeFBbXAzzj58KteA8Iy8dArrfdnxlbX2f17CoU2fzaxZn5BHCI0EJdKuS
XNyVFroCRAYsAOOoFf7E4v+H5twKvQMbD2emWf3kGByF+pP8wngzvvFL3xWSMtky
03y0MXwSUBrgOneFP+pdehL/Ca2M++CJTBeK8AKuKsIwlyL1i+/MKcDCDJgZLEEU
gyvxUs9bSAOfkUGrkCRCkcUX7KnIRPDYN5v/puNZZkj7lr8xy/pVLMldWbdyPwID
AQABo4IBYzCCAV8wCQYDVR0TBAIwADAtBglghkgBhvhCAQ0EIBYeRWFzeS1SU0Eg
R2VuZXJhdGVkIENlcnRpZmljYXRlMB0GA1UdDgQWBBRwWQiB2a+8ks9GJHZxTlbW
HJiv2TCB4QYDVR0jBIHZMIHWgBQSzWAE0qCAnnDtxpm4eyzGUv0ZoaGBsqSBrzCB
rDELMAkGA1UEBhMCVVMxCzAJBgNVBAgTAk9IMREwDwYDVQQHEwhDb2x1bWJ1czES
MBAGA1UEChMJVmlraW5nVlBOMR0wGwYDVQQLExRNeU9yZ2FuaXphdGlvbmFsVW5p
dDEVMBMGA1UEAxMMVmlraW5nVlBOIENBMRAwDgYDVQQpEwdFYXN5UlNBMSEwHwYJ
KoZIhvcNAQkBFhJtZUBteWhvc3QubXlkb21haW6CCQDPNYXugL8qPjATBgNVHSUE
DDAKBggrBgEFBQcDAjALBgNVHQ8EBAMCB4AwDQYJKoZIhvcNAQEEBQADggIBAIVY
LckE07y3V1s1DJShCEBTExyH50kNfZShcsNVK5ps2rPPC+rQaTk033DaSagXW3f+
OlLEtyHjPcNW62QTSRuEs7qGOzHTFXEpK3+WNXe5aKnCT0cG+Fdz4vebeD34b1dG
Ys7qHhTAvPdt10lzWan6xr8kztjAFMjBZsbuW+EUzPddh+bOFXY+AwTjFXPQcVeE
i42p7REQVi+JXUBQhGoZA1+jtwr6IPlv9mQTXut6aWbEbJA5pVb8n2Vm9wcuc7BH
hw0TTDtCn2aJWF6Zr8ZvZ2EIj1EJwAa831w1oF5ZycRA90/VMPeBuxVppsi5HIZ9
MPc3TWg440Ne0z18vmqls7zdo51U++MgI/CBspujKFVkOG7ZcF5Z9816mukWDaTO
8/lCCFYc/dLnCudSZE3EXyU/hSrHrAAxPxk/jqHKKEFuoDIBYirYRkxl7n9J+yIb
SS8Mpa1NvogDoZoANXDPG7HWP7VytMhCXM1jkrFk0NJVRJcLbDEQEUTvfuE+GEJ7
bt9l1yW2RDndDjsD48S1j9G4NQRj0o23DFclV7FduqQMcbPXx4A8TJhfp12vbC33
6IkPEB/Y59bEG5u+e7L9d0PQAJe7zVy59hwk1LTt0sG68pcLgsqy1xIiONgfwLkl
+TPV6ASRedo68y2j8EC1ARnvHCk37xdoxkkkgWrK
-----END CERTIFICATE-----
