Certificate:
    Data:
        Version: 3 (0x2)
        Serial Number: 8018 (0x1f52)
    Signature Algorithm: md5WithRSAEncryption
        Issuer: C=US, ST=OH, L=Columbus, O=VikingVPN, OU=MyOrganizationalUnit, CN=VikingVPN CA/name=EasyRSA/emailAddress=me@myhost.mydomain
        Validity
            Not Before: May 21 17:16:10 2016 GMT
            Not After : May 19 17:16:10 2026 GMT
        Subject: CN=Client2205Cert2f3a5b
        Subject Public Key Info:
            Public Key Algorithm: rsaEncryption
                Public-Key: (4096 bit)
                Modulus:
                    00:cb:88:f2:71:5e:74:19:2c:64:56:7d:f3:bc:5e:
                    ff:ce:56:46:3a:9e:b8:f6:f3:0b:d7:8e:3b:c1:f8:
                    26:ea:5c:40:98:5d:68:d9:03:98:8d:70:08:66:f8:
                    75:c6:5b:57:7c:9d:1e:93:7b:13:d4:57:d3:17:98:
                    22:c5:e0:61:0d:aa:67:91:19:41:8a:00:47:83:21:
                    a0:ed:3c:fe:c9:fe:c1:ca:13:a1:b9:6f:48:6c:5d:
                    23:47:1e:4c:1e:62:98:61:3e:12:76:37:84:87:a4:
                    a4:06:57:eb:24:75:7f:80:04:64:ce:30:69:90:dd:
                    c5:25:0e:7b:c9:c3:23:c3:d9:8a:bf:0b:e7:28:70:
                    d9:d9:bd:02:62:59:4a:a1:38:1e:01:7a:6f:d8:66:
                    9e:64:6d:44:4e:fe:b0:af:b7:82:b5:8e:c0:af:2c:
                    c2:f7:74:c3:80:13:00:fd:8b:1a:e3:92:a8:ba:7d:
                    2a:f3:b2:4b:b4:98:7f:2c:5a:3f:fc:c6:fa:cd:c9:
                    8d:47:ed:16:3e:f8:94:9b:1a:e0:ab:62:af:3b:dc:
                    1e:c4:65:5b:ac:21:87:eb:99:d6:3b:7f:cd:95:20:
                    ad:36:b0:13:f5:6d:ad:b9:69:9a:26:e9:25:54:21:
                    e0:87:8e:eb:7a:3e:88:d7:2c:82:18:8f:81:c8:19:
                    a0:d9:68:cc:25:00:61:a4:24:99:a9:85:d9:8e:37:
                    fe:38:29:59:d3:a5:e9:44:b1:3c:d9:10:49:06:c6:
                    a2:96:96:4e:00:23:7a:93:c5:ed:1f:38:98:7f:ef:
                    2b:55:0f:cf:2a:e0:d0:9f:91:ac:29:4e:e1:f0:36:
                    24:19:9e:07:ef:d3:95:24:73:0f:4a:4a:01:9c:d7:
                    98:35:55:24:d3:f9:51:4c:b9:10:57:f5:d8:a7:b8:
                    86:f6:26:c2:f5:67:27:56:cd:3b:92:1f:2e:e5:24:
                    78:4f:0e:b8:68:7c:1b:02:83:a2:e5:66:10:d4:ba:
                    c5:82:d2:9f:6e:01:72:a2:2e:0e:cd:f3:d8:b9:a9:
                    7c:f3:c8:61:bc:de:3a:6f:3a:c7:54:29:27:3b:b1:
                    a9:4d:a5:9d:cf:10:82:b5:86:80:27:bf:5a:b2:e5:
                    b7:a6:54:5e:c1:17:67:46:77:e9:35:5e:f7:90:4a:
                    3b:4c:c8:97:0c:0a:ca:a5:6c:d9:f4:1e:bc:2d:26:
                    28:90:39:ac:9c:ad:ea:79:92:8c:a0:06:d6:a5:f6:
                    13:1f:a5:03:46:92:37:f5:83:7f:e5:83:4d:6d:32:
                    0a:fc:ac:23:05:28:07:87:d4:5b:dd:11:fb:b0:5e:
                    a2:98:86:16:6f:ee:78:df:80:ee:c6:e5:49:9b:6f:
                    f5:ae:df
                Exponent: 65537 (0x10001)
        X509v3 extensions:
            X509v3 Basic Constraints: 
                CA:FALSE
            Netscape Comment: 
                Easy-RSA Generated Certificate
            X509v3 Subject Key Identifier: 
                C1:C5:4A:97:AD:71:DC:6B:04:28:D9:01:98:D1:C1:0E:C3:4E:4E:41
            X509v3 Authority Key Identifier: 
                keyid:12:CD:60:04:D2:A0:80:9E:70:ED:C6:99:B8:7B:2C:C6:52:FD:19:A1
                DirName:/C=US/ST=OH/L=Columbus/O=VikingVPN/OU=MyOrganizationalUnit/CN=VikingVPN CA/name=EasyRSA/emailAddress=me@myhost.mydomain
                serial:CF:35:85:EE:80:BF:2A:3E

            X509v3 Extended Key Usage: 
                TLS Web Client Authentication
            X509v3 Key Usage: 
                Digital Signature
    Signature Algorithm: md5WithRSAEncryption
         34:2c:71:d5:75:8f:89:74:5a:1d:db:f9:d4:27:54:64:60:4d:
         fe:a5:c4:3d:cd:da:5b:2b:4f:73:ca:d2:30:1f:93:07:23:66:
         84:b2:8a:6a:94:ae:e0:65:eb:bc:8d:07:4b:0e:26:6d:ee:30:
         8d:8e:8b:c5:a8:6f:78:b3:83:fb:a2:25:84:b5:ac:06:df:6f:
         ea:21:87:8b:f1:66:6f:21:b7:fb:ce:92:5c:07:cc:1f:d2:1a:
         3e:70:39:6a:fa:a3:f8:49:12:f7:c3:09:f0:ea:53:c0:e2:d8:
         cf:06:86:53:36:4f:62:5d:67:6e:a5:5a:75:78:31:23:80:09:
         68:79:42:c0:0c:a3:45:20:95:36:5b:a5:03:34:b5:f7:51:c1:
         3e:da:cc:49:b7:54:4b:48:fe:08:90:45:58:5f:99:fd:25:e6:
         37:b7:f0:27:66:10:cf:ab:2b:ca:8e:ae:3f:47:01:27:b4:53:
         57:f4:49:14:28:17:02:09:75:59:01:06:fa:3c:43:a1:a1:3c:
         8f:b9:99:35:a7:d1:a4:e5:31:d0:5b:55:7e:a2:65:a5:e9:85:
         0f:f8:57:97:51:fd:2e:f6:49:fb:bf:65:69:89:f9:f2:e2:7e:
         58:4b:e0:c0:99:7d:ad:c1:57:88:ee:0f:e4:19:6f:f9:3a:c5:
         58:4b:36:a8:ce:aa:73:f1:10:8d:48:ab:80:83:aa:fb:28:06:
         23:f0:7a:4b:2f:df:fe:8b:af:b0:55:b4:7c:cf:b7:88:55:93:
         a6:b8:b5:3c:22:d3:23:b9:ba:50:ca:5a:97:0f:a6:8b:6b:3c:
         2b:6b:83:4f:41:53:b2:fa:6f:03:c0:67:ed:0e:8f:2f:6d:e8:
         dd:37:9f:be:0d:0e:c5:e2:d8:3b:ff:71:e9:c8:85:02:d8:99:
         5f:d3:0d:5e:e2:52:01:de:fd:7b:2f:cb:07:4b:c3:67:d5:67:
         f5:42:f6:fb:42:d1:e0:69:d5:d0:50:44:6a:de:e7:e5:29:25:
         0b:c3:5e:bb:92:00:71:62:78:49:ff:43:b6:12:26:de:a8:cc:
         be:06:24:22:0a:5b:8a:ea:0d:22:fc:e3:09:4c:9c:ce:53:71:
         ee:cc:3f:47:9d:04:cb:47:a3:58:10:0e:31:99:e8:58:2b:82:
         81:a0:27:4d:cb:5a:33:6c:89:3a:90:95:d7:65:56:e4:ef:fc:
         b3:10:af:f3:68:00:cf:6d:d3:08:27:2b:ea:f4:c8:c4:71:7d:
         a1:0c:0f:3d:1c:2f:67:bb:78:60:7c:2f:2a:6e:4c:89:ae:72:
         8a:de:b8:00:22:24:7e:16:c9:f2:c2:4d:c9:01:be:4f:b9:24:
         f1:52:b2:8b:f2:48:7c:81
-----BEGIN CERTIFICATE-----
MIIGrTCCBJWgAwIBAgICH1IwDQYJKoZIhvcNAQEEBQAwgawxCzAJBgNVBAYTAlVT
MQswCQYDVQQIEwJPSDERMA8GA1UEBxMIQ29sdW1idXMxEjAQBgNVBAoTCVZpa2lu
Z1ZQTjEdMBsGA1UECxMUTXlPcmdhbml6YXRpb25hbFVuaXQxFTATBgNVBAMTDFZp
a2luZ1ZQTiBDQTEQMA4GA1UEKRMHRWFzeVJTQTEhMB8GCSqGSIb3DQEJARYSbWVA
bXlob3N0Lm15ZG9tYWluMB4XDTE2MDUyMTE3MTYxMFoXDTI2MDUxOTE3MTYxMFow
HzEdMBsGA1UEAxMUQ2xpZW50MjIwNUNlcnQyZjNhNWIwggIiMA0GCSqGSIb3DQEB
AQUAA4ICDwAwggIKAoICAQDLiPJxXnQZLGRWffO8Xv/OVkY6nrj28wvXjjvB+Cbq
XECYXWjZA5iNcAhm+HXGW1d8nR6TexPUV9MXmCLF4GENqmeRGUGKAEeDIaDtPP7J
/sHKE6G5b0hsXSNHHkweYphhPhJ2N4SHpKQGV+skdX+ABGTOMGmQ3cUlDnvJwyPD
2Yq/C+cocNnZvQJiWUqhOB4Bem/YZp5kbURO/rCvt4K1jsCvLML3dMOAEwD9ixrj
kqi6fSrzsku0mH8sWj/8xvrNyY1H7RY++JSbGuCrYq873B7EZVusIYfrmdY7f82V
IK02sBP1ba25aZom6SVUIeCHjut6PojXLIIYj4HIGaDZaMwlAGGkJJmphdmON/44
KVnTpelEsTzZEEkGxqKWlk4AI3qTxe0fOJh/7ytVD88q4NCfkawpTuHwNiQZngfv
05Ukcw9KSgGc15g1VSTT+VFMuRBX9dinuIb2JsL1ZydWzTuSHy7lJHhPDrhofBsC
g6LlZhDUusWC0p9uAXKiLg7N89i5qXzzyGG83jpvOsdUKSc7salNpZ3PEIK1hoAn
v1qy5bemVF7BF2dGd+k1XveQSjtMyJcMCsqlbNn0HrwtJiiQOaycrep5koygBtal
9hMfpQNGkjf1g3/lg01tMgr8rCMFKAeH1FvdEfuwXqKYhhZv7njfgO7G5Umbb/Wu
3wIDAQABo4IBYzCCAV8wCQYDVR0TBAIwADAtBglghkgBhvhCAQ0EIBYeRWFzeS1S
U0EgR2VuZXJhdGVkIENlcnRpZmljYXRlMB0GA1UdDgQWBBTBxUqXrXHcawQo2QGY
0cEOw05OQTCB4QYDVR0jBIHZMIHWgBQSzWAE0qCAnnDtxpm4eyzGUv0ZoaGBsqSB
rzCBrDELMAkGA1UEBhMCVVMxCzAJBgNVBAgTAk9IMREwDwYDVQQHEwhDb2x1bWJ1
czESMBAGA1UEChMJVmlraW5nVlBOMR0wGwYDVQQLExRNeU9yZ2FuaXphdGlvbmFs
VW5pdDEVMBMGA1UEAxMMVmlraW5nVlBOIENBMRAwDgYDVQQpEwdFYXN5UlNBMSEw
HwYJKoZIhvcNAQkBFhJtZUBteWhvc3QubXlkb21haW6CCQDPNYXugL8qPjATBgNV
HSUEDDAKBggrBgEFBQcDAjALBgNVHQ8EBAMCB4AwDQYJKoZIhvcNAQEEBQADggIB
ADQscdV1j4l0Wh3b+dQnVGRgTf6lxD3N2lsrT3PK0jAfkwcjZoSyimqUruBl67yN
B0sOJm3uMI2Oi8Wob3izg/uiJYS1rAbfb+ohh4vxZm8ht/vOklwHzB/SGj5wOWr6
o/hJEvfDCfDqU8Di2M8GhlM2T2JdZ26lWnV4MSOACWh5QsAMo0UglTZbpQM0tfdR
wT7azEm3VEtI/giQRVhfmf0l5je38CdmEM+rK8qOrj9HASe0U1f0SRQoFwIJdVkB
Bvo8Q6GhPI+5mTWn0aTlMdBbVX6iZaXphQ/4V5dR/S72Sfu/ZWmJ+fLiflhL4MCZ
fa3BV4juD+QZb/k6xVhLNqjOqnPxEI1Iq4CDqvsoBiPweksv3/6Lr7BVtHzPt4hV
k6a4tTwi0yO5ulDKWpcPpotrPCtrg09BU7L6bwPAZ+0Ojy9t6N03n74NDsXi2Dv/
cenIhQLYmV/TDV7iUgHe/XsvywdLw2fVZ/VC9vtC0eBp1dBQRGre5+UpJQvDXruS
AHFieEn/Q7YSJt6ozL4GJCIKW4rqDSL84wlMnM5Tce7MP0edBMtHo1gQDjGZ6Fgr
goGgJ03LWjNsiTqQlddlVuTv/LMQr/NoAM9t0wgnK+r0yMRxfaEMDz0cL2e7eGB8
LypuTImucoreuAAiJH4WyfLCTckBvk+5JPFSsovySHyB
-----END CERTIFICATE-----
