Certificate:
    Data:
        Version: 3 (0x2)
        Serial Number: 1316 (0x524)
    Signature Algorithm: md5WithRSAEncryption
        Issuer: C=US, ST=OH, L=Columbus, O=VikingVPN, OU=MyOrganizationalUnit, CN=VikingVPN CA/name=EasyRSA/emailAddress=me@myhost.mydomain
        Validity
            Not Before: Mar 18 20:37:57 2014 GMT
            Not After : Mar 15 20:37:57 2024 GMT
        Subject: CN=Client488Certea2561
        Subject Public Key Info:
            Public Key Algorithm: rsaEncryption
                Public-Key: (4096 bit)
                Modulus:
                    00:de:27:5a:bc:d9:ef:ff:2d:fb:12:d7:f8:f4:d6:
                    3b:35:92:eb:c8:d4:6b:ef:e0:c4:28:5f:6c:ff:5e:
                    0a:81:c1:90:d9:2e:f2:89:1a:01:d6:b7:32:ce:d6:
                    f6:e1:6c:2a:a7:e0:94:6c:92:f7:4b:45:62:91:c6:
                    ec:00:4d:9e:00:d4:dc:90:cc:13:4d:de:e6:15:26:
                    e9:24:5a:a1:e8:28:9c:2a:79:6c:d2:f6:0c:f6:aa:
                    92:e0:18:d7:44:eb:70:b0:d0:76:0f:56:27:be:cb:
                    c2:cc:d4:2b:ac:c6:41:a8:1b:6e:95:02:21:be:c4:
                    f8:f0:20:ec:6e:db:c9:31:8c:45:e5:ce:7f:b9:ed:
                    b8:66:31:d0:cd:cc:d3:0f:7e:c0:ac:ac:4c:ae:78:
                    5f:b4:36:93:62:1f:92:65:c5:00:3f:52:f7:19:98:
                    9d:eb:da:e9:1b:13:14:89:d2:36:3d:c7:36:6c:13:
                    97:3a:a9:56:0a:45:f5:8f:8a:9b:92:0d:fc:18:3a:
                    5d:fe:5d:f6:79:c6:09:63:70:15:21:b8:37:a4:73:
                    fc:c8:1c:7f:ab:da:03:a1:fe:3e:56:0b:66:55:e5:
                    8e:f9:d0:5c:36:c2:ad:01:f3:48:b0:2c:34:51:62:
                    31:12:c1:31:a9:62:26:57:ba:37:9e:8b:3d:d4:dd:
                    67:a2:3e:9f:cb:a9:55:5a:da:3a:87:66:d8:5f:68:
                    b4:0c:04:8a:ee:23:6d:70:ce:8a:a5:ff:c3:e4:64:
                    34:08:cd:b9:3d:0f:f0:2c:62:71:c5:56:98:09:ff:
                    65:f2:13:34:f5:a1:37:05:90:24:4c:cc:b5:b2:a3:
                    77:55:3a:5a:ba:a3:95:f0:5a:4c:24:a1:f3:e2:e7:
                    e3:9c:1d:17:ea:7d:7e:15:ad:13:68:26:3f:0b:26:
                    af:ff:01:e6:29:cc:8d:ad:8b:5a:09:f0:87:6a:d8:
                    11:5d:4c:db:a0:46:98:1b:64:91:aa:80:54:f7:da:
                    71:12:f8:b3:3f:78:85:0d:ea:07:33:37:c1:85:86:
                    43:12:98:60:84:ec:2d:88:08:75:51:1c:1f:03:77:
                    bf:81:cf:34:eb:4e:11:01:ae:00:85:f8:06:0a:0d:
                    02:a5:98:a8:a6:8e:1d:08:82:7c:4d:28:73:00:f2:
                    cc:0c:33:33:a5:ba:10:08:fd:17:27:72:30:63:81:
                    49:1e:3d:ee:b1:fa:d5:bd:73:95:ac:0d:51:7a:83:
                    1d:3c:a1:42:98:15:fa:ad:b3:20:35:ff:66:18:aa:
                    b3:75:30:87:89:2a:e5:97:8e:a9:84:17:99:d1:11:
                    77:7a:15:30:bf:04:17:36:68:92:97:63:fc:60:17:
                    00:ab:f5
                Exponent: 65537 (0x10001)
        X509v3 extensions:
            X509v3 Basic Constraints: 
                CA:FALSE
            Netscape Comment: 
                Easy-RSA Generated Certificate
            X509v3 Subject Key Identifier: 
                8D:D6:FC:2A:A1:91:53:EF:08:56:35:D0:71:C8:32:F3:AA:22:74:2B
            X509v3 Authority Key Identifier: 
                keyid:12:CD:60:04:D2:A0:80:9E:70:ED:C6:99:B8:7B:2C:C6:52:FD:19:A1
                DirName:/C=US/ST=OH/L=Columbus/O=VikingVPN/OU=MyOrganizationalUnit/CN=VikingVPN CA/name=EasyRSA/emailAddress=me@myhost.mydomain
                serial:CF:35:85:EE:80:BF:2A:3E

            X509v3 Extended Key Usage: 
                TLS Web Client Authentication
            X509v3 Key Usage: 
                Digital Signature
    Signature Algorithm: md5WithRSAEncryption
         1e:cc:e2:9b:82:73:d4:c3:a3:f3:d5:06:d7:da:e8:ac:07:d0:
         fc:67:7a:81:90:56:a2:00:1d:6c:a7:d9:e9:0e:a5:5d:b2:78:
         e1:30:da:5d:99:4f:78:cc:09:6c:a1:9b:30:1d:0d:3f:53:b5:
         b7:ea:88:f9:97:ac:a0:d0:26:3a:3f:4d:11:c2:74:1c:95:90:
         12:3f:7b:86:17:da:1f:c1:48:5e:d1:b3:78:78:86:a6:35:ae:
         79:26:10:d8:6b:c0:8d:bd:5b:f1:91:5e:b1:23:5f:d3:fa:61:
         2f:64:1b:c5:7b:25:d5:4e:d6:d4:83:af:c3:82:58:6a:24:c4:
         6c:c4:09:f7:d9:da:c0:3c:7d:ea:c9:4d:77:d8:54:c2:62:ff:
         49:a3:70:06:a0:86:0c:7b:a5:5f:fb:71:65:3f:e3:4f:66:6c:
         c2:36:62:fc:8c:38:42:4b:9f:c3:0d:8f:bf:e6:6a:57:b3:c8:
         7f:bc:b4:04:ea:f3:37:29:23:53:5b:04:dd:d6:91:63:85:a8:
         c0:fe:f8:60:e0:5c:f4:4c:95:b2:79:73:32:27:a7:18:37:d0:
         af:f1:c0:7a:39:4c:9b:9c:f9:5f:de:75:08:33:65:e5:02:87:
         a1:1a:ee:64:9c:94:8f:f8:68:ef:d5:ac:d0:16:42:f9:50:81:
         f7:50:8e:93:e8:26:0a:ee:5c:ee:d7:69:c6:e1:b5:6a:0b:05:
         23:69:4a:12:ae:22:4a:25:f0:11:a8:34:d6:f5:7a:fd:8a:8a:
         98:52:2f:13:8a:b1:fa:b9:3c:03:fe:a6:89:d8:52:51:d0:d0:
         9f:a7:cd:25:4f:4b:8d:f2:45:79:71:60:de:02:ef:d6:5a:4e:
         28:b7:0c:29:43:9e:fe:ee:1b:41:27:73:23:8b:42:9d:ba:c2:
         99:98:11:db:3c:09:d0:9c:f0:3c:1c:6c:eb:0b:d7:73:7b:79:
         bc:3a:f1:af:46:4e:ef:72:3a:b8:6c:a4:04:09:da:54:0c:ef:
         fb:9a:16:3f:b2:29:e3:5d:18:7b:7c:c4:e8:ef:4a:1d:48:ad:
         d8:ba:69:04:4e:5c:de:0d:c9:d7:73:12:dc:c4:b6:e0:30:9d:
         83:16:ca:87:0f:59:3d:83:18:24:71:1e:6c:96:a6:d8:e2:1a:
         5e:4b:41:96:ad:a8:36:d5:8f:55:18:ab:b9:a4:52:ff:aa:fe:
         fe:6f:79:00:87:f2:05:ea:a4:3f:3f:8a:41:12:36:19:58:5d:
         b2:26:c6:e5:27:b2:bf:0c:ac:d7:1e:de:c7:3d:6b:03:07:11:
         f3:fa:85:29:0c:65:35:0f:e9:00:f2:49:2d:bd:2e:5a:c3:98:
         84:bb:59:cf:ed:f7:38:2a
-----BEGIN CERTIFICATE-----
MIIGrDCCBJSgAwIBAgICBSQwDQYJKoZIhvcNAQEEBQAwgawxCzAJBgNVBAYTAlVT
MQswCQYDVQQIEwJPSDERMA8GA1UEBxMIQ29sdW1idXMxEjAQBgNVBAoTCVZpa2lu
Z1ZQTjEdMBsGA1UECxMUTXlPcmdhbml6YXRpb25hbFVuaXQxFTATBgNVBAMTDFZp
a2luZ1ZQTiBDQTEQMA4GA1UEKRMHRWFzeVJTQTEhMB8GCSqGSIb3DQEJARYSbWVA
bXlob3N0Lm15ZG9tYWluMB4XDTE0MDMxODIwMzc1N1oXDTI0MDMxNTIwMzc1N1ow
HjEcMBoGA1UEAxMTQ2xpZW50NDg4Q2VydGVhMjU2MTCCAiIwDQYJKoZIhvcNAQEB
BQADggIPADCCAgoCggIBAN4nWrzZ7/8t+xLX+PTWOzWS68jUa+/gxChfbP9eCoHB
kNku8okaAda3Ms7W9uFsKqfglGyS90tFYpHG7ABNngDU3JDME03e5hUm6SRaoego
nCp5bNL2DPaqkuAY10TrcLDQdg9WJ77LwszUK6zGQagbbpUCIb7E+PAg7G7byTGM
ReXOf7ntuGYx0M3M0w9+wKysTK54X7Q2k2IfkmXFAD9S9xmYneva6RsTFInSNj3H
NmwTlzqpVgpF9Y+Km5IN/Bg6Xf5d9nnGCWNwFSG4N6Rz/Mgcf6vaA6H+PlYLZlXl
jvnQXDbCrQHzSLAsNFFiMRLBMaliJle6N56LPdTdZ6I+n8upVVraOodm2F9otAwE
iu4jbXDOiqX/w+RkNAjNuT0P8CxiccVWmAn/ZfITNPWhNwWQJEzMtbKjd1U6Wrqj
lfBaTCSh8+Ln45wdF+p9fhWtE2gmPwsmr/8B5inMja2LWgnwh2rYEV1M26BGmBtk
kaqAVPfacRL4sz94hQ3qBzM3wYWGQxKYYITsLYgIdVEcHwN3v4HPNOtOEQGuAIX4
BgoNAqWYqKaOHQiCfE0ocwDyzAwzM6W6EAj9FydyMGOBSR497rH61b1zlawNUXqD
HTyhQpgV+q2zIDX/Zhiqs3Uwh4kq5ZeOqYQXmdERd3oVML8EFzZokpdj/GAXAKv1
AgMBAAGjggFjMIIBXzAJBgNVHRMEAjAAMC0GCWCGSAGG+EIBDQQgFh5FYXN5LVJT
QSBHZW5lcmF0ZWQgQ2VydGlmaWNhdGUwHQYDVR0OBBYEFI3W/CqhkVPvCFY10HHI
MvOqInQrMIHhBgNVHSMEgdkwgdaAFBLNYATSoICecO3Gmbh7LMZS/RmhoYGypIGv
MIGsMQswCQYDVQQGEwJVUzELMAkGA1UECBMCT0gxETAPBgNVBAcTCENvbHVtYnVz
MRIwEAYDVQQKEwlWaWtpbmdWUE4xHTAbBgNVBAsTFE15T3JnYW5pemF0aW9uYWxV
bml0MRUwEwYDVQQDEwxWaWtpbmdWUE4gQ0ExEDAOBgNVBCkTB0Vhc3lSU0ExITAf
BgkqhkiG9w0BCQEWEm1lQG15aG9zdC5teWRvbWFpboIJAM81he6Avyo+MBMGA1Ud
JQQMMAoGCCsGAQUFBwMCMAsGA1UdDwQEAwIHgDANBgkqhkiG9w0BAQQFAAOCAgEA
Hszim4Jz1MOj89UG19rorAfQ/Gd6gZBWogAdbKfZ6Q6lXbJ44TDaXZlPeMwJbKGb
MB0NP1O1t+qI+ZesoNAmOj9NEcJ0HJWQEj97hhfaH8FIXtGzeHiGpjWueSYQ2GvA
jb1b8ZFesSNf0/phL2QbxXsl1U7W1IOvw4JYaiTEbMQJ99nawDx96slNd9hUwmL/
SaNwBqCGDHulX/txZT/jT2ZswjZi/Iw4Qkufww2Pv+ZqV7PIf7y0BOrzNykjU1sE
3daRY4WowP74YOBc9EyVsnlzMienGDfQr/HAejlMm5z5X951CDNl5QKHoRruZJyU
j/ho79Ws0BZC+VCB91COk+gmCu5c7tdpxuG1agsFI2lKEq4iSiXwEag01vV6/YqK
mFIvE4qx+rk8A/6midhSUdDQn6fNJU9LjfJFeXFg3gLv1lpOKLcMKUOe/u4bQSdz
I4tCnbrCmZgR2zwJ0JzwPBxs6wvXc3t5vDrxr0ZO73I6uGykBAnaVAzv+5oWP7Ip
410Ye3zE6O9KHUit2LppBE5c3g3J13MS3MS24DCdgxbKhw9ZPYMYJHEebJam2OIa
XktBlq2oNtWPVRiruaRS/6r+/m95AIfyBeqkPz+KQRI2GVhdsibG5Seyvwys1x7e
xz1rAwcR8/qFKQxlNQ/pAPJJLb0uWsOYhLtZz+33OCo=
-----END CERTIFICATE-----
