Certificate:
    Data:
        Version: 3 (0x2)
        Serial Number: 2132 (0x854)
    Signature Algorithm: md5WithRSAEncryption
        Issuer: C=US, ST=OH, L=Columbus, O=VikingVPN, OU=MyOrganizationalUnit, CN=VikingVPN CA/name=EasyRSA/emailAddress=me@myhost.mydomain
        Validity
            Not Before: Jun 19 18:07:08 2014 GMT
            Not After : Jun 16 18:07:08 2024 GMT
        Subject: CN=Client568Cert5b4a6b
        Subject Public Key Info:
            Public Key Algorithm: rsaEncryption
                Public-Key: (4096 bit)
                Modulus:
                    00:b9:b8:33:f9:00:91:92:0a:ad:de:e8:44:38:97:
                    d7:c1:d2:6d:69:b0:3b:50:31:dd:30:1e:9c:1b:c6:
                    f0:0a:5a:74:b6:13:fa:6d:05:93:38:0e:ac:55:34:
                    16:52:89:a0:67:fe:02:58:c7:64:fe:57:05:99:50:
                    2b:03:3a:00:5e:a9:c0:08:25:d0:6d:04:d1:9d:6b:
                    7b:65:2f:4b:af:9b:34:67:2d:f2:ef:f4:8b:f2:aa:
                    cd:b1:64:69:f6:a0:6c:c6:1f:2c:66:cf:18:53:eb:
                    17:d6:9f:c3:dd:4a:23:e5:42:dc:1a:76:d8:d1:0e:
                    5c:37:15:67:2b:82:72:c5:b9:74:6f:5b:8f:77:3a:
                    2f:23:66:27:05:49:94:fc:e4:72:9b:89:c4:55:8e:
                    c4:15:b1:b3:83:27:ec:ee:39:58:a0:d9:af:3f:18:
                    51:76:d8:c0:ed:8c:cc:f9:b8:8d:6d:0f:b8:16:cc:
                    94:f5:70:15:ef:25:e3:bb:10:48:56:bf:cf:17:1e:
                    50:29:e3:01:49:96:f5:75:d4:d8:85:f6:e3:5e:09:
                    9d:96:21:17:ad:36:aa:76:14:43:74:0d:00:8c:0a:
                    22:03:9c:9c:9d:37:cb:2e:a9:3f:a9:e0:76:fd:b2:
                    da:4f:7d:70:48:2e:12:97:2f:56:92:9f:ec:b1:20:
                    3a:a0:ba:3f:d5:df:4a:43:23:6c:61:b3:4b:40:06:
                    15:90:99:f1:ac:5e:7c:10:5d:54:2d:f6:5c:38:06:
                    52:44:49:bd:5e:df:62:ed:43:e0:6d:8c:46:bd:33:
                    57:e9:db:43:89:5b:a7:eb:ff:75:89:f0:b3:ff:6d:
                    e9:c2:31:cf:d6:25:07:8b:ec:52:60:a7:2a:cb:2d:
                    db:be:6b:6d:36:85:82:11:75:7c:59:c7:f7:b2:4c:
                    cd:32:04:a0:5c:ed:27:32:10:19:4d:d1:66:a8:23:
                    cb:11:2a:e2:8e:f0:f6:49:08:94:4b:18:d1:d4:25:
                    d3:b6:46:82:40:a2:62:b9:b7:cf:35:a0:65:16:6e:
                    78:50:12:b9:60:2e:48:de:35:4a:f6:6a:56:6c:09:
                    34:c2:55:44:8e:7c:b4:4a:8f:84:7a:5e:18:af:71:
                    81:f8:c9:6b:22:db:5a:20:04:c6:c1:f5:9a:a4:5a:
                    05:19:c9:d7:52:fc:e9:3c:92:ce:f9:ad:a5:38:d2:
                    2a:67:d9:4b:91:2e:9b:0b:12:3a:5b:28:f7:7a:61:
                    34:ca:3f:ea:66:c6:f5:07:0f:d2:ab:8c:2d:44:70:
                    71:67:30:d0:db:35:5e:8e:28:b8:93:a5:8d:55:ea:
                    c9:36:0d:dc:e8:03:12:81:19:0a:83:b5:6c:77:0c:
                    95:38:cf
                Exponent: 65537 (0x10001)
        X509v3 extensions:
            X509v3 Basic Constraints: 
                CA:FALSE
            Netscape Comment: 
                Easy-RSA Generated Certificate
            X509v3 Subject Key Identifier: 
                5A:D6:6F:83:0F:EA:67:BA:67:AD:20:BC:AF:F0:34:21:C2:32:9B:29
            X509v3 Authority Key Identifier: 
                keyid:12:CD:60:04:D2:A0:80:9E:70:ED:C6:99:B8:7B:2C:C6:52:FD:19:A1
                DirName:/C=US/ST=OH/L=Columbus/O=VikingVPN/OU=MyOrganizationalUnit/CN=VikingVPN CA/name=EasyRSA/emailAddress=me@myhost.mydomain
                serial:CF:35:85:EE:80:BF:2A:3E

            X509v3 Extended Key Usage: 
                TLS Web Client Authentication
            X509v3 Key Usage: 
                Digital Signature
    Signature Algorithm: md5WithRSAEncryption
         87:e0:76:c4:f7:5c:96:96:31:f8:41:2d:04:d3:1e:fc:4d:a3:
         c0:1b:38:07:c2:c1:2c:91:dd:63:3b:1b:7e:1b:9e:2f:71:ab:
         c9:50:59:b5:8f:e8:ce:6d:19:a8:37:05:2d:29:56:5b:28:1f:
         47:ea:c0:a6:30:6b:a5:05:bd:57:93:cb:02:71:b5:e1:d6:79:
         7c:98:e0:1f:e0:8e:09:55:62:90:19:3b:84:47:11:a1:bf:46:
         d2:3b:09:65:ca:76:60:79:07:95:1a:31:f1:9b:01:fe:91:89:
         da:94:9b:78:6e:b0:70:c7:61:9f:91:10:fe:b8:03:d2:27:0f:
         2c:e2:d4:bc:96:54:e3:2d:15:a8:ad:50:0f:fe:e6:f4:13:d9:
         8a:36:af:44:1d:22:f7:20:80:73:05:6d:ab:59:8c:e3:0f:8f:
         03:9f:12:d8:f7:5c:56:8d:b6:61:39:2b:d2:be:67:b6:f7:c7:
         ed:4e:87:60:7d:29:b6:34:2f:b7:18:cf:0d:90:f8:cf:c6:4e:
         1d:d7:6d:b9:5d:00:f6:e7:3f:ee:e6:6d:df:1b:de:e2:63:93:
         95:07:f3:8b:4d:13:50:0f:5d:49:da:cf:08:fc:75:21:98:9e:
         23:3f:a7:c0:fe:55:be:e4:e7:61:62:d9:5f:34:55:0f:3d:67:
         ed:3b:0c:53:e7:d7:1c:e8:a5:95:9f:85:6f:24:a1:64:a7:7a:
         d8:08:2e:60:33:45:67:96:c4:cd:93:af:36:cd:f7:a3:ac:32:
         9b:5b:fe:0c:57:a1:18:14:63:ae:eb:09:b7:d7:0d:8f:06:9b:
         da:d6:7b:52:50:c7:bd:3e:9d:bc:65:e7:aa:1a:a9:b1:27:26:
         b9:2c:4b:76:bf:a9:ce:c0:71:9e:95:b8:c4:94:23:ca:32:e2:
         ba:61:44:bb:d1:d3:65:06:49:82:b5:e7:90:2f:fb:51:bd:f8:
         3c:fc:c9:bf:6e:c0:1b:ab:83:8b:25:12:a6:ef:f3:bf:fd:00:
         e2:54:64:fb:33:ee:40:61:31:c5:0c:22:c5:06:b7:84:79:9a:
         bc:68:61:dc:ad:f8:c3:ab:70:4e:14:25:7b:3e:08:28:33:98:
         c5:89:9a:5a:3c:75:92:32:34:c2:3d:cc:5d:e0:2c:d0:b4:dd:
         d1:24:9a:b9:93:91:e7:35:23:43:5e:f9:bc:b5:30:75:c9:75:
         f2:44:34:4f:af:74:ab:c2:43:b4:76:68:9a:76:c1:9d:c6:d2:
         9a:cc:93:46:1c:af:46:63:e7:ce:06:9b:07:c2:93:00:af:9c:
         1c:7c:57:4d:b6:33:96:5c:3a:e8:95:78:90:2e:52:29:51:39:
         6f:e8:d5:3f:3e:86:8d:65
-----BEGIN CERTIFICATE-----
MIIGrDCCBJSgAwIBAgICCFQwDQYJKoZIhvcNAQEEBQAwgawxCzAJBgNVBAYTAlVT
MQswCQYDVQQIEwJPSDERMA8GA1UEBxMIQ29sdW1idXMxEjAQBgNVBAoTCVZpa2lu
Z1ZQTjEdMBsGA1UECxMUTXlPcmdhbml6YXRpb25hbFVuaXQxFTATBgNVBAMTDFZp
a2luZ1ZQTiBDQTEQMA4GA1UEKRMHRWFzeVJTQTEhMB8GCSqGSIb3DQEJARYSbWVA
bXlob3N0Lm15ZG9tYWluMB4XDTE0MDYxOTE4MDcwOFoXDTI0MDYxNjE4MDcwOFow
HjEcMBoGA1UEAxMTQ2xpZW50NTY4Q2VydDViNGE2YjCCAiIwDQYJKoZIhvcNAQEB
BQADggIPADCCAgoCggIBALm4M/kAkZIKrd7oRDiX18HSbWmwO1Ax3TAenBvG8Apa
dLYT+m0FkzgOrFU0FlKJoGf+AljHZP5XBZlQKwM6AF6pwAgl0G0E0Z1re2UvS6+b
NGct8u/0i/KqzbFkafagbMYfLGbPGFPrF9afw91KI+VC3Bp22NEOXDcVZyuCcsW5
dG9bj3c6LyNmJwVJlPzkcpuJxFWOxBWxs4Mn7O45WKDZrz8YUXbYwO2MzPm4jW0P
uBbMlPVwFe8l47sQSFa/zxceUCnjAUmW9XXU2IX2414JnZYhF602qnYUQ3QNAIwK
IgOcnJ03yy6pP6ngdv2y2k99cEguEpcvVpKf7LEgOqC6P9XfSkMjbGGzS0AGFZCZ
8axefBBdVC32XDgGUkRJvV7fYu1D4G2MRr0zV+nbQ4lbp+v/dYnws/9t6cIxz9Yl
B4vsUmCnKsst275rbTaFghF1fFnH97JMzTIEoFztJzIQGU3RZqgjyxEq4o7w9kkI
lEsY0dQl07ZGgkCiYrm3zzWgZRZueFASuWAuSN41SvZqVmwJNMJVRI58tEqPhHpe
GK9xgfjJayLbWiAExsH1mqRaBRnJ11L86TySzvmtpTjSKmfZS5EumwsSOlso93ph
NMo/6mbG9QcP0quMLURwcWcw0Ns1Xo4ouJOljVXqyTYN3OgDEoEZCoO1bHcMlTjP
AgMBAAGjggFjMIIBXzAJBgNVHRMEAjAAMC0GCWCGSAGG+EIBDQQgFh5FYXN5LVJT
QSBHZW5lcmF0ZWQgQ2VydGlmaWNhdGUwHQYDVR0OBBYEFFrWb4MP6me6Z60gvK/w
NCHCMpspMIHhBgNVHSMEgdkwgdaAFBLNYATSoICecO3Gmbh7LMZS/RmhoYGypIGv
MIGsMQswCQYDVQQGEwJVUzELMAkGA1UECBMCT0gxETAPBgNVBAcTCENvbHVtYnVz
MRIwEAYDVQQKEwlWaWtpbmdWUE4xHTAbBgNVBAsTFE15T3JnYW5pemF0aW9uYWxV
bml0MRUwEwYDVQQDEwxWaWtpbmdWUE4gQ0ExEDAOBgNVBCkTB0Vhc3lSU0ExITAf
BgkqhkiG9w0BCQEWEm1lQG15aG9zdC5teWRvbWFpboIJAM81he6Avyo+MBMGA1Ud
JQQMMAoGCCsGAQUFBwMCMAsGA1UdDwQEAwIHgDANBgkqhkiG9w0BAQQFAAOCAgEA
h+B2xPdclpYx+EEtBNMe/E2jwBs4B8LBLJHdYzsbfhueL3GryVBZtY/ozm0ZqDcF
LSlWWygfR+rApjBrpQW9V5PLAnG14dZ5fJjgH+COCVVikBk7hEcRob9G0jsJZcp2
YHkHlRox8ZsB/pGJ2pSbeG6wcMdhn5EQ/rgD0icPLOLUvJZU4y0VqK1QD/7m9BPZ
ijavRB0i9yCAcwVtq1mM4w+PA58S2PdcVo22YTkr0r5ntvfH7U6HYH0ptjQvtxjP
DZD4z8ZOHddtuV0A9uc/7uZt3xve4mOTlQfzi00TUA9dSdrPCPx1IZieIz+nwP5V
vuTnYWLZXzRVDz1n7TsMU+fXHOillZ+FbyShZKd62AguYDNFZ5bEzZOvNs33o6wy
m1v+DFehGBRjrusJt9cNjwab2tZ7UlDHvT6dvGXnqhqpsScmuSxLdr+pzsBxnpW4
xJQjyjLiumFEu9HTZQZJgrXnkC/7Ub34PPzJv27AG6uDiyUSpu/zv/0A4lRk+zPu
QGExxQwixQa3hHmavGhh3K34w6twThQlez4IKDOYxYmaWjx1kjI0wj3MXeAs0LTd
0SSauZOR5zUjQ175vLUwdcl18kQ0T690q8JDtHZomnbBncbSmsyTRhyvRmPnzgab
B8KTAK+cHHxXTbYzllw66JV4kC5SKVE5b+jVPz6GjWU=
-----END CERTIFICATE-----
