Certificate:
    Data:
        Version: 3 (0x2)
        Serial Number: 6134 (0x17f6)
    Signature Algorithm: md5WithRSAEncryption
        Issuer: C=US, ST=OH, L=Columbus, O=VikingVPN, OU=MyOrganizationalUnit, CN=VikingVPN CA/name=EasyRSA/emailAddress=me@myhost.mydomain
        Validity
            Not Before: Aug 25 13:52:33 2015 GMT
            Not After : Aug 22 13:52:33 2025 GMT
        Subject: CN=Client1923Cert00376b
        Subject Public Key Info:
            Public Key Algorithm: rsaEncryption
                Public-Key: (4096 bit)
                Modulus:
                    00:dc:2e:6b:52:19:65:9c:0c:bc:fa:f2:5a:c3:4c:
                    78:00:fd:be:da:7d:0b:b0:42:29:b1:2a:00:ba:74:
                    e4:e3:32:4a:f7:5e:15:c5:03:01:56:6c:31:7b:b4:
                    c5:e4:83:94:14:c7:8d:50:bd:50:7a:4a:82:0f:e8:
                    41:13:a9:0b:63:26:82:6d:7f:fc:f8:0e:fd:0f:85:
                    66:5f:bf:75:f8:7f:be:70:f0:22:51:05:b1:61:9f:
                    49:a9:9d:07:58:c6:b5:2a:f5:47:fb:0a:0e:28:ee:
                    aa:8f:12:78:4e:19:40:7b:06:74:24:64:03:80:60:
                    a4:1e:f6:ae:e3:01:19:69:87:5d:c2:37:b3:fa:f9:
                    52:f1:8a:31:63:5d:8a:81:4d:3d:ae:15:78:b0:23:
                    2a:6c:b0:65:9a:0f:2b:06:ce:b3:28:2d:3b:7e:2b:
                    89:dd:6e:ad:b0:65:43:af:fd:b3:8f:34:2b:f8:b2:
                    7d:03:a2:7d:62:af:85:21:82:62:2d:03:05:4e:3e:
                    2a:52:6b:f6:82:f3:97:f7:fc:9a:d6:9f:79:26:27:
                    a2:6d:6c:c0:e0:5f:b8:2c:5a:fa:82:a0:47:a8:5d:
                    31:2b:60:cf:07:35:b9:8c:21:26:a9:85:44:30:f8:
                    07:d4:79:b4:0e:3a:68:07:9e:b3:11:85:1f:5c:26:
                    3e:ac:9f:0b:9b:76:66:96:a4:1d:ad:d4:70:0e:c3:
                    5c:e6:ed:62:11:17:17:a6:98:03:34:33:4f:e3:68:
                    d5:5b:d8:70:d9:fc:b5:df:9e:eb:5b:20:bc:a9:a7:
                    ef:f2:c0:c9:c1:af:bb:ca:90:ed:0a:63:1f:dc:d6:
                    11:45:06:c5:5e:13:c2:fd:d5:f3:0f:c0:80:26:6d:
                    55:b7:59:3f:28:68:2f:ec:54:46:7e:00:4f:2f:4e:
                    5e:41:92:7c:52:20:fe:c0:be:13:51:bd:2f:7b:4f:
                    a7:b1:39:d7:5f:62:72:a2:88:b3:0b:dd:ef:d4:50:
                    49:cf:ca:1b:6d:fc:a3:ee:b2:f0:47:de:ad:62:09:
                    ca:09:c0:3f:f2:eb:c2:ec:3b:59:3a:8e:36:e8:b5:
                    d5:69:71:1f:8d:dd:2a:f5:67:f6:0e:e1:cf:7f:05:
                    3b:82:55:13:02:29:5e:ef:bf:29:8a:7a:82:3b:3e:
                    ce:77:94:41:02:25:1b:ca:2b:2a:6b:cb:e4:0b:18:
                    e7:49:8a:ba:f8:fb:03:df:39:cb:5d:f7:19:b1:dc:
                    e6:ec:c5:87:ff:e5:3c:51:b0:42:e5:a3:fc:19:f3:
                    1d:d0:78:f3:e4:1e:1b:55:42:25:1f:40:3f:29:4d:
                    9d:0e:a0:f3:55:0f:df:d2:9b:aa:c4:60:48:5e:7d:
                    f6:a9:f3
                Exponent: 65537 (0x10001)
        X509v3 extensions:
            X509v3 Basic Constraints: 
                CA:FALSE
            Netscape Comment: 
                Easy-RSA Generated Certificate
            X509v3 Subject Key Identifier: 
                73:3D:E6:61:FC:26:7F:24:21:9A:C2:E2:C8:7F:4D:FB:45:10:8F:1A
            X509v3 Authority Key Identifier: 
                keyid:12:CD:60:04:D2:A0:80:9E:70:ED:C6:99:B8:7B:2C:C6:52:FD:19:A1
                DirName:/C=US/ST=OH/L=Columbus/O=VikingVPN/OU=MyOrganizationalUnit/CN=VikingVPN CA/name=EasyRSA/emailAddress=me@myhost.mydomain
                serial:CF:35:85:EE:80:BF:2A:3E

            X509v3 Extended Key Usage: 
                TLS Web Client Authentication
            X509v3 Key Usage: 
                Digital Signature
    Signature Algorithm: md5WithRSAEncryption
         ad:c5:60:6e:43:76:0c:34:df:7a:6a:88:78:66:07:cb:2a:26:
         62:cc:9f:31:da:1e:c7:f0:df:56:04:e6:7a:4d:fa:d7:6b:f4:
         96:73:63:46:6f:53:37:70:65:29:fe:45:4e:b8:af:3f:12:c9:
         ef:31:73:1a:72:d4:73:36:6c:2f:34:5a:b3:51:d2:4e:e9:40:
         a8:22:04:a3:65:4c:4a:4c:35:8d:a4:92:57:31:c1:dc:a7:35:
         17:af:26:86:19:34:f2:74:af:36:1b:d1:fe:7c:b8:0d:b1:24:
         b0:8b:2d:84:3e:c3:7c:e7:b0:79:f5:c9:23:a1:f6:72:1d:e1:
         45:cc:c3:dd:3e:09:33:ba:4a:a2:3b:96:74:73:40:3c:a0:bd:
         f6:5a:b3:8d:38:69:dd:98:da:eb:81:74:1b:6a:05:4b:60:bb:
         93:92:9e:e3:8a:1a:15:87:a0:d6:32:f0:10:cb:2c:d7:2c:9d:
         d0:42:2c:85:30:1f:f8:28:a1:3a:13:5c:ef:74:16:78:72:77:
         c4:08:f6:eb:15:dc:25:ef:29:56:05:98:6f:b4:f8:08:d4:87:
         35:da:24:85:cf:d8:a7:51:0a:bc:c0:e2:8b:8f:44:88:dc:1a:
         cb:71:47:0a:c4:b0:5a:06:8d:f0:36:93:92:78:bd:da:43:33:
         77:4a:39:a2:33:03:d6:dc:b0:64:d0:bb:c3:ce:52:1f:e0:26:
         9c:29:25:15:ee:04:bd:e4:e1:d1:70:3e:b8:4d:ec:be:23:8a:
         39:00:71:b7:8f:41:f5:0a:a9:af:50:9a:b7:50:90:45:7d:54:
         37:cf:38:6c:33:bc:0e:a3:48:af:87:cf:e3:4c:64:0d:cd:cd:
         b8:4c:79:5d:68:1d:27:aa:a8:dd:ec:e3:29:ff:3e:c0:78:e4:
         25:b0:2e:e6:10:4d:28:0e:b1:17:01:86:83:ae:0b:db:98:c5:
         ba:b0:df:01:35:ba:c0:9f:92:c5:1f:0a:0a:c7:ea:4a:a0:86:
         51:05:47:51:d9:45:1f:27:01:ee:f1:d8:79:41:67:fe:a6:6a:
         01:6c:c5:2c:3c:a9:5d:4b:a5:fa:8a:17:6b:0b:a2:57:52:2e:
         22:22:67:8a:8a:16:51:ef:06:be:e2:b5:1e:28:2f:1c:0a:b4:
         93:2f:89:ae:46:0b:2a:a5:05:e9:f3:5f:e3:e4:7d:f7:a1:18:
         c4:e1:dd:43:c8:5d:89:c1:ab:dc:4d:80:80:f3:a8:45:95:51:
         d9:d8:2d:26:94:49:7e:8a:f9:62:e7:7f:85:ef:dc:9c:38:90:
         1b:c3:c9:6a:d8:af:cd:df:ea:ae:62:81:8b:97:33:2d:b1:81:
         b7:02:0e:e1:87:d1:9c:d9
-----BEGIN CERTIFICATE-----
MIIGrTCCBJWgAwIBAgICF/YwDQYJKoZIhvcNAQEEBQAwgawxCzAJBgNVBAYTAlVT
MQswCQYDVQQIEwJPSDERMA8GA1UEBxMIQ29sdW1idXMxEjAQBgNVBAoTCVZpa2lu
Z1ZQTjEdMBsGA1UECxMUTXlPcmdhbml6YXRpb25hbFVuaXQxFTATBgNVBAMTDFZp
a2luZ1ZQTiBDQTEQMA4GA1UEKRMHRWFzeVJTQTEhMB8GCSqGSIb3DQEJARYSbWVA
bXlob3N0Lm15ZG9tYWluMB4XDTE1MDgyNTEzNTIzM1oXDTI1MDgyMjEzNTIzM1ow
HzEdMBsGA1UEAxMUQ2xpZW50MTkyM0NlcnQwMDM3NmIwggIiMA0GCSqGSIb3DQEB
AQUAA4ICDwAwggIKAoICAQDcLmtSGWWcDLz68lrDTHgA/b7afQuwQimxKgC6dOTj
Mkr3XhXFAwFWbDF7tMXkg5QUx41QvVB6SoIP6EETqQtjJoJtf/z4Dv0PhWZfv3X4
f75w8CJRBbFhn0mpnQdYxrUq9Uf7Cg4o7qqPEnhOGUB7BnQkZAOAYKQe9q7jARlp
h13CN7P6+VLxijFjXYqBTT2uFXiwIypssGWaDysGzrMoLTt+K4ndbq2wZUOv/bOP
NCv4sn0Don1ir4UhgmItAwVOPipSa/aC85f3/JrWn3kmJ6JtbMDgX7gsWvqCoEeo
XTErYM8HNbmMISaphUQw+AfUebQOOmgHnrMRhR9cJj6snwubdmaWpB2t1HAOw1zm
7WIRFxemmAM0M0/jaNVb2HDZ/LXfnutbILypp+/ywMnBr7vKkO0KYx/c1hFFBsVe
E8L91fMPwIAmbVW3WT8oaC/sVEZ+AE8vTl5BknxSIP7AvhNRvS97T6exOddfYnKi
iLML3e/UUEnPyhtt/KPusvBH3q1iCcoJwD/y68LsO1k6jjbotdVpcR+N3Sr1Z/YO
4c9/BTuCVRMCKV7vvymKeoI7Ps53lEECJRvKKypry+QLGOdJirr4+wPfOctd9xmx
3ObsxYf/5TxRsELlo/wZ8x3QePPkHhtVQiUfQD8pTZ0OoPNVD9/Sm6rEYEheffap
8wIDAQABo4IBYzCCAV8wCQYDVR0TBAIwADAtBglghkgBhvhCAQ0EIBYeRWFzeS1S
U0EgR2VuZXJhdGVkIENlcnRpZmljYXRlMB0GA1UdDgQWBBRzPeZh/CZ/JCGawuLI
f037RRCPGjCB4QYDVR0jBIHZMIHWgBQSzWAE0qCAnnDtxpm4eyzGUv0ZoaGBsqSB
rzCBrDELMAkGA1UEBhMCVVMxCzAJBgNVBAgTAk9IMREwDwYDVQQHEwhDb2x1bWJ1
czESMBAGA1UEChMJVmlraW5nVlBOMR0wGwYDVQQLExRNeU9yZ2FuaXphdGlvbmFs
VW5pdDEVMBMGA1UEAxMMVmlraW5nVlBOIENBMRAwDgYDVQQpEwdFYXN5UlNBMSEw
HwYJKoZIhvcNAQkBFhJtZUBteWhvc3QubXlkb21haW6CCQDPNYXugL8qPjATBgNV
HSUEDDAKBggrBgEFBQcDAjALBgNVHQ8EBAMCB4AwDQYJKoZIhvcNAQEEBQADggIB
AK3FYG5Ddgw033pqiHhmB8sqJmLMnzHaHsfw31YE5npN+tdr9JZzY0ZvUzdwZSn+
RU64rz8Sye8xcxpy1HM2bC80WrNR0k7pQKgiBKNlTEpMNY2kklcxwdynNRevJoYZ
NPJ0rzYb0f58uA2xJLCLLYQ+w3znsHn1ySOh9nId4UXMw90+CTO6SqI7lnRzQDyg
vfZas404ad2Y2uuBdBtqBUtgu5OSnuOKGhWHoNYy8BDLLNcsndBCLIUwH/gooToT
XO90Fnhyd8QI9usV3CXvKVYFmG+0+AjUhzXaJIXP2KdRCrzA4ouPRIjcGstxRwrE
sFoGjfA2k5J4vdpDM3dKOaIzA9bcsGTQu8POUh/gJpwpJRXuBL3k4dFwPrhN7L4j
ijkAcbePQfUKqa9QmrdQkEV9VDfPOGwzvA6jSK+Hz+NMZA3NzbhMeV1oHSeqqN3s
4yn/PsB45CWwLuYQTSgOsRcBhoOuC9uYxbqw3wE1usCfksUfCgrH6kqghlEFR1HZ
RR8nAe7x2HlBZ/6magFsxSw8qV1LpfqKF2sLoldSLiIiZ4qKFlHvBr7itR4oLxwK
tJMvia5GCyqlBenzX+PkffehGMTh3UPIXYnBq9xNgIDzqEWVUdnYLSaUSX6K+WLn
f4Xv3Jw4kBvDyWrYr83f6q5igYuXMy2xgbcCDuGH0ZzZ
-----END CERTIFICATE-----
