Certificate:
    Data:
        Version: 3 (0x2)
        Serial Number: 5789 (0x169d)
    Signature Algorithm: md5WithRSAEncryption
        Issuer: C=US, ST=OH, L=Columbus, O=VikingVPN, OU=MyOrganizationalUnit, CN=VikingVPN CA/name=EasyRSA/emailAddress=me@myhost.mydomain
        Validity
            Not Before: Jul 12 17:58:15 2015 GMT
            Not After : Jul  9 17:58:15 2025 GMT
        Subject: CN=Client1676Certe075fa
        Subject Public Key Info:
            Public Key Algorithm: rsaEncryption
                Public-Key: (4096 bit)
                Modulus:
                    00:b7:98:6d:43:32:c9:9f:e1:95:9a:f5:9f:9a:4e:
                    05:1d:87:2d:21:f8:5f:e5:58:e8:05:24:09:b9:d6:
                    f2:28:81:58:98:8f:f8:c3:fb:9b:bd:c9:37:ba:a8:
                    37:0b:46:83:aa:45:dc:1e:0a:e9:cf:dd:9f:7c:66:
                    29:46:20:bd:65:06:d4:21:88:7e:4d:49:38:a4:2c:
                    e1:bf:bc:54:7f:97:37:26:c6:47:94:57:0f:6e:27:
                    3a:c5:e6:85:21:ff:15:33:02:f2:06:05:d4:28:c5:
                    d9:d3:7d:44:d9:95:47:73:d3:c2:26:5b:9d:b6:ec:
                    19:c4:27:67:bb:5d:ff:17:6c:32:80:af:49:73:bf:
                    1b:18:f9:a3:1d:3b:7a:77:81:81:8a:d1:29:6c:11:
                    b5:04:a0:f1:49:76:41:70:f9:c8:30:71:be:a9:47:
                    ef:8f:f4:74:6c:5b:53:12:2a:14:6e:10:0c:88:dd:
                    da:57:01:9e:ef:42:49:41:d0:21:94:b1:73:69:12:
                    3c:39:84:ce:de:fb:92:61:09:5a:6d:a7:de:15:21:
                    7c:1d:d0:d6:a4:81:93:1b:d4:8b:6a:d8:31:7d:2c:
                    6c:97:2e:14:34:d9:70:cb:a8:c5:b2:9a:dc:19:63:
                    c5:d7:16:2e:00:b6:15:b6:01:54:fe:4a:7c:22:63:
                    65:63:b2:21:67:92:6d:d3:9f:64:f8:d1:b2:ce:d6:
                    07:24:85:09:d8:3e:7a:00:1b:0b:5b:29:b9:50:0b:
                    b3:61:c7:00:25:59:aa:55:d7:e8:5a:b7:0d:db:c8:
                    70:03:fe:0f:7b:a7:42:98:b5:4d:73:53:a4:91:9d:
                    ab:6b:ca:04:c9:29:3d:f0:e3:b8:8d:a4:01:f5:09:
                    d4:88:3d:1b:5a:4b:3c:61:9f:bc:3a:cf:2f:a5:b8:
                    66:a6:45:ab:9b:d7:a7:6c:5c:64:ad:a2:68:65:98:
                    7a:f4:3c:a0:59:8c:45:82:9c:c1:d0:9d:94:5b:2b:
                    99:56:b0:a2:e6:b3:92:cb:2e:aa:62:a7:b6:64:8c:
                    40:c7:b8:ca:c9:a4:a8:cc:37:a1:e9:54:7b:17:ae:
                    b2:a0:2c:95:b5:cf:16:17:28:c9:97:15:5c:b5:e4:
                    b2:f5:3d:a1:84:d3:3b:f0:ec:4f:3f:fc:7f:e2:05:
                    5c:d9:a6:fc:19:3e:fe:f6:04:28:88:12:f0:c8:2d:
                    b0:d1:e4:68:e2:e9:63:e5:a6:b4:fa:15:f8:2b:28:
                    bd:46:ac:89:67:16:18:52:fe:ce:4c:74:79:bf:43:
                    16:44:11:56:2f:8f:dc:28:d2:2a:49:06:cd:37:d3:
                    6e:c1:4a:a3:a6:28:9e:03:d9:b7:0c:c8:b3:0c:5b:
                    0f:9a:f1
                Exponent: 65537 (0x10001)
        X509v3 extensions:
            X509v3 Basic Constraints: 
                CA:FALSE
            Netscape Comment: 
                Easy-RSA Generated Certificate
            X509v3 Subject Key Identifier: 
                00:AB:D1:89:86:E7:7F:F4:5F:CB:F2:B1:0B:2C:0D:A4:0A:0B:AA:AC
            X509v3 Authority Key Identifier: 
                keyid:12:CD:60:04:D2:A0:80:9E:70:ED:C6:99:B8:7B:2C:C6:52:FD:19:A1
                DirName:/C=US/ST=OH/L=Columbus/O=VikingVPN/OU=MyOrganizationalUnit/CN=VikingVPN CA/name=EasyRSA/emailAddress=me@myhost.mydomain
                serial:CF:35:85:EE:80:BF:2A:3E

            X509v3 Extended Key Usage: 
                TLS Web Client Authentication
            X509v3 Key Usage: 
                Digital Signature
    Signature Algorithm: md5WithRSAEncryption
         60:ed:c9:50:0b:34:2e:f9:ae:95:51:f5:61:3b:50:75:38:a5:
         bf:68:98:09:a3:b1:da:f5:41:61:47:d1:4a:03:9f:7c:56:39:
         09:6e:d6:06:dc:49:89:d7:84:93:01:7f:82:c8:2a:33:36:9b:
         6c:36:a1:69:fe:dc:89:9c:61:d1:18:6f:f6:40:f3:12:3f:40:
         f7:79:90:59:58:35:35:c8:39:35:0f:2e:d1:68:f5:39:7c:d5:
         04:65:d6:f7:05:ec:16:a7:89:3b:be:f6:83:a2:66:13:c2:15:
         a0:a8:e5:3d:45:62:06:71:d8:ad:df:dd:42:be:8c:9b:6e:03:
         ef:fd:31:59:61:c1:79:46:6a:d8:ab:00:22:d6:a4:72:84:a8:
         15:dd:e8:5e:d5:4f:f9:b7:96:36:21:32:46:73:a2:d3:51:76:
         38:e2:7f:dc:42:ae:22:64:1c:a8:3e:6c:4a:69:2f:4d:a5:78:
         55:69:9b:af:f7:4f:9f:88:c3:8a:2f:13:42:51:15:e5:7e:c1:
         c9:9b:19:5b:b1:1a:75:7e:0f:a9:bc:8d:46:42:4a:36:cd:10:
         30:68:13:fe:6a:4e:c0:af:1a:39:cb:a4:2b:0a:44:a7:b7:63:
         34:4e:c0:89:4d:11:6d:66:88:eb:07:b1:ee:0a:11:4d:74:5f:
         33:e9:53:44:79:bb:fc:40:e3:34:76:86:91:09:c5:87:27:dc:
         92:bb:e9:a8:eb:12:56:88:84:ef:f7:33:a3:a5:87:c1:b3:57:
         c0:98:b8:e9:44:84:8f:de:89:cb:8e:55:ff:55:f3:a4:d8:07:
         b2:c6:0b:40:0a:0a:df:28:51:46:23:8c:d3:7c:7f:39:ee:05:
         f4:02:fb:5b:6a:4e:15:77:f6:f9:ff:54:50:92:11:89:9a:d4:
         9b:b3:f9:7e:9e:13:0b:07:d7:ef:05:52:ec:8e:8e:93:28:35:
         c9:d6:75:95:25:e4:87:b7:f9:de:0a:ce:ae:d8:0f:7a:5f:66:
         25:59:7c:30:06:3a:c6:d0:ef:8f:01:7f:b9:7e:18:c1:2a:49:
         56:fb:9c:52:5e:30:5f:52:2b:4c:fa:b3:53:1d:2f:a4:53:e3:
         83:43:4c:8f:21:67:29:6c:e5:39:a4:99:a5:08:18:13:b5:f7:
         28:1b:59:cb:35:16:da:00:e2:a2:22:36:78:41:1b:46:7f:f3:
         53:48:5f:7a:2b:8d:be:26:4f:6a:82:94:f6:ee:28:85:40:43:
         90:31:fc:54:c9:00:31:a1:5d:db:dc:3d:8d:fd:72:b8:fd:17:
         71:51:d5:57:e8:25:18:3b:49:ff:27:79:a7:7c:46:08:a2:dd:
         b4:61:cf:50:2e:a2:d8:92
-----BEGIN CERTIFICATE-----
MIIGrTCCBJWgAwIBAgICFp0wDQYJKoZIhvcNAQEEBQAwgawxCzAJBgNVBAYTAlVT
MQswCQYDVQQIEwJPSDERMA8GA1UEBxMIQ29sdW1idXMxEjAQBgNVBAoTCVZpa2lu
Z1ZQTjEdMBsGA1UECxMUTXlPcmdhbml6YXRpb25hbFVuaXQxFTATBgNVBAMTDFZp
a2luZ1ZQTiBDQTEQMA4GA1UEKRMHRWFzeVJTQTEhMB8GCSqGSIb3DQEJARYSbWVA
bXlob3N0Lm15ZG9tYWluMB4XDTE1MDcxMjE3NTgxNVoXDTI1MDcwOTE3NTgxNVow
HzEdMBsGA1UEAxMUQ2xpZW50MTY3NkNlcnRlMDc1ZmEwggIiMA0GCSqGSIb3DQEB
AQUAA4ICDwAwggIKAoICAQC3mG1DMsmf4ZWa9Z+aTgUdhy0h+F/lWOgFJAm51vIo
gViYj/jD+5u9yTe6qDcLRoOqRdweCunP3Z98ZilGIL1lBtQhiH5NSTikLOG/vFR/
lzcmxkeUVw9uJzrF5oUh/xUzAvIGBdQoxdnTfUTZlUdz08ImW5227BnEJ2e7Xf8X
bDKAr0lzvxsY+aMdO3p3gYGK0SlsEbUEoPFJdkFw+cgwcb6pR++P9HRsW1MSKhRu
EAyI3dpXAZ7vQklB0CGUsXNpEjw5hM7e+5JhCVptp94VIXwd0NakgZMb1Itq2DF9
LGyXLhQ02XDLqMWymtwZY8XXFi4AthW2AVT+SnwiY2VjsiFnkm3Tn2T40bLO1gck
hQnYPnoAGwtbKblQC7NhxwAlWapV1+hatw3byHAD/g97p0KYtU1zU6SRnatrygTJ
KT3w47iNpAH1CdSIPRtaSzxhn7w6zy+luGamRaub16dsXGStomhlmHr0PKBZjEWC
nMHQnZRbK5lWsKLms5LLLqpip7ZkjEDHuMrJpKjMN6HpVHsXrrKgLJW1zxYXKMmX
FVy15LL1PaGE0zvw7E8//H/iBVzZpvwZPv72BCiIEvDILbDR5Gji6WPlprT6Ffgr
KL1GrIlnFhhS/s5MdHm/QxZEEVYvj9wo0ipJBs03027BSqOmKJ4D2bcMyLMMWw+a
8QIDAQABo4IBYzCCAV8wCQYDVR0TBAIwADAtBglghkgBhvhCAQ0EIBYeRWFzeS1S
U0EgR2VuZXJhdGVkIENlcnRpZmljYXRlMB0GA1UdDgQWBBQAq9GJhud/9F/L8rEL
LA2kCguqrDCB4QYDVR0jBIHZMIHWgBQSzWAE0qCAnnDtxpm4eyzGUv0ZoaGBsqSB
rzCBrDELMAkGA1UEBhMCVVMxCzAJBgNVBAgTAk9IMREwDwYDVQQHEwhDb2x1bWJ1
czESMBAGA1UEChMJVmlraW5nVlBOMR0wGwYDVQQLExRNeU9yZ2FuaXphdGlvbmFs
VW5pdDEVMBMGA1UEAxMMVmlraW5nVlBOIENBMRAwDgYDVQQpEwdFYXN5UlNBMSEw
HwYJKoZIhvcNAQkBFhJtZUBteWhvc3QubXlkb21haW6CCQDPNYXugL8qPjATBgNV
HSUEDDAKBggrBgEFBQcDAjALBgNVHQ8EBAMCB4AwDQYJKoZIhvcNAQEEBQADggIB
AGDtyVALNC75rpVR9WE7UHU4pb9omAmjsdr1QWFH0UoDn3xWOQlu1gbcSYnXhJMB
f4LIKjM2m2w2oWn+3ImcYdEYb/ZA8xI/QPd5kFlYNTXIOTUPLtFo9Tl81QRl1vcF
7BaniTu+9oOiZhPCFaCo5T1FYgZx2K3f3UK+jJtuA+/9MVlhwXlGatirACLWpHKE
qBXd6F7VT/m3ljYhMkZzotNRdjjif9xCriJkHKg+bEppL02leFVpm6/3T5+Iw4ov
E0JRFeV+wcmbGVuxGnV+D6m8jUZCSjbNEDBoE/5qTsCvGjnLpCsKRKe3YzROwIlN
EW1miOsHse4KEU10XzPpU0R5u/xA4zR2hpEJxYcn3JK76ajrElaIhO/3M6Olh8Gz
V8CYuOlEhI/eicuOVf9V86TYB7LGC0AKCt8oUUYjjNN8fznuBfQC+1tqThV39vn/
VFCSEYma1Juz+X6eEwsH1+8FUuyOjpMoNcnWdZUl5Ie3+d4Kzq7YD3pfZiVZfDAG
OsbQ748Bf7l+GMEqSVb7nFJeMF9SK0z6s1MdL6RT44NDTI8hZyls5TmkmaUIGBO1
9ygbWcs1FtoA4qIiNnhBG0Z/81NIX3orjb4mT2qClPbuKIVAQ5Ax/FTJADGhXdvc
PY39crj9F3FR1VfoJRg7Sf8nead8Rgii3bRhz1AuotiS
-----END CERTIFICATE-----
