Certificate:
    Data:
        Version: 3 (0x2)
        Serial Number: 7653 (0x1de5)
    Signature Algorithm: md5WithRSAEncryption
        Issuer: C=US, ST=OH, L=Columbus, O=VikingVPN, OU=MyOrganizationalUnit, CN=VikingVPN CA/name=EasyRSA/emailAddress=me@myhost.mydomain
        Validity
            Not Before: Apr  3 00:49:10 2016 GMT
            Not After : Apr  1 00:49:10 2026 GMT
        Subject: CN=Client1969Cert5671d4
        Subject Public Key Info:
            Public Key Algorithm: rsaEncryption
                Public-Key: (4096 bit)
                Modulus:
                    00:e3:f3:42:50:4d:40:89:4d:da:67:3b:d0:78:0a:
                    39:68:d2:77:41:1d:09:fa:d2:a5:a8:09:a7:90:95:
                    ee:2d:07:42:df:92:69:9f:6a:bd:08:e0:8c:02:01:
                    65:59:49:29:f5:c4:51:14:b4:35:bf:14:43:f1:82:
                    23:47:14:1b:1b:d8:33:71:36:fa:58:23:0e:41:de:
                    5f:fb:1a:53:6a:41:b7:2b:6b:8e:82:58:52:d7:42:
                    9f:78:05:51:4d:b7:0a:6e:13:e2:9d:87:b6:fd:1f:
                    ab:16:72:8a:91:fc:f9:57:d6:df:34:a1:34:1a:fe:
                    a8:93:d6:58:7f:81:ee:de:5a:f8:ac:98:60:be:32:
                    0d:6b:eb:bb:03:a9:f3:0b:2b:12:a9:99:13:39:97:
                    4e:6f:b7:e8:00:3e:4a:b3:5f:b0:ed:e9:92:aa:dc:
                    7f:92:b3:ba:56:7c:b5:9e:df:56:a2:a4:f3:e5:e3:
                    81:80:fb:ea:a4:54:85:df:14:4f:68:cd:95:63:71:
                    0f:a0:34:d8:2a:d2:a2:49:7c:d1:f1:ec:d7:9b:21:
                    a2:e2:6b:be:17:81:d9:97:36:56:90:dc:a4:cb:38:
                    13:08:41:72:68:0a:99:8f:3f:9f:22:4e:86:d7:fa:
                    03:1b:db:88:12:b2:63:aa:98:30:cb:d6:49:f4:7e:
                    fd:f7:76:de:a6:91:dd:d6:ed:2b:8e:8a:13:79:0a:
                    90:84:48:fa:4c:ea:3a:ab:ac:60:b0:c1:64:52:b5:
                    ac:3b:f8:13:b6:e5:3d:f7:68:5f:02:ea:62:02:68:
                    0b:a0:89:20:95:92:69:55:9d:e1:64:cb:96:b2:95:
                    37:5e:96:32:4e:1e:7f:a2:44:23:90:bd:fb:43:c8:
                    59:b9:10:1e:78:aa:21:de:1e:0e:1e:c8:42:ed:97:
                    99:35:9f:db:85:fa:ea:d3:6c:09:e3:77:09:d0:a7:
                    c9:4b:c5:60:a8:24:b0:bf:39:1a:56:0e:c7:22:2c:
                    92:4f:01:84:45:2e:7c:67:fa:a9:07:88:3d:00:37:
                    c5:e7:ca:03:79:6c:3c:a7:70:24:7b:a0:23:7b:06:
                    f6:8f:77:e1:81:4e:fd:6c:73:45:31:9b:4e:03:3f:
                    b2:43:e4:be:a6:bd:be:67:db:40:36:53:5c:05:bc:
                    91:ad:6f:a6:9c:d6:eb:64:db:cb:05:28:91:28:42:
                    21:85:b5:02:e5:ba:62:c4:23:8f:5c:16:bd:c5:d7:
                    d9:55:cd:b9:6f:5f:81:39:6c:ca:88:fb:e9:93:4d:
                    eb:00:2d:6f:cc:8d:de:3e:bc:f1:84:29:23:ab:33:
                    72:0d:01:4a:6e:7d:ba:20:e9:b7:79:3d:0d:77:2c:
                    cd:3f:5f
                Exponent: 65537 (0x10001)
        X509v3 extensions:
            X509v3 Basic Constraints: 
                CA:FALSE
            Netscape Comment: 
                Easy-RSA Generated Certificate
            X509v3 Subject Key Identifier: 
                CA:1C:76:86:3E:62:DA:CB:0D:7C:05:3B:77:72:4E:49:DD:BC:5C:45
            X509v3 Authority Key Identifier: 
                keyid:12:CD:60:04:D2:A0:80:9E:70:ED:C6:99:B8:7B:2C:C6:52:FD:19:A1
                DirName:/C=US/ST=OH/L=Columbus/O=VikingVPN/OU=MyOrganizationalUnit/CN=VikingVPN CA/name=EasyRSA/emailAddress=me@myhost.mydomain
                serial:CF:35:85:EE:80:BF:2A:3E

            X509v3 Extended Key Usage: 
                TLS Web Client Authentication
            X509v3 Key Usage: 
                Digital Signature
    Signature Algorithm: md5WithRSAEncryption
         0a:a2:4e:04:a3:e2:32:a5:ef:58:47:3e:28:c4:18:9d:21:17:
         34:28:25:1c:b6:b4:cb:a8:27:cd:02:f5:1a:5c:19:c4:44:fe:
         7f:3b:02:04:0f:b3:10:e7:e1:4e:87:40:50:ea:0c:21:0d:2b:
         53:ef:4c:45:cb:57:37:4a:b3:94:2a:f3:d7:87:33:90:75:a4:
         47:ab:42:2d:4b:01:03:3c:e9:46:33:c5:b7:ea:f9:e9:50:42:
         bf:ab:6a:91:92:0a:e9:8f:a5:b6:53:dc:a6:54:fa:af:36:78:
         ff:95:ca:ff:83:d7:bb:3c:9a:61:4f:da:9d:70:f4:a7:84:0f:
         b6:24:0d:e0:e5:7c:17:a3:fc:da:5f:60:3e:b7:7e:d7:1b:9f:
         92:d4:0e:00:25:9c:a7:7f:35:37:75:73:45:93:74:92:c7:a4:
         5a:38:86:46:40:5e:0b:48:7a:de:ba:3a:6f:ac:99:02:b3:14:
         3c:79:c5:4e:7a:d2:58:0e:ca:af:16:6a:4b:8c:44:54:fa:de:
         e5:c1:77:07:1f:1b:96:db:b5:73:62:83:ff:1b:cb:42:a8:f6:
         8a:78:76:2b:31:47:2e:0e:55:14:96:04:ce:41:c0:bd:0d:bf:
         24:83:2e:05:ea:91:7d:23:21:93:22:a3:3b:f8:a2:79:57:e7:
         ef:f1:e3:23:6b:37:6a:1f:75:a9:f9:18:de:5c:a1:59:d3:33:
         0d:52:f8:a4:dd:d5:8b:7e:e4:6e:9f:5d:ba:18:6c:9d:94:cf:
         34:fa:f9:3d:67:d3:b9:ae:78:ab:79:ba:b3:1e:35:78:85:45:
         cb:8e:13:ed:35:4e:85:ab:3a:fc:84:3d:32:93:a2:68:60:7e:
         ce:6f:d4:22:86:57:15:bc:57:48:bd:06:d8:80:62:6b:fa:04:
         59:d6:f1:7c:b7:81:a4:e0:3a:a4:b9:ec:35:eb:d0:79:7d:de:
         31:84:b5:aa:c2:86:6b:f4:28:91:33:7e:d0:8b:6e:53:34:88:
         cf:47:ef:41:c4:3d:05:61:46:1e:a3:9b:b3:a6:ed:3e:f7:14:
         f5:29:84:06:e4:62:1d:9c:72:4d:34:fb:20:95:90:9a:f0:b1:
         33:31:cc:48:83:a9:d0:39:97:32:42:98:8e:23:e9:23:f2:c6:
         ea:86:11:69:25:6f:23:4b:8a:02:b1:b5:18:94:46:c8:27:69:
         7a:c1:64:52:8c:ea:6c:10:cb:87:d0:99:2c:f4:b8:8f:7e:af:
         db:58:88:e3:30:60:76:08:05:45:9c:c4:6e:3d:f9:81:c4:24:
         a7:99:d1:90:eb:bd:85:49:fc:93:a4:2f:8a:dc:fe:a9:86:d3:
         23:35:f1:85:03:00:a6:25
-----BEGIN CERTIFICATE-----
MIIGrTCCBJWgAwIBAgICHeUwDQYJKoZIhvcNAQEEBQAwgawxCzAJBgNVBAYTAlVT
MQswCQYDVQQIEwJPSDERMA8GA1UEBxMIQ29sdW1idXMxEjAQBgNVBAoTCVZpa2lu
Z1ZQTjEdMBsGA1UECxMUTXlPcmdhbml6YXRpb25hbFVuaXQxFTATBgNVBAMTDFZp
a2luZ1ZQTiBDQTEQMA4GA1UEKRMHRWFzeVJTQTEhMB8GCSqGSIb3DQEJARYSbWVA
bXlob3N0Lm15ZG9tYWluMB4XDTE2MDQwMzAwNDkxMFoXDTI2MDQwMTAwNDkxMFow
HzEdMBsGA1UEAxMUQ2xpZW50MTk2OUNlcnQ1NjcxZDQwggIiMA0GCSqGSIb3DQEB
AQUAA4ICDwAwggIKAoICAQDj80JQTUCJTdpnO9B4Cjlo0ndBHQn60qWoCaeQle4t
B0Lfkmmfar0I4IwCAWVZSSn1xFEUtDW/FEPxgiNHFBsb2DNxNvpYIw5B3l/7GlNq
Qbcra46CWFLXQp94BVFNtwpuE+Kdh7b9H6sWcoqR/PlX1t80oTQa/qiT1lh/ge7e
WvismGC+Mg1r67sDqfMLKxKpmRM5l05vt+gAPkqzX7Dt6ZKq3H+Ss7pWfLWe31ai
pPPl44GA++qkVIXfFE9ozZVjcQ+gNNgq0qJJfNHx7NebIaLia74XgdmXNlaQ3KTL
OBMIQXJoCpmPP58iTobX+gMb24gSsmOqmDDL1kn0fv33dt6mkd3W7SuOihN5CpCE
SPpM6jqrrGCwwWRStaw7+BO25T33aF8C6mICaAugiSCVkmlVneFky5aylTdeljJO
Hn+iRCOQvftDyFm5EB54qiHeHg4eyELtl5k1n9uF+urTbAnjdwnQp8lLxWCoJLC/
ORpWDsciLJJPAYRFLnxn+qkHiD0AN8XnygN5bDyncCR7oCN7BvaPd+GBTv1sc0Ux
m04DP7JD5L6mvb5n20A2U1wFvJGtb6ac1utk28sFKJEoQiGFtQLlumLEI49cFr3F
19lVzblvX4E5bMqI++mTTesALW/Mjd4+vPGEKSOrM3INAUpufbog6bd5PQ13LM0/
XwIDAQABo4IBYzCCAV8wCQYDVR0TBAIwADAtBglghkgBhvhCAQ0EIBYeRWFzeS1S
U0EgR2VuZXJhdGVkIENlcnRpZmljYXRlMB0GA1UdDgQWBBTKHHaGPmLayw18BTt3
ck5J3bxcRTCB4QYDVR0jBIHZMIHWgBQSzWAE0qCAnnDtxpm4eyzGUv0ZoaGBsqSB
rzCBrDELMAkGA1UEBhMCVVMxCzAJBgNVBAgTAk9IMREwDwYDVQQHEwhDb2x1bWJ1
czESMBAGA1UEChMJVmlraW5nVlBOMR0wGwYDVQQLExRNeU9yZ2FuaXphdGlvbmFs
VW5pdDEVMBMGA1UEAxMMVmlraW5nVlBOIENBMRAwDgYDVQQpEwdFYXN5UlNBMSEw
HwYJKoZIhvcNAQkBFhJtZUBteWhvc3QubXlkb21haW6CCQDPNYXugL8qPjATBgNV
HSUEDDAKBggrBgEFBQcDAjALBgNVHQ8EBAMCB4AwDQYJKoZIhvcNAQEEBQADggIB
AAqiTgSj4jKl71hHPijEGJ0hFzQoJRy2tMuoJ80C9RpcGcRE/n87AgQPsxDn4U6H
QFDqDCENK1PvTEXLVzdKs5Qq89eHM5B1pEerQi1LAQM86UYzxbfq+elQQr+rapGS
CumPpbZT3KZU+q82eP+Vyv+D17s8mmFP2p1w9KeED7YkDeDlfBej/NpfYD63ftcb
n5LUDgAlnKd/NTd1c0WTdJLHpFo4hkZAXgtIet66Om+smQKzFDx5xU560lgOyq8W
akuMRFT63uXBdwcfG5bbtXNig/8by0Ko9op4disxRy4OVRSWBM5BwL0NvySDLgXq
kX0jIZMiozv4onlX5+/x4yNrN2ofdan5GN5coVnTMw1S+KTd1Yt+5G6fXboYbJ2U
zzT6+T1n07mueKt5urMeNXiFRcuOE+01ToWrOvyEPTKTomhgfs5v1CKGVxW8V0i9
BtiAYmv6BFnW8Xy3gaTgOqS57DXr0Hl93jGEtarChmv0KJEzftCLblM0iM9H70HE
PQVhRh6jm7Om7T73FPUphAbkYh2cck00+yCVkJrwsTMxzEiDqdA5lzJCmI4j6SPy
xuqGEWklbyNLigKxtRiURsgnaXrBZFKM6mwQy4fQmSz0uI9+r9tYiOMwYHYIBUWc
xG49+YHEJKeZ0ZDrvYVJ/JOkL4rc/qmG0yM18YUDAKYl
-----END CERTIFICATE-----
