Certificate:
    Data:
        Version: 3 (0x2)
        Serial Number: 1687 (0x697)
    Signature Algorithm: md5WithRSAEncryption
        Issuer: C=US, ST=OH, L=Columbus, O=VikingVPN, OU=MyOrganizationalUnit, CN=VikingVPN CA/name=EasyRSA/emailAddress=me@myhost.mydomain
        Validity
            Not Before: Apr 21 16:40:17 2014 GMT
            Not After : Apr 18 16:40:17 2024 GMT
        Subject: CN=Client603Certfdc170
        Subject Public Key Info:
            Public Key Algorithm: rsaEncryption
                Public-Key: (4096 bit)
                Modulus:
                    00:b3:97:7c:59:ed:b0:61:3f:a4:ac:0c:c5:d3:4b:
                    0d:de:d0:9b:b3:c8:fd:4a:e1:bc:63:0b:7d:7d:2c:
                    56:f1:9a:19:79:58:39:5e:3e:4a:c8:3d:b4:77:13:
                    e6:4e:de:c9:dc:53:9f:3a:39:a9:14:30:36:b3:a3:
                    80:d9:39:f8:26:fa:e4:bb:4d:4f:41:f5:27:18:d5:
                    e8:a9:78:c1:1d:85:98:f8:d3:4f:96:94:a2:80:df:
                    12:d0:b5:94:6f:64:66:c4:71:d1:53:3f:6b:4d:5f:
                    9c:d0:bd:90:4a:b3:5d:2f:93:9e:d1:77:f5:db:00:
                    38:f3:74:72:09:a0:9f:ec:4c:a2:a5:fc:9c:a2:7e:
                    19:8d:b6:33:c5:18:b2:85:19:bc:35:50:1f:87:a2:
                    f9:af:bf:f5:8b:03:d9:df:f0:ab:4b:19:28:66:19:
                    b1:0c:5e:d8:92:40:90:6c:c1:fc:c2:05:f2:af:3e:
                    f7:1e:8e:dc:83:31:00:f9:fa:55:dd:54:38:29:35:
                    f5:3d:30:ff:99:bf:7b:8d:62:c9:8a:8a:8a:14:54:
                    e0:49:6c:da:8a:47:6e:ad:13:19:d3:c1:da:75:11:
                    9c:7d:9f:a6:60:17:61:23:95:ee:4a:11:ae:f0:bd:
                    3d:16:01:cd:e3:ff:2a:04:1c:6e:e0:1c:28:b0:6c:
                    f3:e2:60:2a:be:46:92:9c:bd:f9:3e:48:70:9d:f9:
                    27:42:f7:2f:5f:d3:f9:41:96:a7:b8:1e:8e:c3:e6:
                    04:bc:07:66:31:de:02:de:d1:8b:4c:a0:c9:11:eb:
                    8d:06:b9:6c:57:ac:e5:fd:12:b8:60:0e:0d:14:46:
                    59:05:8b:37:8f:2b:41:76:e6:9f:21:ec:14:1a:cd:
                    26:88:f8:ec:bf:cb:7a:7d:ca:12:b3:d1:ee:5b:91:
                    2b:aa:ea:f1:d8:0c:b9:be:22:32:44:77:2b:e7:61:
                    ab:c8:ab:73:a0:f5:46:20:0a:aa:5c:db:1a:1b:84:
                    b5:b2:0c:be:a1:59:4e:d7:0b:46:45:63:e3:e7:0a:
                    af:61:b7:7c:b0:68:65:d0:bd:3f:d5:7d:86:4d:a3:
                    39:0b:3e:7a:52:7b:36:62:da:fd:a5:6c:46:e9:42:
                    e3:11:56:bd:b5:e9:0e:83:7e:10:3f:64:76:b3:5d:
                    c4:91:c4:05:e4:05:2d:b9:a4:71:2b:c1:5d:89:40:
                    67:39:71:de:a2:c4:05:0d:e5:61:08:40:6d:5a:a0:
                    34:59:98:b2:8c:80:c1:7d:97:2b:1a:96:71:46:f7:
                    4f:8b:87:70:98:cc:93:99:69:1a:2d:f5:fc:6a:ba:
                    f8:df:ed:a9:67:10:d2:60:51:09:05:82:41:dd:fc:
                    a0:eb:91
                Exponent: 65537 (0x10001)
        X509v3 extensions:
            X509v3 Basic Constraints: 
                CA:FALSE
            Netscape Comment: 
                Easy-RSA Generated Certificate
            X509v3 Subject Key Identifier: 
                F9:E1:43:EC:23:5F:0D:19:63:0D:85:32:81:A8:15:E6:F5:1F:21:AD
            X509v3 Authority Key Identifier: 
                keyid:12:CD:60:04:D2:A0:80:9E:70:ED:C6:99:B8:7B:2C:C6:52:FD:19:A1
                DirName:/C=US/ST=OH/L=Columbus/O=VikingVPN/OU=MyOrganizationalUnit/CN=VikingVPN CA/name=EasyRSA/emailAddress=me@myhost.mydomain
                serial:CF:35:85:EE:80:BF:2A:3E

            X509v3 Extended Key Usage: 
                TLS Web Client Authentication
            X509v3 Key Usage: 
                Digital Signature
    Signature Algorithm: md5WithRSAEncryption
         a8:da:76:b7:00:41:05:70:e0:42:b6:be:19:b2:1c:cd:02:1c:
         a5:08:28:14:ed:b7:1c:a1:38:f7:38:40:55:36:80:ac:e4:35:
         4f:23:9b:b2:31:0a:95:17:66:05:7c:8a:cf:6b:76:65:32:32:
         90:65:d4:13:d8:b8:a3:9e:fd:f2:9a:07:7e:1f:2b:f1:4e:1d:
         88:eb:54:62:91:56:e7:8e:fb:a4:e8:1f:8a:74:61:34:8f:8c:
         b8:b3:ae:ca:05:e2:ad:2f:00:f0:83:ab:28:13:74:86:da:f7:
         b9:23:03:fe:6c:25:38:60:e0:7f:26:fe:5e:12:74:99:dd:e0:
         ee:42:49:03:f3:17:ab:e6:5d:b4:bf:8c:3b:19:42:98:a4:9a:
         58:bb:23:a6:2b:df:fb:e0:d4:1a:89:04:df:c8:46:72:dc:6f:
         74:ce:d0:e1:b6:b9:c9:e0:5a:4b:70:85:9e:50:58:db:f6:35:
         dc:08:16:be:76:4e:2f:fe:ff:9b:7c:8c:d5:f2:40:85:d0:c1:
         12:41:37:bf:4e:a0:1d:2c:a2:a6:63:8a:9a:eb:2a:7a:20:26:
         5a:fc:31:d3:ea:06:0a:11:8a:b5:ed:ce:4e:16:29:f2:c6:ec:
         3b:3a:55:c2:48:67:23:64:28:e6:66:a8:c6:24:33:f9:b1:5f:
         c6:78:77:9c:fc:e6:fa:fc:fb:bd:75:2b:3f:3d:03:49:c4:89:
         d9:c3:10:1c:65:2d:ef:65:cc:50:89:45:61:db:6b:b1:f7:0f:
         91:c9:87:e3:36:e7:4e:e3:aa:2d:b3:55:cb:0d:1e:54:be:a5:
         7d:79:2c:9e:77:f1:e4:70:e3:da:79:45:e5:25:6c:96:9a:da:
         6b:0b:08:87:d3:fe:18:a9:b2:0d:c5:d6:0e:76:8e:5a:2e:ac:
         93:46:a7:c0:b1:af:50:32:81:c9:06:c2:fc:b4:7f:9e:8c:7e:
         6a:6e:ea:bc:6b:a0:85:31:d3:ee:0e:58:bf:4c:5d:04:84:d3:
         1d:0f:05:c6:b2:d2:f4:5c:87:ff:36:7a:5d:c3:09:c3:5a:ed:
         f3:96:d9:6d:2c:a1:55:f8:d9:06:c2:09:dc:73:89:3b:69:f0:
         29:57:ea:76:79:e0:4c:04:ad:c6:8d:58:f2:db:94:ac:03:e1:
         fa:e0:fc:cb:fb:e4:58:5b:83:d9:83:fd:60:ad:ba:af:9b:de:
         9d:0e:fb:01:fc:6b:40:70:8b:95:f0:8c:fc:cb:50:8a:90:bc:
         bb:6d:b3:45:53:5e:e5:78:a8:2b:e7:dd:98:2c:a9:16:5d:b8:
         15:fb:f1:dd:0c:13:7c:d7:e4:7e:8a:fb:d9:74:c6:3e:77:e7:
         f2:c3:ff:e3:27:36:7f:28
-----BEGIN CERTIFICATE-----
MIIGrDCCBJSgAwIBAgICBpcwDQYJKoZIhvcNAQEEBQAwgawxCzAJBgNVBAYTAlVT
MQswCQYDVQQIEwJPSDERMA8GA1UEBxMIQ29sdW1idXMxEjAQBgNVBAoTCVZpa2lu
Z1ZQTjEdMBsGA1UECxMUTXlPcmdhbml6YXRpb25hbFVuaXQxFTATBgNVBAMTDFZp
a2luZ1ZQTiBDQTEQMA4GA1UEKRMHRWFzeVJTQTEhMB8GCSqGSIb3DQEJARYSbWVA
bXlob3N0Lm15ZG9tYWluMB4XDTE0MDQyMTE2NDAxN1oXDTI0MDQxODE2NDAxN1ow
HjEcMBoGA1UEAxMTQ2xpZW50NjAzQ2VydGZkYzE3MDCCAiIwDQYJKoZIhvcNAQEB
BQADggIPADCCAgoCggIBALOXfFntsGE/pKwMxdNLDd7Qm7PI/UrhvGMLfX0sVvGa
GXlYOV4+Ssg9tHcT5k7eydxTnzo5qRQwNrOjgNk5+Cb65LtNT0H1JxjV6Kl4wR2F
mPjTT5aUooDfEtC1lG9kZsRx0VM/a01fnNC9kEqzXS+TntF39dsAOPN0cgmgn+xM
oqX8nKJ+GY22M8UYsoUZvDVQH4ei+a+/9YsD2d/wq0sZKGYZsQxe2JJAkGzB/MIF
8q8+9x6O3IMxAPn6Vd1UOCk19T0w/5m/e41iyYqKihRU4Els2opHbq0TGdPB2nUR
nH2fpmAXYSOV7koRrvC9PRYBzeP/KgQcbuAcKLBs8+JgKr5Gkpy9+T5IcJ35J0L3
L1/T+UGWp7gejsPmBLwHZjHeAt7Ri0ygyRHrjQa5bFes5f0SuGAODRRGWQWLN48r
QXbmnyHsFBrNJoj47L/Len3KErPR7luRK6rq8dgMub4iMkR3K+dhq8irc6D1RiAK
qlzbGhuEtbIMvqFZTtcLRkVj4+cKr2G3fLBoZdC9P9V9hk2jOQs+elJ7NmLa/aVs
RulC4xFWvbXpDoN+ED9kdrNdxJHEBeQFLbmkcSvBXYlAZzlx3qLEBQ3lYQhAbVqg
NFmYsoyAwX2XKxqWcUb3T4uHcJjMk5lpGi31/Gq6+N/tqWcQ0mBRCQWCQd38oOuR
AgMBAAGjggFjMIIBXzAJBgNVHRMEAjAAMC0GCWCGSAGG+EIBDQQgFh5FYXN5LVJT
QSBHZW5lcmF0ZWQgQ2VydGlmaWNhdGUwHQYDVR0OBBYEFPnhQ+wjXw0ZYw2FMoGo
Feb1HyGtMIHhBgNVHSMEgdkwgdaAFBLNYATSoICecO3Gmbh7LMZS/RmhoYGypIGv
MIGsMQswCQYDVQQGEwJVUzELMAkGA1UECBMCT0gxETAPBgNVBAcTCENvbHVtYnVz
MRIwEAYDVQQKEwlWaWtpbmdWUE4xHTAbBgNVBAsTFE15T3JnYW5pemF0aW9uYWxV
bml0MRUwEwYDVQQDEwxWaWtpbmdWUE4gQ0ExEDAOBgNVBCkTB0Vhc3lSU0ExITAf
BgkqhkiG9w0BCQEWEm1lQG15aG9zdC5teWRvbWFpboIJAM81he6Avyo+MBMGA1Ud
JQQMMAoGCCsGAQUFBwMCMAsGA1UdDwQEAwIHgDANBgkqhkiG9w0BAQQFAAOCAgEA
qNp2twBBBXDgQra+GbIczQIcpQgoFO23HKE49zhAVTaArOQ1TyObsjEKlRdmBXyK
z2t2ZTIykGXUE9i4o5798poHfh8r8U4diOtUYpFW5477pOgfinRhNI+MuLOuygXi
rS8A8IOrKBN0htr3uSMD/mwlOGDgfyb+XhJ0md3g7kJJA/MXq+ZdtL+MOxlCmKSa
WLsjpivf++DUGokE38hGctxvdM7Q4ba5yeBaS3CFnlBY2/Y13AgWvnZOL/7/m3yM
1fJAhdDBEkE3v06gHSyipmOKmusqeiAmWvwx0+oGChGKte3OThYp8sbsOzpVwkhn
I2Qo5maoxiQz+bFfxnh3nPzm+vz7vXUrPz0DScSJ2cMQHGUt72XMUIlFYdtrsfcP
kcmH4zbnTuOqLbNVyw0eVL6lfXksnnfx5HDj2nlF5SVslpraawsIh9P+GKmyDcXW
DnaOWi6sk0anwLGvUDKByQbC/LR/nox+am7qvGughTHT7g5Yv0xdBITTHQ8FxrLS
9FyH/zZ6XcMJw1rt85bZbSyhVfjZBsIJ3HOJO2nwKVfqdnngTAStxo1Y8tuUrAPh
+uD8y/vkWFuD2YP9YK26r5venQ77AfxrQHCLlfCM/MtQipC8u22zRVNe5XioK+fd
mCypFl24Ffvx3QwTfNfkfor72XTGPnfn8sP/4yc2fyg=
-----END CERTIFICATE-----
