Certificate:
    Data:
        Version: 3 (0x2)
        Serial Number: 1440 (0x5a0)
    Signature Algorithm: md5WithRSAEncryption
        Issuer: C=US, ST=OH, L=Columbus, O=VikingVPN, OU=MyOrganizationalUnit, CN=VikingVPN CA/name=EasyRSA/emailAddress=me@myhost.mydomain
        Validity
            Not Before: Apr  2 07:33:31 2014 GMT
            Not After : Mar 30 07:33:31 2024 GMT
        Subject: CN=Client536Certe0f559
        Subject Public Key Info:
            Public Key Algorithm: rsaEncryption
                Public-Key: (4096 bit)
                Modulus:
                    00:a2:fe:17:b3:4f:5e:10:7b:80:12:15:86:2e:da:
                    db:a1:9a:1a:77:18:53:ef:3e:61:d6:70:10:25:41:
                    8a:2e:c7:ac:2d:9b:37:66:1f:8a:94:8d:55:32:81:
                    69:af:1f:6a:be:ee:64:c8:b6:ac:46:ed:92:ac:0a:
                    9e:a8:5a:8a:2d:8f:50:f1:41:bd:ed:87:eb:4c:64:
                    3e:ed:fb:70:e3:af:6a:ad:7c:b1:93:ce:4a:49:c2:
                    b7:f1:34:33:50:b0:3b:30:52:c2:e3:64:97:61:2f:
                    af:f6:14:a2:39:17:a0:80:4d:f5:48:8d:e9:7f:ed:
                    48:dc:1b:e6:3f:f8:66:21:bd:12:32:f7:fd:e7:84:
                    15:0d:be:d3:15:50:15:4d:2a:0b:c5:ea:22:95:62:
                    8c:f8:f4:dc:e1:d2:0b:c7:48:b0:13:31:93:9e:56:
                    3b:40:d5:a8:a7:3c:67:62:33:55:31:73:ce:7e:76:
                    e9:6e:3e:d8:e2:51:5e:1a:80:a6:82:2e:e7:28:08:
                    a8:f8:83:be:44:67:72:a7:c7:3a:14:e8:64:6d:e0:
                    04:76:a2:0a:0e:b3:fb:e9:4b:16:00:73:87:ce:93:
                    d5:89:74:8b:52:ab:43:1e:61:a5:70:56:3c:35:60:
                    21:1e:87:8a:55:51:68:81:70:f8:94:2e:ea:c6:f5:
                    37:d3:f8:c5:a7:9c:44:9b:f8:72:48:cc:44:04:07:
                    68:56:38:f1:83:70:8c:15:51:6d:32:9b:74:48:d6:
                    76:0f:2d:a7:87:f0:8d:f9:6b:51:14:d2:3f:dd:72:
                    53:4b:53:6d:4d:b8:1c:e6:07:f1:78:d1:11:ae:a8:
                    81:f1:8d:3a:6d:a9:f8:8a:0c:77:66:06:00:3c:83:
                    ed:b3:2c:94:32:b1:6d:9b:1a:e1:d4:af:1f:06:b0:
                    41:55:5f:09:6b:18:83:65:e8:d1:c2:49:fc:e0:3d:
                    ad:dc:74:47:7f:59:2c:fa:ef:2b:a0:b9:f2:3f:70:
                    34:c5:c3:57:e2:2a:02:bc:50:71:a6:4b:9e:f8:92:
                    e5:71:bf:c1:ae:83:72:4e:11:ee:ec:a2:d2:ee:8a:
                    8f:50:7e:a6:b1:c4:d4:b5:63:b7:a6:ed:67:16:a5:
                    4c:dc:da:bb:a9:a2:37:e5:f8:92:37:65:74:59:1e:
                    7b:73:cf:5a:98:b1:42:06:77:f4:3a:b4:4a:20:11:
                    06:ca:bc:9d:53:d8:d6:f8:f0:20:ab:2a:98:52:8d:
                    5d:7e:24:7e:85:d8:45:e5:59:f7:b2:b4:e3:cc:84:
                    c5:67:4a:ca:ba:59:26:2e:f9:8e:b9:3f:9b:b0:74:
                    d9:06:49:4b:e8:e1:54:15:69:62:16:e5:c1:98:61:
                    7f:c7:ad
                Exponent: 65537 (0x10001)
        X509v3 extensions:
            X509v3 Basic Constraints: 
                CA:FALSE
            Netscape Comment: 
                Easy-RSA Generated Certificate
            X509v3 Subject Key Identifier: 
                24:5E:29:16:84:64:30:B0:F3:1A:AA:28:C9:23:5E:6C:D1:9B:CD:40
            X509v3 Authority Key Identifier: 
                keyid:12:CD:60:04:D2:A0:80:9E:70:ED:C6:99:B8:7B:2C:C6:52:FD:19:A1
                DirName:/C=US/ST=OH/L=Columbus/O=VikingVPN/OU=MyOrganizationalUnit/CN=VikingVPN CA/name=EasyRSA/emailAddress=me@myhost.mydomain
                serial:CF:35:85:EE:80:BF:2A:3E

            X509v3 Extended Key Usage: 
                TLS Web Client Authentication
            X509v3 Key Usage: 
                Digital Signature
    Signature Algorithm: md5WithRSAEncryption
         31:5b:ac:12:2b:01:ca:f2:49:00:32:65:f6:4a:8f:f1:4b:ad:
         fc:b6:c4:cd:2c:d3:e7:26:2e:bb:30:02:82:15:ea:e0:fa:d9:
         99:b2:5a:95:8e:60:77:e0:21:b7:df:29:e0:17:6b:99:c3:1d:
         a5:26:8a:ba:e5:88:ed:a3:d5:0f:70:6e:d3:08:0c:33:47:7c:
         9c:33:09:25:e8:ee:4e:1a:c3:b5:30:8c:2a:de:a3:6c:60:30:
         15:e4:6a:89:92:5c:95:1f:84:ad:90:f4:94:bc:4a:39:10:cb:
         ba:9a:a0:94:c0:63:8c:a4:b6:da:bb:2f:54:5f:0d:da:dc:67:
         86:3e:18:b9:10:98:78:66:7b:5f:ff:3e:6b:a8:e8:f9:27:a3:
         af:ed:cb:de:9e:68:c3:8f:b1:7f:0d:e9:66:af:55:e4:27:21:
         86:72:95:7e:65:da:15:60:1f:ba:79:0b:35:5e:8f:db:12:b7:
         d4:79:0a:5d:c8:5b:e9:7f:c9:02:78:cd:52:ba:2d:77:b2:5b:
         17:b2:3a:45:41:c0:c9:1c:4a:2e:ab:97:e2:ce:82:38:31:10:
         22:ef:57:60:7e:3e:4d:37:af:39:01:80:c0:30:aa:90:01:9c:
         79:5f:7a:7a:85:de:08:f3:46:29:99:05:bd:ab:a2:50:00:eb:
         28:93:9f:fb:fe:8c:03:09:cb:36:ff:c6:15:d7:c6:1b:87:8c:
         54:a7:aa:55:7d:e4:30:31:24:e0:22:51:c8:82:ce:25:19:ac:
         c8:48:08:f9:02:58:2b:b6:7c:1d:d2:2f:05:e4:86:86:01:43:
         80:49:48:a1:c3:c3:30:7d:76:51:91:82:3d:76:75:75:a8:bb:
         ec:0f:33:07:0d:4a:1f:0e:a2:0c:e4:cc:0f:ba:e1:35:b9:ba:
         70:74:3a:17:15:26:ba:5d:83:00:c6:fe:1d:57:db:fe:92:68:
         ba:71:d0:fc:fd:82:04:66:bd:c4:dd:b3:20:d9:8b:fe:82:0e:
         0d:7f:f9:1e:2f:00:6a:3c:10:be:b4:b3:53:7b:59:55:5f:41:
         9b:7b:a6:d9:9c:cf:1e:2b:4c:7b:ed:24:54:1f:be:93:4d:87:
         50:f7:94:65:8c:bd:1a:26:70:a3:08:41:0b:f7:0e:77:f5:1f:
         c8:c1:8a:53:ef:36:cb:cd:36:98:1b:51:3e:ed:97:d6:29:19:
         ec:b6:18:2c:56:ca:5b:5c:cf:66:52:4e:fd:1f:2f:cf:fb:1e:
         a2:a2:64:82:05:a6:0f:40:7e:fb:6e:16:f8:3f:a7:f5:4b:b7:
         c4:eb:cb:60:ed:24:f6:c4:ae:6b:23:b3:99:a6:de:a3:04:ce:
         67:ed:53:bf:89:6f:ad:ee
-----BEGIN CERTIFICATE-----
MIIGrDCCBJSgAwIBAgICBaAwDQYJKoZIhvcNAQEEBQAwgawxCzAJBgNVBAYTAlVT
MQswCQYDVQQIEwJPSDERMA8GA1UEBxMIQ29sdW1idXMxEjAQBgNVBAoTCVZpa2lu
Z1ZQTjEdMBsGA1UECxMUTXlPcmdhbml6YXRpb25hbFVuaXQxFTATBgNVBAMTDFZp
a2luZ1ZQTiBDQTEQMA4GA1UEKRMHRWFzeVJTQTEhMB8GCSqGSIb3DQEJARYSbWVA
bXlob3N0Lm15ZG9tYWluMB4XDTE0MDQwMjA3MzMzMVoXDTI0MDMzMDA3MzMzMVow
HjEcMBoGA1UEAxMTQ2xpZW50NTM2Q2VydGUwZjU1OTCCAiIwDQYJKoZIhvcNAQEB
BQADggIPADCCAgoCggIBAKL+F7NPXhB7gBIVhi7a26GaGncYU+8+YdZwECVBii7H
rC2bN2YfipSNVTKBaa8far7uZMi2rEbtkqwKnqhaii2PUPFBve2H60xkPu37cOOv
aq18sZPOSknCt/E0M1CwOzBSwuNkl2Evr/YUojkXoIBN9UiN6X/tSNwb5j/4ZiG9
EjL3/eeEFQ2+0xVQFU0qC8XqIpVijPj03OHSC8dIsBMxk55WO0DVqKc8Z2IzVTFz
zn526W4+2OJRXhqApoIu5ygIqPiDvkRncqfHOhToZG3gBHaiCg6z++lLFgBzh86T
1Yl0i1KrQx5hpXBWPDVgIR6HilVRaIFw+JQu6sb1N9P4xaecRJv4ckjMRAQHaFY4
8YNwjBVRbTKbdEjWdg8tp4fwjflrURTSP91yU0tTbU24HOYH8XjREa6ogfGNOm2p
+IoMd2YGADyD7bMslDKxbZsa4dSvHwawQVVfCWsYg2Xo0cJJ/OA9rdx0R39ZLPrv
K6C58j9wNMXDV+IqArxQcaZLnviS5XG/wa6Dck4R7uyi0u6Kj1B+prHE1LVjt6bt
ZxalTNzau6miN+X4kjdldFkee3PPWpixQgZ39Dq0SiARBsq8nVPY1vjwIKsqmFKN
XX4kfoXYReVZ97K048yExWdKyrpZJi75jrk/m7B02QZJS+jhVBVpYhblwZhhf8et
AgMBAAGjggFjMIIBXzAJBgNVHRMEAjAAMC0GCWCGSAGG+EIBDQQgFh5FYXN5LVJT
QSBHZW5lcmF0ZWQgQ2VydGlmaWNhdGUwHQYDVR0OBBYEFCReKRaEZDCw8xqqKMkj
XmzRm81AMIHhBgNVHSMEgdkwgdaAFBLNYATSoICecO3Gmbh7LMZS/RmhoYGypIGv
MIGsMQswCQYDVQQGEwJVUzELMAkGA1UECBMCT0gxETAPBgNVBAcTCENvbHVtYnVz
MRIwEAYDVQQKEwlWaWtpbmdWUE4xHTAbBgNVBAsTFE15T3JnYW5pemF0aW9uYWxV
bml0MRUwEwYDVQQDEwxWaWtpbmdWUE4gQ0ExEDAOBgNVBCkTB0Vhc3lSU0ExITAf
BgkqhkiG9w0BCQEWEm1lQG15aG9zdC5teWRvbWFpboIJAM81he6Avyo+MBMGA1Ud
JQQMMAoGCCsGAQUFBwMCMAsGA1UdDwQEAwIHgDANBgkqhkiG9w0BAQQFAAOCAgEA
MVusEisByvJJADJl9kqP8Uut/LbEzSzT5yYuuzACghXq4PrZmbJalY5gd+Aht98p
4BdrmcMdpSaKuuWI7aPVD3Bu0wgMM0d8nDMJJejuThrDtTCMKt6jbGAwFeRqiZJc
lR+ErZD0lLxKORDLupqglMBjjKS22rsvVF8N2txnhj4YuRCYeGZ7X/8+a6jo+Sej
r+3L3p5ow4+xfw3pZq9V5CchhnKVfmXaFWAfunkLNV6P2xK31HkKXchb6X/JAnjN
Urotd7JbF7I6RUHAyRxKLquX4s6CODEQIu9XYH4+TTevOQGAwDCqkAGceV96eoXe
CPNGKZkFvauiUADrKJOf+/6MAwnLNv/GFdfGG4eMVKeqVX3kMDEk4CJRyILOJRms
yEgI+QJYK7Z8HdIvBeSGhgFDgElIocPDMH12UZGCPXZ1dai77A8zBw1KHw6iDOTM
D7rhNbm6cHQ6FxUmul2DAMb+HVfb/pJounHQ/P2CBGa9xN2zINmL/oIODX/5Hi8A
ajwQvrSzU3tZVV9Bm3um2ZzPHitMe+0kVB++k02HUPeUZYy9GiZwowhBC/cOd/Uf
yMGKU+82y802mBtRPu2X1ikZ7LYYLFbKW1zPZlJO/R8vz/seoqJkggWmD0B++24W
+D+n9Uu3xOvLYO0k9sSuayOzmabeowTOZ+1Tv4lvre4=
-----END CERTIFICATE-----
