Certificate:
    Data:
        Version: 3 (0x2)
        Serial Number: 9749 (0x2615)
    Signature Algorithm: sha256WithRSAEncryption
        Issuer: C=US, ST=OH, L=Columbus, O=VikingVPN, OU=MyOrganizationalUnit, CN=VikingVPN CA/name=EasyRSA/emailAddress=me@myhost.mydomain
        Validity
            Not Before: Dec 24 09:27:06 2016 GMT
            Not After : Dec 22 09:27:06 2026 GMT
        Subject: CN=Client1218Cert28eff6
        Subject Public Key Info:
            Public Key Algorithm: rsaEncryption
                Public-Key: (4096 bit)
                Modulus:
                    00:b2:a6:20:18:d9:0b:07:0f:6b:93:82:e7:56:3b:
                    ed:ab:c2:34:59:14:e4:7f:d6:74:bf:1f:63:c7:be:
                    44:3e:5d:4f:0e:ac:4c:ad:e9:83:18:ad:27:59:a1:
                    5e:d8:56:58:48:6c:7b:f6:08:e4:9d:2c:9e:87:05:
                    03:01:11:f1:60:63:62:ce:bf:35:10:6c:07:7f:18:
                    58:b2:10:f6:43:0a:f6:dc:9c:1b:fa:e7:3d:34:7b:
                    56:d5:56:09:c7:e9:87:34:d0:07:74:f3:33:71:ee:
                    58:1f:8f:3d:c3:c9:b9:29:4f:b3:35:dc:0f:16:d3:
                    21:34:f5:7c:83:ad:8b:85:99:b0:87:63:3a:46:04:
                    20:29:ef:fe:d5:10:8f:5b:ca:4e:7e:c1:ab:fd:b6:
                    29:ae:09:23:8f:54:84:7b:76:f7:24:da:ac:11:ef:
                    78:36:21:3a:97:41:0f:74:8d:88:2f:57:af:b8:c6:
                    5b:cc:6b:0f:a7:9a:df:32:86:7a:a4:8a:4b:87:d4:
                    02:05:a7:9e:72:bb:37:67:05:cf:93:60:d4:ed:ec:
                    a7:c3:e1:c4:f7:b8:70:18:ee:e3:98:92:ad:ad:db:
                    69:c4:c9:86:80:48:f2:f3:e8:66:0a:92:aa:2c:ea:
                    41:fc:8a:20:c1:4e:9b:87:94:10:d4:22:19:5d:b1:
                    e8:3d:e8:60:3a:21:76:4f:f3:cb:0c:65:93:3e:15:
                    a6:60:0f:2a:13:87:04:63:98:5b:17:f2:47:9f:8e:
                    ca:52:8a:f4:31:aa:ff:20:b1:a1:b9:9b:3e:56:75:
                    b0:ca:ec:d9:95:29:b8:6f:10:59:5a:55:f3:1b:14:
                    c7:b2:ab:43:e5:b3:d9:80:ae:de:f1:cc:e6:b9:cb:
                    38:bb:8d:e9:26:86:66:e3:72:61:d4:e3:22:54:02:
                    70:26:1d:07:03:d2:b3:4d:1c:0e:fb:21:a6:62:ea:
                    6e:d5:79:95:f5:ad:74:c4:20:ea:e8:65:db:64:e8:
                    19:57:eb:f9:29:df:68:7c:ac:b6:5c:7b:f2:43:99:
                    17:8f:b6:e8:6c:ea:ad:3f:31:3a:da:eb:54:59:44:
                    14:25:49:06:a6:5d:c3:ba:76:de:fb:66:fe:86:3d:
                    a9:e0:73:68:ac:b5:3a:67:01:d6:11:bf:97:0b:72:
                    62:31:f3:10:38:0a:c2:79:dc:9b:0a:5d:14:d2:3f:
                    15:5b:35:95:0e:4f:d3:ae:6f:85:76:d7:07:15:f3:
                    5d:d8:e3:db:33:61:ec:9e:79:18:4a:9d:e0:7d:06:
                    d6:a8:1f:64:13:fc:c1:6f:8e:a1:1c:66:9e:b9:b0:
                    d9:de:40:d2:a6:c5:28:45:dc:e1:5b:6f:1f:33:9b:
                    c6:05:d5
                Exponent: 65537 (0x10001)
        X509v3 extensions:
            X509v3 Basic Constraints: 
                CA:FALSE
            Netscape Comment: 
                Easy-RSA Generated Certificate
            X509v3 Subject Key Identifier: 
                DF:9F:78:D2:E8:30:F4:A8:95:4F:A5:F1:BA:01:7E:9D:01:19:7F:BF
            X509v3 Authority Key Identifier: 
                keyid:12:CD:60:04:D2:A0:80:9E:70:ED:C6:99:B8:7B:2C:C6:52:FD:19:A1
                DirName:/C=US/ST=OH/L=Columbus/O=VikingVPN/OU=MyOrganizationalUnit/CN=VikingVPN CA/name=EasyRSA/emailAddress=me@myhost.mydomain
                serial:CF:35:85:EE:80:BF:2A:3E

            X509v3 Extended Key Usage: 
                TLS Web Client Authentication
            X509v3 Key Usage: 
                Digital Signature
    Signature Algorithm: sha256WithRSAEncryption
         ea:cc:68:1c:00:fb:a6:97:fd:0a:59:88:47:55:d9:97:af:67:
         e4:8c:dd:81:5c:68:30:e5:eb:89:7d:91:07:97:89:75:bd:10:
         f6:21:2d:e7:eb:c9:ac:5e:6d:63:b3:ef:52:89:db:62:4b:5d:
         98:2a:c0:9c:b2:e6:e7:df:17:59:e3:5b:98:f1:13:bf:4b:89:
         da:f6:26:e7:f3:19:80:bf:eb:f3:33:a8:b8:99:83:55:30:fe:
         ea:55:c8:bd:b7:a1:b4:2c:b7:f3:40:6b:04:31:22:db:dd:5b:
         a0:61:dc:a6:55:cc:f1:a8:d1:d6:85:75:91:2f:e6:71:15:54:
         e4:c8:fa:be:bc:ef:12:c8:6f:ba:48:4a:ae:6d:c2:eb:23:56:
         b9:51:b8:7c:d4:75:ff:bd:3e:09:1b:ac:d2:83:f4:20:51:e7:
         52:54:c6:04:d6:73:2c:7f:d1:7c:c2:0f:9e:31:8c:0c:68:2f:
         4a:71:56:4e:f4:d3:68:49:ce:70:7c:bb:13:20:c4:06:23:c4:
         9c:88:e4:84:90:61:be:89:79:fa:41:79:6f:f7:95:1a:52:e4:
         0c:71:f6:90:5e:28:d4:4c:0f:cf:82:97:75:97:9d:b7:d9:cb:
         ac:bb:13:ec:68:ca:c5:05:77:e3:d6:bc:32:20:11:21:b8:40:
         aa:a7:c9:56:8c:85:6d:66:87:cd:03:2e:38:f1:23:bb:04:95:
         3e:19:69:81:aa:da:a0:66:68:22:c6:23:9b:44:7f:14:b1:8f:
         ea:bb:51:fb:78:8d:0c:77:cf:5c:78:7d:35:18:f4:d2:c1:3d:
         4a:29:cf:93:a4:ea:6e:19:94:83:78:0d:cd:77:a0:61:38:3b:
         be:de:80:4a:93:03:f9:42:6a:0d:87:af:c9:60:62:77:9d:cd:
         43:4e:9c:00:ce:ba:d1:15:17:8a:fb:90:83:76:60:f4:c8:f4:
         c3:e0:4e:07:a9:21:9a:77:ce:87:c5:f6:46:5c:d4:eb:2a:e8:
         2d:a8:70:83:14:d5:2f:38:20:e6:ae:e6:c0:f3:a6:92:b4:a4:
         e0:fb:5f:ea:2d:10:5c:82:6b:9a:ef:1e:74:2c:8b:8b:42:86:
         6a:b5:8c:9f:95:6a:86:2f:07:46:03:34:6c:3b:ac:51:36:ec:
         c9:44:75:dc:ee:c8:b5:df:42:93:e8:97:b6:26:54:c9:93:15:
         e6:e1:fc:32:75:32:52:e0:68:ea:76:ab:8e:3a:e8:47:22:9b:
         f7:51:21:aa:bd:94:04:a3:79:d7:9e:48:d0:ab:7e:3a:97:f7:
         c6:00:71:18:ba:8c:9b:f4:82:f9:d9:8d:88:ad:58:15:05:85:
         31:3a:82:17:d7:ab:84:d8
-----BEGIN CERTIFICATE-----
MIIGrTCCBJWgAwIBAgICJhUwDQYJKoZIhvcNAQELBQAwgawxCzAJBgNVBAYTAlVT
MQswCQYDVQQIEwJPSDERMA8GA1UEBxMIQ29sdW1idXMxEjAQBgNVBAoTCVZpa2lu
Z1ZQTjEdMBsGA1UECxMUTXlPcmdhbml6YXRpb25hbFVuaXQxFTATBgNVBAMTDFZp
a2luZ1ZQTiBDQTEQMA4GA1UEKRMHRWFzeVJTQTEhMB8GCSqGSIb3DQEJARYSbWVA
bXlob3N0Lm15ZG9tYWluMB4XDTE2MTIyNDA5MjcwNloXDTI2MTIyMjA5MjcwNlow
HzEdMBsGA1UEAxMUQ2xpZW50MTIxOENlcnQyOGVmZjYwggIiMA0GCSqGSIb3DQEB
AQUAA4ICDwAwggIKAoICAQCypiAY2QsHD2uTgudWO+2rwjRZFOR/1nS/H2PHvkQ+
XU8OrEyt6YMYrSdZoV7YVlhIbHv2COSdLJ6HBQMBEfFgY2LOvzUQbAd/GFiyEPZD
CvbcnBv65z00e1bVVgnH6Yc00Ad08zNx7lgfjz3DybkpT7M13A8W0yE09XyDrYuF
mbCHYzpGBCAp7/7VEI9byk5+wav9timuCSOPVIR7dvck2qwR73g2ITqXQQ90jYgv
V6+4xlvMaw+nmt8yhnqkikuH1AIFp55yuzdnBc+TYNTt7KfD4cT3uHAY7uOYkq2t
22nEyYaASPLz6GYKkqos6kH8iiDBTpuHlBDUIhldseg96GA6IXZP88sMZZM+FaZg
DyoThwRjmFsX8kefjspSivQxqv8gsaG5mz5WdbDK7NmVKbhvEFlaVfMbFMeyq0Pl
s9mArt7xzOa5yzi7jekmhmbjcmHU4yJUAnAmHQcD0rNNHA77IaZi6m7VeZX1rXTE
IOroZdtk6BlX6/kp32h8rLZce/JDmRePtuhs6q0/MTra61RZRBQlSQamXcO6dt77
Zv6GPangc2istTpnAdYRv5cLcmIx8xA4CsJ53JsKXRTSPxVbNZUOT9Oub4V21wcV
813Y49szYeyeeRhKneB9BtaoH2QT/MFvjqEcZp65sNneQNKmxShF3OFbbx8zm8YF
1QIDAQABo4IBYzCCAV8wCQYDVR0TBAIwADAtBglghkgBhvhCAQ0EIBYeRWFzeS1S
U0EgR2VuZXJhdGVkIENlcnRpZmljYXRlMB0GA1UdDgQWBBTfn3jS6DD0qJVPpfG6
AX6dARl/vzCB4QYDVR0jBIHZMIHWgBQSzWAE0qCAnnDtxpm4eyzGUv0ZoaGBsqSB
rzCBrDELMAkGA1UEBhMCVVMxCzAJBgNVBAgTAk9IMREwDwYDVQQHEwhDb2x1bWJ1
czESMBAGA1UEChMJVmlraW5nVlBOMR0wGwYDVQQLExRNeU9yZ2FuaXphdGlvbmFs
VW5pdDEVMBMGA1UEAxMMVmlraW5nVlBOIENBMRAwDgYDVQQpEwdFYXN5UlNBMSEw
HwYJKoZIhvcNAQkBFhJtZUBteWhvc3QubXlkb21haW6CCQDPNYXugL8qPjATBgNV
HSUEDDAKBggrBgEFBQcDAjALBgNVHQ8EBAMCB4AwDQYJKoZIhvcNAQELBQADggIB
AOrMaBwA+6aX/QpZiEdV2ZevZ+SM3YFcaDDl64l9kQeXiXW9EPYhLefryaxebWOz
71KJ22JLXZgqwJyy5uffF1njW5jxE79Lidr2JufzGYC/6/MzqLiZg1Uw/upVyL23
obQst/NAawQxItvdW6Bh3KZVzPGo0daFdZEv5nEVVOTI+r687xLIb7pISq5twusj
VrlRuHzUdf+9PgkbrNKD9CBR51JUxgTWcyx/0XzCD54xjAxoL0pxVk7002hJznB8
uxMgxAYjxJyI5ISQYb6JefpBeW/3lRpS5Axx9pBeKNRMD8+Cl3WXnbfZy6y7E+xo
ysUFd+PWvDIgESG4QKqnyVaMhW1mh80DLjjxI7sElT4ZaYGq2qBmaCLGI5tEfxSx
j+q7Uft4jQx3z1x4fTUY9NLBPUopz5Ok6m4ZlIN4Dc13oGE4O77egEqTA/lCag2H
r8lgYnedzUNOnADOutEVF4r7kIN2YPTI9MPgTgepIZp3zofF9kZc1Osq6C2ocIMU
1S84IOau5sDzppK0pOD7X+otEFyCa5rvHnQsi4tChmq1jJ+VaoYvB0YDNGw7rFE2
7MlEddzuyLXfQpPol7YmVMmTFebh/DJ1MlLgaOp2q4466Ecim/dRIaq9lASjedee
SNCrfjqX98YAcRi6jJv0gvnZjYitWBUFhTE6ghfXq4TY
-----END CERTIFICATE-----
