Certificate:
    Data:
        Version: 3 (0x2)
        Serial Number: 10924 (0x2aac)
    Signature Algorithm: sha256WithRSAEncryption
        Issuer: C=US, ST=OH, L=Columbus, O=VikingVPN, OU=MyOrganizationalUnit, CN=VikingVPN CA/name=EasyRSA/emailAddress=me@myhost.mydomain
        Validity
            Not Before: May 10 04:35:02 2017 GMT
            Not After : May  8 04:35:02 2027 GMT
        Subject: CN=Client2651Certd57852
        Subject Public Key Info:
            Public Key Algorithm: rsaEncryption
                Public-Key: (4096 bit)
                Modulus:
                    00:f2:74:49:e6:48:9d:c6:ad:f5:cf:c6:8d:c5:62:
                    30:f7:94:99:6b:dd:e9:19:5e:d9:bf:6a:57:35:88:
                    38:20:81:3c:6f:c0:62:f6:b7:0c:5b:fb:00:73:97:
                    42:0c:27:e1:77:40:cc:7e:7d:a1:67:52:b7:73:06:
                    23:35:3c:51:a7:e3:ba:47:eb:60:6b:4a:59:18:3e:
                    63:50:64:f7:21:3f:2a:f1:1b:0e:7a:ea:46:ed:e7:
                    4b:a2:e5:b3:59:9b:0e:80:54:c5:54:29:bd:38:99:
                    09:c5:63:fa:13:17:7f:4d:2a:64:c7:10:fb:cf:25:
                    de:1a:bf:01:a5:91:f4:d8:7d:8e:f4:4a:ad:9a:7d:
                    f7:32:42:b3:7f:72:31:0c:c1:31:0e:cb:1f:e2:a0:
                    98:34:c2:5f:cf:a7:d2:18:8f:74:50:4b:db:5f:6b:
                    b8:27:1a:16:1d:b4:03:ff:05:a4:73:0b:06:76:b3:
                    0b:21:2f:90:44:8b:1f:17:64:d5:26:cf:36:52:81:
                    89:d1:d8:cb:31:2b:bf:de:03:50:66:67:f4:e5:f3:
                    e0:12:df:25:45:ba:e0:76:9a:a0:0b:ef:bd:89:0d:
                    e7:45:ea:12:00:62:59:4c:07:33:b1:96:4e:7c:eb:
                    1e:15:a9:61:10:28:b6:e4:e6:3b:d3:b1:d5:1e:ea:
                    ca:58:45:b2:28:ef:65:58:ff:7a:41:a6:b2:cc:7d:
                    d3:c1:ea:a1:3d:55:65:9d:af:38:e7:32:c6:fa:7c:
                    43:e7:14:7f:f2:f4:c5:13:fd:13:b4:65:d3:04:a6:
                    58:b9:82:d8:c3:59:9e:a5:b4:27:ed:bf:03:92:50:
                    ae:62:4f:5b:63:bd:f3:d0:83:a1:c2:36:6c:a8:7e:
                    a9:58:55:4d:d9:b2:d9:28:5a:15:ec:b6:18:64:80:
                    43:32:b1:8e:de:df:b2:38:92:95:77:98:fa:c1:30:
                    5c:eb:68:ac:8a:be:be:b1:04:74:0d:aa:ea:d4:7b:
                    95:5b:35:36:4d:f8:a6:12:34:e2:c4:e2:ce:2c:ac:
                    29:a1:74:a7:e9:18:54:40:eb:5b:cb:33:c2:c9:db:
                    86:5b:db:22:08:e0:4c:e8:a3:5a:32:0f:8b:43:3e:
                    51:0a:e0:66:9b:e0:b7:5a:92:ef:39:df:3b:cf:ca:
                    82:73:e7:50:ad:ce:8c:a2:21:68:56:6b:c9:0c:4d:
                    87:c9:02:09:f5:97:5f:b8:68:ff:02:9b:a2:32:34:
                    f9:4d:8a:4c:e0:68:43:b4:ff:a3:2a:b3:aa:10:a5:
                    52:48:67:1f:b7:d4:5f:ec:38:00:a6:db:05:03:65:
                    17:3b:e7:2b:0a:f9:c8:8d:7f:d8:d7:a9:0f:b3:97:
                    81:82:67
                Exponent: 65537 (0x10001)
        X509v3 extensions:
            X509v3 Basic Constraints: 
                CA:FALSE
            Netscape Comment: 
                Easy-RSA Generated Certificate
            X509v3 Subject Key Identifier: 
                53:3A:54:CA:9C:0E:F4:C3:C6:5C:F8:F9:41:A6:6B:3D:40:C1:63:10
            X509v3 Authority Key Identifier: 
                keyid:12:CD:60:04:D2:A0:80:9E:70:ED:C6:99:B8:7B:2C:C6:52:FD:19:A1
                DirName:/C=US/ST=OH/L=Columbus/O=VikingVPN/OU=MyOrganizationalUnit/CN=VikingVPN CA/name=EasyRSA/emailAddress=me@myhost.mydomain
                serial:CF:35:85:EE:80:BF:2A:3E

            X509v3 Extended Key Usage: 
                TLS Web Client Authentication
            X509v3 Key Usage: 
                Digital Signature
    Signature Algorithm: sha256WithRSAEncryption
         96:4e:05:ac:16:c8:27:90:20:4b:7b:f2:96:04:46:5c:f2:3a:
         65:77:9f:69:70:32:18:8d:c8:2b:c3:c6:6a:23:05:c6:ad:4b:
         97:10:c0:41:9f:86:7e:5b:82:37:97:91:6d:79:4e:19:ec:bd:
         d4:94:1d:ad:d0:41:e4:d0:96:ca:b7:5d:e2:39:b4:e3:5d:28:
         b7:55:e1:b1:67:8e:ae:e2:f6:dc:9d:ae:71:02:c8:f2:5d:15:
         5f:27:3a:21:29:c4:d5:03:49:5b:ca:07:80:f3:c5:af:34:dc:
         e6:93:43:03:43:3e:66:8c:12:28:35:60:8f:c9:fc:c2:4f:90:
         4f:f3:67:49:29:2b:18:61:3f:03:36:7c:a5:8d:b2:8c:24:9d:
         57:e7:8a:e5:2c:56:46:b9:85:3c:58:ef:2b:74:08:f2:d2:9b:
         5e:54:44:0e:83:40:ab:51:fe:62:03:1a:d5:7f:80:53:ef:33:
         17:e7:e4:0e:7f:89:56:fa:95:67:99:85:e2:32:a5:65:6f:bb:
         1f:cc:01:a1:c6:52:e3:fc:89:88:7b:a0:10:a1:00:39:ac:be:
         d7:d2:62:da:ce:91:ad:8e:71:5d:c1:0a:2f:57:86:58:63:c7:
         03:3f:cc:12:82:de:20:d4:83:8a:94:7d:c7:02:f4:80:1e:f1:
         4a:4b:71:30:9d:84:ef:89:8d:04:e8:46:65:7d:ac:a8:f2:73:
         fc:f7:08:d3:d2:d0:78:d7:47:ee:d6:25:e3:fa:13:45:9c:8b:
         e4:9e:49:2b:ce:af:31:9a:8d:14:8c:c5:e5:6d:8d:04:98:f0:
         d9:5f:fe:28:f3:cc:5e:1a:c2:08:a3:0a:77:af:fe:ef:73:69:
         b4:3f:da:9b:33:9d:3a:9c:54:76:f1:11:6f:84:9f:40:61:bd:
         30:33:00:e7:d9:16:09:f0:07:0a:cc:ce:29:fa:dc:c8:71:fa:
         82:4d:a2:f5:c9:d1:1b:33:80:a9:3b:a3:92:cf:38:03:fd:e3:
         03:1e:32:9b:18:4e:a7:69:25:2e:c2:47:c5:48:b2:d1:1b:1e:
         44:bd:cc:da:1e:8a:4e:db:3c:d2:68:5a:36:11:b1:cb:72:8f:
         38:6e:15:6d:cb:fe:2a:4a:51:68:d7:c5:d2:e9:17:81:b7:30:
         83:0c:6c:7b:d8:89:60:0f:44:68:de:0a:92:7c:5c:a7:82:5a:
         f0:90:33:a2:9f:4f:b7:e7:3a:92:19:23:6a:30:98:37:30:02:
         d1:6e:c8:87:c5:4d:1f:4c:3b:12:2d:7d:58:2f:cb:55:e2:35:
         de:1f:fc:02:21:f1:6b:76:94:40:3a:80:d0:52:48:47:e0:57:
         f8:2d:41:81:f9:ca:1b:8c
-----BEGIN CERTIFICATE-----
MIIGrTCCBJWgAwIBAgICKqwwDQYJKoZIhvcNAQELBQAwgawxCzAJBgNVBAYTAlVT
MQswCQYDVQQIEwJPSDERMA8GA1UEBxMIQ29sdW1idXMxEjAQBgNVBAoTCVZpa2lu
Z1ZQTjEdMBsGA1UECxMUTXlPcmdhbml6YXRpb25hbFVuaXQxFTATBgNVBAMTDFZp
a2luZ1ZQTiBDQTEQMA4GA1UEKRMHRWFzeVJTQTEhMB8GCSqGSIb3DQEJARYSbWVA
bXlob3N0Lm15ZG9tYWluMB4XDTE3MDUxMDA0MzUwMloXDTI3MDUwODA0MzUwMlow
HzEdMBsGA1UEAxMUQ2xpZW50MjY1MUNlcnRkNTc4NTIwggIiMA0GCSqGSIb3DQEB
AQUAA4ICDwAwggIKAoICAQDydEnmSJ3GrfXPxo3FYjD3lJlr3ekZXtm/alc1iDgg
gTxvwGL2twxb+wBzl0IMJ+F3QMx+faFnUrdzBiM1PFGn47pH62BrSlkYPmNQZPch
PyrxGw566kbt50ui5bNZmw6AVMVUKb04mQnFY/oTF39NKmTHEPvPJd4avwGlkfTY
fY70Sq2affcyQrN/cjEMwTEOyx/ioJg0wl/Pp9IYj3RQS9tfa7gnGhYdtAP/BaRz
CwZ2swshL5BEix8XZNUmzzZSgYnR2MsxK7/eA1BmZ/Tl8+AS3yVFuuB2mqAL772J
DedF6hIAYllMBzOxlk586x4VqWEQKLbk5jvTsdUe6spYRbIo72VY/3pBprLMfdPB
6qE9VWWdrzjnMsb6fEPnFH/y9MUT/RO0ZdMEpli5gtjDWZ6ltCftvwOSUK5iT1tj
vfPQg6HCNmyofqlYVU3ZstkoWhXsthhkgEMysY7e37I4kpV3mPrBMFzraKyKvr6x
BHQNqurUe5VbNTZN+KYSNOLE4s4srCmhdKfpGFRA61vLM8LJ24Zb2yII4Ezoo1oy
D4tDPlEK4Gab4Ldaku853zvPyoJz51CtzoyiIWhWa8kMTYfJAgn1l1+4aP8Cm6Iy
NPlNikzgaEO0/6Mqs6oQpVJIZx+31F/sOACm2wUDZRc75ysK+ciNf9jXqQ+zl4GC
ZwIDAQABo4IBYzCCAV8wCQYDVR0TBAIwADAtBglghkgBhvhCAQ0EIBYeRWFzeS1S
U0EgR2VuZXJhdGVkIENlcnRpZmljYXRlMB0GA1UdDgQWBBRTOlTKnA70w8Zc+PlB
pms9QMFjEDCB4QYDVR0jBIHZMIHWgBQSzWAE0qCAnnDtxpm4eyzGUv0ZoaGBsqSB
rzCBrDELMAkGA1UEBhMCVVMxCzAJBgNVBAgTAk9IMREwDwYDVQQHEwhDb2x1bWJ1
czESMBAGA1UEChMJVmlraW5nVlBOMR0wGwYDVQQLExRNeU9yZ2FuaXphdGlvbmFs
VW5pdDEVMBMGA1UEAxMMVmlraW5nVlBOIENBMRAwDgYDVQQpEwdFYXN5UlNBMSEw
HwYJKoZIhvcNAQkBFhJtZUBteWhvc3QubXlkb21haW6CCQDPNYXugL8qPjATBgNV
HSUEDDAKBggrBgEFBQcDAjALBgNVHQ8EBAMCB4AwDQYJKoZIhvcNAQELBQADggIB
AJZOBawWyCeQIEt78pYERlzyOmV3n2lwMhiNyCvDxmojBcatS5cQwEGfhn5bgjeX
kW15ThnsvdSUHa3QQeTQlsq3XeI5tONdKLdV4bFnjq7i9tydrnECyPJdFV8nOiEp
xNUDSVvKB4Dzxa803OaTQwNDPmaMEig1YI/J/MJPkE/zZ0kpKxhhPwM2fKWNsowk
nVfniuUsVka5hTxY7yt0CPLSm15URA6DQKtR/mIDGtV/gFPvMxfn5A5/iVb6lWeZ
heIypWVvux/MAaHGUuP8iYh7oBChADmsvtfSYtrOka2OcV3BCi9XhlhjxwM/zBKC
3iDUg4qUfccC9IAe8UpLcTCdhO+JjQToRmV9rKjyc/z3CNPS0HjXR+7WJeP6E0Wc
i+SeSSvOrzGajRSMxeVtjQSY8Nlf/ijzzF4awgijCnev/u9zabQ/2psznTqcVHbx
EW+En0BhvTAzAOfZFgnwBwrMzin63Mhx+oJNovXJ0RszgKk7o5LPOAP94wMeMpsY
TqdpJS7CR8VIstEbHkS9zNoeik7bPNJoWjYRsctyjzhuFW3L/ipKUWjXxdLpF4G3
MIMMbHvYiWAPRGjeCpJ8XKeCWvCQM6KfT7fnOpIZI2owmDcwAtFuyIfFTR9MOxIt
fVgvy1XiNd4f/AIh8Wt2lEA6gNBSSEfgV/gtQYH5yhuM
-----END CERTIFICATE-----
