Certificate:
    Data:
        Version: 3 (0x2)
        Serial Number: 5461 (0x1555)
    Signature Algorithm: md5WithRSAEncryption
        Issuer: C=US, ST=OH, L=Columbus, O=VikingVPN, OU=MyOrganizationalUnit, CN=VikingVPN CA/name=EasyRSA/emailAddress=me@myhost.mydomain
        Validity
            Not Before: Jun  1 14:32:25 2015 GMT
            Not After : May 29 14:32:25 2025 GMT
        Subject: CN=Client1452Cert9881a0
        Subject Public Key Info:
            Public Key Algorithm: rsaEncryption
                Public-Key: (4096 bit)
                Modulus:
                    00:b0:8c:b8:7d:c0:14:35:ca:2e:e3:89:15:2f:cb:
                    e9:e9:55:d9:13:55:41:78:48:f3:ce:6d:17:29:10:
                    2f:c9:60:6f:d5:99:07:59:40:66:6e:ff:65:6d:d2:
                    89:f5:6c:0a:a3:71:2b:ed:15:c4:1a:4b:02:24:2a:
                    2b:bf:b2:c0:76:ec:7e:5b:43:4e:41:0b:a9:74:ad:
                    f1:5d:b9:a1:cf:35:ac:12:c4:07:11:15:dd:de:10:
                    30:2a:cb:8e:f7:29:d1:1e:23:d9:3d:3b:82:ba:ea:
                    bd:9b:3e:92:33:9a:33:1a:1a:c2:62:fb:ee:e3:bb:
                    53:3d:93:33:5d:ba:3e:5b:d0:cc:39:de:f6:33:3a:
                    f9:44:41:b2:b3:0a:c6:df:c5:40:51:e2:4e:f9:a4:
                    b8:2a:cb:e6:77:30:c0:77:32:fc:22:18:c3:a2:6f:
                    f3:29:68:d0:84:b5:bd:0b:c5:e2:b7:72:45:93:84:
                    08:08:45:2f:34:82:02:40:a8:23:74:d3:85:7a:e1:
                    16:2d:35:b6:ba:a6:bb:d1:70:6f:2f:4c:07:f8:9d:
                    c0:82:d2:d8:a8:9e:ab:17:42:0a:5e:a3:6b:35:2e:
                    97:2d:73:e3:d3:8e:b6:3e:42:51:d6:c8:50:75:45:
                    16:25:a9:a1:80:e8:88:81:5b:71:36:b4:b9:8f:a9:
                    cf:8d:b3:43:ab:4a:2d:03:fd:3d:f0:10:6b:ee:a7:
                    56:19:b0:34:4f:fc:f7:e6:ed:ab:9f:b5:48:f7:09:
                    43:19:df:6a:75:19:97:db:76:15:19:8a:95:1b:9a:
                    4e:f3:26:24:25:22:cf:22:d7:9f:d9:e8:71:df:fa:
                    cf:f8:1a:85:26:48:50:09:93:d6:2a:a5:16:63:90:
                    96:16:3b:d3:dd:ac:84:83:e5:5e:33:52:78:ce:67:
                    bc:f0:43:c3:ae:e3:19:c9:f9:d4:f8:39:40:bb:42:
                    d4:19:7a:d7:cc:d3:2e:ab:74:26:7b:db:ed:8b:48:
                    14:5b:25:7b:e1:32:fe:50:d6:66:2b:3e:01:87:1c:
                    17:35:5d:1d:15:fb:0c:5c:7d:8f:2b:02:8b:8f:65:
                    37:26:d5:f9:a6:91:e7:2f:7e:a3:e8:79:24:3b:46:
                    10:fc:ca:c5:94:7d:0b:d1:76:64:80:04:47:56:df:
                    e0:83:e8:3d:2e:11:97:49:b4:9a:ba:1e:27:40:e8:
                    70:3a:62:d8:52:8e:f8:b2:1f:cb:14:b6:48:79:7d:
                    c0:f0:35:14:ac:09:bd:b2:db:e4:66:23:6c:d3:7e:
                    02:ec:91:86:94:ad:a0:b0:d8:02:ba:c1:19:fc:93:
                    ee:e4:4a:60:98:43:a5:75:ec:8f:a9:34:86:e3:82:
                    6f:88:4f
                Exponent: 65537 (0x10001)
        X509v3 extensions:
            X509v3 Basic Constraints: 
                CA:FALSE
            Netscape Comment: 
                Easy-RSA Generated Certificate
            X509v3 Subject Key Identifier: 
                10:AD:BC:DF:5C:03:54:8A:B5:99:54:62:DD:7F:2D:A6:20:D0:56:85
            X509v3 Authority Key Identifier: 
                keyid:12:CD:60:04:D2:A0:80:9E:70:ED:C6:99:B8:7B:2C:C6:52:FD:19:A1
                DirName:/C=US/ST=OH/L=Columbus/O=VikingVPN/OU=MyOrganizationalUnit/CN=VikingVPN CA/name=EasyRSA/emailAddress=me@myhost.mydomain
                serial:CF:35:85:EE:80:BF:2A:3E

            X509v3 Extended Key Usage: 
                TLS Web Client Authentication
            X509v3 Key Usage: 
                Digital Signature
    Signature Algorithm: md5WithRSAEncryption
         38:18:be:a8:84:88:40:82:3d:0f:4f:04:28:07:cd:9c:bf:19:
         5c:79:c7:67:ac:b5:73:47:e3:12:7f:ca:77:72:fa:a2:8c:92:
         c5:19:20:4d:ff:58:cb:ad:d6:0a:63:1d:73:d0:8e:9c:97:28:
         4b:11:3f:e7:3a:d4:f4:3b:05:75:bf:99:9d:8e:09:59:11:2a:
         eb:11:7b:ca:b5:22:90:9f:7c:40:37:df:ec:e7:b8:ce:ab:78:
         58:6c:d2:2a:c5:b3:dd:05:bb:d0:d7:63:16:94:5b:e3:69:47:
         d8:d5:6f:87:41:63:8c:59:0b:d9:61:b1:0a:5b:83:18:36:04:
         f9:af:82:0e:74:1c:6a:f9:c9:a6:00:f9:ef:1f:1b:9a:c8:08:
         cd:5e:d5:96:dd:10:a9:00:f5:d4:9d:0a:f6:44:aa:fd:14:99:
         1a:e1:b0:af:69:88:24:0f:42:10:29:81:e9:20:9d:87:6c:02:
         0f:ae:1d:95:99:a7:e7:65:18:28:87:98:19:03:9e:67:1a:78:
         54:6c:03:5e:24:aa:ff:bc:08:16:9f:ff:b9:ec:0f:5c:0d:56:
         9b:a1:c3:20:80:ba:0d:7f:4d:b1:e0:9c:4e:3f:db:7d:75:2f:
         da:d3:14:77:a2:ac:f1:fd:82:4f:14:c6:cb:8d:aa:a1:68:13:
         e3:34:4c:80:3a:76:a9:25:b4:89:bf:b8:ff:b2:e1:2d:9b:8d:
         51:88:cb:75:e3:ee:51:44:de:20:90:8a:9b:dc:bb:b9:d1:25:
         62:a9:26:2e:0c:8c:a4:8b:d2:ec:fe:28:57:92:9d:1b:ab:e2:
         29:e7:d2:cd:d8:5f:5a:80:90:ff:f3:6e:f6:31:0e:51:c3:d9:
         9a:cb:d8:66:2c:9b:50:92:65:45:8d:4e:ee:fd:88:49:c1:8e:
         8c:ef:2d:b0:9e:34:b7:58:d1:9d:a7:8f:ea:31:d6:12:57:06:
         2b:db:b7:8e:0a:b5:4c:7e:99:3e:14:f0:f5:b9:59:d3:05:d5:
         e9:60:c2:dd:33:24:f0:e5:58:4a:ae:90:38:70:ee:2c:48:0f:
         3b:bc:de:02:b4:6b:31:56:f3:ae:fd:1f:f4:2c:b6:05:24:a6:
         5b:30:c2:08:c7:68:31:36:22:26:c9:a6:4d:76:e7:52:b0:27:
         f0:b7:d3:06:3e:58:06:ce:bf:d7:f8:e9:d4:94:d5:69:6b:ae:
         f1:b4:c1:0b:88:11:d6:6d:e9:be:15:d6:ce:4c:f5:a1:84:8d:
         3c:7d:fa:01:94:e7:8a:c1:51:6b:b3:d0:06:79:e1:c4:1b:80:
         de:1c:ec:02:11:68:3d:c7:ac:7d:33:3d:8e:37:2e:2f:fc:45:
         43:ba:db:8a:24:fe:10:89
-----BEGIN CERTIFICATE-----
MIIGrTCCBJWgAwIBAgICFVUwDQYJKoZIhvcNAQEEBQAwgawxCzAJBgNVBAYTAlVT
MQswCQYDVQQIEwJPSDERMA8GA1UEBxMIQ29sdW1idXMxEjAQBgNVBAoTCVZpa2lu
Z1ZQTjEdMBsGA1UECxMUTXlPcmdhbml6YXRpb25hbFVuaXQxFTATBgNVBAMTDFZp
a2luZ1ZQTiBDQTEQMA4GA1UEKRMHRWFzeVJTQTEhMB8GCSqGSIb3DQEJARYSbWVA
bXlob3N0Lm15ZG9tYWluMB4XDTE1MDYwMTE0MzIyNVoXDTI1MDUyOTE0MzIyNVow
HzEdMBsGA1UEAxMUQ2xpZW50MTQ1MkNlcnQ5ODgxYTAwggIiMA0GCSqGSIb3DQEB
AQUAA4ICDwAwggIKAoICAQCwjLh9wBQ1yi7jiRUvy+npVdkTVUF4SPPObRcpEC/J
YG/VmQdZQGZu/2Vt0on1bAqjcSvtFcQaSwIkKiu/ssB27H5bQ05BC6l0rfFduaHP
NawSxAcRFd3eEDAqy473KdEeI9k9O4K66r2bPpIzmjMaGsJi++7ju1M9kzNduj5b
0Mw53vYzOvlEQbKzCsbfxUBR4k75pLgqy+Z3MMB3MvwiGMOib/MpaNCEtb0LxeK3
ckWThAgIRS80ggJAqCN004V64RYtNba6prvRcG8vTAf4ncCC0tionqsXQgpeo2s1
Lpctc+PTjrY+QlHWyFB1RRYlqaGA6IiBW3E2tLmPqc+Ns0OrSi0D/T3wEGvup1YZ
sDRP/Pfm7auftUj3CUMZ32p1GZfbdhUZipUbmk7zJiQlIs8i15/Z6HHf+s/4GoUm
SFAJk9YqpRZjkJYWO9PdrISD5V4zUnjOZ7zwQ8Ou4xnJ+dT4OUC7QtQZetfM0y6r
dCZ72+2LSBRbJXvhMv5Q1mYrPgGHHBc1XR0V+wxcfY8rAouPZTcm1fmmkecvfqPo
eSQ7RhD8ysWUfQvRdmSABEdW3+CD6D0uEZdJtJq6HidA6HA6YthSjviyH8sUtkh5
fcDwNRSsCb2y2+RmI2zTfgLskYaUraCw2AK6wRn8k+7kSmCYQ6V17I+pNIbjgm+I
TwIDAQABo4IBYzCCAV8wCQYDVR0TBAIwADAtBglghkgBhvhCAQ0EIBYeRWFzeS1S
U0EgR2VuZXJhdGVkIENlcnRpZmljYXRlMB0GA1UdDgQWBBQQrbzfXANUirWZVGLd
fy2mINBWhTCB4QYDVR0jBIHZMIHWgBQSzWAE0qCAnnDtxpm4eyzGUv0ZoaGBsqSB
rzCBrDELMAkGA1UEBhMCVVMxCzAJBgNVBAgTAk9IMREwDwYDVQQHEwhDb2x1bWJ1
czESMBAGA1UEChMJVmlraW5nVlBOMR0wGwYDVQQLExRNeU9yZ2FuaXphdGlvbmFs
VW5pdDEVMBMGA1UEAxMMVmlraW5nVlBOIENBMRAwDgYDVQQpEwdFYXN5UlNBMSEw
HwYJKoZIhvcNAQkBFhJtZUBteWhvc3QubXlkb21haW6CCQDPNYXugL8qPjATBgNV
HSUEDDAKBggrBgEFBQcDAjALBgNVHQ8EBAMCB4AwDQYJKoZIhvcNAQEEBQADggIB
ADgYvqiEiECCPQ9PBCgHzZy/GVx5x2estXNH4xJ/yndy+qKMksUZIE3/WMut1gpj
HXPQjpyXKEsRP+c61PQ7BXW/mZ2OCVkRKusRe8q1IpCffEA33+znuM6reFhs0irF
s90Fu9DXYxaUW+NpR9jVb4dBY4xZC9lhsQpbgxg2BPmvgg50HGr5yaYA+e8fG5rI
CM1e1ZbdEKkA9dSdCvZEqv0UmRrhsK9piCQPQhApgekgnYdsAg+uHZWZp+dlGCiH
mBkDnmcaeFRsA14kqv+8CBaf/7nsD1wNVpuhwyCAug1/TbHgnE4/2311L9rTFHei
rPH9gk8UxsuNqqFoE+M0TIA6dqkltIm/uP+y4S2bjVGIy3Xj7lFE3iCQipvcu7nR
JWKpJi4MjKSL0uz+KFeSnRur4inn0s3YX1qAkP/zbvYxDlHD2ZrL2GYsm1CSZUWN
Tu79iEnBjozvLbCeNLdY0Z2nj+ox1hJXBivbt44KtUx+mT4U8PW5WdMF1elgwt0z
JPDlWEqukDhw7ixIDzu83gK0azFW8679H/QstgUkplswwgjHaDE2IibJpk1251Kw
J/C30wY+WAbOv9f46dSU1WlrrvG0wQuIEdZt6b4V1s5M9aGEjTx9+gGU54rBUWuz
0AZ54cQbgN4c7AIRaD3HrH0zPY43Li/8RUO624ok/hCJ
-----END CERTIFICATE-----
