Certificate:
    Data:
        Version: 3 (0x2)
        Serial Number: 12926 (0x327e)
    Signature Algorithm: sha256WithRSAEncryption
        Issuer: C=US, ST=OH, L=Columbus, O=VikingVPN, OU=MyOrganizationalUnit, CN=VikingVPN CA/name=EasyRSA/emailAddress=me@myhost.mydomain
        Validity
            Not Before: Apr  7 06:11:45 2018 GMT
            Not After : Apr  4 06:11:45 2028 GMT
        Subject: CN=Client2381Certe1fb49
        Subject Public Key Info:
            Public Key Algorithm: rsaEncryption
                Public-Key: (4096 bit)
                Modulus:
                    00:bd:70:d4:26:2a:d8:b9:4b:3d:24:0d:03:b5:09:
                    c3:65:9e:21:96:ae:87:09:61:7e:2b:8b:7a:1d:d4:
                    b5:95:1f:2c:63:e8:d7:3b:25:03:eb:c2:7e:39:5f:
                    d4:cc:42:1a:79:ab:f2:30:fc:4d:6c:b3:6b:69:26:
                    c5:91:5e:99:7a:27:24:f8:6e:d1:7a:10:3b:4a:b6:
                    ef:bf:ea:bf:a5:7d:5b:09:9c:a0:59:33:e2:a9:a9:
                    7b:7e:ee:fd:6f:f9:74:ea:24:d4:5a:ce:71:be:79:
                    bc:83:38:fe:c2:36:70:9a:6f:d5:fe:8c:1a:2e:8b:
                    b1:2c:ca:3e:4b:05:21:25:60:d9:89:c3:45:bf:c7:
                    42:2a:61:5f:f8:ca:2c:23:d9:8e:1c:0a:fd:6b:19:
                    a1:e3:dd:eb:c0:67:2e:68:b0:7a:ef:66:78:85:3f:
                    d2:dc:f4:a4:5c:b4:94:43:72:1e:c6:e8:08:3a:6f:
                    28:fe:7a:73:50:ea:09:86:bb:1c:57:4e:99:70:83:
                    26:5e:a6:48:13:2f:e4:54:04:d5:03:61:cc:6e:a9:
                    c4:59:d4:af:be:73:2d:dc:59:c1:db:9f:23:a4:48:
                    2e:1e:e8:48:63:ed:f4:4a:7e:86:1c:21:97:f3:7c:
                    ab:95:77:b0:f0:77:d1:65:97:10:a8:ef:7b:f1:ab:
                    06:89:89:13:e4:af:9f:cf:ec:d6:ca:a1:67:ce:a8:
                    fb:e4:16:5b:07:c3:1a:ed:ae:5a:b5:7e:c2:1e:5b:
                    c2:02:12:99:63:bb:d2:8d:af:86:34:6c:1d:59:16:
                    94:0a:97:94:6d:b8:ab:aa:6c:3e:e4:c4:b4:81:fe:
                    62:a0:07:ef:31:bd:de:ae:db:13:31:dc:be:b9:29:
                    48:cd:98:8d:10:01:f7:bd:09:e5:6f:18:b7:78:52:
                    02:f7:30:b7:51:f1:c6:ef:59:99:f1:f0:c0:99:0e:
                    76:db:77:fe:d7:d8:de:3a:f2:14:35:3a:4e:b3:61:
                    db:2e:c9:33:ad:8c:0b:d1:ea:e9:9f:d2:d2:c3:a3:
                    8e:c4:dc:45:ee:a3:ea:bc:ee:db:af:f4:f6:3e:69:
                    42:5e:0a:74:79:e6:59:e0:75:a9:3e:fe:de:d1:02:
                    56:0e:f2:e9:58:0a:ed:db:a3:0e:3c:07:e2:3e:9f:
                    0c:8b:47:98:5d:cb:86:85:cb:8d:5b:7d:db:a1:e1:
                    d3:58:7b:76:a7:00:a5:3a:7d:03:29:99:99:1f:6b:
                    14:41:55:87:23:19:19:fd:42:7a:78:23:2f:78:2a:
                    2b:e8:ae:01:9c:87:3e:6e:66:f7:29:df:5e:94:88:
                    47:65:28:28:dd:b5:e5:c8:62:b0:1d:d8:31:3b:6b:
                    2e:05:85
                Exponent: 65537 (0x10001)
        X509v3 extensions:
            X509v3 Basic Constraints: 
                CA:FALSE
            Netscape Comment: 
                Easy-RSA Generated Certificate
            X509v3 Subject Key Identifier: 
                31:1C:77:5D:04:53:70:F4:28:4D:F5:21:88:F2:2D:51:9D:8A:35:87
            X509v3 Authority Key Identifier: 
                keyid:12:CD:60:04:D2:A0:80:9E:70:ED:C6:99:B8:7B:2C:C6:52:FD:19:A1
                DirName:/C=US/ST=OH/L=Columbus/O=VikingVPN/OU=MyOrganizationalUnit/CN=VikingVPN CA/name=EasyRSA/emailAddress=me@myhost.mydomain
                serial:CF:35:85:EE:80:BF:2A:3E

            X509v3 Extended Key Usage: 
                TLS Web Client Authentication
            X509v3 Key Usage: 
                Digital Signature
    Signature Algorithm: sha256WithRSAEncryption
         2b:fe:bb:cd:45:74:ae:4d:9b:14:27:fe:c5:f0:51:2e:64:ee:
         6a:de:63:27:a8:3a:5a:72:c9:35:75:e9:90:61:bf:ff:7b:91:
         98:5b:42:06:a7:e8:be:68:d3:7b:e1:60:86:21:d1:fc:0a:4e:
         eb:aa:80:92:78:42:b7:3b:45:76:1f:a0:c7:66:32:ec:51:b2:
         10:26:49:02:0e:b4:df:9e:32:99:64:5c:e5:cd:13:c5:2a:96:
         1b:a2:25:ec:eb:b3:16:5b:3a:22:61:a3:25:77:07:e8:ba:91:
         4c:91:e9:29:6c:6b:bf:cc:81:3e:0c:88:f1:5d:ae:bd:70:90:
         1d:06:a9:ba:13:f3:7e:c9:4d:09:a4:ca:f3:bd:3d:16:1a:75:
         21:5a:63:ef:ef:c0:2a:35:55:a4:c9:ec:10:e2:42:a8:4f:3b:
         a0:6f:3f:99:3d:1a:ae:dc:74:68:65:5d:bd:0a:37:46:3c:68:
         08:74:11:48:0a:ec:f0:2d:e3:56:ed:67:2d:3f:10:7a:0d:d5:
         c2:03:a5:41:0b:ea:d3:b1:a6:aa:ce:c0:a5:34:5b:f4:ed:ed:
         d7:5c:14:b0:ad:f0:d1:56:e1:01:bb:68:f3:e9:97:d7:9b:2c:
         86:61:55:07:b7:16:dc:9a:ca:a4:3a:37:52:5f:81:a0:35:3c:
         b9:fa:4c:4b:ec:d3:1b:6c:db:af:dc:f4:23:3e:7d:be:f1:20:
         63:f3:0f:82:b9:45:28:6c:d6:ab:43:56:0c:cd:bf:69:21:4a:
         73:1f:73:3f:03:ef:6f:44:92:3b:14:df:e3:6c:ac:9a:2b:53:
         0f:41:01:52:03:fd:b7:d0:37:b0:bc:1a:4f:ac:5d:dd:f5:ec:
         30:8c:17:50:71:b2:89:91:a4:48:af:31:cb:0d:df:c4:5d:03:
         0b:e0:6e:af:b3:a7:e0:7f:27:35:4e:5c:6a:80:dc:7c:52:e5:
         78:a6:71:fa:6e:e9:12:49:0d:31:ff:10:31:6a:01:cb:b9:88:
         29:8d:ae:91:ef:12:e8:e3:d3:e9:b5:9c:45:1a:78:b2:ad:c4:
         f8:fd:55:88:81:8f:fb:f0:60:d0:d9:43:7a:1b:94:7a:74:4a:
         8f:d4:f8:0e:b9:74:61:99:a3:b2:1a:55:90:e9:76:52:46:c0:
         08:eb:3c:3e:b0:77:0b:08:97:42:09:aa:00:f6:7e:9e:e1:d5:
         d4:a8:e4:bd:24:54:ad:ec:00:a2:8a:be:8e:fd:f2:d6:29:3d:
         c1:eb:bd:32:c3:f2:b0:8f:76:78:d8:47:26:48:dc:dd:a2:a7:
         7a:1c:59:31:e2:cf:0d:19:22:cc:e8:ae:1c:fd:4c:db:c8:d2:
         f5:3f:d8:87:58:e0:eb:36
-----BEGIN CERTIFICATE-----
MIIGrTCCBJWgAwIBAgICMn4wDQYJKoZIhvcNAQELBQAwgawxCzAJBgNVBAYTAlVT
MQswCQYDVQQIEwJPSDERMA8GA1UEBxMIQ29sdW1idXMxEjAQBgNVBAoTCVZpa2lu
Z1ZQTjEdMBsGA1UECxMUTXlPcmdhbml6YXRpb25hbFVuaXQxFTATBgNVBAMTDFZp
a2luZ1ZQTiBDQTEQMA4GA1UEKRMHRWFzeVJTQTEhMB8GCSqGSIb3DQEJARYSbWVA
bXlob3N0Lm15ZG9tYWluMB4XDTE4MDQwNzA2MTE0NVoXDTI4MDQwNDA2MTE0NVow
HzEdMBsGA1UEAxMUQ2xpZW50MjM4MUNlcnRlMWZiNDkwggIiMA0GCSqGSIb3DQEB
AQUAA4ICDwAwggIKAoICAQC9cNQmKti5Sz0kDQO1CcNlniGWrocJYX4ri3od1LWV
Hyxj6Nc7JQPrwn45X9TMQhp5q/Iw/E1ss2tpJsWRXpl6JyT4btF6EDtKtu+/6r+l
fVsJnKBZM+KpqXt+7v1v+XTqJNRaznG+ebyDOP7CNnCab9X+jBoui7Esyj5LBSEl
YNmJw0W/x0IqYV/4yiwj2Y4cCv1rGaHj3evAZy5osHrvZniFP9Lc9KRctJRDch7G
6Ag6byj+enNQ6gmGuxxXTplwgyZepkgTL+RUBNUDYcxuqcRZ1K++cy3cWcHbnyOk
SC4e6Ehj7fRKfoYcIZfzfKuVd7Dwd9FllxCo73vxqwaJiRPkr5/P7NbKoWfOqPvk
FlsHwxrtrlq1fsIeW8ICEplju9KNr4Y0bB1ZFpQKl5RtuKuqbD7kxLSB/mKgB+8x
vd6u2xMx3L65KUjNmI0QAfe9CeVvGLd4UgL3MLdR8cbvWZnx8MCZDnbbd/7X2N46
8hQ1Ok6zYdsuyTOtjAvR6umf0tLDo47E3EXuo+q87tuv9PY+aUJeCnR55lngdak+
/t7RAlYO8ulYCu3bow48B+I+nwyLR5hdy4aFy41bfduh4dNYe3anAKU6fQMpmZkf
axRBVYcjGRn9Qnp4Iy94KivorgGchz5uZvcp316UiEdlKCjdteXIYrAd2DE7ay4F
hQIDAQABo4IBYzCCAV8wCQYDVR0TBAIwADAtBglghkgBhvhCAQ0EIBYeRWFzeS1S
U0EgR2VuZXJhdGVkIENlcnRpZmljYXRlMB0GA1UdDgQWBBQxHHddBFNw9ChN9SGI
8i1RnYo1hzCB4QYDVR0jBIHZMIHWgBQSzWAE0qCAnnDtxpm4eyzGUv0ZoaGBsqSB
rzCBrDELMAkGA1UEBhMCVVMxCzAJBgNVBAgTAk9IMREwDwYDVQQHEwhDb2x1bWJ1
czESMBAGA1UEChMJVmlraW5nVlBOMR0wGwYDVQQLExRNeU9yZ2FuaXphdGlvbmFs
VW5pdDEVMBMGA1UEAxMMVmlraW5nVlBOIENBMRAwDgYDVQQpEwdFYXN5UlNBMSEw
HwYJKoZIhvcNAQkBFhJtZUBteWhvc3QubXlkb21haW6CCQDPNYXugL8qPjATBgNV
HSUEDDAKBggrBgEFBQcDAjALBgNVHQ8EBAMCB4AwDQYJKoZIhvcNAQELBQADggIB
ACv+u81FdK5NmxQn/sXwUS5k7mreYyeoOlpyyTV16ZBhv/97kZhbQgan6L5o03vh
YIYh0fwKTuuqgJJ4Qrc7RXYfoMdmMuxRshAmSQIOtN+eMplkXOXNE8UqlhuiJezr
sxZbOiJhoyV3B+i6kUyR6Slsa7/MgT4MiPFdrr1wkB0GqboT837JTQmkyvO9PRYa
dSFaY+/vwCo1VaTJ7BDiQqhPO6BvP5k9Gq7cdGhlXb0KN0Y8aAh0EUgK7PAt41bt
Zy0/EHoN1cIDpUEL6tOxpqrOwKU0W/Tt7ddcFLCt8NFW4QG7aPPpl9ebLIZhVQe3
FtyayqQ6N1JfgaA1PLn6TEvs0xts26/c9CM+fb7xIGPzD4K5RShs1qtDVgzNv2kh
SnMfcz8D729EkjsU3+NsrJorUw9BAVID/bfQN7C8Gk+sXd317DCMF1BxsomRpEiv
McsN38RdAwvgbq+zp+B/JzVOXGqA3HxS5Ximcfpu6RJJDTH/EDFqAcu5iCmNrpHv
Eujj0+m1nEUaeLKtxPj9VYiBj/vwYNDZQ3oblHp0So/U+A65dGGZo7IaVZDpdlJG
wAjrPD6wdwsIl0IJqgD2fp7h1dSo5L0kVK3sAKKKvo798tYpPcHrvTLD8rCPdnjY
RyZI3N2ip3ocWTHizw0ZIszorhz9TNvI0vU/2IdY4Os2
-----END CERTIFICATE-----
