Certificate:
    Data:
        Version: 3 (0x2)
        Serial Number: 10988 (0x2aec)
    Signature Algorithm: sha256WithRSAEncryption
        Issuer: C=US, ST=OH, L=Columbus, O=VikingVPN, OU=MyOrganizationalUnit, CN=VikingVPN CA/name=EasyRSA/emailAddress=me@myhost.mydomain
        Validity
            Not Before: May 21 08:19:19 2017 GMT
            Not After : May 19 08:19:19 2027 GMT
        Subject: CN=Client2924Cert171452
        Subject Public Key Info:
            Public Key Algorithm: rsaEncryption
                Public-Key: (4096 bit)
                Modulus:
                    00:b8:1c:98:58:1a:02:85:47:71:1f:99:d7:85:32:
                    e9:36:65:15:f2:7d:6b:72:d2:a0:e3:26:cb:30:bf:
                    a8:4a:6b:3a:cd:54:b9:3f:2a:20:16:b9:3f:d3:c9:
                    cc:41:55:b9:3a:ad:37:42:7a:76:3d:ca:74:a7:e5:
                    4c:1f:d4:02:aa:bf:b8:69:bd:d8:f7:c1:1f:af:b2:
                    d4:50:ed:ef:28:4f:9c:8b:eb:87:00:cc:a1:4d:2d:
                    38:96:3c:7f:50:db:48:59:27:5f:f1:27:09:62:19:
                    7a:44:71:80:18:26:1c:98:56:9c:21:06:b2:45:e9:
                    55:94:5d:2c:f6:30:f5:33:94:da:a4:48:63:fe:0e:
                    e3:b4:42:10:8e:37:ac:a1:e8:20:ab:2d:55:4f:9b:
                    bd:4e:f7:89:bd:01:45:59:f6:74:ac:d7:38:20:4c:
                    83:1b:4a:44:8c:4e:56:35:b5:3f:9b:b9:5d:18:4e:
                    61:a7:08:db:f0:68:8f:ac:1d:24:ca:6a:dd:d2:fa:
                    32:7f:80:83:3a:24:f5:b1:c8:51:68:e6:7c:e0:69:
                    13:28:bc:32:98:01:f4:29:88:65:59:d0:7f:aa:7d:
                    de:76:d1:c5:b5:19:f1:98:29:6e:e1:9a:27:d8:32:
                    37:bf:3d:75:3d:ea:79:1b:b1:d2:d5:49:45:c2:e3:
                    c0:b6:19:3f:4c:33:12:26:a3:4f:04:a3:b0:1b:97:
                    6a:67:16:94:7f:de:ae:d8:6e:28:49:98:21:40:dc:
                    a8:20:5f:cd:33:54:03:d6:71:39:ae:5c:7c:48:28:
                    f8:9e:1a:dc:fb:7c:fc:8f:ff:b4:f4:ea:73:ef:a5:
                    39:6e:08:f6:f0:20:a6:ce:0c:4e:02:37:83:9f:5b:
                    ce:24:f7:2d:cd:5b:18:50:28:56:d8:8e:72:86:46:
                    1c:eb:35:8c:93:54:06:3f:da:4e:9c:29:3d:64:0f:
                    49:76:36:ed:12:56:60:97:c6:94:4d:a6:85:e8:e9:
                    59:12:3d:44:f4:5e:04:3e:34:4d:c5:a3:12:bc:4f:
                    7d:c4:d8:c8:e4:b8:0a:89:a7:3c:b4:54:0c:64:71:
                    9c:d2:f2:c4:9d:6b:76:e6:3a:af:b7:78:04:df:d1:
                    a4:23:a2:a5:61:8f:06:97:d8:b5:06:9f:12:98:26:
                    d5:3e:a7:ec:d0:d1:5f:77:da:6e:26:29:8d:fb:18:
                    71:fb:0f:e7:1c:b2:b6:ba:c8:bf:ea:5b:83:79:d0:
                    44:a0:f9:77:ff:77:07:f8:fa:78:5f:e6:8e:a6:d6:
                    d9:99:ca:eb:30:f9:32:dd:c0:45:03:04:f1:60:1a:
                    40:3c:b2:0d:15:13:3a:9d:a1:0c:45:3d:32:e0:54:
                    1b:ea:f1
                Exponent: 65537 (0x10001)
        X509v3 extensions:
            X509v3 Basic Constraints: 
                CA:FALSE
            Netscape Comment: 
                Easy-RSA Generated Certificate
            X509v3 Subject Key Identifier: 
                CF:41:79:5B:E7:F1:81:6D:B3:50:55:4F:F5:D7:A5:B2:80:3D:C9:3C
            X509v3 Authority Key Identifier: 
                keyid:12:CD:60:04:D2:A0:80:9E:70:ED:C6:99:B8:7B:2C:C6:52:FD:19:A1
                DirName:/C=US/ST=OH/L=Columbus/O=VikingVPN/OU=MyOrganizationalUnit/CN=VikingVPN CA/name=EasyRSA/emailAddress=me@myhost.mydomain
                serial:CF:35:85:EE:80:BF:2A:3E

            X509v3 Extended Key Usage: 
                TLS Web Client Authentication
            X509v3 Key Usage: 
                Digital Signature
    Signature Algorithm: sha256WithRSAEncryption
         bf:a1:ab:93:96:b1:fa:4e:4f:90:75:3a:d3:0f:0b:55:04:97:
         f7:b7:5d:90:cb:20:3a:58:a8:d1:e5:62:53:8d:3c:63:9f:a5:
         81:6f:52:a0:e4:43:76:e1:0d:24:bc:6c:31:71:04:7f:32:57:
         31:a6:05:b3:5c:b3:27:6b:91:5c:59:a2:b0:31:9f:46:77:18:
         b0:6f:0f:af:01:16:6b:3f:68:7a:ab:24:43:49:8d:85:56:1a:
         4d:4f:d6:70:6f:a2:56:f7:ac:4b:01:ea:6c:f6:be:fa:1d:b9:
         8f:b7:42:24:28:38:98:12:63:a2:a2:90:dd:5a:37:7b:9a:b1:
         06:4a:ee:dc:db:5b:0f:ce:14:0e:c3:38:2f:bc:0e:af:c5:cc:
         b8:8d:2f:dd:34:c9:1f:69:0c:0e:a1:2a:5d:48:73:15:4b:81:
         2d:db:80:cc:2d:60:a4:e6:f1:dc:b1:92:e4:39:21:44:ea:c0:
         96:b7:75:7e:da:0f:d5:b9:f8:da:be:dd:2f:6b:2e:42:7d:be:
         62:33:b5:75:4c:e5:62:28:91:3f:e4:4c:8b:40:10:19:f0:f1:
         c9:37:50:28:69:75:3b:89:f3:a1:7f:21:9c:02:36:4b:4a:e1:
         06:06:fa:a3:5a:8b:66:d1:02:7b:eb:3d:42:e4:11:4a:7f:f5:
         ef:82:4a:3b:50:7f:93:6e:d1:72:5a:71:d7:32:67:3d:16:33:
         f8:63:64:df:c3:ce:85:85:82:3d:a9:15:c5:5f:02:43:20:a8:
         87:b6:98:48:1a:9e:9a:86:60:2a:8a:d4:d5:1a:76:60:45:fd:
         f5:d6:0d:6e:cc:34:a4:8f:a7:c8:76:ef:f4:8f:dd:5f:3c:7a:
         c7:22:23:e4:f2:08:d9:48:a0:40:ba:b3:36:e0:38:1f:31:7e:
         0a:eb:cb:d6:d4:ea:4f:c1:f2:8e:0a:85:76:39:34:e4:ba:29:
         7c:4a:85:00:7b:d1:65:e5:02:86:39:e3:07:d8:4d:8c:cc:e6:
         d3:24:7a:72:28:d0:3e:07:9b:22:e6:df:a0:05:23:b0:6d:72:
         33:d2:1f:d0:d7:9b:28:c4:7f:1e:6c:e4:06:1d:47:58:69:42:
         14:84:19:35:17:78:08:66:34:77:b0:02:16:93:5a:17:bd:23:
         8e:7a:69:78:8f:89:d3:96:d8:fe:b4:7c:4b:cf:44:6f:46:9a:
         62:55:d6:27:a8:c3:37:bc:e8:8d:ca:6c:ce:98:7c:20:43:77:
         33:8c:82:fa:67:16:b0:82:02:09:29:dc:76:c4:73:c4:79:14:
         01:aa:10:c3:ac:5f:34:d2:88:2b:c9:13:72:20:88:4d:55:b2:
         b1:68:10:c8:c1:2b:ab:5a
-----BEGIN CERTIFICATE-----
MIIGrTCCBJWgAwIBAgICKuwwDQYJKoZIhvcNAQELBQAwgawxCzAJBgNVBAYTAlVT
MQswCQYDVQQIEwJPSDERMA8GA1UEBxMIQ29sdW1idXMxEjAQBgNVBAoTCVZpa2lu
Z1ZQTjEdMBsGA1UECxMUTXlPcmdhbml6YXRpb25hbFVuaXQxFTATBgNVBAMTDFZp
a2luZ1ZQTiBDQTEQMA4GA1UEKRMHRWFzeVJTQTEhMB8GCSqGSIb3DQEJARYSbWVA
bXlob3N0Lm15ZG9tYWluMB4XDTE3MDUyMTA4MTkxOVoXDTI3MDUxOTA4MTkxOVow
HzEdMBsGA1UEAxMUQ2xpZW50MjkyNENlcnQxNzE0NTIwggIiMA0GCSqGSIb3DQEB
AQUAA4ICDwAwggIKAoICAQC4HJhYGgKFR3EfmdeFMuk2ZRXyfWty0qDjJsswv6hK
azrNVLk/KiAWuT/TycxBVbk6rTdCenY9ynSn5Uwf1AKqv7hpvdj3wR+vstRQ7e8o
T5yL64cAzKFNLTiWPH9Q20hZJ1/xJwliGXpEcYAYJhyYVpwhBrJF6VWUXSz2MPUz
lNqkSGP+DuO0QhCON6yh6CCrLVVPm71O94m9AUVZ9nSs1zggTIMbSkSMTlY1tT+b
uV0YTmGnCNvwaI+sHSTKat3S+jJ/gIM6JPWxyFFo5nzgaRMovDKYAfQpiGVZ0H+q
fd520cW1GfGYKW7hmifYMje/PXU96nkbsdLVSUXC48C2GT9MMxImo08Eo7Abl2pn
FpR/3q7YbihJmCFA3KggX80zVAPWcTmuXHxIKPieGtz7fPyP/7T06nPvpTluCPbw
IKbODE4CN4OfW84k9y3NWxhQKFbYjnKGRhzrNYyTVAY/2k6cKT1kD0l2Nu0SVmCX
xpRNpoXo6VkSPUT0XgQ+NE3FoxK8T33E2MjkuAqJpzy0VAxkcZzS8sSda3bmOq+3
eATf0aQjoqVhjwaX2LUGnxKYJtU+p+zQ0V932m4mKY37GHH7D+ccsra6yL/qW4N5
0ESg+Xf/dwf4+nhf5o6m1tmZyusw+TLdwEUDBPFgGkA8sg0VEzqdoQxFPTLgVBvq
8QIDAQABo4IBYzCCAV8wCQYDVR0TBAIwADAtBglghkgBhvhCAQ0EIBYeRWFzeS1S
U0EgR2VuZXJhdGVkIENlcnRpZmljYXRlMB0GA1UdDgQWBBTPQXlb5/GBbbNQVU/1
16WygD3JPDCB4QYDVR0jBIHZMIHWgBQSzWAE0qCAnnDtxpm4eyzGUv0ZoaGBsqSB
rzCBrDELMAkGA1UEBhMCVVMxCzAJBgNVBAgTAk9IMREwDwYDVQQHEwhDb2x1bWJ1
czESMBAGA1UEChMJVmlraW5nVlBOMR0wGwYDVQQLExRNeU9yZ2FuaXphdGlvbmFs
VW5pdDEVMBMGA1UEAxMMVmlraW5nVlBOIENBMRAwDgYDVQQpEwdFYXN5UlNBMSEw
HwYJKoZIhvcNAQkBFhJtZUBteWhvc3QubXlkb21haW6CCQDPNYXugL8qPjATBgNV
HSUEDDAKBggrBgEFBQcDAjALBgNVHQ8EBAMCB4AwDQYJKoZIhvcNAQELBQADggIB
AL+hq5OWsfpOT5B1OtMPC1UEl/e3XZDLIDpYqNHlYlONPGOfpYFvUqDkQ3bhDSS8
bDFxBH8yVzGmBbNcsydrkVxZorAxn0Z3GLBvD68BFms/aHqrJENJjYVWGk1P1nBv
olb3rEsB6mz2vvoduY+3QiQoOJgSY6KikN1aN3uasQZK7tzbWw/OFA7DOC+8Dq/F
zLiNL900yR9pDA6hKl1IcxVLgS3bgMwtYKTm8dyxkuQ5IUTqwJa3dX7aD9W5+Nq+
3S9rLkJ9vmIztXVM5WIokT/kTItAEBnw8ck3UChpdTuJ86F/IZwCNktK4QYG+qNa
i2bRAnvrPULkEUp/9e+CSjtQf5Nu0XJacdcyZz0WM/hjZN/DzoWFgj2pFcVfAkMg
qIe2mEganpqGYCqK1NUadmBF/fXWDW7MNKSPp8h27/SP3V88esciI+TyCNlIoEC6
szbgOB8xfgrry9bU6k/B8o4KhXY5NOS6KXxKhQB70WXlAoY54wfYTYzM5tMkenIo
0D4HmyLm36AFI7BtcjPSH9DXmyjEfx5s5AYdR1hpQhSEGTUXeAhmNHewAhaTWhe9
I456aXiPidOW2P60fEvPRG9GmmJV1ieowze86I3KbM6YfCBDdzOMgvpnFrCCAgkp
3HbEc8R5FAGqEMOsXzTSiCvJE3IgiE1VsrFoEMjBK6ta
-----END CERTIFICATE-----
