Certificate:
    Data:
        Version: 3 (0x2)
        Serial Number: 9021 (0x233d)
    Signature Algorithm: sha256WithRSAEncryption
        Issuer: C=US, ST=OH, L=Columbus, O=VikingVPN, OU=MyOrganizationalUnit, CN=VikingVPN CA/name=EasyRSA/emailAddress=me@myhost.mydomain
        Validity
            Not Before: Sep 12 21:11:49 2016 GMT
            Not After : Sep 10 21:11:49 2026 GMT
        Subject: CN=Client908Certb92bed
        Subject Public Key Info:
            Public Key Algorithm: rsaEncryption
                Public-Key: (4096 bit)
                Modulus:
                    00:f0:85:9d:51:9b:52:01:d7:c1:9b:76:48:dd:43:
                    ee:44:e9:56:54:f5:b8:9e:1f:60:1d:8c:f7:74:ec:
                    9d:82:a4:8a:43:4d:da:d2:e9:fc:fb:00:da:bd:bd:
                    ec:14:71:a4:30:66:b5:80:0d:c3:8a:70:04:46:91:
                    da:d6:71:6a:7e:00:ee:e4:91:a0:b5:57:ee:74:4d:
                    45:95:64:83:5c:0a:d9:65:60:72:fc:fd:4b:e7:41:
                    f8:e1:49:43:d6:e8:f6:e8:e8:8a:98:44:30:20:9e:
                    26:bb:a8:9f:7b:74:10:87:e1:5c:82:ca:0a:3e:95:
                    f5:8f:b1:8a:b0:18:d1:0a:7c:e9:64:58:00:82:93:
                    48:80:54:92:fe:b4:11:19:67:f5:6a:c0:8e:eb:29:
                    fa:08:65:c4:fa:ea:a0:44:95:9a:42:b7:c2:a6:8c:
                    f2:f7:8e:6a:38:05:98:8d:43:4a:e2:27:e9:5f:84:
                    54:51:c9:87:9c:69:57:4c:95:e1:00:7b:f3:45:41:
                    41:bd:1c:70:cc:d0:f8:56:19:87:52:42:c4:8e:a2:
                    6b:03:49:39:91:25:c7:4f:5e:bd:ad:62:7f:d4:0e:
                    09:b7:e0:14:24:c9:42:d0:71:cd:e2:3f:2a:86:6d:
                    11:79:89:9b:d4:fd:93:8f:a8:97:a0:45:e7:ea:df:
                    9c:81:1f:85:4e:02:8e:45:04:ad:e2:be:fc:4b:b7:
                    b8:5f:92:4f:34:87:4d:34:31:4e:a8:a5:44:67:37:
                    48:5e:5a:3f:9e:f4:bf:71:a4:ba:03:ad:27:63:1e:
                    53:56:b8:7a:2a:c2:35:7a:55:77:8d:0b:a0:3a:d0:
                    4d:1f:46:e4:5b:b9:e0:08:b1:b2:6c:a1:bd:7e:41:
                    8a:54:25:c7:7c:e7:4b:65:8d:2c:ef:65:50:8f:57:
                    0e:6b:b2:60:3f:31:de:ab:a1:0e:04:19:0e:2d:fa:
                    25:c2:b6:e0:a4:9b:94:91:1d:2d:59:b1:44:c4:b2:
                    e3:86:ca:4f:92:8a:c0:f3:51:80:77:1d:d4:c0:09:
                    29:41:8c:4e:c9:18:d7:02:02:de:f8:50:b7:3e:89:
                    ae:68:8f:2d:b8:91:c4:8d:ae:54:d6:12:54:1c:3a:
                    ea:e6:e6:c6:ae:e8:80:b4:f1:ee:02:6f:1d:09:3f:
                    1e:47:fc:60:7d:86:bc:67:67:8a:e3:fd:58:77:e5:
                    9c:f7:20:7d:51:03:1c:06:11:ab:c5:c9:bc:d1:cb:
                    46:d4:ae:38:01:62:0b:08:66:16:3c:47:92:43:15:
                    9e:91:75:66:4a:0a:da:88:91:81:a5:34:59:26:97:
                    53:bd:fd:8f:d9:10:d6:b1:82:e8:a7:4c:0e:5a:4b:
                    18:8f:fb
                Exponent: 65537 (0x10001)
        X509v3 extensions:
            X509v3 Basic Constraints: 
                CA:FALSE
            Netscape Comment: 
                Easy-RSA Generated Certificate
            X509v3 Subject Key Identifier: 
                73:12:C1:39:A9:57:21:BC:A5:77:07:90:54:63:FD:28:12:F7:8B:70
            X509v3 Authority Key Identifier: 
                keyid:12:CD:60:04:D2:A0:80:9E:70:ED:C6:99:B8:7B:2C:C6:52:FD:19:A1
                DirName:/C=US/ST=OH/L=Columbus/O=VikingVPN/OU=MyOrganizationalUnit/CN=VikingVPN CA/name=EasyRSA/emailAddress=me@myhost.mydomain
                serial:CF:35:85:EE:80:BF:2A:3E

            X509v3 Extended Key Usage: 
                TLS Web Client Authentication
            X509v3 Key Usage: 
                Digital Signature
    Signature Algorithm: sha256WithRSAEncryption
         6a:f6:c4:59:e2:e0:f8:ad:a9:12:1f:79:2d:c6:13:fa:bf:c8:
         1f:2c:59:86:f4:28:d5:fe:49:0e:17:0a:56:85:17:47:8e:97:
         97:6f:15:02:7f:fc:c6:2b:c8:ee:85:b4:60:69:c6:fd:3d:9e:
         ae:cf:a9:35:78:20:39:ed:19:36:b1:50:69:bb:71:52:65:2a:
         d0:20:83:b4:a1:e7:59:81:09:b8:2e:34:97:77:be:d0:5d:bb:
         d9:d9:b2:3a:56:3c:e6:2a:f1:ec:b6:a6:75:39:d9:ce:16:51:
         18:16:19:dd:5f:47:e5:d6:fd:c3:1b:11:9d:9b:69:ca:7c:54:
         37:69:69:c7:4e:bb:7d:86:fd:28:a0:b8:83:24:8e:56:31:ad:
         4d:b5:6b:28:27:2d:1f:8d:b0:6f:63:3a:2b:49:e1:e4:74:c4:
         9e:8c:4d:af:d4:d5:d4:6c:a6:21:a0:41:54:be:2f:0d:5b:23:
         59:8a:17:02:eb:17:8f:1c:bd:b6:dd:9b:8c:cd:27:12:02:2f:
         d3:fd:b3:9c:76:1e:44:65:d3:6b:33:95:37:a6:19:9a:e1:bc:
         0b:0d:b6:be:eb:2d:80:1e:c2:95:4b:81:8d:9d:9d:9f:35:c1:
         83:ab:86:d3:90:ca:5a:f2:9a:9f:f1:88:66:82:1a:c5:4b:0b:
         42:69:df:3a:8d:56:28:82:5e:08:d2:9b:d3:9a:5b:8d:e4:75:
         f9:89:c4:93:37:c6:8f:de:10:2c:27:cd:11:ac:53:6e:68:fb:
         c3:82:68:70:5f:36:1f:9b:6c:e2:f1:d8:39:75:63:0d:54:7d:
         16:51:80:f0:d3:9f:de:b8:31:43:c4:8a:20:b6:40:b0:a6:d7:
         b9:18:10:b6:41:d6:d6:69:63:62:ed:79:74:7b:4c:99:d6:c7:
         2d:d2:c1:df:cb:2e:a6:6f:32:e1:62:57:0d:e8:b6:9e:b3:fe:
         47:de:89:89:e2:6b:3e:cb:26:b6:c7:a6:eb:65:7f:ab:9e:48:
         4f:a2:e1:cc:69:30:e6:22:90:df:14:2b:6f:ce:0d:42:2c:49:
         42:a7:ef:3b:f6:e6:90:4c:bc:53:5a:1b:02:bb:e5:e0:9f:4b:
         6d:d2:c2:2d:b5:8d:dd:32:e6:d3:29:79:14:c1:df:32:0f:60:
         5d:ef:75:26:bb:dc:d1:21:02:99:6a:86:5d:c0:8c:23:2a:c7:
         f5:2e:92:11:25:12:2e:4a:c7:e2:44:3d:16:ea:d6:54:c4:47:
         47:fa:6f:25:23:ab:e1:ac:0d:4e:f4:11:9f:c8:b2:bd:c9:32:
         0e:d3:fa:10:54:02:9a:57:03:65:ed:91:ed:fe:bd:75:8d:b7:
         11:d5:41:99:5e:23:60:90
-----BEGIN CERTIFICATE-----
MIIGrDCCBJSgAwIBAgICIz0wDQYJKoZIhvcNAQELBQAwgawxCzAJBgNVBAYTAlVT
MQswCQYDVQQIEwJPSDERMA8GA1UEBxMIQ29sdW1idXMxEjAQBgNVBAoTCVZpa2lu
Z1ZQTjEdMBsGA1UECxMUTXlPcmdhbml6YXRpb25hbFVuaXQxFTATBgNVBAMTDFZp
a2luZ1ZQTiBDQTEQMA4GA1UEKRMHRWFzeVJTQTEhMB8GCSqGSIb3DQEJARYSbWVA
bXlob3N0Lm15ZG9tYWluMB4XDTE2MDkxMjIxMTE0OVoXDTI2MDkxMDIxMTE0OVow
HjEcMBoGA1UEAxMTQ2xpZW50OTA4Q2VydGI5MmJlZDCCAiIwDQYJKoZIhvcNAQEB
BQADggIPADCCAgoCggIBAPCFnVGbUgHXwZt2SN1D7kTpVlT1uJ4fYB2M93TsnYKk
ikNN2tLp/PsA2r297BRxpDBmtYANw4pwBEaR2tZxan4A7uSRoLVX7nRNRZVkg1wK
2WVgcvz9S+dB+OFJQ9bo9ujoiphEMCCeJruon3t0EIfhXILKCj6V9Y+xirAY0Qp8
6WRYAIKTSIBUkv60ERln9WrAjusp+ghlxPrqoESVmkK3wqaM8veOajgFmI1DSuIn
6V+EVFHJh5xpV0yV4QB780VBQb0ccMzQ+FYZh1JCxI6iawNJOZElx09eva1if9QO
CbfgFCTJQtBxzeI/KoZtEXmJm9T9k4+ol6BF5+rfnIEfhU4CjkUEreK+/Eu3uF+S
TzSHTTQxTqilRGc3SF5aP570v3GkugOtJ2MeU1a4eirCNXpVd40LoDrQTR9G5Fu5
4AixsmyhvX5BilQlx3znS2WNLO9lUI9XDmuyYD8x3quhDgQZDi36JcK24KSblJEd
LVmxRMSy44bKT5KKwPNRgHcd1MAJKUGMTskY1wIC3vhQtz6JrmiPLbiRxI2uVNYS
VBw66ubmxq7ogLTx7gJvHQk/Hkf8YH2GvGdniuP9WHflnPcgfVEDHAYRq8XJvNHL
RtSuOAFiCwhmFjxHkkMVnpF1ZkoK2oiRgaU0WSaXU739j9kQ1rGC6KdMDlpLGI/7
AgMBAAGjggFjMIIBXzAJBgNVHRMEAjAAMC0GCWCGSAGG+EIBDQQgFh5FYXN5LVJT
QSBHZW5lcmF0ZWQgQ2VydGlmaWNhdGUwHQYDVR0OBBYEFHMSwTmpVyG8pXcHkFRj
/SgS94twMIHhBgNVHSMEgdkwgdaAFBLNYATSoICecO3Gmbh7LMZS/RmhoYGypIGv
MIGsMQswCQYDVQQGEwJVUzELMAkGA1UECBMCT0gxETAPBgNVBAcTCENvbHVtYnVz
MRIwEAYDVQQKEwlWaWtpbmdWUE4xHTAbBgNVBAsTFE15T3JnYW5pemF0aW9uYWxV
bml0MRUwEwYDVQQDEwxWaWtpbmdWUE4gQ0ExEDAOBgNVBCkTB0Vhc3lSU0ExITAf
BgkqhkiG9w0BCQEWEm1lQG15aG9zdC5teWRvbWFpboIJAM81he6Avyo+MBMGA1Ud
JQQMMAoGCCsGAQUFBwMCMAsGA1UdDwQEAwIHgDANBgkqhkiG9w0BAQsFAAOCAgEA
avbEWeLg+K2pEh95LcYT+r/IHyxZhvQo1f5JDhcKVoUXR46Xl28VAn/8xivI7oW0
YGnG/T2ers+pNXggOe0ZNrFQabtxUmUq0CCDtKHnWYEJuC40l3e+0F272dmyOlY8
5irx7LamdTnZzhZRGBYZ3V9H5db9wxsRnZtpynxUN2lpx067fYb9KKC4gySOVjGt
TbVrKCctH42wb2M6K0nh5HTEnoxNr9TV1GymIaBBVL4vDVsjWYoXAusXjxy9tt2b
jM0nEgIv0/2znHYeRGXTazOVN6YZmuG8Cw22vustgB7ClUuBjZ2dnzXBg6uG05DK
WvKan/GIZoIaxUsLQmnfOo1WKIJeCNKb05pbjeR1+YnEkzfGj94QLCfNEaxTbmj7
w4JocF82H5ts4vHYOXVjDVR9FlGA8NOf3rgxQ8SKILZAsKbXuRgQtkHW1mljYu15
dHtMmdbHLdLB38supm8y4WJXDei2nrP+R96JieJrPssmtsem62V/q55IT6LhzGkw
5iKQ3xQrb84NQixJQqfvO/bmkEy8U1obArvl4J9LbdLCLbWN3TLm0yl5FMHfMg9g
Xe91Jrvc0SECmWqGXcCMIyrH9S6SESUSLkrH4kQ9FurWVMRHR/pvJSOr4awNTvQR
n8iyvckyDtP6EFQCmlcDZe2R7f69dY23EdVBmV4jYJA=
-----END CERTIFICATE-----
