Certificate:
    Data:
        Version: 3 (0x2)
        Serial Number: 12303 (0x300f)
    Signature Algorithm: sha256WithRSAEncryption
        Issuer: C=US, ST=OH, L=Columbus, O=VikingVPN, OU=MyOrganizationalUnit, CN=VikingVPN CA/name=EasyRSA/emailAddress=me@myhost.mydomain
        Validity
            Not Before: Dec 27 02:57:15 2017 GMT
            Not After : Dec 25 02:57:15 2027 GMT
        Subject: CN=Client3186Cert2005f0
        Subject Public Key Info:
            Public Key Algorithm: rsaEncryption
                Public-Key: (4096 bit)
                Modulus:
                    00:a9:4c:15:8a:32:67:87:7c:5a:6a:d7:f1:0d:1c:
                    a2:31:bf:7c:ae:7b:88:38:39:ff:07:97:21:ec:9a:
                    35:90:3a:e4:cd:d8:56:f2:27:c2:c8:cd:16:81:01:
                    6b:8b:ad:fd:cd:fe:57:c8:2f:3d:2c:98:50:f5:6c:
                    9d:52:4b:df:f8:d3:1e:42:11:2f:5f:43:54:7f:53:
                    b2:c0:37:0f:05:a5:cd:b8:ad:50:33:86:ad:7f:d2:
                    7f:cf:30:f0:37:2d:2b:34:85:f1:5f:2a:df:1d:33:
                    cc:7e:55:bc:25:f0:7d:41:2a:47:77:6e:3a:bc:07:
                    cb:6f:08:ac:d8:7e:35:28:b1:b5:37:bd:69:0d:6c:
                    d2:4e:8f:1b:1f:e2:d8:a4:5f:da:5b:a4:db:cb:a5:
                    90:79:25:0a:16:66:9d:ab:c3:10:78:87:8d:ed:fc:
                    1a:35:f5:16:0f:2f:96:cc:a9:e3:06:65:9d:bc:72:
                    00:85:c6:9d:cd:24:27:c3:e1:9a:c7:f9:5a:9b:1e:
                    c3:ee:00:04:97:4d:8d:67:5c:4c:9f:c7:a5:91:2a:
                    e2:e3:bd:09:15:58:91:84:0f:05:4a:b5:f1:a0:93:
                    f9:d7:fd:8c:6a:94:57:52:d3:c4:86:94:07:49:48:
                    b3:d9:45:b1:e9:0f:9d:c0:03:ba:99:e5:17:f1:9c:
                    33:94:b7:90:d9:98:f5:6b:18:89:3a:be:43:e2:f6:
                    df:e5:c2:77:75:d5:90:5f:fc:1d:f5:51:ad:ac:ab:
                    7e:87:b5:84:b3:3b:ab:fd:b8:27:c2:6b:48:fa:62:
                    e9:e2:95:15:d3:ec:84:94:79:f4:97:e0:d5:32:9e:
                    78:3a:75:fa:ea:86:8c:d2:5b:5f:72:63:fa:30:23:
                    de:f9:73:c0:17:c5:dc:75:72:84:c4:11:32:2a:5c:
                    c8:cb:ed:32:89:52:d3:c2:4e:1f:d5:72:42:57:b4:
                    d7:21:ea:fe:24:37:36:f2:a5:2a:57:7c:f1:a8:59:
                    2c:a5:81:78:00:ea:e6:ee:3a:05:65:b8:fa:ec:ec:
                    bc:39:5e:fc:a2:bd:be:f1:4f:72:26:08:b8:78:1e:
                    a3:d8:5d:01:5f:7d:db:5e:7b:40:d2:45:3a:04:f8:
                    e5:dd:b3:0b:48:09:11:05:cf:e4:1e:fc:22:7c:5c:
                    b8:42:8e:cb:66:eb:4d:b0:76:83:9e:2c:fd:73:10:
                    a6:0b:9d:9b:a9:37:f9:11:2c:1a:80:5c:cb:fe:dc:
                    53:b4:7a:d9:5b:36:d6:e7:ab:a1:76:f2:0d:7b:23:
                    25:af:93:0c:55:6d:7d:c4:6f:2b:a6:54:9c:d1:90:
                    70:bf:a1:3b:cc:34:94:10:f4:0b:c6:b6:ce:c5:97:
                    ba:0e:fb
                Exponent: 65537 (0x10001)
        X509v3 extensions:
            X509v3 Basic Constraints: 
                CA:FALSE
            Netscape Comment: 
                Easy-RSA Generated Certificate
            X509v3 Subject Key Identifier: 
                F2:EE:35:4C:03:C0:68:2A:A1:C2:56:69:87:A0:7C:DA:6B:B6:CF:16
            X509v3 Authority Key Identifier: 
                keyid:12:CD:60:04:D2:A0:80:9E:70:ED:C6:99:B8:7B:2C:C6:52:FD:19:A1
                DirName:/C=US/ST=OH/L=Columbus/O=VikingVPN/OU=MyOrganizationalUnit/CN=VikingVPN CA/name=EasyRSA/emailAddress=me@myhost.mydomain
                serial:CF:35:85:EE:80:BF:2A:3E

            X509v3 Extended Key Usage: 
                TLS Web Client Authentication
            X509v3 Key Usage: 
                Digital Signature
    Signature Algorithm: sha256WithRSAEncryption
         2c:af:13:3f:68:0c:5b:8d:05:27:f0:2c:e1:38:68:16:ec:67:
         24:ed:e8:16:98:66:18:73:bb:a0:ad:cb:11:e9:7c:47:dc:66:
         0b:b6:24:a8:53:15:9e:81:7f:37:c2:4a:03:ed:0e:9f:35:0c:
         33:37:a4:1a:0c:dd:de:1f:81:23:15:0c:28:cf:f3:26:73:f1:
         14:94:fa:de:f4:ed:b4:00:d6:af:7d:74:c2:39:d2:5c:66:30:
         00:86:30:88:84:e7:6d:58:12:56:cb:5b:1f:8c:64:38:cf:06:
         70:64:01:74:96:e9:46:4f:59:ad:7f:e9:47:44:d2:34:8a:45:
         c6:ac:75:b7:f0:e4:e8:e1:dd:4a:f1:ad:19:46:c9:30:d6:bd:
         f3:1c:e2:3d:f2:22:7a:3f:ee:54:9c:63:8a:73:3c:7c:ae:f9:
         9b:fb:9a:ed:5e:1a:c1:4a:0f:4b:97:7b:1d:2e:21:c1:c5:4d:
         26:87:a3:74:ca:0d:45:cf:d5:99:35:53:b2:cf:bd:bc:f1:7a:
         6a:34:c3:a3:e3:12:3d:21:03:94:4d:07:e1:d0:27:63:3b:34:
         db:26:37:c8:1d:b4:12:01:a9:21:a6:bf:72:e6:d7:46:55:81:
         1b:0e:c3:10:1d:e4:91:d1:95:7e:6e:14:81:68:39:35:32:3c:
         42:cd:ce:e1:21:6a:73:b1:c4:c5:83:4a:6b:71:63:2a:b8:89:
         4b:60:70:49:03:1c:83:ff:51:b6:43:a1:5d:86:d7:4c:99:fc:
         2a:ca:07:92:b5:b4:d1:b5:65:84:d9:62:26:9c:bb:ec:75:5f:
         22:42:74:11:66:9d:a1:40:c7:60:0b:a5:95:2f:9e:ea:9f:fe:
         60:a0:3c:aa:b7:fc:8b:82:fe:85:d5:1b:5f:76:b0:09:43:c0:
         60:26:dd:3a:f8:8c:8c:c9:ac:7f:d6:1e:04:40:98:ac:fb:ed:
         98:2a:b3:19:de:7d:3c:43:6c:81:da:29:a3:6e:25:f7:c1:8f:
         c7:27:ce:da:4c:d5:c7:49:59:3d:46:3b:ad:79:53:65:95:d4:
         95:71:f6:7c:36:bf:40:0f:c0:f2:de:e8:bd:7c:2b:01:82:7e:
         1e:c9:ed:42:92:21:b6:76:ba:bd:cb:15:d6:e6:d8:e3:fd:d8:
         c3:48:7e:3f:a9:76:1b:49:b5:e3:92:af:ca:d2:34:d2:2e:ae:
         d8:e3:b5:f9:af:26:43:3e:95:82:17:a3:89:00:02:2c:0b:4c:
         7a:05:d0:04:1d:02:6b:75:d4:35:8c:93:40:37:98:11:dc:b2:
         f7:27:17:1f:50:56:15:f0:82:b8:93:0a:b8:ea:a3:7e:10:73:
         30:b3:f2:67:cb:e5:f0:27
-----BEGIN CERTIFICATE-----
MIIGrTCCBJWgAwIBAgICMA8wDQYJKoZIhvcNAQELBQAwgawxCzAJBgNVBAYTAlVT
MQswCQYDVQQIEwJPSDERMA8GA1UEBxMIQ29sdW1idXMxEjAQBgNVBAoTCVZpa2lu
Z1ZQTjEdMBsGA1UECxMUTXlPcmdhbml6YXRpb25hbFVuaXQxFTATBgNVBAMTDFZp
a2luZ1ZQTiBDQTEQMA4GA1UEKRMHRWFzeVJTQTEhMB8GCSqGSIb3DQEJARYSbWVA
bXlob3N0Lm15ZG9tYWluMB4XDTE3MTIyNzAyNTcxNVoXDTI3MTIyNTAyNTcxNVow
HzEdMBsGA1UEAxMUQ2xpZW50MzE4NkNlcnQyMDA1ZjAwggIiMA0GCSqGSIb3DQEB
AQUAA4ICDwAwggIKAoICAQCpTBWKMmeHfFpq1/ENHKIxv3yue4g4Of8HlyHsmjWQ
OuTN2FbyJ8LIzRaBAWuLrf3N/lfILz0smFD1bJ1SS9/40x5CES9fQ1R/U7LANw8F
pc24rVAzhq1/0n/PMPA3LSs0hfFfKt8dM8x+Vbwl8H1BKkd3bjq8B8tvCKzYfjUo
sbU3vWkNbNJOjxsf4tikX9pbpNvLpZB5JQoWZp2rwxB4h43t/Bo19RYPL5bMqeMG
ZZ28cgCFxp3NJCfD4ZrH+VqbHsPuAASXTY1nXEyfx6WRKuLjvQkVWJGEDwVKtfGg
k/nX/YxqlFdS08SGlAdJSLPZRbHpD53AA7qZ5RfxnDOUt5DZmPVrGIk6vkPi9t/l
wnd11ZBf/B31Ua2sq36HtYSzO6v9uCfCa0j6YunilRXT7ISUefSX4NUynng6dfrq
hozSW19yY/owI975c8AXxdx1coTEETIqXMjL7TKJUtPCTh/VckJXtNch6v4kNzby
pSpXfPGoWSylgXgA6ubuOgVluPrs7Lw5Xvyivb7xT3ImCLh4HqPYXQFffdtee0DS
RToE+OXdswtICREFz+Qe/CJ8XLhCjstm602wdoOeLP1zEKYLnZupN/kRLBqAXMv+
3FO0etlbNtbnq6F28g17IyWvkwxVbX3EbyumVJzRkHC/oTvMNJQQ9AvGts7Fl7oO
+wIDAQABo4IBYzCCAV8wCQYDVR0TBAIwADAtBglghkgBhvhCAQ0EIBYeRWFzeS1S
U0EgR2VuZXJhdGVkIENlcnRpZmljYXRlMB0GA1UdDgQWBBTy7jVMA8BoKqHCVmmH
oHzaa7bPFjCB4QYDVR0jBIHZMIHWgBQSzWAE0qCAnnDtxpm4eyzGUv0ZoaGBsqSB
rzCBrDELMAkGA1UEBhMCVVMxCzAJBgNVBAgTAk9IMREwDwYDVQQHEwhDb2x1bWJ1
czESMBAGA1UEChMJVmlraW5nVlBOMR0wGwYDVQQLExRNeU9yZ2FuaXphdGlvbmFs
VW5pdDEVMBMGA1UEAxMMVmlraW5nVlBOIENBMRAwDgYDVQQpEwdFYXN5UlNBMSEw
HwYJKoZIhvcNAQkBFhJtZUBteWhvc3QubXlkb21haW6CCQDPNYXugL8qPjATBgNV
HSUEDDAKBggrBgEFBQcDAjALBgNVHQ8EBAMCB4AwDQYJKoZIhvcNAQELBQADggIB
ACyvEz9oDFuNBSfwLOE4aBbsZyTt6BaYZhhzu6CtyxHpfEfcZgu2JKhTFZ6BfzfC
SgPtDp81DDM3pBoM3d4fgSMVDCjP8yZz8RSU+t707bQA1q99dMI50lxmMACGMIiE
521YElbLWx+MZDjPBnBkAXSW6UZPWa1/6UdE0jSKRcasdbfw5Ojh3UrxrRlGyTDW
vfMc4j3yIno/7lScY4pzPHyu+Zv7mu1eGsFKD0uXex0uIcHFTSaHo3TKDUXP1Zk1
U7LPvbzxemo0w6PjEj0hA5RNB+HQJ2M7NNsmN8gdtBIBqSGmv3Lm10ZVgRsOwxAd
5JHRlX5uFIFoOTUyPELNzuEhanOxxMWDSmtxYyq4iUtgcEkDHIP/UbZDoV2G10yZ
/CrKB5K1tNG1ZYTZYiacu+x1XyJCdBFmnaFAx2ALpZUvnuqf/mCgPKq3/IuC/oXV
G192sAlDwGAm3Tr4jIzJrH/WHgRAmKz77ZgqsxnefTxDbIHaKaNuJffBj8cnztpM
1cdJWT1GO615U2WV1JVx9nw2v0APwPLe6L18KwGCfh7J7UKSIbZ2ur3LFdbm2OP9
2MNIfj+pdhtJteOSr8rSNNIurtjjtfmvJkM+lYIXo4kAAiwLTHoF0AQdAmt11DWM
k0A3mBHcsvcnFx9QVhXwgriTCrjqo34QczCz8mfL5fAn
-----END CERTIFICATE-----
