Certificate:
    Data:
        Version: 3 (0x2)
        Serial Number: 5116 (0x13fc)
    Signature Algorithm: md5WithRSAEncryption
        Issuer: C=US, ST=OH, L=Columbus, O=VikingVPN, OU=MyOrganizationalUnit, CN=VikingVPN CA/name=EasyRSA/emailAddress=me@myhost.mydomain
        Validity
            Not Before: Apr 28 22:21:47 2015 GMT
            Not After : Apr 25 22:21:47 2025 GMT
        Subject: CN=Client1591Certe81d30
        Subject Public Key Info:
            Public Key Algorithm: rsaEncryption
                Public-Key: (4096 bit)
                Modulus:
                    00:b7:1b:0a:cd:3c:ff:6e:a5:fe:27:94:f4:85:98:
                    85:0b:ff:d9:0a:e7:7b:fe:9e:25:c6:0a:e0:87:cb:
                    67:9f:52:75:8d:b6:e8:c3:6b:bd:6f:06:dc:2c:4e:
                    3b:f7:8d:44:d4:0c:86:01:b4:b2:2e:c1:63:64:54:
                    2d:ab:97:47:54:54:51:4a:fb:1e:a9:af:48:b6:0d:
                    fe:1e:4c:08:c7:6d:79:1b:ec:5b:b5:b1:ff:a0:f5:
                    58:3e:be:be:4b:b1:e3:78:a5:1a:be:3d:19:ab:96:
                    a8:b5:5a:16:df:b7:27:72:a8:94:a2:87:0e:d1:f3:
                    1f:fb:ee:e7:bc:5a:49:20:56:57:72:f3:7c:c2:32:
                    07:f3:72:59:c3:3b:de:e5:46:b7:5f:0f:07:7f:7b:
                    d3:bf:1e:55:d0:85:4b:6d:63:ff:2c:2d:d4:9e:2c:
                    17:ac:fb:2d:f6:16:e4:85:49:3c:28:e8:08:0a:52:
                    76:ef:0a:10:dd:b7:fc:f5:c5:5b:65:1f:83:be:c3:
                    27:e5:ac:e6:a0:0b:b9:4c:48:19:4a:ed:93:69:26:
                    26:d4:11:fb:6b:28:96:6d:32:4d:59:42:5c:50:50:
                    e3:cc:cb:e3:86:66:f4:ea:8f:3c:85:e9:e6:5e:9d:
                    71:c0:28:f4:0e:a7:82:e4:ed:e0:cd:bf:08:48:a4:
                    7b:28:e4:79:bc:ab:f7:31:a3:bf:66:2b:7b:07:a3:
                    f3:56:86:f1:17:4d:01:15:fe:c1:3b:4a:17:96:5e:
                    b9:99:b3:87:73:4a:27:7c:ca:f8:64:69:ff:b7:aa:
                    d6:20:4e:31:41:58:44:af:4e:5a:dd:75:2d:fe:cb:
                    25:14:ae:ed:70:20:21:89:1e:40:a4:50:3b:9b:32:
                    59:d1:88:c2:98:a0:20:23:57:b2:c7:2a:98:64:82:
                    ad:8f:bd:11:f5:9f:1d:3f:ef:67:ff:6e:0f:e7:98:
                    82:5e:b9:0e:30:62:62:97:ad:29:fc:40:64:97:17:
                    f1:6d:32:04:79:21:04:4c:ed:54:d0:f4:9c:46:ca:
                    ae:2d:81:d6:cd:5e:45:2c:0d:8c:8d:63:cd:9a:0d:
                    a0:6e:52:cc:77:94:94:f0:0a:32:c2:6a:ca:44:0e:
                    f1:c0:75:94:6a:9d:2d:20:44:f3:1f:b6:24:f9:28:
                    57:9c:90:dd:8e:a1:fa:c4:3e:8f:b0:f6:70:ee:2e:
                    d8:00:2c:b4:d5:13:d1:ff:a6:bf:34:74:d3:c6:bb:
                    21:3f:3b:4d:d6:f8:f4:2d:f3:83:77:d7:81:ef:ab:
                    67:a3:67:ba:5d:87:09:f2:6d:6b:49:0b:db:51:f3:
                    38:b3:f4:a6:50:3a:af:87:73:18:a5:ab:fa:9d:ed:
                    e5:a2:f3
                Exponent: 65537 (0x10001)
        X509v3 extensions:
            X509v3 Basic Constraints: 
                CA:FALSE
            Netscape Comment: 
                Easy-RSA Generated Certificate
            X509v3 Subject Key Identifier: 
                CF:22:EF:CD:B9:19:2A:44:00:15:4A:DB:F8:78:8F:8E:84:63:CA:1C
            X509v3 Authority Key Identifier: 
                keyid:12:CD:60:04:D2:A0:80:9E:70:ED:C6:99:B8:7B:2C:C6:52:FD:19:A1
                DirName:/C=US/ST=OH/L=Columbus/O=VikingVPN/OU=MyOrganizationalUnit/CN=VikingVPN CA/name=EasyRSA/emailAddress=me@myhost.mydomain
                serial:CF:35:85:EE:80:BF:2A:3E

            X509v3 Extended Key Usage: 
                TLS Web Client Authentication
            X509v3 Key Usage: 
                Digital Signature
    Signature Algorithm: md5WithRSAEncryption
         5d:2a:64:7e:09:51:c0:95:39:1e:3e:87:97:e7:ef:de:aa:b5:
         28:7a:a3:87:9f:74:ec:1b:5e:18:18:95:5d:a1:5c:1e:ae:ed:
         76:96:7b:b6:c0:f0:88:90:df:a0:05:96:67:6c:1d:7b:a1:44:
         49:bb:2c:e3:1f:3a:14:06:15:d2:76:f9:01:4a:41:7e:2e:ed:
         ec:da:8b:de:26:3d:79:f0:e3:6c:e5:50:6e:52:e2:01:4d:10:
         01:81:8f:ca:9d:34:91:c1:c0:67:f8:94:8a:d6:ce:6f:48:88:
         03:48:7b:e4:e6:23:57:d2:fa:11:1b:ec:4f:d9:89:74:4b:3a:
         f0:c2:5a:fe:c5:37:48:33:11:48:49:b7:3d:b6:3c:36:73:7f:
         49:74:0a:a4:17:51:76:b3:8d:8a:9f:df:17:70:5d:9a:c4:8b:
         a1:74:fd:ab:6f:eb:1a:c1:b4:27:31:16:1b:e6:54:36:21:af:
         e1:4a:32:7a:93:fc:a1:ee:71:46:da:f5:a8:c5:10:21:e7:a4:
         61:51:37:30:d5:5f:de:13:c1:6d:73:78:da:43:39:a6:25:53:
         a5:9d:cd:5c:fb:5e:0b:92:93:77:69:7d:93:3b:1b:f1:90:4a:
         70:5f:9f:df:4e:98:3a:30:bb:d0:b5:e0:50:71:3e:24:9c:4b:
         2b:7a:09:f3:fc:8c:e8:77:60:bd:fc:81:d9:29:e1:d7:f3:1e:
         5a:2a:5a:77:99:10:4b:5f:65:40:30:b8:4d:8b:e2:52:85:d3:
         31:a2:7e:2b:78:c5:bd:d5:10:85:f6:c3:16:39:30:e4:6b:d1:
         12:51:ac:15:c6:e6:fb:a7:2a:36:66:8b:11:c8:40:4d:aa:ac:
         e9:81:7c:e1:8a:cc:bb:67:00:f4:84:f4:82:c4:04:65:aa:e9:
         61:90:01:ff:60:4e:0a:44:c0:cd:f6:9a:e3:90:92:ec:d9:7e:
         93:09:36:f4:d5:2f:64:6b:44:cc:58:e6:38:c3:e6:f4:b2:2b:
         5b:03:33:bf:3d:a7:d8:27:1f:13:4b:23:b1:90:0e:aa:19:27:
         49:96:81:28:ee:3e:40:0a:52:f6:de:b1:7d:77:57:ae:51:d4:
         70:d8:97:dd:3b:ce:ed:f8:4a:85:aa:ce:82:63:27:92:4e:6c:
         c4:e1:62:ff:08:da:d6:0a:7b:dd:1f:a2:76:37:1c:16:19:85:
         93:6a:1a:cf:f0:aa:b1:59:8e:bd:96:c3:54:65:5a:c2:dd:87:
         34:7f:b3:bc:a4:d8:6b:75:c6:da:2c:4b:db:b0:20:48:e6:91:
         8e:74:d9:75:89:2d:2a:07:2a:a4:4f:64:8f:ab:98:83:23:85:
         1d:29:a8:7f:f2:86:ea:65
-----BEGIN CERTIFICATE-----
MIIGrTCCBJWgAwIBAgICE/wwDQYJKoZIhvcNAQEEBQAwgawxCzAJBgNVBAYTAlVT
MQswCQYDVQQIEwJPSDERMA8GA1UEBxMIQ29sdW1idXMxEjAQBgNVBAoTCVZpa2lu
Z1ZQTjEdMBsGA1UECxMUTXlPcmdhbml6YXRpb25hbFVuaXQxFTATBgNVBAMTDFZp
a2luZ1ZQTiBDQTEQMA4GA1UEKRMHRWFzeVJTQTEhMB8GCSqGSIb3DQEJARYSbWVA
bXlob3N0Lm15ZG9tYWluMB4XDTE1MDQyODIyMjE0N1oXDTI1MDQyNTIyMjE0N1ow
HzEdMBsGA1UEAxMUQ2xpZW50MTU5MUNlcnRlODFkMzAwggIiMA0GCSqGSIb3DQEB
AQUAA4ICDwAwggIKAoICAQC3GwrNPP9upf4nlPSFmIUL/9kK53v+niXGCuCHy2ef
UnWNtujDa71vBtwsTjv3jUTUDIYBtLIuwWNkVC2rl0dUVFFK+x6pr0i2Df4eTAjH
bXkb7Fu1sf+g9Vg+vr5LseN4pRq+PRmrlqi1WhbftydyqJSihw7R8x/77ue8Wkkg
Vldy83zCMgfzclnDO97lRrdfDwd/e9O/HlXQhUttY/8sLdSeLBes+y32FuSFSTwo
6AgKUnbvChDdt/z1xVtlH4O+wyflrOagC7lMSBlK7ZNpJibUEftrKJZtMk1ZQlxQ
UOPMy+OGZvTqjzyF6eZenXHAKPQOp4Lk7eDNvwhIpHso5Hm8q/cxo79mK3sHo/NW
hvEXTQEV/sE7SheWXrmZs4dzSid8yvhkaf+3qtYgTjFBWESvTlrddS3+yyUUru1w
ICGJHkCkUDubMlnRiMKYoCAjV7LHKphkgq2PvRH1nx0/72f/bg/nmIJeuQ4wYmKX
rSn8QGSXF/FtMgR5IQRM7VTQ9JxGyq4tgdbNXkUsDYyNY82aDaBuUsx3lJTwCjLC
aspEDvHAdZRqnS0gRPMftiT5KFeckN2OofrEPo+w9nDuLtgALLTVE9H/pr80dNPG
uyE/O03W+PQt84N314Hvq2ejZ7pdhwnybWtJC9tR8ziz9KZQOq+Hcxilq/qd7eWi
8wIDAQABo4IBYzCCAV8wCQYDVR0TBAIwADAtBglghkgBhvhCAQ0EIBYeRWFzeS1S
U0EgR2VuZXJhdGVkIENlcnRpZmljYXRlMB0GA1UdDgQWBBTPIu/NuRkqRAAVStv4
eI+OhGPKHDCB4QYDVR0jBIHZMIHWgBQSzWAE0qCAnnDtxpm4eyzGUv0ZoaGBsqSB
rzCBrDELMAkGA1UEBhMCVVMxCzAJBgNVBAgTAk9IMREwDwYDVQQHEwhDb2x1bWJ1
czESMBAGA1UEChMJVmlraW5nVlBOMR0wGwYDVQQLExRNeU9yZ2FuaXphdGlvbmFs
VW5pdDEVMBMGA1UEAxMMVmlraW5nVlBOIENBMRAwDgYDVQQpEwdFYXN5UlNBMSEw
HwYJKoZIhvcNAQkBFhJtZUBteWhvc3QubXlkb21haW6CCQDPNYXugL8qPjATBgNV
HSUEDDAKBggrBgEFBQcDAjALBgNVHQ8EBAMCB4AwDQYJKoZIhvcNAQEEBQADggIB
AF0qZH4JUcCVOR4+h5fn796qtSh6o4efdOwbXhgYlV2hXB6u7XaWe7bA8IiQ36AF
lmdsHXuhREm7LOMfOhQGFdJ2+QFKQX4u7ezai94mPXnw42zlUG5S4gFNEAGBj8qd
NJHBwGf4lIrWzm9IiANIe+TmI1fS+hEb7E/ZiXRLOvDCWv7FN0gzEUhJtz22PDZz
f0l0CqQXUXazjYqf3xdwXZrEi6F0/atv6xrBtCcxFhvmVDYhr+FKMnqT/KHucUba
9ajFECHnpGFRNzDVX94TwW1zeNpDOaYlU6WdzVz7XguSk3dpfZM7G/GQSnBfn99O
mDowu9C14FBxPiScSyt6CfP8jOh3YL38gdkp4dfzHloqWneZEEtfZUAwuE2L4lKF
0zGifit4xb3VEIX2wxY5MORr0RJRrBXG5vunKjZmixHIQE2qrOmBfOGKzLtnAPSE
9ILEBGWq6WGQAf9gTgpEwM32muOQkuzZfpMJNvTVL2RrRMxY5jjD5vSyK1sDM789
p9gnHxNLI7GQDqoZJ0mWgSjuPkAKUvbesX13V65R1HDYl907zu34SoWqzoJjJ5JO
bMThYv8I2tYKe90fonY3HBYZhZNqGs/wqrFZjr2Ww1RlWsLdhzR/s7yk2Gt1xtos
S9uwIEjmkY502XWJLSoHKqRPZI+rmIMjhR0pqH/yhupl
-----END CERTIFICATE-----
