Certificate:
    Data:
        Version: 3 (0x2)
        Serial Number: 12226 (0x2fc2)
    Signature Algorithm: sha256WithRSAEncryption
        Issuer: C=US, ST=OH, L=Columbus, O=VikingVPN, OU=MyOrganizationalUnit, CN=VikingVPN CA/name=EasyRSA/emailAddress=me@myhost.mydomain
        Validity
            Not Before: Dec  5 00:59:35 2017 GMT
            Not After : Dec  3 00:59:35 2027 GMT
        Subject: CN=Client2998Cert3d6cf8
        Subject Public Key Info:
            Public Key Algorithm: rsaEncryption
                Public-Key: (4096 bit)
                Modulus:
                    00:d3:0b:86:79:65:ff:47:4f:09:f7:db:81:25:1d:
                    d0:55:90:41:48:98:4d:3b:fc:56:78:4f:69:ab:ba:
                    af:cd:5e:73:96:97:d3:ab:3b:6a:9b:de:5e:e7:7f:
                    93:35:60:2a:73:24:a5:da:33:68:e5:37:4b:20:ff:
                    8f:0f:b3:10:ff:98:b5:b0:b7:02:e8:bf:eb:88:a0:
                    26:5d:bb:86:17:ff:e0:83:4f:09:e7:fe:9b:34:73:
                    43:df:1e:8f:52:51:95:89:85:9f:90:2e:7e:5b:04:
                    63:bf:d5:f5:80:74:4d:ec:06:78:25:2c:3c:73:be:
                    a0:9d:f3:4c:01:9f:bf:a6:3c:02:3d:0e:0e:fd:89:
                    98:7a:68:0e:fd:af:1c:a1:60:f7:8b:78:44:b5:00:
                    b1:39:c2:65:23:11:cc:1a:16:e3:55:1c:1b:dc:d5:
                    ef:8d:93:40:21:28:87:7b:d3:e1:39:fd:27:25:92:
                    07:64:10:79:37:c9:5c:fe:14:bf:61:c4:a7:d8:d3:
                    b5:8d:08:4e:7d:e0:35:ba:4a:6b:5b:4a:6e:5b:b7:
                    a3:48:e8:83:a9:c9:70:4f:58:fd:98:a5:5c:b9:a6:
                    09:ba:3c:46:7d:7a:c2:b8:f8:bc:b3:10:0a:55:42:
                    76:08:15:93:3b:2f:ad:ef:b7:99:d2:6a:2c:9d:3b:
                    1d:ae:35:fc:5c:bb:1e:e0:8e:32:c7:c5:48:fa:db:
                    e6:52:b4:fd:51:40:32:79:be:2a:21:34:35:02:44:
                    79:51:ec:59:cf:3f:fe:c3:a2:e9:11:22:e7:1e:22:
                    71:ca:f3:50:9a:fa:f9:8e:ba:be:35:5c:6f:fd:8e:
                    d6:24:0e:5e:69:21:e5:65:fd:67:7b:d3:05:58:a6:
                    65:b9:2a:60:94:be:3a:ac:8a:14:f0:54:e1:4d:7f:
                    61:82:68:5f:5f:75:be:7a:2e:07:1f:71:3a:8f:60:
                    1e:1d:a9:ab:5f:0b:c9:ca:ca:ab:9e:03:bc:84:50:
                    8f:ef:f2:6c:87:d3:77:1c:0e:0b:9e:69:84:16:7c:
                    29:ce:84:c3:de:d1:68:03:d3:f9:81:6a:5e:4e:64:
                    93:f8:84:8a:68:d3:63:b1:6d:75:0b:40:01:75:9b:
                    57:4e:89:48:18:f4:9a:64:87:56:df:05:ab:3b:14:
                    5d:0e:1b:10:74:b7:d2:2e:07:a3:f1:70:f1:e4:8b:
                    15:21:59:e8:53:59:e8:8d:97:17:70:a1:20:37:dd:
                    49:c9:c9:ea:d0:5d:5e:c7:50:53:95:06:d0:1c:a8:
                    1e:68:4e:c4:a8:f4:fc:3d:ff:89:84:7b:59:e8:b3:
                    74:cf:78:de:61:11:6b:f9:be:37:ef:a1:c7:9d:fc:
                    c8:26:49
                Exponent: 65537 (0x10001)
        X509v3 extensions:
            X509v3 Basic Constraints: 
                CA:FALSE
            Netscape Comment: 
                Easy-RSA Generated Certificate
            X509v3 Subject Key Identifier: 
                7B:01:91:72:A2:AB:35:F1:3C:E8:F3:C1:E8:81:77:56:A3:81:14:DE
            X509v3 Authority Key Identifier: 
                keyid:12:CD:60:04:D2:A0:80:9E:70:ED:C6:99:B8:7B:2C:C6:52:FD:19:A1
                DirName:/C=US/ST=OH/L=Columbus/O=VikingVPN/OU=MyOrganizationalUnit/CN=VikingVPN CA/name=EasyRSA/emailAddress=me@myhost.mydomain
                serial:CF:35:85:EE:80:BF:2A:3E

            X509v3 Extended Key Usage: 
                TLS Web Client Authentication
            X509v3 Key Usage: 
                Digital Signature
    Signature Algorithm: sha256WithRSAEncryption
         85:d5:7a:a5:2f:60:55:4e:4c:3a:d7:c9:6f:a8:b9:ef:a6:46:
         2b:e5:bd:c2:f0:b6:51:ab:fe:f4:54:5c:ca:b4:45:24:56:d7:
         86:37:64:0e:7a:ce:25:70:8c:c4:20:14:d2:91:e0:49:04:f9:
         e0:ec:51:6b:0f:a5:80:e9:e2:f5:a2:9c:25:5f:f9:76:12:1c:
         16:d3:53:30:00:cb:7c:ef:82:01:91:f1:ae:b6:f1:73:0c:c3:
         66:ef:3d:c5:33:d6:ce:2f:00:86:0b:05:f6:03:7c:21:ff:6e:
         dd:26:a8:77:b6:3d:f7:45:a1:70:d4:8c:b9:50:c9:4b:eb:af:
         e6:54:98:62:ae:34:65:4b:f9:62:73:f6:5a:36:46:60:ec:68:
         fc:f4:98:c2:91:47:19:68:67:35:4f:9f:01:b4:bb:e1:ff:7c:
         cf:6f:bb:12:c1:d4:11:a8:30:ef:b5:6b:cb:cb:34:82:59:b0:
         5c:da:a8:cb:75:2e:66:bc:34:93:9d:c8:4b:9c:7e:f8:c7:b2:
         86:45:76:62:93:c8:0e:c7:b2:9c:da:00:5e:33:52:90:52:23:
         ab:27:b7:d7:ab:ed:90:0a:f5:81:91:94:67:74:e6:09:6d:09:
         2d:13:36:1a:79:57:43:39:02:1d:f9:bc:f1:24:7b:db:d0:d3:
         54:0e:fd:47:dd:7c:13:13:e0:cd:43:0e:a5:f0:cf:b6:ee:0c:
         5a:2d:5f:d9:ec:62:d9:1d:c2:e0:c7:54:2a:71:7a:dc:3e:1c:
         e9:b7:c4:68:d7:e5:04:e7:f7:2f:12:74:06:e8:00:b9:77:53:
         a8:be:a3:fd:42:76:eb:16:bc:1e:4a:60:f9:22:11:7f:b3:bb:
         73:9a:79:3a:22:12:50:80:31:e6:d4:2e:b3:58:72:13:12:27:
         9a:28:ce:a0:0c:2f:5e:28:5f:9f:90:9e:41:85:2d:5c:d0:e1:
         2b:a2:66:c8:2f:0a:f1:b8:c3:a0:e3:b7:34:82:10:7c:dc:d1:
         5c:ef:a1:2d:e1:e8:c3:8e:3d:2b:f0:88:0c:c7:af:27:3f:8e:
         81:e5:0e:3d:78:47:2c:d6:6c:3a:69:e7:c2:1f:a8:7b:19:31:
         96:f8:70:88:70:da:54:62:30:9f:8d:a6:c5:2f:d5:de:f1:f3:
         b5:a8:98:d8:6c:f1:61:73:55:bd:de:0b:b7:a0:75:de:b9:24:
         77:1c:a2:61:68:ed:2e:54:06:ba:c7:cd:42:d1:48:88:f2:ec:
         6b:ff:0e:15:ce:1f:ae:6c:4e:81:5a:14:b0:01:5b:e9:01:17:
         ac:7b:c1:5c:f8:5f:83:f9:5f:6e:98:0d:76:53:9f:29:97:0c:
         f3:06:7d:25:fd:70:11:7c
-----BEGIN CERTIFICATE-----
MIIGrTCCBJWgAwIBAgICL8IwDQYJKoZIhvcNAQELBQAwgawxCzAJBgNVBAYTAlVT
MQswCQYDVQQIEwJPSDERMA8GA1UEBxMIQ29sdW1idXMxEjAQBgNVBAoTCVZpa2lu
Z1ZQTjEdMBsGA1UECxMUTXlPcmdhbml6YXRpb25hbFVuaXQxFTATBgNVBAMTDFZp
a2luZ1ZQTiBDQTEQMA4GA1UEKRMHRWFzeVJTQTEhMB8GCSqGSIb3DQEJARYSbWVA
bXlob3N0Lm15ZG9tYWluMB4XDTE3MTIwNTAwNTkzNVoXDTI3MTIwMzAwNTkzNVow
HzEdMBsGA1UEAxMUQ2xpZW50Mjk5OENlcnQzZDZjZjgwggIiMA0GCSqGSIb3DQEB
AQUAA4ICDwAwggIKAoICAQDTC4Z5Zf9HTwn324ElHdBVkEFImE07/FZ4T2mruq/N
XnOWl9OrO2qb3l7nf5M1YCpzJKXaM2jlN0sg/48PsxD/mLWwtwLov+uIoCZdu4YX
/+CDTwnn/ps0c0PfHo9SUZWJhZ+QLn5bBGO/1fWAdE3sBnglLDxzvqCd80wBn7+m
PAI9Dg79iZh6aA79rxyhYPeLeES1ALE5wmUjEcwaFuNVHBvc1e+Nk0AhKId70+E5
/SclkgdkEHk3yVz+FL9hxKfY07WNCE594DW6SmtbSm5bt6NI6IOpyXBPWP2YpVy5
pgm6PEZ9esK4+LyzEApVQnYIFZM7L63vt5nSaiydOx2uNfxcux7gjjLHxUj62+ZS
tP1RQDJ5viohNDUCRHlR7FnPP/7DoukRIuceInHK81Ca+vmOur41XG/9jtYkDl5p
IeVl/Wd70wVYpmW5KmCUvjqsihTwVOFNf2GCaF9fdb56LgcfcTqPYB4dqatfC8nK
yqueA7yEUI/v8myH03ccDgueaYQWfCnOhMPe0WgD0/mBal5OZJP4hIpo02OxbXUL
QAF1m1dOiUgY9Jpkh1bfBas7FF0OGxB0t9IuB6PxcPHkixUhWehTWeiNlxdwoSA3
3UnJyerQXV7HUFOVBtAcqB5oTsSo9Pw9/4mEe1nos3TPeN5hEWv5vjfvoced/Mgm
SQIDAQABo4IBYzCCAV8wCQYDVR0TBAIwADAtBglghkgBhvhCAQ0EIBYeRWFzeS1S
U0EgR2VuZXJhdGVkIENlcnRpZmljYXRlMB0GA1UdDgQWBBR7AZFyoqs18Tzo88Ho
gXdWo4EU3jCB4QYDVR0jBIHZMIHWgBQSzWAE0qCAnnDtxpm4eyzGUv0ZoaGBsqSB
rzCBrDELMAkGA1UEBhMCVVMxCzAJBgNVBAgTAk9IMREwDwYDVQQHEwhDb2x1bWJ1
czESMBAGA1UEChMJVmlraW5nVlBOMR0wGwYDVQQLExRNeU9yZ2FuaXphdGlvbmFs
VW5pdDEVMBMGA1UEAxMMVmlraW5nVlBOIENBMRAwDgYDVQQpEwdFYXN5UlNBMSEw
HwYJKoZIhvcNAQkBFhJtZUBteWhvc3QubXlkb21haW6CCQDPNYXugL8qPjATBgNV
HSUEDDAKBggrBgEFBQcDAjALBgNVHQ8EBAMCB4AwDQYJKoZIhvcNAQELBQADggIB
AIXVeqUvYFVOTDrXyW+oue+mRivlvcLwtlGr/vRUXMq0RSRW14Y3ZA56ziVwjMQg
FNKR4EkE+eDsUWsPpYDp4vWinCVf+XYSHBbTUzAAy3zvggGR8a628XMMw2bvPcUz
1s4vAIYLBfYDfCH/bt0mqHe2PfdFoXDUjLlQyUvrr+ZUmGKuNGVL+WJz9lo2RmDs
aPz0mMKRRxloZzVPnwG0u+H/fM9vuxLB1BGoMO+1a8vLNIJZsFzaqMt1Lma8NJOd
yEucfvjHsoZFdmKTyA7HspzaAF4zUpBSI6snt9er7ZAK9YGRlGd05gltCS0TNhp5
V0M5Ah35vPEke9vQ01QO/UfdfBMT4M1DDqXwz7buDFotX9nsYtkdwuDHVCpxetw+
HOm3xGjX5QTn9y8SdAboALl3U6i+o/1CdusWvB5KYPkiEX+zu3OaeToiElCAMebU
LrNYchMSJ5oozqAML14oX5+QnkGFLVzQ4SuiZsgvCvG4w6DjtzSCEHzc0VzvoS3h
6MOOPSvwiAzHryc/joHlDj14RyzWbDpp58IfqHsZMZb4cIhw2lRiMJ+NpsUv1d7x
87WomNhs8WFzVb3eC7egdd65JHccomFo7S5UBrrHzULRSIjy7Gv/DhXOH65sToFa
FLABW+kBF6x7wVz4X4P5X26YDXZTnymXDPMGfSX9cBF8
-----END CERTIFICATE-----
