Certificate:
    Data:
        Version: 3 (0x2)
        Serial Number: 6634 (0x19ea)
    Signature Algorithm: md5WithRSAEncryption
        Issuer: C=US, ST=OH, L=Columbus, O=VikingVPN, OU=MyOrganizationalUnit, CN=VikingVPN CA/name=EasyRSA/emailAddress=me@myhost.mydomain
        Validity
            Not Before: Nov  5 00:22:53 2015 GMT
            Not After : Nov  2 00:22:53 2025 GMT
        Subject: CN=Client1364Certcc88e9
        Subject Public Key Info:
            Public Key Algorithm: rsaEncryption
                Public-Key: (4096 bit)
                Modulus:
                    00:9a:ce:61:ba:67:79:8f:63:34:33:96:3e:b8:fc:
                    0a:f4:47:13:28:d4:08:40:e8:c2:e0:ab:8c:8e:3f:
                    9a:91:16:ca:51:00:f7:6a:6a:ba:27:91:27:4c:0d:
                    3a:f0:ae:8d:96:d1:c9:45:28:b3:eb:65:0c:ce:0e:
                    1e:61:16:25:ae:f0:c2:f0:6a:c6:8f:27:70:7c:4d:
                    bd:91:85:ff:ed:71:b2:81:a7:25:d5:be:f3:d0:f3:
                    d8:fa:8a:32:e3:20:6b:42:13:2c:22:56:09:c8:c3:
                    f3:c5:d6:e5:40:73:b2:e9:2a:b3:8f:e2:43:e8:10:
                    50:43:8b:e9:56:de:e8:35:f0:c6:26:15:29:03:b7:
                    24:5d:13:f6:04:27:6f:55:8f:91:f3:89:28:24:9c:
                    3e:7a:3d:67:9a:e4:72:c9:23:35:3b:8b:c2:62:8b:
                    66:a5:8b:6c:5c:94:18:1c:42:ee:3b:84:40:17:31:
                    64:e5:eb:67:6a:5a:9e:a9:cf:0e:5e:73:ee:aa:cb:
                    ae:39:ad:31:e4:e5:b0:68:b1:09:00:52:2c:be:aa:
                    fd:02:aa:0c:cb:43:ae:e9:3a:4f:e2:76:31:b4:e9:
                    4c:1c:31:02:4d:f2:51:41:7e:e2:7a:a0:d8:28:ac:
                    33:eb:2b:35:08:dc:94:6e:ec:8f:a1:68:7e:44:2b:
                    82:93:86:64:0c:d6:f1:af:fc:10:41:74:b8:9e:bf:
                    77:f8:c1:93:84:27:03:1e:e1:e2:c9:67:a8:17:d5:
                    0a:c2:99:11:a0:cb:7b:8d:8f:cc:e2:1c:33:cf:91:
                    31:32:ec:3c:f0:c8:d4:3d:50:24:39:c6:bf:70:ba:
                    6a:c1:90:f0:63:67:1c:02:11:d8:8b:af:77:bd:d7:
                    66:8f:3f:be:a1:8a:15:bd:d1:da:d3:a9:ca:0e:8b:
                    9f:ce:79:5b:84:83:2a:f1:35:e8:a7:71:5c:37:af:
                    c0:7b:17:cd:43:32:9e:69:53:7b:87:7c:97:0f:b2:
                    a6:e2:3f:52:8e:21:b3:a4:8f:68:87:94:d1:a8:30:
                    5f:b7:46:87:f0:07:6a:09:87:7f:0a:90:25:64:7b:
                    97:1d:73:e8:cb:e8:b5:bd:bf:ea:a8:ca:9e:9b:c9:
                    56:d6:d1:19:09:de:d4:a1:38:56:63:94:28:c7:f5:
                    65:2d:5c:5a:dc:ba:d0:e4:52:fe:52:67:03:e8:da:
                    35:1e:6a:e3:a5:ae:aa:61:c5:5f:5c:81:90:f8:6b:
                    10:4f:65:f3:82:05:4a:df:0d:53:a1:c1:26:1b:72:
                    86:fb:86:07:16:29:5e:fc:87:07:0a:fa:b7:c0:dd:
                    c0:53:b4:36:f3:2c:d5:39:9f:03:ab:ed:1e:82:23:
                    17:a3:11
                Exponent: 65537 (0x10001)
        X509v3 extensions:
            X509v3 Basic Constraints: 
                CA:FALSE
            Netscape Comment: 
                Easy-RSA Generated Certificate
            X509v3 Subject Key Identifier: 
                38:27:B9:AF:E0:DB:42:B5:E9:DE:B7:29:CB:E3:D0:48:6A:B4:DE:37
            X509v3 Authority Key Identifier: 
                keyid:12:CD:60:04:D2:A0:80:9E:70:ED:C6:99:B8:7B:2C:C6:52:FD:19:A1
                DirName:/C=US/ST=OH/L=Columbus/O=VikingVPN/OU=MyOrganizationalUnit/CN=VikingVPN CA/name=EasyRSA/emailAddress=me@myhost.mydomain
                serial:CF:35:85:EE:80:BF:2A:3E

            X509v3 Extended Key Usage: 
                TLS Web Client Authentication
            X509v3 Key Usage: 
                Digital Signature
    Signature Algorithm: md5WithRSAEncryption
         57:83:38:1b:34:e3:e5:0b:a4:31:08:56:0a:74:c3:86:75:eb:
         fa:d1:45:bf:19:cf:23:6a:97:67:7e:ce:15:14:c8:3e:5c:a4:
         47:b4:9b:f3:ed:83:99:c7:55:9a:3a:cc:b0:32:1a:e2:7e:41:
         9b:89:e4:6c:ca:4f:ae:76:7e:f7:b6:33:36:ec:1f:9d:48:97:
         c5:7d:b1:87:8b:6c:46:0d:23:62:9e:35:f5:bb:99:be:12:22:
         54:e7:60:34:3a:d1:94:7c:ae:1f:f6:00:b3:27:a0:6f:07:66:
         a9:d5:c5:47:6e:da:3c:81:bf:66:62:f2:7b:e0:c1:62:05:c7:
         6d:43:9e:1c:8d:17:83:f1:50:f5:dd:fc:58:29:92:2f:fb:de:
         28:57:73:f6:cf:ee:83:eb:81:c9:c7:ed:e2:9b:88:14:fe:de:
         18:c9:3f:f2:4a:ac:00:06:e1:8a:5e:37:99:7a:d3:ca:a9:9e:
         8a:7c:e7:01:89:76:98:e9:cb:91:18:50:9b:13:e0:fb:8f:d7:
         24:60:4e:83:2a:4f:23:af:e8:52:86:d4:37:4a:16:7e:90:5f:
         fe:3a:88:b6:ea:5c:70:e8:38:50:e0:85:f1:8a:93:62:07:8e:
         9e:00:62:c4:cb:50:c1:19:93:f8:e1:12:c8:73:18:57:ad:07:
         4d:d8:a9:6b:b2:93:ba:63:20:e1:13:0d:30:f2:97:f6:4e:f7:
         8e:59:f1:3f:69:56:10:4e:6c:e3:71:c5:65:8b:07:90:da:47:
         af:4f:af:5f:05:08:c4:7f:85:1e:f2:90:8a:3d:5e:e8:8f:55:
         be:a7:7f:13:91:27:fb:69:a0:5f:47:5a:95:18:ef:85:8c:d0:
         58:78:bb:5e:e0:fd:1b:9d:57:34:02:2f:a7:f3:68:90:c1:b2:
         5b:61:9c:67:4e:b1:0d:49:2d:55:f5:ef:16:97:37:83:a6:bf:
         7f:36:54:e2:99:98:65:02:0f:a4:22:40:5f:cf:5c:69:10:eb:
         42:5b:1f:04:2d:09:7e:7e:2f:7b:d4:7c:c1:b1:28:56:e7:7e:
         90:e6:7c:eb:91:4f:b5:40:28:2a:dc:ff:9d:f8:ea:47:35:cf:
         42:ca:16:3a:e5:51:0e:f0:b0:81:7d:b4:34:df:74:c1:e5:94:
         ae:fe:ff:f1:8a:0c:3e:64:2a:be:76:f0:7b:41:cb:b6:59:ae:
         48:33:a5:33:cf:4b:ff:45:db:7a:47:1a:d6:8e:a2:0f:a0:92:
         4b:14:f2:c5:36:03:ac:18:c0:9d:bb:16:53:26:56:67:56:81:
         cd:5c:5a:88:97:ab:01:cf:67:ac:5c:3a:59:b4:a2:e1:eb:53:
         33:05:0d:c7:d8:85:7f:b0
-----BEGIN CERTIFICATE-----
MIIGrTCCBJWgAwIBAgICGeowDQYJKoZIhvcNAQEEBQAwgawxCzAJBgNVBAYTAlVT
MQswCQYDVQQIEwJPSDERMA8GA1UEBxMIQ29sdW1idXMxEjAQBgNVBAoTCVZpa2lu
Z1ZQTjEdMBsGA1UECxMUTXlPcmdhbml6YXRpb25hbFVuaXQxFTATBgNVBAMTDFZp
a2luZ1ZQTiBDQTEQMA4GA1UEKRMHRWFzeVJTQTEhMB8GCSqGSIb3DQEJARYSbWVA
bXlob3N0Lm15ZG9tYWluMB4XDTE1MTEwNTAwMjI1M1oXDTI1MTEwMjAwMjI1M1ow
HzEdMBsGA1UEAxMUQ2xpZW50MTM2NENlcnRjYzg4ZTkwggIiMA0GCSqGSIb3DQEB
AQUAA4ICDwAwggIKAoICAQCazmG6Z3mPYzQzlj64/Ar0RxMo1AhA6MLgq4yOP5qR
FspRAPdqaronkSdMDTrwro2W0clFKLPrZQzODh5hFiWu8MLwasaPJ3B8Tb2Rhf/t
cbKBpyXVvvPQ89j6ijLjIGtCEywiVgnIw/PF1uVAc7LpKrOP4kPoEFBDi+lW3ug1
8MYmFSkDtyRdE/YEJ29Vj5HziSgknD56PWea5HLJIzU7i8Jii2ali2xclBgcQu47
hEAXMWTl62dqWp6pzw5ec+6qy645rTHk5bBosQkAUiy+qv0CqgzLQ67pOk/idjG0
6UwcMQJN8lFBfuJ6oNgorDPrKzUI3JRu7I+haH5EK4KThmQM1vGv/BBBdLiev3f4
wZOEJwMe4eLJZ6gX1QrCmRGgy3uNj8ziHDPPkTEy7DzwyNQ9UCQ5xr9wumrBkPBj
ZxwCEdiLr3e912aPP76hihW90drTqcoOi5/OeVuEgyrxNeincVw3r8B7F81DMp5p
U3uHfJcPsqbiP1KOIbOkj2iHlNGoMF+3RofwB2oJh38KkCVke5cdc+jL6LW9v+qo
yp6byVbW0RkJ3tShOFZjlCjH9WUtXFrcutDkUv5SZwPo2jUeauOlrqphxV9cgZD4
axBPZfOCBUrfDVOhwSYbcob7hgcWKV78hwcK+rfA3cBTtDbzLNU5nwOr7R6CIxej
EQIDAQABo4IBYzCCAV8wCQYDVR0TBAIwADAtBglghkgBhvhCAQ0EIBYeRWFzeS1S
U0EgR2VuZXJhdGVkIENlcnRpZmljYXRlMB0GA1UdDgQWBBQ4J7mv4NtCtenetynL
49BIarTeNzCB4QYDVR0jBIHZMIHWgBQSzWAE0qCAnnDtxpm4eyzGUv0ZoaGBsqSB
rzCBrDELMAkGA1UEBhMCVVMxCzAJBgNVBAgTAk9IMREwDwYDVQQHEwhDb2x1bWJ1
czESMBAGA1UEChMJVmlraW5nVlBOMR0wGwYDVQQLExRNeU9yZ2FuaXphdGlvbmFs
VW5pdDEVMBMGA1UEAxMMVmlraW5nVlBOIENBMRAwDgYDVQQpEwdFYXN5UlNBMSEw
HwYJKoZIhvcNAQkBFhJtZUBteWhvc3QubXlkb21haW6CCQDPNYXugL8qPjATBgNV
HSUEDDAKBggrBgEFBQcDAjALBgNVHQ8EBAMCB4AwDQYJKoZIhvcNAQEEBQADggIB
AFeDOBs04+ULpDEIVgp0w4Z16/rRRb8ZzyNql2d+zhUUyD5cpEe0m/Ptg5nHVZo6
zLAyGuJ+QZuJ5GzKT652fve2MzbsH51Il8V9sYeLbEYNI2KeNfW7mb4SIlTnYDQ6
0ZR8rh/2ALMnoG8HZqnVxUdu2jyBv2Zi8nvgwWIFx21DnhyNF4PxUPXd/Fgpki/7
3ihXc/bP7oPrgcnH7eKbiBT+3hjJP/JKrAAG4YpeN5l608qpnop85wGJdpjpy5EY
UJsT4PuP1yRgToMqTyOv6FKG1DdKFn6QX/46iLbqXHDoOFDghfGKk2IHjp4AYsTL
UMEZk/jhEshzGFetB03YqWuyk7pjIOETDTDyl/ZO945Z8T9pVhBObONxxWWLB5Da
R69Pr18FCMR/hR7ykIo9XuiPVb6nfxORJ/tpoF9HWpUY74WM0Fh4u17g/RudVzQC
L6fzaJDBslthnGdOsQ1JLVX17xaXN4Omv382VOKZmGUCD6QiQF/PXGkQ60JbHwQt
CX5+L3vUfMGxKFbnfpDmfOuRT7VAKCrc/5346kc1z0LKFjrlUQ7wsIF9tDTfdMHl
lK7+//GKDD5kKr528HtBy7ZZrkgzpTPPS/9F23pHGtaOog+gkksU8sU2A6wYwJ27
FlMmVmdWgc1cWoiXqwHPZ6xcOlm0ouHrUzMFDcfYhX+w
-----END CERTIFICATE-----
