Certificate:
    Data:
        Version: 3 (0x2)
        Serial Number: 9504 (0x2520)
    Signature Algorithm: sha256WithRSAEncryption
        Issuer: C=US, ST=OH, L=Columbus, O=VikingVPN, OU=MyOrganizationalUnit, CN=VikingVPN CA/name=EasyRSA/emailAddress=me@myhost.mydomain
        Validity
            Not Before: Nov 20 13:59:01 2016 GMT
            Not After : Nov 18 13:59:01 2026 GMT
        Subject: CN=Client1776Certe66a0b
        Subject Public Key Info:
            Public Key Algorithm: rsaEncryption
                Public-Key: (4096 bit)
                Modulus:
                    00:a8:32:dd:08:a2:73:5e:db:90:50:68:48:0b:ea:
                    8b:f6:f1:e8:6a:de:47:9c:3e:04:6a:a4:4d:1f:88:
                    d6:10:f3:99:ab:e2:0d:93:85:f4:14:12:91:ef:e8:
                    d4:11:47:a8:23:a6:f7:8c:5d:1d:c2:c4:c0:24:2c:
                    37:53:48:d0:92:2b:cd:c3:4b:3a:a1:f4:67:d9:af:
                    d5:0d:c1:a3:7d:32:c0:fc:7f:43:63:c0:41:f3:af:
                    6f:79:9e:c0:26:90:b2:be:09:f3:28:2d:bc:79:8a:
                    be:fb:3a:62:bc:87:4a:78:bb:eb:43:71:d9:c7:b7:
                    95:fe:22:66:77:6a:db:46:04:4a:66:08:dd:09:59:
                    03:fa:61:0b:02:f8:bf:a0:76:75:ec:55:bc:7f:28:
                    58:d2:76:a1:e9:04:63:20:b4:22:b1:8c:80:68:8b:
                    73:db:c6:ec:ab:6f:97:e5:e6:0d:1f:74:5f:57:b5:
                    a9:31:9f:c1:76:96:df:3f:22:2e:aa:83:a8:2f:4d:
                    4b:16:ac:14:bb:44:27:28:1d:35:1d:fe:69:a7:ee:
                    0e:54:6f:c4:04:a3:7c:73:03:fd:81:8c:48:e1:56:
                    56:53:5a:e7:66:40:45:b0:e6:f7:06:5e:a2:2f:9e:
                    bf:0a:38:ab:a3:7d:db:34:e6:e2:a4:1b:ef:af:6f:
                    7c:47:79:3b:8b:d0:64:9f:6d:58:c5:49:51:92:8c:
                    ed:9a:5d:46:60:a5:c5:3b:bb:59:91:07:2e:5e:de:
                    16:4e:86:a4:d5:f5:08:8d:a6:88:6b:5e:3e:70:25:
                    79:93:a3:c8:54:89:ec:78:e9:db:a5:50:e4:2e:f6:
                    46:e1:7f:f8:1c:36:99:85:0d:07:a6:6b:9f:ef:d7:
                    c3:5f:26:68:31:5c:18:7d:fb:d7:45:b0:a5:f6:5f:
                    38:53:2d:0c:b9:37:34:bb:a7:9c:56:cd:0b:e2:6b:
                    c7:c4:9e:84:52:71:0f:17:5f:b1:2c:66:2d:2f:42:
                    ef:f0:f8:f8:eb:4d:3f:39:9c:bc:12:35:b9:6b:a1:
                    d2:f8:e3:b7:1d:83:ae:9f:9a:cc:4e:84:4d:53:20:
                    b0:e2:3f:4a:3d:41:e8:0e:78:b9:b8:6f:99:c8:13:
                    d1:79:71:ca:85:c2:69:e5:79:b7:18:ed:74:f2:17:
                    56:e6:1d:83:26:dc:b7:fa:60:5f:ed:7e:2c:0a:bd:
                    ac:81:21:8b:9e:14:28:02:f5:60:07:ef:ae:76:8e:
                    ac:6d:b6:b7:d1:27:eb:7c:3e:c8:7a:36:8d:c3:69:
                    77:18:19:7c:92:a7:20:ef:bc:1f:c3:69:b5:64:c4:
                    0e:c4:9d:03:0f:bf:ab:99:d7:43:e7:91:88:92:c3:
                    a2:9b:9d
                Exponent: 65537 (0x10001)
        X509v3 extensions:
            X509v3 Basic Constraints: 
                CA:FALSE
            Netscape Comment: 
                Easy-RSA Generated Certificate
            X509v3 Subject Key Identifier: 
                9C:3B:5A:6C:5D:90:44:8E:FF:67:A3:AC:DB:D4:34:3D:99:DB:0C:A2
            X509v3 Authority Key Identifier: 
                keyid:12:CD:60:04:D2:A0:80:9E:70:ED:C6:99:B8:7B:2C:C6:52:FD:19:A1
                DirName:/C=US/ST=OH/L=Columbus/O=VikingVPN/OU=MyOrganizationalUnit/CN=VikingVPN CA/name=EasyRSA/emailAddress=me@myhost.mydomain
                serial:CF:35:85:EE:80:BF:2A:3E

            X509v3 Extended Key Usage: 
                TLS Web Client Authentication
            X509v3 Key Usage: 
                Digital Signature
    Signature Algorithm: sha256WithRSAEncryption
         c1:0e:dd:3d:0b:4e:bb:a3:31:87:61:b5:70:41:d2:96:b4:aa:
         ae:19:3d:16:cc:51:41:be:7e:ff:59:32:0a:db:64:9f:09:31:
         22:84:40:eb:f5:9f:6b:d0:59:64:f5:30:56:fd:61:a7:a2:6c:
         fb:77:fe:5e:60:2d:fd:88:8b:69:2d:3a:fb:78:9c:a5:06:89:
         39:df:a9:ce:64:d2:67:17:36:f0:b0:5a:f6:12:73:44:8c:95:
         ed:1f:7b:99:5b:1d:23:fa:97:79:07:76:e3:57:4c:ed:44:ab:
         88:d4:16:97:1c:6a:e8:c4:e4:d8:4d:ba:45:9d:fb:d3:fb:ef:
         fc:f0:86:d8:a4:aa:be:21:2c:a4:bb:a2:0b:8b:5d:18:c7:a1:
         26:80:fd:b2:b1:b1:50:fe:89:7e:67:5a:96:00:a6:c2:84:8f:
         f8:3a:cf:da:ee:ff:bb:0a:00:e6:06:b1:cf:dd:04:03:5b:37:
         8b:62:5d:30:f8:0a:e7:c0:df:a8:c6:70:8c:1c:8f:8a:51:54:
         0d:1e:bd:71:ef:50:05:06:26:66:44:1c:85:62:a5:1b:29:a6:
         60:60:8d:df:64:b1:c5:ba:89:26:b1:48:eb:71:22:cd:42:2a:
         97:45:ba:11:5e:bc:03:2c:ff:51:4d:b6:1c:df:af:01:ab:50:
         a0:44:4c:34:ce:86:d2:43:e7:a1:49:e0:8a:60:03:b8:c7:79:
         17:0e:2d:70:e1:c9:3f:ea:3e:c0:74:19:7a:30:58:46:38:ef:
         ba:95:20:f3:8c:03:ee:c7:62:69:f7:3d:5f:52:22:b4:81:f4:
         5c:32:22:87:02:d3:7c:f0:46:53:71:7a:ac:32:a0:33:46:67:
         55:19:d2:0b:3f:3c:b3:dd:b2:79:0f:6e:a3:ea:fc:4f:31:9e:
         39:77:05:9b:d7:f6:b7:08:1d:b5:0f:45:c8:82:d6:6f:3c:ab:
         76:3e:6d:b5:0d:6a:08:c9:89:9b:ad:0f:96:29:c8:f6:35:9c:
         4a:94:68:98:80:a1:36:e2:7d:1d:4f:a2:c0:37:81:79:19:43:
         32:04:4b:9a:4a:2e:1c:74:da:3d:11:ee:e6:5a:56:8a:b5:97:
         dc:cf:3e:79:a5:15:3a:12:69:93:66:4a:50:9e:c8:93:b6:64:
         40:19:e7:f2:e5:e6:09:a7:7e:1e:51:75:e2:68:51:fb:16:ce:
         8e:e5:14:f5:c6:88:87:9f:2a:b9:40:2c:51:0a:ec:bc:df:f5:
         b6:bc:e7:93:98:de:a2:11:7d:9a:6b:84:06:56:85:77:54:86:
         0a:f8:88:bd:3a:d3:89:91:af:dc:07:fb:cd:95:2f:22:44:be:
         f7:98:f3:43:41:ff:bf:77
-----BEGIN CERTIFICATE-----
MIIGrTCCBJWgAwIBAgICJSAwDQYJKoZIhvcNAQELBQAwgawxCzAJBgNVBAYTAlVT
MQswCQYDVQQIEwJPSDERMA8GA1UEBxMIQ29sdW1idXMxEjAQBgNVBAoTCVZpa2lu
Z1ZQTjEdMBsGA1UECxMUTXlPcmdhbml6YXRpb25hbFVuaXQxFTATBgNVBAMTDFZp
a2luZ1ZQTiBDQTEQMA4GA1UEKRMHRWFzeVJTQTEhMB8GCSqGSIb3DQEJARYSbWVA
bXlob3N0Lm15ZG9tYWluMB4XDTE2MTEyMDEzNTkwMVoXDTI2MTExODEzNTkwMVow
HzEdMBsGA1UEAxMUQ2xpZW50MTc3NkNlcnRlNjZhMGIwggIiMA0GCSqGSIb3DQEB
AQUAA4ICDwAwggIKAoICAQCoMt0IonNe25BQaEgL6ov28ehq3kecPgRqpE0fiNYQ
85mr4g2ThfQUEpHv6NQRR6gjpveMXR3CxMAkLDdTSNCSK83DSzqh9GfZr9UNwaN9
MsD8f0NjwEHzr295nsAmkLK+CfMoLbx5ir77OmK8h0p4u+tDcdnHt5X+ImZ3attG
BEpmCN0JWQP6YQsC+L+gdnXsVbx/KFjSdqHpBGMgtCKxjIBoi3Pbxuyrb5fl5g0f
dF9Xtakxn8F2lt8/Ii6qg6gvTUsWrBS7RCcoHTUd/mmn7g5Ub8QEo3xzA/2BjEjh
VlZTWudmQEWw5vcGXqIvnr8KOKujfds05uKkG++vb3xHeTuL0GSfbVjFSVGSjO2a
XUZgpcU7u1mRBy5e3hZOhqTV9QiNpohrXj5wJXmTo8hUiex46dulUOQu9kbhf/gc
NpmFDQema5/v18NfJmgxXBh9+9dFsKX2XzhTLQy5NzS7p5xWzQvia8fEnoRScQ8X
X7EsZi0vQu/w+PjrTT85nLwSNblrodL447cdg66fmsxOhE1TILDiP0o9QegOeLm4
b5nIE9F5ccqFwmnlebcY7XTyF1bmHYMm3Lf6YF/tfiwKvayBIYueFCgC9WAH7652
jqxttrfRJ+t8Psh6No3DaXcYGXySpyDvvB/DabVkxA7EnQMPv6uZ10PnkYiSw6Kb
nQIDAQABo4IBYzCCAV8wCQYDVR0TBAIwADAtBglghkgBhvhCAQ0EIBYeRWFzeS1S
U0EgR2VuZXJhdGVkIENlcnRpZmljYXRlMB0GA1UdDgQWBBScO1psXZBEjv9no6zb
1DQ9mdsMojCB4QYDVR0jBIHZMIHWgBQSzWAE0qCAnnDtxpm4eyzGUv0ZoaGBsqSB
rzCBrDELMAkGA1UEBhMCVVMxCzAJBgNVBAgTAk9IMREwDwYDVQQHEwhDb2x1bWJ1
czESMBAGA1UEChMJVmlraW5nVlBOMR0wGwYDVQQLExRNeU9yZ2FuaXphdGlvbmFs
VW5pdDEVMBMGA1UEAxMMVmlraW5nVlBOIENBMRAwDgYDVQQpEwdFYXN5UlNBMSEw
HwYJKoZIhvcNAQkBFhJtZUBteWhvc3QubXlkb21haW6CCQDPNYXugL8qPjATBgNV
HSUEDDAKBggrBgEFBQcDAjALBgNVHQ8EBAMCB4AwDQYJKoZIhvcNAQELBQADggIB
AMEO3T0LTrujMYdhtXBB0pa0qq4ZPRbMUUG+fv9ZMgrbZJ8JMSKEQOv1n2vQWWT1
MFb9YaeibPt3/l5gLf2Ii2ktOvt4nKUGiTnfqc5k0mcXNvCwWvYSc0SMle0fe5lb
HSP6l3kHduNXTO1Eq4jUFpccaujE5NhNukWd+9P77/zwhtikqr4hLKS7oguLXRjH
oSaA/bKxsVD+iX5nWpYApsKEj/g6z9ru/7sKAOYGsc/dBANbN4tiXTD4CufA36jG
cIwcj4pRVA0evXHvUAUGJmZEHIVipRsppmBgjd9kscW6iSaxSOtxIs1CKpdFuhFe
vAMs/1FNthzfrwGrUKBETDTOhtJD56FJ4IpgA7jHeRcOLXDhyT/qPsB0GXowWEY4
77qVIPOMA+7HYmn3PV9SIrSB9FwyIocC03zwRlNxeqwyoDNGZ1UZ0gs/PLPdsnkP
bqPq/E8xnjl3BZvX9rcIHbUPRciC1m88q3Y+bbUNagjJiZutD5YpyPY1nEqUaJiA
oTbifR1PosA3gXkZQzIES5pKLhx02j0R7uZaVoq1l9zPPnmlFToSaZNmSlCeyJO2
ZEAZ5/Ll5gmnfh5RdeJoUfsWzo7lFPXGiIefKrlALFEK7Lzf9ba855OY3qIRfZpr
hAZWhXdUhgr4iL0604mRr9wH+82VLyJEvveY80NB/793
-----END CERTIFICATE-----
