Certificate:
    Data:
        Version: 3 (0x2)
        Serial Number: 11373 (0x2c6d)
    Signature Algorithm: sha256WithRSAEncryption
        Issuer: C=US, ST=OH, L=Columbus, O=VikingVPN, OU=MyOrganizationalUnit, CN=VikingVPN CA/name=EasyRSA/emailAddress=me@myhost.mydomain
        Validity
            Not Before: Jul 22 00:13:20 2017 GMT
            Not After : Jul 20 00:13:20 2027 GMT
        Subject: CN=Client2688Certbed04e
        Subject Public Key Info:
            Public Key Algorithm: rsaEncryption
                Public-Key: (4096 bit)
                Modulus:
                    00:b9:f6:a0:a2:b9:99:bb:15:f6:16:04:f6:ce:19:
                    4e:71:51:c8:6c:78:5b:2c:f3:ef:7d:a3:01:f0:58:
                    75:54:a6:c0:49:b8:eb:ea:aa:64:3b:64:a2:cb:54:
                    52:2c:c4:95:82:e1:10:96:b9:c8:81:ae:55:a3:0b:
                    01:b2:81:8b:9b:78:16:cb:ad:fd:6c:d5:ba:27:33:
                    f8:07:8b:fa:a4:59:ce:43:38:21:e3:42:c0:37:b5:
                    ce:74:3b:20:b3:c5:73:14:b9:70:a3:a8:30:52:2b:
                    45:67:a9:5f:01:45:2e:a6:5b:10:03:ef:06:e8:a8:
                    67:77:17:3e:b1:d5:fd:5e:b8:3c:dd:f6:4d:86:10:
                    e7:d6:4d:34:89:51:b1:9d:a8:9f:0b:46:4c:42:81:
                    15:b4:55:42:f1:9f:91:c8:ad:69:b2:96:ca:1f:fa:
                    3d:ba:f8:df:d0:a8:4b:6d:47:fd:48:c5:8b:a3:8e:
                    34:de:f5:0d:04:e6:78:fe:e6:05:eb:ae:27:8b:40:
                    4f:d5:53:5f:78:35:c8:70:92:62:26:1c:c1:01:ec:
                    2b:cb:1b:b9:c2:7d:9e:71:0a:78:3b:4e:98:87:18:
                    6d:8c:d3:9e:c3:6c:b3:12:51:01:13:2f:de:1f:cb:
                    80:76:a8:28:8f:43:21:42:9e:31:b2:0e:09:f6:36:
                    a8:0b:20:c4:46:f8:a2:93:bf:c5:bd:04:b6:2f:d9:
                    5b:ff:6a:e5:43:43:cf:4e:26:4d:b9:a3:9c:0e:62:
                    8f:a9:43:e3:fe:db:84:41:63:a0:8d:2d:8f:0d:60:
                    fc:76:7b:45:da:28:54:cb:01:9f:4e:4c:5b:f2:1d:
                    32:ba:f1:cc:ad:f8:c2:fa:7e:e5:5a:95:fd:8e:46:
                    45:04:1a:a9:fa:7f:7f:97:dc:d9:24:5c:23:04:f3:
                    a2:e0:ea:8a:1a:76:34:49:22:ae:10:2a:bc:d1:0a:
                    e8:09:8d:5e:55:5c:58:e5:f8:04:81:8b:7d:f1:2e:
                    88:70:58:1d:7a:7f:89:09:91:e3:1b:69:04:93:f5:
                    0d:a3:7a:7e:b1:e0:51:9a:07:25:07:c6:63:e8:01:
                    2a:db:0f:f2:f8:bb:f6:c4:95:a0:bf:26:0f:eb:c0:
                    56:0c:e0:99:94:1b:fa:64:ab:ce:8e:cc:30:4b:fc:
                    29:1a:1c:18:28:e2:b4:91:a3:69:12:61:97:a1:07:
                    8a:92:ae:6e:8c:d4:4c:35:78:57:c8:e6:32:e4:3a:
                    69:78:bc:62:53:86:f0:f7:0b:e3:44:32:0d:be:a2:
                    22:1e:87:c7:9c:7e:8b:1e:e5:db:f1:17:4f:ca:a5:
                    10:3c:63:64:63:58:d6:fc:a2:ff:35:3c:0e:51:85:
                    33:61:17
                Exponent: 65537 (0x10001)
        X509v3 extensions:
            X509v3 Basic Constraints: 
                CA:FALSE
            Netscape Comment: 
                Easy-RSA Generated Certificate
            X509v3 Subject Key Identifier: 
                FE:36:2B:C6:34:F5:83:66:E8:DD:93:BA:85:18:29:8F:AF:75:E2:28
            X509v3 Authority Key Identifier: 
                keyid:12:CD:60:04:D2:A0:80:9E:70:ED:C6:99:B8:7B:2C:C6:52:FD:19:A1
                DirName:/C=US/ST=OH/L=Columbus/O=VikingVPN/OU=MyOrganizationalUnit/CN=VikingVPN CA/name=EasyRSA/emailAddress=me@myhost.mydomain
                serial:CF:35:85:EE:80:BF:2A:3E

            X509v3 Extended Key Usage: 
                TLS Web Client Authentication
            X509v3 Key Usage: 
                Digital Signature
    Signature Algorithm: sha256WithRSAEncryption
         7d:bc:7f:c1:d6:66:f7:7b:0a:33:22:8a:7b:b7:31:63:86:65:
         2f:8c:ee:8c:09:ad:ab:f3:76:c6:83:1e:42:19:76:44:18:22:
         06:1b:b6:9e:61:0e:89:cf:dd:2a:d1:44:1b:4a:da:37:ab:ad:
         d4:cf:be:55:ff:38:1d:6a:3d:01:60:f0:ca:12:82:7e:a4:85:
         65:7b:f0:ba:56:ee:c0:9e:c8:6e:43:02:b0:61:d8:4e:47:15:
         e2:63:ee:89:6b:e6:f6:2d:e1:8a:7e:b7:1d:fa:92:e0:82:0b:
         4d:fb:86:cd:14:60:6e:c7:b9:0e:c4:3c:a7:ff:a5:3c:7b:21:
         e0:c0:f9:92:0b:97:36:be:e2:a5:df:5a:83:b4:7d:c9:bf:6a:
         ff:04:71:23:51:ae:a0:db:77:2f:78:27:67:0e:26:95:aa:c3:
         6c:22:1e:ec:f3:19:82:64:bc:24:90:46:34:1d:f7:11:a2:65:
         a2:53:8e:fb:6a:7b:70:e1:ad:ed:7d:5f:c5:e3:34:53:d1:12:
         2f:41:0d:e6:ee:a9:03:08:2d:5c:da:54:e3:9c:b2:89:99:06:
         b5:27:b8:33:2a:df:b6:71:2d:a1:7d:d2:1b:1b:23:61:ff:b9:
         82:c7:ef:e0:13:c1:7e:f4:97:4d:92:a3:98:41:e2:d4:22:eb:
         0e:02:95:ce:e7:11:da:96:33:5f:8e:5b:21:13:4e:22:ae:06:
         b0:a0:70:2b:d6:ff:7c:3d:7b:2d:69:34:2b:ea:a7:bb:1e:b3:
         ce:e6:0f:d1:fb:de:f6:f2:ae:26:f3:a5:77:88:34:9b:10:c0:
         6c:24:00:68:a5:1a:4d:fb:fd:75:7f:16:52:33:57:f9:12:16:
         80:f0:16:b9:91:6c:69:98:8d:d9:de:8a:9c:5d:3a:cf:79:f3:
         da:b8:2d:f5:cf:99:21:3e:f6:84:9d:a1:ff:3d:ed:29:b9:89:
         53:4e:46:7c:d7:3e:c2:22:e5:9b:27:65:99:c9:c5:0f:07:5e:
         bc:1f:c2:fc:e8:66:6f:43:bb:5c:18:72:92:ba:e3:b1:8b:5e:
         b4:17:24:bb:fa:87:84:e8:98:e5:82:9f:96:07:d7:96:6e:86:
         dc:f2:08:2b:8b:7a:3c:8a:45:32:c3:cc:18:2b:b4:c1:38:89:
         f4:6f:0b:2d:c6:9b:0b:41:f3:97:90:c1:07:63:88:8e:23:0d:
         06:c9:1c:9f:70:93:58:c7:61:0d:02:76:98:7c:8d:c5:76:13:
         6b:16:29:59:6c:8a:b5:7e:8a:9f:6e:2b:18:8f:c6:4f:64:0f:
         77:48:8d:52:94:a9:c5:44:f0:e4:17:49:6d:31:b8:fa:31:7d:
         d1:b5:fc:ae:43:c7:cd:93
-----BEGIN CERTIFICATE-----
MIIGrTCCBJWgAwIBAgICLG0wDQYJKoZIhvcNAQELBQAwgawxCzAJBgNVBAYTAlVT
MQswCQYDVQQIEwJPSDERMA8GA1UEBxMIQ29sdW1idXMxEjAQBgNVBAoTCVZpa2lu
Z1ZQTjEdMBsGA1UECxMUTXlPcmdhbml6YXRpb25hbFVuaXQxFTATBgNVBAMTDFZp
a2luZ1ZQTiBDQTEQMA4GA1UEKRMHRWFzeVJTQTEhMB8GCSqGSIb3DQEJARYSbWVA
bXlob3N0Lm15ZG9tYWluMB4XDTE3MDcyMjAwMTMyMFoXDTI3MDcyMDAwMTMyMFow
HzEdMBsGA1UEAxMUQ2xpZW50MjY4OENlcnRiZWQwNGUwggIiMA0GCSqGSIb3DQEB
AQUAA4ICDwAwggIKAoICAQC59qCiuZm7FfYWBPbOGU5xUchseFss8+99owHwWHVU
psBJuOvqqmQ7ZKLLVFIsxJWC4RCWuciBrlWjCwGygYubeBbLrf1s1bonM/gHi/qk
Wc5DOCHjQsA3tc50OyCzxXMUuXCjqDBSK0VnqV8BRS6mWxAD7wboqGd3Fz6x1f1e
uDzd9k2GEOfWTTSJUbGdqJ8LRkxCgRW0VULxn5HIrWmylsof+j26+N/QqEttR/1I
xYujjjTe9Q0E5nj+5gXrrieLQE/VU194NchwkmImHMEB7CvLG7nCfZ5xCng7TpiH
GG2M057DbLMSUQETL94fy4B2qCiPQyFCnjGyDgn2NqgLIMRG+KKTv8W9BLYv2Vv/
auVDQ89OJk25o5wOYo+pQ+P+24RBY6CNLY8NYPx2e0XaKFTLAZ9OTFvyHTK68cyt
+ML6fuValf2ORkUEGqn6f3+X3NkkXCME86Lg6ooadjRJIq4QKrzRCugJjV5VXFjl
+ASBi33xLohwWB16f4kJkeMbaQST9Q2jen6x4FGaByUHxmPoASrbD/L4u/bElaC/
Jg/rwFYM4JmUG/pkq86OzDBL/CkaHBgo4rSRo2kSYZehB4qSrm6M1Ew1eFfI5jLk
Oml4vGJThvD3C+NEMg2+oiIeh8ecfose5dvxF0/KpRA8Y2RjWNb8ov81PA5RhTNh
FwIDAQABo4IBYzCCAV8wCQYDVR0TBAIwADAtBglghkgBhvhCAQ0EIBYeRWFzeS1S
U0EgR2VuZXJhdGVkIENlcnRpZmljYXRlMB0GA1UdDgQWBBT+NivGNPWDZujdk7qF
GCmPr3XiKDCB4QYDVR0jBIHZMIHWgBQSzWAE0qCAnnDtxpm4eyzGUv0ZoaGBsqSB
rzCBrDELMAkGA1UEBhMCVVMxCzAJBgNVBAgTAk9IMREwDwYDVQQHEwhDb2x1bWJ1
czESMBAGA1UEChMJVmlraW5nVlBOMR0wGwYDVQQLExRNeU9yZ2FuaXphdGlvbmFs
VW5pdDEVMBMGA1UEAxMMVmlraW5nVlBOIENBMRAwDgYDVQQpEwdFYXN5UlNBMSEw
HwYJKoZIhvcNAQkBFhJtZUBteWhvc3QubXlkb21haW6CCQDPNYXugL8qPjATBgNV
HSUEDDAKBggrBgEFBQcDAjALBgNVHQ8EBAMCB4AwDQYJKoZIhvcNAQELBQADggIB
AH28f8HWZvd7CjMiinu3MWOGZS+M7owJravzdsaDHkIZdkQYIgYbtp5hDonP3SrR
RBtK2jerrdTPvlX/OB1qPQFg8MoSgn6khWV78LpW7sCeyG5DArBh2E5HFeJj7olr
5vYt4Yp+tx36kuCCC037hs0UYG7HuQ7EPKf/pTx7IeDA+ZILlza+4qXfWoO0fcm/
av8EcSNRrqDbdy94J2cOJpWqw2wiHuzzGYJkvCSQRjQd9xGiZaJTjvtqe3Dhre19
X8XjNFPREi9BDebuqQMILVzaVOOcsomZBrUnuDMq37ZxLaF90hsbI2H/uYLH7+AT
wX70l02So5hB4tQi6w4Clc7nEdqWM1+OWyETTiKuBrCgcCvW/3w9ey1pNCvqp7se
s87mD9H73vbyribzpXeINJsQwGwkAGilGk37/XV/FlIzV/kSFoDwFrmRbGmYjdne
ipxdOs9589q4LfXPmSE+9oSdof897Sm5iVNORnzXPsIi5ZsnZZnJxQ8HXrwfwvzo
Zm9Du1wYcpK647GLXrQXJLv6h4TomOWCn5YH15ZuhtzyCCuLejyKRTLDzBgrtME4
ifRvCy3GmwtB85eQwQdjiI4jDQbJHJ9wk1jHYQ0Cdph8jcV2E2sWKVlsirV+ip9u
KxiPxk9kD3dIjVKUqcVE8OQXSW0xuPoxfdG1/K5Dx82T
-----END CERTIFICATE-----
