Certificate:
    Data:
        Version: 3 (0x2)
        Serial Number: 4405 (0x1135)
    Signature Algorithm: md5WithRSAEncryption
        Issuer: C=US, ST=OH, L=Columbus, O=VikingVPN, OU=MyOrganizationalUnit, CN=VikingVPN CA/name=EasyRSA/emailAddress=me@myhost.mydomain
        Validity
            Not Before: Feb  7 02:23:51 2015 GMT
            Not After : Feb  4 02:23:51 2025 GMT
        Subject: CN=Client802Cert2fb6ae
        Subject Public Key Info:
            Public Key Algorithm: rsaEncryption
                Public-Key: (4096 bit)
                Modulus:
                    00:ca:01:36:ea:c5:8b:4b:15:79:32:4d:c8:cd:9f:
                    ef:7f:88:4f:99:49:ca:36:c7:ea:17:35:a8:ff:63:
                    63:45:99:b4:c0:d0:b5:56:7d:1d:0d:1c:f6:59:f2:
                    1e:7b:1d:fa:5c:dc:e1:ce:75:89:d4:73:fd:02:0d:
                    fb:2b:d7:56:08:08:da:a5:31:08:cd:fe:0f:ab:4a:
                    df:b8:5e:c9:a1:30:d0:a3:6e:44:05:6a:28:2d:fb:
                    3a:30:d6:dd:3e:5a:b0:6e:03:6b:57:d0:48:fb:65:
                    d1:83:fe:4e:be:ba:08:b3:7c:a7:16:e3:b5:0f:dc:
                    78:33:3b:0b:61:98:6e:95:99:60:5c:28:49:7f:b9:
                    f7:3d:e7:5b:e3:25:db:c7:26:40:d1:6a:33:56:81:
                    0b:c6:82:b4:38:ce:03:cb:60:31:c6:3b:2a:a1:41:
                    c0:a2:3b:43:2b:0b:24:df:8b:f8:f3:c7:a1:82:83:
                    f8:3a:da:34:f4:89:1b:af:0d:8d:e1:4d:12:e7:46:
                    5c:6f:da:3d:9e:eb:45:fc:21:35:9d:b0:4f:83:bf:
                    07:e4:79:c6:bf:e2:65:c7:65:c5:79:39:08:73:19:
                    13:c0:e9:d4:fd:d0:22:39:ec:98:de:5c:25:36:06:
                    72:9a:d0:02:89:5e:5c:62:41:45:78:7a:e8:c9:1a:
                    18:a9:35:a6:7c:2a:4a:bb:5d:79:c5:44:2e:f5:28:
                    f5:fe:f2:c9:96:f7:a5:1b:b0:0e:56:59:24:d5:4a:
                    97:c9:90:7e:06:3d:93:b4:1e:bd:30:c5:75:34:31:
                    c6:e1:35:df:42:15:59:5c:00:91:4e:f2:11:3d:9b:
                    6b:7f:30:08:d0:5e:c6:69:b6:cc:8a:a8:d2:c2:02:
                    ae:89:58:5e:38:58:b7:88:6e:18:f4:8e:cd:45:c9:
                    d0:bd:5e:f7:c2:64:5b:5e:38:87:aa:f3:f1:83:1c:
                    4b:f8:13:3e:6f:bd:72:9e:c2:b6:67:0e:a9:16:e3:
                    ad:c0:a8:f9:c0:65:57:96:3a:8f:44:cd:80:4f:03:
                    b8:be:42:9d:d9:0a:0c:53:36:16:65:99:c0:f0:89:
                    a7:a3:17:cf:c1:ce:ba:f0:4f:4d:e2:80:66:27:f7:
                    36:5c:70:90:fc:f0:1c:52:55:4b:fa:6c:4a:e5:1a:
                    58:a8:01:87:49:84:10:59:fd:70:d9:0b:a4:b5:93:
                    b3:47:ac:c4:03:77:eb:3d:0d:9c:9d:25:c6:07:02:
                    1f:0e:29:71:58:c7:fa:7b:c6:3b:63:2d:35:62:ae:
                    c1:4f:04:46:08:d8:f6:85:77:81:0f:04:42:19:67:
                    d5:d2:63:34:ca:3b:3d:36:3a:60:0f:bf:ef:d8:3a:
                    63:8b:51
                Exponent: 65537 (0x10001)
        X509v3 extensions:
            X509v3 Basic Constraints: 
                CA:FALSE
            Netscape Comment: 
                Easy-RSA Generated Certificate
            X509v3 Subject Key Identifier: 
                11:D7:89:44:AB:E0:92:84:74:43:B4:FC:55:24:2E:DD:06:53:02:EB
            X509v3 Authority Key Identifier: 
                keyid:12:CD:60:04:D2:A0:80:9E:70:ED:C6:99:B8:7B:2C:C6:52:FD:19:A1
                DirName:/C=US/ST=OH/L=Columbus/O=VikingVPN/OU=MyOrganizationalUnit/CN=VikingVPN CA/name=EasyRSA/emailAddress=me@myhost.mydomain
                serial:CF:35:85:EE:80:BF:2A:3E

            X509v3 Extended Key Usage: 
                TLS Web Client Authentication
            X509v3 Key Usage: 
                Digital Signature
    Signature Algorithm: md5WithRSAEncryption
         6f:a6:6d:b3:7c:6a:08:ac:96:a6:e8:b3:af:9c:d3:d2:a2:23:
         78:4f:a7:cf:22:cb:c2:43:91:d0:46:ca:96:e0:11:e3:b7:f5:
         f6:30:23:29:06:46:b2:1e:9a:6f:f1:d5:0b:c5:79:9c:bd:18:
         8d:74:80:06:54:d7:df:a6:37:4f:25:57:21:e6:8e:b5:70:2d:
         a4:0d:7d:72:00:46:12:38:43:d9:cd:cd:29:18:45:5b:54:46:
         d0:24:6d:62:1f:89:89:04:d6:0a:76:49:30:0e:bd:3f:54:15:
         10:aa:53:0b:d2:64:a4:0c:27:0d:f9:f4:a1:7d:55:b0:39:c4:
         17:37:d4:c2:16:e7:aa:0a:af:38:3b:cb:68:a1:70:73:b0:ca:
         82:f9:87:70:46:06:14:fc:65:22:ad:ec:a5:d6:0d:98:51:16:
         9b:80:61:b0:ab:69:c5:d2:f0:8d:9e:5f:5a:cc:12:1a:ee:96:
         f9:63:41:46:af:62:42:16:84:0e:68:8d:12:ad:63:15:e2:04:
         c2:a8:a1:f5:b9:7d:2d:90:a2:74:46:e4:5c:5c:aa:d9:53:04:
         97:ef:0c:00:6d:da:d2:33:fe:40:c1:b7:8d:30:58:77:ee:35:
         73:23:90:83:23:b4:41:10:6b:51:24:4a:c7:d6:c0:ed:5c:a9:
         45:0f:e6:3a:81:08:53:93:08:0f:12:30:65:48:ad:fa:6f:cf:
         e9:b7:ea:50:de:fc:6a:37:26:ce:90:de:b3:83:4f:a3:f2:0e:
         57:f4:d7:31:ac:d2:11:2a:b8:c6:32:8c:77:91:48:d6:05:11:
         f4:2a:b3:e2:b7:f4:5d:5c:be:d0:c9:36:bd:5f:b9:94:2d:0d:
         bc:b6:fb:b8:db:1c:89:e9:f6:77:96:19:e7:09:0d:d7:cf:28:
         d8:2e:27:01:36:25:85:25:3d:6b:e1:e3:a3:11:e3:06:7a:2d:
         92:b6:93:8b:ca:25:59:05:6d:ca:12:b2:da:25:4d:5f:32:7b:
         e1:04:24:d1:82:57:7b:a3:2d:52:64:14:eb:39:9a:ed:94:1a:
         04:d1:fc:30:02:3c:d5:bd:e1:f4:f9:e1:75:c2:93:17:3a:93:
         88:6f:29:ee:ca:5c:82:33:79:aa:20:6a:2d:87:d8:c8:fe:30:
         3e:f8:ea:95:cd:ae:69:3a:47:a8:48:5f:9b:f2:ed:7c:b8:d4:
         4a:5a:2a:68:eb:f4:ee:3d:4d:00:fc:5a:36:de:ae:a1:99:09:
         21:85:2c:ec:0d:1c:af:23:60:7e:4a:24:6d:20:55:da:27:e9:
         ca:e7:13:2f:fd:53:c9:19:38:13:bc:c0:28:bd:0d:e5:8e:be:
         32:8d:bb:be:f4:f2:b8:2d
-----BEGIN CERTIFICATE-----
MIIGrDCCBJSgAwIBAgICETUwDQYJKoZIhvcNAQEEBQAwgawxCzAJBgNVBAYTAlVT
MQswCQYDVQQIEwJPSDERMA8GA1UEBxMIQ29sdW1idXMxEjAQBgNVBAoTCVZpa2lu
Z1ZQTjEdMBsGA1UECxMUTXlPcmdhbml6YXRpb25hbFVuaXQxFTATBgNVBAMTDFZp
a2luZ1ZQTiBDQTEQMA4GA1UEKRMHRWFzeVJTQTEhMB8GCSqGSIb3DQEJARYSbWVA
bXlob3N0Lm15ZG9tYWluMB4XDTE1MDIwNzAyMjM1MVoXDTI1MDIwNDAyMjM1MVow
HjEcMBoGA1UEAxMTQ2xpZW50ODAyQ2VydDJmYjZhZTCCAiIwDQYJKoZIhvcNAQEB
BQADggIPADCCAgoCggIBAMoBNurFi0sVeTJNyM2f73+IT5lJyjbH6hc1qP9jY0WZ
tMDQtVZ9HQ0c9lnyHnsd+lzc4c51idRz/QIN+yvXVggI2qUxCM3+D6tK37heyaEw
0KNuRAVqKC37OjDW3T5asG4Da1fQSPtl0YP+Tr66CLN8pxbjtQ/ceDM7C2GYbpWZ
YFwoSX+59z3nW+Ml28cmQNFqM1aBC8aCtDjOA8tgMcY7KqFBwKI7QysLJN+L+PPH
oYKD+DraNPSJG68NjeFNEudGXG/aPZ7rRfwhNZ2wT4O/B+R5xr/iZcdlxXk5CHMZ
E8Dp1P3QIjnsmN5cJTYGcprQAoleXGJBRXh66MkaGKk1pnwqSrtdecVELvUo9f7y
yZb3pRuwDlZZJNVKl8mQfgY9k7QevTDFdTQxxuE130IVWVwAkU7yET2ba38wCNBe
xmm2zIqo0sICrolYXjhYt4huGPSOzUXJ0L1e98JkW144h6rz8YMcS/gTPm+9cp7C
tmcOqRbjrcCo+cBlV5Y6j0TNgE8DuL5CndkKDFM2FmWZwPCJp6MXz8HOuvBPTeKA
Zif3NlxwkPzwHFJVS/psSuUaWKgBh0mEEFn9cNkLpLWTs0esxAN36z0NnJ0lxgcC
Hw4pcVjH+nvGO2MtNWKuwU8ERgjY9oV3gQ8EQhln1dJjNMo7PTY6YA+/79g6Y4tR
AgMBAAGjggFjMIIBXzAJBgNVHRMEAjAAMC0GCWCGSAGG+EIBDQQgFh5FYXN5LVJT
QSBHZW5lcmF0ZWQgQ2VydGlmaWNhdGUwHQYDVR0OBBYEFBHXiUSr4JKEdEO0/FUk
Lt0GUwLrMIHhBgNVHSMEgdkwgdaAFBLNYATSoICecO3Gmbh7LMZS/RmhoYGypIGv
MIGsMQswCQYDVQQGEwJVUzELMAkGA1UECBMCT0gxETAPBgNVBAcTCENvbHVtYnVz
MRIwEAYDVQQKEwlWaWtpbmdWUE4xHTAbBgNVBAsTFE15T3JnYW5pemF0aW9uYWxV
bml0MRUwEwYDVQQDEwxWaWtpbmdWUE4gQ0ExEDAOBgNVBCkTB0Vhc3lSU0ExITAf
BgkqhkiG9w0BCQEWEm1lQG15aG9zdC5teWRvbWFpboIJAM81he6Avyo+MBMGA1Ud
JQQMMAoGCCsGAQUFBwMCMAsGA1UdDwQEAwIHgDANBgkqhkiG9w0BAQQFAAOCAgEA
b6Zts3xqCKyWpuizr5zT0qIjeE+nzyLLwkOR0EbKluAR47f19jAjKQZGsh6ab/HV
C8V5nL0YjXSABlTX36Y3TyVXIeaOtXAtpA19cgBGEjhD2c3NKRhFW1RG0CRtYh+J
iQTWCnZJMA69P1QVEKpTC9JkpAwnDfn0oX1VsDnEFzfUwhbnqgqvODvLaKFwc7DK
gvmHcEYGFPxlIq3spdYNmFEWm4BhsKtpxdLwjZ5fWswSGu6W+WNBRq9iQhaEDmiN
Eq1jFeIEwqih9bl9LZCidEbkXFyq2VMEl+8MAG3a0jP+QMG3jTBYd+41cyOQgyO0
QRBrUSRKx9bA7VypRQ/mOoEIU5MIDxIwZUit+m/P6bfqUN78ajcmzpDes4NPo/IO
V/TXMazSESq4xjKMd5FI1gUR9Cqz4rf0XVy+0Mk2vV+5lC0NvLb7uNscien2d5YZ
5wkN188o2C4nATYlhSU9a+HjoxHjBnotkraTi8olWQVtyhKy2iVNXzJ74QQk0YJX
e6MtUmQU6zma7ZQaBNH8MAI81b3h9PnhdcKTFzqTiG8p7spcgjN5qiBqLYfYyP4w
Pvjqlc2uaTpHqEhfm/LtfLjUSloqaOv07j1NAPxaNt6uoZkJIYUs7A0cryNgfkok
bSBV2ifpyucTL/1TyRk4E7zAKL0N5Y6+Mo27vvTyuC0=
-----END CERTIFICATE-----
