Certificate:
    Data:
        Version: 3 (0x2)
        Serial Number: 3056 (0xbf0)
    Signature Algorithm: md5WithRSAEncryption
        Issuer: C=US, ST=OH, L=Columbus, O=VikingVPN, OU=MyOrganizationalUnit, CN=VikingVPN CA/name=EasyRSA/emailAddress=me@myhost.mydomain
        Validity
            Not Before: Oct  6 23:13:05 2014 GMT
            Not After : Oct  3 23:13:05 2024 GMT
        Subject: CN=Client338Cert07b363
        Subject Public Key Info:
            Public Key Algorithm: rsaEncryption
                Public-Key: (4096 bit)
                Modulus:
                    00:d7:b9:87:92:6b:97:52:81:11:e8:24:23:6e:0a:
                    57:b2:da:90:88:1a:ed:77:28:bb:ab:56:e1:de:d9:
                    4f:b2:20:25:5d:2e:d9:09:46:19:63:31:af:5c:fc:
                    a1:5f:0d:f7:3b:47:6b:b6:a9:54:2e:88:05:0c:86:
                    41:53:7f:19:2f:1b:a1:17:34:43:35:80:eb:6e:60:
                    fc:bc:57:c8:52:ac:f8:f8:92:90:38:ab:4f:73:16:
                    8b:20:0a:e9:54:2c:e3:53:fc:e3:6b:56:fd:2e:f0:
                    01:55:01:46:16:c9:d7:39:cd:71:5d:c8:47:57:87:
                    eb:d2:cb:8f:8b:03:e7:b8:21:37:e8:ed:34:30:52:
                    e1:fb:31:2c:18:f5:5a:cd:44:d2:e9:1e:82:c8:de:
                    6b:7a:b9:5f:ae:81:3b:a5:af:95:58:bf:e2:70:ef:
                    c0:9c:e6:06:62:57:e6:aa:c2:be:40:a1:69:12:ba:
                    28:d7:14:58:a7:af:76:fa:bd:d5:36:a1:ae:71:35:
                    72:5c:e2:09:f7:64:22:cf:6b:b9:51:73:21:c7:b3:
                    6e:62:e3:d7:aa:17:89:d0:79:23:54:0b:d7:48:da:
                    1f:6e:a0:84:8c:15:eb:94:33:c6:16:57:54:9f:37:
                    0b:77:ee:ec:4c:0d:6a:05:d8:16:ef:c2:ca:95:59:
                    42:9e:69:33:52:4d:bb:e0:0b:03:69:0f:35:7a:27:
                    37:17:ca:71:88:e4:ee:d2:9d:98:92:17:f4:03:ad:
                    4b:be:9f:85:7f:30:0a:16:a8:14:21:0f:df:cd:22:
                    0b:6e:99:aa:f8:52:0c:dd:ff:7b:fc:65:0b:53:91:
                    51:16:86:b8:a9:6c:14:01:85:66:67:70:1a:b5:ce:
                    b9:af:18:75:99:8a:e2:e9:54:c9:aa:e9:65:14:50:
                    3f:fb:ce:37:5f:60:aa:a7:b7:0e:24:61:1f:66:ce:
                    8d:c4:de:c7:47:a3:27:ad:da:e4:11:12:2d:e8:d9:
                    73:1e:cd:f6:4e:80:f0:fe:fd:04:54:ed:38:45:cf:
                    86:8b:0a:08:7e:9a:ff:64:43:0d:53:ee:50:4f:1f:
                    98:8b:1c:95:7b:0d:c1:33:17:75:bf:e3:3d:9c:8a:
                    6a:ed:de:02:36:6b:71:64:fb:0b:d9:e3:a7:e8:98:
                    36:b5:17:87:26:9c:2c:66:18:b3:61:8c:e0:69:22:
                    24:71:52:92:46:e1:05:05:27:5f:b9:85:77:a1:a7:
                    0b:13:26:51:bd:35:ba:a8:16:f3:e0:a2:c2:0f:48:
                    ed:1c:f6:de:06:d7:7c:74:07:ab:17:a4:a3:6b:3c:
                    14:82:18:8b:ba:37:5b:06:59:b7:59:47:6d:ad:46:
                    f2:41:87
                Exponent: 65537 (0x10001)
        X509v3 extensions:
            X509v3 Basic Constraints: 
                CA:FALSE
            Netscape Comment: 
                Easy-RSA Generated Certificate
            X509v3 Subject Key Identifier: 
                26:A4:AE:FB:AF:07:05:44:A9:6A:1E:EB:03:3F:E9:96:56:0E:71:48
            X509v3 Authority Key Identifier: 
                keyid:12:CD:60:04:D2:A0:80:9E:70:ED:C6:99:B8:7B:2C:C6:52:FD:19:A1
                DirName:/C=US/ST=OH/L=Columbus/O=VikingVPN/OU=MyOrganizationalUnit/CN=VikingVPN CA/name=EasyRSA/emailAddress=me@myhost.mydomain
                serial:CF:35:85:EE:80:BF:2A:3E

            X509v3 Extended Key Usage: 
                TLS Web Client Authentication
            X509v3 Key Usage: 
                Digital Signature
    Signature Algorithm: md5WithRSAEncryption
         16:3a:88:2f:5f:e0:e7:82:0a:00:76:71:4c:68:51:9b:17:ea:
         4b:fd:14:64:43:38:5c:f0:e8:cf:76:26:3e:46:20:83:2c:1b:
         1c:6b:04:5b:27:c2:98:8e:1b:bd:16:37:06:04:65:41:28:92:
         eb:cd:73:83:eb:b6:d8:7d:23:70:6a:8b:a7:3e:d2:29:ec:81:
         2b:72:14:be:3f:6d:18:6c:01:61:e6:2f:ef:91:2c:93:29:60:
         75:f9:3d:0f:8c:02:be:df:25:d0:4c:9d:a5:04:8c:6d:61:e3:
         2a:5a:b8:f0:43:d7:ec:7d:83:c3:76:df:66:65:da:4a:a1:30:
         c4:b2:4f:12:4c:a6:76:ce:d3:be:3d:2f:26:e0:aa:25:3a:5d:
         bb:3d:e0:2a:83:47:1d:4b:b2:cd:87:af:95:6a:08:98:7d:79:
         b9:6c:78:73:ac:7a:99:7a:01:7c:9d:98:af:01:78:0d:b3:4e:
         c5:5e:ce:b2:c7:d7:b8:f2:b7:0a:3f:dd:91:02:1b:24:f3:3a:
         c7:63:6c:40:83:83:9d:d1:6e:78:b8:17:09:9c:70:0f:d5:5f:
         a8:1d:a2:c8:94:7d:79:ea:7a:fa:86:91:c6:67:fa:9e:7c:92:
         52:9a:5b:99:e4:9c:43:59:c5:2d:0c:8b:48:45:39:5c:00:6e:
         50:a5:42:20:a4:e3:e2:1f:b8:ba:0c:23:09:d8:c3:d7:6f:24:
         22:de:6e:e1:cc:01:6d:33:6e:8a:dc:d7:fc:b5:55:c6:08:77:
         e0:90:09:cf:1f:84:06:4e:40:e7:6d:b7:fc:c2:81:56:68:11:
         3b:ea:7e:d0:39:a5:66:d1:6a:04:92:b9:71:3a:84:6a:c0:de:
         5f:cf:39:62:b3:18:7a:47:ac:49:2c:0d:38:b3:16:05:cc:8b:
         89:08:b7:1c:49:08:23:00:62:2f:85:7a:ed:a9:81:b5:ba:3c:
         59:be:b8:98:e6:c1:fb:24:9a:ae:7e:17:ae:c9:5c:03:bf:14:
         ee:cb:9b:51:bb:4c:6c:3a:db:55:e8:f4:ee:98:89:cb:55:7c:
         6a:93:8e:f5:8f:82:0b:cd:bb:91:e1:b4:81:d1:f7:b7:1a:a3:
         7e:94:8e:28:03:83:b0:13:4a:14:0e:b7:66:70:9a:2e:9d:1c:
         2a:5f:fe:69:8c:c2:18:65:af:9d:e2:4c:28:c0:41:37:cd:65:
         95:56:a2:75:c4:e4:29:c2:cc:68:74:71:30:90:64:52:a5:32:
         ba:7d:60:d8:21:04:0b:0c:29:88:0e:03:b3:28:df:b0:56:3e:
         aa:3c:b3:ac:5b:57:c0:5b:6c:53:7a:46:62:53:ff:4e:35:e5:
         66:a9:9d:4c:a0:86:17:a6
-----BEGIN CERTIFICATE-----
MIIGrDCCBJSgAwIBAgICC/AwDQYJKoZIhvcNAQEEBQAwgawxCzAJBgNVBAYTAlVT
MQswCQYDVQQIEwJPSDERMA8GA1UEBxMIQ29sdW1idXMxEjAQBgNVBAoTCVZpa2lu
Z1ZQTjEdMBsGA1UECxMUTXlPcmdhbml6YXRpb25hbFVuaXQxFTATBgNVBAMTDFZp
a2luZ1ZQTiBDQTEQMA4GA1UEKRMHRWFzeVJTQTEhMB8GCSqGSIb3DQEJARYSbWVA
bXlob3N0Lm15ZG9tYWluMB4XDTE0MTAwNjIzMTMwNVoXDTI0MTAwMzIzMTMwNVow
HjEcMBoGA1UEAxMTQ2xpZW50MzM4Q2VydDA3YjM2MzCCAiIwDQYJKoZIhvcNAQEB
BQADggIPADCCAgoCggIBANe5h5Jrl1KBEegkI24KV7LakIga7Xcou6tW4d7ZT7Ig
JV0u2QlGGWMxr1z8oV8N9ztHa7apVC6IBQyGQVN/GS8boRc0QzWA625g/LxXyFKs
+PiSkDirT3MWiyAK6VQs41P842tW/S7wAVUBRhbJ1znNcV3IR1eH69LLj4sD57gh
N+jtNDBS4fsxLBj1Ws1E0ukegsjea3q5X66BO6WvlVi/4nDvwJzmBmJX5qrCvkCh
aRK6KNcUWKevdvq91TahrnE1clziCfdkIs9ruVFzIcezbmLj16oXidB5I1QL10ja
H26ghIwV65QzxhZXVJ83C3fu7EwNagXYFu/CypVZQp5pM1JNu+ALA2kPNXonNxfK
cYjk7tKdmJIX9AOtS76fhX8wChaoFCEP380iC26ZqvhSDN3/e/xlC1ORURaGuKls
FAGFZmdwGrXOua8YdZmK4ulUyarpZRRQP/vON19gqqe3DiRhH2bOjcTex0ejJ63a
5BESLejZcx7N9k6A8P79BFTtOEXPhosKCH6a/2RDDVPuUE8fmIsclXsNwTMXdb/j
PZyKau3eAjZrcWT7C9njp+iYNrUXhyacLGYYs2GM4GkiJHFSkkbhBQUnX7mFd6Gn
CxMmUb01uqgW8+Ciwg9I7Rz23gbXfHQHqxeko2s8FIIYi7o3WwZZt1lHba1G8kGH
AgMBAAGjggFjMIIBXzAJBgNVHRMEAjAAMC0GCWCGSAGG+EIBDQQgFh5FYXN5LVJT
QSBHZW5lcmF0ZWQgQ2VydGlmaWNhdGUwHQYDVR0OBBYEFCakrvuvBwVEqWoe6wM/
6ZZWDnFIMIHhBgNVHSMEgdkwgdaAFBLNYATSoICecO3Gmbh7LMZS/RmhoYGypIGv
MIGsMQswCQYDVQQGEwJVUzELMAkGA1UECBMCT0gxETAPBgNVBAcTCENvbHVtYnVz
MRIwEAYDVQQKEwlWaWtpbmdWUE4xHTAbBgNVBAsTFE15T3JnYW5pemF0aW9uYWxV
bml0MRUwEwYDVQQDEwxWaWtpbmdWUE4gQ0ExEDAOBgNVBCkTB0Vhc3lSU0ExITAf
BgkqhkiG9w0BCQEWEm1lQG15aG9zdC5teWRvbWFpboIJAM81he6Avyo+MBMGA1Ud
JQQMMAoGCCsGAQUFBwMCMAsGA1UdDwQEAwIHgDANBgkqhkiG9w0BAQQFAAOCAgEA
FjqIL1/g54IKAHZxTGhRmxfqS/0UZEM4XPDoz3YmPkYggywbHGsEWyfCmI4bvRY3
BgRlQSiS681zg+u22H0jcGqLpz7SKeyBK3IUvj9tGGwBYeYv75Eskylgdfk9D4wC
vt8l0EydpQSMbWHjKlq48EPX7H2Dw3bfZmXaSqEwxLJPEkymds7Tvj0vJuCqJTpd
uz3gKoNHHUuyzYevlWoImH15uWx4c6x6mXoBfJ2YrwF4DbNOxV7OssfXuPK3Cj/d
kQIbJPM6x2NsQIODndFueLgXCZxwD9VfqB2iyJR9eep6+oaRxmf6nnySUppbmeSc
Q1nFLQyLSEU5XABuUKVCIKTj4h+4ugwjCdjD128kIt5u4cwBbTNuitzX/LVVxgh3
4JAJzx+EBk5A5223/MKBVmgRO+p+0DmlZtFqBJK5cTqEasDeX885YrMYekesSSwN
OLMWBcyLiQi3HEkIIwBiL4V67amBtbo8Wb64mObB+ySarn4XrslcA78U7subUbtM
bDrbVej07piJy1V8apOO9Y+CC827keG0gdH3txqjfpSOKAODsBNKFA63ZnCaLp0c
Kl/+aYzCGGWvneJMKMBBN81llVaidcTkKcLMaHRxMJBkUqUyun1g2CEECwwpiA4D
syjfsFY+qjyzrFtXwFtsU3pGYlP/TjXlZqmdTKCGF6Y=
-----END CERTIFICATE-----
