Certificate:
    Data:
        Version: 3 (0x2)
        Serial Number: 10899 (0x2a93)
    Signature Algorithm: sha256WithRSAEncryption
        Issuer: C=US, ST=OH, L=Columbus, O=VikingVPN, OU=MyOrganizationalUnit, CN=VikingVPN CA/name=EasyRSA/emailAddress=me@myhost.mydomain
        Validity
            Not Before: May  7 03:59:15 2017 GMT
            Not After : May  5 03:59:15 2027 GMT
        Subject: CN=Client2905Certfb1da4
        Subject Public Key Info:
            Public Key Algorithm: rsaEncryption
                Public-Key: (4096 bit)
                Modulus:
                    00:bb:8b:8a:dd:d6:bd:08:bd:d0:1d:d9:82:51:93:
                    9c:81:10:07:54:14:b3:cb:33:c6:c6:96:16:99:2e:
                    e5:e8:ad:5b:0a:3f:f0:2f:c4:2c:13:4b:fe:47:b8:
                    45:50:6f:e1:77:a9:91:9e:bd:dc:6c:da:6c:89:26:
                    33:21:cc:c2:74:4c:8f:88:20:11:4e:d4:d3:d2:79:
                    3f:1b:78:91:36:43:0c:f3:d4:df:55:2c:45:54:ac:
                    a6:1c:26:4e:a3:5a:7f:53:ba:70:6f:e8:09:4f:07:
                    35:9b:2f:83:4e:7d:d9:44:47:6b:89:69:2e:32:e7:
                    85:7c:ba:30:90:61:12:23:49:17:73:aa:d8:30:ba:
                    5d:55:87:2a:47:f1:15:2c:97:b1:4e:98:65:10:5f:
                    73:bf:8d:20:1a:b3:43:22:7c:53:0b:e4:28:d7:85:
                    28:8a:e2:ed:ae:ea:47:1d:e3:1b:d4:ca:c7:5a:e4:
                    a8:c6:80:5c:fd:18:27:06:f9:39:2e:1c:e0:3d:19:
                    f1:89:a1:3e:b7:67:74:9c:d0:43:ab:f7:65:59:49:
                    f8:5a:73:c9:35:03:4b:90:c0:d2:87:12:4f:04:0c:
                    4e:f2:82:e6:7b:99:63:27:c6:b0:ad:93:c5:af:74:
                    bf:f1:96:89:63:e0:15:a7:2a:76:b4:fa:58:15:9d:
                    fa:a0:ff:6f:8a:24:e4:0a:64:1d:06:04:5f:36:46:
                    19:c7:98:af:51:0e:23:a4:50:ee:a3:db:40:04:fe:
                    b8:09:70:c5:6d:88:b1:bb:93:d6:2c:79:ca:12:2a:
                    0b:1e:3d:7e:ea:be:5d:fc:66:00:51:bc:ee:dd:21:
                    c9:43:ad:b3:61:8c:38:84:fd:46:ee:0a:70:68:d1:
                    2a:15:70:3c:79:7a:f5:f0:22:db:bf:16:23:60:01:
                    48:ae:cd:b5:f7:5c:02:00:33:24:e2:df:bc:a5:0c:
                    6e:92:61:94:ae:ee:40:61:1b:a9:2e:02:39:2e:b5:
                    6a:cc:10:25:21:19:2e:24:dc:60:68:9f:2d:04:47:
                    bd:ca:0d:ce:44:8f:e6:eb:9d:ad:b9:51:c6:67:fb:
                    92:01:0f:36:01:ee:cb:56:d2:69:16:05:bd:62:6a:
                    82:34:f5:0e:09:b8:4a:d5:44:f1:9b:35:d7:88:98:
                    72:c6:1f:a3:67:59:f0:18:01:d4:c2:77:44:46:9e:
                    b1:e4:50:b5:27:5c:81:12:df:b9:83:e3:c0:3a:1a:
                    69:59:84:4b:97:fd:ee:98:9f:7a:cd:9b:22:1c:cb:
                    34:01:3d:f5:fe:25:9b:02:2d:0b:19:d2:f7:fd:26:
                    c6:d9:81:26:6f:b2:01:25:79:0a:49:49:31:00:79:
                    f5:71:33
                Exponent: 65537 (0x10001)
        X509v3 extensions:
            X509v3 Basic Constraints: 
                CA:FALSE
            Netscape Comment: 
                Easy-RSA Generated Certificate
            X509v3 Subject Key Identifier: 
                FC:67:BF:9D:8C:F0:05:19:3F:6A:1C:83:97:9C:56:8F:63:E1:26:AC
            X509v3 Authority Key Identifier: 
                keyid:12:CD:60:04:D2:A0:80:9E:70:ED:C6:99:B8:7B:2C:C6:52:FD:19:A1
                DirName:/C=US/ST=OH/L=Columbus/O=VikingVPN/OU=MyOrganizationalUnit/CN=VikingVPN CA/name=EasyRSA/emailAddress=me@myhost.mydomain
                serial:CF:35:85:EE:80:BF:2A:3E

            X509v3 Extended Key Usage: 
                TLS Web Client Authentication
            X509v3 Key Usage: 
                Digital Signature
    Signature Algorithm: sha256WithRSAEncryption
         d2:51:e6:4a:fe:71:c2:3c:c1:6e:f4:5d:35:5f:b0:8e:ea:16:
         d9:bd:82:dc:6c:64:d3:22:9d:fb:91:1b:f9:53:e8:64:4e:fc:
         19:41:2e:53:49:6f:63:1f:45:9a:28:a2:73:83:5e:6a:0e:ad:
         19:0d:c7:75:f6:43:10:10:3d:89:f0:ac:1d:dc:94:3d:c3:10:
         99:38:b9:66:93:70:88:eb:7e:11:ee:e4:19:8c:a9:25:ac:11:
         3e:5f:2b:b1:1f:50:ac:53:54:c3:96:01:10:2e:ed:e7:ed:7a:
         c5:05:36:5e:dd:e0:9e:d8:12:2d:a2:a3:53:03:dd:89:c2:55:
         b8:9b:e2:cf:21:f0:a5:7f:4f:7e:b5:e0:21:10:d5:01:2a:b2:
         d3:1d:53:f8:30:54:f4:7e:1e:16:c7:10:1f:88:75:96:d6:97:
         cf:11:d7:9e:dd:18:56:80:cb:65:a0:18:6e:8c:9b:23:7b:ef:
         17:a0:1b:b4:51:ba:8a:73:be:7d:80:ad:af:0b:6c:ee:ad:47:
         e5:9d:87:15:e3:3f:56:24:70:43:61:ea:0e:d8:b1:4a:bc:94:
         8c:66:52:dc:a9:51:ad:03:8e:45:3f:ee:b0:71:54:bc:5b:d7:
         ae:00:03:86:de:32:df:69:22:77:e2:ea:c4:f0:5c:5b:db:4d:
         b0:dc:02:c3:96:fc:57:3d:66:c3:8d:b6:12:19:7d:19:c0:9d:
         92:34:f5:ad:1d:0c:4e:8a:2c:43:3b:37:09:01:f6:c2:53:d0:
         1b:d1:a6:29:3b:cf:6a:58:88:f7:e8:0a:65:80:f7:ef:34:c0:
         17:47:5f:77:d9:8b:a9:8f:9e:ca:c3:f8:ca:2d:12:c9:db:5d:
         c1:67:f1:62:87:2d:5e:0e:dd:78:3c:47:e9:0b:40:a4:e1:ed:
         9d:28:00:45:0b:99:c7:e4:b9:40:fc:a5:77:24:bf:ee:0e:32:
         16:3b:68:88:14:3d:9b:65:f2:47:d4:90:c8:03:53:d2:ea:b9:
         73:17:f2:77:88:bf:c3:0a:04:1d:b7:78:37:50:df:18:85:9c:
         c2:ba:8b:7c:2a:b3:03:e3:67:3f:ba:5d:a7:3d:5c:b1:f4:75:
         a5:35:28:96:74:4c:84:ef:6b:0f:16:e1:1c:1a:87:1d:64:a3:
         82:a1:81:8e:08:c1:02:b8:09:fc:9c:8a:36:20:dd:5f:2c:0d:
         ec:03:e5:ea:49:3e:35:c2:9b:19:8f:5c:d6:0a:00:8f:ba:d6:
         42:d2:21:aa:a0:5f:23:5f:dd:8c:83:c5:02:88:5e:9d:01:d7:
         ae:d8:25:2d:db:48:7b:27:05:1e:37:e6:bf:92:1a:e5:02:fc:
         a5:89:de:a2:cd:fd:bd:78
-----BEGIN CERTIFICATE-----
MIIGrTCCBJWgAwIBAgICKpMwDQYJKoZIhvcNAQELBQAwgawxCzAJBgNVBAYTAlVT
MQswCQYDVQQIEwJPSDERMA8GA1UEBxMIQ29sdW1idXMxEjAQBgNVBAoTCVZpa2lu
Z1ZQTjEdMBsGA1UECxMUTXlPcmdhbml6YXRpb25hbFVuaXQxFTATBgNVBAMTDFZp
a2luZ1ZQTiBDQTEQMA4GA1UEKRMHRWFzeVJTQTEhMB8GCSqGSIb3DQEJARYSbWVA
bXlob3N0Lm15ZG9tYWluMB4XDTE3MDUwNzAzNTkxNVoXDTI3MDUwNTAzNTkxNVow
HzEdMBsGA1UEAxMUQ2xpZW50MjkwNUNlcnRmYjFkYTQwggIiMA0GCSqGSIb3DQEB
AQUAA4ICDwAwggIKAoICAQC7i4rd1r0IvdAd2YJRk5yBEAdUFLPLM8bGlhaZLuXo
rVsKP/AvxCwTS/5HuEVQb+F3qZGevdxs2myJJjMhzMJ0TI+IIBFO1NPSeT8beJE2
Qwzz1N9VLEVUrKYcJk6jWn9TunBv6AlPBzWbL4NOfdlER2uJaS4y54V8ujCQYRIj
SRdzqtgwul1VhypH8RUsl7FOmGUQX3O/jSAas0MifFML5CjXhSiK4u2u6kcd4xvU
ysda5KjGgFz9GCcG+TkuHOA9GfGJoT63Z3Sc0EOr92VZSfhac8k1A0uQwNKHEk8E
DE7yguZ7mWMnxrCtk8WvdL/xlolj4BWnKna0+lgVnfqg/2+KJOQKZB0GBF82RhnH
mK9RDiOkUO6j20AE/rgJcMVtiLG7k9YsecoSKgsePX7qvl38ZgBRvO7dIclDrbNh
jDiE/UbuCnBo0SoVcDx5evXwItu/FiNgAUiuzbX3XAIAMyTi37ylDG6SYZSu7kBh
G6kuAjkutWrMECUhGS4k3GBony0ER73KDc5Ej+brna25UcZn+5IBDzYB7stW0mkW
Bb1iaoI09Q4JuErVRPGbNdeImHLGH6NnWfAYAdTCd0RGnrHkULUnXIES37mD48A6
GmlZhEuX/e6Yn3rNmyIcyzQBPfX+JZsCLQsZ0vf9JsbZgSZvsgEleQpJSTEAefVx
MwIDAQABo4IBYzCCAV8wCQYDVR0TBAIwADAtBglghkgBhvhCAQ0EIBYeRWFzeS1S
U0EgR2VuZXJhdGVkIENlcnRpZmljYXRlMB0GA1UdDgQWBBT8Z7+djPAFGT9qHIOX
nFaPY+EmrDCB4QYDVR0jBIHZMIHWgBQSzWAE0qCAnnDtxpm4eyzGUv0ZoaGBsqSB
rzCBrDELMAkGA1UEBhMCVVMxCzAJBgNVBAgTAk9IMREwDwYDVQQHEwhDb2x1bWJ1
czESMBAGA1UEChMJVmlraW5nVlBOMR0wGwYDVQQLExRNeU9yZ2FuaXphdGlvbmFs
VW5pdDEVMBMGA1UEAxMMVmlraW5nVlBOIENBMRAwDgYDVQQpEwdFYXN5UlNBMSEw
HwYJKoZIhvcNAQkBFhJtZUBteWhvc3QubXlkb21haW6CCQDPNYXugL8qPjATBgNV
HSUEDDAKBggrBgEFBQcDAjALBgNVHQ8EBAMCB4AwDQYJKoZIhvcNAQELBQADggIB
ANJR5kr+ccI8wW70XTVfsI7qFtm9gtxsZNMinfuRG/lT6GRO/BlBLlNJb2MfRZoo
onODXmoOrRkNx3X2QxAQPYnwrB3clD3DEJk4uWaTcIjrfhHu5BmMqSWsET5fK7Ef
UKxTVMOWARAu7eftesUFNl7d4J7YEi2io1MD3YnCVbib4s8h8KV/T3614CEQ1QEq
stMdU/gwVPR+HhbHEB+IdZbWl88R157dGFaAy2WgGG6MmyN77xegG7RRuopzvn2A
ra8LbO6tR+WdhxXjP1YkcENh6g7YsUq8lIxmUtypUa0DjkU/7rBxVLxb164AA4be
Mt9pInfi6sTwXFvbTbDcAsOW/Fc9ZsONthIZfRnAnZI09a0dDE6KLEM7NwkB9sJT
0BvRpik7z2pYiPfoCmWA9+80wBdHX3fZi6mPnsrD+MotEsnbXcFn8WKHLV4O3Xg8
R+kLQKTh7Z0oAEULmcfkuUD8pXckv+4OMhY7aIgUPZtl8kfUkMgDU9LquXMX8neI
v8MKBB23eDdQ3xiFnMK6i3wqswPjZz+6Xac9XLH0daU1KJZ0TITvaw8W4Rwahx1k
o4KhgY4IwQK4CfycijYg3V8sDewD5epJPjXCmxmPXNYKAI+61kLSIaqgXyNf3YyD
xQKIXp0B167YJS3bSHsnBR435r+SGuUC/KWJ3qLN/b14
-----END CERTIFICATE-----
