Certificate:
    Data:
        Version: 3 (0x2)
        Serial Number: 8038 (0x1f66)
    Signature Algorithm: md5WithRSAEncryption
        Issuer: C=US, ST=OH, L=Columbus, O=VikingVPN, OU=MyOrganizationalUnit, CN=VikingVPN CA/name=EasyRSA/emailAddress=me@myhost.mydomain
        Validity
            Not Before: May 24 00:00:19 2016 GMT
            Not After : May 22 00:00:19 2026 GMT
        Subject: CN=Client2271Cert0c378a
        Subject Public Key Info:
            Public Key Algorithm: rsaEncryption
                Public-Key: (4096 bit)
                Modulus:
                    00:cd:e9:bc:49:5d:f7:d5:30:30:e8:25:9b:bc:81:
                    de:f1:3f:34:32:ac:1e:5b:db:20:25:51:a0:2f:4b:
                    f9:b0:77:8d:52:57:51:a9:23:b3:67:ce:6e:87:1c:
                    95:3f:ce:14:af:1f:c3:ec:fa:11:58:b8:c2:45:f4:
                    70:56:d3:b0:78:b5:52:8b:f5:eb:87:8a:7a:0c:e8:
                    89:33:49:97:2e:4b:7e:62:47:39:40:12:83:ac:fd:
                    15:68:36:2a:02:20:58:95:b6:69:42:19:b8:0a:b0:
                    14:1d:46:50:dd:ec:03:d2:61:3f:1c:19:0f:0c:49:
                    2b:4b:c8:3a:c9:84:b0:f8:0c:02:33:e6:f4:ea:f1:
                    41:df:c6:57:eb:2d:7d:90:6e:67:c5:e9:1c:ad:0c:
                    0e:89:7b:61:29:e1:6e:12:12:c3:69:e4:65:aa:ba:
                    00:a4:b7:33:ae:1a:cd:dd:47:65:49:52:3a:8f:c3:
                    4f:e0:95:ad:9f:7d:3c:be:d5:75:9a:0b:a7:89:7a:
                    1a:f5:18:ba:e6:29:cb:2c:69:1a:e7:11:22:9c:f1:
                    08:2e:eb:fa:b8:be:0b:3a:da:6b:e0:39:1a:dc:0d:
                    1a:96:89:8a:12:87:1d:70:88:ea:86:da:15:6f:44:
                    99:70:aa:20:21:36:fa:56:93:24:6b:de:4a:d3:5c:
                    11:e5:95:43:e0:1e:50:71:b6:b0:dd:c2:e8:56:28:
                    8e:9b:6f:b0:21:6e:5a:dd:98:3d:68:ca:21:83:06:
                    2a:87:91:22:f5:9d:09:c0:36:a1:f2:77:09:9c:84:
                    8e:a9:c2:bf:19:fa:c3:93:96:ef:4d:7b:1a:7c:94:
                    94:34:96:a1:c1:99:aa:02:fb:2d:c9:56:da:60:ce:
                    47:8e:cc:d9:0f:df:94:31:9f:03:83:80:05:22:4f:
                    e1:71:ff:71:a9:ad:b2:d2:50:b0:23:d1:5c:c7:6d:
                    61:22:2b:8f:3d:2e:d7:08:69:80:66:2c:81:e8:ba:
                    61:41:14:71:05:c1:f8:29:62:4a:cc:6f:96:99:9b:
                    4c:7a:87:05:1e:49:52:21:9d:64:21:69:6f:19:15:
                    78:2a:ff:22:0b:4e:28:d7:37:a0:8c:6d:a8:4a:a2:
                    61:f2:67:d0:d6:d7:eb:d4:0b:3a:f1:21:4c:f7:67:
                    60:a9:86:a9:80:2c:45:98:a4:b1:2e:77:ec:9d:f6:
                    85:48:f6:32:de:a9:1d:93:b9:d1:b4:8c:fc:5a:9e:
                    da:e1:6d:2a:fe:f6:e0:e7:c3:69:2d:65:f3:94:e4:
                    f3:f4:9d:b6:30:ac:2b:68:fc:82:7d:c3:10:44:b7:
                    57:52:91:a3:2b:0f:3b:85:31:59:24:4c:8f:7c:cc:
                    6a:2c:2b
                Exponent: 65537 (0x10001)
        X509v3 extensions:
            X509v3 Basic Constraints: 
                CA:FALSE
            Netscape Comment: 
                Easy-RSA Generated Certificate
            X509v3 Subject Key Identifier: 
                A4:14:F2:C9:B9:E1:E4:D3:3D:FD:C9:8A:4C:89:F0:EF:DD:70:C1:F7
            X509v3 Authority Key Identifier: 
                keyid:12:CD:60:04:D2:A0:80:9E:70:ED:C6:99:B8:7B:2C:C6:52:FD:19:A1
                DirName:/C=US/ST=OH/L=Columbus/O=VikingVPN/OU=MyOrganizationalUnit/CN=VikingVPN CA/name=EasyRSA/emailAddress=me@myhost.mydomain
                serial:CF:35:85:EE:80:BF:2A:3E

            X509v3 Extended Key Usage: 
                TLS Web Client Authentication
            X509v3 Key Usage: 
                Digital Signature
    Signature Algorithm: md5WithRSAEncryption
         2d:27:44:7f:aa:06:e0:69:94:f1:83:cd:4c:2e:ed:53:37:a6:
         6f:0d:c3:ec:d1:b0:2e:0f:f4:d0:41:78:02:b4:61:4b:40:23:
         06:1d:5b:3f:75:eb:79:30:fa:f6:85:d6:bb:d4:12:06:71:0c:
         32:21:75:18:b7:3a:17:3c:46:89:1d:57:7c:5b:00:0d:8c:74:
         06:0f:36:a7:36:79:04:35:7d:2d:df:c5:7e:a4:fb:6d:4e:71:
         f4:a7:4a:3c:0a:90:0b:cf:ee:ff:8d:39:4b:f7:83:13:bd:44:
         0e:1b:64:0f:53:59:ee:8c:35:3a:36:36:dd:db:79:de:24:6d:
         a5:58:53:04:a8:3f:87:02:a2:87:8e:bc:c0:9f:1e:a1:e9:e8:
         b5:0b:55:e8:15:19:a3:d0:1b:cf:b6:26:66:fc:32:f0:4f:fa:
         3f:cf:1d:0c:03:1e:c6:1f:b9:c3:2c:26:e1:bd:3b:59:98:37:
         25:45:e9:51:40:a0:c6:c5:31:3f:dd:3c:37:79:51:71:98:09:
         58:ec:1a:f5:7c:ad:44:57:99:57:7c:82:88:26:08:53:c5:74:
         d8:c3:8d:d0:32:d6:c1:01:72:b3:9a:7c:6c:73:f3:9f:72:5f:
         7d:79:82:1d:2c:d3:05:e4:a5:95:1f:4a:f7:ba:79:74:85:36:
         4d:55:eb:b4:3b:b3:5d:be:e0:30:3b:da:82:34:1e:bb:42:c9:
         b4:b7:1e:8f:e9:07:04:84:db:bb:d3:8f:83:e2:11:80:28:ec:
         c7:bc:2f:af:6b:70:93:59:b0:45:7a:ab:84:8a:bc:77:97:2a:
         11:4f:43:cc:0a:c7:a3:1b:4e:70:d4:ab:1d:8d:b7:99:11:05:
         51:f5:b6:57:11:0a:ed:39:1e:2c:e4:76:73:63:df:4e:a2:fd:
         27:38:ec:52:6a:a3:d7:2b:d8:56:ed:a0:e3:a6:0e:1f:7c:be:
         ab:79:6d:b9:b9:59:6c:c6:90:26:24:e3:10:3a:49:28:10:6f:
         11:29:e1:fe:c4:12:8c:9a:e0:49:82:d4:b6:d7:30:f4:68:20:
         2c:bf:eb:48:af:85:51:60:66:ba:dd:3a:92:eb:dc:c8:b2:fe:
         af:bb:16:55:94:d7:5a:91:ff:94:7e:e4:de:b9:c9:52:f9:6b:
         30:79:1d:1d:d5:e8:8a:1a:47:63:48:66:a4:7c:9c:73:a1:22:
         ac:68:a9:0e:d7:64:95:81:ed:b5:f5:65:4b:a1:56:7c:d9:2b:
         54:80:b1:a0:99:b4:dc:af:d0:22:1d:3b:84:c2:fa:61:92:7c:
         06:ee:0b:ac:71:0e:02:2e:b0:2e:11:18:4f:f9:15:d9:17:ad:
         1b:79:b3:69:80:1b:dc:8b
-----BEGIN CERTIFICATE-----
MIIGrTCCBJWgAwIBAgICH2YwDQYJKoZIhvcNAQEEBQAwgawxCzAJBgNVBAYTAlVT
MQswCQYDVQQIEwJPSDERMA8GA1UEBxMIQ29sdW1idXMxEjAQBgNVBAoTCVZpa2lu
Z1ZQTjEdMBsGA1UECxMUTXlPcmdhbml6YXRpb25hbFVuaXQxFTATBgNVBAMTDFZp
a2luZ1ZQTiBDQTEQMA4GA1UEKRMHRWFzeVJTQTEhMB8GCSqGSIb3DQEJARYSbWVA
bXlob3N0Lm15ZG9tYWluMB4XDTE2MDUyNDAwMDAxOVoXDTI2MDUyMjAwMDAxOVow
HzEdMBsGA1UEAxMUQ2xpZW50MjI3MUNlcnQwYzM3OGEwggIiMA0GCSqGSIb3DQEB
AQUAA4ICDwAwggIKAoICAQDN6bxJXffVMDDoJZu8gd7xPzQyrB5b2yAlUaAvS/mw
d41SV1GpI7Nnzm6HHJU/zhSvH8Ps+hFYuMJF9HBW07B4tVKL9euHinoM6IkzSZcu
S35iRzlAEoOs/RVoNioCIFiVtmlCGbgKsBQdRlDd7APSYT8cGQ8MSStLyDrJhLD4
DAIz5vTq8UHfxlfrLX2QbmfF6RytDA6Je2Ep4W4SEsNp5GWqugCktzOuGs3dR2VJ
UjqPw0/gla2ffTy+1XWaC6eJehr1GLrmKcssaRrnESKc8Qgu6/q4vgs62mvgORrc
DRqWiYoShx1wiOqG2hVvRJlwqiAhNvpWkyRr3krTXBHllUPgHlBxtrDdwuhWKI6b
b7AhblrdmD1oyiGDBiqHkSL1nQnANqHydwmchI6pwr8Z+sOTlu9Nexp8lJQ0lqHB
maoC+y3JVtpgzkeOzNkP35QxnwODgAUiT+Fx/3GprbLSULAj0VzHbWEiK489LtcI
aYBmLIHoumFBFHEFwfgpYkrMb5aZm0x6hwUeSVIhnWQhaW8ZFXgq/yILTijXN6CM
bahKomHyZ9DW1+vUCzrxIUz3Z2CphqmALEWYpLEud+yd9oVI9jLeqR2TudG0jPxa
ntrhbSr+9uDnw2ktZfOU5PP0nbYwrCto/IJ9wxBEt1dSkaMrDzuFMVkkTI98zGos
KwIDAQABo4IBYzCCAV8wCQYDVR0TBAIwADAtBglghkgBhvhCAQ0EIBYeRWFzeS1S
U0EgR2VuZXJhdGVkIENlcnRpZmljYXRlMB0GA1UdDgQWBBSkFPLJueHk0z39yYpM
ifDv3XDB9zCB4QYDVR0jBIHZMIHWgBQSzWAE0qCAnnDtxpm4eyzGUv0ZoaGBsqSB
rzCBrDELMAkGA1UEBhMCVVMxCzAJBgNVBAgTAk9IMREwDwYDVQQHEwhDb2x1bWJ1
czESMBAGA1UEChMJVmlraW5nVlBOMR0wGwYDVQQLExRNeU9yZ2FuaXphdGlvbmFs
VW5pdDEVMBMGA1UEAxMMVmlraW5nVlBOIENBMRAwDgYDVQQpEwdFYXN5UlNBMSEw
HwYJKoZIhvcNAQkBFhJtZUBteWhvc3QubXlkb21haW6CCQDPNYXugL8qPjATBgNV
HSUEDDAKBggrBgEFBQcDAjALBgNVHQ8EBAMCB4AwDQYJKoZIhvcNAQEEBQADggIB
AC0nRH+qBuBplPGDzUwu7VM3pm8Nw+zRsC4P9NBBeAK0YUtAIwYdWz9163kw+vaF
1rvUEgZxDDIhdRi3Ohc8RokdV3xbAA2MdAYPNqc2eQQ1fS3fxX6k+21OcfSnSjwK
kAvP7v+NOUv3gxO9RA4bZA9TWe6MNTo2Nt3bed4kbaVYUwSoP4cCooeOvMCfHqHp
6LULVegVGaPQG8+2Jmb8MvBP+j/PHQwDHsYfucMsJuG9O1mYNyVF6VFAoMbFMT/d
PDd5UXGYCVjsGvV8rURXmVd8gogmCFPFdNjDjdAy1sEBcrOafGxz859yX315gh0s
0wXkpZUfSve6eXSFNk1V67Q7s12+4DA72oI0HrtCybS3Ho/pBwSE27vTj4PiEYAo
7Me8L69rcJNZsEV6q4SKvHeXKhFPQ8wKx6MbTnDUqx2Nt5kRBVH1tlcRCu05Hizk
dnNj306i/Sc47FJqo9cr2FbtoOOmDh98vqt5bbm5WWzGkCYk4xA6SSgQbxEp4f7E
Eoya4EmC1LbXMPRoICy/60ivhVFgZrrdOpLr3Miy/q+7FlWU11qR/5R+5N65yVL5
azB5HR3V6IoaR2NIZqR8nHOhIqxoqQ7XZJWB7bX1ZUuhVnzZK1SAsaCZtNyv0CId
O4TC+mGSfAbuC6xxDgIusC4RGE/5FdkXrRt5s2mAG9yL
-----END CERTIFICATE-----
