Certificate:
    Data:
        Version: 3 (0x2)
        Serial Number: 9701 (0x25e5)
    Signature Algorithm: sha256WithRSAEncryption
        Issuer: C=US, ST=OH, L=Columbus, O=VikingVPN, OU=MyOrganizationalUnit, CN=VikingVPN CA/name=EasyRSA/emailAddress=me@myhost.mydomain
        Validity
            Not Before: Dec 12 14:32:25 2016 GMT
            Not After : Dec 10 14:32:25 2026 GMT
        Subject: CN=Client2519Certaea5c7
        Subject Public Key Info:
            Public Key Algorithm: rsaEncryption
                Public-Key: (4096 bit)
                Modulus:
                    00:be:39:06:0e:7b:62:41:fc:a2:87:ce:82:cc:44:
                    3f:38:58:b4:ae:57:3a:fb:85:e6:3b:36:6f:3c:51:
                    f6:51:f9:a6:13:48:1f:3d:8c:de:df:75:e5:e6:6e:
                    9a:98:ea:50:9c:49:90:9d:d0:6b:35:57:bb:64:71:
                    54:a1:6f:7b:6f:74:99:cb:ca:50:19:94:5e:a9:bd:
                    50:64:fc:30:66:bc:e3:30:db:d4:5d:14:a5:71:7c:
                    71:11:f0:c1:66:cd:bd:f5:70:cf:86:3f:5d:7b:4b:
                    d5:0b:f1:33:12:d6:ad:a1:9b:3f:52:b4:a2:5d:54:
                    57:c8:a5:7b:a8:63:92:bd:72:52:a5:49:5b:9a:3e:
                    01:c0:2e:01:59:3b:ee:0b:e0:73:6c:2f:f0:bd:7e:
                    6b:19:18:11:65:0b:50:25:e0:20:95:ac:08:04:03:
                    0a:b9:22:fd:2b:a8:fd:2d:6a:68:36:1b:ca:2c:4f:
                    65:0b:cf:13:62:e2:4a:3c:3d:7b:c9:a9:d1:f1:fe:
                    8e:a3:df:0a:91:74:af:f9:0c:78:be:8f:93:3a:e1:
                    d0:ea:b1:55:f0:4b:37:0b:2c:49:02:76:c8:fc:5c:
                    43:8d:4a:e6:46:5a:c6:18:b9:c2:66:1b:b8:1e:b7:
                    35:74:91:4e:bf:ad:31:54:62:6a:d2:b5:e7:83:51:
                    da:e2:23:e7:40:d8:68:00:08:7a:2a:0d:bf:dc:47:
                    2c:cb:b4:59:ae:06:e7:3e:d8:e6:ab:4a:55:2c:0b:
                    4f:ba:6f:e3:e1:64:66:58:7c:0c:04:44:7f:1f:95:
                    5a:6f:7f:58:9b:39:5a:1e:38:02:13:62:01:60:5e:
                    13:b8:be:15:6d:53:d1:07:ca:b3:b5:a0:83:63:2e:
                    30:da:94:29:01:b9:3c:3f:ca:28:c5:db:5e:02:85:
                    3a:80:ac:0d:68:6a:76:6c:cb:30:45:60:df:83:26:
                    10:ef:3b:2d:72:d5:91:b3:9a:e1:25:3c:c6:37:00:
                    2d:6e:3a:a1:3d:8c:45:ab:1e:fc:8d:92:73:7a:be:
                    0f:b6:ae:7f:d6:d8:5a:8f:b2:98:eb:e0:cf:4b:7b:
                    58:77:31:c7:bf:de:ca:cb:4b:bd:2e:d7:2f:fa:c2:
                    40:e7:ee:98:3d:ee:d9:d4:44:be:ee:b3:1e:13:48:
                    f3:a6:2d:ef:58:8e:fd:f5:71:ef:c1:08:a7:7d:34:
                    5d:c4:19:fa:28:82:05:d7:fd:7f:05:87:ee:6a:46:
                    d4:21:f1:17:64:bb:4a:ac:52:6f:8a:1f:11:65:90:
                    d2:b4:ff:dd:fa:9d:c4:f7:59:e1:6e:d1:cb:01:52:
                    3e:e5:09:64:79:ba:4e:2e:12:53:9b:c7:fe:0d:28:
                    cd:19:9d
                Exponent: 65537 (0x10001)
        X509v3 extensions:
            X509v3 Basic Constraints: 
                CA:FALSE
            Netscape Comment: 
                Easy-RSA Generated Certificate
            X509v3 Subject Key Identifier: 
                CE:EA:B4:72:82:19:2C:B2:8B:B4:A1:81:B1:BE:9E:44:78:D0:CE:E2
            X509v3 Authority Key Identifier: 
                keyid:12:CD:60:04:D2:A0:80:9E:70:ED:C6:99:B8:7B:2C:C6:52:FD:19:A1
                DirName:/C=US/ST=OH/L=Columbus/O=VikingVPN/OU=MyOrganizationalUnit/CN=VikingVPN CA/name=EasyRSA/emailAddress=me@myhost.mydomain
                serial:CF:35:85:EE:80:BF:2A:3E

            X509v3 Extended Key Usage: 
                TLS Web Client Authentication
            X509v3 Key Usage: 
                Digital Signature
    Signature Algorithm: sha256WithRSAEncryption
         9e:f4:35:c4:b6:17:37:ca:1d:93:04:fa:ad:82:ec:9d:df:6d:
         d3:1f:e1:5a:ee:91:f2:aa:24:5b:80:94:4d:a7:94:98:7b:89:
         fa:76:06:2a:71:28:e0:fa:25:52:08:88:53:69:64:9e:bf:6e:
         a6:ad:b7:ca:11:c6:64:f5:4b:77:38:b0:d1:fb:ef:67:4c:b3:
         85:dd:f9:90:0d:a7:e7:fc:f8:11:ec:5c:70:0d:eb:3e:4b:2c:
         e7:b6:02:6a:1d:15:7e:f0:c4:1b:9c:3c:e3:d1:92:7a:0b:0e:
         1b:58:19:08:df:f1:76:da:28:cf:15:74:89:27:ef:6a:92:77:
         44:d0:94:7c:06:d6:1b:82:01:3b:14:e6:e9:d5:53:5e:45:30:
         90:dc:90:a9:f3:f4:b3:4b:32:42:0e:7d:64:90:ca:2a:97:cc:
         e4:da:dd:9d:76:4a:c9:31:df:94:b5:80:c1:d0:3e:df:7b:90:
         47:ce:65:a9:9f:c7:1b:ae:c4:85:db:95:9b:cb:c0:f8:b2:1a:
         ae:51:01:6a:cd:95:f6:58:7d:7a:da:66:98:19:ce:de:a8:43:
         a7:40:2d:a9:58:2d:f6:b4:0a:30:79:99:34:3a:61:ad:fb:26:
         71:5e:9e:3c:dd:b0:a0:37:f5:a2:88:21:4e:65:ae:c6:d1:1d:
         8b:89:63:01:21:9e:b4:22:a2:38:6c:49:7d:29:3d:6c:fb:6f:
         60:62:06:cc:25:17:31:74:cb:41:17:85:a0:a7:90:a6:97:d5:
         76:47:aa:ea:24:8d:ca:b4:2d:75:a1:57:80:a8:59:fd:f5:63:
         bc:72:3a:b5:c8:a0:15:b6:72:70:b2:16:f0:d4:48:28:80:30:
         3e:8b:16:f7:55:82:02:1a:10:a0:51:ea:62:83:29:3a:37:05:
         54:05:d7:b0:ec:cf:1e:6f:46:ef:e5:21:8c:92:4a:54:97:9c:
         f2:bf:23:ae:65:5d:3c:0b:29:87:7d:f1:21:f3:97:43:b7:69:
         da:9d:f3:24:0d:54:6f:39:ed:63:e7:95:4f:3d:35:77:b1:90:
         89:af:e5:84:8a:06:88:57:23:d2:f1:01:4c:df:9b:f3:91:9f:
         7e:0b:fc:93:fc:5b:60:23:81:12:96:1c:d9:35:47:4c:0b:5c:
         8e:05:5c:0d:7e:e8:b3:37:cf:a7:47:54:e5:a2:4f:18:7f:04:
         1c:3b:36:7a:de:d5:b6:47:9d:50:69:ab:92:76:65:0d:fd:19:
         0c:f9:e5:07:59:eb:73:06:fc:b3:26:26:46:26:b4:e8:91:bf:
         8a:22:91:e5:99:9e:4d:37:25:96:b1:07:f0:bb:ec:c0:2a:3c:
         a1:1f:65:44:2f:25:4e:7e
-----BEGIN CERTIFICATE-----
MIIGrTCCBJWgAwIBAgICJeUwDQYJKoZIhvcNAQELBQAwgawxCzAJBgNVBAYTAlVT
MQswCQYDVQQIEwJPSDERMA8GA1UEBxMIQ29sdW1idXMxEjAQBgNVBAoTCVZpa2lu
Z1ZQTjEdMBsGA1UECxMUTXlPcmdhbml6YXRpb25hbFVuaXQxFTATBgNVBAMTDFZp
a2luZ1ZQTiBDQTEQMA4GA1UEKRMHRWFzeVJTQTEhMB8GCSqGSIb3DQEJARYSbWVA
bXlob3N0Lm15ZG9tYWluMB4XDTE2MTIxMjE0MzIyNVoXDTI2MTIxMDE0MzIyNVow
HzEdMBsGA1UEAxMUQ2xpZW50MjUxOUNlcnRhZWE1YzcwggIiMA0GCSqGSIb3DQEB
AQUAA4ICDwAwggIKAoICAQC+OQYOe2JB/KKHzoLMRD84WLSuVzr7heY7Nm88UfZR
+aYTSB89jN7fdeXmbpqY6lCcSZCd0Gs1V7tkcVShb3tvdJnLylAZlF6pvVBk/DBm
vOMw29RdFKVxfHER8MFmzb31cM+GP117S9UL8TMS1q2hmz9StKJdVFfIpXuoY5K9
clKlSVuaPgHALgFZO+4L4HNsL/C9fmsZGBFlC1Al4CCVrAgEAwq5Iv0rqP0tamg2
G8osT2ULzxNi4ko8PXvJqdHx/o6j3wqRdK/5DHi+j5M64dDqsVXwSzcLLEkCdsj8
XEONSuZGWsYYucJmG7getzV0kU6/rTFUYmrSteeDUdriI+dA2GgACHoqDb/cRyzL
tFmuBuc+2OarSlUsC0+6b+PhZGZYfAwERH8flVpvf1ibOVoeOAITYgFgXhO4vhVt
U9EHyrO1oINjLjDalCkBuTw/yijF214ChTqArA1oanZsyzBFYN+DJhDvOy1y1ZGz
muElPMY3AC1uOqE9jEWrHvyNknN6vg+2rn/W2FqPspjr4M9Le1h3Mce/3srLS70u
1y/6wkDn7pg97tnURL7usx4TSPOmLe9Yjv31ce/BCKd9NF3EGfooggXX/X8Fh+5q
RtQh8Rdku0qsUm+KHxFlkNK0/936ncT3WeFu0csBUj7lCWR5uk4uElObx/4NKM0Z
nQIDAQABo4IBYzCCAV8wCQYDVR0TBAIwADAtBglghkgBhvhCAQ0EIBYeRWFzeS1S
U0EgR2VuZXJhdGVkIENlcnRpZmljYXRlMB0GA1UdDgQWBBTO6rRyghkssou0oYGx
vp5EeNDO4jCB4QYDVR0jBIHZMIHWgBQSzWAE0qCAnnDtxpm4eyzGUv0ZoaGBsqSB
rzCBrDELMAkGA1UEBhMCVVMxCzAJBgNVBAgTAk9IMREwDwYDVQQHEwhDb2x1bWJ1
czESMBAGA1UEChMJVmlraW5nVlBOMR0wGwYDVQQLExRNeU9yZ2FuaXphdGlvbmFs
VW5pdDEVMBMGA1UEAxMMVmlraW5nVlBOIENBMRAwDgYDVQQpEwdFYXN5UlNBMSEw
HwYJKoZIhvcNAQkBFhJtZUBteWhvc3QubXlkb21haW6CCQDPNYXugL8qPjATBgNV
HSUEDDAKBggrBgEFBQcDAjALBgNVHQ8EBAMCB4AwDQYJKoZIhvcNAQELBQADggIB
AJ70NcS2FzfKHZME+q2C7J3fbdMf4VrukfKqJFuAlE2nlJh7ifp2BipxKOD6JVII
iFNpZJ6/bqatt8oRxmT1S3c4sNH772dMs4Xd+ZANp+f8+BHsXHAN6z5LLOe2Amod
FX7wxBucPOPRknoLDhtYGQjf8XbaKM8VdIkn72qSd0TQlHwG1huCATsU5unVU15F
MJDckKnz9LNLMkIOfWSQyiqXzOTa3Z12Sskx35S1gMHQPt97kEfOZamfxxuuxIXb
lZvLwPiyGq5RAWrNlfZYfXraZpgZzt6oQ6dALalYLfa0CjB5mTQ6Ya37JnFenjzd
sKA39aKIIU5lrsbRHYuJYwEhnrQiojhsSX0pPWz7b2BiBswlFzF0y0EXhaCnkKaX
1XZHquokjcq0LXWhV4CoWf31Y7xyOrXIoBW2cnCyFvDUSCiAMD6LFvdVggIaEKBR
6mKDKTo3BVQF17Dszx5vRu/lIYySSlSXnPK/I65lXTwLKYd98SHzl0O3adqd8yQN
VG857WPnlU89NXexkImv5YSKBohXI9LxAUzfm/ORn34L/JP8W2AjgRKWHNk1R0wL
XI4FXA1+6LM3z6dHVOWiTxh/BBw7Nnre1bZHnVBpq5J2ZQ39GQz55QdZ63MG/LMm
JkYmtOiRv4oikeWZnk03JZaxB/C77MAqPKEfZUQvJU5+
-----END CERTIFICATE-----
