Certificate:
    Data:
        Version: 3 (0x2)
        Serial Number: 4264 (0x10a8)
    Signature Algorithm: md5WithRSAEncryption
        Issuer: C=US, ST=OH, L=Columbus, O=VikingVPN, OU=MyOrganizationalUnit, CN=VikingVPN CA/name=EasyRSA/emailAddress=me@myhost.mydomain
        Validity
            Not Before: Jan 25 20:15:43 2015 GMT
            Not After : Jan 22 20:15:43 2025 GMT
        Subject: CN=Client824Cert652cdb
        Subject Public Key Info:
            Public Key Algorithm: rsaEncryption
                Public-Key: (4096 bit)
                Modulus:
                    00:c6:9d:52:97:9c:e8:c0:df:38:cd:c3:c4:97:e8:
                    e1:2f:79:f8:db:04:42:4b:58:a8:b6:8c:52:a2:8d:
                    8a:cd:07:ec:82:a4:51:f6:93:d3:3d:fc:a4:5e:ef:
                    20:be:58:f9:35:9c:37:19:6c:9a:a5:ba:9c:17:61:
                    34:6c:47:69:7d:c5:2f:1d:21:6a:0c:22:12:a2:25:
                    70:34:b4:bc:4c:fc:99:41:2d:4b:c8:3b:8d:ec:70:
                    a8:01:01:5f:5e:2a:1d:91:d5:da:b2:80:ec:4c:92:
                    02:1e:4b:f9:b1:0a:a1:07:99:bd:1d:a8:74:b2:6d:
                    e8:0e:55:25:56:a0:66:e9:8f:51:68:15:c2:e1:ff:
                    e2:16:c5:c9:68:bf:6a:d7:ef:16:0b:93:83:94:72:
                    de:c8:69:10:ef:4d:62:32:2f:7c:0a:6d:6b:1a:89:
                    b3:6f:4b:75:d7:d6:18:17:4f:b0:f1:af:36:44:2d:
                    4f:19:33:0d:ef:0b:2e:ec:51:31:6b:50:61:45:cd:
                    6c:06:f3:cb:68:6d:46:dc:fe:6b:f3:8e:50:48:7b:
                    f8:56:62:4e:84:ba:e3:43:06:92:0c:54:99:fe:0a:
                    bc:bb:a3:a3:cd:2f:70:99:e4:93:d5:36:69:b2:79:
                    fb:35:d6:34:ae:4f:8d:1a:8c:40:10:3a:24:e4:dd:
                    b1:20:25:4e:a1:b1:72:ff:c1:e3:13:39:66:8a:72:
                    e2:da:57:16:68:2e:c3:24:78:0d:43:24:29:6f:74:
                    23:67:76:25:e1:42:1b:9e:0e:46:25:91:da:a5:a2:
                    b5:c6:72:8a:b4:33:8e:0b:0b:8e:23:e1:6b:0b:b7:
                    98:28:13:21:15:d5:a1:ff:18:af:62:89:e5:b8:c2:
                    d9:89:9b:7b:de:07:07:2d:a8:f8:d7:0a:88:1c:69:
                    ad:df:6a:5f:b2:b2:34:e7:fd:c6:36:a4:27:49:aa:
                    99:bf:97:2d:38:b5:df:3b:a3:1a:52:dd:98:7d:92:
                    c0:b0:c4:10:c6:f6:8b:b5:c6:9b:3e:bb:26:ee:25:
                    a9:07:45:a8:3a:81:85:79:78:a8:02:fc:f0:be:d2:
                    77:4d:b0:c6:26:13:fc:31:50:4c:53:de:e5:2c:6c:
                    88:b4:1e:93:2f:7a:20:8e:ea:7b:01:e2:31:27:78:
                    33:a8:05:b3:d3:2a:1b:9f:1a:fd:f9:6c:c0:e6:fb:
                    4c:77:c2:b5:2e:6f:89:e0:de:22:04:e5:da:9d:66:
                    6f:f7:0b:de:5c:99:40:cf:19:a8:97:6a:08:0c:98:
                    85:d0:7b:c5:ea:9f:33:9d:f4:d6:c9:bf:e3:7f:a9:
                    53:fe:2a:dd:26:e9:dc:b4:d1:17:df:b7:03:15:b9:
                    85:74:f7
                Exponent: 65537 (0x10001)
        X509v3 extensions:
            X509v3 Basic Constraints: 
                CA:FALSE
            Netscape Comment: 
                Easy-RSA Generated Certificate
            X509v3 Subject Key Identifier: 
                7E:74:FB:3A:5D:E9:E6:21:0F:4D:5B:A8:C9:80:0E:3E:FA:1F:1F:91
            X509v3 Authority Key Identifier: 
                keyid:12:CD:60:04:D2:A0:80:9E:70:ED:C6:99:B8:7B:2C:C6:52:FD:19:A1
                DirName:/C=US/ST=OH/L=Columbus/O=VikingVPN/OU=MyOrganizationalUnit/CN=VikingVPN CA/name=EasyRSA/emailAddress=me@myhost.mydomain
                serial:CF:35:85:EE:80:BF:2A:3E

            X509v3 Extended Key Usage: 
                TLS Web Client Authentication
            X509v3 Key Usage: 
                Digital Signature
    Signature Algorithm: md5WithRSAEncryption
         b0:62:41:66:62:70:c5:9c:0d:1e:fa:10:52:e9:bf:50:2c:fc:
         b1:a3:47:e8:59:db:c4:37:df:c4:ed:48:ff:50:3d:2d:a3:e7:
         1f:cd:83:95:69:d6:01:61:16:9c:f9:7f:2f:65:c3:68:3e:43:
         1a:11:94:d8:25:9e:4f:cf:16:a8:83:28:10:04:0a:71:62:03:
         e9:2f:f9:cb:31:fa:0c:a0:27:09:bb:f9:28:b5:5d:d8:d1:39:
         c3:b4:67:d0:1b:32:94:ac:cc:a9:2f:82:65:b2:9f:c3:05:5e:
         26:d4:40:3e:07:9b:93:27:40:10:2a:3b:01:4c:86:f9:50:54:
         fa:91:48:11:95:6a:cd:57:7e:66:7c:e5:3b:1c:43:98:b9:18:
         b7:54:f6:1d:0d:95:9b:4b:46:4b:26:3d:6f:17:3a:d4:dc:0d:
         cd:f4:4c:ca:4d:85:be:a0:4f:a5:c9:41:ba:19:c2:bc:78:21:
         e2:a9:47:f0:b7:ef:ff:00:cf:8c:f3:42:9e:66:a6:e9:a1:6e:
         14:e5:3d:9a:af:96:0c:97:80:3d:f6:ec:63:31:1b:64:61:0a:
         5a:91:59:1e:6e:46:87:52:8e:24:94:26:c3:c6:83:9d:e7:42:
         6f:66:cf:e8:10:c5:95:8e:0e:46:85:ec:54:22:12:0d:7a:92:
         65:1e:03:14:98:b0:c6:60:18:bc:f6:2b:21:62:61:d7:34:22:
         ff:c4:be:ba:22:a7:56:11:b7:5a:d2:22:b8:b5:97:3e:88:20:
         df:f8:1c:6f:b7:f0:c4:50:fb:74:f4:3f:cc:e1:40:ff:94:be:
         9e:dd:4b:c6:ed:9c:51:ed:8c:7d:40:09:81:41:52:69:4e:37:
         10:9d:6f:7a:1d:9a:2e:7e:b0:c4:e4:c6:ba:03:3c:c0:51:aa:
         43:61:ca:a5:99:8e:83:aa:8a:51:d2:68:e9:b8:7d:84:88:5b:
         9b:30:2c:bf:b6:66:28:60:23:86:ea:8a:3d:3a:c9:c4:61:cd:
         41:ae:a3:ba:eb:64:9c:59:b2:58:58:53:1d:9b:14:6b:f7:bd:
         a0:b9:88:48:a6:a0:38:aa:83:bd:92:22:38:ca:82:8f:10:c4:
         fd:16:b8:e9:ea:29:7d:5d:ba:b3:bf:99:5a:0b:8a:21:f3:f1:
         b0:4a:d6:85:b2:49:35:2d:34:23:e4:fa:9c:e3:7e:b9:ad:ac:
         e0:1a:85:50:f1:2c:8b:f4:c7:30:ed:97:d8:2e:62:55:0f:ef:
         da:58:d0:a0:60:f8:27:ae:c3:64:5a:66:e5:8a:db:c5:2f:4c:
         b4:85:cb:c8:44:9d:68:12:07:cf:4b:f1:eb:cc:0b:b4:7f:50:
         90:1b:dd:a5:7a:7e:9c:a8
-----BEGIN CERTIFICATE-----
MIIGrDCCBJSgAwIBAgICEKgwDQYJKoZIhvcNAQEEBQAwgawxCzAJBgNVBAYTAlVT
MQswCQYDVQQIEwJPSDERMA8GA1UEBxMIQ29sdW1idXMxEjAQBgNVBAoTCVZpa2lu
Z1ZQTjEdMBsGA1UECxMUTXlPcmdhbml6YXRpb25hbFVuaXQxFTATBgNVBAMTDFZp
a2luZ1ZQTiBDQTEQMA4GA1UEKRMHRWFzeVJTQTEhMB8GCSqGSIb3DQEJARYSbWVA
bXlob3N0Lm15ZG9tYWluMB4XDTE1MDEyNTIwMTU0M1oXDTI1MDEyMjIwMTU0M1ow
HjEcMBoGA1UEAxMTQ2xpZW50ODI0Q2VydDY1MmNkYjCCAiIwDQYJKoZIhvcNAQEB
BQADggIPADCCAgoCggIBAMadUpec6MDfOM3DxJfo4S95+NsEQktYqLaMUqKNis0H
7IKkUfaT0z38pF7vIL5Y+TWcNxlsmqW6nBdhNGxHaX3FLx0hagwiEqIlcDS0vEz8
mUEtS8g7jexwqAEBX14qHZHV2rKA7EySAh5L+bEKoQeZvR2odLJt6A5VJVagZumP
UWgVwuH/4hbFyWi/atfvFguTg5Ry3shpEO9NYjIvfAptaxqJs29LddfWGBdPsPGv
NkQtTxkzDe8LLuxRMWtQYUXNbAbzy2htRtz+a/OOUEh7+FZiToS640MGkgxUmf4K
vLujo80vcJnkk9U2abJ5+zXWNK5PjRqMQBA6JOTdsSAlTqGxcv/B4xM5Zopy4tpX
FmguwyR4DUMkKW90I2d2JeFCG54ORiWR2qWitcZyirQzjgsLjiPhawu3mCgTIRXV
of8Yr2KJ5bjC2Ymbe94HBy2o+NcKiBxprd9qX7KyNOf9xjakJ0mqmb+XLTi13zuj
GlLdmH2SwLDEEMb2i7XGmz67Ju4lqQdFqDqBhXl4qAL88L7Sd02wxiYT/DFQTFPe
5SxsiLQeky96II7qewHiMSd4M6gFs9MqG58a/flswOb7THfCtS5vieDeIgTl2p1m
b/cL3lyZQM8ZqJdqCAyYhdB7xeqfM5301sm/43+pU/4q3Sbp3LTRF9+3AxW5hXT3
AgMBAAGjggFjMIIBXzAJBgNVHRMEAjAAMC0GCWCGSAGG+EIBDQQgFh5FYXN5LVJT
QSBHZW5lcmF0ZWQgQ2VydGlmaWNhdGUwHQYDVR0OBBYEFH50+zpd6eYhD01bqMmA
Dj76Hx+RMIHhBgNVHSMEgdkwgdaAFBLNYATSoICecO3Gmbh7LMZS/RmhoYGypIGv
MIGsMQswCQYDVQQGEwJVUzELMAkGA1UECBMCT0gxETAPBgNVBAcTCENvbHVtYnVz
MRIwEAYDVQQKEwlWaWtpbmdWUE4xHTAbBgNVBAsTFE15T3JnYW5pemF0aW9uYWxV
bml0MRUwEwYDVQQDEwxWaWtpbmdWUE4gQ0ExEDAOBgNVBCkTB0Vhc3lSU0ExITAf
BgkqhkiG9w0BCQEWEm1lQG15aG9zdC5teWRvbWFpboIJAM81he6Avyo+MBMGA1Ud
JQQMMAoGCCsGAQUFBwMCMAsGA1UdDwQEAwIHgDANBgkqhkiG9w0BAQQFAAOCAgEA
sGJBZmJwxZwNHvoQUum/UCz8saNH6FnbxDffxO1I/1A9LaPnH82DlWnWAWEWnPl/
L2XDaD5DGhGU2CWeT88WqIMoEAQKcWID6S/5yzH6DKAnCbv5KLVd2NE5w7Rn0Bsy
lKzMqS+CZbKfwwVeJtRAPgebkydAECo7AUyG+VBU+pFIEZVqzVd+ZnzlOxxDmLkY
t1T2HQ2Vm0tGSyY9bxc61NwNzfRMyk2FvqBPpclBuhnCvHgh4qlH8Lfv/wDPjPNC
nmam6aFuFOU9mq+WDJeAPfbsYzEbZGEKWpFZHm5Gh1KOJJQmw8aDnedCb2bP6BDF
lY4ORoXsVCISDXqSZR4DFJiwxmAYvPYrIWJh1zQi/8S+uiKnVhG3WtIiuLWXPogg
3/gcb7fwxFD7dPQ/zOFA/5S+nt1Lxu2cUe2MfUAJgUFSaU43EJ1veh2aLn6wxOTG
ugM8wFGqQ2HKpZmOg6qKUdJo6bh9hIhbmzAsv7ZmKGAjhuqKPTrJxGHNQa6juutk
nFmyWFhTHZsUa/e9oLmISKagOKqDvZIiOMqCjxDE/Ra46eopfV26s7+ZWguKIfPx
sErWhbJJNS00I+T6nON+ua2s4BqFUPEsi/THMO2X2C5iVQ/v2ljQoGD4J67DZFpm
5YrbxS9MtIXLyESdaBIHz0vx68wLtH9QkBvdpXp+nKg=
-----END CERTIFICATE-----
