Certificate:
    Data:
        Version: 3 (0x2)
        Serial Number: 6541 (0x198d)
    Signature Algorithm: md5WithRSAEncryption
        Issuer: C=US, ST=OH, L=Columbus, O=VikingVPN, OU=MyOrganizationalUnit, CN=VikingVPN CA/name=EasyRSA/emailAddress=me@myhost.mydomain
        Validity
            Not Before: Oct 21 19:23:26 2015 GMT
            Not After : Oct 18 19:23:26 2025 GMT
        Subject: CN=Client431Cert364ef4
        Subject Public Key Info:
            Public Key Algorithm: rsaEncryption
                Public-Key: (4096 bit)
                Modulus:
                    00:ab:5b:60:7b:7b:31:e5:bd:fe:3d:c1:1e:65:7d:
                    04:0d:14:4f:e8:91:b0:7a:5d:dd:51:73:34:81:a3:
                    98:6e:e5:dd:8c:db:82:d8:8d:34:70:c0:de:40:de:
                    f9:3b:30:40:de:c5:f8:7a:d9:ed:44:73:72:12:95:
                    c6:29:3b:12:be:cb:2b:08:8f:19:07:f5:b1:fb:f1:
                    fc:da:93:36:57:57:d4:9e:e1:a3:87:0b:b8:59:53:
                    b8:77:b1:69:fd:ba:6c:ec:55:77:25:e0:3f:a0:ca:
                    2b:ea:f6:77:bd:46:02:27:6f:40:87:f4:0d:eb:05:
                    d1:6f:6f:3b:80:ee:c2:07:b1:15:cc:95:29:c6:4e:
                    37:c9:25:03:64:4d:59:16:e1:d3:ac:00:7f:f5:7e:
                    aa:c3:d0:e1:a4:b3:bf:19:3a:3a:70:8e:a0:42:fe:
                    af:27:5d:73:13:3c:64:e1:29:35:d9:de:e5:8c:47:
                    2a:97:08:a2:c7:60:34:2b:39:8c:17:79:98:83:13:
                    6e:f6:e3:8e:a7:c5:85:4d:2c:ed:e3:d5:b0:06:c0:
                    bb:99:ed:b7:14:0f:51:0d:a3:f0:a5:81:58:b9:5c:
                    1d:fd:04:83:e2:2c:df:63:b9:1f:3a:6f:2c:56:0f:
                    02:11:b5:fc:16:02:d7:9d:0b:e0:de:4c:bd:fb:ea:
                    d9:c3:52:d5:65:55:97:52:23:1b:2c:fd:7d:09:04:
                    58:ba:50:7e:84:a4:aa:76:02:d2:e3:ea:37:83:f5:
                    eb:23:3b:6a:50:cc:b9:0f:da:bd:53:9f:82:1f:43:
                    28:ed:b4:b9:d8:d7:77:a5:ab:64:37:1f:b4:38:0f:
                    d3:36:bd:76:f1:77:88:76:99:f1:92:3f:cd:9e:b9:
                    67:bd:59:d3:44:75:ce:75:49:2c:b1:24:3c:b0:18:
                    49:0f:79:77:b3:90:34:76:7c:58:fb:dd:44:0c:51:
                    a4:fc:4c:00:6f:6b:21:87:18:04:ec:b5:a6:36:0d:
                    97:47:01:ce:47:87:65:69:c8:75:48:d0:d6:0e:99:
                    51:9e:44:49:cf:ec:d2:b4:13:a1:e6:59:89:53:0b:
                    51:42:0e:4f:54:db:20:64:68:94:7f:eb:09:c1:8f:
                    74:a0:ad:97:fa:34:13:dc:0d:a2:f4:0e:75:54:14:
                    23:d9:68:c5:d9:8e:b4:9a:9f:3a:15:03:a8:fb:a5:
                    6a:12:16:4e:3f:f4:18:b4:04:70:3e:e9:8f:6d:7a:
                    c9:c1:b8:9f:35:d3:af:0f:a3:76:f3:75:50:df:f6:
                    be:f7:e0:9f:39:3b:51:67:87:93:72:6f:ba:2d:b3:
                    1a:ec:98:61:9d:f0:88:d7:bc:eb:69:f2:ee:6b:31:
                    b3:77:81
                Exponent: 65537 (0x10001)
        X509v3 extensions:
            X509v3 Basic Constraints: 
                CA:FALSE
            Netscape Comment: 
                Easy-RSA Generated Certificate
            X509v3 Subject Key Identifier: 
                07:4A:CE:98:20:52:6A:CE:2E:E0:69:C0:A3:79:A7:BF:A7:F1:49:28
            X509v3 Authority Key Identifier: 
                keyid:12:CD:60:04:D2:A0:80:9E:70:ED:C6:99:B8:7B:2C:C6:52:FD:19:A1
                DirName:/C=US/ST=OH/L=Columbus/O=VikingVPN/OU=MyOrganizationalUnit/CN=VikingVPN CA/name=EasyRSA/emailAddress=me@myhost.mydomain
                serial:CF:35:85:EE:80:BF:2A:3E

            X509v3 Extended Key Usage: 
                TLS Web Client Authentication
            X509v3 Key Usage: 
                Digital Signature
    Signature Algorithm: md5WithRSAEncryption
         6c:9a:9c:12:59:55:17:c3:39:71:df:b3:2e:cd:a7:98:e6:21:
         84:da:30:f9:59:4f:55:bb:65:b0:0a:c9:84:c5:2c:82:eb:82:
         b9:4a:04:b8:4f:c3:ea:aa:f7:f9:3f:dd:57:b3:91:9d:0d:73:
         9a:9b:7b:0d:ac:c3:9e:9e:d4:e0:34:0a:e4:01:3b:89:37:96:
         a9:89:43:c8:b5:91:a1:24:1f:39:96:c5:77:9c:57:6f:cd:9c:
         54:ef:75:2e:60:81:0d:e7:3a:d6:f6:5b:1c:56:06:fc:4c:58:
         b1:4d:0d:c9:99:17:10:02:04:b2:e9:fd:4a:0f:f4:bd:dc:a8:
         b4:33:af:1d:78:11:72:a6:66:6c:8c:d0:47:47:ed:61:d8:14:
         ac:08:91:87:dd:d8:ee:44:75:55:b9:dc:2e:9d:f2:17:21:78:
         2b:49:50:bd:ed:21:bf:50:c9:46:3f:39:1f:19:c5:68:85:8b:
         7f:1a:1c:40:12:45:42:5e:fc:05:d6:66:a0:79:a5:e2:25:4b:
         ef:1b:15:77:16:b9:a6:04:4b:83:1f:7e:2e:88:28:3f:ac:2c:
         3a:d6:67:03:18:7d:75:44:04:35:97:d2:c8:0b:70:d8:cc:f4:
         34:fb:c5:8a:f9:f8:75:13:ad:86:f6:7d:a9:de:30:96:38:da:
         ae:31:c4:22:a3:4f:eb:43:1e:33:35:6a:d1:47:66:ea:b4:40:
         0c:bf:89:2b:13:b5:6b:2a:62:f7:07:7e:0e:5b:85:b3:a8:c1:
         ac:68:8b:d4:90:ba:ce:b1:1e:19:2d:d0:86:a4:1f:54:df:f2:
         c0:c2:cb:1c:89:a7:15:7b:c8:2f:e0:55:be:5a:e7:fb:42:eb:
         60:90:00:93:3b:0b:2b:27:90:14:b6:ae:9d:3e:45:52:44:df:
         ae:a2:cd:45:29:51:a6:19:a7:14:e5:5c:31:8e:82:26:ec:a7:
         2e:7d:4b:ae:1f:07:82:6e:24:a2:67:18:ff:ad:0e:61:58:07:
         b4:38:fb:21:e6:5b:a0:88:5c:58:4b:2c:45:e3:1b:a3:c5:13:
         f1:e9:80:c3:70:ef:ff:51:df:7d:8f:ca:31:36:36:84:e4:25:
         0a:d1:ca:2a:45:f0:1e:13:cb:69:ec:81:32:ff:da:ce:a9:b1:
         87:be:d9:78:00:6a:d3:df:84:ac:c2:5f:dc:45:21:90:98:24:
         c0:97:d4:82:93:57:b6:89:0b:2a:23:c8:2f:2b:56:3e:87:79:
         1e:52:91:86:59:7f:b9:c7:44:18:77:17:82:c0:a1:ab:a8:c0:
         ef:03:91:c0:b5:78:f4:80:09:2e:de:06:7d:2f:86:23:6e:02:
         53:ea:34:f2:bb:d7:e0:c7
-----BEGIN CERTIFICATE-----
MIIGrDCCBJSgAwIBAgICGY0wDQYJKoZIhvcNAQEEBQAwgawxCzAJBgNVBAYTAlVT
MQswCQYDVQQIEwJPSDERMA8GA1UEBxMIQ29sdW1idXMxEjAQBgNVBAoTCVZpa2lu
Z1ZQTjEdMBsGA1UECxMUTXlPcmdhbml6YXRpb25hbFVuaXQxFTATBgNVBAMTDFZp
a2luZ1ZQTiBDQTEQMA4GA1UEKRMHRWFzeVJTQTEhMB8GCSqGSIb3DQEJARYSbWVA
bXlob3N0Lm15ZG9tYWluMB4XDTE1MTAyMTE5MjMyNloXDTI1MTAxODE5MjMyNlow
HjEcMBoGA1UEAxMTQ2xpZW50NDMxQ2VydDM2NGVmNDCCAiIwDQYJKoZIhvcNAQEB
BQADggIPADCCAgoCggIBAKtbYHt7MeW9/j3BHmV9BA0UT+iRsHpd3VFzNIGjmG7l
3YzbgtiNNHDA3kDe+TswQN7F+HrZ7URzchKVxik7Er7LKwiPGQf1sfvx/NqTNldX
1J7ho4cLuFlTuHexaf26bOxVdyXgP6DKK+r2d71GAidvQIf0DesF0W9vO4Duwgex
FcyVKcZON8klA2RNWRbh06wAf/V+qsPQ4aSzvxk6OnCOoEL+ryddcxM8ZOEpNdne
5YxHKpcIosdgNCs5jBd5mIMTbvbjjqfFhU0s7ePVsAbAu5nttxQPUQ2j8KWBWLlc
Hf0Eg+Is32O5HzpvLFYPAhG1/BYC150L4N5Mvfvq2cNS1WVVl1IjGyz9fQkEWLpQ
foSkqnYC0uPqN4P16yM7alDMuQ/avVOfgh9DKO20udjXd6WrZDcftDgP0za9dvF3
iHaZ8ZI/zZ65Z71Z00R1znVJLLEkPLAYSQ95d7OQNHZ8WPvdRAxRpPxMAG9rIYcY
BOy1pjYNl0cBzkeHZWnIdUjQ1g6ZUZ5ESc/s0rQToeZZiVMLUUIOT1TbIGRolH/r
CcGPdKCtl/o0E9wNovQOdVQUI9loxdmOtJqfOhUDqPulahIWTj/0GLQEcD7pj216
ycG4nzXTrw+jdvN1UN/2vvfgnzk7UWeHk3Jvui2zGuyYYZ3wiNe862ny7msxs3eB
AgMBAAGjggFjMIIBXzAJBgNVHRMEAjAAMC0GCWCGSAGG+EIBDQQgFh5FYXN5LVJT
QSBHZW5lcmF0ZWQgQ2VydGlmaWNhdGUwHQYDVR0OBBYEFAdKzpggUmrOLuBpwKN5
p7+n8UkoMIHhBgNVHSMEgdkwgdaAFBLNYATSoICecO3Gmbh7LMZS/RmhoYGypIGv
MIGsMQswCQYDVQQGEwJVUzELMAkGA1UECBMCT0gxETAPBgNVBAcTCENvbHVtYnVz
MRIwEAYDVQQKEwlWaWtpbmdWUE4xHTAbBgNVBAsTFE15T3JnYW5pemF0aW9uYWxV
bml0MRUwEwYDVQQDEwxWaWtpbmdWUE4gQ0ExEDAOBgNVBCkTB0Vhc3lSU0ExITAf
BgkqhkiG9w0BCQEWEm1lQG15aG9zdC5teWRvbWFpboIJAM81he6Avyo+MBMGA1Ud
JQQMMAoGCCsGAQUFBwMCMAsGA1UdDwQEAwIHgDANBgkqhkiG9w0BAQQFAAOCAgEA
bJqcEllVF8M5cd+zLs2nmOYhhNow+VlPVbtlsArJhMUsguuCuUoEuE/D6qr3+T/d
V7ORnQ1zmpt7DazDnp7U4DQK5AE7iTeWqYlDyLWRoSQfOZbFd5xXb82cVO91LmCB
Dec61vZbHFYG/ExYsU0NyZkXEAIEsun9Sg/0vdyotDOvHXgRcqZmbIzQR0ftYdgU
rAiRh93Y7kR1VbncLp3yFyF4K0lQve0hv1DJRj85HxnFaIWLfxocQBJFQl78BdZm
oHml4iVL7xsVdxa5pgRLgx9+LogoP6wsOtZnAxh9dUQENZfSyAtw2Mz0NPvFivn4
dROthvZ9qd4wljjarjHEIqNP60MeMzVq0Udm6rRADL+JKxO1aypi9wd+DluFs6jB
rGiL1JC6zrEeGS3QhqQfVN/ywMLLHImnFXvIL+BVvlrn+0LrYJAAkzsLKyeQFLau
nT5FUkTfrqLNRSlRphmnFOVcMY6CJuynLn1Lrh8Hgm4komcY/60OYVgHtDj7IeZb
oIhcWEssReMbo8UT8emAw3Dv/1HffY/KMTY2hOQlCtHKKkXwHhPLaeyBMv/azqmx
h77ZeABq09+ErMJf3EUhkJgkwJfUgpNXtokLKiPILytWPod5HlKRhll/ucdEGHcX
gsChq6jA7wORwLV49IAJLt4GfS+GI24CU+o08rvX4Mc=
-----END CERTIFICATE-----
