Certificate:
    Data:
        Version: 3 (0x2)
        Serial Number: 12783 (0x31ef)
    Signature Algorithm: sha256WithRSAEncryption
        Issuer: C=US, ST=OH, L=Columbus, O=VikingVPN, OU=MyOrganizationalUnit, CN=VikingVPN CA/name=EasyRSA/emailAddress=me@myhost.mydomain
        Validity
            Not Before: Mar 23 19:47:30 2018 GMT
            Not After : Mar 20 19:47:30 2028 GMT
        Subject: CN=Client2919Cert038795
        Subject Public Key Info:
            Public Key Algorithm: rsaEncryption
                Public-Key: (4096 bit)
                Modulus:
                    00:c7:0a:32:17:e2:e5:c9:04:08:50:8d:6a:e1:db:
                    8d:5c:01:03:c3:e2:23:2b:f3:8a:e2:b3:1e:22:1d:
                    57:b8:90:29:74:b1:41:10:48:24:c2:40:f3:0d:c8:
                    24:65:c2:c3:8c:46:e2:ae:ee:93:d7:73:2a:45:d9:
                    d7:23:bd:b0:ea:88:e3:f9:eb:6a:b6:77:0c:56:73:
                    ae:9f:5f:4c:87:90:6e:af:8d:dd:f8:36:39:2f:2b:
                    29:96:fc:79:30:29:2b:78:6c:8d:8c:df:43:6f:9d:
                    79:f6:af:9c:b7:f1:91:87:16:ef:4d:0e:72:46:55:
                    3d:c4:69:b7:79:18:84:71:7c:e6:94:89:2f:85:b8:
                    d4:40:4b:fb:3a:70:11:5e:a4:05:f8:89:cd:ee:b2:
                    9f:c9:43:1c:42:39:f5:d3:01:c6:9e:81:d4:64:89:
                    48:4f:1f:b2:39:97:13:ab:66:c0:17:6e:1f:a4:30:
                    98:82:60:7c:77:0d:a3:b3:45:8a:42:49:31:8d:e1:
                    fc:bd:8a:a3:65:92:17:28:53:02:88:84:30:18:6c:
                    55:a5:e9:80:d5:4c:d9:c6:13:cc:78:8b:f9:1f:66:
                    51:fc:a4:6c:14:32:db:80:72:c4:81:6d:bc:16:29:
                    ca:0d:17:1f:6f:40:6a:5b:99:a8:88:0a:2f:87:c5:
                    34:42:1f:3a:c0:e5:99:6a:d4:8e:b2:8f:ea:b7:e1:
                    79:b5:b9:db:0c:00:24:f4:be:b3:c9:16:75:87:fd:
                    71:a3:1e:8e:a6:42:3e:0a:28:a2:82:6d:91:e6:92:
                    ce:6c:aa:e8:71:d0:56:8b:58:63:c1:41:ff:e0:be:
                    83:37:44:da:e1:69:ec:c8:0f:bc:ea:37:f2:fc:f9:
                    f8:2d:93:8f:7b:b9:ca:f6:f4:a3:2b:b9:d4:f5:8b:
                    75:d0:5b:ae:78:90:c4:84:a8:72:4a:78:50:e0:ba:
                    b5:be:49:e6:3a:ee:7c:d4:45:f3:f5:b0:f1:ff:95:
                    7b:11:0b:c1:f3:34:75:71:74:49:5a:48:de:73:39:
                    15:f6:7d:04:25:aa:23:d7:ed:04:d2:49:df:1d:a4:
                    1d:bb:6e:00:3d:4a:ba:0e:52:54:a5:09:b6:ae:68:
                    56:f5:d0:64:ad:91:dd:dd:49:8d:c1:81:b7:d3:b9:
                    25:ab:6e:54:b8:9a:61:98:07:c3:07:76:d4:05:6c:
                    04:2e:8e:12:49:4a:01:bc:85:98:a6:66:ad:5f:87:
                    67:50:03:50:6f:01:47:4d:2f:eb:4e:09:e9:16:9d:
                    d7:17:4b:20:60:c5:d4:e8:45:15:d7:cb:e0:50:91:
                    4a:3d:eb:ab:59:11:c9:67:3b:18:c5:f7:64:9a:32:
                    b7:f6:53
                Exponent: 65537 (0x10001)
        X509v3 extensions:
            X509v3 Basic Constraints: 
                CA:FALSE
            Netscape Comment: 
                Easy-RSA Generated Certificate
            X509v3 Subject Key Identifier: 
                05:D6:63:F0:B3:61:72:3D:18:46:71:BA:0B:51:87:F7:FF:39:F1:46
            X509v3 Authority Key Identifier: 
                keyid:12:CD:60:04:D2:A0:80:9E:70:ED:C6:99:B8:7B:2C:C6:52:FD:19:A1
                DirName:/C=US/ST=OH/L=Columbus/O=VikingVPN/OU=MyOrganizationalUnit/CN=VikingVPN CA/name=EasyRSA/emailAddress=me@myhost.mydomain
                serial:CF:35:85:EE:80:BF:2A:3E

            X509v3 Extended Key Usage: 
                TLS Web Client Authentication
            X509v3 Key Usage: 
                Digital Signature
    Signature Algorithm: sha256WithRSAEncryption
         78:ff:bc:ea:69:38:c4:84:a1:9f:1e:77:62:0e:06:30:c4:0b:
         bc:b8:f0:87:84:c7:41:60:8e:b9:5b:ed:4a:f7:c9:d0:2c:e5:
         ac:e6:36:e1:66:26:34:78:19:a5:74:b0:70:8c:8c:1a:6b:09:
         9d:5d:a9:db:94:84:49:8c:ca:a4:25:b1:86:82:44:32:d5:5c:
         ea:6c:06:74:c8:3b:4f:c7:22:53:d6:a7:bb:e4:46:3a:85:1f:
         b7:b2:0d:23:e9:c4:a7:2e:c6:bd:c3:f7:86:f8:3d:ee:bf:74:
         00:06:64:47:3b:e7:9a:dc:5a:ae:dd:a9:67:df:42:7c:96:8c:
         76:9f:ca:f1:81:d2:5d:70:a6:cb:04:6b:e8:cd:8b:8c:f6:a0:
         ab:04:a9:ed:30:96:48:6c:59:3d:0e:63:8c:76:e2:83:ff:56:
         45:f4:a2:ce:70:df:62:ea:5f:c2:39:03:4d:dd:2d:16:3e:63:
         e0:20:63:7d:1b:b9:7b:51:36:f6:27:57:42:82:da:d8:88:30:
         5c:19:20:a4:6e:74:e6:e1:7e:d6:69:42:fc:0f:93:f7:8e:86:
         81:64:fb:8c:94:a6:5f:d7:2a:46:3d:79:97:0f:33:07:0b:eb:
         72:be:a0:8b:82:5c:3f:f2:bb:1a:67:46:4e:33:8d:b4:d2:db:
         d4:01:0a:b3:44:de:12:f3:9c:5b:24:1a:ba:db:e5:3d:12:5f:
         75:78:77:ad:c0:39:19:8a:a8:e0:fa:a8:65:e2:e3:3d:a5:63:
         5e:34:1e:59:f5:71:38:96:5f:ee:03:7b:8e:75:c0:5c:78:d6:
         3f:a3:e8:16:a4:f9:e1:f6:33:f1:09:b9:fb:f9:1a:73:fe:1a:
         a2:6e:25:d4:6d:75:55:d8:b9:40:c4:8b:7a:3a:8e:78:f7:6c:
         d4:be:16:a3:a3:87:85:57:55:a5:f1:7c:13:4f:41:bb:95:1b:
         7d:4f:bf:06:c7:5b:1e:40:f2:3a:18:12:fd:ea:c0:76:ce:67:
         04:08:69:e8:10:37:30:2a:f6:b3:40:92:1e:75:cc:c8:b2:3c:
         5d:18:ea:c7:47:3b:21:28:43:a6:a9:85:4f:0f:f0:c0:39:a3:
         b4:1e:17:7a:52:a0:f8:2a:d7:5f:e8:e0:93:58:75:f9:06:4d:
         f6:39:89:e8:8b:fd:4a:7f:ce:e3:a0:da:a7:15:44:c7:47:8e:
         5e:62:9a:8c:08:ec:66:8e:90:46:e2:b1:63:d2:67:4b:be:02:
         e1:60:a6:34:86:d7:dd:ae:ab:1a:45:29:fa:2a:64:9b:19:44:
         01:f8:9b:08:c6:54:fb:2d:e6:f4:ce:eb:d6:74:1c:ed:ea:b5:
         22:62:f3:6a:82:86:01:2a
-----BEGIN CERTIFICATE-----
MIIGrTCCBJWgAwIBAgICMe8wDQYJKoZIhvcNAQELBQAwgawxCzAJBgNVBAYTAlVT
MQswCQYDVQQIEwJPSDERMA8GA1UEBxMIQ29sdW1idXMxEjAQBgNVBAoTCVZpa2lu
Z1ZQTjEdMBsGA1UECxMUTXlPcmdhbml6YXRpb25hbFVuaXQxFTATBgNVBAMTDFZp
a2luZ1ZQTiBDQTEQMA4GA1UEKRMHRWFzeVJTQTEhMB8GCSqGSIb3DQEJARYSbWVA
bXlob3N0Lm15ZG9tYWluMB4XDTE4MDMyMzE5NDczMFoXDTI4MDMyMDE5NDczMFow
HzEdMBsGA1UEAxMUQ2xpZW50MjkxOUNlcnQwMzg3OTUwggIiMA0GCSqGSIb3DQEB
AQUAA4ICDwAwggIKAoICAQDHCjIX4uXJBAhQjWrh241cAQPD4iMr84risx4iHVe4
kCl0sUEQSCTCQPMNyCRlwsOMRuKu7pPXcypF2dcjvbDqiOP562q2dwxWc66fX0yH
kG6vjd34NjkvKymW/HkwKSt4bI2M30NvnXn2r5y38ZGHFu9NDnJGVT3Eabd5GIRx
fOaUiS+FuNRAS/s6cBFepAX4ic3usp/JQxxCOfXTAcaegdRkiUhPH7I5lxOrZsAX
bh+kMJiCYHx3DaOzRYpCSTGN4fy9iqNlkhcoUwKIhDAYbFWl6YDVTNnGE8x4i/kf
ZlH8pGwUMtuAcsSBbbwWKcoNFx9vQGpbmaiICi+HxTRCHzrA5Zlq1I6yj+q34Xm1
udsMACT0vrPJFnWH/XGjHo6mQj4KKKKCbZHmks5squhx0FaLWGPBQf/gvoM3RNrh
aezID7zqN/L8+fgtk497ucr29KMrudT1i3XQW654kMSEqHJKeFDgurW+SeY67nzU
RfP1sPH/lXsRC8HzNHVxdElaSN5zORX2fQQlqiPX7QTSSd8dpB27bgA9SroOUlSl
CbauaFb10GStkd3dSY3BgbfTuSWrblS4mmGYB8MHdtQFbAQujhJJSgG8hZimZq1f
h2dQA1BvAUdNL+tOCekWndcXSyBgxdToRRXXy+BQkUo966tZEclnOxjF92SaMrf2
UwIDAQABo4IBYzCCAV8wCQYDVR0TBAIwADAtBglghkgBhvhCAQ0EIBYeRWFzeS1S
U0EgR2VuZXJhdGVkIENlcnRpZmljYXRlMB0GA1UdDgQWBBQF1mPws2FyPRhGcboL
UYf3/znxRjCB4QYDVR0jBIHZMIHWgBQSzWAE0qCAnnDtxpm4eyzGUv0ZoaGBsqSB
rzCBrDELMAkGA1UEBhMCVVMxCzAJBgNVBAgTAk9IMREwDwYDVQQHEwhDb2x1bWJ1
czESMBAGA1UEChMJVmlraW5nVlBOMR0wGwYDVQQLExRNeU9yZ2FuaXphdGlvbmFs
VW5pdDEVMBMGA1UEAxMMVmlraW5nVlBOIENBMRAwDgYDVQQpEwdFYXN5UlNBMSEw
HwYJKoZIhvcNAQkBFhJtZUBteWhvc3QubXlkb21haW6CCQDPNYXugL8qPjATBgNV
HSUEDDAKBggrBgEFBQcDAjALBgNVHQ8EBAMCB4AwDQYJKoZIhvcNAQELBQADggIB
AHj/vOppOMSEoZ8ed2IOBjDEC7y48IeEx0Fgjrlb7Ur3ydAs5azmNuFmJjR4GaV0
sHCMjBprCZ1dqduUhEmMyqQlsYaCRDLVXOpsBnTIO0/HIlPWp7vkRjqFH7eyDSPp
xKcuxr3D94b4Pe6/dAAGZEc755rcWq7dqWffQnyWjHafyvGB0l1wpssEa+jNi4z2
oKsEqe0wlkhsWT0OY4x24oP/VkX0os5w32LqX8I5A03dLRY+Y+AgY30buXtRNvYn
V0KC2tiIMFwZIKRudObhftZpQvwPk/eOhoFk+4yUpl/XKkY9eZcPMwcL63K+oIuC
XD/yuxpnRk4zjbTS29QBCrNE3hLznFskGrrb5T0SX3V4d63AORmKqOD6qGXi4z2l
Y140Hln1cTiWX+4De451wFx41j+j6Bak+eH2M/EJufv5GnP+GqJuJdRtdVXYuUDE
i3o6jnj3bNS+FqOjh4VXVaXxfBNPQbuVG31PvwbHWx5A8joYEv3qwHbOZwQIaegQ
NzAq9rNAkh51zMiyPF0Y6sdHOyEoQ6aphU8P8MA5o7QeF3pSoPgq11/o4JNYdfkG
TfY5ieiL/Up/zuOg2qcVRMdHjl5imowI7GaOkEbisWPSZ0u+AuFgpjSG192uqxpF
KfoqZJsZRAH4mwjGVPst5vTO69Z0HO3qtSJi82qChgEq
-----END CERTIFICATE-----
