Certificate:
    Data:
        Version: 3 (0x2)
        Serial Number: 9759 (0x261f)
    Signature Algorithm: sha256WithRSAEncryption
        Issuer: C=US, ST=OH, L=Columbus, O=VikingVPN, OU=MyOrganizationalUnit, CN=VikingVPN CA/name=EasyRSA/emailAddress=me@myhost.mydomain
        Validity
            Not Before: Dec 26 02:56:09 2016 GMT
            Not After : Dec 24 02:56:09 2026 GMT
        Subject: CN=Client2655Certf774ee
        Subject Public Key Info:
            Public Key Algorithm: rsaEncryption
                Public-Key: (4096 bit)
                Modulus:
                    00:a3:37:ef:34:9f:0c:2a:f7:cc:68:35:8f:2c:db:
                    fc:fb:3f:7b:a1:f8:90:66:22:4d:55:d1:46:89:c4:
                    b1:2a:d8:b3:87:42:53:ab:fb:b7:e1:93:34:78:8b:
                    0c:8e:3a:9e:b1:d7:41:7f:78:12:b7:7c:2e:59:0a:
                    a2:d5:d9:54:83:e8:d9:48:5f:92:08:99:68:ce:e3:
                    33:d9:88:9c:63:82:4d:9c:77:c9:e5:ee:4f:2e:bc:
                    4b:e3:a8:0f:a8:4d:76:37:a6:3c:35:65:d1:fc:c3:
                    f8:02:2d:0a:d9:9e:d0:8a:ae:f8:13:24:61:c5:dd:
                    23:e1:1f:8d:79:3e:ea:c7:81:da:90:c6:6c:7b:a2:
                    56:58:1e:c6:43:c1:51:92:16:ce:17:00:eb:30:df:
                    a6:91:d2:8a:26:ae:d5:1d:ff:a5:ba:43:b5:8e:e9:
                    40:19:f8:3c:2c:5c:9b:3d:2a:ae:bb:67:d3:f7:cc:
                    87:f9:d5:2e:1e:21:57:cc:d2:2c:54:b8:b9:a7:16:
                    40:48:0a:e9:44:58:61:e7:6a:90:08:2a:c0:7f:cd:
                    88:a6:6f:54:31:ac:8b:0e:3a:4a:8b:5a:c7:07:d8:
                    4f:99:aa:6c:30:5d:b7:14:11:fc:da:7a:a0:8f:67:
                    e5:4b:44:10:cb:94:4e:50:f9:5b:3d:39:9d:37:0c:
                    3a:4c:11:f8:8f:3d:69:6a:3b:c8:42:33:74:9a:c7:
                    6c:c5:e7:60:6c:de:55:70:61:87:89:0a:40:58:05:
                    70:b2:61:df:9c:eb:23:fd:23:3f:44:1b:37:40:8b:
                    f4:c9:6f:b6:94:34:a8:5c:e1:f6:5e:79:f4:ec:fd:
                    a1:2a:81:e5:10:af:81:95:b2:51:f8:8f:b5:02:72:
                    de:96:ab:4d:4d:34:0b:c3:f2:69:5c:08:6f:ad:ae:
                    30:33:92:df:77:49:e1:72:dc:69:01:0f:97:be:b0:
                    21:e8:07:ee:5f:00:32:b5:7d:93:1d:06:4c:22:93:
                    2a:e9:5d:91:3d:0b:3d:94:f7:7b:bd:3f:7c:ba:dd:
                    4f:06:b9:7d:0c:21:ce:70:e9:e3:02:67:7b:95:c2:
                    14:88:d3:9a:56:28:15:25:02:38:b8:7a:c2:31:87:
                    1a:f0:d1:a6:84:eb:9e:07:6c:5e:34:df:04:d4:c4:
                    a5:e6:a9:7b:3a:16:7b:1b:2f:2b:71:1e:46:50:a3:
                    42:77:23:6a:f0:6d:dc:48:7d:2d:ae:66:c0:6f:a9:
                    ad:36:86:34:f5:af:b4:0e:49:df:93:e6:86:e1:0f:
                    df:97:38:a8:da:b3:2a:04:ff:c8:07:8d:19:a9:f5:
                    53:9a:f4:1c:9e:cb:c3:4f:2b:ee:a2:4e:08:21:a9:
                    51:18:2d
                Exponent: 65537 (0x10001)
        X509v3 extensions:
            X509v3 Basic Constraints: 
                CA:FALSE
            Netscape Comment: 
                Easy-RSA Generated Certificate
            X509v3 Subject Key Identifier: 
                1B:C7:14:D7:62:A4:38:B2:60:06:35:FE:29:64:7E:E7:71:F3:C6:D2
            X509v3 Authority Key Identifier: 
                keyid:12:CD:60:04:D2:A0:80:9E:70:ED:C6:99:B8:7B:2C:C6:52:FD:19:A1
                DirName:/C=US/ST=OH/L=Columbus/O=VikingVPN/OU=MyOrganizationalUnit/CN=VikingVPN CA/name=EasyRSA/emailAddress=me@myhost.mydomain
                serial:CF:35:85:EE:80:BF:2A:3E

            X509v3 Extended Key Usage: 
                TLS Web Client Authentication
            X509v3 Key Usage: 
                Digital Signature
    Signature Algorithm: sha256WithRSAEncryption
         73:b1:7c:70:e0:14:3f:5f:d9:cf:cc:47:25:36:a4:89:f2:51:
         f0:af:f6:59:f6:6d:5f:74:58:73:1b:e1:4e:5d:77:b1:99:0a:
         34:25:cc:86:8c:0e:22:be:d0:e0:e7:fe:35:d9:1b:b8:27:bd:
         30:0d:f1:df:69:53:7e:28:55:5f:8f:6d:fb:56:c0:de:3b:32:
         08:d9:f1:cb:26:e1:fe:ee:11:11:fc:cc:d9:e0:84:fc:ed:66:
         40:b6:24:fd:6f:1c:90:ab:92:fa:71:c8:9d:d8:19:6b:56:df:
         3e:67:1d:17:09:3f:13:2a:31:89:31:18:2d:3d:f6:5b:e4:5e:
         fe:40:9e:9d:e1:31:9d:c2:6c:8e:5c:45:12:3c:b2:bb:63:84:
         b4:f1:1f:25:52:75:85:44:7d:b4:f7:f3:c4:72:a3:7b:6a:72:
         b2:6b:9f:e1:98:37:7d:8d:e5:da:85:ed:f8:3f:63:41:88:65:
         a2:71:18:7c:35:80:76:fa:06:36:a6:27:0d:b8:e8:3e:c2:1a:
         b6:d5:b2:d0:d4:01:1f:93:73:ad:f0:b0:b7:c3:23:25:ae:34:
         3d:e9:b8:f7:96:fa:44:79:04:71:ab:5a:5a:89:af:af:4b:60:
         61:04:39:fa:7d:49:8d:9d:85:b1:d7:81:bf:3f:d5:fd:a4:5c:
         08:13:ae:d6:5b:fe:2e:38:cd:2a:00:32:78:43:cd:19:56:01:
         5d:54:74:38:9b:b8:e0:15:5e:0d:3a:c6:84:a2:fa:c9:f8:92:
         88:ce:7e:85:4a:a4:51:09:b0:d1:f2:96:bb:b2:d3:d1:3c:fd:
         a8:f3:f3:c6:7c:79:57:2f:9d:b0:c1:4d:27:1e:78:26:2e:d9:
         44:1a:b2:ec:e6:8f:55:bf:7a:ea:ad:16:b0:02:c0:af:66:54:
         98:d9:5d:95:ea:ab:51:9b:8c:68:ec:2f:0e:ef:84:e8:56:6f:
         3b:8e:cf:c0:55:a2:69:bc:f1:74:0f:b8:39:cb:38:76:7c:6c:
         f9:62:17:0a:3a:ec:03:f2:68:f3:08:cf:0a:45:d3:c9:00:29:
         6b:b2:6d:73:0c:3a:d0:1c:43:50:ad:ac:9c:f4:55:a3:9e:70:
         29:4e:32:b9:91:23:a5:2f:fc:b2:c5:61:06:b4:bf:3d:ca:66:
         8a:13:b2:d1:35:5a:08:2d:69:13:70:d9:f1:42:34:ed:53:cd:
         17:51:10:c1:6e:bf:58:06:44:bc:41:e9:bc:59:56:41:9e:01:
         48:6e:fd:9e:68:fd:2d:28:53:c7:01:d3:51:54:a0:82:0b:25:
         05:18:ec:3f:2f:3b:38:48:c4:f7:cf:40:20:94:82:9e:99:64:
         c9:ab:60:c3:78:36:ad:76
-----BEGIN CERTIFICATE-----
MIIGrTCCBJWgAwIBAgICJh8wDQYJKoZIhvcNAQELBQAwgawxCzAJBgNVBAYTAlVT
MQswCQYDVQQIEwJPSDERMA8GA1UEBxMIQ29sdW1idXMxEjAQBgNVBAoTCVZpa2lu
Z1ZQTjEdMBsGA1UECxMUTXlPcmdhbml6YXRpb25hbFVuaXQxFTATBgNVBAMTDFZp
a2luZ1ZQTiBDQTEQMA4GA1UEKRMHRWFzeVJTQTEhMB8GCSqGSIb3DQEJARYSbWVA
bXlob3N0Lm15ZG9tYWluMB4XDTE2MTIyNjAyNTYwOVoXDTI2MTIyNDAyNTYwOVow
HzEdMBsGA1UEAxMUQ2xpZW50MjY1NUNlcnRmNzc0ZWUwggIiMA0GCSqGSIb3DQEB
AQUAA4ICDwAwggIKAoICAQCjN+80nwwq98xoNY8s2/z7P3uh+JBmIk1V0UaJxLEq
2LOHQlOr+7fhkzR4iwyOOp6x10F/eBK3fC5ZCqLV2VSD6NlIX5IImWjO4zPZiJxj
gk2cd8nl7k8uvEvjqA+oTXY3pjw1ZdH8w/gCLQrZntCKrvgTJGHF3SPhH415PurH
gdqQxmx7olZYHsZDwVGSFs4XAOsw36aR0oomrtUd/6W6Q7WO6UAZ+DwsXJs9Kq67
Z9P3zIf51S4eIVfM0ixUuLmnFkBICulEWGHnapAIKsB/zYimb1QxrIsOOkqLWscH
2E+ZqmwwXbcUEfzaeqCPZ+VLRBDLlE5Q+Vs9OZ03DDpMEfiPPWlqO8hCM3Sax2zF
52Bs3lVwYYeJCkBYBXCyYd+c6yP9Iz9EGzdAi/TJb7aUNKhc4fZeefTs/aEqgeUQ
r4GVslH4j7UCct6Wq01NNAvD8mlcCG+trjAzkt93SeFy3GkBD5e+sCHoB+5fADK1
fZMdBkwikyrpXZE9Cz2U93u9P3y63U8GuX0MIc5w6eMCZ3uVwhSI05pWKBUlAji4
esIxhxrw0aaE654HbF403wTUxKXmqXs6FnsbLytxHkZQo0J3I2rwbdxIfS2uZsBv
qa02hjT1r7QOSd+T5obhD9+XOKjasyoE/8gHjRmp9VOa9Byey8NPK+6iTgghqVEY
LQIDAQABo4IBYzCCAV8wCQYDVR0TBAIwADAtBglghkgBhvhCAQ0EIBYeRWFzeS1S
U0EgR2VuZXJhdGVkIENlcnRpZmljYXRlMB0GA1UdDgQWBBQbxxTXYqQ4smAGNf4p
ZH7ncfPG0jCB4QYDVR0jBIHZMIHWgBQSzWAE0qCAnnDtxpm4eyzGUv0ZoaGBsqSB
rzCBrDELMAkGA1UEBhMCVVMxCzAJBgNVBAgTAk9IMREwDwYDVQQHEwhDb2x1bWJ1
czESMBAGA1UEChMJVmlraW5nVlBOMR0wGwYDVQQLExRNeU9yZ2FuaXphdGlvbmFs
VW5pdDEVMBMGA1UEAxMMVmlraW5nVlBOIENBMRAwDgYDVQQpEwdFYXN5UlNBMSEw
HwYJKoZIhvcNAQkBFhJtZUBteWhvc3QubXlkb21haW6CCQDPNYXugL8qPjATBgNV
HSUEDDAKBggrBgEFBQcDAjALBgNVHQ8EBAMCB4AwDQYJKoZIhvcNAQELBQADggIB
AHOxfHDgFD9f2c/MRyU2pInyUfCv9ln2bV90WHMb4U5dd7GZCjQlzIaMDiK+0ODn
/jXZG7gnvTAN8d9pU34oVV+PbftWwN47MgjZ8csm4f7uERH8zNnghPztZkC2JP1v
HJCrkvpxyJ3YGWtW3z5nHRcJPxMqMYkxGC099lvkXv5Anp3hMZ3CbI5cRRI8srtj
hLTxHyVSdYVEfbT388Ryo3tqcrJrn+GYN32N5dqF7fg/Y0GIZaJxGHw1gHb6Bjam
Jw246D7CGrbVstDUAR+Tc63wsLfDIyWuND3puPeW+kR5BHGrWlqJr69LYGEEOfp9
SY2dhbHXgb8/1f2kXAgTrtZb/i44zSoAMnhDzRlWAV1UdDibuOAVXg06xoSi+sn4
kojOfoVKpFEJsNHylruy09E8/ajz88Z8eVcvnbDBTSceeCYu2UQasuzmj1W/euqt
FrACwK9mVJjZXZXqq1GbjGjsLw7vhOhWbzuOz8BVomm88XQPuDnLOHZ8bPliFwo6
7APyaPMIzwpF08kAKWuybXMMOtAcQ1CtrJz0VaOecClOMrmRI6Uv/LLFYQa0vz3K
ZooTstE1WggtaRNw2fFCNO1TzRdREMFuv1gGRLxB6bxZVkGeAUhu/Z5o/S0oU8cB
01FUoIILJQUY7D8vOzhIxPfPQCCUgp6ZZMmrYMN4Nq12
-----END CERTIFICATE-----
