Certificate:
    Data:
        Version: 3 (0x2)
        Serial Number: 6045 (0x179d)
    Signature Algorithm: md5WithRSAEncryption
        Issuer: C=US, ST=OH, L=Columbus, O=VikingVPN, OU=MyOrganizationalUnit, CN=VikingVPN CA/name=EasyRSA/emailAddress=me@myhost.mydomain
        Validity
            Not Before: Aug 10 11:37:51 2015 GMT
            Not After : Aug  7 11:37:51 2025 GMT
        Subject: CN=Client1889Cert07806e
        Subject Public Key Info:
            Public Key Algorithm: rsaEncryption
                Public-Key: (4096 bit)
                Modulus:
                    00:c9:01:66:85:09:80:b5:9d:1c:c9:e1:35:5f:8e:
                    8f:12:df:9e:71:00:eb:e0:04:b7:d0:79:af:f3:80:
                    59:32:84:1d:66:f2:5f:eb:8f:c7:71:40:84:cd:96:
                    14:41:ec:f8:68:2b:03:2a:7d:ac:99:f1:2f:8c:62:
                    ae:16:3d:97:65:bf:c2:03:e7:39:32:26:35:44:9a:
                    13:f2:64:f8:70:c7:d4:11:c5:85:e9:f9:f3:d5:11:
                    c3:f8:a8:47:4a:78:4d:31:50:c6:72:f7:2f:7c:2f:
                    fd:8d:63:fe:37:41:ff:2b:f5:05:bd:00:1e:1f:17:
                    bf:5e:15:0f:ea:e5:f7:a8:9d:dc:03:f9:1c:ea:4b:
                    5a:ac:15:0e:88:07:55:dc:b4:b1:82:6d:8f:10:ce:
                    de:11:ff:98:aa:97:41:fe:a3:c5:59:33:b7:70:9d:
                    5c:63:26:a5:13:07:2b:e3:56:4d:c6:eb:8b:fc:be:
                    09:2b:3e:9c:b2:da:2e:ce:2b:77:9b:95:67:ec:8d:
                    5e:83:83:db:62:06:24:d4:49:fe:01:2a:bf:93:9c:
                    60:b1:e0:73:91:ba:2f:72:04:38:4d:f8:dd:a8:7e:
                    2b:e2:a3:f9:17:4a:eb:d8:81:39:05:50:38:10:74:
                    8b:43:88:52:0a:3a:db:f6:c2:a9:c2:08:4a:02:0b:
                    e1:d1:20:7f:8f:64:af:02:7b:33:99:47:ed:00:39:
                    2a:c4:23:c8:0b:a0:d0:97:2a:55:8f:ce:04:c9:58:
                    0e:23:09:55:be:9e:8b:a2:f9:2b:ab:c2:81:c0:f6:
                    32:a5:84:aa:de:95:98:a9:0b:46:f8:a1:16:c8:26:
                    38:b0:0e:fa:13:46:51:87:7e:ce:5a:c0:b1:1f:bd:
                    4d:a7:4e:26:40:23:20:b5:87:6f:ef:9e:9b:4a:43:
                    aa:a8:70:0d:2b:80:8f:28:26:9e:83:81:46:52:b0:
                    9f:ef:d3:86:f9:a2:5a:99:dd:7e:7d:76:ae:34:37:
                    1e:0d:e2:c0:f3:24:9e:19:68:65:a5:8d:21:7c:a0:
                    2a:c4:02:a4:b4:87:84:98:dd:c7:ff:0f:10:b6:6f:
                    38:d6:0e:b7:d0:7c:34:3f:0a:e4:f2:1d:82:7f:60:
                    4f:65:45:68:63:ee:06:9a:ce:7d:23:bb:31:a4:d5:
                    eb:b7:40:15:84:28:75:df:1a:64:db:6d:ce:00:ba:
                    79:9c:b7:d1:19:5d:08:6e:36:66:e7:0c:29:bf:cd:
                    fe:b0:0a:92:4a:d0:f9:84:5e:8e:d6:94:21:82:23:
                    99:9c:32:7f:76:54:05:88:68:7c:63:2e:f1:75:45:
                    d7:e9:a5:34:4c:f5:b9:5e:bf:98:28:4a:d8:75:0c:
                    45:41:db
                Exponent: 65537 (0x10001)
        X509v3 extensions:
            X509v3 Basic Constraints: 
                CA:FALSE
            Netscape Comment: 
                Easy-RSA Generated Certificate
            X509v3 Subject Key Identifier: 
                46:17:28:8E:20:D8:8E:7B:53:9E:6E:5C:23:1A:FA:73:CE:14:19:8C
            X509v3 Authority Key Identifier: 
                keyid:12:CD:60:04:D2:A0:80:9E:70:ED:C6:99:B8:7B:2C:C6:52:FD:19:A1
                DirName:/C=US/ST=OH/L=Columbus/O=VikingVPN/OU=MyOrganizationalUnit/CN=VikingVPN CA/name=EasyRSA/emailAddress=me@myhost.mydomain
                serial:CF:35:85:EE:80:BF:2A:3E

            X509v3 Extended Key Usage: 
                TLS Web Client Authentication
            X509v3 Key Usage: 
                Digital Signature
    Signature Algorithm: md5WithRSAEncryption
         85:8b:a8:a1:1e:16:88:79:4f:0d:6e:56:d1:07:c5:cd:fc:d1:
         c8:d6:ce:a8:a0:c2:8a:44:1a:68:81:b3:74:ff:66:01:0a:e2:
         90:b8:98:1e:57:14:0b:9f:46:cb:35:87:46:29:fe:28:0f:30:
         d6:d5:a4:84:3e:f6:48:54:ec:43:63:1b:17:a0:18:69:e2:a0:
         cb:1a:98:20:cb:e1:d4:a3:61:48:ba:88:a2:07:b7:12:ab:4c:
         1e:c9:11:b8:f1:a6:73:e3:c4:ef:d9:66:a5:da:2d:62:83:f7:
         16:db:2a:61:86:95:4a:5d:ee:e6:93:2b:4a:67:fc:60:2a:e8:
         20:ed:26:c3:e2:bc:1d:1c:c3:9e:b9:27:0a:5f:ef:26:ea:b0:
         a7:0b:b1:aa:df:a6:e9:75:26:58:09:af:6f:c5:8a:af:ab:b2:
         43:7d:77:4b:d7:95:bf:e6:f7:3d:b6:9f:af:9c:7c:6a:b6:9d:
         db:17:b8:79:08:33:50:ad:02:65:71:79:4a:7c:da:e5:d9:5a:
         bf:8e:4b:39:ac:a8:75:66:8b:60:6b:32:15:90:61:ab:59:53:
         87:96:97:80:89:c6:c4:39:12:2d:38:6b:db:79:b5:62:9d:8e:
         62:f6:0b:34:ef:35:1a:75:b4:d8:e8:ef:18:47:22:af:e0:92:
         fb:cf:9c:d2:f7:7b:4f:61:61:5b:ef:24:ec:29:a9:77:9b:6c:
         54:57:43:c5:4d:18:7f:62:54:0c:c0:97:7e:60:65:a5:60:57:
         31:12:d3:f5:02:f8:44:39:9e:fc:0f:d1:09:8a:92:7f:22:e5:
         30:a0:b7:f6:15:66:4d:9b:4e:a3:4b:f2:f7:cf:99:ac:e0:d9:
         6d:80:2e:76:5e:3d:62:70:4b:91:6e:10:26:04:80:17:7d:2b:
         df:f4:2a:c1:c5:d1:30:a7:5f:0b:dd:2d:cd:8e:42:7a:ea:c2:
         39:6c:b5:d6:df:59:c5:f0:df:04:58:b2:35:0b:af:21:1a:c9:
         9f:da:1d:10:16:18:0d:fc:43:f3:c1:65:44:27:69:52:73:e7:
         34:dc:b9:61:93:1e:9e:0b:b4:3a:4f:bf:d4:50:87:cf:d1:cb:
         4a:2d:ee:88:4f:13:04:c3:cd:c2:44:24:9e:3f:80:47:fb:ad:
         15:ac:bd:5c:91:a4:10:b2:c2:16:4f:dc:33:94:9d:f4:63:48:
         cd:c4:b8:ca:bd:fa:0f:4c:c3:bd:34:0e:4c:d8:d9:76:3c:78:
         45:1a:e2:68:99:13:4d:52:df:5a:28:c9:f8:c6:d3:3b:f9:da:
         3f:78:dc:6a:fe:fc:c3:e2:a9:81:c8:c4:a1:bc:24:33:73:f5:
         ed:59:a1:83:20:e5:f7:6e
-----BEGIN CERTIFICATE-----
MIIGrTCCBJWgAwIBAgICF50wDQYJKoZIhvcNAQEEBQAwgawxCzAJBgNVBAYTAlVT
MQswCQYDVQQIEwJPSDERMA8GA1UEBxMIQ29sdW1idXMxEjAQBgNVBAoTCVZpa2lu
Z1ZQTjEdMBsGA1UECxMUTXlPcmdhbml6YXRpb25hbFVuaXQxFTATBgNVBAMTDFZp
a2luZ1ZQTiBDQTEQMA4GA1UEKRMHRWFzeVJTQTEhMB8GCSqGSIb3DQEJARYSbWVA
bXlob3N0Lm15ZG9tYWluMB4XDTE1MDgxMDExMzc1MVoXDTI1MDgwNzExMzc1MVow
HzEdMBsGA1UEAxMUQ2xpZW50MTg4OUNlcnQwNzgwNmUwggIiMA0GCSqGSIb3DQEB
AQUAA4ICDwAwggIKAoICAQDJAWaFCYC1nRzJ4TVfjo8S355xAOvgBLfQea/zgFky
hB1m8l/rj8dxQITNlhRB7PhoKwMqfayZ8S+MYq4WPZdlv8ID5zkyJjVEmhPyZPhw
x9QRxYXp+fPVEcP4qEdKeE0xUMZy9y98L/2NY/43Qf8r9QW9AB4fF79eFQ/q5feo
ndwD+RzqS1qsFQ6IB1XctLGCbY8Qzt4R/5iql0H+o8VZM7dwnVxjJqUTByvjVk3G
64v8vgkrPpyy2i7OK3eblWfsjV6Dg9tiBiTUSf4BKr+TnGCx4HORui9yBDhN+N2o
fivio/kXSuvYgTkFUDgQdItDiFIKOtv2wqnCCEoCC+HRIH+PZK8CezOZR+0AOSrE
I8gLoNCXKlWPzgTJWA4jCVW+noui+SurwoHA9jKlhKrelZipC0b4oRbIJjiwDvoT
RlGHfs5awLEfvU2nTiZAIyC1h2/vnptKQ6qocA0rgI8oJp6DgUZSsJ/v04b5olqZ
3X59dq40Nx4N4sDzJJ4ZaGWljSF8oCrEAqS0h4SY3cf/DxC2bzjWDrfQfDQ/CuTy
HYJ/YE9lRWhj7gaazn0juzGk1eu3QBWEKHXfGmTbbc4Aunmct9EZXQhuNmbnDCm/
zf6wCpJK0PmEXo7WlCGCI5mcMn92VAWIaHxjLvF1RdfppTRM9blev5goSth1DEVB
2wIDAQABo4IBYzCCAV8wCQYDVR0TBAIwADAtBglghkgBhvhCAQ0EIBYeRWFzeS1S
U0EgR2VuZXJhdGVkIENlcnRpZmljYXRlMB0GA1UdDgQWBBRGFyiOINiOe1Oeblwj
GvpzzhQZjDCB4QYDVR0jBIHZMIHWgBQSzWAE0qCAnnDtxpm4eyzGUv0ZoaGBsqSB
rzCBrDELMAkGA1UEBhMCVVMxCzAJBgNVBAgTAk9IMREwDwYDVQQHEwhDb2x1bWJ1
czESMBAGA1UEChMJVmlraW5nVlBOMR0wGwYDVQQLExRNeU9yZ2FuaXphdGlvbmFs
VW5pdDEVMBMGA1UEAxMMVmlraW5nVlBOIENBMRAwDgYDVQQpEwdFYXN5UlNBMSEw
HwYJKoZIhvcNAQkBFhJtZUBteWhvc3QubXlkb21haW6CCQDPNYXugL8qPjATBgNV
HSUEDDAKBggrBgEFBQcDAjALBgNVHQ8EBAMCB4AwDQYJKoZIhvcNAQEEBQADggIB
AIWLqKEeFoh5Tw1uVtEHxc380cjWzqigwopEGmiBs3T/ZgEK4pC4mB5XFAufRss1
h0Yp/igPMNbVpIQ+9khU7ENjGxegGGnioMsamCDL4dSjYUi6iKIHtxKrTB7JEbjx
pnPjxO/ZZqXaLWKD9xbbKmGGlUpd7uaTK0pn/GAq6CDtJsPivB0cw565Jwpf7ybq
sKcLsarfpul1JlgJr2/Fiq+rskN9d0vXlb/m9z22n6+cfGq2ndsXuHkIM1CtAmVx
eUp82uXZWr+OSzmsqHVmi2BrMhWQYatZU4eWl4CJxsQ5Ei04a9t5tWKdjmL2CzTv
NRp1tNjo7xhHIq/gkvvPnNL3e09hYVvvJOwpqXebbFRXQ8VNGH9iVAzAl35gZaVg
VzES0/UC+EQ5nvwP0QmKkn8i5TCgt/YVZk2bTqNL8vfPmazg2W2ALnZePWJwS5Fu
ECYEgBd9K9/0KsHF0TCnXwvdLc2OQnrqwjlstdbfWcXw3wRYsjULryEayZ/aHRAW
GA38Q/PBZUQnaVJz5zTcuWGTHp4LtDpPv9RQh8/Ry0ot7ohPEwTDzcJEJJ4/gEf7
rRWsvVyRpBCywhZP3DOUnfRjSM3EuMq9+g9Mw700DkzY2XY8eEUa4miZE01S31oo
yfjG0zv52j943Gr+/MPiqYHIxKG8JDNz9e1ZoYMg5fdu
-----END CERTIFICATE-----
