Certificate:
    Data:
        Version: 3 (0x2)
        Serial Number: 4466 (0x1172)
    Signature Algorithm: md5WithRSAEncryption
        Issuer: C=US, ST=OH, L=Columbus, O=VikingVPN, OU=MyOrganizationalUnit, CN=VikingVPN CA/name=EasyRSA/emailAddress=me@myhost.mydomain
        Validity
            Not Before: Feb 15 16:55:57 2015 GMT
            Not After : Feb 12 16:55:57 2025 GMT
        Subject: CN=Client1Cert3141c0
        Subject Public Key Info:
            Public Key Algorithm: rsaEncryption
                Public-Key: (4096 bit)
                Modulus:
                    00:c5:9f:81:dc:16:3f:a6:99:53:9f:75:64:23:0d:
                    7a:08:aa:27:54:9c:da:49:b0:b2:87:00:58:a0:51:
                    8c:b9:60:76:48:ab:6c:ff:30:bd:8e:56:5f:22:4f:
                    94:b7:9a:b4:6c:70:86:9e:0b:fa:bd:c1:a0:e6:db:
                    56:6e:3c:e5:77:6d:7d:11:3d:c1:2f:1f:1b:29:4a:
                    25:ba:ff:83:de:cb:6f:e5:0e:2a:5e:d7:79:de:3a:
                    74:91:45:74:0a:0c:6a:7c:01:e4:d4:8b:45:40:4c:
                    8f:9e:1b:b3:f8:d4:53:bd:cd:e9:80:a6:36:ff:c2:
                    26:91:62:f4:c1:b9:ec:af:73:d6:57:60:de:8f:10:
                    7b:1c:e4:9a:48:53:42:25:03:f5:ec:ee:1e:aa:6a:
                    8c:dd:a5:93:06:5d:5f:4a:77:c9:61:a0:ee:c8:8a:
                    d8:4a:8b:12:43:72:80:40:6c:23:e1:08:e5:df:f0:
                    f6:34:3c:1f:fa:d9:5c:59:88:52:4d:1c:ce:dc:32:
                    d8:08:5e:83:4c:cd:11:c1:5e:b3:e0:d8:eb:5d:8b:
                    0f:be:1d:82:33:fe:86:1f:fd:5e:44:1e:6c:cf:ca:
                    fd:9c:64:58:16:7a:11:66:2f:dd:3f:ef:da:17:79:
                    75:44:47:1f:a2:b8:b7:71:e9:34:e6:0a:86:70:62:
                    d9:67:f8:bd:9d:1d:24:79:70:cc:ef:c2:e6:96:b9:
                    d0:c9:d7:8f:a2:bf:fe:2f:ca:07:ad:8f:af:36:b7:
                    3d:e9:62:2b:ce:4d:0d:ca:d3:4e:28:1d:6b:e2:9d:
                    7d:c2:0d:52:cd:90:d1:b0:f0:55:88:e8:b2:5a:c0:
                    67:a2:a0:0c:c4:69:e8:84:24:ae:b0:4a:2a:a8:90:
                    d4:38:a8:f5:b5:25:3a:82:41:fd:42:e5:05:78:0d:
                    d4:67:db:4c:42:bb:48:e7:83:61:b2:ca:0e:e6:21:
                    f3:0d:4a:b5:22:35:70:62:b9:d1:49:7b:98:2e:01:
                    f6:ca:cf:89:0b:7a:96:ef:4e:ab:01:84:13:59:4f:
                    7c:fd:27:f7:e3:0c:60:6f:af:f6:60:89:0a:db:80:
                    b8:b9:77:47:b5:d3:7f:a6:47:11:a2:b0:bc:93:3b:
                    94:24:16:fe:4d:27:61:48:6f:df:ac:41:1a:6c:86:
                    ce:30:7a:5e:0b:54:53:9b:6f:0d:ea:3a:a3:1e:7e:
                    ec:df:27:5d:2c:19:f2:a8:eb:28:86:16:0a:14:2a:
                    21:3a:82:3f:c7:be:bc:22:66:3d:47:9e:7e:e4:e6:
                    1c:e6:7e:14:f2:25:f1:60:7c:fb:b9:28:30:19:30:
                    f3:7d:ec:37:98:d2:c6:84:3c:fd:9c:d6:38:8c:48:
                    b3:c5:1d
                Exponent: 65537 (0x10001)
        X509v3 extensions:
            X509v3 Basic Constraints: 
                CA:FALSE
            Netscape Comment: 
                Easy-RSA Generated Certificate
            X509v3 Subject Key Identifier: 
                30:3E:21:02:D3:92:6C:9C:3A:86:78:93:CF:4B:38:7B:28:2E:21:84
            X509v3 Authority Key Identifier: 
                keyid:12:CD:60:04:D2:A0:80:9E:70:ED:C6:99:B8:7B:2C:C6:52:FD:19:A1
                DirName:/C=US/ST=OH/L=Columbus/O=VikingVPN/OU=MyOrganizationalUnit/CN=VikingVPN CA/name=EasyRSA/emailAddress=me@myhost.mydomain
                serial:CF:35:85:EE:80:BF:2A:3E

            X509v3 Extended Key Usage: 
                TLS Web Client Authentication
            X509v3 Key Usage: 
                Digital Signature
    Signature Algorithm: md5WithRSAEncryption
         30:8e:6f:fd:1d:a1:90:c7:9c:b7:54:ea:2f:c4:4c:f1:1e:da:
         be:bd:32:8e:f7:5b:f0:6f:d6:62:12:b8:9f:23:02:e1:af:89:
         f3:9c:38:66:74:63:9f:c2:5e:a2:2e:cc:61:69:c0:8c:9e:6c:
         83:e3:b3:5a:12:56:26:c1:84:42:be:47:e6:04:53:1b:e1:83:
         bb:e5:e6:4a:81:11:72:1b:0f:4a:d7:a5:2c:8a:d7:59:bd:50:
         d2:f4:d8:68:f5:36:8b:ed:9d:49:45:b7:91:c6:c1:80:50:81:
         4b:72:e2:3b:39:87:c3:7e:94:4c:ad:e5:6b:54:db:5b:7d:58:
         8a:5c:5c:73:54:33:aa:01:8b:8a:22:c6:42:60:5d:5c:87:70:
         49:36:90:7b:0b:1d:67:73:f9:43:27:21:c0:cc:df:80:b2:e6:
         44:54:1e:4a:84:9f:8c:18:12:d9:5d:a9:21:03:cf:fb:b2:67:
         f3:79:ce:2d:aa:ea:51:e6:42:4e:78:28:ce:62:a4:76:40:7f:
         41:cd:b5:eb:1c:72:cf:92:9a:d7:ff:96:26:ea:10:25:5c:99:
         fd:31:f3:85:92:b6:cd:c2:bb:73:d9:d4:45:59:c4:e5:66:b7:
         9e:57:02:65:1b:28:e0:8e:81:7c:3c:e9:15:12:55:9f:c4:7b:
         42:f6:4c:98:23:29:c8:2f:b8:04:b4:69:75:d2:84:d0:5c:5a:
         52:5a:f9:2b:b8:d3:ed:7c:20:40:ce:e2:30:7e:e9:0f:aa:7f:
         67:97:61:93:9c:01:e2:9f:65:ab:e3:56:da:f7:0d:e3:22:97:
         b6:4e:ab:d4:fb:f3:9d:4a:b5:d4:f2:74:73:61:bc:d1:62:31:
         8b:35:93:8d:25:32:af:b9:4c:b3:b9:1f:e3:3c:d0:e5:87:65:
         a1:a3:7e:7a:6f:78:4e:cb:2f:1d:68:5e:05:8c:18:d9:2e:34:
         5d:2c:95:22:85:19:86:29:d8:a1:65:75:cc:49:78:06:5a:ee:
         be:a8:d6:e0:f9:9b:e8:22:bd:7d:8f:a3:e5:a3:fd:92:8a:2d:
         b3:6b:7a:58:25:6d:63:92:2a:97:e9:6a:b5:e0:f0:f1:ed:f8:
         cc:73:fc:cb:63:06:a2:77:06:b0:c4:a6:cf:d9:7d:88:9a:f5:
         93:69:07:b3:c9:90:fa:62:ac:43:22:87:41:de:97:70:59:c6:
         8e:e5:9e:d3:c1:39:45:c8:33:34:55:9f:09:7d:52:ac:fd:21:
         87:ff:6a:1e:91:5a:a9:fb:e2:09:44:98:90:df:b4:d6:21:13:
         89:79:79:af:45:c5:10:2e:39:1a:c9:69:6b:d4:b5:37:fa:0b:
         46:fa:61:6d:8c:bc:d3:b4
-----BEGIN CERTIFICATE-----
MIIGqjCCBJKgAwIBAgICEXIwDQYJKoZIhvcNAQEEBQAwgawxCzAJBgNVBAYTAlVT
MQswCQYDVQQIEwJPSDERMA8GA1UEBxMIQ29sdW1idXMxEjAQBgNVBAoTCVZpa2lu
Z1ZQTjEdMBsGA1UECxMUTXlPcmdhbml6YXRpb25hbFVuaXQxFTATBgNVBAMTDFZp
a2luZ1ZQTiBDQTEQMA4GA1UEKRMHRWFzeVJTQTEhMB8GCSqGSIb3DQEJARYSbWVA
bXlob3N0Lm15ZG9tYWluMB4XDTE1MDIxNTE2NTU1N1oXDTI1MDIxMjE2NTU1N1ow
HDEaMBgGA1UEAxMRQ2xpZW50MUNlcnQzMTQxYzAwggIiMA0GCSqGSIb3DQEBAQUA
A4ICDwAwggIKAoICAQDFn4HcFj+mmVOfdWQjDXoIqidUnNpJsLKHAFigUYy5YHZI
q2z/ML2OVl8iT5S3mrRscIaeC/q9waDm21ZuPOV3bX0RPcEvHxspSiW6/4Pey2/l
Dipe13neOnSRRXQKDGp8AeTUi0VATI+eG7P41FO9zemApjb/wiaRYvTBueyvc9ZX
YN6PEHsc5JpIU0IlA/Xs7h6qaozdpZMGXV9Kd8lhoO7IithKixJDcoBAbCPhCOXf
8PY0PB/62VxZiFJNHM7cMtgIXoNMzRHBXrPg2Otdiw++HYIz/oYf/V5EHmzPyv2c
ZFgWehFmL90/79oXeXVERx+iuLdx6TTmCoZwYtln+L2dHSR5cMzvwuaWudDJ14+i
v/4vygetj682tz3pYivOTQ3K004oHWvinX3CDVLNkNGw8FWI6LJawGeioAzEaeiE
JK6wSiqokNQ4qPW1JTqCQf1C5QV4DdRn20xCu0jng2Gyyg7mIfMNSrUiNXBiudFJ
e5guAfbKz4kLepbvTqsBhBNZT3z9J/fjDGBvr/ZgiQrbgLi5d0e103+mRxGisLyT
O5QkFv5NJ2FIb9+sQRpshs4wel4LVFObbw3qOqMefuzfJ10sGfKo6yiGFgoUKiE6
gj/HvrwiZj1Hnn7k5hzmfhTyJfFgfPu5KDAZMPN97DeY0saEPP2c1jiMSLPFHQID
AQABo4IBYzCCAV8wCQYDVR0TBAIwADAtBglghkgBhvhCAQ0EIBYeRWFzeS1SU0Eg
R2VuZXJhdGVkIENlcnRpZmljYXRlMB0GA1UdDgQWBBQwPiEC05JsnDqGeJPPSzh7
KC4hhDCB4QYDVR0jBIHZMIHWgBQSzWAE0qCAnnDtxpm4eyzGUv0ZoaGBsqSBrzCB
rDELMAkGA1UEBhMCVVMxCzAJBgNVBAgTAk9IMREwDwYDVQQHEwhDb2x1bWJ1czES
MBAGA1UEChMJVmlraW5nVlBOMR0wGwYDVQQLExRNeU9yZ2FuaXphdGlvbmFsVW5p
dDEVMBMGA1UEAxMMVmlraW5nVlBOIENBMRAwDgYDVQQpEwdFYXN5UlNBMSEwHwYJ
KoZIhvcNAQkBFhJtZUBteWhvc3QubXlkb21haW6CCQDPNYXugL8qPjATBgNVHSUE
DDAKBggrBgEFBQcDAjALBgNVHQ8EBAMCB4AwDQYJKoZIhvcNAQEEBQADggIBADCO
b/0doZDHnLdU6i/ETPEe2r69Mo73W/Bv1mISuJ8jAuGvifOcOGZ0Y5/CXqIuzGFp
wIyebIPjs1oSVibBhEK+R+YEUxvhg7vl5kqBEXIbD0rXpSyK11m9UNL02Gj1Novt
nUlFt5HGwYBQgUty4js5h8N+lEyt5WtU21t9WIpcXHNUM6oBi4oixkJgXVyHcEk2
kHsLHWdz+UMnIcDM34Cy5kRUHkqEn4wYEtldqSEDz/uyZ/N5zi2q6lHmQk54KM5i
pHZAf0HNtesccs+Smtf/libqECVcmf0x84WSts3Cu3PZ1EVZxOVmt55XAmUbKOCO
gXw86RUSVZ/Ee0L2TJgjKcgvuAS0aXXShNBcWlJa+Su40+18IEDO4jB+6Q+qf2eX
YZOcAeKfZavjVtr3DeMil7ZOq9T7851KtdTydHNhvNFiMYs1k40lMq+5TLO5H+M8
0OWHZaGjfnpveE7LLx1oXgWMGNkuNF0slSKFGYYp2KFldcxJeAZa7r6o1uD5m+gi
vX2Po+Wj/ZKKLbNrelglbWOSKpfparXg8PHt+Mxz/MtjBqJ3BrDEps/ZfYia9ZNp
B7PJkPpirEMih0Hel3BZxo7lntPBOUXIMzRVnwl9Uqz9IYf/ah6RWqn74glEmJDf
tNYhE4l5ea9FxRAuORrJaWvUtTf6C0b6YW2MvNO0
-----END CERTIFICATE-----
