Certificate:
    Data:
        Version: 3 (0x2)
        Serial Number: 10938 (0x2aba)
    Signature Algorithm: sha256WithRSAEncryption
        Issuer: C=US, ST=OH, L=Columbus, O=VikingVPN, OU=MyOrganizationalUnit, CN=VikingVPN CA/name=EasyRSA/emailAddress=me@myhost.mydomain
        Validity
            Not Before: May 14 00:24:06 2017 GMT
            Not After : May 12 00:24:06 2027 GMT
        Subject: CN=Client1804Certb7b3de
        Subject Public Key Info:
            Public Key Algorithm: rsaEncryption
                Public-Key: (4096 bit)
                Modulus:
                    00:bf:60:69:a1:93:49:9a:c0:92:fc:59:dd:ae:79:
                    d0:52:01:e9:60:70:05:af:f9:3c:e6:86:39:ee:14:
                    83:94:24:cc:c0:76:3e:20:fb:b6:83:a3:a7:c1:c7:
                    d5:b7:ef:21:69:33:80:85:e3:4d:12:76:aa:dd:4e:
                    09:70:84:34:40:9a:33:d3:f9:41:8e:9e:9b:7d:6e:
                    6d:89:ba:ed:92:a0:5b:c8:29:1f:d4:4d:56:24:ed:
                    7d:3f:cc:a0:bb:5d:ce:ac:cb:11:4b:d3:db:89:1c:
                    86:7b:65:03:09:c3:6d:a1:dc:b8:65:b4:b3:cd:e6:
                    e9:22:d4:8c:a8:17:63:b4:80:ab:07:e1:95:b1:7c:
                    90:30:d1:b9:ac:0b:10:9a:4b:82:63:eb:bb:fe:9e:
                    da:05:b4:b4:65:fc:71:0a:84:b3:6b:07:a8:0b:7a:
                    13:ec:44:d2:5c:76:e3:29:c9:73:ed:72:55:c5:52:
                    3f:74:61:fd:32:ad:1b:87:98:64:36:16:a2:35:b6:
                    0f:40:68:13:ee:ec:d6:d6:3b:6d:06:e7:96:88:b9:
                    b6:75:62:b8:55:ee:18:7a:d9:24:f4:05:93:7a:20:
                    65:53:a9:e6:8d:62:22:ec:b2:c2:41:c1:8d:c1:9b:
                    62:c3:8c:a2:50:20:3c:c1:cb:82:0e:cc:db:d3:e9:
                    c0:ae:25:07:2b:8e:65:25:99:70:5c:b0:d6:f5:fe:
                    b6:9d:66:1d:59:13:db:05:ba:f2:cd:e4:de:fd:a7:
                    7a:2e:c5:99:e7:fa:a1:e3:dc:ff:f6:fa:02:ef:c4:
                    c4:d0:17:77:98:dc:03:36:4e:41:9e:eb:14:c6:ef:
                    df:6b:ce:81:3c:1e:92:9f:d5:fa:c8:b3:06:18:0b:
                    96:67:fc:76:a1:73:26:04:76:21:f3:fb:38:6b:a8:
                    f5:ec:97:40:6c:c9:07:a9:74:2b:a1:11:28:ca:f1:
                    c4:f9:3f:d1:92:56:72:7a:32:35:b0:ee:ba:12:d7:
                    1d:41:be:e2:64:5a:df:c8:a2:6f:90:b0:4a:d2:96:
                    9c:08:a2:a4:d3:fe:83:72:17:83:4a:e2:c2:47:83:
                    25:e0:3e:a8:38:18:74:9f:10:62:8b:7f:db:c5:79:
                    43:63:e6:9d:68:d7:40:a7:9c:78:40:37:64:3d:9f:
                    b3:03:01:50:5c:95:2f:83:00:59:b9:61:af:60:7a:
                    9b:67:4d:a9:3a:9c:5c:b2:78:f7:de:0f:a0:1c:bd:
                    59:87:09:b9:3c:e4:de:06:6b:2b:84:8e:f5:cf:d1:
                    23:8e:6a:e1:2d:e0:46:68:3e:5d:50:dd:77:e4:15:
                    46:ca:15:dd:cd:eb:1d:d7:43:8f:69:88:09:b7:1c:
                    6a:9c:1b
                Exponent: 65537 (0x10001)
        X509v3 extensions:
            X509v3 Basic Constraints: 
                CA:FALSE
            Netscape Comment: 
                Easy-RSA Generated Certificate
            X509v3 Subject Key Identifier: 
                94:CA:CE:4C:BD:F1:10:D5:87:D6:6B:B1:8F:29:A0:4C:55:55:EE:80
            X509v3 Authority Key Identifier: 
                keyid:12:CD:60:04:D2:A0:80:9E:70:ED:C6:99:B8:7B:2C:C6:52:FD:19:A1
                DirName:/C=US/ST=OH/L=Columbus/O=VikingVPN/OU=MyOrganizationalUnit/CN=VikingVPN CA/name=EasyRSA/emailAddress=me@myhost.mydomain
                serial:CF:35:85:EE:80:BF:2A:3E

            X509v3 Extended Key Usage: 
                TLS Web Client Authentication
            X509v3 Key Usage: 
                Digital Signature
    Signature Algorithm: sha256WithRSAEncryption
         d9:67:b9:7e:ff:85:e2:57:0b:3e:68:af:83:a7:da:48:f7:65:
         1c:c9:ee:33:14:5e:50:58:fe:19:74:bc:2a:7a:e8:d0:0f:8a:
         3d:14:20:96:ed:91:4a:14:55:c2:b1:b7:23:9e:d6:c4:8e:82:
         88:a6:ed:fb:f9:b3:98:c4:6f:47:40:94:eb:1a:7d:74:27:f6:
         e6:1d:74:16:8e:5f:5e:8d:3d:eb:62:ec:d0:e4:01:39:ff:04:
         8b:3b:95:ad:74:bf:da:ce:22:c6:fe:62:48:a6:68:fd:fb:4c:
         47:9c:21:56:64:6b:f7:43:fb:25:7b:d5:0f:b7:c7:46:90:72:
         0c:7a:df:2b:5e:dc:f3:46:91:eb:c5:75:63:e5:6c:f3:0d:95:
         64:cc:94:fb:3a:a4:f2:4f:cf:2d:27:4d:74:3b:e6:46:2e:48:
         a6:d0:1a:a3:f0:9d:2f:f0:de:4c:7b:3f:95:80:70:9b:21:3a:
         e9:98:ab:92:c5:9b:f6:5a:fc:9e:45:f6:c7:1c:7f:6c:d8:a0:
         56:97:10:20:f6:77:e4:c3:14:75:b9:5c:3d:d4:2e:80:70:ba:
         92:e2:a3:26:4a:e6:07:3e:5f:a4:85:dd:0f:e6:eb:9d:d6:0b:
         d8:8d:c6:94:9c:8b:20:30:4f:0c:94:40:cd:50:ed:a1:71:5b:
         98:9d:89:bb:50:f5:ad:c0:55:6d:3a:06:5f:f4:da:b9:29:e7:
         20:4c:8c:3d:c6:f0:fc:14:f9:b4:f4:ca:86:78:71:89:0a:e9:
         25:81:64:22:dc:a8:ac:c8:6a:b8:5e:53:64:ba:b0:58:9e:d5:
         06:3f:27:a3:5f:e6:11:11:b3:bf:1a:0c:ff:60:05:46:22:85:
         d3:d8:eb:19:b9:e6:6b:9d:77:e7:fe:f7:c3:2c:2f:8e:19:52:
         bb:38:b0:ce:b4:d2:43:76:68:b9:f8:b4:07:48:96:6e:73:79:
         aa:8f:29:ed:f7:9f:e1:09:c8:f3:ef:c7:e3:d5:5c:35:69:58:
         97:e1:bb:32:cc:84:70:d9:c0:7b:3f:c1:dc:26:2a:95:c9:b4:
         9b:54:1f:84:1c:e8:60:43:18:fe:d6:3f:ee:f2:f1:6f:9b:bf:
         ce:2a:49:7e:70:8e:76:f8:8f:ac:94:56:6b:dc:2a:e8:de:3d:
         e7:5b:a6:ac:f5:e1:af:76:3c:f5:8c:ff:14:a2:10:12:ed:2a:
         82:6a:d4:1c:59:73:ce:6a:94:db:33:f9:87:5e:24:ac:c2:4b:
         14:fb:d5:52:7f:55:80:fd:3d:e5:94:13:3e:70:fa:0f:f9:8f:
         1d:e4:dd:50:4b:29:da:9c:78:f5:6d:ec:ee:12:51:fa:75:2d:
         05:c7:97:b8:66:78:1d:57
-----BEGIN CERTIFICATE-----
MIIGrTCCBJWgAwIBAgICKrowDQYJKoZIhvcNAQELBQAwgawxCzAJBgNVBAYTAlVT
MQswCQYDVQQIEwJPSDERMA8GA1UEBxMIQ29sdW1idXMxEjAQBgNVBAoTCVZpa2lu
Z1ZQTjEdMBsGA1UECxMUTXlPcmdhbml6YXRpb25hbFVuaXQxFTATBgNVBAMTDFZp
a2luZ1ZQTiBDQTEQMA4GA1UEKRMHRWFzeVJTQTEhMB8GCSqGSIb3DQEJARYSbWVA
bXlob3N0Lm15ZG9tYWluMB4XDTE3MDUxNDAwMjQwNloXDTI3MDUxMjAwMjQwNlow
HzEdMBsGA1UEAxMUQ2xpZW50MTgwNENlcnRiN2IzZGUwggIiMA0GCSqGSIb3DQEB
AQUAA4ICDwAwggIKAoICAQC/YGmhk0mawJL8Wd2uedBSAelgcAWv+TzmhjnuFIOU
JMzAdj4g+7aDo6fBx9W37yFpM4CF400SdqrdTglwhDRAmjPT+UGOnpt9bm2Juu2S
oFvIKR/UTVYk7X0/zKC7Xc6syxFL09uJHIZ7ZQMJw22h3LhltLPN5uki1IyoF2O0
gKsH4ZWxfJAw0bmsCxCaS4Jj67v+ntoFtLRl/HEKhLNrB6gLehPsRNJcduMpyXPt
clXFUj90Yf0yrRuHmGQ2FqI1tg9AaBPu7NbWO20G55aIubZ1YrhV7hh62ST0BZN6
IGVTqeaNYiLsssJBwY3Bm2LDjKJQIDzBy4IOzNvT6cCuJQcrjmUlmXBcsNb1/rad
Zh1ZE9sFuvLN5N79p3ouxZnn+qHj3P/2+gLvxMTQF3eY3AM2TkGe6xTG799rzoE8
HpKf1frIswYYC5Zn/HahcyYEdiHz+zhrqPXsl0BsyQepdCuhESjK8cT5P9GSVnJ6
MjWw7roS1x1BvuJkWt/Iom+QsErSlpwIoqTT/oNyF4NK4sJHgyXgPqg4GHSfEGKL
f9vFeUNj5p1o10CnnHhAN2Q9n7MDAVBclS+DAFm5Ya9geptnTak6nFyyePfeD6Ac
vVmHCbk85N4GayuEjvXP0SOOauEt4EZoPl1Q3XfkFUbKFd3N6x3XQ49piAm3HGqc
GwIDAQABo4IBYzCCAV8wCQYDVR0TBAIwADAtBglghkgBhvhCAQ0EIBYeRWFzeS1S
U0EgR2VuZXJhdGVkIENlcnRpZmljYXRlMB0GA1UdDgQWBBSUys5MvfEQ1YfWa7GP
KaBMVVXugDCB4QYDVR0jBIHZMIHWgBQSzWAE0qCAnnDtxpm4eyzGUv0ZoaGBsqSB
rzCBrDELMAkGA1UEBhMCVVMxCzAJBgNVBAgTAk9IMREwDwYDVQQHEwhDb2x1bWJ1
czESMBAGA1UEChMJVmlraW5nVlBOMR0wGwYDVQQLExRNeU9yZ2FuaXphdGlvbmFs
VW5pdDEVMBMGA1UEAxMMVmlraW5nVlBOIENBMRAwDgYDVQQpEwdFYXN5UlNBMSEw
HwYJKoZIhvcNAQkBFhJtZUBteWhvc3QubXlkb21haW6CCQDPNYXugL8qPjATBgNV
HSUEDDAKBggrBgEFBQcDAjALBgNVHQ8EBAMCB4AwDQYJKoZIhvcNAQELBQADggIB
ANlnuX7/heJXCz5or4On2kj3ZRzJ7jMUXlBY/hl0vCp66NAPij0UIJbtkUoUVcKx
tyOe1sSOgoim7fv5s5jEb0dAlOsafXQn9uYddBaOX16NPeti7NDkATn/BIs7la10
v9rOIsb+YkimaP37TEecIVZka/dD+yV71Q+3x0aQcgx63yte3PNGkevFdWPlbPMN
lWTMlPs6pPJPzy0nTXQ75kYuSKbQGqPwnS/w3kx7P5WAcJshOumYq5LFm/Za/J5F
9sccf2zYoFaXECD2d+TDFHW5XD3ULoBwupLioyZK5gc+X6SF3Q/m653WC9iNxpSc
iyAwTwyUQM1Q7aFxW5idibtQ9a3AVW06Bl/02rkp5yBMjD3G8PwU+bT0yoZ4cYkK
6SWBZCLcqKzIarheU2S6sFie1QY/J6Nf5hERs78aDP9gBUYihdPY6xm55mudd+f+
98MsL44ZUrs4sM600kN2aLn4tAdIlm5zeaqPKe33n+EJyPPvx+PVXDVpWJfhuzLM
hHDZwHs/wdwmKpXJtJtUH4Qc6GBDGP7WP+7y8W+bv84qSX5wjnb4j6yUVmvcKuje
Pedbpqz14a92PPWM/xSiEBLtKoJq1BxZc85qlNsz+YdeJKzCSxT71VJ/VYD9PeWU
Ez5w+g/5jx3k3VBLKdqcePVt7O4SUfp1LQXHl7hmeB1X
-----END CERTIFICATE-----
