Certificate:
    Data:
        Version: 3 (0x2)
        Serial Number: 2887 (0xb47)
    Signature Algorithm: md5WithRSAEncryption
        Issuer: C=US, ST=OH, L=Columbus, O=VikingVPN, OU=MyOrganizationalUnit, CN=VikingVPN CA/name=EasyRSA/emailAddress=me@myhost.mydomain
        Validity
            Not Before: Sep 18 15:41:05 2014 GMT
            Not After : Sep 15 15:41:05 2024 GMT
        Subject: CN=Client994Certc5f3f3
        Subject Public Key Info:
            Public Key Algorithm: rsaEncryption
                Public-Key: (4096 bit)
                Modulus:
                    00:cb:f0:08:58:e4:e9:03:58:5c:5b:01:33:6e:7e:
                    d8:26:df:c6:90:e2:20:81:c4:76:e7:7e:9b:dd:eb:
                    1f:e5:d3:89:f3:ad:c4:78:ce:58:d6:ab:75:01:80:
                    ab:65:99:b5:f3:94:9a:e0:c7:18:53:39:27:90:49:
                    fe:c6:e7:cf:12:9a:ef:9e:c3:43:59:54:f1:97:bc:
                    ad:19:c0:c2:75:55:52:5c:e0:a8:8c:8f:06:58:0f:
                    25:14:07:db:02:00:c0:d0:95:61:8b:c9:32:c4:48:
                    ae:bc:15:60:f5:7c:21:a8:6d:5d:f7:28:d8:71:fa:
                    0f:f1:80:25:9d:5d:69:22:85:75:1b:ee:2e:de:6c:
                    31:5d:01:33:b3:a7:27:0c:ad:15:91:16:df:bb:e6:
                    f4:e7:66:bd:06:88:0a:4f:7e:ee:8f:74:53:ce:d7:
                    21:52:98:7d:a9:11:7a:e7:5e:b0:06:82:12:58:4e:
                    4b:66:96:10:e0:16:b1:9d:3a:d5:07:f1:81:0a:d4:
                    b1:78:76:1b:42:b2:c4:b7:c4:02:87:6d:48:ba:42:
                    1e:f9:9a:39:99:8d:34:6c:c6:9d:b8:43:2a:a2:77:
                    1f:4b:2e:8c:db:5c:7a:36:ba:09:2a:e8:af:e1:42:
                    28:9b:bb:07:03:be:97:d2:1b:fd:1f:33:ff:3f:10:
                    69:f2:d8:f9:09:22:df:a3:71:36:7a:ac:02:b3:ba:
                    7d:e5:9e:e1:5d:59:4b:3d:2f:27:6c:d3:10:8b:c4:
                    2e:99:cb:a7:b7:61:e2:5b:e8:eb:24:2a:e5:dc:c0:
                    3f:61:6a:e8:39:8a:23:7a:e0:16:81:7a:03:5c:67:
                    e8:c6:5f:47:7a:83:79:14:51:22:ac:05:2f:25:8e:
                    e4:46:02:a6:7b:df:61:0a:63:96:60:ce:26:d7:1d:
                    fa:9d:16:e8:86:58:b4:10:a5:0f:bb:c1:ee:43:46:
                    04:0b:4c:e6:77:fd:c7:2b:46:76:6c:a7:70:a3:61:
                    89:41:df:4e:b1:f0:11:26:ec:51:45:c5:0d:fb:20:
                    be:64:72:8d:51:53:f3:25:11:c9:a5:00:55:d3:d4:
                    c1:a1:9d:7e:80:3f:3a:5f:9d:20:15:80:35:bf:c7:
                    8e:6e:50:1c:47:dd:82:21:f2:ac:68:13:e2:ce:ea:
                    86:c4:ee:5d:40:76:ab:1d:5d:1b:84:d6:17:6b:6a:
                    fc:4b:9d:e9:00:ac:3f:7a:92:45:8a:ae:01:c9:9d:
                    a8:57:72:40:88:35:9f:22:38:0a:7c:2e:ed:10:d8:
                    8d:30:71:4e:ba:74:79:f6:01:bc:c2:cd:52:fb:b0:
                    0c:4d:60:0f:34:b9:6e:9a:4f:e8:34:1d:a9:8e:36:
                    e6:af:e9
                Exponent: 65537 (0x10001)
        X509v3 extensions:
            X509v3 Basic Constraints: 
                CA:FALSE
            Netscape Comment: 
                Easy-RSA Generated Certificate
            X509v3 Subject Key Identifier: 
                6F:75:5B:92:ED:5A:7B:93:B7:9F:0B:5F:99:2B:42:2D:D7:1F:44:E6
            X509v3 Authority Key Identifier: 
                keyid:12:CD:60:04:D2:A0:80:9E:70:ED:C6:99:B8:7B:2C:C6:52:FD:19:A1
                DirName:/C=US/ST=OH/L=Columbus/O=VikingVPN/OU=MyOrganizationalUnit/CN=VikingVPN CA/name=EasyRSA/emailAddress=me@myhost.mydomain
                serial:CF:35:85:EE:80:BF:2A:3E

            X509v3 Extended Key Usage: 
                TLS Web Client Authentication
            X509v3 Key Usage: 
                Digital Signature
    Signature Algorithm: md5WithRSAEncryption
         0c:01:c0:73:f9:46:8f:83:86:9c:c6:72:ae:56:48:99:37:e2:
         71:09:f4:6d:f9:85:30:78:04:48:51:3f:e2:c0:52:d2:0f:94:
         70:c3:25:bc:5e:5a:6b:57:6a:f9:fb:c6:f6:02:01:14:85:7d:
         f6:02:a1:98:bd:c3:76:0f:21:6e:71:92:83:d6:19:64:d2:00:
         87:77:c3:c8:53:76:38:d8:b1:29:bd:92:c8:23:eb:c6:27:d9:
         49:61:6a:4f:a4:08:f9:76:6d:01:08:aa:fe:09:f7:e0:89:7c:
         6a:76:f0:71:b9:32:9d:18:ae:63:81:84:1e:42:ce:1c:32:c9:
         3e:e1:c1:7c:bb:e8:fa:9f:2c:2c:cf:22:3d:dd:6c:cd:35:b5:
         43:17:02:29:da:a9:ae:e7:fe:a7:04:d2:c5:57:44:56:b7:c2:
         03:61:2f:70:60:df:b2:f6:7f:b6:4d:0e:3a:85:9a:94:4f:1d:
         40:5e:96:4b:da:d2:ce:fc:2d:dd:e8:a1:c9:f2:c3:11:1d:b3:
         a1:6d:ec:9f:1b:2f:70:0d:5c:9c:cd:64:2a:b4:cf:37:9d:14:
         6e:51:05:bf:0e:5c:b1:4a:67:6b:f0:94:1f:1c:63:3e:a2:60:
         ad:44:5e:2e:b2:1b:83:84:1c:f8:64:fa:09:e9:a5:f6:db:d6:
         10:49:8a:eb:55:16:10:ff:11:9c:62:02:8a:4a:b6:39:d0:9e:
         ac:b6:42:7f:59:9e:57:0f:dc:10:6a:d7:8e:37:dc:3d:0f:f4:
         6c:45:8f:26:4f:e4:e2:84:c2:6d:e6:88:ad:53:09:ca:a6:65:
         07:ee:85:04:f2:da:18:1e:7c:63:ab:a1:93:73:91:6f:5e:36:
         47:69:c4:a7:b8:da:09:56:41:0a:a7:01:d2:ed:20:13:f9:8e:
         47:b0:77:3b:62:41:da:6f:7f:ed:f0:63:ca:98:bb:55:55:d4:
         fc:29:79:8f:b5:7c:13:64:e3:53:29:bb:02:57:eb:83:52:28:
         06:dd:3a:13:18:fa:e1:b8:01:66:5a:89:dc:3a:91:29:55:a5:
         f4:88:6f:48:de:ee:a5:7a:2e:9e:84:b4:28:19:3b:2e:20:1d:
         59:7b:c5:fb:1f:39:33:49:90:02:7a:4d:95:46:63:ee:ff:ad:
         7b:75:d2:31:09:1a:e2:ee:54:c8:49:83:15:87:7d:a4:c7:14:
         61:50:18:b8:4c:cd:81:f8:13:0e:cb:9e:ba:67:3e:2e:80:fd:
         79:85:ca:ce:0c:38:97:e4:1d:de:96:6e:af:a9:2a:6f:e0:ba:
         a3:b3:b2:01:a1:97:93:ac:c3:47:78:f5:86:70:de:a2:92:dc:
         ba:03:22:36:ea:79:32:b0
-----BEGIN CERTIFICATE-----
MIIGrDCCBJSgAwIBAgICC0cwDQYJKoZIhvcNAQEEBQAwgawxCzAJBgNVBAYTAlVT
MQswCQYDVQQIEwJPSDERMA8GA1UEBxMIQ29sdW1idXMxEjAQBgNVBAoTCVZpa2lu
Z1ZQTjEdMBsGA1UECxMUTXlPcmdhbml6YXRpb25hbFVuaXQxFTATBgNVBAMTDFZp
a2luZ1ZQTiBDQTEQMA4GA1UEKRMHRWFzeVJTQTEhMB8GCSqGSIb3DQEJARYSbWVA
bXlob3N0Lm15ZG9tYWluMB4XDTE0MDkxODE1NDEwNVoXDTI0MDkxNTE1NDEwNVow
HjEcMBoGA1UEAxMTQ2xpZW50OTk0Q2VydGM1ZjNmMzCCAiIwDQYJKoZIhvcNAQEB
BQADggIPADCCAgoCggIBAMvwCFjk6QNYXFsBM25+2CbfxpDiIIHEdud+m93rH+XT
ifOtxHjOWNardQGAq2WZtfOUmuDHGFM5J5BJ/sbnzxKa757DQ1lU8Ze8rRnAwnVV
UlzgqIyPBlgPJRQH2wIAwNCVYYvJMsRIrrwVYPV8IahtXfco2HH6D/GAJZ1daSKF
dRvuLt5sMV0BM7OnJwytFZEW37vm9OdmvQaICk9+7o90U87XIVKYfakReudesAaC
ElhOS2aWEOAWsZ061QfxgQrUsXh2G0KyxLfEAodtSLpCHvmaOZmNNGzGnbhDKqJ3
H0sujNtceja6CSror+FCKJu7BwO+l9Ib/R8z/z8QafLY+Qki36NxNnqsArO6feWe
4V1ZSz0vJ2zTEIvELpnLp7dh4lvo6yQq5dzAP2Fq6DmKI3rgFoF6A1xn6MZfR3qD
eRRRIqwFLyWO5EYCpnvfYQpjlmDOJtcd+p0W6IZYtBClD7vB7kNGBAtM5nf9xytG
dmyncKNhiUHfTrHwESbsUUXFDfsgvmRyjVFT8yURyaUAVdPUwaGdfoA/Ol+dIBWA
Nb/Hjm5QHEfdgiHyrGgT4s7qhsTuXUB2qx1dG4TWF2tq/Eud6QCsP3qSRYquAcmd
qFdyQIg1nyI4Cnwu7RDYjTBxTrp0efYBvMLNUvuwDE1gDzS5bppP6DQdqY425q/p
AgMBAAGjggFjMIIBXzAJBgNVHRMEAjAAMC0GCWCGSAGG+EIBDQQgFh5FYXN5LVJT
QSBHZW5lcmF0ZWQgQ2VydGlmaWNhdGUwHQYDVR0OBBYEFG91W5LtWnuTt58LX5kr
Qi3XH0TmMIHhBgNVHSMEgdkwgdaAFBLNYATSoICecO3Gmbh7LMZS/RmhoYGypIGv
MIGsMQswCQYDVQQGEwJVUzELMAkGA1UECBMCT0gxETAPBgNVBAcTCENvbHVtYnVz
MRIwEAYDVQQKEwlWaWtpbmdWUE4xHTAbBgNVBAsTFE15T3JnYW5pemF0aW9uYWxV
bml0MRUwEwYDVQQDEwxWaWtpbmdWUE4gQ0ExEDAOBgNVBCkTB0Vhc3lSU0ExITAf
BgkqhkiG9w0BCQEWEm1lQG15aG9zdC5teWRvbWFpboIJAM81he6Avyo+MBMGA1Ud
JQQMMAoGCCsGAQUFBwMCMAsGA1UdDwQEAwIHgDANBgkqhkiG9w0BAQQFAAOCAgEA
DAHAc/lGj4OGnMZyrlZImTficQn0bfmFMHgESFE/4sBS0g+UcMMlvF5aa1dq+fvG
9gIBFIV99gKhmL3Ddg8hbnGSg9YZZNIAh3fDyFN2ONixKb2SyCPrxifZSWFqT6QI
+XZtAQiq/gn34Il8anbwcbkynRiuY4GEHkLOHDLJPuHBfLvo+p8sLM8iPd1szTW1
QxcCKdqpruf+pwTSxVdEVrfCA2EvcGDfsvZ/tk0OOoWalE8dQF6WS9rSzvwt3eih
yfLDER2zoW3snxsvcA1cnM1kKrTPN50UblEFvw5csUpna/CUHxxjPqJgrUReLrIb
g4Qc+GT6Ceml9tvWEEmK61UWEP8RnGICikq2OdCerLZCf1meVw/cEGrXjjfcPQ/0
bEWPJk/k4oTCbeaIrVMJyqZlB+6FBPLaGB58Y6uhk3ORb142R2nEp7jaCVZBCqcB
0u0gE/mOR7B3O2JB2m9/7fBjypi7VVXU/Cl5j7V8E2TjUym7Alfrg1IoBt06Exj6
4bgBZlqJ3DqRKVWl9IhvSN7upXounoS0KBk7LiAdWXvF+x85M0mQAnpNlUZj7v+t
e3XSMQka4u5UyEmDFYd9pMcUYVAYuEzNgfgTDsueumc+LoD9eYXKzgw4l+Qd3pZu
r6kqb+C6o7OyAaGXk6zDR3j1hnDeopLcugMiNup5MrA=
-----END CERTIFICATE-----
