Certificate:
    Data:
        Version: 3 (0x2)
        Serial Number: 1540 (0x604)
    Signature Algorithm: md5WithRSAEncryption
        Issuer: C=US, ST=OH, L=Columbus, O=VikingVPN, OU=MyOrganizationalUnit, CN=VikingVPN CA/name=EasyRSA/emailAddress=me@myhost.mydomain
        Validity
            Not Before: Apr 10 01:08:09 2014 GMT
            Not After : Apr  7 01:08:09 2024 GMT
        Subject: CN=Client569Certd73024
        Subject Public Key Info:
            Public Key Algorithm: rsaEncryption
                Public-Key: (4096 bit)
                Modulus:
                    00:bd:c2:bf:49:1a:39:79:78:3f:9e:20:fa:14:94:
                    0b:00:3c:d5:f7:08:83:04:ef:db:5b:ba:74:6f:37:
                    93:b4:bc:54:ed:08:d7:c7:de:29:a8:23:e4:5a:22:
                    9b:49:46:3f:0e:3b:25:b3:be:d0:a6:47:93:d6:cd:
                    45:8f:2e:d7:99:3d:af:e6:36:81:d0:f9:a5:48:d1:
                    71:a0:d3:ca:44:f8:e1:b8:3d:27:59:a8:2a:50:dd:
                    12:8f:07:56:9b:67:49:ca:0c:b2:f8:d9:27:ac:09:
                    f2:88:43:ea:8a:3c:49:a9:53:c5:91:8d:9b:f0:40:
                    1b:ba:1b:ae:22:61:80:18:82:ce:59:21:97:37:2d:
                    f2:72:bf:6a:24:8d:a2:df:dc:e5:6c:18:a1:62:a3:
                    b9:1c:0f:6f:fb:0f:8a:55:81:57:39:22:ed:2d:ba:
                    96:1d:73:e4:43:46:dc:61:d3:81:71:3e:59:87:a8:
                    34:70:9b:7d:31:6e:dd:7b:9e:b3:4a:e0:31:b5:bf:
                    e0:3b:45:2b:86:c2:b0:42:77:ee:6e:dd:ab:12:e8:
                    b8:28:69:6c:c7:f9:9e:f7:cc:12:11:1e:22:de:77:
                    f9:40:04:d2:86:29:0b:19:28:49:38:55:cf:41:0c:
                    f9:6f:11:63:6b:e3:4f:70:c1:f0:ac:27:39:b1:4b:
                    ce:9d:dc:19:b2:c4:cc:ff:92:49:53:fd:57:ec:87:
                    8f:36:4c:83:93:b5:e1:d2:63:f0:00:e0:64:e9:d5:
                    a9:bf:3f:fa:5c:c4:43:c4:60:22:09:0f:ad:f5:62:
                    2d:0e:18:55:3f:eb:25:e1:17:31:20:85:99:79:fd:
                    9a:39:12:c7:a1:a6:5b:49:40:d4:03:4b:94:ef:1d:
                    a1:32:0b:4e:d0:33:65:36:13:3d:b4:37:04:50:b1:
                    01:66:9f:f0:85:13:a5:2b:cf:b0:29:20:12:9e:73:
                    a1:03:bb:60:d6:cd:65:4f:18:51:9c:6d:96:49:7b:
                    e9:ad:d7:0e:62:ca:7f:06:a8:ea:47:6c:b8:60:6b:
                    53:7e:89:c5:da:c1:05:df:d5:6e:89:58:dd:86:15:
                    cd:9a:7c:6e:cd:89:0c:c8:01:77:da:9f:a1:af:36:
                    8c:fb:b3:a0:fa:a5:5e:ed:45:b3:77:77:a7:fb:ee:
                    cc:5e:50:49:3d:e5:c1:02:ed:07:dc:99:2c:61:b2:
                    ba:ff:00:b4:48:94:3c:35:09:26:ee:6b:ca:84:de:
                    71:89:44:c9:fb:68:b5:1d:1c:23:b0:e6:2f:bc:64:
                    2e:aa:d6:e2:1e:9f:e5:53:87:59:a8:16:95:f3:82:
                    5b:75:9d:04:33:10:96:44:95:ea:60:80:8b:c6:f9:
                    db:57:5f
                Exponent: 65537 (0x10001)
        X509v3 extensions:
            X509v3 Basic Constraints: 
                CA:FALSE
            Netscape Comment: 
                Easy-RSA Generated Certificate
            X509v3 Subject Key Identifier: 
                BD:6D:20:A3:7B:13:57:63:B4:F8:E3:D8:B7:6B:25:AA:2C:32:8C:7A
            X509v3 Authority Key Identifier: 
                keyid:12:CD:60:04:D2:A0:80:9E:70:ED:C6:99:B8:7B:2C:C6:52:FD:19:A1
                DirName:/C=US/ST=OH/L=Columbus/O=VikingVPN/OU=MyOrganizationalUnit/CN=VikingVPN CA/name=EasyRSA/emailAddress=me@myhost.mydomain
                serial:CF:35:85:EE:80:BF:2A:3E

            X509v3 Extended Key Usage: 
                TLS Web Client Authentication
            X509v3 Key Usage: 
                Digital Signature
    Signature Algorithm: md5WithRSAEncryption
         72:d0:fc:d7:77:a0:ed:6c:65:d7:4a:1d:38:27:dc:bf:77:01:
         fb:1b:3f:d4:41:d8:26:c7:f9:3a:b4:f9:4f:c5:f2:46:64:65:
         98:44:57:4c:94:cb:4f:4c:59:60:e6:46:b6:22:03:7b:f2:87:
         cf:94:4e:54:23:db:c9:7d:b7:66:f8:bc:7a:ea:d2:4c:d5:c7:
         fd:19:dc:2d:82:bd:6b:77:da:e3:b3:5f:65:7c:c0:72:12:d4:
         33:4e:5b:86:8f:62:22:f5:1f:ce:04:19:5f:6b:4f:23:4d:61:
         7b:68:27:85:9c:43:88:77:e7:59:10:1a:af:5d:ae:cc:1e:5d:
         8f:fd:a5:19:72:36:5b:ab:e0:79:bf:24:44:74:c9:a2:a4:f8:
         2c:82:8f:23:0b:e7:39:32:b2:cb:26:02:9b:97:a4:8f:60:47:
         de:5f:56:47:21:76:2e:1f:a5:92:87:26:b5:c1:42:68:70:4c:
         12:c3:ec:d8:ba:1f:ae:c2:2e:22:aa:1f:5c:2c:7a:6d:be:61:
         13:46:0d:33:87:f3:8c:6b:e9:75:40:85:82:cf:26:47:a2:ff:
         25:41:c4:5b:e3:f2:86:3d:4c:9d:ae:33:10:a5:ff:67:4c:b1:
         ca:d5:6c:c5:dd:ef:b5:db:75:31:0e:16:29:a7:76:a9:43:dc:
         1b:0d:32:08:82:4a:ba:8e:0e:72:fd:82:75:78:0e:a0:91:cb:
         58:e6:28:6c:f5:2d:89:62:fb:d7:4f:ad:a1:4e:ff:12:7b:af:
         65:20:e5:dc:2e:1c:e8:ad:a7:48:77:3a:37:63:c6:28:0a:52:
         e4:3f:cb:f0:60:07:d2:21:1b:8f:06:2c:a7:3d:9d:5a:22:9a:
         e5:59:1f:8b:79:71:d9:15:cc:b0:5e:df:2a:e0:63:bb:a7:35:
         59:17:ba:f1:49:5b:fe:ef:d0:0f:69:4f:34:2d:ae:ad:16:3c:
         66:2d:f2:b8:5a:d4:a9:06:ec:de:fa:27:51:9e:de:44:b1:1f:
         0a:f3:6b:1b:be:14:1d:51:c1:5a:b1:d7:b4:76:e1:90:e9:cc:
         46:4b:df:8d:c7:82:6e:cc:b5:d6:eb:de:6b:97:19:88:0c:cb:
         36:fe:45:d6:b7:33:d5:75:2b:f1:d7:cd:53:a8:42:43:a7:56:
         f9:ba:cd:72:ef:82:1c:7b:bf:25:b1:d3:80:64:da:03:07:e1:
         5d:17:9a:3e:1f:01:31:c7:7e:9f:41:f5:ca:3a:35:4c:b9:fa:
         74:6a:de:ca:ca:89:95:61:5e:66:ae:65:d1:51:62:c9:dc:f7:
         1e:77:e0:77:27:8e:72:55:91:ce:3d:6e:68:c8:3a:8a:84:83:
         aa:63:0b:96:16:35:5b:7e
-----BEGIN CERTIFICATE-----
MIIGrDCCBJSgAwIBAgICBgQwDQYJKoZIhvcNAQEEBQAwgawxCzAJBgNVBAYTAlVT
MQswCQYDVQQIEwJPSDERMA8GA1UEBxMIQ29sdW1idXMxEjAQBgNVBAoTCVZpa2lu
Z1ZQTjEdMBsGA1UECxMUTXlPcmdhbml6YXRpb25hbFVuaXQxFTATBgNVBAMTDFZp
a2luZ1ZQTiBDQTEQMA4GA1UEKRMHRWFzeVJTQTEhMB8GCSqGSIb3DQEJARYSbWVA
bXlob3N0Lm15ZG9tYWluMB4XDTE0MDQxMDAxMDgwOVoXDTI0MDQwNzAxMDgwOVow
HjEcMBoGA1UEAxMTQ2xpZW50NTY5Q2VydGQ3MzAyNDCCAiIwDQYJKoZIhvcNAQEB
BQADggIPADCCAgoCggIBAL3Cv0kaOXl4P54g+hSUCwA81fcIgwTv21u6dG83k7S8
VO0I18feKagj5Foim0lGPw47JbO+0KZHk9bNRY8u15k9r+Y2gdD5pUjRcaDTykT4
4bg9J1moKlDdEo8HVptnScoMsvjZJ6wJ8ohD6oo8SalTxZGNm/BAG7obriJhgBiC
zlkhlzct8nK/aiSNot/c5WwYoWKjuRwPb/sPilWBVzki7S26lh1z5ENG3GHTgXE+
WYeoNHCbfTFu3Xues0rgMbW/4DtFK4bCsEJ37m7dqxLouChpbMf5nvfMEhEeIt53
+UAE0oYpCxkoSThVz0EM+W8RY2vjT3DB8KwnObFLzp3cGbLEzP+SSVP9V+yHjzZM
g5O14dJj8ADgZOnVqb8/+lzEQ8RgIgkPrfViLQ4YVT/rJeEXMSCFmXn9mjkSx6Gm
W0lA1ANLlO8doTILTtAzZTYTPbQ3BFCxAWaf8IUTpSvPsCkgEp5zoQO7YNbNZU8Y
UZxtlkl76a3XDmLKfwao6kdsuGBrU36JxdrBBd/VbolY3YYVzZp8bs2JDMgBd9qf
oa82jPuzoPqlXu1Fs3d3p/vuzF5QST3lwQLtB9yZLGGyuv8AtEiUPDUJJu5ryoTe
cYlEyftotR0cI7DmL7xkLqrW4h6f5VOHWagWlfOCW3WdBDMQlkSV6mCAi8b521df
AgMBAAGjggFjMIIBXzAJBgNVHRMEAjAAMC0GCWCGSAGG+EIBDQQgFh5FYXN5LVJT
QSBHZW5lcmF0ZWQgQ2VydGlmaWNhdGUwHQYDVR0OBBYEFL1tIKN7E1djtPjj2Ldr
JaosMox6MIHhBgNVHSMEgdkwgdaAFBLNYATSoICecO3Gmbh7LMZS/RmhoYGypIGv
MIGsMQswCQYDVQQGEwJVUzELMAkGA1UECBMCT0gxETAPBgNVBAcTCENvbHVtYnVz
MRIwEAYDVQQKEwlWaWtpbmdWUE4xHTAbBgNVBAsTFE15T3JnYW5pemF0aW9uYWxV
bml0MRUwEwYDVQQDEwxWaWtpbmdWUE4gQ0ExEDAOBgNVBCkTB0Vhc3lSU0ExITAf
BgkqhkiG9w0BCQEWEm1lQG15aG9zdC5teWRvbWFpboIJAM81he6Avyo+MBMGA1Ud
JQQMMAoGCCsGAQUFBwMCMAsGA1UdDwQEAwIHgDANBgkqhkiG9w0BAQQFAAOCAgEA
ctD813eg7Wxl10odOCfcv3cB+xs/1EHYJsf5OrT5T8XyRmRlmERXTJTLT0xZYOZG
tiIDe/KHz5ROVCPbyX23Zvi8eurSTNXH/RncLYK9a3fa47NfZXzAchLUM05bho9i
IvUfzgQZX2tPI01he2gnhZxDiHfnWRAar12uzB5dj/2lGXI2W6vgeb8kRHTJoqT4
LIKPIwvnOTKyyyYCm5ekj2BH3l9WRyF2Lh+lkocmtcFCaHBMEsPs2LofrsIuIqof
XCx6bb5hE0YNM4fzjGvpdUCFgs8mR6L/JUHEW+Pyhj1Mna4zEKX/Z0yxytVsxd3v
tdt1MQ4WKad2qUPcGw0yCIJKuo4Ocv2CdXgOoJHLWOYobPUtiWL710+toU7/Enuv
ZSDl3C4c6K2nSHc6N2PGKApS5D/L8GAH0iEbjwYspz2dWiKa5Vkfi3lx2RXMsF7f
KuBju6c1WRe68Ulb/u/QD2lPNC2urRY8Zi3yuFrUqQbs3vonUZ7eRLEfCvNrG74U
HVHBWrHXtHbhkOnMRkvfjceCbsy11uvea5cZiAzLNv5F1rcz1XUr8dfNU6hCQ6dW
+brNcu+CHHu/JbHTgGTaAwfhXReaPh8BMcd+n0H1yjo1TLn6dGreysqJlWFeZq5l
0VFiydz3HnfgdyeOclWRzj1uaMg6ioSDqmMLlhY1W34=
-----END CERTIFICATE-----
