Certificate:
    Data:
        Version: 3 (0x2)
        Serial Number: 4426 (0x114a)
    Signature Algorithm: md5WithRSAEncryption
        Issuer: C=US, ST=OH, L=Columbus, O=VikingVPN, OU=MyOrganizationalUnit, CN=VikingVPN CA/name=EasyRSA/emailAddress=me@myhost.mydomain
        Validity
            Not Before: Feb  8 20:12:28 2015 GMT
            Not After : Feb  5 20:12:28 2025 GMT
        Subject: CN=Client1439Cert983aac
        Subject Public Key Info:
            Public Key Algorithm: rsaEncryption
                Public-Key: (4096 bit)
                Modulus:
                    00:f9:36:f5:4c:5f:7a:15:85:37:13:ef:c1:25:d7:
                    2c:c8:5e:43:fb:37:8e:34:75:26:10:ad:41:7c:1f:
                    ce:c6:55:20:5e:dc:89:91:cf:f8:09:b3:08:ce:78:
                    44:68:fc:c2:39:ff:5e:c7:b7:f2:72:91:0e:99:c6:
                    0d:60:1c:c8:f4:d3:28:03:f2:2f:0a:f2:fb:fb:76:
                    6f:06:f2:d3:8c:82:3d:57:e8:56:a9:19:00:ba:04:
                    b2:4b:e8:92:12:2b:ce:3a:b5:fd:cc:8c:97:2e:c5:
                    47:0d:a2:0a:43:9f:06:4f:60:5a:8e:4d:b1:66:6d:
                    18:cd:7a:8a:bd:25:57:a7:f9:4a:5e:e4:78:82:b9:
                    d7:21:26:2f:51:66:7a:cc:17:6c:7a:7b:9c:12:a7:
                    80:dd:f1:64:1e:b8:6f:9c:f5:50:7c:6d:d6:61:f7:
                    8d:0c:c5:4d:f2:ed:a9:05:8d:20:e4:5d:ec:54:50:
                    1a:cc:dc:dd:5f:4f:a5:14:be:34:80:e0:ac:73:87:
                    e6:dc:bf:aa:89:0f:48:d2:26:3d:eb:04:20:1e:78:
                    f4:68:95:fe:e0:14:e6:92:c0:5d:4a:ca:61:97:64:
                    df:13:32:67:24:8a:cb:d2:8c:8d:e8:84:2e:fe:e9:
                    85:12:29:ec:2d:c1:ed:a5:2a:f7:96:9c:96:26:e3:
                    3c:fe:12:02:64:1a:bc:08:a6:96:ce:0d:e1:8c:a3:
                    5f:bd:98:61:d7:43:db:bb:66:1e:bd:20:23:e9:44:
                    e3:a7:9f:cb:ed:b3:25:a3:2d:71:b3:c6:0f:4d:a2:
                    b2:2e:9d:cd:a9:80:8c:d7:b3:20:72:22:ff:4b:35:
                    00:ef:64:39:9c:75:93:f2:23:a3:7f:6f:59:24:17:
                    ef:44:57:95:0d:76:c4:a5:e5:5a:b4:bd:40:13:37:
                    b7:5d:51:20:7b:08:49:22:b3:12:19:be:7b:63:8a:
                    e2:97:10:7b:eb:ed:e8:0d:7c:18:dd:29:a8:39:c7:
                    3a:df:60:0f:21:87:50:08:63:fb:16:cc:82:78:60:
                    dc:d2:65:df:94:a7:a3:1e:2d:f7:c7:63:ac:55:de:
                    aa:41:7e:55:e3:90:8b:eb:ad:28:e2:56:43:b0:05:
                    a1:9c:d4:c1:4e:d0:b5:9e:83:75:3b:da:42:5a:41:
                    74:4f:07:53:de:e3:84:10:c6:51:de:a8:0d:3d:9f:
                    b3:7d:42:65:53:56:16:04:13:d6:35:cb:cc:f3:23:
                    88:ba:21:35:d6:c0:62:9a:b5:06:4b:3e:57:4c:11:
                    55:95:18:0b:7c:50:f0:5f:ab:70:1d:32:b2:79:95:
                    6a:f7:7c:36:34:69:42:38:7c:c5:ad:41:6a:69:e8:
                    58:81:e9
                Exponent: 65537 (0x10001)
        X509v3 extensions:
            X509v3 Basic Constraints: 
                CA:FALSE
            Netscape Comment: 
                Easy-RSA Generated Certificate
            X509v3 Subject Key Identifier: 
                88:B7:EC:0E:AD:E9:74:E6:01:04:AB:AD:70:8B:0C:45:F3:D6:A3:E4
            X509v3 Authority Key Identifier: 
                keyid:12:CD:60:04:D2:A0:80:9E:70:ED:C6:99:B8:7B:2C:C6:52:FD:19:A1
                DirName:/C=US/ST=OH/L=Columbus/O=VikingVPN/OU=MyOrganizationalUnit/CN=VikingVPN CA/name=EasyRSA/emailAddress=me@myhost.mydomain
                serial:CF:35:85:EE:80:BF:2A:3E

            X509v3 Extended Key Usage: 
                TLS Web Client Authentication
            X509v3 Key Usage: 
                Digital Signature
    Signature Algorithm: md5WithRSAEncryption
         64:11:d7:2e:03:7c:51:93:99:9b:b9:42:e0:e9:ca:ab:b0:4f:
         0a:fe:83:81:ba:e1:ef:3f:1c:a7:da:28:07:72:64:30:53:f4:
         6d:e0:19:33:cd:a1:ea:87:ef:aa:e1:58:b4:c5:ac:b2:7c:ed:
         2a:21:a0:95:77:6a:5f:47:26:d5:65:54:dc:16:b3:fd:17:12:
         dd:4a:8d:60:89:c8:e4:c6:91:2a:60:92:a2:0d:1a:43:39:a9:
         ab:09:c5:c3:ca:2c:aa:cb:79:f1:70:b6:f4:0e:ee:52:80:e0:
         d2:3e:c2:b5:b4:7b:7d:53:92:7f:11:34:ad:0d:c4:7e:49:a6:
         0c:e7:93:a8:6e:e2:51:65:e5:91:68:cc:04:14:31:d3:9b:fa:
         f5:cc:44:af:d8:ee:53:a2:dc:3f:00:44:27:b3:6d:9a:5a:5f:
         9a:1d:ff:fe:53:54:bd:6f:be:d0:37:ed:7a:e6:e9:56:cb:49:
         fd:54:e9:6e:2f:17:f6:73:98:a9:9f:82:c9:ce:ac:18:d4:c0:
         4c:dd:6f:73:98:95:8c:5b:66:8a:cd:28:69:ae:81:3a:96:fe:
         cf:22:a8:7a:81:80:07:7b:a0:6b:e9:16:f6:64:a6:08:04:16:
         3b:af:c8:b7:e2:8f:af:e7:f1:5e:83:66:55:98:68:2d:b2:9a:
         d1:1f:9f:49:6c:0a:19:99:91:83:96:2f:e3:b3:50:cb:68:f0:
         31:0a:92:21:b9:9f:1e:0e:18:4a:02:ce:7d:36:7a:cf:fa:ec:
         b7:ea:b7:87:da:34:c0:21:7c:c5:2b:0e:70:a8:0e:73:34:57:
         af:cb:bc:5b:f5:62:57:60:58:24:6b:b3:7b:26:e0:4d:95:fc:
         5c:f9:66:6e:02:c1:d0:0b:6f:22:f2:dc:50:54:81:b0:13:d8:
         23:f1:d5:d4:fa:fe:56:2d:25:c8:4d:02:87:a8:f6:c5:01:a8:
         69:b8:5f:b4:1c:59:a9:f6:5f:c4:15:b5:b7:a4:bd:5f:25:82:
         3b:38:72:c0:04:44:e2:35:6d:0e:ea:54:dd:92:98:a7:30:03:
         a8:31:e1:07:96:b8:2f:a0:f6:c4:32:30:81:5a:4e:51:bb:07:
         11:c7:b3:0b:a4:80:a7:58:f5:ee:6b:f3:19:46:ba:3c:05:91:
         55:dd:e8:cb:00:90:21:1f:a9:3d:be:9e:65:4b:e5:12:51:41:
         86:dd:48:11:37:0a:2f:2f:c2:d4:b7:f7:e6:19:44:bf:a8:58:
         98:10:42:df:0c:ec:fb:93:4d:dd:0e:51:eb:f4:c2:cb:47:a1:
         5e:45:c6:6b:39:97:42:a4:70:e6:b0:f8:a0:95:d8:d6:c7:e3:
         dd:f8:ab:cc:0a:6f:76:f4
-----BEGIN CERTIFICATE-----
MIIGrTCCBJWgAwIBAgICEUowDQYJKoZIhvcNAQEEBQAwgawxCzAJBgNVBAYTAlVT
MQswCQYDVQQIEwJPSDERMA8GA1UEBxMIQ29sdW1idXMxEjAQBgNVBAoTCVZpa2lu
Z1ZQTjEdMBsGA1UECxMUTXlPcmdhbml6YXRpb25hbFVuaXQxFTATBgNVBAMTDFZp
a2luZ1ZQTiBDQTEQMA4GA1UEKRMHRWFzeVJTQTEhMB8GCSqGSIb3DQEJARYSbWVA
bXlob3N0Lm15ZG9tYWluMB4XDTE1MDIwODIwMTIyOFoXDTI1MDIwNTIwMTIyOFow
HzEdMBsGA1UEAxMUQ2xpZW50MTQzOUNlcnQ5ODNhYWMwggIiMA0GCSqGSIb3DQEB
AQUAA4ICDwAwggIKAoICAQD5NvVMX3oVhTcT78El1yzIXkP7N440dSYQrUF8H87G
VSBe3ImRz/gJswjOeERo/MI5/17Ht/JykQ6Zxg1gHMj00ygD8i8K8vv7dm8G8tOM
gj1X6FapGQC6BLJL6JISK846tf3MjJcuxUcNogpDnwZPYFqOTbFmbRjNeoq9JVen
+Upe5HiCudchJi9RZnrMF2x6e5wSp4Dd8WQeuG+c9VB8bdZh940MxU3y7akFjSDk
XexUUBrM3N1fT6UUvjSA4Kxzh+bcv6qJD0jSJj3rBCAeePRolf7gFOaSwF1KymGX
ZN8TMmckisvSjI3ohC7+6YUSKewtwe2lKveWnJYm4zz+EgJkGrwIppbODeGMo1+9
mGHXQ9u7Zh69ICPpROOnn8vtsyWjLXGzxg9NorIunc2pgIzXsyByIv9LNQDvZDmc
dZPyI6N/b1kkF+9EV5UNdsSl5Vq0vUATN7ddUSB7CEkisxIZvntjiuKXEHvr7egN
fBjdKag5xzrfYA8hh1AIY/sWzIJ4YNzSZd+Up6MeLffHY6xV3qpBflXjkIvrrSji
VkOwBaGc1MFO0LWeg3U72kJaQXRPB1Pe44QQxlHeqA09n7N9QmVTVhYEE9Y1y8zz
I4i6ITXWwGKatQZLPldMEVWVGAt8UPBfq3AdMrJ5lWr3fDY0aUI4fMWtQWpp6FiB
6QIDAQABo4IBYzCCAV8wCQYDVR0TBAIwADAtBglghkgBhvhCAQ0EIBYeRWFzeS1S
U0EgR2VuZXJhdGVkIENlcnRpZmljYXRlMB0GA1UdDgQWBBSIt+wOrel05gEEq61w
iwxF89aj5DCB4QYDVR0jBIHZMIHWgBQSzWAE0qCAnnDtxpm4eyzGUv0ZoaGBsqSB
rzCBrDELMAkGA1UEBhMCVVMxCzAJBgNVBAgTAk9IMREwDwYDVQQHEwhDb2x1bWJ1
czESMBAGA1UEChMJVmlraW5nVlBOMR0wGwYDVQQLExRNeU9yZ2FuaXphdGlvbmFs
VW5pdDEVMBMGA1UEAxMMVmlraW5nVlBOIENBMRAwDgYDVQQpEwdFYXN5UlNBMSEw
HwYJKoZIhvcNAQkBFhJtZUBteWhvc3QubXlkb21haW6CCQDPNYXugL8qPjATBgNV
HSUEDDAKBggrBgEFBQcDAjALBgNVHQ8EBAMCB4AwDQYJKoZIhvcNAQEEBQADggIB
AGQR1y4DfFGTmZu5QuDpyquwTwr+g4G64e8/HKfaKAdyZDBT9G3gGTPNoeqH76rh
WLTFrLJ87SohoJV3al9HJtVlVNwWs/0XEt1KjWCJyOTGkSpgkqINGkM5qasJxcPK
LKrLefFwtvQO7lKA4NI+wrW0e31Tkn8RNK0NxH5Jpgznk6hu4lFl5ZFozAQUMdOb
+vXMRK/Y7lOi3D8ARCezbZpaX5od//5TVL1vvtA37Xrm6VbLSf1U6W4vF/ZzmKmf
gsnOrBjUwEzdb3OYlYxbZorNKGmugTqW/s8iqHqBgAd7oGvpFvZkpggEFjuvyLfi
j6/n8V6DZlWYaC2ymtEfn0lsChmZkYOWL+OzUMto8DEKkiG5nx4OGEoCzn02es/6
7Lfqt4faNMAhfMUrDnCoDnM0V6/LvFv1YldgWCRrs3sm4E2V/Fz5Zm4CwdALbyLy
3FBUgbAT2CPx1dT6/lYtJchNAoeo9sUBqGm4X7QcWan2X8QVtbekvV8lgjs4csAE
ROI1bQ7qVN2SmKcwA6gx4QeWuC+g9sQyMIFaTlG7BxHHswukgKdY9e5r8xlGujwF
kVXd6MsAkCEfqT2+nmVL5RJRQYbdSBE3Ci8vwtS39+YZRL+oWJgQQt8M7PuTTd0O
Uev0wstHoV5Fxms5l0KkcOaw+KCV2NbH4934q8wKb3b0
-----END CERTIFICATE-----
