Certificate:
    Data:
        Version: 3 (0x2)
        Serial Number: 8428 (0x20ec)
    Signature Algorithm: md5WithRSAEncryption
        Issuer: C=US, ST=OH, L=Columbus, O=VikingVPN, OU=MyOrganizationalUnit, CN=VikingVPN CA/name=EasyRSA/emailAddress=me@myhost.mydomain
        Validity
            Not Before: Jul  6 17:13:45 2016 GMT
            Not After : Jul  4 17:13:45 2026 GMT
        Subject: CN=Client2190Cert739341
        Subject Public Key Info:
            Public Key Algorithm: rsaEncryption
                Public-Key: (4096 bit)
                Modulus:
                    00:d1:35:6e:15:d1:cc:0e:9c:7f:ec:d8:3e:dc:ad:
                    c0:dd:5c:9f:d1:cd:86:ce:b6:44:ec:d0:f8:b7:c8:
                    b9:a0:f7:7f:f8:f0:e6:91:71:c1:fd:8f:e7:dd:71:
                    ee:b7:11:3d:3b:f8:f2:ea:92:d4:78:37:a5:90:76:
                    e1:15:08:3c:72:9d:90:9f:01:44:87:eb:58:37:68:
                    27:82:7e:2b:a6:58:e2:96:10:1e:d7:97:3d:d8:b4:
                    85:01:e6:e2:72:ba:6e:35:0a:72:fb:2a:0f:87:96:
                    80:60:75:cb:1d:29:53:e0:15:80:3b:33:cf:f4:f3:
                    97:0c:50:48:97:fb:23:2f:12:0f:32:4d:67:84:df:
                    6d:2f:23:fb:38:9d:9a:8d:90:0b:1f:0f:89:8b:95:
                    b3:72:00:f6:22:15:17:24:c5:fa:5e:f5:f1:25:d4:
                    f7:a8:c5:d0:bb:4f:70:05:67:ff:e7:41:f6:25:fa:
                    6e:32:ec:04:3a:a7:ae:12:ef:9d:e0:95:eb:b2:e6:
                    55:47:18:68:84:16:3b:4a:68:e4:cc:97:61:f1:0b:
                    1c:d7:cb:10:aa:5b:45:9e:46:e3:fc:52:b1:d3:45:
                    d3:c2:1d:ed:05:d4:e1:bd:c4:fc:55:0a:5b:c4:d2:
                    1a:51:13:8c:e5:31:4d:23:85:ac:b4:1d:32:9a:4a:
                    92:75:45:f2:71:c0:ff:8c:f9:83:b5:50:a5:88:51:
                    fb:d3:6f:f9:76:62:9e:70:a4:00:a4:5c:ee:79:01:
                    df:7c:5e:80:0d:fe:ec:25:54:b6:36:a9:6e:d0:2c:
                    a2:0f:a9:95:ad:5e:2d:13:0e:32:f7:41:eb:59:f8:
                    e8:ba:ab:a0:7f:ab:80:c6:cc:c6:5b:f0:22:87:d0:
                    b6:65:ed:1c:52:32:cb:35:22:a4:d6:f3:63:fa:66:
                    80:c1:21:23:66:64:eb:3c:e0:79:fe:3b:55:f6:1d:
                    cc:9a:86:6f:80:65:50:c0:e8:70:26:e7:72:72:48:
                    cb:d6:06:4f:d8:9f:e1:ed:fb:ef:c0:2d:1b:a0:d2:
                    8d:17:ef:e8:57:25:4f:0f:5e:b6:2c:2e:5c:42:99:
                    e9:fb:e0:dd:b1:25:0d:ab:ca:65:49:c2:28:ea:94:
                    0b:ce:5e:5f:a9:69:4c:4b:ba:2a:2d:2a:19:9b:54:
                    96:3c:a8:c4:24:5c:60:9c:01:92:2b:b0:7b:50:c7:
                    e5:33:a9:86:c6:82:9a:2f:b1:7a:34:3f:d9:5e:ed:
                    b3:72:3a:ac:a7:81:81:58:c5:68:96:88:61:d6:5f:
                    a4:9c:0f:81:22:29:93:37:29:a0:3e:97:48:21:19:
                    45:7f:51:3b:27:56:87:7d:57:97:fd:38:35:66:e7:
                    2e:3c:4f
                Exponent: 65537 (0x10001)
        X509v3 extensions:
            X509v3 Basic Constraints: 
                CA:FALSE
            Netscape Comment: 
                Easy-RSA Generated Certificate
            X509v3 Subject Key Identifier: 
                11:EA:F2:F7:DE:A3:90:6E:D7:55:DE:39:68:F6:BD:8D:2A:13:D5:B2
            X509v3 Authority Key Identifier: 
                keyid:12:CD:60:04:D2:A0:80:9E:70:ED:C6:99:B8:7B:2C:C6:52:FD:19:A1
                DirName:/C=US/ST=OH/L=Columbus/O=VikingVPN/OU=MyOrganizationalUnit/CN=VikingVPN CA/name=EasyRSA/emailAddress=me@myhost.mydomain
                serial:CF:35:85:EE:80:BF:2A:3E

            X509v3 Extended Key Usage: 
                TLS Web Client Authentication
            X509v3 Key Usage: 
                Digital Signature
    Signature Algorithm: md5WithRSAEncryption
         cf:b0:ef:7a:55:80:23:06:0c:6a:32:2b:68:26:f8:97:77:3b:
         cd:ff:ff:64:85:f7:5f:03:43:79:63:e5:71:a8:a7:91:82:3f:
         f6:54:2a:3b:34:8d:d2:2f:bf:da:4f:37:08:a3:e5:6e:4b:b0:
         b8:4e:73:c4:38:47:9b:3f:50:95:ea:35:4c:31:ef:f5:9b:ec:
         1e:17:c6:7a:58:8c:97:57:d3:97:e5:e8:02:db:31:4d:30:d6:
         0a:be:59:ed:a9:9a:b7:0b:f8:9d:ef:02:32:96:59:e1:0f:28:
         0c:c1:e1:5f:d4:84:bf:97:7b:4e:e4:f6:b2:9d:6a:2d:84:e4:
         e6:c5:8f:38:f3:f5:d7:df:a8:8f:d6:bd:37:62:c1:eb:51:87:
         a7:2e:8f:5a:a4:01:9d:cf:fd:94:93:0a:5c:8e:c7:32:8b:8f:
         a1:4f:44:63:72:91:63:33:03:90:6c:8c:b8:b8:01:98:6a:df:
         8c:35:de:de:62:0d:35:80:0b:6f:d1:c6:e0:37:3c:b0:04:b1:
         1e:a0:56:c6:de:73:d1:d6:04:ee:b5:16:e6:51:17:67:52:0d:
         68:1b:59:6c:48:6a:81:59:62:a3:35:10:87:69:fc:a5:24:ae:
         f0:d6:8b:39:00:db:d1:a6:d1:41:e9:99:ec:7a:2c:e6:99:f6:
         dc:10:f1:7e:4a:31:8e:1c:af:b8:38:f1:dd:a2:92:4e:4b:63:
         a2:80:ff:46:c8:0c:5f:21:21:8d:ea:94:16:a4:59:f5:9a:43:
         b0:aa:df:89:4c:1a:f2:af:4f:53:db:df:3d:10:8d:8b:dd:89:
         b8:49:7b:e0:b6:a5:b2:c2:0c:63:43:ad:b6:d9:4d:fd:41:83:
         7b:36:50:96:2a:4a:1f:97:0e:7e:9e:e2:95:c3:d0:9a:dd:99:
         71:15:61:87:fd:7f:aa:0a:dc:2a:f4:ca:b8:ae:aa:e3:e1:a6:
         1b:98:3d:45:b9:3b:f0:c1:c5:f7:41:30:93:d8:c2:36:01:b2:
         07:5f:1e:e7:8b:b1:9e:c5:b3:ce:03:96:4f:34:44:dd:54:3c:
         4b:af:a6:c3:c4:5c:33:f9:6f:9f:fd:55:f2:47:31:0c:7a:65:
         4a:49:22:bb:37:20:66:c0:7b:39:fa:60:d9:af:54:61:89:15:
         a2:c6:a9:d2:a9:a9:18:0c:e3:79:40:6f:5e:e9:f2:97:3e:ed:
         7b:b2:b5:97:7d:20:7d:a3:b0:8c:8f:32:b2:e1:f8:f4:b0:6c:
         fd:fb:79:5d:50:ac:0f:87:f2:17:32:ee:10:47:ae:f8:88:9e:
         81:e8:ea:e8:ac:9a:bf:5d:d8:66:fe:5f:e9:33:17:49:cb:c7:
         40:02:23:42:da:be:68:f0
-----BEGIN CERTIFICATE-----
MIIGrTCCBJWgAwIBAgICIOwwDQYJKoZIhvcNAQEEBQAwgawxCzAJBgNVBAYTAlVT
MQswCQYDVQQIEwJPSDERMA8GA1UEBxMIQ29sdW1idXMxEjAQBgNVBAoTCVZpa2lu
Z1ZQTjEdMBsGA1UECxMUTXlPcmdhbml6YXRpb25hbFVuaXQxFTATBgNVBAMTDFZp
a2luZ1ZQTiBDQTEQMA4GA1UEKRMHRWFzeVJTQTEhMB8GCSqGSIb3DQEJARYSbWVA
bXlob3N0Lm15ZG9tYWluMB4XDTE2MDcwNjE3MTM0NVoXDTI2MDcwNDE3MTM0NVow
HzEdMBsGA1UEAxMUQ2xpZW50MjE5MENlcnQ3MzkzNDEwggIiMA0GCSqGSIb3DQEB
AQUAA4ICDwAwggIKAoICAQDRNW4V0cwOnH/s2D7crcDdXJ/RzYbOtkTs0Pi3yLmg
93/48OaRccH9j+fdce63ET07+PLqktR4N6WQduEVCDxynZCfAUSH61g3aCeCfium
WOKWEB7Xlz3YtIUB5uJyum41CnL7Kg+HloBgdcsdKVPgFYA7M8/085cMUEiX+yMv
Eg8yTWeE320vI/s4nZqNkAsfD4mLlbNyAPYiFRckxfpe9fEl1PeoxdC7T3AFZ//n
QfYl+m4y7AQ6p64S753gleuy5lVHGGiEFjtKaOTMl2HxCxzXyxCqW0WeRuP8UrHT
RdPCHe0F1OG9xPxVClvE0hpRE4zlMU0jhay0HTKaSpJ1RfJxwP+M+YO1UKWIUfvT
b/l2Yp5wpACkXO55Ad98XoAN/uwlVLY2qW7QLKIPqZWtXi0TDjL3QetZ+Oi6q6B/
q4DGzMZb8CKH0LZl7RxSMss1IqTW82P6ZoDBISNmZOs84Hn+O1X2Hcyahm+AZVDA
6HAm53JySMvWBk/Yn+Ht++/ALRug0o0X7+hXJU8PXrYsLlxCmen74N2xJQ2rymVJ
wijqlAvOXl+paUxLuiotKhmbVJY8qMQkXGCcAZIrsHtQx+UzqYbGgpovsXo0P9le
7bNyOqyngYFYxWiWiGHWX6ScD4EiKZM3KaA+l0ghGUV/UTsnVod9V5f9ODVm5y48
TwIDAQABo4IBYzCCAV8wCQYDVR0TBAIwADAtBglghkgBhvhCAQ0EIBYeRWFzeS1S
U0EgR2VuZXJhdGVkIENlcnRpZmljYXRlMB0GA1UdDgQWBBQR6vL33qOQbtdV3jlo
9r2NKhPVsjCB4QYDVR0jBIHZMIHWgBQSzWAE0qCAnnDtxpm4eyzGUv0ZoaGBsqSB
rzCBrDELMAkGA1UEBhMCVVMxCzAJBgNVBAgTAk9IMREwDwYDVQQHEwhDb2x1bWJ1
czESMBAGA1UEChMJVmlraW5nVlBOMR0wGwYDVQQLExRNeU9yZ2FuaXphdGlvbmFs
VW5pdDEVMBMGA1UEAxMMVmlraW5nVlBOIENBMRAwDgYDVQQpEwdFYXN5UlNBMSEw
HwYJKoZIhvcNAQkBFhJtZUBteWhvc3QubXlkb21haW6CCQDPNYXugL8qPjATBgNV
HSUEDDAKBggrBgEFBQcDAjALBgNVHQ8EBAMCB4AwDQYJKoZIhvcNAQEEBQADggIB
AM+w73pVgCMGDGoyK2gm+Jd3O83//2SF918DQ3lj5XGop5GCP/ZUKjs0jdIvv9pP
Nwij5W5LsLhOc8Q4R5s/UJXqNUwx7/Wb7B4XxnpYjJdX05fl6ALbMU0w1gq+We2p
mrcL+J3vAjKWWeEPKAzB4V/UhL+Xe07k9rKdai2E5ObFjzjz9dffqI/WvTdiwetR
h6cuj1qkAZ3P/ZSTClyOxzKLj6FPRGNykWMzA5BsjLi4AZhq34w13t5iDTWAC2/R
xuA3PLAEsR6gVsbec9HWBO61FuZRF2dSDWgbWWxIaoFZYqM1EIdp/KUkrvDWizkA
29Gm0UHpmex6LOaZ9twQ8X5KMY4cr7g48d2ikk5LY6KA/0bIDF8hIY3qlBakWfWa
Q7Cq34lMGvKvT1Pb3z0QjYvdibhJe+C2pbLCDGNDrbbZTf1Bg3s2UJYqSh+XDn6e
4pXD0JrdmXEVYYf9f6oK3Cr0yriuquPhphuYPUW5O/DBxfdBMJPYwjYBsgdfHueL
sZ7Fs84Dlk80RN1UPEuvpsPEXDP5b5/9VfJHMQx6ZUpJIrs3IGbAezn6YNmvVGGJ
FaLGqdKpqRgM43lAb17p8pc+7XuytZd9IH2jsIyPMrLh+PSwbP37eV1QrA+H8hcy
7hBHrviInoHo6uismr9d2Gb+X+kzF0nLx0ACI0Lavmjw
-----END CERTIFICATE-----
