Certificate:
    Data:
        Version: 3 (0x2)
        Serial Number: 9992 (0x2708)
    Signature Algorithm: sha256WithRSAEncryption
        Issuer: C=US, ST=OH, L=Columbus, O=VikingVPN, OU=MyOrganizationalUnit, CN=VikingVPN CA/name=EasyRSA/emailAddress=me@myhost.mydomain
        Validity
            Not Before: Jan 26 13:47:06 2017 GMT
            Not After : Jan 24 13:47:06 2027 GMT
        Subject: CN=Client2694Cert2aea11
        Subject Public Key Info:
            Public Key Algorithm: rsaEncryption
                Public-Key: (4096 bit)
                Modulus:
                    00:ab:46:42:4b:99:89:41:4b:fd:dd:74:36:10:cd:
                    f8:87:a8:0f:cb:e0:55:ac:75:8f:97:f7:4a:75:cc:
                    de:c2:d0:72:e8:25:a3:4e:58:b4:1f:ab:64:6a:37:
                    22:33:37:a6:de:4b:99:5a:b1:44:ec:9f:23:ca:e0:
                    34:9e:47:02:53:be:a2:61:6b:a9:d1:16:53:73:d2:
                    1d:64:f1:e6:a2:00:64:86:45:e1:61:fb:76:cb:77:
                    34:4d:32:e2:93:c6:32:38:3e:f0:5c:04:b4:df:c3:
                    40:d5:7c:a9:6d:ef:f6:ba:31:ed:f3:5c:5c:26:72:
                    13:68:8f:91:92:22:72:40:ec:10:15:f0:93:01:46:
                    46:f2:f7:01:51:72:4a:20:9a:43:ab:3b:df:61:24:
                    dd:36:51:61:51:40:30:4d:eb:87:d6:ba:46:c7:88:
                    b1:72:7e:37:8d:f6:3a:4f:ed:31:62:82:db:a5:9d:
                    7f:c5:c5:5e:19:82:c1:3c:ba:60:cf:fa:66:34:22:
                    b6:9f:b2:ae:11:81:47:30:3d:c6:22:3a:72:8a:3e:
                    1e:2e:44:d8:6b:0d:51:bf:b4:77:9f:91:cf:75:9d:
                    1e:8c:ab:ef:93:f2:24:da:6f:1e:5f:ad:47:44:be:
                    bb:f7:9e:a2:ca:98:40:35:6f:7c:57:90:a7:ab:8d:
                    bc:93:d5:e8:74:a8:07:f7:6b:e8:c2:08:19:79:b1:
                    13:0f:fb:27:73:c1:7d:c0:5f:77:79:e3:7c:92:14:
                    76:e5:f3:97:a5:96:2c:3a:b3:dd:b5:8f:ca:18:ea:
                    2e:53:be:39:c2:ae:2a:7b:32:60:1a:28:62:db:4f:
                    80:c7:70:81:04:61:8d:96:68:08:ef:a5:5f:6f:ef:
                    8e:5d:0e:36:4c:64:89:5f:d5:e2:3f:3b:54:8c:68:
                    fc:03:ad:33:e9:09:f9:e2:32:1e:b1:63:9a:f7:69:
                    0c:cf:f2:78:b1:54:da:63:78:fd:e5:2d:cb:ee:a4:
                    90:dd:ea:f0:56:fb:06:8f:52:a3:48:6b:15:09:39:
                    3a:5c:08:12:78:02:53:1e:c7:c3:99:da:e6:41:0c:
                    f3:70:ac:db:16:1d:e2:fc:ff:40:37:b3:d5:9d:36:
                    e8:5c:d7:8d:6c:6e:de:72:60:84:da:7b:3e:80:83:
                    b8:14:d3:80:9e:4e:ac:d6:ef:a0:a2:e0:be:d7:ef:
                    fa:92:2c:e3:b0:19:2b:5d:d9:7f:54:70:1e:0d:cb:
                    8b:78:28:48:a3:01:51:47:c1:1e:36:be:c8:a4:63:
                    a9:50:15:04:7f:1a:db:33:68:48:17:93:39:46:cf:
                    3f:91:bf:b6:ae:3a:dc:7e:0e:43:69:dc:8e:07:58:
                    84:fe:e9
                Exponent: 65537 (0x10001)
        X509v3 extensions:
            X509v3 Basic Constraints: 
                CA:FALSE
            Netscape Comment: 
                Easy-RSA Generated Certificate
            X509v3 Subject Key Identifier: 
                C7:7C:83:B4:56:2D:E2:49:53:87:49:5D:38:61:B1:89:40:AC:23:1A
            X509v3 Authority Key Identifier: 
                keyid:12:CD:60:04:D2:A0:80:9E:70:ED:C6:99:B8:7B:2C:C6:52:FD:19:A1
                DirName:/C=US/ST=OH/L=Columbus/O=VikingVPN/OU=MyOrganizationalUnit/CN=VikingVPN CA/name=EasyRSA/emailAddress=me@myhost.mydomain
                serial:CF:35:85:EE:80:BF:2A:3E

            X509v3 Extended Key Usage: 
                TLS Web Client Authentication
            X509v3 Key Usage: 
                Digital Signature
    Signature Algorithm: sha256WithRSAEncryption
         74:77:f0:94:7f:6c:e7:c1:2a:18:26:19:9f:ab:82:b1:4c:84:
         69:53:39:8e:7d:ff:3f:cd:6f:3e:e3:6a:24:fe:f4:25:0c:3d:
         73:15:4c:6a:42:82:b6:fa:ea:73:f0:b0:f6:f0:d9:f5:56:48:
         c2:45:ce:54:1f:cf:e9:44:c7:5e:9c:a9:55:a6:1b:71:16:c4:
         42:b6:9e:24:4d:79:fe:1b:3f:d6:53:2a:b7:a5:f2:d0:cc:b6:
         9e:18:31:7c:9c:ea:72:69:96:58:3d:c2:16:07:56:7e:0f:e5:
         11:cd:2e:98:b5:31:72:5b:6a:e9:0c:99:50:de:2b:fa:72:4d:
         38:50:75:8f:40:4d:46:89:c3:d6:db:fc:7a:d7:2b:46:8a:52:
         db:de:21:9b:c1:2d:a5:08:47:d2:40:0c:07:93:9f:d3:1c:e3:
         8e:f4:be:42:95:0e:77:96:91:75:81:39:73:dd:9c:df:ec:72:
         92:fd:a4:08:c7:05:58:d5:15:4c:e7:7f:f5:b7:9d:f3:fa:fc:
         e4:91:da:73:b3:4b:43:af:4d:d1:7e:57:46:48:d0:09:12:b1:
         43:6b:c0:8c:cb:71:4a:3f:e2:49:53:ea:38:24:f3:3d:db:83:
         06:e9:26:eb:fe:cc:73:73:49:da:b4:08:4d:fd:7d:3c:a0:67:
         79:19:e9:d5:e6:f4:2b:3e:69:bc:13:4b:60:12:ca:e7:d8:f8:
         53:8f:4a:bc:d2:3c:1a:ee:76:45:72:ab:cb:76:33:18:5f:99:
         08:2b:e1:db:35:9e:9f:a1:94:5c:d3:1e:34:85:5d:14:a9:41:
         37:4e:b6:3c:ca:16:67:a9:d2:0f:57:6d:f3:f1:9b:45:ff:45:
         a7:6c:70:6b:3e:22:1d:f3:ad:02:85:1c:9e:47:03:b7:0c:3f:
         18:2e:df:1c:ae:53:d5:f7:a0:66:c4:cb:36:77:96:93:c1:9d:
         65:4e:ef:e5:55:a1:8c:9b:ff:02:61:f5:99:3b:ed:cb:b1:d5:
         aa:99:15:aa:d9:b5:a1:ea:8d:75:19:de:17:a9:22:a2:4c:ee:
         2f:23:7a:c5:a3:6d:4a:f0:98:7f:55:47:8e:37:b5:8d:e2:0f:
         9d:c5:39:51:2c:fb:67:fd:5a:56:6e:1b:27:db:7c:80:6f:62:
         f6:e3:49:c0:f2:37:ef:66:3b:0c:be:f2:f2:06:e0:0b:d0:5b:
         12:7d:48:d2:7e:d5:0e:c4:2f:11:42:2c:05:d9:b2:b3:96:5b:
         51:54:97:cb:7f:7c:34:f3:9a:c8:59:c2:81:3b:22:9a:ca:f3:
         3d:87:e6:db:53:a0:cb:ed:eb:7c:d9:a5:03:dc:b0:f6:34:b8:
         86:63:d9:f9:7a:54:61:bf
-----BEGIN CERTIFICATE-----
MIIGrTCCBJWgAwIBAgICJwgwDQYJKoZIhvcNAQELBQAwgawxCzAJBgNVBAYTAlVT
MQswCQYDVQQIEwJPSDERMA8GA1UEBxMIQ29sdW1idXMxEjAQBgNVBAoTCVZpa2lu
Z1ZQTjEdMBsGA1UECxMUTXlPcmdhbml6YXRpb25hbFVuaXQxFTATBgNVBAMTDFZp
a2luZ1ZQTiBDQTEQMA4GA1UEKRMHRWFzeVJTQTEhMB8GCSqGSIb3DQEJARYSbWVA
bXlob3N0Lm15ZG9tYWluMB4XDTE3MDEyNjEzNDcwNloXDTI3MDEyNDEzNDcwNlow
HzEdMBsGA1UEAxMUQ2xpZW50MjY5NENlcnQyYWVhMTEwggIiMA0GCSqGSIb3DQEB
AQUAA4ICDwAwggIKAoICAQCrRkJLmYlBS/3ddDYQzfiHqA/L4FWsdY+X90p1zN7C
0HLoJaNOWLQfq2RqNyIzN6beS5lasUTsnyPK4DSeRwJTvqJha6nRFlNz0h1k8eai
AGSGReFh+3bLdzRNMuKTxjI4PvBcBLTfw0DVfKlt7/a6Me3zXFwmchNoj5GSInJA
7BAV8JMBRkby9wFRckogmkOrO99hJN02UWFRQDBN64fWukbHiLFyfjeN9jpP7TFi
gtulnX/FxV4ZgsE8umDP+mY0Irafsq4RgUcwPcYiOnKKPh4uRNhrDVG/tHefkc91
nR6Mq++T8iTabx5frUdEvrv3nqLKmEA1b3xXkKerjbyT1eh0qAf3a+jCCBl5sRMP
+ydzwX3AX3d543ySFHbl85elliw6s921j8oY6i5TvjnCrip7MmAaKGLbT4DHcIEE
YY2WaAjvpV9v745dDjZMZIlf1eI/O1SMaPwDrTPpCfniMh6xY5r3aQzP8nixVNpj
eP3lLcvupJDd6vBW+waPUqNIaxUJOTpcCBJ4AlMex8OZ2uZBDPNwrNsWHeL8/0A3
s9WdNuhc141sbt5yYITaez6Ag7gU04CeTqzW76Ci4L7X7/qSLOOwGStd2X9UcB4N
y4t4KEijAVFHwR42vsikY6lQFQR/GtszaEgXkzlGzz+Rv7auOtx+DkNp3I4HWIT+
6QIDAQABo4IBYzCCAV8wCQYDVR0TBAIwADAtBglghkgBhvhCAQ0EIBYeRWFzeS1S
U0EgR2VuZXJhdGVkIENlcnRpZmljYXRlMB0GA1UdDgQWBBTHfIO0Vi3iSVOHSV04
YbGJQKwjGjCB4QYDVR0jBIHZMIHWgBQSzWAE0qCAnnDtxpm4eyzGUv0ZoaGBsqSB
rzCBrDELMAkGA1UEBhMCVVMxCzAJBgNVBAgTAk9IMREwDwYDVQQHEwhDb2x1bWJ1
czESMBAGA1UEChMJVmlraW5nVlBOMR0wGwYDVQQLExRNeU9yZ2FuaXphdGlvbmFs
VW5pdDEVMBMGA1UEAxMMVmlraW5nVlBOIENBMRAwDgYDVQQpEwdFYXN5UlNBMSEw
HwYJKoZIhvcNAQkBFhJtZUBteWhvc3QubXlkb21haW6CCQDPNYXugL8qPjATBgNV
HSUEDDAKBggrBgEFBQcDAjALBgNVHQ8EBAMCB4AwDQYJKoZIhvcNAQELBQADggIB
AHR38JR/bOfBKhgmGZ+rgrFMhGlTOY59/z/Nbz7jaiT+9CUMPXMVTGpCgrb66nPw
sPbw2fVWSMJFzlQfz+lEx16cqVWmG3EWxEK2niRNef4bP9ZTKrel8tDMtp4YMXyc
6nJpllg9whYHVn4P5RHNLpi1MXJbaukMmVDeK/pyTThQdY9ATUaJw9bb/HrXK0aK
UtveIZvBLaUIR9JADAeTn9Mc4470vkKVDneWkXWBOXPdnN/scpL9pAjHBVjVFUzn
f/W3nfP6/OSR2nOzS0OvTdF+V0ZI0AkSsUNrwIzLcUo/4klT6jgk8z3bgwbpJuv+
zHNzSdq0CE39fTygZ3kZ6dXm9Cs+abwTS2ASyufY+FOPSrzSPBrudkVyq8t2Mxhf
mQgr4ds1np+hlFzTHjSFXRSpQTdOtjzKFmep0g9XbfPxm0X/RadscGs+Ih3zrQKF
HJ5HA7cMPxgu3xyuU9X3oGbEyzZ3lpPBnWVO7+VVoYyb/wJh9Zk77cux1aqZFarZ
taHqjXUZ3hepIqJM7i8jesWjbUrwmH9VR443tY3iD53FOVEs+2f9WlZuGyfbfIBv
YvbjScDyN+9mOwy+8vIG4AvQWxJ9SNJ+1Q7ELxFCLAXZsrOWW1FUl8t/fDTzmshZ
woE7IprK8z2H5ttToMvt63zZpQPcsPY0uIZj2fl6VGG/
-----END CERTIFICATE-----
