Certificate:
    Data:
        Version: 3 (0x2)
        Serial Number: 3805 (0xedd)
    Signature Algorithm: md5WithRSAEncryption
        Issuer: C=US, ST=OH, L=Columbus, O=VikingVPN, OU=MyOrganizationalUnit, CN=VikingVPN CA/name=EasyRSA/emailAddress=me@myhost.mydomain
        Validity
            Not Before: Dec 28 16:47:05 2014 GMT
            Not After : Dec 25 16:47:05 2024 GMT
        Subject: CN=Client1304Cert8e855b
        Subject Public Key Info:
            Public Key Algorithm: rsaEncryption
                Public-Key: (4096 bit)
                Modulus:
                    00:ed:b8:be:09:fa:56:bc:84:2d:1c:f3:92:db:52:
                    04:44:ce:90:92:da:83:86:99:a9:ac:cb:be:c3:e6:
                    3a:e1:b6:8f:d4:bf:c9:6f:e2:a1:bd:a6:53:04:ca:
                    ca:30:d1:f4:d4:af:7b:9f:46:a0:17:c5:41:c2:a6:
                    54:57:04:c2:04:72:b4:10:e9:37:8c:38:9f:a8:1a:
                    03:fb:23:f4:f3:97:cf:2c:64:33:ab:b8:f3:9d:6a:
                    ff:b4:33:73:e8:1a:c7:b8:ca:e0:07:29:28:1b:20:
                    0b:19:e1:04:f4:fd:d2:3a:c6:f3:8f:26:a7:f4:72:
                    df:d2:a3:0a:2b:cc:68:21:0e:b9:d2:7a:07:31:11:
                    47:9e:27:57:27:64:a0:bb:68:a1:f8:3a:f8:78:8d:
                    97:fa:a3:b5:f9:3a:42:0e:27:24:e6:0a:29:ba:a7:
                    87:fc:06:53:0a:f5:c9:47:5c:22:8a:eb:14:19:83:
                    af:3c:c8:60:4c:c1:a6:6f:d5:bb:11:c1:72:db:2e:
                    95:19:5f:01:68:77:fb:01:89:94:ff:4d:c8:a8:19:
                    44:41:87:4f:82:4f:d5:e6:8b:f2:ab:c2:45:52:cb:
                    3b:46:29:95:3a:31:5a:a5:7c:aa:25:c2:95:7e:5c:
                    c5:14:b5:aa:e2:98:a8:38:4b:53:1c:7c:23:15:8c:
                    17:e7:40:00:58:86:d7:33:9c:b1:ac:e9:34:a6:fb:
                    c0:83:34:b1:97:93:09:84:9b:62:d7:93:43:ae:ad:
                    d1:e9:ea:1a:e8:74:73:69:9d:43:c1:b2:5d:e7:bf:
                    d5:3a:61:4d:85:39:d3:4a:6c:1e:02:51:71:61:07:
                    25:5c:6b:15:92:e4:c9:75:18:46:2f:c2:c3:6a:87:
                    aa:74:9d:d1:24:78:9d:42:5c:f6:bb:08:65:df:67:
                    12:7a:fd:42:2b:f1:30:50:7c:fd:75:04:82:bf:4d:
                    fb:7f:40:ae:75:fb:bc:bf:75:95:94:cc:df:77:26:
                    d9:f7:21:f9:a2:6b:78:91:ee:7f:99:97:9f:72:ff:
                    2e:ec:fd:38:bb:e3:54:f7:5e:78:cc:80:9a:04:8f:
                    ca:f7:96:9f:9f:0f:e1:76:80:b0:ea:ad:38:c5:3c:
                    16:03:09:68:90:d7:97:fb:25:22:7b:27:d5:e1:f8:
                    84:9d:57:81:41:87:10:22:b9:44:90:e7:ee:f6:ce:
                    47:d8:7d:06:23:2b:ca:c7:5a:b6:87:fa:0e:73:c5:
                    f2:61:06:de:4f:18:91:54:01:a0:83:a8:c8:7d:f6:
                    09:a9:d4:4a:23:c6:57:55:dd:27:74:54:8a:3f:b6:
                    79:89:f1:f3:cf:e5:ca:d3:e1:a4:cf:f3:08:a1:a5:
                    b5:d7:7b
                Exponent: 65537 (0x10001)
        X509v3 extensions:
            X509v3 Basic Constraints: 
                CA:FALSE
            Netscape Comment: 
                Easy-RSA Generated Certificate
            X509v3 Subject Key Identifier: 
                5E:A9:23:BB:85:18:3C:59:31:FE:FF:68:EF:8F:82:EE:B8:BB:0A:9D
            X509v3 Authority Key Identifier: 
                keyid:12:CD:60:04:D2:A0:80:9E:70:ED:C6:99:B8:7B:2C:C6:52:FD:19:A1
                DirName:/C=US/ST=OH/L=Columbus/O=VikingVPN/OU=MyOrganizationalUnit/CN=VikingVPN CA/name=EasyRSA/emailAddress=me@myhost.mydomain
                serial:CF:35:85:EE:80:BF:2A:3E

            X509v3 Extended Key Usage: 
                TLS Web Client Authentication
            X509v3 Key Usage: 
                Digital Signature
    Signature Algorithm: md5WithRSAEncryption
         9b:a2:65:2c:6c:30:3f:c6:89:05:bb:3b:24:c2:bf:70:6a:6a:
         75:5c:0d:c9:2f:56:5e:44:18:df:96:00:40:7e:70:c1:01:58:
         a4:22:86:a9:1b:2f:bf:14:90:7e:58:5b:d3:75:79:bc:31:12:
         fb:74:7c:e8:6e:1f:c6:d4:94:cc:a8:d5:ee:9d:d9:37:c4:b5:
         df:a5:30:05:02:eb:0e:81:d9:c6:e8:60:30:e7:15:16:03:8e:
         64:94:1a:d9:c0:e0:1d:bd:4f:77:7a:4d:fd:62:64:d9:2c:c5:
         37:a7:5f:2f:cf:9d:9a:b3:99:85:d7:50:92:af:78:44:7a:76:
         8f:43:2a:01:25:95:61:1c:b6:ad:6f:62:a0:50:1a:79:4a:df:
         76:f7:41:1c:58:66:6c:3c:ac:c3:0d:a7:11:29:cd:9a:10:17:
         9c:d7:01:05:5a:57:c1:a6:b9:59:bb:f4:58:70:be:94:26:01:
         c7:17:7a:59:31:d3:e8:64:19:3b:6f:30:94:f0:70:90:0e:f5:
         72:85:7a:17:6d:dd:4d:e2:21:5a:2f:3d:e2:a8:fe:4f:1f:01:
         d1:ed:27:87:0a:a2:4d:44:89:07:59:4a:59:ac:2f:ad:5a:bc:
         94:06:03:17:35:66:d1:b0:28:44:98:de:99:c3:1f:bb:36:8c:
         96:d9:5f:7c:b2:cc:db:ef:57:b1:67:f7:bf:9a:a2:1e:a1:44:
         a6:68:d3:05:31:69:ee:ad:67:cc:e3:c3:64:2a:4c:e3:90:1c:
         bd:09:4b:96:56:07:07:c3:1e:c6:f5:2b:8d:4c:ed:16:00:a9:
         0d:f3:1b:db:0f:d6:16:a7:31:f1:89:8b:33:16:56:1d:75:8e:
         58:2e:60:a8:75:1c:83:ed:5c:89:f2:40:52:29:a7:61:fc:37:
         fb:c7:58:a4:29:cd:a7:36:94:5f:1a:a9:02:5e:52:4f:8b:fe:
         04:6b:83:fe:7c:8d:e3:f0:71:cb:0f:e5:54:18:50:4c:a0:e7:
         78:7b:e7:55:27:55:78:0f:00:58:bc:ec:3e:a6:e2:76:27:12:
         d0:af:97:3e:27:97:4f:d2:06:8a:e5:83:4a:a4:31:60:9b:b8:
         1a:0e:25:03:d8:d4:98:72:48:bf:82:b5:be:32:09:3b:aa:b5:
         fb:87:32:ff:94:45:72:38:88:97:54:c3:c9:5c:b1:a8:ac:c1:
         cd:79:83:05:76:72:8d:22:bc:4f:e8:fb:e5:2b:ce:51:72:55:
         2d:fc:af:f0:f4:4a:a6:09:e1:b0:69:6f:81:af:6e:7a:df:07:
         0a:d5:03:c1:83:ce:10:8a:95:04:4f:52:62:5e:d3:7c:89:b7:
         bd:25:d2:4b:85:ec:f9:70
-----BEGIN CERTIFICATE-----
MIIGrTCCBJWgAwIBAgICDt0wDQYJKoZIhvcNAQEEBQAwgawxCzAJBgNVBAYTAlVT
MQswCQYDVQQIEwJPSDERMA8GA1UEBxMIQ29sdW1idXMxEjAQBgNVBAoTCVZpa2lu
Z1ZQTjEdMBsGA1UECxMUTXlPcmdhbml6YXRpb25hbFVuaXQxFTATBgNVBAMTDFZp
a2luZ1ZQTiBDQTEQMA4GA1UEKRMHRWFzeVJTQTEhMB8GCSqGSIb3DQEJARYSbWVA
bXlob3N0Lm15ZG9tYWluMB4XDTE0MTIyODE2NDcwNVoXDTI0MTIyNTE2NDcwNVow
HzEdMBsGA1UEAxMUQ2xpZW50MTMwNENlcnQ4ZTg1NWIwggIiMA0GCSqGSIb3DQEB
AQUAA4ICDwAwggIKAoICAQDtuL4J+la8hC0c85LbUgREzpCS2oOGmamsy77D5jrh
to/Uv8lv4qG9plMEysow0fTUr3ufRqAXxUHCplRXBMIEcrQQ6TeMOJ+oGgP7I/Tz
l88sZDOruPOdav+0M3PoGse4yuAHKSgbIAsZ4QT0/dI6xvOPJqf0ct/SoworzGgh
DrnSegcxEUeeJ1cnZKC7aKH4Ovh4jZf6o7X5OkIOJyTmCim6p4f8BlMK9clHXCKK
6xQZg688yGBMwaZv1bsRwXLbLpUZXwFod/sBiZT/TcioGURBh0+CT9Xmi/KrwkVS
yztGKZU6MVqlfKolwpV+XMUUtarimKg4S1McfCMVjBfnQABYhtcznLGs6TSm+8CD
NLGXkwmEm2LXk0OurdHp6hrodHNpnUPBsl3nv9U6YU2FOdNKbB4CUXFhByVcaxWS
5Ml1GEYvwsNqh6p0ndEkeJ1CXPa7CGXfZxJ6/UIr8TBQfP11BIK/Tft/QK51+7y/
dZWUzN93Jtn3Ifmia3iR7n+Zl59y/y7s/Ti741T3XnjMgJoEj8r3lp+fD+F2gLDq
rTjFPBYDCWiQ15f7JSJ7J9Xh+ISdV4FBhxAiuUSQ5+72zkfYfQYjK8rHWraH+g5z
xfJhBt5PGJFUAaCDqMh99gmp1EojxldV3Sd0VIo/tnmJ8fPP5crT4aTP8wihpbXX
ewIDAQABo4IBYzCCAV8wCQYDVR0TBAIwADAtBglghkgBhvhCAQ0EIBYeRWFzeS1S
U0EgR2VuZXJhdGVkIENlcnRpZmljYXRlMB0GA1UdDgQWBBReqSO7hRg8WTH+/2jv
j4LuuLsKnTCB4QYDVR0jBIHZMIHWgBQSzWAE0qCAnnDtxpm4eyzGUv0ZoaGBsqSB
rzCBrDELMAkGA1UEBhMCVVMxCzAJBgNVBAgTAk9IMREwDwYDVQQHEwhDb2x1bWJ1
czESMBAGA1UEChMJVmlraW5nVlBOMR0wGwYDVQQLExRNeU9yZ2FuaXphdGlvbmFs
VW5pdDEVMBMGA1UEAxMMVmlraW5nVlBOIENBMRAwDgYDVQQpEwdFYXN5UlNBMSEw
HwYJKoZIhvcNAQkBFhJtZUBteWhvc3QubXlkb21haW6CCQDPNYXugL8qPjATBgNV
HSUEDDAKBggrBgEFBQcDAjALBgNVHQ8EBAMCB4AwDQYJKoZIhvcNAQEEBQADggIB
AJuiZSxsMD/GiQW7OyTCv3BqanVcDckvVl5EGN+WAEB+cMEBWKQihqkbL78UkH5Y
W9N1ebwxEvt0fOhuH8bUlMyo1e6d2TfEtd+lMAUC6w6B2cboYDDnFRYDjmSUGtnA
4B29T3d6Tf1iZNksxTenXy/PnZqzmYXXUJKveER6do9DKgEllWEctq1vYqBQGnlK
33b3QRxYZmw8rMMNpxEpzZoQF5zXAQVaV8GmuVm79FhwvpQmAccXelkx0+hkGTtv
MJTwcJAO9XKFehdt3U3iIVovPeKo/k8fAdHtJ4cKok1EiQdZSlmsL61avJQGAxc1
ZtGwKESY3pnDH7s2jJbZX3yyzNvvV7Fn97+aoh6hRKZo0wUxae6tZ8zjw2QqTOOQ
HL0JS5ZWBwfDHsb1K41M7RYAqQ3zG9sP1hanMfGJizMWVh11jlguYKh1HIPtXIny
QFIpp2H8N/vHWKQpzac2lF8aqQJeUk+L/gRrg/58jePwccsP5VQYUEyg53h751Un
VXgPAFi87D6m4nYnEtCvlz4nl0/SBorlg0qkMWCbuBoOJQPY1JhySL+Ctb4yCTuq
tfuHMv+URXI4iJdUw8lcsaiswc15gwV2co0ivE/o++UrzlFyVS38r/D0SqYJ4bBp
b4GvbnrfBwrVA8GDzhCKlQRPUmJe03yJt70l0kuF7Plw
-----END CERTIFICATE-----
