Certificate:
    Data:
        Version: 3 (0x2)
        Serial Number: 1669 (0x685)
    Signature Algorithm: md5WithRSAEncryption
        Issuer: C=US, ST=OH, L=Columbus, O=VikingVPN, OU=MyOrganizationalUnit, CN=VikingVPN CA/name=EasyRSA/emailAddress=me@myhost.mydomain
        Validity
            Not Before: Apr 18 10:34:05 2014 GMT
            Not After : Apr 15 10:34:05 2024 GMT
        Subject: CN=Client551Cert7fb608
        Subject Public Key Info:
            Public Key Algorithm: rsaEncryption
                Public-Key: (4096 bit)
                Modulus:
                    00:bd:d0:ab:93:03:e0:e5:b1:1e:81:ee:8c:4c:7e:
                    18:62:a0:76:36:cc:4d:fd:ba:a5:9f:3d:ec:99:6c:
                    6a:9f:fb:b6:1a:25:2f:a1:87:1f:31:ba:f6:b0:1c:
                    66:38:19:4c:93:20:8b:e6:8f:c0:7d:5f:39:7c:f2:
                    0a:92:07:f3:db:b6:d6:9f:3a:df:70:4d:7c:61:43:
                    6e:9d:84:65:cf:6d:b7:0b:77:1f:e7:56:d0:2b:23:
                    3c:6b:8e:46:a0:b5:59:ca:65:e0:0f:e2:ed:58:de:
                    c1:a9:a5:94:0d:1f:82:f5:0c:e8:6c:a4:65:71:17:
                    72:7c:f8:c4:5d:ae:88:94:55:33:82:57:0c:3f:d2:
                    69:cc:0c:f5:00:b1:79:a1:03:0f:1d:64:dc:90:76:
                    0a:ed:0c:0e:21:92:a5:30:0a:2c:1a:d9:59:e5:c0:
                    c1:f8:cc:b0:27:18:ee:aa:b7:f1:e4:9a:84:16:c1:
                    22:08:4f:2b:54:cd:08:8f:71:7b:2b:f8:d0:91:80:
                    ec:79:84:c5:e5:74:75:49:3c:d9:15:9d:bd:5b:9b:
                    d5:a6:27:5b:de:25:f9:42:11:e1:be:0f:4b:e3:48:
                    48:d9:c5:d9:40:c6:5c:23:b9:dc:8b:b2:f7:d1:de:
                    53:f4:b7:a9:6c:89:9f:3b:a8:c4:27:85:26:92:6d:
                    04:3b:17:b6:a3:99:ea:20:72:b6:0b:ba:5b:ce:3a:
                    ad:f5:4d:05:ff:5a:89:ac:e1:67:92:ff:c8:4b:6d:
                    cf:e8:64:74:49:a5:ff:e5:72:24:a6:b3:c9:99:fa:
                    88:e2:9c:da:e3:57:23:ef:6e:5f:9b:90:79:b0:0b:
                    3c:e1:da:dc:7d:39:4c:fb:c1:1b:3f:37:6e:6d:fd:
                    3b:9b:2b:d2:10:64:04:bc:39:b9:47:1c:c2:7a:e8:
                    a1:ef:3e:1d:06:1d:1c:6a:74:c0:ea:38:03:fd:ed:
                    fd:e7:b1:20:3a:89:ef:79:8e:e6:42:17:af:4a:9f:
                    a1:2a:c9:db:30:a2:f6:b9:18:b7:1f:a6:cd:a3:40:
                    cc:46:94:a2:52:64:fe:89:b0:5b:cc:49:2c:9d:f2:
                    61:0e:72:16:ef:38:3e:1f:a0:77:3b:3b:64:6e:8e:
                    e1:3b:8d:55:7e:fb:df:70:4b:a8:64:37:d5:d1:0e:
                    80:d1:e1:67:1c:58:26:fb:2f:2a:b3:a2:56:66:88:
                    69:79:93:b1:ca:21:19:8a:eb:d7:3b:8f:dc:8b:15:
                    3a:ba:79:05:8a:57:75:76:97:6f:32:c6:da:c4:0f:
                    34:ff:a5:c7:31:57:99:53:db:7e:34:72:c1:27:aa:
                    ed:c8:e0:bf:9f:2c:99:35:ed:c7:b7:d5:56:93:8a:
                    50:eb:c7
                Exponent: 65537 (0x10001)
        X509v3 extensions:
            X509v3 Basic Constraints: 
                CA:FALSE
            Netscape Comment: 
                Easy-RSA Generated Certificate
            X509v3 Subject Key Identifier: 
                F6:06:BE:AA:D1:4E:A7:E8:73:D5:F5:03:8B:02:A6:4D:18:5B:CC:C8
            X509v3 Authority Key Identifier: 
                keyid:12:CD:60:04:D2:A0:80:9E:70:ED:C6:99:B8:7B:2C:C6:52:FD:19:A1
                DirName:/C=US/ST=OH/L=Columbus/O=VikingVPN/OU=MyOrganizationalUnit/CN=VikingVPN CA/name=EasyRSA/emailAddress=me@myhost.mydomain
                serial:CF:35:85:EE:80:BF:2A:3E

            X509v3 Extended Key Usage: 
                TLS Web Client Authentication
            X509v3 Key Usage: 
                Digital Signature
    Signature Algorithm: md5WithRSAEncryption
         25:11:4d:8e:0a:2c:87:9c:1d:5a:79:77:0e:24:35:45:a8:b9:
         55:07:5c:bc:4f:33:a0:d3:d9:88:98:7c:57:77:93:a1:f5:70:
         26:bf:48:66:e7:55:7b:f7:77:91:0a:8e:6f:2d:26:51:d8:64:
         54:dd:f1:33:84:c4:85:d7:a4:da:b0:7f:5b:01:69:c5:39:9b:
         a2:2a:36:2a:0b:f9:21:27:cd:98:a9:8e:ea:e9:65:4c:d4:bd:
         af:55:7d:b0:1a:72:a1:24:a6:6f:7c:23:ea:39:85:51:f0:84:
         6b:a9:d6:dd:ce:f6:61:af:85:4f:3b:b5:cb:ea:97:53:bf:03:
         19:6f:7b:39:f2:48:26:5e:d2:ef:5b:36:2f:39:27:bb:f0:89:
         62:9e:64:a1:57:72:6c:66:6b:3d:7c:90:5d:73:9d:f7:a6:3d:
         74:38:3d:9e:c8:82:64:98:ab:93:81:33:4d:4d:61:2d:ee:74:
         49:57:f6:03:c4:dc:48:29:71:03:b6:61:fe:7f:1a:b8:49:d8:
         96:24:19:4d:b6:5f:2c:43:37:27:71:89:ec:d5:1f:32:a8:98:
         d3:d2:19:47:82:63:42:d9:92:35:77:8e:6a:66:f9:18:18:2c:
         6e:9a:a5:b6:83:26:62:8a:32:06:16:51:48:00:37:23:ba:ea:
         7c:fc:cc:3c:ec:a5:94:78:8e:cf:dc:0d:12:60:eb:1c:a0:98:
         b1:39:0f:ea:b2:f4:e0:54:44:6c:41:1b:af:04:d1:92:34:d9:
         b0:0d:e5:4a:39:37:b6:35:c0:f3:65:b3:c9:50:65:d3:c1:fa:
         0a:95:da:35:91:db:38:97:2d:9f:73:3e:63:9f:42:2b:4d:27:
         0a:9c:e7:bf:76:47:1e:bf:7e:63:17:19:bc:d6:6d:3e:a3:db:
         c7:65:5c:2a:84:16:c0:7d:65:6b:34:05:60:e1:b1:77:bf:e6:
         e0:42:d4:b3:8f:07:65:00:a3:2d:c1:8c:06:67:be:eb:d5:2a:
         32:2a:8d:62:5e:ec:69:d1:da:b1:94:4e:11:45:14:c3:2b:b5:
         b6:1d:1b:e2:5c:76:33:3f:64:44:d2:9f:3b:aa:12:a3:ba:08:
         2c:35:26:f6:3e:ce:ba:86:a5:6e:0c:b6:04:58:ee:1e:fd:76:
         d2:59:ea:23:b5:b7:2c:34:43:fb:2f:60:09:a3:6f:d1:dc:0f:
         5d:f9:bc:8e:55:3b:34:a7:87:3f:f9:0b:85:31:a0:6c:07:1c:
         95:76:19:e3:4d:1c:e5:cb:b7:45:12:ae:4d:b5:e3:ad:2b:21:
         8d:90:e2:52:19:44:07:5b:73:c4:17:f6:3b:c3:b0:b0:1b:ec:
         61:be:92:b4:47:e8:29:fc
-----BEGIN CERTIFICATE-----
MIIGrDCCBJSgAwIBAgICBoUwDQYJKoZIhvcNAQEEBQAwgawxCzAJBgNVBAYTAlVT
MQswCQYDVQQIEwJPSDERMA8GA1UEBxMIQ29sdW1idXMxEjAQBgNVBAoTCVZpa2lu
Z1ZQTjEdMBsGA1UECxMUTXlPcmdhbml6YXRpb25hbFVuaXQxFTATBgNVBAMTDFZp
a2luZ1ZQTiBDQTEQMA4GA1UEKRMHRWFzeVJTQTEhMB8GCSqGSIb3DQEJARYSbWVA
bXlob3N0Lm15ZG9tYWluMB4XDTE0MDQxODEwMzQwNVoXDTI0MDQxNTEwMzQwNVow
HjEcMBoGA1UEAxMTQ2xpZW50NTUxQ2VydDdmYjYwODCCAiIwDQYJKoZIhvcNAQEB
BQADggIPADCCAgoCggIBAL3Qq5MD4OWxHoHujEx+GGKgdjbMTf26pZ897Jlsap/7
tholL6GHHzG69rAcZjgZTJMgi+aPwH1fOXzyCpIH89u21p8633BNfGFDbp2EZc9t
twt3H+dW0CsjPGuORqC1Wcpl4A/i7VjewamllA0fgvUM6GykZXEXcnz4xF2uiJRV
M4JXDD/SacwM9QCxeaEDDx1k3JB2Cu0MDiGSpTAKLBrZWeXAwfjMsCcY7qq38eSa
hBbBIghPK1TNCI9xeyv40JGA7HmExeV0dUk82RWdvVub1aYnW94l+UIR4b4PS+NI
SNnF2UDGXCO53Iuy99HeU/S3qWyJnzuoxCeFJpJtBDsXtqOZ6iBytgu6W846rfVN
Bf9aiazhZ5L/yEttz+hkdEml/+VyJKazyZn6iOKc2uNXI+9uX5uQebALPOHa3H05
TPvBGz83bm39O5sr0hBkBLw5uUccwnrooe8+HQYdHGp0wOo4A/3t/eexIDqJ73mO
5kIXr0qfoSrJ2zCi9rkYtx+mzaNAzEaUolJk/omwW8xJLJ3yYQ5yFu84Ph+gdzs7
ZG6O4TuNVX7733BLqGQ31dEOgNHhZxxYJvsvKrOiVmaIaXmTscohGYrr1zuP3IsV
Orp5BYpXdXaXbzLG2sQPNP+lxzFXmVPbfjRywSeq7cjgv58smTXtx7fVVpOKUOvH
AgMBAAGjggFjMIIBXzAJBgNVHRMEAjAAMC0GCWCGSAGG+EIBDQQgFh5FYXN5LVJT
QSBHZW5lcmF0ZWQgQ2VydGlmaWNhdGUwHQYDVR0OBBYEFPYGvqrRTqfoc9X1A4sC
pk0YW8zIMIHhBgNVHSMEgdkwgdaAFBLNYATSoICecO3Gmbh7LMZS/RmhoYGypIGv
MIGsMQswCQYDVQQGEwJVUzELMAkGA1UECBMCT0gxETAPBgNVBAcTCENvbHVtYnVz
MRIwEAYDVQQKEwlWaWtpbmdWUE4xHTAbBgNVBAsTFE15T3JnYW5pemF0aW9uYWxV
bml0MRUwEwYDVQQDEwxWaWtpbmdWUE4gQ0ExEDAOBgNVBCkTB0Vhc3lSU0ExITAf
BgkqhkiG9w0BCQEWEm1lQG15aG9zdC5teWRvbWFpboIJAM81he6Avyo+MBMGA1Ud
JQQMMAoGCCsGAQUFBwMCMAsGA1UdDwQEAwIHgDANBgkqhkiG9w0BAQQFAAOCAgEA
JRFNjgosh5wdWnl3DiQ1Rai5VQdcvE8zoNPZiJh8V3eTofVwJr9IZudVe/d3kQqO
by0mUdhkVN3xM4TEhdek2rB/WwFpxTmboio2Kgv5ISfNmKmO6ullTNS9r1V9sBpy
oSSmb3wj6jmFUfCEa6nW3c72Ya+FTzu1y+qXU78DGW97OfJIJl7S71s2Lzknu/CJ
Yp5koVdybGZrPXyQXXOd96Y9dDg9nsiCZJirk4EzTU1hLe50SVf2A8TcSClxA7Zh
/n8auEnYliQZTbZfLEM3J3GJ7NUfMqiY09IZR4JjQtmSNXeOamb5GBgsbpqltoMm
YooyBhZRSAA3I7rqfPzMPOyllHiOz9wNEmDrHKCYsTkP6rL04FREbEEbrwTRkjTZ
sA3lSjk3tjXA82WzyVBl08H6CpXaNZHbOJctn3M+Y59CK00nCpznv3ZHHr9+YxcZ
vNZtPqPbx2VcKoQWwH1lazQFYOGxd7/m4ELUs48HZQCjLcGMBme+69UqMiqNYl7s
adHasZROEUUUwyu1th0b4lx2Mz9kRNKfO6oSo7oILDUm9j7Ouoalbgy2BFjuHv12
0lnqI7W3LDRD+y9gCaNv0dwPXfm8jlU7NKeHP/kLhTGgbAcclXYZ400c5cu3RRKu
TbXjrSshjZDiUhlEB1tzxBf2O8OwsBvsYb6StEfoKfw=
-----END CERTIFICATE-----
