Certificate:
    Data:
        Version: 3 (0x2)
        Serial Number: 9700 (0x25e4)
    Signature Algorithm: sha256WithRSAEncryption
        Issuer: C=US, ST=OH, L=Columbus, O=VikingVPN, OU=MyOrganizationalUnit, CN=VikingVPN CA/name=EasyRSA/emailAddress=me@myhost.mydomain
        Validity
            Not Before: Dec 12 11:14:20 2016 GMT
            Not After : Dec 10 11:14:20 2026 GMT
        Subject: CN=Client2296Cert9d1612
        Subject Public Key Info:
            Public Key Algorithm: rsaEncryption
                Public-Key: (4096 bit)
                Modulus:
                    00:d1:45:db:8c:48:0f:a2:39:ce:59:2b:e3:6e:69:
                    19:2a:ba:e6:51:7b:54:91:30:5a:54:1d:2e:09:28:
                    a3:c9:1f:08:54:03:eb:d0:c5:ab:65:62:f0:db:e5:
                    de:a1:64:76:cb:ad:9e:7e:c7:c4:6d:f2:64:0d:f1:
                    37:41:40:1e:3a:22:d9:a6:97:6a:23:ae:50:87:bd:
                    59:e7:57:8e:ea:1b:7c:aa:5b:1a:9a:47:cf:58:05:
                    71:34:48:07:d8:83:1d:e2:11:ab:f5:0a:d3:32:40:
                    87:23:b6:79:11:21:87:42:b6:67:88:cc:42:c5:7e:
                    4a:6e:87:3d:0c:18:aa:10:70:98:2d:94:06:25:80:
                    e2:88:c8:35:24:c1:ec:7b:cd:49:7b:5a:7a:28:ba:
                    c4:4a:c4:a4:e1:c0:40:0a:0d:b6:37:12:91:4e:15:
                    d0:e5:b1:bc:4c:60:e7:f2:c8:5c:12:c2:d5:f5:5b:
                    a7:2c:da:01:ad:c6:9b:d4:7c:44:4f:ed:ef:20:80:
                    b0:b1:92:d9:30:f5:29:0b:95:7b:2a:04:99:96:7a:
                    92:6b:4f:22:66:1d:a3:af:85:fc:fd:c3:8c:4f:25:
                    05:c4:b3:81:f9:f0:e4:65:59:e6:ca:fc:64:41:9f:
                    15:2f:8b:65:80:fd:e0:a7:8e:00:e9:8d:29:35:a9:
                    4d:c2:8c:72:ea:77:10:47:c3:f1:b7:aa:91:10:b6:
                    58:e9:8c:c2:79:5d:ac:39:83:be:46:48:c3:29:6b:
                    99:bd:76:43:41:4b:25:4e:a6:1f:a7:76:88:79:85:
                    f6:49:9c:f0:39:8d:ab:e7:bf:54:38:8b:42:35:93:
                    2c:34:78:d5:9f:30:b7:d4:68:44:7e:69:0d:14:c2:
                    62:fe:12:1c:ab:fb:b5:2e:3d:79:26:ef:09:77:14:
                    84:b3:8d:8b:fc:7f:de:59:d9:de:32:ea:ac:66:6b:
                    c9:36:90:88:ee:11:95:aa:86:e3:f5:cb:b6:63:89:
                    e2:ed:04:6e:c7:41:99:2a:1c:29:8b:10:e2:c5:a4:
                    85:76:b2:47:58:0b:f5:50:49:83:00:69:76:c8:8d:
                    62:a2:a9:2a:5f:4d:be:c3:9b:8e:47:68:28:94:54:
                    b0:be:35:b5:f4:6d:88:e3:0b:0b:37:17:08:f7:aa:
                    f7:fc:42:0b:52:b4:ff:c0:fc:f9:6f:1e:8c:54:19:
                    77:11:6e:db:2b:d7:ef:1c:4e:3f:74:dc:43:a5:27:
                    6e:45:8a:c9:a3:3c:44:1f:e9:c2:aa:17:a5:29:7d:
                    cd:a1:01:de:81:d1:64:67:e3:e7:45:d2:07:29:41:
                    26:f6:0c:68:d8:ee:8b:80:4f:66:40:8a:da:bf:d0:
                    05:54:87
                Exponent: 65537 (0x10001)
        X509v3 extensions:
            X509v3 Basic Constraints: 
                CA:FALSE
            Netscape Comment: 
                Easy-RSA Generated Certificate
            X509v3 Subject Key Identifier: 
                81:8D:4A:73:2B:8A:8B:A3:54:BB:9D:40:8C:C9:56:E3:FA:77:9E:D3
            X509v3 Authority Key Identifier: 
                keyid:12:CD:60:04:D2:A0:80:9E:70:ED:C6:99:B8:7B:2C:C6:52:FD:19:A1
                DirName:/C=US/ST=OH/L=Columbus/O=VikingVPN/OU=MyOrganizationalUnit/CN=VikingVPN CA/name=EasyRSA/emailAddress=me@myhost.mydomain
                serial:CF:35:85:EE:80:BF:2A:3E

            X509v3 Extended Key Usage: 
                TLS Web Client Authentication
            X509v3 Key Usage: 
                Digital Signature
    Signature Algorithm: sha256WithRSAEncryption
         e6:f3:12:41:8a:ae:9c:b4:f7:e7:43:62:85:3e:03:a8:80:8b:
         ed:a6:19:92:be:cb:8d:2a:9a:e2:63:74:25:ce:c0:fe:0a:aa:
         62:83:3a:e8:eb:be:c1:f4:3a:94:4d:64:8f:b1:ce:fb:cd:f0:
         10:95:5a:1b:9f:41:35:a6:ae:5d:84:43:81:0e:ff:f1:f9:b6:
         f8:6c:e7:2a:5f:ff:a0:0e:6d:80:ac:a5:2f:c3:40:68:13:ab:
         be:cb:e3:60:88:fb:0d:6b:e9:49:6e:68:b8:a8:d8:79:8b:19:
         c4:5b:08:aa:f7:fc:df:29:74:3b:8f:a7:c0:58:07:80:23:17:
         24:3e:cf:75:5b:5c:2c:69:08:2e:af:80:e1:e5:f4:26:5e:80:
         1c:ae:1a:f9:0e:18:b3:b2:f8:6a:d4:2c:dc:8e:b3:e3:48:ba:
         b0:3a:e3:11:f3:ad:76:5d:14:c8:c8:5d:48:da:87:2f:d2:3d:
         22:20:ba:0b:ec:25:c7:3a:40:7a:33:a3:7e:9c:57:f1:c4:30:
         11:41:d0:cb:a4:68:e0:91:fb:3f:10:0d:6d:13:79:9d:b6:81:
         4c:bd:6d:ae:a0:4c:a2:27:e9:36:89:69:77:82:3d:3d:84:43:
         22:ac:11:33:f3:63:67:08:e9:41:50:4a:ba:db:83:a6:6e:9a:
         4c:d5:bc:d8:26:d6:75:ac:45:7e:0d:7d:4a:29:6f:0f:77:74:
         ee:e6:ea:9d:5f:7b:0d:28:f1:0b:47:32:d3:d2:27:47:8d:16:
         f2:9d:6b:0c:51:dd:2e:bc:b8:bb:9d:bf:b4:b5:c6:a7:3b:2f:
         79:09:8f:64:96:07:73:5f:7b:b1:e8:67:ee:ea:4c:61:69:0b:
         3e:4d:eb:80:c9:69:e5:eb:53:c4:47:5e:8c:69:89:0f:2a:87:
         23:81:39:f8:02:ee:b4:3f:b3:0b:11:e6:27:ad:9d:d2:69:a0:
         72:8b:c5:ee:c4:29:60:55:e8:83:0e:21:88:4b:c2:5f:c2:04:
         76:5a:7b:4b:2e:f7:29:d7:37:77:37:ba:69:8a:fe:0e:36:ce:
         f9:2e:42:85:b3:25:54:99:f0:49:a1:0f:d1:16:45:ed:8f:86:
         88:e3:7d:5f:cc:70:90:4f:ab:59:c3:72:1f:e5:6d:ee:37:b8:
         c9:d4:fb:1d:76:59:a9:db:fc:66:ef:28:42:2f:0c:c9:79:a2:
         e2:cc:89:39:fd:f3:97:e1:42:98:5c:5a:35:00:62:4d:4b:b6:
         8e:2a:66:10:a7:ca:16:7f:bc:b4:36:cc:f4:4f:6d:c4:68:7a:
         da:f0:78:b3:55:8c:c5:d1:98:cd:6c:82:33:96:f0:a3:7e:45:
         3b:17:c4:a8:6b:a3:ca:b3
-----BEGIN CERTIFICATE-----
MIIGrTCCBJWgAwIBAgICJeQwDQYJKoZIhvcNAQELBQAwgawxCzAJBgNVBAYTAlVT
MQswCQYDVQQIEwJPSDERMA8GA1UEBxMIQ29sdW1idXMxEjAQBgNVBAoTCVZpa2lu
Z1ZQTjEdMBsGA1UECxMUTXlPcmdhbml6YXRpb25hbFVuaXQxFTATBgNVBAMTDFZp
a2luZ1ZQTiBDQTEQMA4GA1UEKRMHRWFzeVJTQTEhMB8GCSqGSIb3DQEJARYSbWVA
bXlob3N0Lm15ZG9tYWluMB4XDTE2MTIxMjExMTQyMFoXDTI2MTIxMDExMTQyMFow
HzEdMBsGA1UEAxMUQ2xpZW50MjI5NkNlcnQ5ZDE2MTIwggIiMA0GCSqGSIb3DQEB
AQUAA4ICDwAwggIKAoICAQDRRduMSA+iOc5ZK+NuaRkquuZRe1SRMFpUHS4JKKPJ
HwhUA+vQxatlYvDb5d6hZHbLrZ5+x8Rt8mQN8TdBQB46Itmml2ojrlCHvVnnV47q
G3yqWxqaR89YBXE0SAfYgx3iEav1CtMyQIcjtnkRIYdCtmeIzELFfkpuhz0MGKoQ
cJgtlAYlgOKIyDUkwex7zUl7WnoousRKxKThwEAKDbY3EpFOFdDlsbxMYOfyyFwS
wtX1W6cs2gGtxpvUfERP7e8ggLCxktkw9SkLlXsqBJmWepJrTyJmHaOvhfz9w4xP
JQXEs4H58ORlWebK/GRBnxUvi2WA/eCnjgDpjSk1qU3CjHLqdxBHw/G3qpEQtljp
jMJ5Xaw5g75GSMMpa5m9dkNBSyVOph+ndoh5hfZJnPA5javnv1Q4i0I1kyw0eNWf
MLfUaER+aQ0UwmL+Ehyr+7UuPXkm7wl3FISzjYv8f95Z2d4y6qxma8k2kIjuEZWq
huP1y7ZjieLtBG7HQZkqHCmLEOLFpIV2skdYC/VQSYMAaXbIjWKiqSpfTb7Dm45H
aCiUVLC+NbX0bYjjCws3Fwj3qvf8QgtStP/A/PlvHoxUGXcRbtsr1+8cTj903EOl
J25FismjPEQf6cKqF6Upfc2hAd6B0WRn4+dF0gcpQSb2DGjY7ouAT2ZAitq/0AVU
hwIDAQABo4IBYzCCAV8wCQYDVR0TBAIwADAtBglghkgBhvhCAQ0EIBYeRWFzeS1S
U0EgR2VuZXJhdGVkIENlcnRpZmljYXRlMB0GA1UdDgQWBBSBjUpzK4qLo1S7nUCM
yVbj+nee0zCB4QYDVR0jBIHZMIHWgBQSzWAE0qCAnnDtxpm4eyzGUv0ZoaGBsqSB
rzCBrDELMAkGA1UEBhMCVVMxCzAJBgNVBAgTAk9IMREwDwYDVQQHEwhDb2x1bWJ1
czESMBAGA1UEChMJVmlraW5nVlBOMR0wGwYDVQQLExRNeU9yZ2FuaXphdGlvbmFs
VW5pdDEVMBMGA1UEAxMMVmlraW5nVlBOIENBMRAwDgYDVQQpEwdFYXN5UlNBMSEw
HwYJKoZIhvcNAQkBFhJtZUBteWhvc3QubXlkb21haW6CCQDPNYXugL8qPjATBgNV
HSUEDDAKBggrBgEFBQcDAjALBgNVHQ8EBAMCB4AwDQYJKoZIhvcNAQELBQADggIB
AObzEkGKrpy09+dDYoU+A6iAi+2mGZK+y40qmuJjdCXOwP4KqmKDOujrvsH0OpRN
ZI+xzvvN8BCVWhufQTWmrl2EQ4EO//H5tvhs5ypf/6AObYCspS/DQGgTq77L42CI
+w1r6UluaLio2HmLGcRbCKr3/N8pdDuPp8BYB4AjFyQ+z3VbXCxpCC6vgOHl9CZe
gByuGvkOGLOy+GrULNyOs+NIurA64xHzrXZdFMjIXUjahy/SPSIgugvsJcc6QHoz
o36cV/HEMBFB0MukaOCR+z8QDW0TeZ22gUy9ba6gTKIn6TaJaXeCPT2EQyKsETPz
Y2cI6UFQSrrbg6ZumkzVvNgm1nWsRX4NfUopbw93dO7m6p1few0o8QtHMtPSJ0eN
FvKdawxR3S68uLudv7S1xqc7L3kJj2SWB3Nfe7HoZ+7qTGFpCz5N64DJaeXrU8RH
XoxpiQ8qhyOBOfgC7rQ/swsR5ietndJpoHKLxe7EKWBV6IMOIYhLwl/CBHZae0su
9ynXN3c3ummK/g42zvkuQoWzJVSZ8EmhD9EWRe2PhojjfV/McJBPq1nDch/lbe43
uMnU+x12Wanb/GbvKEIvDMl5ouLMiTn985fhQphcWjUAYk1Lto4qZhCnyhZ/vLQ2
zPRPbcRoetrweLNVjMXRmM1sgjOW8KN+RTsXxKhro8qz
-----END CERTIFICATE-----
