Certificate:
    Data:
        Version: 3 (0x2)
        Serial Number: 1019 (0x3fb)
    Signature Algorithm: md5WithRSAEncryption
        Issuer: C=US, ST=OH, L=Columbus, O=VikingVPN, OU=MyOrganizationalUnit, CN=VikingVPN CA/name=EasyRSA/emailAddress=me@myhost.mydomain
        Validity
            Not Before: Feb 11 21:21:16 2014 GMT
            Not After : Feb  9 21:21:16 2024 GMT
        Subject: CN=Client374Certcd4b98
        Subject Public Key Info:
            Public Key Algorithm: rsaEncryption
                Public-Key: (4096 bit)
                Modulus:
                    00:c9:49:48:2f:c8:3d:20:15:d7:a2:0d:a0:ac:1b:
                    3f:de:88:ac:1a:bf:ab:da:2a:8a:af:16:03:0c:ce:
                    1e:ec:29:e5:3a:3d:e8:91:12:08:33:f2:08:33:25:
                    9f:de:b9:99:87:5b:1f:c6:2d:1a:13:79:9e:36:c2:
                    31:57:f6:2d:82:3a:9c:09:69:f4:6d:04:ce:a6:0b:
                    a6:f3:77:3f:10:44:30:e8:00:f1:8a:25:3f:53:f8:
                    6c:14:b5:10:0c:22:5b:2c:e2:1d:a1:ee:5f:88:30:
                    51:e6:b6:e1:0c:95:b6:85:1a:73:cf:85:6d:3c:b7:
                    e6:05:1f:21:bf:87:a1:e3:b2:81:1c:ee:08:d2:ed:
                    34:45:4e:f0:2e:41:ad:70:a3:71:92:8f:e3:15:f3:
                    33:dc:b9:58:09:3c:c4:4f:1c:fd:68:2d:dd:14:a2:
                    88:6b:67:7e:e4:49:fb:7b:24:47:18:59:e4:db:2e:
                    c9:99:ea:53:55:1d:90:6f:18:c8:40:10:52:cb:e7:
                    26:bb:cc:71:23:f2:61:99:c4:cd:43:3f:48:b2:60:
                    78:c4:17:3a:d6:06:d8:37:5a:bf:19:3a:4d:c5:e6:
                    24:42:75:27:93:44:80:37:03:74:91:f2:97:4b:2f:
                    55:c9:31:0e:52:d4:31:88:63:9e:09:37:a0:75:08:
                    bd:b1:09:84:71:38:76:80:0f:2a:0f:24:a8:ea:01:
                    68:ee:c8:65:ab:82:15:61:01:35:fb:5a:9d:2b:57:
                    46:45:09:f4:44:15:c6:ff:8f:6a:cf:88:32:3f:8f:
                    2a:30:8b:9b:15:8d:1c:83:49:ff:08:2c:44:e2:02:
                    47:f7:5f:9a:dd:b5:9d:9e:0b:0f:c6:3d:9a:e6:54:
                    b9:ca:05:23:17:4e:ab:3e:73:2d:e6:0b:8e:05:1a:
                    cd:78:0c:55:b0:92:64:14:7e:4f:57:5f:15:cb:ee:
                    0b:15:64:dd:86:fe:ad:bf:e4:fd:19:7a:43:de:e2:
                    6b:c8:88:39:27:44:bd:1c:83:fa:7d:a4:3b:3f:95:
                    03:48:6e:c4:d0:bd:a7:a2:2b:0a:f4:0c:e5:bb:e1:
                    8c:8b:c0:ca:4a:d8:9b:38:ad:fb:11:19:c0:1c:92:
                    6b:42:62:1e:36:44:98:13:bc:2a:12:c3:f4:b8:09:
                    6a:56:2b:cc:09:37:90:06:27:4b:2c:d9:e4:b5:e8:
                    12:4d:a8:d7:c7:b8:ba:bd:cc:9c:bd:45:83:c3:b5:
                    52:75:e6:94:9f:86:ea:8c:9b:2d:4f:05:7d:17:ce:
                    15:ea:8b:59:74:78:6b:ea:b2:89:9c:b5:b1:a6:0e:
                    e8:8e:6e:14:36:de:ca:f9:8f:63:1d:d9:da:e8:f6:
                    4b:a9:eb
                Exponent: 65537 (0x10001)
        X509v3 extensions:
            X509v3 Basic Constraints: 
                CA:FALSE
            Netscape Comment: 
                Easy-RSA Generated Certificate
            X509v3 Subject Key Identifier: 
                AC:F5:D8:64:C2:AA:15:7C:8B:9C:6F:07:1B:E4:CB:95:1D:28:75:45
            X509v3 Authority Key Identifier: 
                keyid:12:CD:60:04:D2:A0:80:9E:70:ED:C6:99:B8:7B:2C:C6:52:FD:19:A1
                DirName:/C=US/ST=OH/L=Columbus/O=VikingVPN/OU=MyOrganizationalUnit/CN=VikingVPN CA/name=EasyRSA/emailAddress=me@myhost.mydomain
                serial:CF:35:85:EE:80:BF:2A:3E

            X509v3 Extended Key Usage: 
                TLS Web Client Authentication
            X509v3 Key Usage: 
                Digital Signature
    Signature Algorithm: md5WithRSAEncryption
         52:34:f3:a9:23:e4:c4:b9:5e:2f:ec:d5:33:cf:27:0f:30:fc:
         cb:f9:da:df:9a:fa:29:5b:4b:f4:fc:e8:d2:b3:29:96:4c:6f:
         c2:79:c0:35:50:72:84:fe:8f:6a:71:a6:dd:0c:0a:15:13:64:
         db:ad:58:f9:e6:e6:d0:b0:be:c1:30:4f:8d:10:ca:10:3b:a3:
         f8:50:3a:9b:ee:f2:3d:95:87:75:d6:9f:5c:ad:cb:9f:5b:02:
         a5:40:0c:75:4e:5d:9c:5e:55:a4:21:1a:aa:cd:0d:39:15:42:
         87:bc:e6:d5:e9:ee:04:99:7a:69:b5:9a:4c:22:00:05:e6:96:
         a0:0d:2a:10:f4:bf:d6:e5:51:ef:7c:7a:85:5d:f0:c7:26:09:
         34:07:cd:e8:76:45:77:8a:f7:f2:cc:51:34:28:ec:65:a8:ef:
         39:41:a6:4d:3a:67:20:c8:3c:f2:06:d9:b3:24:51:6e:e0:45:
         b6:d3:f1:76:69:cc:f9:b6:51:97:70:38:cb:71:52:6f:a7:2f:
         fc:e8:da:0b:63:26:28:10:2e:b8:0c:0f:b6:f4:70:e9:6d:26:
         e5:dc:e7:02:d1:e2:18:0f:29:13:ee:0b:b6:a5:1b:35:2e:68:
         0a:23:4b:f1:17:01:63:4e:b5:00:dd:82:ae:cb:a0:eb:28:a5:
         87:c1:a3:07:d6:6f:18:e5:90:cd:01:89:93:a5:07:a7:24:3d:
         96:02:32:86:72:22:d6:4d:5c:7c:2a:b8:82:fa:55:4c:f6:87:
         88:8b:a2:9c:59:ca:67:67:42:98:1c:f3:cd:33:a8:12:d7:7e:
         4e:3a:c9:4c:bf:e9:3b:c0:2b:36:11:46:02:87:56:37:53:f0:
         aa:8c:6d:14:98:2c:40:83:45:44:da:86:36:7e:76:21:21:92:
         55:90:bb:51:01:f6:96:81:93:7f:7d:56:30:ff:39:2f:91:c2:
         c3:73:7c:52:5b:65:bc:fe:df:72:e7:84:a9:24:81:6e:a1:79:
         05:68:d8:4c:76:17:83:e8:69:e7:9c:82:22:e6:89:4b:bb:44:
         d3:1e:2c:b5:16:87:c8:e5:f2:c5:e9:95:3e:85:1e:b0:03:f5:
         ae:18:df:61:7d:4b:89:4d:51:53:47:a9:67:2f:d6:81:e2:99:
         04:ae:b4:39:63:c6:52:12:5a:0b:7a:01:a2:86:a4:95:1e:dc:
         4d:69:ae:29:b9:47:a5:7a:bc:d8:d4:63:f7:5a:f4:63:c4:6d:
         31:73:5e:0d:c0:68:4e:e7:cb:ba:45:0e:eb:81:fb:a9:59:ca:
         8b:e3:13:b0:61:01:0f:2e:9a:50:c1:4f:ab:03:de:05:a8:85:
         19:01:6d:e2:46:a5:51:b2
-----BEGIN CERTIFICATE-----
MIIGrDCCBJSgAwIBAgICA/swDQYJKoZIhvcNAQEEBQAwgawxCzAJBgNVBAYTAlVT
MQswCQYDVQQIEwJPSDERMA8GA1UEBxMIQ29sdW1idXMxEjAQBgNVBAoTCVZpa2lu
Z1ZQTjEdMBsGA1UECxMUTXlPcmdhbml6YXRpb25hbFVuaXQxFTATBgNVBAMTDFZp
a2luZ1ZQTiBDQTEQMA4GA1UEKRMHRWFzeVJTQTEhMB8GCSqGSIb3DQEJARYSbWVA
bXlob3N0Lm15ZG9tYWluMB4XDTE0MDIxMTIxMjExNloXDTI0MDIwOTIxMjExNlow
HjEcMBoGA1UEAxMTQ2xpZW50Mzc0Q2VydGNkNGI5ODCCAiIwDQYJKoZIhvcNAQEB
BQADggIPADCCAgoCggIBAMlJSC/IPSAV16INoKwbP96IrBq/q9oqiq8WAwzOHuwp
5To96JESCDPyCDMln965mYdbH8YtGhN5njbCMVf2LYI6nAlp9G0EzqYLpvN3PxBE
MOgA8YolP1P4bBS1EAwiWyziHaHuX4gwUea24QyVtoUac8+FbTy35gUfIb+HoeOy
gRzuCNLtNEVO8C5BrXCjcZKP4xXzM9y5WAk8xE8c/Wgt3RSiiGtnfuRJ+3skRxhZ
5NsuyZnqU1UdkG8YyEAQUsvnJrvMcSPyYZnEzUM/SLJgeMQXOtYG2Ddavxk6TcXm
JEJ1J5NEgDcDdJHyl0svVckxDlLUMYhjngk3oHUIvbEJhHE4doAPKg8kqOoBaO7I
ZauCFWEBNftanStXRkUJ9EQVxv+Pas+IMj+PKjCLmxWNHINJ/wgsROICR/dfmt21
nZ4LD8Y9muZUucoFIxdOqz5zLeYLjgUazXgMVbCSZBR+T1dfFcvuCxVk3Yb+rb/k
/Rl6Q97ia8iIOSdEvRyD+n2kOz+VA0huxNC9p6IrCvQM5bvhjIvAykrYmzit+xEZ
wBySa0JiHjZEmBO8KhLD9LgJalYrzAk3kAYnSyzZ5LXoEk2o18e4ur3MnL1Fg8O1
UnXmlJ+G6oybLU8FfRfOFeqLWXR4a+qyiZy1saYO6I5uFDbeyvmPYx3Z2uj2S6nr
AgMBAAGjggFjMIIBXzAJBgNVHRMEAjAAMC0GCWCGSAGG+EIBDQQgFh5FYXN5LVJT
QSBHZW5lcmF0ZWQgQ2VydGlmaWNhdGUwHQYDVR0OBBYEFKz12GTCqhV8i5xvBxvk
y5UdKHVFMIHhBgNVHSMEgdkwgdaAFBLNYATSoICecO3Gmbh7LMZS/RmhoYGypIGv
MIGsMQswCQYDVQQGEwJVUzELMAkGA1UECBMCT0gxETAPBgNVBAcTCENvbHVtYnVz
MRIwEAYDVQQKEwlWaWtpbmdWUE4xHTAbBgNVBAsTFE15T3JnYW5pemF0aW9uYWxV
bml0MRUwEwYDVQQDEwxWaWtpbmdWUE4gQ0ExEDAOBgNVBCkTB0Vhc3lSU0ExITAf
BgkqhkiG9w0BCQEWEm1lQG15aG9zdC5teWRvbWFpboIJAM81he6Avyo+MBMGA1Ud
JQQMMAoGCCsGAQUFBwMCMAsGA1UdDwQEAwIHgDANBgkqhkiG9w0BAQQFAAOCAgEA
UjTzqSPkxLleL+zVM88nDzD8y/na35r6KVtL9Pzo0rMplkxvwnnANVByhP6PanGm
3QwKFRNk261Y+ebm0LC+wTBPjRDKEDuj+FA6m+7yPZWHddafXK3Ln1sCpUAMdU5d
nF5VpCEaqs0NORVCh7zm1enuBJl6abWaTCIABeaWoA0qEPS/1uVR73x6hV3wxyYJ
NAfN6HZFd4r38sxRNCjsZajvOUGmTTpnIMg88gbZsyRRbuBFttPxdmnM+bZRl3A4
y3FSb6cv/OjaC2MmKBAuuAwPtvRw6W0m5dznAtHiGA8pE+4LtqUbNS5oCiNL8RcB
Y061AN2Crsug6yilh8GjB9ZvGOWQzQGJk6UHpyQ9lgIyhnIi1k1cfCq4gvpVTPaH
iIuinFnKZ2dCmBzzzTOoEtd+TjrJTL/pO8ArNhFGAodWN1PwqoxtFJgsQINFRNqG
Nn52ISGSVZC7UQH2loGTf31WMP85L5HCw3N8UltlvP7fcueEqSSBbqF5BWjYTHYX
g+hp55yCIuaJS7tE0x4stRaHyOXyxemVPoUesAP1rhjfYX1LiU1RU0epZy/WgeKZ
BK60OWPGUhJaC3oBooaklR7cTWmuKblHpXq82NRj91r0Y8RtMXNeDcBoTufLukUO
64H7qVnKi+MTsGEBDy6aUMFPqwPeBaiFGQFt4kalUbI=
-----END CERTIFICATE-----
