Certificate:
    Data:
        Version: 3 (0x2)
        Serial Number: 8530 (0x2152)
    Signature Algorithm: sha256WithRSAEncryption
        Issuer: C=US, ST=OH, L=Columbus, O=VikingVPN, OU=MyOrganizationalUnit, CN=VikingVPN CA/name=EasyRSA/emailAddress=me@myhost.mydomain
        Validity
            Not Before: Jul 23 08:59:29 2016 GMT
            Not After : Jul 21 08:59:29 2026 GMT
        Subject: CN=Client2241Cert847bcd
        Subject Public Key Info:
            Public Key Algorithm: rsaEncryption
                Public-Key: (4096 bit)
                Modulus:
                    00:b4:e4:3a:69:bf:e8:0a:40:8d:25:43:8d:c4:34:
                    0f:89:fe:c6:41:26:18:45:e1:ec:00:47:14:87:72:
                    c3:6e:28:bd:dd:0b:47:4f:3c:1b:f2:ce:ff:b4:c2:
                    4a:bb:ee:aa:b7:6f:93:13:dc:ab:c2:39:f5:0a:0b:
                    36:07:ef:13:f0:1a:48:13:bd:b0:06:94:ba:df:f7:
                    8a:86:b6:89:a6:0c:81:a6:22:a2:11:18:c4:9d:a3:
                    4b:a2:ae:59:9e:0c:45:e7:83:30:5f:c9:ac:af:5c:
                    c5:a9:17:c2:81:b9:ae:bd:5d:bc:15:ac:a9:73:c7:
                    50:d1:ed:3b:50:5c:ab:02:47:17:b9:1e:01:4d:d1:
                    ba:70:ad:d1:48:84:4b:f7:7e:d7:9d:61:41:20:95:
                    7d:02:ef:ce:75:a2:1d:93:a9:17:bc:68:9c:69:58:
                    20:7c:fa:35:10:03:c2:9a:ef:b5:d2:4a:98:2a:71:
                    54:02:ac:75:50:f5:7b:ef:fa:d4:36:be:20:51:c7:
                    a9:9b:a7:26:f0:c5:41:20:d3:e5:8a:ff:9f:12:22:
                    6d:ad:b6:c8:ed:49:ff:1f:06:d5:37:0c:39:68:8d:
                    87:9d:05:2d:35:47:6a:cd:85:51:64:27:6a:dd:74:
                    7f:9d:fc:72:ad:a1:93:ad:dc:ae:ce:59:97:e0:e4:
                    d1:92:b8:c8:82:c8:92:97:45:67:a8:50:7a:7e:91:
                    4e:87:70:7c:91:9e:d8:cc:92:b7:e3:0b:ec:c6:92:
                    c3:c7:02:0b:a2:ad:67:84:aa:54:af:41:16:00:0a:
                    f8:ad:95:f6:95:3f:05:25:d5:9a:b9:3c:a2:8c:df:
                    87:23:59:01:95:c5:18:af:17:75:af:15:93:3e:05:
                    c5:80:c5:71:2e:a9:94:8b:d7:94:0a:16:8f:44:38:
                    ed:f3:db:dc:37:46:a9:28:7b:c9:75:3d:48:a0:28:
                    77:67:35:02:d7:ef:9d:05:e0:01:9b:f1:54:ba:30:
                    52:50:93:13:24:9b:39:6f:0e:15:33:2a:62:b5:02:
                    01:46:06:f9:94:4e:5e:98:03:7b:76:8a:ea:8e:26:
                    84:91:50:a5:c7:0d:ab:1e:58:6e:7f:a5:19:b8:d1:
                    95:2d:ea:47:f1:f0:90:df:64:b7:93:2b:d8:da:f3:
                    e6:d7:c2:ff:40:7d:ce:88:8d:01:2f:98:39:33:8f:
                    4c:ac:5c:40:7b:de:76:23:9e:3b:74:8a:2e:f9:73:
                    d1:c0:22:32:93:d2:26:45:13:21:94:03:2c:c3:5f:
                    4d:0b:b8:7b:36:41:42:69:12:f7:60:ff:0c:93:ee:
                    7e:75:30:52:f7:47:c9:d1:eb:22:c4:4b:5d:33:93:
                    29:72:15
                Exponent: 65537 (0x10001)
        X509v3 extensions:
            X509v3 Basic Constraints: 
                CA:FALSE
            Netscape Comment: 
                Easy-RSA Generated Certificate
            X509v3 Subject Key Identifier: 
                C8:DB:00:CF:1C:F0:3C:35:02:B4:5F:42:23:68:63:09:C2:A8:1D:79
            X509v3 Authority Key Identifier: 
                keyid:12:CD:60:04:D2:A0:80:9E:70:ED:C6:99:B8:7B:2C:C6:52:FD:19:A1
                DirName:/C=US/ST=OH/L=Columbus/O=VikingVPN/OU=MyOrganizationalUnit/CN=VikingVPN CA/name=EasyRSA/emailAddress=me@myhost.mydomain
                serial:CF:35:85:EE:80:BF:2A:3E

            X509v3 Extended Key Usage: 
                TLS Web Client Authentication
            X509v3 Key Usage: 
                Digital Signature
    Signature Algorithm: sha256WithRSAEncryption
         0c:1b:c2:f2:76:dc:e4:a8:e8:97:f6:65:9c:87:9e:5b:4b:fe:
         6e:0d:96:3e:d9:36:7c:db:13:ad:6c:d5:0a:68:88:6d:a7:83:
         ed:6b:85:84:dc:28:39:d7:77:7a:63:39:e1:d5:5f:d6:30:2f:
         17:18:38:a9:48:9f:e4:3d:67:83:83:82:f5:9f:d6:42:51:40:
         71:68:21:ed:88:02:fa:5e:ea:41:91:c8:dc:a7:4b:f8:21:6d:
         bd:64:88:c7:59:3c:e6:07:1f:2d:03:4e:5f:fe:cd:55:bd:b3:
         4b:13:9b:f3:3a:80:a3:63:13:35:1a:ba:ea:b8:2f:a6:69:59:
         c4:bf:33:f6:2d:92:8a:fc:36:55:13:7a:04:4d:04:9c:35:63:
         ed:14:65:df:3f:b8:b4:ba:7b:0b:6c:7a:a6:5f:6c:1e:63:fa:
         97:81:7a:5e:8b:1a:f7:65:89:bd:80:26:f2:0f:46:10:64:ea:
         00:06:55:86:e0:90:30:dd:98:ad:bd:5b:3f:45:9c:22:b3:3d:
         97:c2:bb:64:60:11:94:05:bd:52:a8:2b:ae:83:af:00:cf:b5:
         72:67:b8:a8:ab:b4:4f:05:62:27:6d:ed:88:97:67:72:04:38:
         e6:7b:3e:38:2a:66:e7:33:2e:c6:72:04:ce:0f:38:11:3a:12:
         6d:68:e9:b1:61:ab:85:ae:7b:cd:23:5f:9c:39:2c:56:af:41:
         14:11:4a:65:e9:f0:22:95:4e:fd:1c:43:0d:08:60:aa:9a:f1:
         46:0a:7e:c2:d3:00:49:92:bf:a3:30:74:f9:42:c7:de:f1:bf:
         ff:0a:aa:32:37:1b:76:4f:ca:61:ee:e2:71:03:7a:6d:59:f8:
         45:52:89:ce:55:f3:4c:54:19:69:cc:37:fa:ce:2d:1c:47:bc:
         4b:97:72:04:60:dd:0f:ef:85:40:3e:d2:86:e1:97:9d:50:87:
         fc:56:57:a6:7f:ad:36:b4:4d:ce:a2:07:aa:ce:f4:fc:f7:c2:
         d1:36:97:2c:e4:72:1f:8e:49:92:13:f0:01:b1:74:73:aa:72:
         f0:b8:8f:2d:e5:dd:e1:45:0b:4f:57:8a:64:a6:42:ff:f3:5b:
         fa:1b:e0:d6:06:0d:e8:4f:95:14:47:0f:ed:a5:06:54:04:34:
         ba:38:70:32:ad:1d:ce:f9:82:22:65:38:7f:e5:e1:a9:a7:45:
         29:61:17:fe:e2:98:bc:de:26:dc:d8:00:6b:19:1f:c8:c7:b2:
         d6:da:5e:52:96:b5:00:6c:a7:6b:2b:ff:d1:69:98:8a:5d:1a:
         f9:3e:17:2c:86:2d:a4:e3:09:6a:e7:25:41:d9:eb:1e:2e:26:
         7f:3e:bd:b7:81:b7:bf:e1
-----BEGIN CERTIFICATE-----
MIIGrTCCBJWgAwIBAgICIVIwDQYJKoZIhvcNAQELBQAwgawxCzAJBgNVBAYTAlVT
MQswCQYDVQQIEwJPSDERMA8GA1UEBxMIQ29sdW1idXMxEjAQBgNVBAoTCVZpa2lu
Z1ZQTjEdMBsGA1UECxMUTXlPcmdhbml6YXRpb25hbFVuaXQxFTATBgNVBAMTDFZp
a2luZ1ZQTiBDQTEQMA4GA1UEKRMHRWFzeVJTQTEhMB8GCSqGSIb3DQEJARYSbWVA
bXlob3N0Lm15ZG9tYWluMB4XDTE2MDcyMzA4NTkyOVoXDTI2MDcyMTA4NTkyOVow
HzEdMBsGA1UEAxMUQ2xpZW50MjI0MUNlcnQ4NDdiY2QwggIiMA0GCSqGSIb3DQEB
AQUAA4ICDwAwggIKAoICAQC05Dppv+gKQI0lQ43ENA+J/sZBJhhF4ewARxSHcsNu
KL3dC0dPPBvyzv+0wkq77qq3b5MT3KvCOfUKCzYH7xPwGkgTvbAGlLrf94qGtomm
DIGmIqIRGMSdo0uirlmeDEXngzBfyayvXMWpF8KBua69XbwVrKlzx1DR7TtQXKsC
Rxe5HgFN0bpwrdFIhEv3ftedYUEglX0C7851oh2TqRe8aJxpWCB8+jUQA8Ka77XS
SpgqcVQCrHVQ9Xvv+tQ2viBRx6mbpybwxUEg0+WK/58SIm2ttsjtSf8fBtU3DDlo
jYedBS01R2rNhVFkJ2rddH+d/HKtoZOt3K7OWZfg5NGSuMiCyJKXRWeoUHp+kU6H
cHyRntjMkrfjC+zGksPHAguirWeEqlSvQRYACvitlfaVPwUl1Zq5PKKM34cjWQGV
xRivF3WvFZM+BcWAxXEuqZSL15QKFo9EOO3z29w3Rqkoe8l1PUigKHdnNQLX750F
4AGb8VS6MFJQkxMkmzlvDhUzKmK1AgFGBvmUTl6YA3t2iuqOJoSRUKXHDaseWG5/
pRm40ZUt6kfx8JDfZLeTK9ja8+bXwv9Afc6IjQEvmDkzj0ysXEB73nYjnjt0ii75
c9HAIjKT0iZFEyGUAyzDX00LuHs2QUJpEvdg/wyT7n51MFL3R8nR6yLES10zkyly
FQIDAQABo4IBYzCCAV8wCQYDVR0TBAIwADAtBglghkgBhvhCAQ0EIBYeRWFzeS1S
U0EgR2VuZXJhdGVkIENlcnRpZmljYXRlMB0GA1UdDgQWBBTI2wDPHPA8NQK0X0Ij
aGMJwqgdeTCB4QYDVR0jBIHZMIHWgBQSzWAE0qCAnnDtxpm4eyzGUv0ZoaGBsqSB
rzCBrDELMAkGA1UEBhMCVVMxCzAJBgNVBAgTAk9IMREwDwYDVQQHEwhDb2x1bWJ1
czESMBAGA1UEChMJVmlraW5nVlBOMR0wGwYDVQQLExRNeU9yZ2FuaXphdGlvbmFs
VW5pdDEVMBMGA1UEAxMMVmlraW5nVlBOIENBMRAwDgYDVQQpEwdFYXN5UlNBMSEw
HwYJKoZIhvcNAQkBFhJtZUBteWhvc3QubXlkb21haW6CCQDPNYXugL8qPjATBgNV
HSUEDDAKBggrBgEFBQcDAjALBgNVHQ8EBAMCB4AwDQYJKoZIhvcNAQELBQADggIB
AAwbwvJ23OSo6Jf2ZZyHnltL/m4Nlj7ZNnzbE61s1QpoiG2ng+1rhYTcKDnXd3pj
OeHVX9YwLxcYOKlIn+Q9Z4ODgvWf1kJRQHFoIe2IAvpe6kGRyNynS/ghbb1kiMdZ
POYHHy0DTl/+zVW9s0sTm/M6gKNjEzUauuq4L6ZpWcS/M/Ytkor8NlUTegRNBJw1
Y+0UZd8/uLS6ewtseqZfbB5j+peBel6LGvdlib2AJvIPRhBk6gAGVYbgkDDdmK29
Wz9FnCKzPZfCu2RgEZQFvVKoK66DrwDPtXJnuKirtE8FYidt7YiXZ3IEOOZ7Pjgq
ZuczLsZyBM4POBE6Em1o6bFhq4Wue80jX5w5LFavQRQRSmXp8CKVTv0cQw0IYKqa
8UYKfsLTAEmSv6MwdPlCx97xv/8KqjI3G3ZPymHu4nEDem1Z+EVSic5V80xUGWnM
N/rOLRxHvEuXcgRg3Q/vhUA+0obhl51Qh/xWV6Z/rTa0Tc6iB6rO9Pz3wtE2lyzk
ch+OSZIT8AGxdHOqcvC4jy3l3eFFC09XimSmQv/zW/ob4NYGDehPlRRHD+2lBlQE
NLo4cDKtHc75giJlOH/l4amnRSlhF/7imLzeJtzYAGsZH8jHstbaXlKWtQBsp2sr
/9FpmIpdGvk+FyyGLaTjCWrnJUHZ6x4uJn8+vbeBt7/h
-----END CERTIFICATE-----
