Certificate:
    Data:
        Version: 3 (0x2)
        Serial Number: 8430 (0x20ee)
    Signature Algorithm: md5WithRSAEncryption
        Issuer: C=US, ST=OH, L=Columbus, O=VikingVPN, OU=MyOrganizationalUnit, CN=VikingVPN CA/name=EasyRSA/emailAddress=me@myhost.mydomain
        Validity
            Not Before: Jul  6 21:29:49 2016 GMT
            Not After : Jul  4 21:29:49 2026 GMT
        Subject: CN=Client143Cert6e7515
        Subject Public Key Info:
            Public Key Algorithm: rsaEncryption
                Public-Key: (4096 bit)
                Modulus:
                    00:9d:9e:f2:21:61:5a:57:e5:23:d5:a0:b8:97:45:
                    e3:4a:77:98:e8:9c:50:ee:b2:0c:8a:d2:77:07:ea:
                    5b:c9:ad:d0:86:83:21:b2:97:b6:5f:96:db:4e:d3:
                    48:2d:d8:de:16:9a:1e:a2:b6:ed:2e:7f:cc:46:83:
                    62:4f:1e:59:be:36:44:cc:9b:fc:54:73:2a:73:e2:
                    74:e1:06:5c:56:d9:d2:93:1a:56:00:d6:ea:35:96:
                    73:e5:c1:44:12:70:00:62:29:92:cd:ba:d8:29:79:
                    dc:bf:3e:03:cf:8d:e2:d0:70:e2:e8:74:9c:93:eb:
                    73:4b:c2:5a:d5:bd:fa:e5:b9:49:33:f4:0b:bc:30:
                    57:d7:4c:9d:ca:95:a6:07:bc:e7:bf:ca:ef:27:c5:
                    94:23:0c:06:f6:90:46:29:6c:db:6a:c6:c9:df:ad:
                    5a:0e:e0:ac:47:1a:04:63:8c:25:38:36:c6:c9:06:
                    9f:e2:90:34:d6:78:7a:2d:43:1c:c2:6e:65:c1:d6:
                    9c:8a:20:85:6d:38:f8:04:92:06:ed:a5:22:4d:72:
                    70:59:d9:3b:b6:61:36:3c:7d:c4:34:27:b0:12:9d:
                    53:10:cb:00:96:7f:d1:a9:63:78:4c:1c:96:7c:f1:
                    8d:96:84:d8:7b:73:c2:e8:95:28:48:42:c1:fd:68:
                    16:30:e7:f6:62:79:24:52:06:b0:b8:96:1a:ac:3e:
                    2b:58:c7:45:b8:34:5e:75:05:81:dd:02:ec:65:e3:
                    e9:58:1f:ea:5c:8d:d2:a8:e4:89:3b:a1:aa:10:9c:
                    fd:b2:a3:7b:33:11:35:c0:88:49:e2:8d:16:d4:4a:
                    a3:e1:5c:b6:7c:62:4e:27:1f:6d:d4:67:b8:aa:81:
                    04:b4:08:3d:d3:8f:bb:ea:48:f1:f2:8c:51:6f:11:
                    72:9f:d0:e7:bc:59:93:65:ed:e7:cd:69:4e:97:26:
                    5a:1c:99:fe:4a:77:bf:6a:e2:5c:98:52:a9:c9:f7:
                    f7:e2:04:4e:f4:c5:52:cd:1b:fc:c6:0b:26:b6:3e:
                    18:ca:83:89:94:79:3b:21:fa:06:5d:78:bb:61:f1:
                    76:e9:76:52:da:fa:da:3c:2f:07:df:c6:48:94:31:
                    06:11:1c:25:e7:02:a1:97:f8:4d:77:ee:f7:e1:f4:
                    a8:3c:d0:c2:1e:a8:3d:a0:2c:c6:7e:10:17:f2:22:
                    f7:54:4f:f9:64:b8:8a:e7:92:3f:0d:56:90:03:2d:
                    08:e1:c5:e0:70:f8:2d:ad:53:3b:54:8b:78:82:bd:
                    28:58:9b:6e:c9:32:82:5d:6a:b2:10:6e:af:26:86:
                    de:97:33:b0:91:a4:ea:54:fd:a1:35:1c:c3:a1:30:
                    1f:37:47
                Exponent: 65537 (0x10001)
        X509v3 extensions:
            X509v3 Basic Constraints: 
                CA:FALSE
            Netscape Comment: 
                Easy-RSA Generated Certificate
            X509v3 Subject Key Identifier: 
                FD:EC:BB:32:E9:34:C8:35:1B:B2:A3:51:3B:12:62:50:6B:2B:48:9E
            X509v3 Authority Key Identifier: 
                keyid:12:CD:60:04:D2:A0:80:9E:70:ED:C6:99:B8:7B:2C:C6:52:FD:19:A1
                DirName:/C=US/ST=OH/L=Columbus/O=VikingVPN/OU=MyOrganizationalUnit/CN=VikingVPN CA/name=EasyRSA/emailAddress=me@myhost.mydomain
                serial:CF:35:85:EE:80:BF:2A:3E

            X509v3 Extended Key Usage: 
                TLS Web Client Authentication
            X509v3 Key Usage: 
                Digital Signature
    Signature Algorithm: md5WithRSAEncryption
         4f:01:05:92:0f:ef:2f:9d:b7:4f:ea:9b:cc:74:de:6d:46:56:
         c2:b5:bb:9d:48:12:02:8c:59:7c:6b:ea:29:a5:be:e1:a0:db:
         86:57:b6:e9:2c:aa:00:cf:f3:d6:56:39:af:dc:9e:f3:86:5f:
         2c:63:62:2f:5d:13:cb:e5:7e:1c:01:0b:a2:dc:11:38:29:bf:
         9d:37:14:89:e3:08:d5:f4:22:ca:c5:a1:96:0e:5c:9d:44:89:
         94:a0:66:d3:3e:ad:66:d3:46:c5:3c:99:ea:e6:bd:c4:09:b8:
         64:63:a5:b6:c6:ee:e4:b6:15:7f:3d:b1:cf:a4:c9:a6:da:98:
         a3:3f:80:ce:77:d9:3e:1f:07:ec:41:c1:12:40:88:e0:b0:7e:
         1d:32:c5:65:ba:f0:e8:45:72:da:63:5e:d2:ca:6d:18:c1:55:
         b9:82:a2:a0:ec:a8:0f:9e:b3:b7:17:4c:5a:b0:c5:ee:6a:33:
         ae:83:88:18:ac:c3:85:72:c3:59:a6:33:47:8b:3a:9f:dc:f7:
         29:13:eb:16:b2:05:e6:a1:9a:a2:ab:45:74:07:b4:71:44:9b:
         bb:3d:fa:92:39:9c:7e:e6:82:b7:25:4a:23:15:7a:49:72:62:
         a5:8c:09:ac:25:29:f8:72:fe:c1:dd:be:b2:4b:66:ed:24:4b:
         82:01:b1:ae:97:0f:c4:4f:92:72:ae:82:49:9c:fc:e7:fe:e2:
         6e:b5:e9:94:cb:a0:56:3e:16:b4:19:2c:23:fe:25:fb:16:c4:
         a3:3e:5a:38:af:2e:02:d5:9f:e1:8b:b2:52:3d:b7:64:e2:41:
         d1:e7:20:63:79:d0:98:bc:58:03:be:af:b5:1f:e8:35:7b:36:
         7b:d2:cb:15:e2:45:1c:ba:fb:32:ec:14:e7:d4:7a:ab:f2:dc:
         46:5e:18:b3:3c:3b:b0:48:9a:14:02:1c:b2:3d:56:73:fe:ba:
         fd:b7:54:6d:52:be:6b:44:90:40:e1:80:0f:18:92:15:7f:91:
         b6:d3:e5:e7:7b:1a:cd:04:64:c9:85:db:a9:3c:ec:31:84:b5:
         2e:ca:79:c4:bb:00:34:96:5c:18:5a:de:bb:26:65:d2:6c:ed:
         6d:5c:f2:ce:35:0f:4b:6c:7a:4c:22:a1:5c:82:49:f3:e3:1a:
         be:1b:38:78:f0:0e:3b:0c:37:67:24:03:59:c6:3f:4f:61:27:
         3b:8c:e4:9d:f1:a6:30:ac:b1:01:84:f2:2a:58:14:52:15:5d:
         c2:15:74:a7:5e:c4:f2:c2:c5:16:97:0e:77:b0:7c:69:dc:3f:
         db:d1:09:80:27:1a:90:1a:a1:85:6d:b8:7f:6f:fa:72:88:ad:
         43:5d:0b:6d:9c:ec:05:b3
-----BEGIN CERTIFICATE-----
MIIGrDCCBJSgAwIBAgICIO4wDQYJKoZIhvcNAQEEBQAwgawxCzAJBgNVBAYTAlVT
MQswCQYDVQQIEwJPSDERMA8GA1UEBxMIQ29sdW1idXMxEjAQBgNVBAoTCVZpa2lu
Z1ZQTjEdMBsGA1UECxMUTXlPcmdhbml6YXRpb25hbFVuaXQxFTATBgNVBAMTDFZp
a2luZ1ZQTiBDQTEQMA4GA1UEKRMHRWFzeVJTQTEhMB8GCSqGSIb3DQEJARYSbWVA
bXlob3N0Lm15ZG9tYWluMB4XDTE2MDcwNjIxMjk0OVoXDTI2MDcwNDIxMjk0OVow
HjEcMBoGA1UEAxMTQ2xpZW50MTQzQ2VydDZlNzUxNTCCAiIwDQYJKoZIhvcNAQEB
BQADggIPADCCAgoCggIBAJ2e8iFhWlflI9WguJdF40p3mOicUO6yDIrSdwfqW8mt
0IaDIbKXtl+W207TSC3Y3haaHqK27S5/zEaDYk8eWb42RMyb/FRzKnPidOEGXFbZ
0pMaVgDW6jWWc+XBRBJwAGIpks262Cl53L8+A8+N4tBw4uh0nJPrc0vCWtW9+uW5
STP0C7wwV9dMncqVpge857/K7yfFlCMMBvaQRils22rGyd+tWg7grEcaBGOMJTg2
xskGn+KQNNZ4ei1DHMJuZcHWnIoghW04+ASSBu2lIk1ycFnZO7ZhNjx9xDQnsBKd
UxDLAJZ/0aljeEwclnzxjZaE2HtzwuiVKEhCwf1oFjDn9mJ5JFIGsLiWGqw+K1jH
Rbg0XnUFgd0C7GXj6Vgf6lyN0qjkiTuhqhCc/bKjezMRNcCISeKNFtRKo+Fctnxi
TicfbdRnuKqBBLQIPdOPu+pI8fKMUW8Rcp/Q57xZk2Xt581pTpcmWhyZ/kp3v2ri
XJhSqcn39+IETvTFUs0b/MYLJrY+GMqDiZR5OyH6Bl14u2Hxdul2Utr62jwvB9/G
SJQxBhEcJecCoZf4TXfu9+H0qDzQwh6oPaAsxn4QF/Ii91RP+WS4iueSPw1WkAMt
COHF4HD4La1TO1SLeIK9KFibbskygl1qshBuryaG3pczsJGk6lT9oTUcw6EwHzdH
AgMBAAGjggFjMIIBXzAJBgNVHRMEAjAAMC0GCWCGSAGG+EIBDQQgFh5FYXN5LVJT
QSBHZW5lcmF0ZWQgQ2VydGlmaWNhdGUwHQYDVR0OBBYEFP3suzLpNMg1G7KjUTsS
YlBrK0ieMIHhBgNVHSMEgdkwgdaAFBLNYATSoICecO3Gmbh7LMZS/RmhoYGypIGv
MIGsMQswCQYDVQQGEwJVUzELMAkGA1UECBMCT0gxETAPBgNVBAcTCENvbHVtYnVz
MRIwEAYDVQQKEwlWaWtpbmdWUE4xHTAbBgNVBAsTFE15T3JnYW5pemF0aW9uYWxV
bml0MRUwEwYDVQQDEwxWaWtpbmdWUE4gQ0ExEDAOBgNVBCkTB0Vhc3lSU0ExITAf
BgkqhkiG9w0BCQEWEm1lQG15aG9zdC5teWRvbWFpboIJAM81he6Avyo+MBMGA1Ud
JQQMMAoGCCsGAQUFBwMCMAsGA1UdDwQEAwIHgDANBgkqhkiG9w0BAQQFAAOCAgEA
TwEFkg/vL523T+qbzHTebUZWwrW7nUgSAoxZfGvqKaW+4aDbhle26SyqAM/z1lY5
r9ye84ZfLGNiL10Ty+V+HAELotwROCm/nTcUieMI1fQiysWhlg5cnUSJlKBm0z6t
ZtNGxTyZ6ua9xAm4ZGOltsbu5LYVfz2xz6TJptqYoz+AznfZPh8H7EHBEkCI4LB+
HTLFZbrw6EVy2mNe0sptGMFVuYKioOyoD56ztxdMWrDF7mozroOIGKzDhXLDWaYz
R4s6n9z3KRPrFrIF5qGaoqtFdAe0cUSbuz36kjmcfuaCtyVKIxV6SXJipYwJrCUp
+HL+wd2+sktm7SRLggGxrpcPxE+Scq6CSZz85/7ibrXplMugVj4WtBksI/4l+xbE
oz5aOK8uAtWf4YuyUj23ZOJB0ecgY3nQmLxYA76vtR/oNXs2e9LLFeJFHLr7MuwU
59R6q/LcRl4Yszw7sEiaFAIcsj1Wc/66/bdUbVK+a0SQQOGADxiSFX+RttPl53sa
zQRkyYXbqTzsMYS1Lsp5xLsANJZcGFreuyZl0mztbVzyzjUPS2x6TCKhXIJJ8+Ma
vhs4ePAOOww3ZyQDWcY/T2EnO4zknfGmMKyxAYTyKlgUUhVdwhV0p17E8sLFFpcO
d7B8adw/29EJgCcakBqhhW24f2/6coitQ10LbZzsBbM=
-----END CERTIFICATE-----
