Certificate:
    Data:
        Version: 3 (0x2)
        Serial Number: 3971 (0xf83)
    Signature Algorithm: md5WithRSAEncryption
        Issuer: C=US, ST=OH, L=Columbus, O=VikingVPN, OU=MyOrganizationalUnit, CN=VikingVPN CA/name=EasyRSA/emailAddress=me@myhost.mydomain
        Validity
            Not Before: Jan  2 21:17:29 2015 GMT
            Not After : Dec 30 21:17:29 2024 GMT
        Subject: CN=Client801Cert0f85fa
        Subject Public Key Info:
            Public Key Algorithm: rsaEncryption
                Public-Key: (4096 bit)
                Modulus:
                    00:c0:d5:b6:0f:39:8a:76:50:82:d9:48:c0:75:d5:
                    53:9e:25:d6:01:bd:8c:3e:4a:e9:3d:40:a9:5e:da:
                    82:c8:c2:c5:16:3d:e0:6c:e9:8c:f9:6c:35:19:c7:
                    9f:90:66:79:82:8a:20:3a:ef:e2:28:f8:36:ba:d2:
                    8c:47:b8:33:2b:25:6d:57:f0:46:91:30:7e:80:ff:
                    29:8d:00:f9:09:da:d7:d8:fc:23:50:8d:80:02:8f:
                    b4:9b:4a:34:4b:67:5a:74:74:f4:a4:36:00:22:a2:
                    49:44:0e:c7:db:c0:a7:44:64:17:66:33:38:5c:7f:
                    85:cb:8c:83:e1:47:c1:be:55:78:db:67:f7:83:8c:
                    27:0c:80:a0:bf:ca:00:0e:ac:5c:a5:a4:08:7e:ea:
                    92:71:c1:f7:5c:00:73:6e:8d:37:3b:3c:16:89:2d:
                    01:5c:82:89:26:55:ce:a8:3d:da:06:06:5f:5f:73:
                    fc:b4:f6:0f:8f:76:0d:78:63:3d:7b:26:6a:29:8f:
                    1e:0e:77:55:02:07:93:ca:98:23:65:59:70:c4:e8:
                    4c:46:8a:c5:6b:d0:a9:18:b7:b9:7c:8c:a0:e5:00:
                    5b:0d:ca:a4:9e:2a:b0:a1:38:b9:8c:d1:cf:8a:b1:
                    e8:5c:94:65:45:7b:30:7f:a1:ec:c7:50:8c:ae:65:
                    1b:b6:32:6d:b3:6d:41:15:81:aa:45:bf:ad:fc:5e:
                    b3:cf:0f:6a:2e:58:6b:3b:b5:d0:69:1f:44:df:75:
                    1f:ae:7d:62:6b:de:7e:ac:4c:d0:70:ab:33:38:b5:
                    33:0c:de:e3:cd:63:ae:8b:84:4c:19:3a:82:ef:bc:
                    78:d7:05:3d:7f:8e:e5:93:e0:98:5a:94:02:6e:3f:
                    90:39:e0:e3:29:75:20:4f:e1:dd:ab:87:f9:e7:03:
                    31:41:3f:41:26:36:72:f3:46:c5:d0:bd:1e:18:9e:
                    6c:e5:e4:7c:70:d0:39:17:5e:5a:a9:12:a4:f6:e4:
                    7c:db:65:1b:a1:a3:ce:7a:65:16:8b:a6:91:d7:b0:
                    5b:fb:ec:1c:fd:6f:fa:f4:44:e0:90:8d:c1:d3:e5:
                    f6:d9:5a:4a:d3:cd:2d:e1:29:26:00:2b:ce:d8:98:
                    0d:19:72:28:14:67:67:3c:ac:5c:a1:d2:e7:bf:18:
                    8f:3f:1f:22:3a:3e:46:b1:d7:22:9d:b4:2c:de:83:
                    14:32:87:af:3e:90:19:69:a0:ab:b6:69:9e:32:fb:
                    0f:07:0e:26:e5:20:00:82:93:52:2f:ab:11:37:28:
                    ef:b3:19:9f:c3:7f:64:5a:18:29:e4:38:f1:73:cd:
                    9a:83:8e:94:18:7a:ca:c4:63:2a:6d:c9:ab:59:3e:
                    e3:a1:79
                Exponent: 65537 (0x10001)
        X509v3 extensions:
            X509v3 Basic Constraints: 
                CA:FALSE
            Netscape Comment: 
                Easy-RSA Generated Certificate
            X509v3 Subject Key Identifier: 
                71:BC:40:50:C4:27:6E:FB:30:57:0E:C4:D7:2A:8A:15:D8:75:49:34
            X509v3 Authority Key Identifier: 
                keyid:12:CD:60:04:D2:A0:80:9E:70:ED:C6:99:B8:7B:2C:C6:52:FD:19:A1
                DirName:/C=US/ST=OH/L=Columbus/O=VikingVPN/OU=MyOrganizationalUnit/CN=VikingVPN CA/name=EasyRSA/emailAddress=me@myhost.mydomain
                serial:CF:35:85:EE:80:BF:2A:3E

            X509v3 Extended Key Usage: 
                TLS Web Client Authentication
            X509v3 Key Usage: 
                Digital Signature
    Signature Algorithm: md5WithRSAEncryption
         90:02:86:3e:cc:67:d5:3c:c7:53:43:70:b2:84:ea:01:a4:1f:
         ad:52:51:85:a2:a0:11:85:78:13:73:a8:b9:81:25:85:86:c4:
         2b:44:3c:73:ee:d0:04:46:b3:50:66:c9:a8:07:e0:b2:9f:f8:
         23:05:f8:79:ed:87:22:f6:13:63:5f:c8:09:b1:65:18:ee:2f:
         8e:59:14:d0:f3:44:77:c4:90:32:18:1a:b3:83:a9:c4:19:f6:
         f0:d2:33:1f:df:4f:db:e5:75:fa:13:6d:e5:4e:f8:36:ce:d6:
         af:81:99:c6:ba:58:81:57:53:f7:74:73:18:70:f0:60:ab:1a:
         fc:cb:2a:06:c0:0f:0c:d9:de:6b:d7:c5:73:2d:df:83:8d:28:
         9f:05:fd:09:01:36:92:43:8a:41:3a:94:3b:90:41:56:f1:ee:
         8e:a3:0f:02:17:df:f8:9c:84:cf:87:57:9d:8c:47:65:3a:a6:
         04:9d:ca:44:01:43:4f:15:2a:43:af:24:0c:61:1a:c2:0c:1d:
         b4:f4:e8:35:b1:3b:82:4e:40:71:eb:27:09:ac:c9:b3:81:ed:
         28:23:e0:e8:65:af:6e:de:45:93:7e:f8:e5:10:5c:9f:e0:d5:
         db:48:7d:af:6b:7a:24:72:fb:59:b5:75:dc:fa:22:fe:cc:3b:
         1d:5a:41:e7:42:ce:a4:d1:21:68:0f:78:14:b7:08:a0:af:65:
         04:2c:5a:1c:14:ca:a1:31:2e:85:14:35:ba:a7:59:ed:8d:bb:
         50:a5:be:53:b8:98:21:39:02:54:c8:07:68:8c:99:c5:60:94:
         1b:4d:43:ac:5a:76:7d:c0:f6:cb:fa:b2:90:a7:75:b6:a3:e6:
         33:87:f7:d5:ea:a9:4b:51:08:86:1d:aa:ec:24:13:52:e6:15:
         9b:d3:96:6e:c3:33:53:6c:84:06:88:ea:16:2f:9a:c1:3a:9e:
         a3:e6:99:1c:f9:0c:44:9d:65:a2:02:c0:07:95:c0:1c:98:01:
         45:1c:cb:a8:3f:15:c4:65:82:99:15:f5:5b:67:03:51:2c:92:
         6c:11:30:dc:af:ab:d2:ab:dd:85:1e:13:41:77:49:be:4a:d6:
         20:04:1e:07:07:10:b2:5f:ba:fe:15:b6:08:b8:ef:a2:40:a0:
         c7:5d:f4:e8:68:0b:04:04:6a:b3:41:63:62:a7:e9:43:b0:80:
         92:dc:a6:ee:f6:4d:14:06:df:c9:f3:a3:f6:9a:7e:c4:71:f9:
         6b:ed:14:d1:27:69:df:a8:1e:19:a5:b0:9c:23:35:a2:5e:9a:
         99:2d:ba:37:f7:09:26:0d:16:9f:e2:9f:a4:91:b0:66:63:14:
         a0:83:c1:0c:77:0d:ab:83
-----BEGIN CERTIFICATE-----
MIIGrDCCBJSgAwIBAgICD4MwDQYJKoZIhvcNAQEEBQAwgawxCzAJBgNVBAYTAlVT
MQswCQYDVQQIEwJPSDERMA8GA1UEBxMIQ29sdW1idXMxEjAQBgNVBAoTCVZpa2lu
Z1ZQTjEdMBsGA1UECxMUTXlPcmdhbml6YXRpb25hbFVuaXQxFTATBgNVBAMTDFZp
a2luZ1ZQTiBDQTEQMA4GA1UEKRMHRWFzeVJTQTEhMB8GCSqGSIb3DQEJARYSbWVA
bXlob3N0Lm15ZG9tYWluMB4XDTE1MDEwMjIxMTcyOVoXDTI0MTIzMDIxMTcyOVow
HjEcMBoGA1UEAxMTQ2xpZW50ODAxQ2VydDBmODVmYTCCAiIwDQYJKoZIhvcNAQEB
BQADggIPADCCAgoCggIBAMDVtg85inZQgtlIwHXVU54l1gG9jD5K6T1AqV7agsjC
xRY94GzpjPlsNRnHn5BmeYKKIDrv4ij4NrrSjEe4MyslbVfwRpEwfoD/KY0A+Qna
19j8I1CNgAKPtJtKNEtnWnR09KQ2ACKiSUQOx9vAp0RkF2YzOFx/hcuMg+FHwb5V
eNtn94OMJwyAoL/KAA6sXKWkCH7qknHB91wAc26NNzs8FoktAVyCiSZVzqg92gYG
X19z/LT2D492DXhjPXsmaimPHg53VQIHk8qYI2VZcMToTEaKxWvQqRi3uXyMoOUA
Ww3KpJ4qsKE4uYzRz4qx6FyUZUV7MH+h7MdQjK5lG7YybbNtQRWBqkW/rfxes88P
ai5Yazu10GkfRN91H659YmvefqxM0HCrMzi1Mwze481jrouETBk6gu+8eNcFPX+O
5ZPgmFqUAm4/kDng4yl1IE/h3auH+ecDMUE/QSY2cvNGxdC9HhiebOXkfHDQORde
WqkSpPbkfNtlG6GjznplFoumkdewW/vsHP1v+vRE4JCNwdPl9tlaStPNLeEpJgAr
ztiYDRlyKBRnZzysXKHS578Yjz8fIjo+RrHXIp20LN6DFDKHrz6QGWmgq7ZpnjL7
DwcOJuUgAIKTUi+rETco77MZn8N/ZFoYKeQ48XPNmoOOlBh6ysRjKm3Jq1k+46F5
AgMBAAGjggFjMIIBXzAJBgNVHRMEAjAAMC0GCWCGSAGG+EIBDQQgFh5FYXN5LVJT
QSBHZW5lcmF0ZWQgQ2VydGlmaWNhdGUwHQYDVR0OBBYEFHG8QFDEJ277MFcOxNcq
ihXYdUk0MIHhBgNVHSMEgdkwgdaAFBLNYATSoICecO3Gmbh7LMZS/RmhoYGypIGv
MIGsMQswCQYDVQQGEwJVUzELMAkGA1UECBMCT0gxETAPBgNVBAcTCENvbHVtYnVz
MRIwEAYDVQQKEwlWaWtpbmdWUE4xHTAbBgNVBAsTFE15T3JnYW5pemF0aW9uYWxV
bml0MRUwEwYDVQQDEwxWaWtpbmdWUE4gQ0ExEDAOBgNVBCkTB0Vhc3lSU0ExITAf
BgkqhkiG9w0BCQEWEm1lQG15aG9zdC5teWRvbWFpboIJAM81he6Avyo+MBMGA1Ud
JQQMMAoGCCsGAQUFBwMCMAsGA1UdDwQEAwIHgDANBgkqhkiG9w0BAQQFAAOCAgEA
kAKGPsxn1TzHU0NwsoTqAaQfrVJRhaKgEYV4E3OouYElhYbEK0Q8c+7QBEazUGbJ
qAfgsp/4IwX4ee2HIvYTY1/ICbFlGO4vjlkU0PNEd8SQMhgas4OpxBn28NIzH99P
2+V1+hNt5U74Ns7Wr4GZxrpYgVdT93RzGHDwYKsa/MsqBsAPDNnea9fFcy3fg40o
nwX9CQE2kkOKQTqUO5BBVvHujqMPAhff+JyEz4dXnYxHZTqmBJ3KRAFDTxUqQ68k
DGEawgwdtPToNbE7gk5AcesnCazJs4HtKCPg6GWvbt5Fk3745RBcn+DV20h9r2t6
JHL7WbV13Poi/sw7HVpB50LOpNEhaA94FLcIoK9lBCxaHBTKoTEuhRQ1uqdZ7Y27
UKW+U7iYITkCVMgHaIyZxWCUG01DrFp2fcD2y/qykKd1tqPmM4f31eqpS1EIhh2q
7CQTUuYVm9OWbsMzU2yEBojqFi+awTqeo+aZHPkMRJ1logLAB5XAHJgBRRzLqD8V
xGWCmRX1W2cDUSySbBEw3K+r0qvdhR4TQXdJvkrWIAQeBwcQsl+6/hW2CLjvokCg
x1306GgLBARqs0FjYqfpQ7CAktym7vZNFAbfyfOj9pp+xHH5a+0U0Sdp36geGaWw
nCM1ol6amS26N/cJJg0Wn+KfpJGwZmMUoIPBDHcNq4M=
-----END CERTIFICATE-----
