Certificate:
    Data:
        Version: 3 (0x2)
        Serial Number: 291 (0x123)
    Signature Algorithm: md5WithRSAEncryption
        Issuer: C=US, ST=OH, L=Columbus, O=VikingVPN, OU=MyOrganizationalUnit, CN=VikingVPN CA/name=EasyRSA/emailAddress=me@myhost.mydomain
        Validity
            Not Before: Oct 10 05:59:43 2013 GMT
            Not After : Oct  8 05:59:43 2023 GMT
        Subject: CN=Client3Cert4cb75b
        Subject Public Key Info:
            Public Key Algorithm: rsaEncryption
                Public-Key: (4096 bit)
                Modulus:
                    00:b7:0f:7d:69:d5:93:66:19:74:89:df:93:fa:68:
                    06:3d:e0:f7:87:13:ff:8e:aa:5a:d4:36:1e:64:0c:
                    44:c1:a4:75:2c:16:46:d9:e3:bb:e2:60:69:ea:c8:
                    bd:77:e0:01:1f:c5:8e:86:57:0f:76:6b:9b:28:dc:
                    a6:c7:cc:40:50:1d:81:c8:aa:c6:f0:a9:50:75:01:
                    97:f0:6c:28:38:2f:fa:6b:ca:05:f5:9d:09:89:6d:
                    14:4f:3e:8b:70:f0:b6:46:8b:24:0d:de:f2:8a:a3:
                    a1:83:ff:c5:cd:3f:61:00:ad:40:d3:0f:3b:46:47:
                    bd:4e:74:a0:43:84:54:11:a5:d5:66:7c:50:74:cd:
                    80:23:10:d2:11:91:0f:fd:bd:dc:64:a7:a0:a0:98:
                    74:54:78:db:6f:36:ad:84:ac:65:96:af:50:5b:d8:
                    6a:b7:19:d7:fa:e9:ee:04:01:46:e9:3a:ff:8b:56:
                    48:b2:af:76:08:26:a4:77:a7:ec:2f:95:42:58:ba:
                    17:04:65:00:78:ad:c8:b5:b4:d8:1b:ed:0f:90:de:
                    cb:9f:61:a1:53:8e:30:2e:c7:ec:9c:63:f3:7a:eb:
                    d3:85:70:8c:2a:0a:06:92:73:ad:b6:51:74:f4:cd:
                    50:bd:e3:60:5b:08:37:44:f2:a4:a0:ad:97:e9:5c:
                    35:ac:fa:da:d1:db:4d:f8:2c:28:20:8e:4b:2f:c2:
                    1d:f9:14:6b:0c:34:55:a6:9a:4e:bb:03:a3:11:0c:
                    94:b0:6d:b6:37:6d:b8:d7:d3:e0:54:91:9d:5c:0a:
                    1b:f9:79:48:d4:a9:1d:8b:4f:10:42:11:2c:ad:cf:
                    db:68:44:a6:48:08:3f:a1:f5:5f:06:2a:88:09:01:
                    32:63:83:2b:19:a0:57:05:5c:84:de:4d:e3:38:96:
                    4c:bf:1e:b6:59:1d:b3:7f:29:54:a8:46:25:59:ce:
                    11:90:a7:27:c1:9c:40:69:1d:9e:56:5a:7f:8e:41:
                    96:df:13:d0:e6:7c:31:f1:d6:6d:54:e1:b7:14:62:
                    7c:1c:d4:c9:1d:0d:b0:a6:a7:70:ca:14:24:a4:8a:
                    3b:40:9f:57:8a:b3:31:c1:ba:71:81:75:0e:14:97:
                    01:93:62:b2:9c:6b:1b:f8:de:ea:45:4f:74:07:16:
                    2e:e9:c8:04:7e:a9:5d:27:89:03:6d:d3:96:cd:12:
                    06:4b:77:a2:04:dd:59:8a:fd:93:6b:c6:62:67:2d:
                    8e:c8:8f:65:f2:56:3c:46:75:b0:f4:ec:ea:c9:ea:
                    55:71:b7:43:2a:66:7b:28:93:f4:cc:25:dc:70:00:
                    01:fb:d0:a2:1f:5a:a8:55:d7:0e:95:9a:f1:4b:08:
                    e8:13:2b
                Exponent: 65537 (0x10001)
        X509v3 extensions:
            X509v3 Basic Constraints: 
                CA:FALSE
            Netscape Comment: 
                Easy-RSA Generated Certificate
            X509v3 Subject Key Identifier: 
                15:2A:53:30:C8:1B:B1:5C:5C:CE:F2:5A:33:B0:75:12:11:AB:D7:A6
            X509v3 Authority Key Identifier: 
                keyid:12:CD:60:04:D2:A0:80:9E:70:ED:C6:99:B8:7B:2C:C6:52:FD:19:A1
                DirName:/C=US/ST=OH/L=Columbus/O=VikingVPN/OU=MyOrganizationalUnit/CN=VikingVPN CA/name=EasyRSA/emailAddress=me@myhost.mydomain
                serial:CF:35:85:EE:80:BF:2A:3E

            X509v3 Extended Key Usage: 
                TLS Web Client Authentication
            X509v3 Key Usage: 
                Digital Signature
    Signature Algorithm: md5WithRSAEncryption
         64:91:a7:94:02:8d:48:85:0c:e3:6a:e6:dc:75:48:56:c1:a7:
         15:ec:0b:6f:2c:e4:b0:78:3e:c9:c4:1f:e5:35:84:5c:a8:fd:
         ca:c5:ed:c7:d2:a7:d2:fb:62:22:3e:72:a5:e1:6a:b8:89:b1:
         7d:44:28:4f:88:4f:eb:a6:73:56:c4:20:70:fe:53:a9:2e:02:
         10:8b:d8:36:ba:0a:68:66:27:f1:21:00:ec:02:28:41:8b:e5:
         64:24:31:63:64:2b:3c:ee:20:0f:33:27:47:1b:df:98:69:05:
         2e:a2:b8:70:2b:86:ac:30:14:01:70:9a:a8:96:3a:36:5b:b5:
         f8:cc:92:62:dd:75:33:7c:28:bc:11:b6:96:b8:39:b9:38:58:
         b0:0b:38:b5:5b:5c:fa:4c:4b:ed:1a:fa:5c:af:d9:33:5c:dc:
         df:76:fe:ac:97:24:62:29:ff:2b:0f:f6:e3:e4:3f:b3:5f:95:
         e4:10:c8:55:c2:cb:7f:e9:32:5d:a6:a4:49:e8:53:0c:b2:43:
         34:86:93:33:ea:a5:38:db:75:29:10:16:07:f2:95:30:9a:46:
         83:b5:16:fe:2f:72:de:e9:82:2d:a8:d9:70:3b:b6:92:a5:25:
         eb:eb:1f:d4:af:90:0c:4a:45:46:16:8e:f4:31:df:b5:e0:b1:
         46:60:5a:98:da:49:5b:63:33:57:3d:c3:09:53:90:f4:b9:59:
         2f:7e:9c:47:34:85:0d:76:f5:05:da:66:4f:ab:7e:69:04:38:
         10:ea:5f:91:d0:d4:08:55:8d:c2:68:21:b1:3a:d3:ad:97:2c:
         06:58:20:1f:a6:ed:bf:cc:7e:7a:b3:34:a6:38:00:f9:04:01:
         24:1d:ab:1e:52:4d:b2:38:14:db:9b:de:42:67:33:2a:a5:81:
         ad:49:5f:be:94:28:6e:e5:2c:20:cd:16:d1:ae:c2:ed:cf:29:
         77:bf:d9:3b:70:4a:dd:1d:12:6c:b4:0a:d1:97:74:f5:e6:5d:
         c7:14:78:6d:49:01:0f:75:93:d3:30:45:a0:33:50:a6:c6:5e:
         f9:ba:21:98:20:13:08:40:fa:c6:fb:51:3f:59:d7:d2:1a:57:
         b9:5e:b4:60:9f:da:ab:ec:21:ba:f6:86:39:08:d1:64:75:c4:
         f1:45:93:6a:d4:54:b5:8e:62:7b:d4:3c:e1:23:dc:64:c7:2f:
         04:7b:81:e4:cd:6e:8b:eb:3a:87:fe:0b:45:2d:79:96:8d:7a:
         ef:37:af:4e:da:75:c6:52:be:cb:15:c4:3f:94:b9:64:1d:d2:
         3b:78:38:04:61:3b:f8:81:2f:66:4b:0e:1c:0a:da:15:6a:d6:
         ef:bd:79:09:f3:07:f8:b4
-----BEGIN CERTIFICATE-----
MIIGqjCCBJKgAwIBAgICASMwDQYJKoZIhvcNAQEEBQAwgawxCzAJBgNVBAYTAlVT
MQswCQYDVQQIEwJPSDERMA8GA1UEBxMIQ29sdW1idXMxEjAQBgNVBAoTCVZpa2lu
Z1ZQTjEdMBsGA1UECxMUTXlPcmdhbml6YXRpb25hbFVuaXQxFTATBgNVBAMTDFZp
a2luZ1ZQTiBDQTEQMA4GA1UEKRMHRWFzeVJTQTEhMB8GCSqGSIb3DQEJARYSbWVA
bXlob3N0Lm15ZG9tYWluMB4XDTEzMTAxMDA1NTk0M1oXDTIzMTAwODA1NTk0M1ow
HDEaMBgGA1UEAxMRQ2xpZW50M0NlcnQ0Y2I3NWIwggIiMA0GCSqGSIb3DQEBAQUA
A4ICDwAwggIKAoICAQC3D31p1ZNmGXSJ35P6aAY94PeHE/+OqlrUNh5kDETBpHUs
FkbZ47viYGnqyL134AEfxY6GVw92a5so3KbHzEBQHYHIqsbwqVB1AZfwbCg4L/pr
ygX1nQmJbRRPPotw8LZGiyQN3vKKo6GD/8XNP2EArUDTDztGR71OdKBDhFQRpdVm
fFB0zYAjENIRkQ/9vdxkp6CgmHRUeNtvNq2ErGWWr1Bb2Gq3Gdf66e4EAUbpOv+L
Vkiyr3YIJqR3p+wvlUJYuhcEZQB4rci1tNgb7Q+Q3sufYaFTjjAux+ycY/N669OF
cIwqCgaSc622UXT0zVC942BbCDdE8qSgrZfpXDWs+trR2034LCggjksvwh35FGsM
NFWmmk67A6MRDJSwbbY3bbjX0+BUkZ1cChv5eUjUqR2LTxBCESytz9toRKZICD+h
9V8GKogJATJjgysZoFcFXITeTeM4lky/HrZZHbN/KVSoRiVZzhGQpyfBnEBpHZ5W
Wn+OQZbfE9DmfDHx1m1U4bcUYnwc1MkdDbCmp3DKFCSkijtAn1eKszHBunGBdQ4U
lwGTYrKcaxv43upFT3QHFi7pyAR+qV0niQNt05bNEgZLd6IE3VmK/ZNrxmJnLY7I
j2XyVjxGdbD07OrJ6lVxt0MqZnsok/TMJdxwAAH70KIfWqhV1w6VmvFLCOgTKwID
AQABo4IBYzCCAV8wCQYDVR0TBAIwADAtBglghkgBhvhCAQ0EIBYeRWFzeS1SU0Eg
R2VuZXJhdGVkIENlcnRpZmljYXRlMB0GA1UdDgQWBBQVKlMwyBuxXFzO8lozsHUS
EavXpjCB4QYDVR0jBIHZMIHWgBQSzWAE0qCAnnDtxpm4eyzGUv0ZoaGBsqSBrzCB
rDELMAkGA1UEBhMCVVMxCzAJBgNVBAgTAk9IMREwDwYDVQQHEwhDb2x1bWJ1czES
MBAGA1UEChMJVmlraW5nVlBOMR0wGwYDVQQLExRNeU9yZ2FuaXphdGlvbmFsVW5p
dDEVMBMGA1UEAxMMVmlraW5nVlBOIENBMRAwDgYDVQQpEwdFYXN5UlNBMSEwHwYJ
KoZIhvcNAQkBFhJtZUBteWhvc3QubXlkb21haW6CCQDPNYXugL8qPjATBgNVHSUE
DDAKBggrBgEFBQcDAjALBgNVHQ8EBAMCB4AwDQYJKoZIhvcNAQEEBQADggIBAGSR
p5QCjUiFDONq5tx1SFbBpxXsC28s5LB4PsnEH+U1hFyo/crF7cfSp9L7YiI+cqXh
ariJsX1EKE+IT+umc1bEIHD+U6kuAhCL2Da6CmhmJ/EhAOwCKEGL5WQkMWNkKzzu
IA8zJ0cb35hpBS6iuHArhqwwFAFwmqiWOjZbtfjMkmLddTN8KLwRtpa4Obk4WLAL
OLVbXPpMS+0a+lyv2TNc3N92/qyXJGIp/ysP9uPkP7NfleQQyFXCy3/pMl2mpEno
UwyyQzSGkzPqpTjbdSkQFgfylTCaRoO1Fv4vct7pgi2o2XA7tpKlJevrH9SvkAxK
RUYWjvQx37XgsUZgWpjaSVtjM1c9wwlTkPS5WS9+nEc0hQ129QXaZk+rfmkEOBDq
X5HQ1AhVjcJoIbE6062XLAZYIB+m7b/MfnqzNKY4APkEASQdqx5STbI4FNub3kJn
Myqlga1JX76UKG7lLCDNFtGuwu3PKXe/2TtwSt0dEmy0CtGXdPXmXccUeG1JAQ91
k9MwRaAzUKbGXvm6IZggEwhA+sb7UT9Z19IaV7letGCf2qvsIbr2hjkI0WR1xPFF
k2rUVLWOYnvUPOEj3GTHLwR7geTNbovrOof+C0UteZaNeu83r07adcZSvssVxD+U
uWQd0jt4OARhO/iBL2ZLDhwK2hVq1u+9eQnzB/i0
-----END CERTIFICATE-----
