Certificate:
    Data:
        Version: 3 (0x2)
        Serial Number: 9074 (0x2372)
    Signature Algorithm: sha256WithRSAEncryption
        Issuer: C=US, ST=OH, L=Columbus, O=VikingVPN, OU=MyOrganizationalUnit, CN=VikingVPN CA/name=EasyRSA/emailAddress=me@myhost.mydomain
        Validity
            Not Before: Sep 21 18:07:24 2016 GMT
            Not After : Sep 19 18:07:24 2026 GMT
        Subject: CN=Client574Cert7c7008
        Subject Public Key Info:
            Public Key Algorithm: rsaEncryption
                Public-Key: (4096 bit)
                Modulus:
                    00:d4:ce:c2:87:ab:73:28:4a:97:19:c9:13:47:71:
                    4b:32:7a:90:78:b1:08:dc:8a:1a:3e:49:c4:72:15:
                    e8:a5:ef:22:24:71:1d:4f:6f:84:48:69:17:43:36:
                    e7:f3:89:32:e8:1b:45:64:98:71:51:c6:bb:fb:5c:
                    ba:c6:cd:6f:f6:a1:e1:be:1b:c9:b5:18:e0:fc:9f:
                    4a:36:83:d4:58:e1:c3:a0:fb:81:a1:b9:ec:f2:76:
                    52:8a:33:0d:8a:c6:cf:12:60:dc:9c:d6:f4:df:70:
                    ca:ca:5f:32:f6:b2:3c:3c:de:d6:0f:b2:9a:82:42:
                    5f:7d:40:68:df:49:91:85:be:e3:1b:80:03:e4:0d:
                    f8:93:7d:19:22:6c:b7:15:08:27:bf:a6:7c:d5:14:
                    8d:08:0a:82:29:1a:96:11:78:df:d8:dc:74:4f:0f:
                    64:2c:ac:66:51:e8:ba:ea:83:8a:d5:46:16:5a:6d:
                    17:b5:0e:2e:c1:d2:31:66:89:1e:6e:c7:36:50:9e:
                    4e:0e:7e:41:a6:eb:f4:6a:5c:84:ca:81:35:a7:ee:
                    ea:0b:2d:53:c4:35:cd:8b:87:17:23:9e:ea:bd:9d:
                    20:f4:ed:3e:46:e4:33:fb:56:ff:f3:67:da:04:81:
                    61:0b:93:61:c6:59:c9:36:1c:2d:6b:c7:e8:b4:6b:
                    e2:48:14:66:4e:ed:3a:25:15:10:2d:96:2d:be:fc:
                    94:81:c3:ae:70:d8:7a:a2:01:a6:b0:4f:5a:ca:69:
                    f8:0c:93:6f:15:39:13:dd:29:01:05:47:cb:6e:c9:
                    88:65:0d:9c:91:f5:4b:d8:d4:12:63:5e:08:a0:87:
                    c9:bb:5f:d7:8e:50:4f:8e:c7:54:72:39:1e:08:25:
                    56:07:76:47:c6:b0:fb:0c:6e:0d:cd:45:d4:d8:56:
                    76:ac:aa:f4:3c:66:60:92:c6:f3:0c:e9:61:54:a7:
                    d9:28:e3:4f:93:2c:1b:ed:be:c0:3a:84:85:f0:6d:
                    a8:84:ff:d0:51:a4:68:fb:c4:50:b8:15:9d:76:e1:
                    e0:73:f2:ca:cd:01:b2:e0:a8:8e:ec:fe:03:f3:b5:
                    05:5c:b2:fa:50:c1:8d:4a:b7:61:b6:3c:ce:3c:cd:
                    70:b7:ad:1d:67:d0:c2:a7:c9:6a:e2:84:77:8b:e2:
                    3e:4a:86:0d:b9:ff:c1:1a:d6:e9:77:6f:3a:a7:34:
                    9a:0f:d8:62:8b:34:1b:47:0b:8a:f0:7e:78:e2:76:
                    28:89:d6:1d:21:95:aa:e1:bb:34:e3:72:f6:24:4d:
                    3f:fa:91:4d:53:48:95:84:b8:10:be:dc:98:38:dd:
                    52:94:90:41:ce:13:73:1e:c2:5a:eb:e0:fa:ae:af:
                    b2:28:75
                Exponent: 65537 (0x10001)
        X509v3 extensions:
            X509v3 Basic Constraints: 
                CA:FALSE
            Netscape Comment: 
                Easy-RSA Generated Certificate
            X509v3 Subject Key Identifier: 
                80:59:53:FC:F0:32:E4:27:4B:63:1D:4A:47:45:66:38:C8:89:7E:A4
            X509v3 Authority Key Identifier: 
                keyid:12:CD:60:04:D2:A0:80:9E:70:ED:C6:99:B8:7B:2C:C6:52:FD:19:A1
                DirName:/C=US/ST=OH/L=Columbus/O=VikingVPN/OU=MyOrganizationalUnit/CN=VikingVPN CA/name=EasyRSA/emailAddress=me@myhost.mydomain
                serial:CF:35:85:EE:80:BF:2A:3E

            X509v3 Extended Key Usage: 
                TLS Web Client Authentication
            X509v3 Key Usage: 
                Digital Signature
    Signature Algorithm: sha256WithRSAEncryption
         79:68:8c:78:73:26:dc:69:b7:83:9c:96:52:25:3c:18:b8:fb:
         7d:bf:ec:38:98:2b:c5:1b:e8:88:08:12:26:4e:e9:ae:e6:1a:
         8a:23:a3:44:25:23:cf:69:d3:0f:9f:93:a6:00:85:8a:6a:9c:
         0b:6e:5f:19:f0:3a:d2:66:e5:f4:1d:ea:84:dd:2d:8b:a1:44:
         ad:71:9f:58:21:1e:91:15:82:b5:9b:58:35:d9:23:fe:e5:eb:
         6c:77:d0:9e:40:2a:ba:a9:4a:3b:c2:05:f0:78:d8:89:8f:39:
         c6:16:b0:07:c9:26:a2:43:14:58:79:48:4c:c1:41:26:4c:c3:
         cb:96:52:02:d2:0a:19:bd:6e:ef:43:cf:13:09:c3:1d:7d:50:
         22:09:20:9b:27:20:9d:fd:09:9e:f2:16:bc:e0:15:20:76:bd:
         d3:0c:68:24:58:11:e5:ad:02:71:99:66:7f:27:22:f2:88:4d:
         61:8f:7e:ed:a8:d1:a2:b5:bc:b6:94:a8:7d:61:55:95:f7:14:
         f2:82:3b:79:d4:66:0b:32:3d:31:b5:c1:07:74:43:1d:d0:e8:
         00:69:1d:a4:32:32:3f:30:bd:b3:78:3d:3f:58:64:e2:7a:7b:
         c1:ee:38:e5:f8:bd:a0:20:ea:01:ca:bb:15:fc:2e:6b:b0:f4:
         2a:e2:ff:ce:2d:cc:e5:59:f9:8d:c1:60:e0:12:4b:d9:3d:46:
         12:aa:6e:dc:16:75:20:b0:18:2c:0d:db:04:d9:5b:82:33:15:
         ed:39:08:d1:a8:b2:a5:c8:5f:07:f4:54:85:14:e8:af:31:be:
         eb:23:bf:cd:60:00:fb:fe:21:49:63:f8:3d:18:2f:12:93:b4:
         3b:80:ad:4a:b5:65:66:a4:88:d8:5d:09:61:10:bb:62:a5:50:
         f3:6a:69:46:d2:7f:89:9f:e5:17:09:e3:69:a6:0a:54:a2:23:
         6b:06:3d:5a:ac:f9:e9:4a:74:d9:98:f6:9f:bc:4f:71:dd:8c:
         fe:80:6c:7d:c2:c4:d4:42:63:9a:4e:4a:09:72:ce:85:4b:ac:
         d9:c3:26:82:f5:94:dd:a3:7b:b4:23:b5:54:9e:2d:8a:f5:a6:
         2f:26:4f:be:09:b5:f5:22:27:ea:e5:40:61:80:22:cd:0c:07:
         8a:cd:e1:3a:8d:db:bb:58:02:c9:cd:46:c0:bb:a9:fb:35:b0:
         32:56:d1:ba:8b:56:f6:04:f6:4c:7c:e5:aa:71:14:e5:d6:8e:
         6e:db:00:31:7f:3d:4d:97:16:21:4d:06:41:17:62:7f:84:a1:
         5f:3c:79:c8:40:c1:ee:ef:2e:05:2c:00:02:9a:8b:b2:ec:18:
         80:2a:3e:74:b2:f2:3c:3d
-----BEGIN CERTIFICATE-----
MIIGrDCCBJSgAwIBAgICI3IwDQYJKoZIhvcNAQELBQAwgawxCzAJBgNVBAYTAlVT
MQswCQYDVQQIEwJPSDERMA8GA1UEBxMIQ29sdW1idXMxEjAQBgNVBAoTCVZpa2lu
Z1ZQTjEdMBsGA1UECxMUTXlPcmdhbml6YXRpb25hbFVuaXQxFTATBgNVBAMTDFZp
a2luZ1ZQTiBDQTEQMA4GA1UEKRMHRWFzeVJTQTEhMB8GCSqGSIb3DQEJARYSbWVA
bXlob3N0Lm15ZG9tYWluMB4XDTE2MDkyMTE4MDcyNFoXDTI2MDkxOTE4MDcyNFow
HjEcMBoGA1UEAxMTQ2xpZW50NTc0Q2VydDdjNzAwODCCAiIwDQYJKoZIhvcNAQEB
BQADggIPADCCAgoCggIBANTOwoercyhKlxnJE0dxSzJ6kHixCNyKGj5JxHIV6KXv
IiRxHU9vhEhpF0M25/OJMugbRWSYcVHGu/tcusbNb/ah4b4bybUY4PyfSjaD1Fjh
w6D7gaG57PJ2UoozDYrGzxJg3JzW9N9wyspfMvayPDze1g+ymoJCX31AaN9JkYW+
4xuAA+QN+JN9GSJstxUIJ7+mfNUUjQgKgikalhF439jcdE8PZCysZlHouuqDitVG
FlptF7UOLsHSMWaJHm7HNlCeTg5+Qabr9GpchMqBNafu6gstU8Q1zYuHFyOe6r2d
IPTtPkbkM/tW//Nn2gSBYQuTYcZZyTYcLWvH6LRr4kgUZk7tOiUVEC2WLb78lIHD
rnDYeqIBprBPWspp+AyTbxU5E90pAQVHy27JiGUNnJH1S9jUEmNeCKCHybtf145Q
T47HVHI5HgglVgd2R8aw+wxuDc1F1NhWdqyq9DxmYJLG8wzpYVSn2SjjT5MsG+2+
wDqEhfBtqIT/0FGkaPvEULgVnXbh4HPyys0BsuCojuz+A/O1BVyy+lDBjUq3YbY8
zjzNcLetHWfQwqfJauKEd4viPkqGDbn/wRrW6XdvOqc0mg/YYos0G0cLivB+eOJ2
KInWHSGVquG7NONy9iRNP/qRTVNIlYS4EL7cmDjdUpSQQc4Tcx7CWuvg+q6vsih1
AgMBAAGjggFjMIIBXzAJBgNVHRMEAjAAMC0GCWCGSAGG+EIBDQQgFh5FYXN5LVJT
QSBHZW5lcmF0ZWQgQ2VydGlmaWNhdGUwHQYDVR0OBBYEFIBZU/zwMuQnS2MdSkdF
ZjjIiX6kMIHhBgNVHSMEgdkwgdaAFBLNYATSoICecO3Gmbh7LMZS/RmhoYGypIGv
MIGsMQswCQYDVQQGEwJVUzELMAkGA1UECBMCT0gxETAPBgNVBAcTCENvbHVtYnVz
MRIwEAYDVQQKEwlWaWtpbmdWUE4xHTAbBgNVBAsTFE15T3JnYW5pemF0aW9uYWxV
bml0MRUwEwYDVQQDEwxWaWtpbmdWUE4gQ0ExEDAOBgNVBCkTB0Vhc3lSU0ExITAf
BgkqhkiG9w0BCQEWEm1lQG15aG9zdC5teWRvbWFpboIJAM81he6Avyo+MBMGA1Ud
JQQMMAoGCCsGAQUFBwMCMAsGA1UdDwQEAwIHgDANBgkqhkiG9w0BAQsFAAOCAgEA
eWiMeHMm3Gm3g5yWUiU8GLj7fb/sOJgrxRvoiAgSJk7pruYaiiOjRCUjz2nTD5+T
pgCFimqcC25fGfA60mbl9B3qhN0ti6FErXGfWCEekRWCtZtYNdkj/uXrbHfQnkAq
uqlKO8IF8HjYiY85xhawB8kmokMUWHlITMFBJkzDy5ZSAtIKGb1u70PPEwnDHX1Q
Igkgmycgnf0JnvIWvOAVIHa90wxoJFgR5a0CcZlmfyci8ohNYY9+7ajRorW8tpSo
fWFVlfcU8oI7edRmCzI9MbXBB3RDHdDoAGkdpDIyPzC9s3g9P1hk4np7we445fi9
oCDqAcq7Ffwua7D0KuL/zi3M5Vn5jcFg4BJL2T1GEqpu3BZ1ILAYLA3bBNlbgjMV
7TkI0aiypchfB/RUhRTorzG+6yO/zWAA+/4hSWP4PRgvEpO0O4CtSrVlZqSI2F0J
YRC7YqVQ82ppRtJ/iZ/lFwnjaaYKVKIjawY9Wqz56Up02Zj2n7xPcd2M/oBsfcLE
1EJjmk5KCXLOhUus2cMmgvWU3aN7tCO1VJ4tivWmLyZPvgm19SIn6uVAYYAizQwH
is3hOo3bu1gCyc1GwLup+zWwMlbRuotW9gT2THzlqnEU5daObtsAMX89TZcWIU0G
QRdif4ShXzx5yEDB7u8uBSwAApqLsuwYgCo+dLLyPD0=
-----END CERTIFICATE-----
