Certificate:
    Data:
        Version: 3 (0x2)
        Serial Number: 6968 (0x1b38)
    Signature Algorithm: md5WithRSAEncryption
        Issuer: C=US, ST=OH, L=Columbus, O=VikingVPN, OU=MyOrganizationalUnit, CN=VikingVPN CA/name=EasyRSA/emailAddress=me@myhost.mydomain
        Validity
            Not Before: Dec 29 05:46:47 2015 GMT
            Not After : Dec 26 05:46:47 2025 GMT
        Subject: CN=Client1891Certd32a3b
        Subject Public Key Info:
            Public Key Algorithm: rsaEncryption
                Public-Key: (4096 bit)
                Modulus:
                    00:d1:9d:e0:b6:2a:c2:fc:40:29:fa:8e:da:d5:f9:
                    23:55:27:c0:c4:94:7e:d1:48:3c:17:2e:9a:5c:34:
                    36:75:6d:45:22:98:04:0c:91:59:3c:0d:32:b8:9e:
                    57:89:05:bb:f4:c8:74:13:55:cb:64:13:f7:21:ff:
                    26:aa:6d:51:4e:51:1b:97:6f:8f:8f:d3:ff:53:5a:
                    fb:8a:af:5f:84:4a:f9:49:00:79:01:9f:0f:60:0c:
                    07:ee:92:63:54:5d:3f:03:e2:95:6b:69:d3:3d:14:
                    97:ce:1d:7c:ae:a1:83:8a:13:46:dc:59:c1:c3:3a:
                    bb:ad:fa:a6:ec:00:de:22:a1:2b:0f:51:3c:fd:40:
                    7c:6b:c4:ec:df:26:b9:a9:4c:b6:16:b1:a6:28:c8:
                    b0:c8:03:0a:5d:8a:37:c4:a0:5c:11:5b:84:41:0e:
                    57:65:aa:cf:82:ce:f1:6a:88:1a:2d:2e:18:60:ed:
                    f6:bd:57:2f:ef:90:e3:f9:c9:94:d2:56:13:a9:9d:
                    51:09:28:22:07:c4:46:34:8c:39:5b:41:bf:1c:c4:
                    28:43:dc:46:ae:e1:e9:36:de:4a:cd:b9:a8:d1:d5:
                    2d:7f:0f:b1:d2:79:11:2f:3a:ff:34:33:13:6c:0d:
                    9f:c2:1a:ae:3f:59:d6:e7:fe:4d:3b:0e:e8:5e:c0:
                    bb:97:b0:34:84:91:85:f5:a5:eb:02:3a:0c:cf:de:
                    be:4a:69:11:29:e3:4c:3e:a3:99:70:65:99:e5:11:
                    9d:41:94:1d:b5:03:45:54:ee:19:51:2d:ee:72:fa:
                    7b:76:af:7a:07:4b:4b:81:39:d5:db:67:a0:f4:e6:
                    86:6c:2e:7b:9a:82:80:04:d4:37:17:30:2a:d9:bb:
                    42:f8:28:32:7f:4a:12:23:ff:33:85:41:b6:9c:e3:
                    14:7d:06:c0:b3:cb:14:07:56:7f:9e:b8:57:62:ee:
                    d0:1f:8b:34:5a:ce:53:4c:77:3b:c2:d7:fb:51:ea:
                    60:5c:38:5f:87:68:fb:b2:47:44:2d:c4:2c:d7:1a:
                    41:fb:94:4f:3f:fa:78:65:ba:6c:f0:27:28:5d:0b:
                    e9:08:be:a4:99:cf:cc:d4:e4:af:88:b3:a0:b6:93:
                    a5:7f:de:c1:86:d1:8c:5a:c1:7d:43:6a:77:90:fd:
                    5f:67:01:20:b2:c2:a5:6d:61:ed:39:13:33:2e:4c:
                    32:6b:b4:2a:35:25:93:36:01:f0:77:0a:28:e0:e3:
                    d7:f5:31:97:a8:a7:b4:24:dc:ce:8e:dc:e3:78:60:
                    cf:ad:34:41:dc:dc:e1:bb:5c:1f:41:83:a3:69:45:
                    1c:14:5b:7a:34:e5:3f:b7:d5:47:0f:5a:d0:e2:97:
                    da:61:81
                Exponent: 65537 (0x10001)
        X509v3 extensions:
            X509v3 Basic Constraints: 
                CA:FALSE
            Netscape Comment: 
                Easy-RSA Generated Certificate
            X509v3 Subject Key Identifier: 
                48:BB:0B:07:AD:BB:12:37:53:6E:0F:8E:AE:7E:5A:16:CF:4D:46:1E
            X509v3 Authority Key Identifier: 
                keyid:12:CD:60:04:D2:A0:80:9E:70:ED:C6:99:B8:7B:2C:C6:52:FD:19:A1
                DirName:/C=US/ST=OH/L=Columbus/O=VikingVPN/OU=MyOrganizationalUnit/CN=VikingVPN CA/name=EasyRSA/emailAddress=me@myhost.mydomain
                serial:CF:35:85:EE:80:BF:2A:3E

            X509v3 Extended Key Usage: 
                TLS Web Client Authentication
            X509v3 Key Usage: 
                Digital Signature
    Signature Algorithm: md5WithRSAEncryption
         2b:6a:6d:ac:46:48:59:e8:09:62:a1:9d:a0:69:bf:52:65:c1:
         8c:12:25:59:09:53:75:f9:7f:32:5b:c3:56:33:2a:2a:d0:7d:
         96:18:8b:c0:47:7f:bb:55:93:4b:7e:96:7b:55:24:cd:68:d8:
         60:49:3a:6b:b7:cc:26:cc:54:4c:db:26:a1:ef:3b:1b:1f:df:
         67:4a:49:30:11:d6:86:1b:6e:eb:57:cf:00:70:0e:35:da:2d:
         3b:0d:75:39:4e:0c:88:88:7a:1b:b5:30:f9:ce:92:32:10:dc:
         0d:05:21:59:94:c4:c5:55:5d:a0:1c:65:c6:dd:7c:e1:eb:33:
         4f:dc:0d:70:75:8f:33:94:f7:e4:7e:40:d9:df:33:1f:84:39:
         f7:21:42:3c:e1:0d:66:30:3e:6b:74:b3:43:63:a8:27:df:85:
         22:80:c7:ea:68:cc:28:61:f8:e2:f0:b7:25:d8:54:42:bf:c2:
         b3:03:5e:85:e5:c1:9a:c0:23:66:63:3d:25:6b:b8:1c:a0:6c:
         9f:af:65:bc:b1:97:c7:92:f7:48:3f:4a:da:f3:29:f3:14:2d:
         df:0d:58:9f:18:3a:41:39:a3:ab:ed:a6:27:3c:ea:23:32:08:
         32:c2:19:03:7a:9a:81:cd:1d:58:de:5b:6f:6f:dc:42:0a:8e:
         53:07:a7:d0:b6:01:db:f1:ea:1c:e1:ff:b4:19:6e:16:89:a1:
         3e:b4:a9:24:f2:0b:8b:11:50:9d:9e:c4:73:fa:64:fb:29:52:
         3d:cd:71:2b:1e:8c:f5:84:5f:6c:76:98:99:85:5a:4b:88:41:
         4c:ea:81:82:42:2c:28:03:70:4c:65:7e:e6:8d:31:23:18:c6:
         60:12:6b:85:d7:d5:4f:d0:f2:5b:fe:09:99:ab:86:6c:27:26:
         1f:99:68:24:96:17:cc:2d:15:83:d8:8c:3e:61:e7:e8:81:70:
         8c:5c:12:67:f7:d0:80:06:cf:ef:86:8c:b5:97:92:9c:19:64:
         b5:4a:6e:d1:2f:c6:53:b4:5c:f5:3f:9a:6a:98:25:01:b5:81:
         c6:40:b3:a2:c0:64:f5:bc:0c:ba:81:95:47:3a:23:82:fc:da:
         12:4a:e7:0c:bc:5c:e2:53:97:ef:68:4a:99:96:62:7b:d5:fc:
         42:c8:10:5e:e3:24:2a:41:2b:6e:7d:cd:df:89:33:c4:a5:45:
         1c:1e:cc:b0:2d:a5:f9:5f:58:6e:84:63:e6:8b:ca:9f:77:64:
         7f:fe:a7:91:0c:ed:8a:94:2d:75:d3:f7:84:68:b6:b4:59:b9:
         50:98:f2:de:14:96:02:65:20:3e:61:d0:57:dc:10:d0:e7:e9:
         ee:95:82:3a:35:48:20:2e
-----BEGIN CERTIFICATE-----
MIIGrTCCBJWgAwIBAgICGzgwDQYJKoZIhvcNAQEEBQAwgawxCzAJBgNVBAYTAlVT
MQswCQYDVQQIEwJPSDERMA8GA1UEBxMIQ29sdW1idXMxEjAQBgNVBAoTCVZpa2lu
Z1ZQTjEdMBsGA1UECxMUTXlPcmdhbml6YXRpb25hbFVuaXQxFTATBgNVBAMTDFZp
a2luZ1ZQTiBDQTEQMA4GA1UEKRMHRWFzeVJTQTEhMB8GCSqGSIb3DQEJARYSbWVA
bXlob3N0Lm15ZG9tYWluMB4XDTE1MTIyOTA1NDY0N1oXDTI1MTIyNjA1NDY0N1ow
HzEdMBsGA1UEAxMUQ2xpZW50MTg5MUNlcnRkMzJhM2IwggIiMA0GCSqGSIb3DQEB
AQUAA4ICDwAwggIKAoICAQDRneC2KsL8QCn6jtrV+SNVJ8DElH7RSDwXLppcNDZ1
bUUimAQMkVk8DTK4nleJBbv0yHQTVctkE/ch/yaqbVFOURuXb4+P0/9TWvuKr1+E
SvlJAHkBnw9gDAfukmNUXT8D4pVradM9FJfOHXyuoYOKE0bcWcHDOrut+qbsAN4i
oSsPUTz9QHxrxOzfJrmpTLYWsaYoyLDIAwpdijfEoFwRW4RBDldlqs+CzvFqiBot
Lhhg7fa9Vy/vkOP5yZTSVhOpnVEJKCIHxEY0jDlbQb8cxChD3Eau4ek23krNuajR
1S1/D7HSeREvOv80MxNsDZ/CGq4/Wdbn/k07DuhewLuXsDSEkYX1pesCOgzP3r5K
aREp40w+o5lwZZnlEZ1BlB21A0VU7hlRLe5y+nt2r3oHS0uBOdXbZ6D05oZsLnua
goAE1DcXMCrZu0L4KDJ/ShIj/zOFQbac4xR9BsCzyxQHVn+euFdi7tAfizRazlNM
dzvC1/tR6mBcOF+HaPuyR0QtxCzXGkH7lE8/+nhlumzwJyhdC+kIvqSZz8zU5K+I
s6C2k6V/3sGG0YxawX1DaneQ/V9nASCywqVtYe05EzMuTDJrtCo1JZM2AfB3Cijg
49f1MZeop7Qk3M6O3ON4YM+tNEHc3OG7XB9Bg6NpRRwUW3o05T+31UcPWtDil9ph
gQIDAQABo4IBYzCCAV8wCQYDVR0TBAIwADAtBglghkgBhvhCAQ0EIBYeRWFzeS1S
U0EgR2VuZXJhdGVkIENlcnRpZmljYXRlMB0GA1UdDgQWBBRIuwsHrbsSN1NuD46u
floWz01GHjCB4QYDVR0jBIHZMIHWgBQSzWAE0qCAnnDtxpm4eyzGUv0ZoaGBsqSB
rzCBrDELMAkGA1UEBhMCVVMxCzAJBgNVBAgTAk9IMREwDwYDVQQHEwhDb2x1bWJ1
czESMBAGA1UEChMJVmlraW5nVlBOMR0wGwYDVQQLExRNeU9yZ2FuaXphdGlvbmFs
VW5pdDEVMBMGA1UEAxMMVmlraW5nVlBOIENBMRAwDgYDVQQpEwdFYXN5UlNBMSEw
HwYJKoZIhvcNAQkBFhJtZUBteWhvc3QubXlkb21haW6CCQDPNYXugL8qPjATBgNV
HSUEDDAKBggrBgEFBQcDAjALBgNVHQ8EBAMCB4AwDQYJKoZIhvcNAQEEBQADggIB
ACtqbaxGSFnoCWKhnaBpv1JlwYwSJVkJU3X5fzJbw1YzKirQfZYYi8BHf7tVk0t+
lntVJM1o2GBJOmu3zCbMVEzbJqHvOxsf32dKSTAR1oYbbutXzwBwDjXaLTsNdTlO
DIiIehu1MPnOkjIQ3A0FIVmUxMVVXaAcZcbdfOHrM0/cDXB1jzOU9+R+QNnfMx+E
OfchQjzhDWYwPmt0s0NjqCffhSKAx+pozChh+OLwtyXYVEK/wrMDXoXlwZrAI2Zj
PSVruBygbJ+vZbyxl8eS90g/StrzKfMULd8NWJ8YOkE5o6vtpic86iMyCDLCGQN6
moHNHVjeW29v3EIKjlMHp9C2Advx6hzh/7QZbhaJoT60qSTyC4sRUJ2exHP6ZPsp
Uj3NcSsejPWEX2x2mJmFWkuIQUzqgYJCLCgDcExlfuaNMSMYxmASa4XX1U/Q8lv+
CZmrhmwnJh+ZaCSWF8wtFYPYjD5h5+iBcIxcEmf30IAGz++GjLWXkpwZZLVKbtEv
xlO0XPU/mmqYJQG1gcZAs6LAZPW8DLqBlUc6I4L82hJK5wy8XOJTl+9oSpmWYnvV
/ELIEF7jJCpBK259zd+JM8SlRRwezLAtpflfWG6EY+aLyp93ZH/+p5EM7YqULXXT
94RotrRZuVCY8t4UlgJlID5h0FfcENDn6e6Vgjo1SCAu
-----END CERTIFICATE-----
