Certificate:
    Data:
        Version: 3 (0x2)
        Serial Number: 12562 (0x3112)
    Signature Algorithm: sha256WithRSAEncryption
        Issuer: C=US, ST=OH, L=Columbus, O=VikingVPN, OU=MyOrganizationalUnit, CN=VikingVPN CA/name=EasyRSA/emailAddress=me@myhost.mydomain
        Validity
            Not Before: Feb 15 23:42:17 2018 GMT
            Not After : Feb 13 23:42:17 2028 GMT
        Subject: CN=Client3197Certff1b51
        Subject Public Key Info:
            Public Key Algorithm: rsaEncryption
                Public-Key: (4096 bit)
                Modulus:
                    00:e4:72:85:01:12:c4:63:3b:04:ce:bd:1f:f2:c5:
                    30:9b:e3:61:c8:ad:0a:10:d0:de:56:b8:a5:1d:c6:
                    21:22:d9:1f:6c:3a:c9:de:6b:13:70:31:ba:de:05:
                    50:36:c0:99:13:93:45:9d:22:ca:c7:4a:97:0d:ea:
                    a5:31:ff:17:9b:29:3a:39:1b:00:36:47:25:7d:ac:
                    5d:65:32:ba:06:6d:ea:af:29:5c:22:9f:a3:40:5b:
                    12:22:e5:ee:46:fa:5c:84:6e:f7:2d:39:7c:29:20:
                    e8:a7:98:86:f2:1a:4d:7f:ea:cd:a9:31:2e:a0:70:
                    20:c6:b1:5f:d2:c0:c4:1a:4e:f0:6d:d3:05:5d:12:
                    15:22:05:02:cc:f2:22:46:ef:e1:8e:5f:d1:08:24:
                    6d:0f:f4:00:e1:12:e1:d3:39:64:f3:54:44:42:fc:
                    52:8c:94:c9:5c:78:af:65:a1:9d:9b:4d:e1:65:cd:
                    d6:69:ef:77:4f:34:12:fd:03:f0:16:2b:94:6e:1a:
                    b1:8b:58:d0:5b:ee:78:81:0f:b1:e6:bd:05:52:f5:
                    10:a7:2d:94:63:8d:ed:3a:f4:28:78:75:73:32:65:
                    a0:b1:8d:e8:3a:27:aa:93:2a:9d:cb:20:21:e2:ce:
                    8b:a6:ba:c6:3f:45:72:23:52:df:8c:b7:6c:9a:a5:
                    a7:07:3a:f6:f3:53:cc:99:c6:13:bc:fa:47:47:0a:
                    52:6a:7c:1c:f5:ca:29:37:fd:3c:f9:c8:51:8d:91:
                    af:6e:a4:8f:d2:fd:5b:21:35:69:b5:f4:a3:37:f6:
                    23:26:50:b8:78:19:45:98:1f:dd:2e:ae:31:cb:fc:
                    a8:6b:1b:32:5b:46:ba:fd:9c:16:d6:ea:8f:1b:39:
                    78:a7:df:d7:0e:b8:10:99:b2:38:4a:52:8c:f6:2c:
                    d4:23:6c:e6:63:e4:38:af:a5:36:d2:2c:a2:68:e6:
                    41:ae:95:40:ed:05:bb:e5:63:e4:41:fb:1e:db:98:
                    96:ed:45:f8:64:e4:a6:f9:c2:36:1c:53:46:0e:e7:
                    c0:6c:b4:78:5f:09:dd:64:f5:98:0c:92:78:f5:23:
                    c6:2e:35:c9:39:46:2b:6c:85:25:28:f6:0d:33:07:
                    3d:14:04:d9:98:59:9d:23:16:2b:10:a7:98:53:ea:
                    d3:f2:af:65:7b:4a:13:07:07:8e:47:ba:fc:89:86:
                    45:ce:b6:16:71:4b:b8:62:43:d8:3f:c0:b7:2c:ac:
                    e1:70:a9:a6:f8:5a:c5:64:20:ba:d9:40:9b:0e:ee:
                    5b:68:b9:b5:d0:fa:28:34:ac:bd:e9:91:2b:4c:98:
                    8e:c4:c9:e1:b2:6a:b3:25:78:09:7e:b2:cd:e2:a7:
                    bd:40:af
                Exponent: 65537 (0x10001)
        X509v3 extensions:
            X509v3 Basic Constraints: 
                CA:FALSE
            Netscape Comment: 
                Easy-RSA Generated Certificate
            X509v3 Subject Key Identifier: 
                32:A1:44:21:AC:59:53:AD:32:FB:12:3A:7E:80:25:25:44:77:F0:21
            X509v3 Authority Key Identifier: 
                keyid:12:CD:60:04:D2:A0:80:9E:70:ED:C6:99:B8:7B:2C:C6:52:FD:19:A1
                DirName:/C=US/ST=OH/L=Columbus/O=VikingVPN/OU=MyOrganizationalUnit/CN=VikingVPN CA/name=EasyRSA/emailAddress=me@myhost.mydomain
                serial:CF:35:85:EE:80:BF:2A:3E

            X509v3 Extended Key Usage: 
                TLS Web Client Authentication
            X509v3 Key Usage: 
                Digital Signature
    Signature Algorithm: sha256WithRSAEncryption
         17:5c:3e:f8:c1:4e:31:b4:21:d4:c8:23:5e:9a:ae:f1:7d:00:
         0b:a2:5b:48:2d:00:87:65:80:9c:2e:ab:f3:f8:92:25:a4:2c:
         5d:7e:48:82:f3:91:cd:cd:ca:ff:98:76:3b:21:90:5f:b6:ee:
         b6:bc:e9:a0:65:aa:bf:21:6a:f3:d6:2b:b6:1d:13:41:ee:c1:
         ec:a5:6e:1e:8b:92:ff:bf:3b:5e:24:78:cd:02:6f:e5:da:d2:
         77:0b:b3:04:e7:ab:45:7b:34:2f:92:e2:71:0f:eb:ba:f4:12:
         2e:82:51:2e:06:01:f0:a0:5f:66:62:ac:e0:ea:7f:4e:d3:28:
         7d:f2:f2:4a:a8:2d:6b:7f:d9:3b:ed:bf:bf:ae:a6:0b:f2:b9:
         32:b2:4e:85:ff:ad:6c:04:f0:17:a2:2d:d5:55:3e:b5:50:46:
         5e:52:de:1a:e2:0b:3e:e4:5f:ad:21:c5:80:06:16:4b:0e:d2:
         80:01:fe:97:35:88:98:d2:da:73:f2:47:5a:a2:01:f2:79:7f:
         6b:ff:ed:11:2f:69:93:63:68:30:d5:f5:23:2b:5b:c0:50:5f:
         1d:f7:96:4c:b7:d0:c0:1e:c6:95:a0:21:31:be:ac:6b:cf:7d:
         79:2b:4a:c1:71:1c:2f:51:81:49:34:5f:e3:39:00:d0:d0:da:
         32:be:cd:cc:4a:80:5b:20:21:46:1c:ed:3e:62:d6:2c:17:31:
         45:1d:e7:70:d1:ed:60:0f:d2:41:81:a4:b1:9a:a0:09:fa:e9:
         b0:2c:8f:96:8e:80:5b:60:60:17:b9:e5:22:cf:60:14:86:0b:
         b9:71:62:de:2a:7f:8d:4c:da:ca:55:dd:2e:49:35:b1:bb:5f:
         38:7d:28:65:32:ed:1c:b4:bc:ed:e7:5b:89:3d:d5:ac:82:c5:
         aa:ec:b4:2b:bb:f8:20:51:29:c3:c8:4f:10:67:88:ab:c6:40:
         c9:a7:b2:5a:cd:f9:3c:67:1d:67:e7:ae:d8:6d:5e:8e:f1:03:
         92:8c:0d:7e:ce:1e:e6:26:bf:3f:0a:e0:f2:e8:b9:84:f3:b5:
         bd:0c:2d:bb:08:41:84:e6:83:fc:6e:2a:11:9f:14:64:7c:78:
         e1:06:2e:7c:67:27:36:20:b6:e9:9f:bc:59:6c:2f:e4:63:ce:
         9b:fc:cf:4f:e4:3b:82:1f:dc:a9:e1:44:c3:fa:a2:11:63:d5:
         10:cf:db:59:8f:ac:44:b4:0f:f5:6a:40:87:2b:f9:08:c0:5c:
         33:20:b9:59:f5:12:19:4d:66:5f:db:a8:b9:c3:fb:a5:fd:ff:
         bf:13:9d:27:bd:59:03:27:1e:90:83:67:39:0f:46:70:c7:c9:
         c9:1e:1c:c4:38:3a:7b:4a
-----BEGIN CERTIFICATE-----
MIIGrTCCBJWgAwIBAgICMRIwDQYJKoZIhvcNAQELBQAwgawxCzAJBgNVBAYTAlVT
MQswCQYDVQQIEwJPSDERMA8GA1UEBxMIQ29sdW1idXMxEjAQBgNVBAoTCVZpa2lu
Z1ZQTjEdMBsGA1UECxMUTXlPcmdhbml6YXRpb25hbFVuaXQxFTATBgNVBAMTDFZp
a2luZ1ZQTiBDQTEQMA4GA1UEKRMHRWFzeVJTQTEhMB8GCSqGSIb3DQEJARYSbWVA
bXlob3N0Lm15ZG9tYWluMB4XDTE4MDIxNTIzNDIxN1oXDTI4MDIxMzIzNDIxN1ow
HzEdMBsGA1UEAxMUQ2xpZW50MzE5N0NlcnRmZjFiNTEwggIiMA0GCSqGSIb3DQEB
AQUAA4ICDwAwggIKAoICAQDkcoUBEsRjOwTOvR/yxTCb42HIrQoQ0N5WuKUdxiEi
2R9sOsneaxNwMbreBVA2wJkTk0WdIsrHSpcN6qUx/xebKTo5GwA2RyV9rF1lMroG
beqvKVwin6NAWxIi5e5G+lyEbvctOXwpIOinmIbyGk1/6s2pMS6gcCDGsV/SwMQa
TvBt0wVdEhUiBQLM8iJG7+GOX9EIJG0P9ADhEuHTOWTzVERC/FKMlMlceK9loZ2b
TeFlzdZp73dPNBL9A/AWK5RuGrGLWNBb7niBD7HmvQVS9RCnLZRjje069Ch4dXMy
ZaCxjeg6J6qTKp3LICHizoumusY/RXIjUt+Mt2yapacHOvbzU8yZxhO8+kdHClJq
fBz1yik3/Tz5yFGNka9upI/S/VshNWm19KM39iMmULh4GUWYH90urjHL/KhrGzJb
Rrr9nBbW6o8bOXin39cOuBCZsjhKUoz2LNQjbOZj5DivpTbSLKJo5kGulUDtBbvl
Y+RB+x7bmJbtRfhk5Kb5wjYcU0YO58BstHhfCd1k9ZgMknj1I8YuNck5RitshSUo
9g0zBz0UBNmYWZ0jFisQp5hT6tPyr2V7ShMHB45HuvyJhkXOthZxS7hiQ9g/wLcs
rOFwqab4WsVkILrZQJsO7ltoubXQ+ig0rL3pkStMmI7EyeGyarMleAl+ss3ip71A
rwIDAQABo4IBYzCCAV8wCQYDVR0TBAIwADAtBglghkgBhvhCAQ0EIBYeRWFzeS1S
U0EgR2VuZXJhdGVkIENlcnRpZmljYXRlMB0GA1UdDgQWBBQyoUQhrFlTrTL7Ejp+
gCUlRHfwITCB4QYDVR0jBIHZMIHWgBQSzWAE0qCAnnDtxpm4eyzGUv0ZoaGBsqSB
rzCBrDELMAkGA1UEBhMCVVMxCzAJBgNVBAgTAk9IMREwDwYDVQQHEwhDb2x1bWJ1
czESMBAGA1UEChMJVmlraW5nVlBOMR0wGwYDVQQLExRNeU9yZ2FuaXphdGlvbmFs
VW5pdDEVMBMGA1UEAxMMVmlraW5nVlBOIENBMRAwDgYDVQQpEwdFYXN5UlNBMSEw
HwYJKoZIhvcNAQkBFhJtZUBteWhvc3QubXlkb21haW6CCQDPNYXugL8qPjATBgNV
HSUEDDAKBggrBgEFBQcDAjALBgNVHQ8EBAMCB4AwDQYJKoZIhvcNAQELBQADggIB
ABdcPvjBTjG0IdTII16arvF9AAuiW0gtAIdlgJwuq/P4kiWkLF1+SILzkc3Nyv+Y
djshkF+27ra86aBlqr8havPWK7YdE0Huweylbh6Lkv+/O14keM0Cb+Xa0ncLswTn
q0V7NC+S4nEP67r0Ei6CUS4GAfCgX2ZirODqf07TKH3y8kqoLWt/2Tvtv7+upgvy
uTKyToX/rWwE8BeiLdVVPrVQRl5S3hriCz7kX60hxYAGFksO0oAB/pc1iJjS2nPy
R1qiAfJ5f2v/7REvaZNjaDDV9SMrW8BQXx33lky30MAexpWgITG+rGvPfXkrSsFx
HC9RgUk0X+M5ANDQ2jK+zcxKgFsgIUYc7T5i1iwXMUUd53DR7WAP0kGBpLGaoAn6
6bAsj5aOgFtgYBe55SLPYBSGC7lxYt4qf41M2spV3S5JNbG7Xzh9KGUy7Ry0vO3n
W4k91ayCxarstCu7+CBRKcPITxBniKvGQMmnslrN+TxnHWfnrthtXo7xA5KMDX7O
HuYmvz8K4PLouYTztb0MLbsIQYTmg/xuKhGfFGR8eOEGLnxnJzYgtumfvFlsL+Rj
zpv8z0/kO4If3KnhRMP6ohFj1RDP21mPrES0D/VqQIcr+QjAXDMguVn1EhlNZl/b
qLnD+6X9/78TnSe9WQMnHpCDZzkPRnDHyckeHMQ4OntK
-----END CERTIFICATE-----
