Certificate:
    Data:
        Version: 3 (0x2)
        Serial Number: 5406 (0x151e)
    Signature Algorithm: md5WithRSAEncryption
        Issuer: C=US, ST=OH, L=Columbus, O=VikingVPN, OU=MyOrganizationalUnit, CN=VikingVPN CA/name=EasyRSA/emailAddress=me@myhost.mydomain
        Validity
            Not Before: May 27 15:07:12 2015 GMT
            Not After : May 24 15:07:12 2025 GMT
        Subject: CN=Client1718Cert70d88e
        Subject Public Key Info:
            Public Key Algorithm: rsaEncryption
                Public-Key: (4096 bit)
                Modulus:
                    00:d6:c2:4c:45:a0:01:0c:a3:2e:53:fd:61:52:90:
                    0a:84:a2:d5:35:5b:67:d3:3b:ae:c3:d8:47:c9:b0:
                    5c:f8:f2:6a:36:0e:79:31:23:ef:90:bc:eb:c5:36:
                    6d:cc:69:8b:c0:c7:d5:f5:35:08:fd:6b:e7:46:a0:
                    f0:b7:24:ad:8e:1c:74:2b:02:7a:78:a0:97:b4:1c:
                    ae:ad:f2:a3:65:af:54:c3:dc:ae:16:56:e5:25:6c:
                    f3:05:3b:8c:34:69:1e:7b:36:e9:60:82:ba:a4:40:
                    78:1a:20:08:ec:a5:97:47:2f:6a:3f:f1:4c:c7:b6:
                    07:c0:31:32:b5:da:39:f7:51:84:6d:3d:61:f2:9a:
                    5c:59:01:1e:84:51:e3:86:22:de:4c:96:7f:82:3b:
                    11:c0:8c:db:7a:8e:ff:e3:bb:cc:a6:35:50:25:7f:
                    62:c9:79:ea:47:80:b8:ea:72:49:f7:e7:67:e6:8d:
                    d4:81:b1:2f:54:98:96:6e:f1:df:df:99:44:d4:30:
                    d7:4b:ce:77:e2:79:39:cd:00:fd:1d:ed:33:d1:9a:
                    07:61:40:0b:b9:ff:80:45:5c:93:07:24:c5:90:25:
                    3b:d9:77:86:27:8c:da:ae:8e:83:53:93:3f:70:a2:
                    25:95:d5:21:5f:09:d7:78:34:46:cf:8a:5e:80:42:
                    50:f7:6c:45:31:46:a9:cf:f4:d3:2e:a0:6b:7b:e3:
                    45:d4:cf:40:5f:84:ba:cb:7f:7f:c0:45:28:bb:b6:
                    90:d6:6e:01:40:9c:0f:1f:28:0c:d1:57:8a:96:e2:
                    c6:a9:dc:6a:90:a3:fa:ce:60:cf:0f:3d:f7:07:39:
                    31:09:ff:9e:42:0f:1d:3f:26:28:b1:e7:05:e0:d6:
                    a8:70:38:0a:ea:7d:0f:65:ef:6b:43:bc:86:90:1c:
                    37:15:f1:9c:3b:d3:8b:f2:dd:99:a1:20:a0:22:6b:
                    80:9b:95:7f:de:0e:e8:51:80:9a:d6:60:1f:42:49:
                    f8:61:b4:82:73:9d:04:f0:fd:c7:c3:aa:ad:09:91:
                    32:80:ec:2b:2b:96:71:56:c3:48:42:cf:f9:15:b2:
                    68:3b:a7:04:48:56:84:90:b5:30:0a:33:5c:0d:7f:
                    dc:02:78:4e:f5:5e:fa:db:6a:99:32:0f:d7:92:0a:
                    8b:79:55:78:64:57:2a:f9:f2:d8:0d:82:1f:8d:21:
                    82:36:e2:7a:83:eb:8a:61:6a:42:dd:64:fb:a3:30:
                    98:05:97:01:15:1a:ec:79:04:5e:4f:e6:fd:75:6a:
                    e3:55:32:04:6e:12:5f:17:d6:a5:7f:7c:9f:82:61:
                    3f:00:9f:0a:ba:1b:2d:73:80:e7:b4:a1:00:23:d8:
                    a9:28:cf
                Exponent: 65537 (0x10001)
        X509v3 extensions:
            X509v3 Basic Constraints: 
                CA:FALSE
            Netscape Comment: 
                Easy-RSA Generated Certificate
            X509v3 Subject Key Identifier: 
                F4:68:7D:37:46:30:E1:1C:62:41:4A:EB:F2:26:B6:B5:89:49:95:5F
            X509v3 Authority Key Identifier: 
                keyid:12:CD:60:04:D2:A0:80:9E:70:ED:C6:99:B8:7B:2C:C6:52:FD:19:A1
                DirName:/C=US/ST=OH/L=Columbus/O=VikingVPN/OU=MyOrganizationalUnit/CN=VikingVPN CA/name=EasyRSA/emailAddress=me@myhost.mydomain
                serial:CF:35:85:EE:80:BF:2A:3E

            X509v3 Extended Key Usage: 
                TLS Web Client Authentication
            X509v3 Key Usage: 
                Digital Signature
    Signature Algorithm: md5WithRSAEncryption
         5c:89:7e:2f:97:01:9d:67:f0:d4:26:b3:dd:9d:5e:2a:ff:f1:
         dd:43:98:f3:09:e1:f2:b8:ef:9d:b5:3a:ad:12:5f:63:01:1f:
         16:e2:f0:c8:27:ad:81:bd:e3:a7:39:db:a4:25:26:33:82:8a:
         10:30:c1:c1:1b:cd:27:4f:12:3f:d1:bd:ad:21:9c:80:a4:b2:
         fb:62:bb:c2:6e:72:1a:e1:44:b4:24:3c:af:68:43:49:4d:19:
         25:ef:9c:17:9e:28:69:b9:5c:9b:fb:ef:dd:9a:da:21:a6:c1:
         6a:7a:a0:75:05:e5:89:69:14:32:0d:ef:34:b7:76:72:98:22:
         dd:0b:49:d3:cf:61:8a:db:cf:fd:d4:ab:3a:73:fe:95:99:5f:
         f3:43:80:4e:ff:ed:36:dd:6d:49:d2:27:24:ce:23:63:13:c8:
         dc:72:8b:3c:1d:c2:be:72:61:ab:b5:5b:26:42:74:29:4c:48:
         da:79:6c:cf:55:52:c9:a7:07:1f:b8:63:d1:66:9a:12:c6:0b:
         be:27:78:74:8c:a4:79:53:22:0c:5b:1a:df:0e:40:15:71:33:
         43:84:be:9e:3f:40:53:96:8d:a6:2b:af:8a:79:94:b7:dc:02:
         d9:ac:47:a4:0d:60:7d:92:60:85:4a:a6:22:52:5a:8f:21:4b:
         b3:f3:52:25:27:14:62:2b:ad:c2:b5:dd:66:a7:f8:af:7a:8b:
         ae:be:9f:40:15:9c:a9:9f:23:7e:1f:97:65:03:c4:f1:c3:3f:
         e3:2d:ea:23:95:1c:5f:27:fd:f6:fc:e7:04:75:d2:71:09:f2:
         47:08:ae:cd:b7:89:45:5d:30:9d:64:7f:82:dd:ae:44:35:71:
         9d:3b:b2:4d:48:cd:72:ca:2f:6c:24:89:1a:38:6b:d4:1b:2b:
         07:20:a1:b8:23:cf:ae:81:86:a5:61:ce:c5:da:87:b2:69:a2:
         b7:a6:0b:75:c0:64:8c:cc:ec:bb:86:45:68:4a:67:08:dc:5c:
         12:80:a9:7a:da:c7:c2:47:da:3f:b2:1f:f4:a8:30:a5:73:15:
         f6:e4:7a:ff:0c:8c:fd:65:e6:60:6f:76:a0:bb:8d:ff:82:2f:
         38:ea:63:05:5e:9a:c1:aa:2a:9d:95:b7:8c:2c:d2:6a:30:2d:
         df:5c:07:5c:f0:f2:04:30:86:63:38:18:65:63:ec:51:4a:22:
         cd:cf:db:12:47:87:a5:1f:c2:e3:a8:9d:38:0d:be:f4:37:d0:
         ab:68:18:fc:f5:19:29:d6:6a:1b:6e:19:14:d5:71:a0:7d:5f:
         46:39:4b:a5:90:e9:b7:6a:df:1c:87:20:95:b1:28:83:b9:dd:
         af:55:eb:7e:17:5d:bd:78
-----BEGIN CERTIFICATE-----
MIIGrTCCBJWgAwIBAgICFR4wDQYJKoZIhvcNAQEEBQAwgawxCzAJBgNVBAYTAlVT
MQswCQYDVQQIEwJPSDERMA8GA1UEBxMIQ29sdW1idXMxEjAQBgNVBAoTCVZpa2lu
Z1ZQTjEdMBsGA1UECxMUTXlPcmdhbml6YXRpb25hbFVuaXQxFTATBgNVBAMTDFZp
a2luZ1ZQTiBDQTEQMA4GA1UEKRMHRWFzeVJTQTEhMB8GCSqGSIb3DQEJARYSbWVA
bXlob3N0Lm15ZG9tYWluMB4XDTE1MDUyNzE1MDcxMloXDTI1MDUyNDE1MDcxMlow
HzEdMBsGA1UEAxMUQ2xpZW50MTcxOENlcnQ3MGQ4OGUwggIiMA0GCSqGSIb3DQEB
AQUAA4ICDwAwggIKAoICAQDWwkxFoAEMoy5T/WFSkAqEotU1W2fTO67D2EfJsFz4
8mo2DnkxI++QvOvFNm3MaYvAx9X1NQj9a+dGoPC3JK2OHHQrAnp4oJe0HK6t8qNl
r1TD3K4WVuUlbPMFO4w0aR57NulggrqkQHgaIAjspZdHL2o/8UzHtgfAMTK12jn3
UYRtPWHymlxZAR6EUeOGIt5Mln+COxHAjNt6jv/ju8ymNVAlf2LJeepHgLjqckn3
52fmjdSBsS9UmJZu8d/fmUTUMNdLznfieTnNAP0d7TPRmgdhQAu5/4BFXJMHJMWQ
JTvZd4YnjNqujoNTkz9woiWV1SFfCdd4NEbPil6AQlD3bEUxRqnP9NMuoGt740XU
z0BfhLrLf3/ARSi7tpDWbgFAnA8fKAzRV4qW4sap3GqQo/rOYM8PPfcHOTEJ/55C
Dx0/Jiix5wXg1qhwOArqfQ9l72tDvIaQHDcV8Zw704vy3ZmhIKAia4CblX/eDuhR
gJrWYB9CSfhhtIJznQTw/cfDqq0JkTKA7CsrlnFWw0hCz/kVsmg7pwRIVoSQtTAK
M1wNf9wCeE71XvrbapkyD9eSCot5VXhkVyr58tgNgh+NIYI24nqD64phakLdZPuj
MJgFlwEVGux5BF5P5v11auNVMgRuEl8X1qV/fJ+CYT8Anwq6Gy1zgOe0oQAj2Kko
zwIDAQABo4IBYzCCAV8wCQYDVR0TBAIwADAtBglghkgBhvhCAQ0EIBYeRWFzeS1S
U0EgR2VuZXJhdGVkIENlcnRpZmljYXRlMB0GA1UdDgQWBBT0aH03RjDhHGJBSuvy
Jra1iUmVXzCB4QYDVR0jBIHZMIHWgBQSzWAE0qCAnnDtxpm4eyzGUv0ZoaGBsqSB
rzCBrDELMAkGA1UEBhMCVVMxCzAJBgNVBAgTAk9IMREwDwYDVQQHEwhDb2x1bWJ1
czESMBAGA1UEChMJVmlraW5nVlBOMR0wGwYDVQQLExRNeU9yZ2FuaXphdGlvbmFs
VW5pdDEVMBMGA1UEAxMMVmlraW5nVlBOIENBMRAwDgYDVQQpEwdFYXN5UlNBMSEw
HwYJKoZIhvcNAQkBFhJtZUBteWhvc3QubXlkb21haW6CCQDPNYXugL8qPjATBgNV
HSUEDDAKBggrBgEFBQcDAjALBgNVHQ8EBAMCB4AwDQYJKoZIhvcNAQEEBQADggIB
AFyJfi+XAZ1n8NQms92dXir/8d1DmPMJ4fK47521Oq0SX2MBHxbi8MgnrYG946c5
26QlJjOCihAwwcEbzSdPEj/Rva0hnICksvtiu8JuchrhRLQkPK9oQ0lNGSXvnBee
KGm5XJv7792a2iGmwWp6oHUF5YlpFDIN7zS3dnKYIt0LSdPPYYrbz/3Uqzpz/pWZ
X/NDgE7/7TbdbUnSJyTOI2MTyNxyizwdwr5yYau1WyZCdClMSNp5bM9VUsmnBx+4
Y9FmmhLGC74neHSMpHlTIgxbGt8OQBVxM0OEvp4/QFOWjaYrr4p5lLfcAtmsR6QN
YH2SYIVKpiJSWo8hS7PzUiUnFGIrrcK13Wan+K96i66+n0AVnKmfI34fl2UDxPHD
P+Mt6iOVHF8n/fb85wR10nEJ8kcIrs23iUVdMJ1kf4LdrkQ1cZ07sk1IzXLKL2wk
iRo4a9QbKwcgobgjz66BhqVhzsXah7JporemC3XAZIzM7LuGRWhKZwjcXBKAqXra
x8JH2j+yH/SoMKVzFfbkev8MjP1l5mBvdqC7jf+CLzjqYwVemsGqKp2Vt4ws0mow
Ld9cB1zw8gQwhmM4GGVj7FFKIs3P2xJHh6UfwuOonTgNvvQ30KtoGPz1GSnWahtu
GRTVcaB9X0Y5S6WQ6bdq3xyHIJWxKIO53a9V634XXb14
-----END CERTIFICATE-----
