Certificate:
    Data:
        Version: 3 (0x2)
        Serial Number: 6550 (0x1996)
    Signature Algorithm: md5WithRSAEncryption
        Issuer: C=US, ST=OH, L=Columbus, O=VikingVPN, OU=MyOrganizationalUnit, CN=VikingVPN CA/name=EasyRSA/emailAddress=me@myhost.mydomain
        Validity
            Not Before: Oct 24 11:47:01 2015 GMT
            Not After : Oct 21 11:47:01 2025 GMT
        Subject: CN=Client2016Cert40ab93
        Subject Public Key Info:
            Public Key Algorithm: rsaEncryption
                Public-Key: (4096 bit)
                Modulus:
                    00:c8:8c:31:91:ff:67:18:90:64:96:b2:55:a8:5e:
                    76:a5:74:b3:02:6c:ca:b1:0f:ff:cc:59:59:96:45:
                    1d:22:5a:db:e5:ca:06:87:82:02:5a:f8:44:ff:6c:
                    2c:f4:69:24:f2:71:1a:39:57:22:1b:12:8e:fd:fb:
                    4d:fb:2e:f6:0b:48:a4:ce:7b:7f:95:32:c6:a2:a8:
                    56:f1:c3:d1:29:40:bc:1c:8a:0f:76:9b:c3:be:29:
                    d5:ab:27:00:c0:86:78:f9:a8:9d:27:4e:3d:8b:65:
                    7c:97:31:c3:43:37:21:3a:d3:c2:99:6e:07:40:96:
                    13:bd:0f:25:f9:48:b6:25:68:69:76:65:c0:6a:84:
                    be:99:f7:fe:6f:44:71:ff:99:1a:da:2d:9b:7b:52:
                    0b:35:7f:db:78:4c:9d:c3:17:8c:2e:db:12:08:cd:
                    1e:38:a2:8f:a8:fd:34:46:c0:ae:30:ca:5d:48:d4:
                    cb:74:e9:66:12:ce:ca:8b:96:74:c9:3a:e0:1a:21:
                    d7:39:83:f7:81:26:df:ae:41:be:94:13:25:7a:7b:
                    20:1d:7d:79:41:11:3c:e9:d3:fb:9e:07:22:ba:21:
                    c6:a6:e4:08:bc:a2:92:92:1e:44:26:9b:96:0b:f2:
                    5e:18:04:c2:b6:fe:3b:06:0d:73:66:9f:2f:aa:b0:
                    b5:0f:53:6e:43:3f:0c:d7:23:43:99:65:e1:39:48:
                    09:a5:6c:db:00:c5:aa:56:9f:ac:dd:e0:6c:a8:57:
                    83:a5:c1:82:8e:7e:9b:c9:a4:8e:aa:3e:3e:8d:1a:
                    66:09:ae:a2:2b:6e:f3:f7:0e:14:d2:db:e8:63:51:
                    f3:b9:fc:63:83:c8:4c:44:0a:8b:3a:f4:09:91:2b:
                    23:a4:54:7a:f5:b4:e9:48:56:1d:c0:34:26:eb:16:
                    80:8f:e6:15:46:c6:4e:98:45:ac:55:03:ec:4e:ae:
                    f6:00:7e:f6:94:57:1c:fc:08:65:b3:51:01:96:e8:
                    e5:24:a2:4f:41:5e:13:e0:60:5f:b9:a4:e9:a9:f7:
                    8c:69:d2:7d:ff:42:88:b5:71:d0:9c:8b:6b:f1:65:
                    f2:38:fc:57:3e:d1:9f:df:c4:91:c4:3b:f1:16:81:
                    a1:30:bd:38:f8:df:c6:e6:f4:ef:1c:cd:e3:fa:57:
                    3c:65:16:17:54:21:f7:85:17:61:07:26:91:0d:df:
                    ec:72:62:5d:86:4b:39:3d:4e:05:73:21:74:56:40:
                    87:c9:76:9e:47:31:97:57:8b:e5:de:f9:09:1b:33:
                    54:38:8d:5d:05:aa:c2:09:29:85:d2:ce:0d:8d:db:
                    f7:31:5f:e6:dc:93:10:ed:46:76:33:6c:c7:42:a4:
                    57:60:51
                Exponent: 65537 (0x10001)
        X509v3 extensions:
            X509v3 Basic Constraints: 
                CA:FALSE
            Netscape Comment: 
                Easy-RSA Generated Certificate
            X509v3 Subject Key Identifier: 
                B5:8A:D8:0C:7B:A8:03:78:30:94:F3:38:61:9B:5B:1C:35:5F:3F:2A
            X509v3 Authority Key Identifier: 
                keyid:12:CD:60:04:D2:A0:80:9E:70:ED:C6:99:B8:7B:2C:C6:52:FD:19:A1
                DirName:/C=US/ST=OH/L=Columbus/O=VikingVPN/OU=MyOrganizationalUnit/CN=VikingVPN CA/name=EasyRSA/emailAddress=me@myhost.mydomain
                serial:CF:35:85:EE:80:BF:2A:3E

            X509v3 Extended Key Usage: 
                TLS Web Client Authentication
            X509v3 Key Usage: 
                Digital Signature
    Signature Algorithm: md5WithRSAEncryption
         7a:10:3f:e6:e8:6e:1a:cf:d6:42:0c:ee:90:4a:2a:96:ab:17:
         7e:cd:7a:5a:de:06:4e:8e:6f:57:73:07:30:4d:50:63:23:88:
         e2:e1:13:91:cd:e8:f7:0e:09:39:65:b3:be:8b:52:92:b4:19:
         bf:da:2a:8c:e4:50:1d:4f:f0:b2:fb:00:f9:cb:8e:18:ab:29:
         50:e9:47:84:81:0f:2a:17:ec:55:09:db:ad:c5:f7:b3:51:1b:
         27:0e:6b:71:ea:17:dd:9f:31:b6:fa:8f:7a:13:1a:ea:5d:9d:
         68:2d:76:15:6e:d1:f2:82:c4:21:9b:65:57:e6:e3:13:23:4c:
         7f:78:d6:92:51:2b:42:8c:3b:ae:74:cb:1e:1e:d7:a4:0a:ba:
         af:24:93:38:ef:dd:78:e3:c6:4b:ad:a7:b8:3e:94:77:2a:93:
         08:83:c1:19:91:9d:be:cd:69:95:cb:1d:02:1d:77:0e:c2:60:
         af:8c:68:3a:f1:22:48:65:40:0a:5e:59:b0:73:fb:56:37:9a:
         c7:60:a5:1e:32:b4:93:36:32:ed:f9:5e:c8:ee:10:ef:b0:e3:
         45:d6:c5:a2:67:03:5e:11:03:f3:7c:9f:cc:c8:c1:cf:59:94:
         0a:47:42:27:f9:64:5e:88:95:f3:c8:9d:6d:e3:af:f7:c5:4f:
         ee:4d:b1:e7:01:74:0b:5c:19:51:31:5e:30:f4:b8:da:63:ee:
         d2:b5:5d:02:67:91:88:3a:24:e1:d8:00:2e:c7:4e:8e:96:43:
         3d:a6:42:65:65:16:1b:77:19:36:20:a3:ab:3c:49:e6:f5:07:
         ea:62:f9:c4:74:ee:04:dd:69:39:b5:b5:f8:f1:20:34:03:0f:
         ff:ca:eb:c6:e2:3f:9d:eb:d9:ee:16:6a:55:52:63:60:95:1e:
         de:8a:2c:88:e1:89:7e:52:51:05:50:8f:a5:0e:d6:5d:e7:8d:
         23:dc:9a:df:f6:bf:8c:43:f1:4e:1b:23:86:98:63:bc:77:f9:
         59:54:18:48:d8:10:6b:c6:59:bb:9c:3c:3b:4f:19:5c:a1:dc:
         13:6d:40:6e:56:ef:23:9d:12:1c:a3:59:ae:6c:9c:a7:f8:fc:
         62:22:de:d4:48:3f:e7:63:ff:07:a0:68:c0:54:ea:57:0a:31:
         08:56:7e:20:95:be:f8:00:6c:b4:cb:2f:df:9e:ad:73:12:c5:
         8c:c7:16:9b:f2:3c:be:fd:1a:91:4c:c8:1e:23:4e:9c:25:a3:
         d3:49:5f:6a:09:d9:2f:45:b4:1e:89:82:55:15:c1:aa:c8:07:
         e5:89:13:4e:77:58:19:e6:a9:a1:7b:f9:a6:67:53:75:f1:b7:
         b7:b2:40:35:a6:fd:b1:48
-----BEGIN CERTIFICATE-----
MIIGrTCCBJWgAwIBAgICGZYwDQYJKoZIhvcNAQEEBQAwgawxCzAJBgNVBAYTAlVT
MQswCQYDVQQIEwJPSDERMA8GA1UEBxMIQ29sdW1idXMxEjAQBgNVBAoTCVZpa2lu
Z1ZQTjEdMBsGA1UECxMUTXlPcmdhbml6YXRpb25hbFVuaXQxFTATBgNVBAMTDFZp
a2luZ1ZQTiBDQTEQMA4GA1UEKRMHRWFzeVJTQTEhMB8GCSqGSIb3DQEJARYSbWVA
bXlob3N0Lm15ZG9tYWluMB4XDTE1MTAyNDExNDcwMVoXDTI1MTAyMTExNDcwMVow
HzEdMBsGA1UEAxMUQ2xpZW50MjAxNkNlcnQ0MGFiOTMwggIiMA0GCSqGSIb3DQEB
AQUAA4ICDwAwggIKAoICAQDIjDGR/2cYkGSWslWoXnaldLMCbMqxD//MWVmWRR0i
WtvlygaHggJa+ET/bCz0aSTycRo5VyIbEo79+037LvYLSKTOe3+VMsaiqFbxw9Ep
QLwcig92m8O+KdWrJwDAhnj5qJ0nTj2LZXyXMcNDNyE608KZbgdAlhO9DyX5SLYl
aGl2ZcBqhL6Z9/5vRHH/mRraLZt7Ugs1f9t4TJ3DF4wu2xIIzR44oo+o/TRGwK4w
yl1I1Mt06WYSzsqLlnTJOuAaIdc5g/eBJt+uQb6UEyV6eyAdfXlBETzp0/ueByK6
Icam5Ai8opKSHkQmm5YL8l4YBMK2/jsGDXNmny+qsLUPU25DPwzXI0OZZeE5SAml
bNsAxapWn6zd4GyoV4OlwYKOfpvJpI6qPj6NGmYJrqIrbvP3DhTS2+hjUfO5/GOD
yExECos69AmRKyOkVHr1tOlIVh3ANCbrFoCP5hVGxk6YRaxVA+xOrvYAfvaUVxz8
CGWzUQGW6OUkok9BXhPgYF+5pOmp94xp0n3/Qoi1cdCci2vxZfI4/Fc+0Z/fxJHE
O/EWgaEwvTj438bm9O8czeP6VzxlFhdUIfeFF2EHJpEN3+xyYl2GSzk9TgVzIXRW
QIfJdp5HMZdXi+Xe+QkbM1Q4jV0FqsIJKYXSzg2N2/cxX+bckxDtRnYzbMdCpFdg
UQIDAQABo4IBYzCCAV8wCQYDVR0TBAIwADAtBglghkgBhvhCAQ0EIBYeRWFzeS1S
U0EgR2VuZXJhdGVkIENlcnRpZmljYXRlMB0GA1UdDgQWBBS1itgMe6gDeDCU8zhh
m1scNV8/KjCB4QYDVR0jBIHZMIHWgBQSzWAE0qCAnnDtxpm4eyzGUv0ZoaGBsqSB
rzCBrDELMAkGA1UEBhMCVVMxCzAJBgNVBAgTAk9IMREwDwYDVQQHEwhDb2x1bWJ1
czESMBAGA1UEChMJVmlraW5nVlBOMR0wGwYDVQQLExRNeU9yZ2FuaXphdGlvbmFs
VW5pdDEVMBMGA1UEAxMMVmlraW5nVlBOIENBMRAwDgYDVQQpEwdFYXN5UlNBMSEw
HwYJKoZIhvcNAQkBFhJtZUBteWhvc3QubXlkb21haW6CCQDPNYXugL8qPjATBgNV
HSUEDDAKBggrBgEFBQcDAjALBgNVHQ8EBAMCB4AwDQYJKoZIhvcNAQEEBQADggIB
AHoQP+bobhrP1kIM7pBKKparF37NelreBk6Ob1dzBzBNUGMjiOLhE5HN6PcOCTll
s76LUpK0Gb/aKozkUB1P8LL7APnLjhirKVDpR4SBDyoX7FUJ263F97NRGycOa3Hq
F92fMbb6j3oTGupdnWgtdhVu0fKCxCGbZVfm4xMjTH941pJRK0KMO650yx4e16QK
uq8kkzjv3Xjjxkutp7g+lHcqkwiDwRmRnb7NaZXLHQIddw7CYK+MaDrxIkhlQApe
WbBz+1Y3msdgpR4ytJM2Mu35XsjuEO+w40XWxaJnA14RA/N8n8zIwc9ZlApHQif5
ZF6IlfPInW3jr/fFT+5NsecBdAtcGVExXjD0uNpj7tK1XQJnkYg6JOHYAC7HTo6W
Qz2mQmVlFht3GTYgo6s8Seb1B+pi+cR07gTdaTm1tfjxIDQDD//K68biP53r2e4W
alVSY2CVHt6KLIjhiX5SUQVQj6UO1l3njSPcmt/2v4xD8U4bI4aYY7x3+VlUGEjY
EGvGWbucPDtPGVyh3BNtQG5W7yOdEhyjWa5snKf4/GIi3tRIP+dj/wegaMBU6lcK
MQhWfiCVvvgAbLTLL9+erXMSxYzHFpvyPL79GpFMyB4jTpwlo9NJX2oJ2S9FtB6J
glUVwarIB+WJE053WBnmqaF7+aZnU3Xxt7eyQDWm/bFI
-----END CERTIFICATE-----
