Certificate:
    Data:
        Version: 3 (0x2)
        Serial Number: 11343 (0x2c4f)
    Signature Algorithm: sha256WithRSAEncryption
        Issuer: C=US, ST=OH, L=Columbus, O=VikingVPN, OU=MyOrganizationalUnit, CN=VikingVPN CA/name=EasyRSA/emailAddress=me@myhost.mydomain
        Validity
            Not Before: Jul 16 20:44:42 2017 GMT
            Not After : Jul 14 20:44:42 2027 GMT
        Subject: CN=Client2836Certf7590a
        Subject Public Key Info:
            Public Key Algorithm: rsaEncryption
                Public-Key: (4096 bit)
                Modulus:
                    00:c6:2f:97:a5:a3:e0:74:c0:57:7c:0c:07:73:a2:
                    c5:d5:12:a8:1a:bc:2f:71:83:2c:7b:74:fb:a5:20:
                    c6:01:1f:4d:71:b6:da:17:61:c5:ce:32:f2:c1:89:
                    9c:dc:b7:91:ff:a5:aa:91:53:69:84:9f:e2:3a:62:
                    3c:88:17:2d:3b:49:38:c8:52:d9:5c:96:36:58:f5:
                    99:aa:bb:07:e8:2f:52:6e:06:6b:d0:3f:87:d6:55:
                    b4:80:7e:96:ac:90:d7:33:5f:b3:33:95:bc:6f:27:
                    8a:6c:67:88:4b:cc:f7:61:bc:98:6d:6c:f8:66:dc:
                    47:e2:be:4f:ec:71:fa:ec:f6:82:58:7d:22:a6:34:
                    f4:59:9b:fc:e6:ca:b5:12:46:d1:88:2c:9b:d3:f0:
                    0d:ae:fe:0c:87:68:b7:f2:88:2c:9b:87:9a:44:04:
                    60:4e:c8:83:fd:ec:0b:22:96:0d:df:48:85:f0:4b:
                    9f:85:61:b6:3b:cd:3d:50:b0:4a:e7:b9:a6:0a:45:
                    a0:c6:2c:b3:ed:79:50:28:0f:32:2f:78:87:20:a9:
                    70:56:76:f0:b0:5d:60:7b:34:7b:90:be:55:18:8c:
                    08:ff:2d:b0:4e:a2:3d:23:f8:5d:82:e4:c4:d9:da:
                    27:a8:bb:dd:d3:88:c2:8b:40:ae:5f:59:44:2c:92:
                    c1:13:d1:fb:aa:b8:cd:f8:1f:bf:20:ca:06:ac:66:
                    38:00:d8:14:e0:20:d3:0a:d0:1c:be:26:8f:fb:a8:
                    9d:8d:dc:18:bf:f6:67:4f:46:f7:6d:94:52:82:53:
                    31:a7:90:2a:bb:97:4c:32:90:ab:ff:f0:bc:70:55:
                    56:b9:07:3c:29:0e:bb:09:1b:4e:8b:50:17:d3:94:
                    52:c9:b3:71:c3:47:ea:d3:95:f1:86:d8:59:e3:07:
                    d7:d7:56:48:a2:6e:bb:fa:9f:13:95:72:95:d8:88:
                    c9:6a:0e:51:b9:0c:f0:02:51:6d:7d:77:90:84:a8:
                    40:ab:92:45:f0:22:ac:66:56:d7:11:8b:52:6e:fe:
                    14:cb:5c:45:23:cd:ce:36:49:8f:19:be:a3:c9:66:
                    3e:93:43:6c:30:ec:45:3f:46:f2:db:20:98:6e:05:
                    ae:4d:cc:0c:ec:5c:9c:b4:3f:0b:ac:35:a3:e5:57:
                    ea:22:ba:f0:70:f9:12:46:7b:19:94:c6:31:28:5e:
                    7b:79:65:e7:84:b8:58:84:c8:64:fa:f0:fb:18:bf:
                    ec:52:75:4e:df:c8:a5:e3:2e:67:07:01:a1:d3:83:
                    8a:0c:6b:17:3a:b6:3a:64:75:e1:74:fe:02:d5:63:
                    64:ed:91:f0:22:b3:0f:5c:bd:e0:b2:e5:11:0e:4f:
                    0c:ee:47
                Exponent: 65537 (0x10001)
        X509v3 extensions:
            X509v3 Basic Constraints: 
                CA:FALSE
            Netscape Comment: 
                Easy-RSA Generated Certificate
            X509v3 Subject Key Identifier: 
                B8:86:C3:AA:14:12:8E:AB:76:79:8D:9F:A1:7C:17:FE:5F:54:19:3F
            X509v3 Authority Key Identifier: 
                keyid:12:CD:60:04:D2:A0:80:9E:70:ED:C6:99:B8:7B:2C:C6:52:FD:19:A1
                DirName:/C=US/ST=OH/L=Columbus/O=VikingVPN/OU=MyOrganizationalUnit/CN=VikingVPN CA/name=EasyRSA/emailAddress=me@myhost.mydomain
                serial:CF:35:85:EE:80:BF:2A:3E

            X509v3 Extended Key Usage: 
                TLS Web Client Authentication
            X509v3 Key Usage: 
                Digital Signature
    Signature Algorithm: sha256WithRSAEncryption
         03:1d:98:02:91:e5:30:ff:00:5c:e2:bc:6e:27:54:78:49:4b:
         b4:a8:aa:7f:db:e6:13:c6:5a:1a:22:10:1f:c1:09:09:3e:38:
         5a:54:51:ce:f0:28:94:71:b8:46:71:84:ec:9e:51:5b:0b:46:
         a2:e1:73:1c:4c:a8:b8:ac:5a:ff:22:aa:26:42:78:d4:bd:6d:
         4e:1d:fe:c5:a2:cb:3b:14:74:26:aa:21:e7:e1:48:87:79:d3:
         4b:44:de:30:51:f5:92:cd:5c:48:55:5c:98:44:3f:88:f6:14:
         63:89:e1:2f:b1:ea:b1:e7:31:26:20:7a:cf:aa:78:ba:7c:e0:
         f2:26:d0:3b:f5:55:ab:ed:24:26:0e:1d:d8:f9:89:42:2e:46:
         b8:c9:3a:3b:43:5c:3a:99:05:de:cc:ae:96:eb:dd:40:15:2a:
         91:4a:42:db:3a:b5:be:a1:65:37:dd:5a:6c:05:63:af:57:8b:
         f7:03:84:78:53:2d:fb:e1:77:0e:91:b0:b4:ca:d3:5d:7c:88:
         51:33:82:3b:26:58:29:97:9c:59:0e:d1:4e:9b:ef:d7:cc:59:
         8d:43:1f:fd:67:89:30:0a:bc:ed:19:76:f7:1c:2a:f7:f2:42:
         cc:2f:bc:66:35:69:fc:96:d9:4b:32:4a:22:f7:8d:72:d0:ba:
         62:f4:09:a9:50:55:37:1a:91:9f:f4:a3:71:8d:c1:43:bd:6c:
         3b:fc:29:64:4b:87:0f:a6:c6:66:df:b1:45:4f:f4:eb:d5:3b:
         d9:11:0b:44:e3:2a:31:c7:44:c7:40:25:3a:8b:cb:43:39:6c:
         2b:00:0c:1c:70:9a:bc:b8:aa:c4:da:1e:bc:12:58:ed:ca:47:
         0c:97:4d:26:24:da:c3:8c:c4:52:97:9c:c3:7b:e1:7f:4f:9d:
         f4:cf:32:c5:d4:1d:78:9d:9a:de:6e:fc:49:1f:bc:be:dd:c5:
         62:be:a7:71:bd:90:5e:1f:11:4a:79:45:7b:9c:43:28:d0:78:
         40:83:63:94:1a:55:ba:e8:2a:91:26:e1:f6:0c:0c:b5:33:99:
         dd:cf:16:51:d7:4a:03:51:e1:12:c3:2b:7c:ec:5e:3a:81:4d:
         36:75:07:9d:99:8a:48:18:20:f5:4f:00:08:e0:c7:dd:e6:7d:
         23:f6:5a:c2:03:cd:9f:5b:0a:ed:5e:80:43:9c:a8:31:4b:95:
         3b:36:4c:f7:73:c7:ce:cd:73:95:b5:45:7e:bc:4a:cb:50:56:
         7a:d9:22:80:b8:66:00:3a:c4:bd:1b:f7:b3:28:27:a2:c5:42:
         c3:ac:39:b5:8e:54:87:ad:38:b2:6e:8f:c9:99:b3:b1:23:3a:
         e2:d6:1d:04:1d:a2:fe:a9
-----BEGIN CERTIFICATE-----
MIIGrTCCBJWgAwIBAgICLE8wDQYJKoZIhvcNAQELBQAwgawxCzAJBgNVBAYTAlVT
MQswCQYDVQQIEwJPSDERMA8GA1UEBxMIQ29sdW1idXMxEjAQBgNVBAoTCVZpa2lu
Z1ZQTjEdMBsGA1UECxMUTXlPcmdhbml6YXRpb25hbFVuaXQxFTATBgNVBAMTDFZp
a2luZ1ZQTiBDQTEQMA4GA1UEKRMHRWFzeVJTQTEhMB8GCSqGSIb3DQEJARYSbWVA
bXlob3N0Lm15ZG9tYWluMB4XDTE3MDcxNjIwNDQ0MloXDTI3MDcxNDIwNDQ0Mlow
HzEdMBsGA1UEAxMUQ2xpZW50MjgzNkNlcnRmNzU5MGEwggIiMA0GCSqGSIb3DQEB
AQUAA4ICDwAwggIKAoICAQDGL5elo+B0wFd8DAdzosXVEqgavC9xgyx7dPulIMYB
H01xttoXYcXOMvLBiZzct5H/paqRU2mEn+I6YjyIFy07STjIUtlcljZY9Zmquwfo
L1JuBmvQP4fWVbSAfpaskNczX7MzlbxvJ4psZ4hLzPdhvJhtbPhm3Efivk/scfrs
9oJYfSKmNPRZm/zmyrUSRtGILJvT8A2u/gyHaLfyiCybh5pEBGBOyIP97Asilg3f
SIXwS5+FYbY7zT1QsErnuaYKRaDGLLPteVAoDzIveIcgqXBWdvCwXWB7NHuQvlUY
jAj/LbBOoj0j+F2C5MTZ2ieou93TiMKLQK5fWUQsksET0fuquM34H78gygasZjgA
2BTgINMK0By+Jo/7qJ2N3Bi/9mdPRvdtlFKCUzGnkCq7l0wykKv/8LxwVVa5Bzwp
DrsJG06LUBfTlFLJs3HDR+rTlfGG2FnjB9fXVkiibrv6nxOVcpXYiMlqDlG5DPAC
UW19d5CEqECrkkXwIqxmVtcRi1Ju/hTLXEUjzc42SY8ZvqPJZj6TQ2ww7EU/RvLb
IJhuBa5NzAzsXJy0PwusNaPlV+oiuvBw+RJGexmUxjEoXnt5ZeeEuFiEyGT68PsY
v+xSdU7fyKXjLmcHAaHTg4oMaxc6tjpkdeF0/gLVY2TtkfAisw9cveCy5REOTwzu
RwIDAQABo4IBYzCCAV8wCQYDVR0TBAIwADAtBglghkgBhvhCAQ0EIBYeRWFzeS1S
U0EgR2VuZXJhdGVkIENlcnRpZmljYXRlMB0GA1UdDgQWBBS4hsOqFBKOq3Z5jZ+h
fBf+X1QZPzCB4QYDVR0jBIHZMIHWgBQSzWAE0qCAnnDtxpm4eyzGUv0ZoaGBsqSB
rzCBrDELMAkGA1UEBhMCVVMxCzAJBgNVBAgTAk9IMREwDwYDVQQHEwhDb2x1bWJ1
czESMBAGA1UEChMJVmlraW5nVlBOMR0wGwYDVQQLExRNeU9yZ2FuaXphdGlvbmFs
VW5pdDEVMBMGA1UEAxMMVmlraW5nVlBOIENBMRAwDgYDVQQpEwdFYXN5UlNBMSEw
HwYJKoZIhvcNAQkBFhJtZUBteWhvc3QubXlkb21haW6CCQDPNYXugL8qPjATBgNV
HSUEDDAKBggrBgEFBQcDAjALBgNVHQ8EBAMCB4AwDQYJKoZIhvcNAQELBQADggIB
AAMdmAKR5TD/AFzivG4nVHhJS7Soqn/b5hPGWhoiEB/BCQk+OFpUUc7wKJRxuEZx
hOyeUVsLRqLhcxxMqLisWv8iqiZCeNS9bU4d/sWiyzsUdCaqIefhSId500tE3jBR
9ZLNXEhVXJhEP4j2FGOJ4S+x6rHnMSYges+qeLp84PIm0Dv1VavtJCYOHdj5iUIu
RrjJOjtDXDqZBd7Mrpbr3UAVKpFKQts6tb6hZTfdWmwFY69Xi/cDhHhTLfvhdw6R
sLTK0118iFEzgjsmWCmXnFkO0U6b79fMWY1DH/1niTAKvO0ZdvccKvfyQswvvGY1
afyW2UsySiL3jXLQumL0CalQVTcakZ/0o3GNwUO9bDv8KWRLhw+mxmbfsUVP9OvV
O9kRC0TjKjHHRMdAJTqLy0M5bCsADBxwmry4qsTaHrwSWO3KRwyXTSYk2sOMxFKX
nMN74X9PnfTPMsXUHXidmt5u/EkfvL7dxWK+p3G9kF4fEUp5RXucQyjQeECDY5Qa
VbroKpEm4fYMDLUzmd3PFlHXSgNR4RLDK3zsXjqBTTZ1B52ZikgYIPVPAAjgx93m
fSP2WsIDzZ9bCu1egEOcqDFLlTs2TPdzx87Nc5W1RX68SstQVnrZIoC4ZgA6xL0b
97MoJ6LFQsOsObWOVIetOLJuj8mZs7EjOuLWHQQdov6p
-----END CERTIFICATE-----
