Certificate:
    Data:
        Version: 3 (0x2)
        Serial Number: 8365 (0x20ad)
    Signature Algorithm: md5WithRSAEncryption
        Issuer: C=US, ST=OH, L=Columbus, O=VikingVPN, OU=MyOrganizationalUnit, CN=VikingVPN CA/name=EasyRSA/emailAddress=me@myhost.mydomain
        Validity
            Not Before: Jun 26 12:06:37 2016 GMT
            Not After : Jun 24 12:06:37 2026 GMT
        Subject: CN=Client2386Cert9874cd
        Subject Public Key Info:
            Public Key Algorithm: rsaEncryption
                Public-Key: (4096 bit)
                Modulus:
                    00:ef:80:0c:a4:bf:85:a4:1b:c8:da:8c:d1:63:c9:
                    10:46:e8:de:e7:33:c0:47:85:68:06:5c:30:93:62:
                    2a:e4:2e:3e:1d:9d:cb:8c:ad:aa:25:e1:5c:ba:45:
                    3b:e7:a3:40:33:2a:73:01:0e:a3:51:11:42:22:c9:
                    29:70:4e:5b:3a:5f:0b:21:f7:5e:25:60:28:60:21:
                    9f:f4:fc:3b:6b:cf:3c:cd:59:ac:e5:be:70:01:a3:
                    39:2c:fd:b3:2c:d6:e1:01:e1:e0:cb:a9:bd:2d:cb:
                    e2:f1:d3:90:9c:1b:6d:53:3b:f5:36:6d:6d:fe:8e:
                    fc:09:54:49:4a:d8:9d:33:1c:80:5f:77:29:66:d6:
                    70:e9:d6:07:d7:4c:c1:42:22:84:37:bc:6f:50:cd:
                    11:83:a9:12:97:23:0e:de:43:db:ca:a8:69:3a:2a:
                    34:29:2a:de:fe:58:00:e1:f6:08:92:d7:4b:a8:f4:
                    1e:80:ec:08:7e:98:4b:2f:a7:7f:4b:71:b8:7a:6e:
                    f4:90:69:ad:42:9e:1f:e7:2e:d2:62:41:8c:cf:7c:
                    dd:a6:6e:64:a1:38:70:99:0e:4e:ff:a8:00:55:a2:
                    6c:67:a3:09:d9:15:96:da:93:e2:ab:ee:da:a5:97:
                    34:16:27:ee:6f:5a:03:96:f8:a2:29:88:1d:ae:4a:
                    64:18:a8:83:76:85:8a:c5:51:6f:ba:4d:0f:b5:2d:
                    ff:4f:3f:56:5d:dc:4a:80:65:c0:95:5d:b4:72:1f:
                    b6:a0:1c:56:c4:8f:e8:82:12:5d:6b:e5:42:93:da:
                    e4:9c:2c:bf:0a:a3:2e:29:c2:fc:b3:a3:20:4f:96:
                    74:cc:86:df:33:1b:8d:86:a0:04:db:af:e2:a7:81:
                    14:d4:01:46:7e:8a:33:1a:be:a2:67:1f:ed:16:13:
                    8f:dc:96:1c:44:86:b5:f2:a5:27:da:c9:d0:0f:49:
                    10:46:4b:96:8b:86:80:64:b7:87:ff:e6:75:74:80:
                    d3:28:0d:bf:08:84:07:0e:cd:57:99:b4:fb:36:5a:
                    9b:54:ec:dc:1c:3e:44:d2:f7:0c:ab:d3:f2:7b:81:
                    8b:3f:31:28:9d:fd:d5:b3:5f:83:8c:88:a1:80:ff:
                    6d:0f:2e:fd:c4:2e:dc:f5:61:c7:ed:a5:91:2b:43:
                    04:18:81:7b:93:f9:7d:3d:b7:51:8c:1e:8b:da:cd:
                    90:d5:d3:68:ec:24:c1:f7:11:80:aa:c6:fe:83:dd:
                    6d:42:f8:cb:e4:4a:7d:09:e5:b6:1f:4a:c8:f3:f1:
                    1d:84:51:ec:84:45:e8:01:15:1c:cc:6a:05:53:29:
                    50:be:e2:5e:54:24:f9:55:47:41:97:3d:b7:f9:d2:
                    9a:99:09
                Exponent: 65537 (0x10001)
        X509v3 extensions:
            X509v3 Basic Constraints: 
                CA:FALSE
            Netscape Comment: 
                Easy-RSA Generated Certificate
            X509v3 Subject Key Identifier: 
                C6:C1:1D:28:C0:5B:A7:09:DB:7D:88:72:30:A6:D0:57:2D:BD:67:EF
            X509v3 Authority Key Identifier: 
                keyid:12:CD:60:04:D2:A0:80:9E:70:ED:C6:99:B8:7B:2C:C6:52:FD:19:A1
                DirName:/C=US/ST=OH/L=Columbus/O=VikingVPN/OU=MyOrganizationalUnit/CN=VikingVPN CA/name=EasyRSA/emailAddress=me@myhost.mydomain
                serial:CF:35:85:EE:80:BF:2A:3E

            X509v3 Extended Key Usage: 
                TLS Web Client Authentication
            X509v3 Key Usage: 
                Digital Signature
    Signature Algorithm: md5WithRSAEncryption
         2c:7d:c3:cc:41:5f:62:d2:38:bd:1c:93:36:ee:0d:c1:ca:53:
         37:47:32:5c:33:5c:57:22:a4:f7:95:73:c8:db:f7:e7:99:bb:
         7b:61:94:b9:35:08:8a:89:6c:f2:e1:07:fb:73:9b:a6:f4:96:
         46:e6:11:08:33:95:e1:2b:c5:a0:4a:f0:29:e7:3e:cc:4b:bb:
         4d:0e:a6:b3:5a:69:b8:cc:29:70:2b:21:a2:fd:50:fc:b6:d7:
         26:97:cd:8f:f5:90:84:7f:d9:35:b0:f1:c0:5e:ef:81:dc:e0:
         8a:06:bf:33:24:d8:f0:de:9c:d0:94:1d:14:58:a7:c9:9c:c0:
         22:9e:4f:f6:8a:10:b3:cf:94:5b:cd:c5:1d:61:be:bb:58:fb:
         bb:a5:b9:24:f4:5d:c9:2b:1b:b7:17:db:f4:3e:67:b9:36:8b:
         2e:7a:80:c3:38:1b:e6:15:2b:22:a3:05:0c:f4:5c:8e:b7:5e:
         d5:2a:a8:6d:b1:52:59:db:47:ef:79:41:f1:9a:95:08:a4:c4:
         f0:24:d5:4c:76:6a:ca:59:de:28:64:12:13:e6:79:ed:d0:ba:
         5c:d2:41:a8:f6:d1:db:a6:89:e0:58:c8:e3:bb:cb:38:39:37:
         ca:b1:6b:cb:fa:02:a5:0c:c5:85:f2:e0:19:20:89:17:f6:d2:
         1b:4b:cd:89:d0:9d:fa:ea:e6:aa:d2:69:b1:27:a2:fa:59:b8:
         9f:31:7d:a3:2d:62:2f:60:63:4a:cd:c7:9e:fe:a0:60:0d:e7:
         e5:b2:20:07:c6:91:80:b5:8f:30:9a:7b:b5:dc:6f:e1:04:96:
         4f:54:09:62:26:b4:51:a9:69:1e:90:17:fb:c3:5a:77:67:1b:
         66:98:e1:8c:12:29:1d:a7:13:b6:eb:38:fc:98:71:d9:e1:2f:
         48:ab:8f:fb:04:e4:95:1a:ef:06:ef:87:53:0a:08:b7:d2:2e:
         c8:5d:4b:2c:74:29:13:ec:dc:93:21:f2:f1:05:5a:69:c4:cf:
         c8:d2:9c:fa:5d:da:64:a1:86:48:e5:69:b3:b2:7c:2f:bd:72:
         25:1b:2c:93:34:6a:df:9e:62:24:88:0e:a2:90:98:79:42:ff:
         6b:53:28:47:2c:8a:53:af:7e:40:2b:15:40:06:16:bd:36:46:
         6b:82:fb:94:01:9c:05:db:15:e4:68:bb:10:53:4c:51:65:de:
         73:65:24:08:72:66:f5:30:16:08:18:41:ec:a8:6f:f2:8f:0c:
         5d:da:8c:55:a4:71:62:dc:e8:69:2f:77:c8:ac:47:01:92:39:
         8c:78:26:ba:18:c0:d0:6e:aa:5b:f8:fa:a0:9c:4a:ba:4b:e4:
         d6:85:02:49:16:b0:ec:8d
-----BEGIN CERTIFICATE-----
MIIGrTCCBJWgAwIBAgICIK0wDQYJKoZIhvcNAQEEBQAwgawxCzAJBgNVBAYTAlVT
MQswCQYDVQQIEwJPSDERMA8GA1UEBxMIQ29sdW1idXMxEjAQBgNVBAoTCVZpa2lu
Z1ZQTjEdMBsGA1UECxMUTXlPcmdhbml6YXRpb25hbFVuaXQxFTATBgNVBAMTDFZp
a2luZ1ZQTiBDQTEQMA4GA1UEKRMHRWFzeVJTQTEhMB8GCSqGSIb3DQEJARYSbWVA
bXlob3N0Lm15ZG9tYWluMB4XDTE2MDYyNjEyMDYzN1oXDTI2MDYyNDEyMDYzN1ow
HzEdMBsGA1UEAxMUQ2xpZW50MjM4NkNlcnQ5ODc0Y2QwggIiMA0GCSqGSIb3DQEB
AQUAA4ICDwAwggIKAoICAQDvgAykv4WkG8jajNFjyRBG6N7nM8BHhWgGXDCTYirk
Lj4dncuMraol4Vy6RTvno0AzKnMBDqNREUIiySlwTls6Xwsh914lYChgIZ/0/Dtr
zzzNWazlvnABozks/bMs1uEB4eDLqb0ty+Lx05CcG21TO/U2bW3+jvwJVElK2J0z
HIBfdylm1nDp1gfXTMFCIoQ3vG9QzRGDqRKXIw7eQ9vKqGk6KjQpKt7+WADh9giS
10uo9B6A7Ah+mEsvp39Lcbh6bvSQaa1Cnh/nLtJiQYzPfN2mbmShOHCZDk7/qABV
omxnownZFZbak+Kr7tqllzQWJ+5vWgOW+KIpiB2uSmQYqIN2hYrFUW+6TQ+1Lf9P
P1Zd3EqAZcCVXbRyH7agHFbEj+iCEl1r5UKT2uScLL8Koy4pwvyzoyBPlnTMht8z
G42GoATbr+KngRTUAUZ+ijMavqJnH+0WE4/clhxEhrXypSfaydAPSRBGS5aLhoBk
t4f/5nV0gNMoDb8IhAcOzVeZtPs2WptU7NwcPkTS9wyr0/J7gYs/MSid/dWzX4OM
iKGA/20PLv3ELtz1YcftpZErQwQYgXuT+X09t1GMHovazZDV02jsJMH3EYCqxv6D
3W1C+MvkSn0J5bYfSsjz8R2EUeyERegBFRzMagVTKVC+4l5UJPlVR0GXPbf50pqZ
CQIDAQABo4IBYzCCAV8wCQYDVR0TBAIwADAtBglghkgBhvhCAQ0EIBYeRWFzeS1S
U0EgR2VuZXJhdGVkIENlcnRpZmljYXRlMB0GA1UdDgQWBBTGwR0owFunCdt9iHIw
ptBXLb1n7zCB4QYDVR0jBIHZMIHWgBQSzWAE0qCAnnDtxpm4eyzGUv0ZoaGBsqSB
rzCBrDELMAkGA1UEBhMCVVMxCzAJBgNVBAgTAk9IMREwDwYDVQQHEwhDb2x1bWJ1
czESMBAGA1UEChMJVmlraW5nVlBOMR0wGwYDVQQLExRNeU9yZ2FuaXphdGlvbmFs
VW5pdDEVMBMGA1UEAxMMVmlraW5nVlBOIENBMRAwDgYDVQQpEwdFYXN5UlNBMSEw
HwYJKoZIhvcNAQkBFhJtZUBteWhvc3QubXlkb21haW6CCQDPNYXugL8qPjATBgNV
HSUEDDAKBggrBgEFBQcDAjALBgNVHQ8EBAMCB4AwDQYJKoZIhvcNAQEEBQADggIB
ACx9w8xBX2LSOL0ckzbuDcHKUzdHMlwzXFcipPeVc8jb9+eZu3thlLk1CIqJbPLh
B/tzm6b0lkbmEQgzleErxaBK8CnnPsxLu00OprNaabjMKXArIaL9UPy21yaXzY/1
kIR/2TWw8cBe74Hc4IoGvzMk2PDenNCUHRRYp8mcwCKeT/aKELPPlFvNxR1hvrtY
+7uluST0XckrG7cX2/Q+Z7k2iy56gMM4G+YVKyKjBQz0XI63XtUqqG2xUlnbR+95
QfGalQikxPAk1Ux2aspZ3ihkEhPmee3QulzSQaj20dumieBYyOO7yzg5N8qxa8v6
AqUMxYXy4BkgiRf20htLzYnQnfrq5qrSabEnovpZuJ8xfaMtYi9gY0rNx57+oGAN
5+WyIAfGkYC1jzCae7Xcb+EElk9UCWImtFGpaR6QF/vDWndnG2aY4YwSKR2nE7br
OPyYcdnhL0irj/sE5JUa7wbvh1MKCLfSLshdSyx0KRPs3JMh8vEFWmnEz8jSnPpd
2mShhkjlabOyfC+9ciUbLJM0at+eYiSIDqKQmHlC/2tTKEcsilOvfkArFUAGFr02
RmuC+5QBnAXbFeRouxBTTFFl3nNlJAhyZvUwFggYQeyob/KPDF3ajFWkcWLc6Gkv
d8isRwGSOYx4JroYwNBuqlv4+qCcSrpL5NaFAkkWsOyN
-----END CERTIFICATE-----
