Certificate:
    Data:
        Version: 3 (0x2)
        Serial Number: 2071 (0x817)
    Signature Algorithm: md5WithRSAEncryption
        Issuer: C=US, ST=OH, L=Columbus, O=VikingVPN, OU=MyOrganizationalUnit, CN=VikingVPN CA/name=EasyRSA/emailAddress=me@myhost.mydomain
        Validity
            Not Before: Jun 11 16:44:16 2014 GMT
            Not After : Jun  8 16:44:16 2024 GMT
        Subject: CN=Client721Cert0517dd
        Subject Public Key Info:
            Public Key Algorithm: rsaEncryption
                Public-Key: (4096 bit)
                Modulus:
                    00:d7:05:bc:ee:af:69:99:37:9e:21:cb:fb:e6:10:
                    84:fb:05:44:44:53:86:c0:83:21:c8:89:60:5e:8a:
                    92:e8:76:2b:89:cc:03:bc:9a:ff:2a:16:5d:8b:6e:
                    48:27:e1:e6:80:cc:d1:aa:5c:6b:08:3a:68:18:b8:
                    50:2e:21:c8:dc:47:da:2b:35:dd:4f:46:04:7d:0e:
                    78:bb:a2:07:52:6e:02:92:e8:67:3a:b5:bc:7f:4c:
                    ec:ba:20:bf:65:bf:f8:e2:26:94:0a:e2:81:ac:8f:
                    64:db:81:84:ea:5a:85:80:0a:75:03:00:3f:78:5a:
                    c4:87:af:f8:ed:44:97:bd:f5:fe:1a:de:6c:63:e6:
                    c8:28:d5:25:bf:d4:f7:34:cf:04:c9:32:03:52:f3:
                    63:aa:fa:4e:62:e6:d7:21:0c:0b:1b:1c:91:ea:a7:
                    ed:18:f2:29:48:34:be:11:f5:08:d5:fb:3f:60:6a:
                    87:46:7b:d4:17:ec:36:f2:11:94:01:60:7b:b6:e8:
                    26:5e:08:d1:44:ba:86:33:b6:e8:23:94:04:29:7e:
                    df:3e:a1:20:e2:ac:6b:82:13:e8:f2:b8:16:95:c5:
                    8f:e5:37:ad:ba:dd:2f:95:a6:a6:8d:fc:54:ce:e4:
                    de:73:28:bf:c4:36:82:e2:e5:69:83:47:8a:22:d7:
                    c0:78:18:b5:16:02:42:c8:3f:ae:40:6c:f5:20:67:
                    9a:44:c4:d1:7d:bf:a7:4d:32:8c:45:bc:12:e2:58:
                    84:ab:e5:0e:a1:9a:71:31:a4:91:bc:7a:70:9b:35:
                    5c:fb:8d:42:e8:0b:c6:6d:cd:b1:75:02:70:d6:79:
                    c9:31:f3:fa:bd:22:ef:f9:1f:c2:9f:30:a1:40:d4:
                    76:f7:5e:5d:99:9a:43:87:a6:2d:45:2e:bd:71:62:
                    1b:0a:35:2d:56:e8:d5:ad:81:b4:af:03:23:5e:d1:
                    bf:72:02:64:21:9d:e8:fa:2f:85:e7:f1:17:3f:3b:
                    8b:d0:09:fa:08:14:cc:12:d6:62:ee:b2:88:1f:ae:
                    32:9f:fe:4f:47:f9:98:79:b5:a5:df:55:24:6e:e6:
                    ac:30:3e:f3:e4:e8:7a:04:1d:7b:a4:9d:df:9d:bd:
                    f9:dc:9d:a9:c0:97:9d:fc:55:47:3a:e2:3d:d8:53:
                    0e:0c:b2:76:c2:8e:3e:67:64:d6:1f:40:82:3b:93:
                    1e:11:9a:0c:d6:d0:8e:c7:30:c7:63:c3:0a:91:57:
                    4c:12:48:0c:4d:e9:37:66:25:98:e1:b2:3f:fe:f5:
                    b5:14:bf:3e:b5:31:e7:f1:b5:3a:ab:e5:71:b0:e0:
                    77:39:53:57:8b:78:c0:6f:a7:93:18:93:ce:15:84:
                    e1:c4:ef
                Exponent: 65537 (0x10001)
        X509v3 extensions:
            X509v3 Basic Constraints: 
                CA:FALSE
            Netscape Comment: 
                Easy-RSA Generated Certificate
            X509v3 Subject Key Identifier: 
                88:25:BD:2E:E0:6E:D0:8B:37:54:76:F1:A1:84:1C:37:F1:D7:91:E1
            X509v3 Authority Key Identifier: 
                keyid:12:CD:60:04:D2:A0:80:9E:70:ED:C6:99:B8:7B:2C:C6:52:FD:19:A1
                DirName:/C=US/ST=OH/L=Columbus/O=VikingVPN/OU=MyOrganizationalUnit/CN=VikingVPN CA/name=EasyRSA/emailAddress=me@myhost.mydomain
                serial:CF:35:85:EE:80:BF:2A:3E

            X509v3 Extended Key Usage: 
                TLS Web Client Authentication
            X509v3 Key Usage: 
                Digital Signature
    Signature Algorithm: md5WithRSAEncryption
         b6:c3:89:b2:de:96:2d:20:7d:68:21:31:57:0f:2a:e4:0c:98:
         15:6f:cd:c6:f1:db:e3:2b:81:c6:ca:5a:08:e1:1f:2b:c6:83:
         e1:9a:e5:92:84:57:d5:2c:cc:43:df:bc:8e:b2:cf:1b:17:92:
         14:f8:d0:39:19:3d:b9:61:f8:4e:4b:28:c5:eb:4a:8d:41:e9:
         7a:e0:d7:b5:52:bb:73:6b:74:f8:05:9f:3d:ce:46:8e:3f:7a:
         be:f5:58:c5:f0:e1:ba:44:23:0f:9f:0c:10:3c:ae:4b:2d:8f:
         a5:62:0d:5a:17:7a:46:64:1c:63:b7:a4:ae:a3:74:97:8d:b0:
         7a:d0:59:48:c9:ad:ee:31:b2:e0:33:6d:4f:23:51:09:9f:62:
         b5:3e:f8:75:25:14:d4:a8:b2:98:b5:e8:69:1a:41:e6:a9:78:
         76:ab:80:df:c5:4c:81:f4:77:8c:66:99:be:ce:c2:e7:69:aa:
         3c:a0:20:83:8c:65:c2:8e:99:ac:00:fd:b5:e2:ea:1c:b5:9b:
         55:45:28:22:a8:f4:d8:02:20:1a:29:ce:79:4c:d6:08:7b:2b:
         d0:33:f1:61:c0:2c:02:3b:9a:dd:45:61:8a:0b:86:b4:21:99:
         71:19:c6:93:cc:c4:35:ab:41:28:48:01:18:a7:b9:28:4b:dd:
         de:b3:43:a4:d1:bb:f9:8b:8b:49:65:de:d1:df:9d:3c:fa:2f:
         d4:e8:85:6f:2d:20:5b:4e:98:0d:47:65:fd:1a:ac:79:72:a1:
         34:dc:00:5e:4e:96:ce:4b:33:cb:a9:e0:57:34:8b:42:8f:f7:
         0b:8b:bc:50:5c:53:ef:28:38:32:1d:36:53:18:ee:8e:dc:3d:
         9f:b5:a6:42:1f:91:7f:80:fe:a1:66:98:55:e8:e7:b5:c1:66:
         ee:07:df:6d:21:03:b4:ac:0f:0f:f6:3c:96:43:a1:70:4f:cb:
         a3:c4:b6:ef:8c:68:12:7e:13:2f:cc:d4:42:7d:a4:03:dd:ef:
         e0:35:cd:a2:c2:9b:f8:a6:02:d5:c7:43:ca:af:1d:bb:94:93:
         1f:82:e0:b2:9e:f5:97:c1:24:0c:0e:dd:9f:92:b3:62:28:0f:
         f9:40:73:35:ec:d5:a9:49:b5:2a:c7:88:32:45:3e:ff:c6:6d:
         05:c9:e3:30:ac:61:6c:01:6e:d5:fe:1b:9b:fc:df:38:12:7c:
         e9:aa:eb:ab:f0:77:c3:ec:8b:40:28:99:26:18:aa:5c:f5:f5:
         0c:4b:7a:c1:fa:b9:90:bc:60:6d:2a:66:d5:eb:fd:6b:6d:5d:
         c3:73:a6:68:fa:28:93:69:a9:b7:8e:db:4e:c1:5f:90:79:bc:
         31:94:a5:7e:e1:ae:a4:e5
-----BEGIN CERTIFICATE-----
MIIGrDCCBJSgAwIBAgICCBcwDQYJKoZIhvcNAQEEBQAwgawxCzAJBgNVBAYTAlVT
MQswCQYDVQQIEwJPSDERMA8GA1UEBxMIQ29sdW1idXMxEjAQBgNVBAoTCVZpa2lu
Z1ZQTjEdMBsGA1UECxMUTXlPcmdhbml6YXRpb25hbFVuaXQxFTATBgNVBAMTDFZp
a2luZ1ZQTiBDQTEQMA4GA1UEKRMHRWFzeVJTQTEhMB8GCSqGSIb3DQEJARYSbWVA
bXlob3N0Lm15ZG9tYWluMB4XDTE0MDYxMTE2NDQxNloXDTI0MDYwODE2NDQxNlow
HjEcMBoGA1UEAxMTQ2xpZW50NzIxQ2VydDA1MTdkZDCCAiIwDQYJKoZIhvcNAQEB
BQADggIPADCCAgoCggIBANcFvO6vaZk3niHL++YQhPsFRERThsCDIciJYF6Kkuh2
K4nMA7ya/yoWXYtuSCfh5oDM0apcawg6aBi4UC4hyNxH2is13U9GBH0OeLuiB1Ju
ApLoZzq1vH9M7Logv2W/+OImlArigayPZNuBhOpahYAKdQMAP3haxIev+O1El731
/hrebGPmyCjVJb/U9zTPBMkyA1LzY6r6TmLm1yEMCxsckeqn7RjyKUg0vhH1CNX7
P2Bqh0Z71BfsNvIRlAFge7boJl4I0US6hjO26COUBCl+3z6hIOKsa4IT6PK4FpXF
j+U3rbrdL5Wmpo38VM7k3nMov8Q2guLlaYNHiiLXwHgYtRYCQsg/rkBs9SBnmkTE
0X2/p00yjEW8EuJYhKvlDqGacTGkkbx6cJs1XPuNQugLxm3NsXUCcNZ5yTHz+r0i
7/kfwp8woUDUdvdeXZmaQ4emLUUuvXFiGwo1LVbo1a2BtK8DI17Rv3ICZCGd6Pov
hefxFz87i9AJ+ggUzBLWYu6yiB+uMp/+T0f5mHm1pd9VJG7mrDA+8+ToegQde6Sd
3529+dydqcCXnfxVRzriPdhTDgyydsKOPmdk1h9AgjuTHhGaDNbQjscwx2PDCpFX
TBJIDE3pN2YlmOGyP/71tRS/PrUx5/G1OqvlcbDgdzlTV4t4wG+nkxiTzhWE4cTv
AgMBAAGjggFjMIIBXzAJBgNVHRMEAjAAMC0GCWCGSAGG+EIBDQQgFh5FYXN5LVJT
QSBHZW5lcmF0ZWQgQ2VydGlmaWNhdGUwHQYDVR0OBBYEFIglvS7gbtCLN1R28aGE
HDfx15HhMIHhBgNVHSMEgdkwgdaAFBLNYATSoICecO3Gmbh7LMZS/RmhoYGypIGv
MIGsMQswCQYDVQQGEwJVUzELMAkGA1UECBMCT0gxETAPBgNVBAcTCENvbHVtYnVz
MRIwEAYDVQQKEwlWaWtpbmdWUE4xHTAbBgNVBAsTFE15T3JnYW5pemF0aW9uYWxV
bml0MRUwEwYDVQQDEwxWaWtpbmdWUE4gQ0ExEDAOBgNVBCkTB0Vhc3lSU0ExITAf
BgkqhkiG9w0BCQEWEm1lQG15aG9zdC5teWRvbWFpboIJAM81he6Avyo+MBMGA1Ud
JQQMMAoGCCsGAQUFBwMCMAsGA1UdDwQEAwIHgDANBgkqhkiG9w0BAQQFAAOCAgEA
tsOJst6WLSB9aCExVw8q5AyYFW/NxvHb4yuBxspaCOEfK8aD4ZrlkoRX1SzMQ9+8
jrLPGxeSFPjQORk9uWH4TksoxetKjUHpeuDXtVK7c2t0+AWfPc5Gjj96vvVYxfDh
ukQjD58MEDyuSy2PpWINWhd6RmQcY7ekrqN0l42wetBZSMmt7jGy4DNtTyNRCZ9i
tT74dSUU1KiymLXoaRpB5ql4dquA38VMgfR3jGaZvs7C52mqPKAgg4xlwo6ZrAD9
teLqHLWbVUUoIqj02AIgGinOeUzWCHsr0DPxYcAsAjua3UVhiguGtCGZcRnGk8zE
NatBKEgBGKe5KEvd3rNDpNG7+YuLSWXe0d+dPPov1OiFby0gW06YDUdl/RqseXKh
NNwAXk6Wzkszy6ngVzSLQo/3C4u8UFxT7yg4Mh02Uxjujtw9n7WmQh+Rf4D+oWaY
VejntcFm7gffbSEDtKwPD/Y8lkOhcE/Lo8S274xoEn4TL8zUQn2kA93v4DXNosKb
+KYC1cdDyq8du5STH4Lgsp71l8EkDA7dn5KzYigP+UBzNezVqUm1KseIMkU+/8Zt
BcnjMKxhbAFu1f4bm/zfOBJ86arrq/B3w+yLQCiZJhiqXPX1DEt6wfq5kLxgbSpm
1ev9a21dw3OmaPook2mpt47bTsFfkHm8MZSlfuGupOU=
-----END CERTIFICATE-----
