Certificate:
    Data:
        Version: 3 (0x2)
        Serial Number: 10910 (0x2a9e)
    Signature Algorithm: sha256WithRSAEncryption
        Issuer: C=US, ST=OH, L=Columbus, O=VikingVPN, OU=MyOrganizationalUnit, CN=VikingVPN CA/name=EasyRSA/emailAddress=me@myhost.mydomain
        Validity
            Not Before: May  8 04:05:20 2017 GMT
            Not After : May  6 04:05:20 2027 GMT
        Subject: CN=Client2907Certfa7c59
        Subject Public Key Info:
            Public Key Algorithm: rsaEncryption
                Public-Key: (4096 bit)
                Modulus:
                    00:cd:15:21:59:d3:34:13:2d:9a:76:1c:ac:f9:67:
                    9f:49:71:af:e6:19:28:4b:d0:62:40:47:a2:53:2d:
                    df:f2:d6:ca:44:45:c5:cc:09:0e:ba:ec:9e:dc:a1:
                    f0:a1:e7:b5:c8:59:cc:9c:8f:ad:81:be:08:5c:1f:
                    3f:7f:fd:cc:2e:de:23:cb:c7:59:12:23:fe:18:64:
                    bc:37:88:ac:82:c6:a8:3e:77:42:5c:bd:2d:ec:e7:
                    bc:af:ed:01:45:60:5e:4b:51:38:a0:25:36:69:af:
                    5b:6a:1c:c3:82:46:71:f0:a4:53:5f:9b:7b:48:5a:
                    49:82:9d:cc:63:82:2a:8b:40:bb:18:56:9d:08:da:
                    94:31:8a:d1:87:8d:ac:db:ed:a7:04:e4:1e:36:4b:
                    78:7f:21:dc:a6:88:5f:e5:d0:e3:7e:79:d7:ad:7c:
                    81:21:4f:af:c2:7d:56:42:2c:98:f6:f2:37:b1:85:
                    87:c5:70:02:4e:d9:a4:59:c8:d1:b9:74:33:f3:2b:
                    2f:0b:a3:5a:0f:e5:1f:c5:77:c8:29:bf:39:7c:cc:
                    d3:ad:25:19:82:f4:9e:82:97:2b:ab:4c:c6:aa:27:
                    ca:f9:89:96:89:ea:58:c1:bd:8e:6e:41:8d:c6:01:
                    ba:ab:8f:70:ae:3d:40:ad:c6:e1:ae:18:56:1a:ca:
                    d3:88:54:17:0f:84:64:de:68:85:72:ed:f4:6c:d5:
                    57:e1:7c:40:f4:98:76:17:ea:df:88:43:ae:e7:b4:
                    58:1e:23:01:13:bc:e5:46:1c:fd:06:9f:f9:07:bb:
                    4b:fd:66:f8:f1:5b:dc:e4:27:27:37:13:e1:34:ee:
                    09:b9:c7:33:ed:08:d9:0e:9f:b9:90:7e:13:81:1c:
                    2e:eb:54:c4:9f:a7:ec:ce:48:aa:aa:d2:00:4b:10:
                    b5:9a:f5:ad:4f:c6:5b:58:19:4b:f2:a9:3a:7e:3e:
                    ae:9f:81:ed:f5:c5:94:46:d9:0b:b1:5e:84:84:c2:
                    90:e9:ea:ce:bf:dc:61:2c:ec:6b:81:bb:33:0c:79:
                    72:70:6e:2c:e6:a4:00:6b:ec:5b:5a:19:cd:09:c5:
                    ad:23:5b:1a:a0:d4:46:5d:ea:71:9c:7a:8e:03:68:
                    e7:61:e4:af:c3:db:c3:b9:6c:48:cd:d9:f8:28:5c:
                    e6:65:8e:66:7d:3d:55:71:08:68:26:f4:a3:1e:9a:
                    0f:b3:99:1e:ac:9e:da:d8:88:58:12:2a:a7:86:67:
                    bc:f1:a4:af:e4:d9:9a:89:6b:71:5f:89:09:f5:ab:
                    b0:bf:d1:aa:7e:d3:21:ff:a7:4c:eb:15:70:21:2f:
                    a2:95:bd:06:79:c0:74:04:78:40:bf:d3:b9:6e:72:
                    d6:8f:71
                Exponent: 65537 (0x10001)
        X509v3 extensions:
            X509v3 Basic Constraints: 
                CA:FALSE
            Netscape Comment: 
                Easy-RSA Generated Certificate
            X509v3 Subject Key Identifier: 
                1C:A1:4C:99:C2:6F:30:36:E1:31:B6:0B:58:B2:91:EC:18:AE:29:A0
            X509v3 Authority Key Identifier: 
                keyid:12:CD:60:04:D2:A0:80:9E:70:ED:C6:99:B8:7B:2C:C6:52:FD:19:A1
                DirName:/C=US/ST=OH/L=Columbus/O=VikingVPN/OU=MyOrganizationalUnit/CN=VikingVPN CA/name=EasyRSA/emailAddress=me@myhost.mydomain
                serial:CF:35:85:EE:80:BF:2A:3E

            X509v3 Extended Key Usage: 
                TLS Web Client Authentication
            X509v3 Key Usage: 
                Digital Signature
    Signature Algorithm: sha256WithRSAEncryption
         7e:6b:62:ef:8d:a9:7d:0e:33:bf:8f:6a:be:b5:51:00:ee:fa:
         5a:96:62:25:ae:e7:89:ac:72:90:76:b0:db:4f:0b:77:12:c2:
         af:ab:ab:d8:b3:65:d6:bb:f2:7a:91:31:ec:44:09:b3:52:20:
         e4:3d:b1:bc:5c:cc:32:79:96:36:67:10:cf:1a:80:2d:31:38:
         e7:cc:f4:98:64:2b:34:d2:7f:77:b3:78:db:28:cb:1c:b4:69:
         52:53:6b:d2:27:34:91:73:6c:df:5e:a2:dd:34:ec:67:cc:bd:
         e0:cb:b4:b5:aa:29:1d:ac:0e:91:35:a0:8f:96:91:36:4b:d3:
         f0:76:ad:9a:8d:9a:7a:c4:26:bc:7a:96:90:02:11:42:76:e6:
         7a:29:2d:1c:69:47:8b:21:91:35:fb:0e:cb:a5:35:09:41:63:
         9b:b1:9b:01:3f:53:41:7a:6b:55:58:1a:e9:e9:46:27:57:9b:
         dc:74:4e:d6:c1:a1:b4:cf:cf:f7:bc:4e:68:4e:38:b7:28:05:
         94:c5:f0:64:d4:c2:8f:a0:d3:ea:04:be:51:9b:87:22:f9:0f:
         74:b3:67:d4:5c:53:b6:77:ea:1c:be:2d:1f:2f:4b:4c:c8:80:
         be:58:35:36:57:65:1d:54:cc:ee:3f:c2:26:99:2e:09:70:e9:
         3b:f0:7a:51:f0:bb:d2:b9:7b:f6:7a:e1:95:b7:5d:20:45:a5:
         5a:2a:b0:3b:fb:21:e7:c5:15:c2:f1:94:6c:44:49:57:a4:8f:
         c2:60:fc:ad:b8:c7:88:eb:98:ba:3d:d9:b5:7f:f6:d9:59:36:
         c1:5d:da:f0:b4:94:16:1b:bf:be:d2:be:98:7f:67:a1:bf:3f:
         2b:c9:8b:c1:59:75:4f:a7:b0:9f:aa:b9:83:ee:c3:d0:34:2a:
         f6:70:bb:ba:db:86:55:ba:dc:90:ae:13:fb:96:2a:9e:97:7e:
         a8:07:20:b9:d5:83:08:9e:86:cf:5e:df:85:8c:aa:98:25:22:
         5b:7b:17:4e:db:f2:2e:5d:1f:a0:44:1c:df:18:55:52:2f:47:
         8d:13:58:c7:03:85:38:22:bb:b9:87:d1:15:41:40:78:91:fc:
         4a:03:d7:c9:d3:fd:d8:c1:f6:2f:31:28:06:68:bd:89:3a:29:
         50:79:7b:1b:6d:23:c4:d7:78:d2:47:07:d7:15:fd:ba:d6:ef:
         3e:60:34:b9:d8:11:91:97:f6:6a:05:e5:fc:94:a4:f4:5b:4c:
         97:03:26:b7:5c:72:89:7f:92:6c:08:4c:7f:50:88:6f:a0:23:
         93:20:97:2e:c4:54:4f:2e:99:d7:24:1d:7d:87:c2:9d:7a:8e:
         98:ef:c4:6c:ea:35:7f:cd
-----BEGIN CERTIFICATE-----
MIIGrTCCBJWgAwIBAgICKp4wDQYJKoZIhvcNAQELBQAwgawxCzAJBgNVBAYTAlVT
MQswCQYDVQQIEwJPSDERMA8GA1UEBxMIQ29sdW1idXMxEjAQBgNVBAoTCVZpa2lu
Z1ZQTjEdMBsGA1UECxMUTXlPcmdhbml6YXRpb25hbFVuaXQxFTATBgNVBAMTDFZp
a2luZ1ZQTiBDQTEQMA4GA1UEKRMHRWFzeVJTQTEhMB8GCSqGSIb3DQEJARYSbWVA
bXlob3N0Lm15ZG9tYWluMB4XDTE3MDUwODA0MDUyMFoXDTI3MDUwNjA0MDUyMFow
HzEdMBsGA1UEAxMUQ2xpZW50MjkwN0NlcnRmYTdjNTkwggIiMA0GCSqGSIb3DQEB
AQUAA4ICDwAwggIKAoICAQDNFSFZ0zQTLZp2HKz5Z59Jca/mGShL0GJAR6JTLd/y
1spERcXMCQ667J7cofCh57XIWcycj62BvghcHz9//cwu3iPLx1kSI/4YZLw3iKyC
xqg+d0JcvS3s57yv7QFFYF5LUTigJTZpr1tqHMOCRnHwpFNfm3tIWkmCncxjgiqL
QLsYVp0I2pQxitGHjazb7acE5B42S3h/IdymiF/l0ON+edetfIEhT6/CfVZCLJj2
8jexhYfFcAJO2aRZyNG5dDPzKy8Lo1oP5R/Fd8gpvzl8zNOtJRmC9J6ClyurTMaq
J8r5iZaJ6ljBvY5uQY3GAbqrj3CuPUCtxuGuGFYaytOIVBcPhGTeaIVy7fRs1Vfh
fED0mHYX6t+IQ67ntFgeIwETvOVGHP0Gn/kHu0v9ZvjxW9zkJyc3E+E07gm5xzPt
CNkOn7mQfhOBHC7rVMSfp+zOSKqq0gBLELWa9a1PxltYGUvyqTp+Pq6fge31xZRG
2QuxXoSEwpDp6s6/3GEs7GuBuzMMeXJwbizmpABr7FtaGc0Jxa0jWxqg1EZd6nGc
eo4DaOdh5K/D28O5bEjN2fgoXOZljmZ9PVVxCGgm9KMemg+zmR6sntrYiFgSKqeG
Z7zxpK/k2ZqJa3FfiQn1q7C/0ap+0yH/p0zrFXAhL6KVvQZ5wHQEeEC/07luctaP
cQIDAQABo4IBYzCCAV8wCQYDVR0TBAIwADAtBglghkgBhvhCAQ0EIBYeRWFzeS1S
U0EgR2VuZXJhdGVkIENlcnRpZmljYXRlMB0GA1UdDgQWBBQcoUyZwm8wNuExtgtY
spHsGK4poDCB4QYDVR0jBIHZMIHWgBQSzWAE0qCAnnDtxpm4eyzGUv0ZoaGBsqSB
rzCBrDELMAkGA1UEBhMCVVMxCzAJBgNVBAgTAk9IMREwDwYDVQQHEwhDb2x1bWJ1
czESMBAGA1UEChMJVmlraW5nVlBOMR0wGwYDVQQLExRNeU9yZ2FuaXphdGlvbmFs
VW5pdDEVMBMGA1UEAxMMVmlraW5nVlBOIENBMRAwDgYDVQQpEwdFYXN5UlNBMSEw
HwYJKoZIhvcNAQkBFhJtZUBteWhvc3QubXlkb21haW6CCQDPNYXugL8qPjATBgNV
HSUEDDAKBggrBgEFBQcDAjALBgNVHQ8EBAMCB4AwDQYJKoZIhvcNAQELBQADggIB
AH5rYu+NqX0OM7+Par61UQDu+lqWYiWu54mscpB2sNtPC3cSwq+rq9izZda78nqR
MexECbNSIOQ9sbxczDJ5ljZnEM8agC0xOOfM9JhkKzTSf3ezeNsoyxy0aVJTa9In
NJFzbN9eot007GfMveDLtLWqKR2sDpE1oI+WkTZL0/B2rZqNmnrEJrx6lpACEUJ2
5nopLRxpR4shkTX7DsulNQlBY5uxmwE/U0F6a1VYGunpRidXm9x0TtbBobTPz/e8
TmhOOLcoBZTF8GTUwo+g0+oEvlGbhyL5D3SzZ9RcU7Z36hy+LR8vS0zIgL5YNTZX
ZR1UzO4/wiaZLglw6TvwelHwu9K5e/Z64ZW3XSBFpVoqsDv7IefFFcLxlGxESVek
j8Jg/K24x4jrmLo92bV/9tlZNsFd2vC0lBYbv77Svph/Z6G/PyvJi8FZdU+nsJ+q
uYPuw9A0KvZwu7rbhlW63JCuE/uWKp6XfqgHILnVgwiehs9e34WMqpglIlt7F07b
8i5dH6BEHN8YVVIvR40TWMcDhTgiu7mH0RVBQHiR/EoD18nT/djB9i8xKAZovYk6
KVB5exttI8TXeNJHB9cV/brW7z5gNLnYEZGX9moF5fyUpPRbTJcDJrdccol/kmwI
TH9QiG+gI5Mgly7EVE8umdckHX2Hwp16jpjvxGzqNX/N
-----END CERTIFICATE-----
