Certificate:
    Data:
        Version: 3 (0x2)
        Serial Number: 9646 (0x25ae)
    Signature Algorithm: sha256WithRSAEncryption
        Issuer: C=US, ST=OH, L=Columbus, O=VikingVPN, OU=MyOrganizationalUnit, CN=VikingVPN CA/name=EasyRSA/emailAddress=me@myhost.mydomain
        Validity
            Not Before: Dec  4 16:16:10 2016 GMT
            Not After : Dec  2 16:16:10 2026 GMT
        Subject: CN=Client2083Cert4a9a02
        Subject Public Key Info:
            Public Key Algorithm: rsaEncryption
                Public-Key: (4096 bit)
                Modulus:
                    00:9d:01:9c:0c:fb:90:8e:aa:ac:01:72:4b:86:a7:
                    b5:0d:a4:42:77:6a:03:83:0a:8b:67:94:8a:07:f9:
                    09:45:bf:2f:aa:1e:3f:e0:fa:a0:b3:ac:22:1a:2f:
                    bc:65:30:87:9b:56:9b:4c:03:29:ac:9c:55:e7:87:
                    8c:13:27:59:34:92:b7:3d:ad:bd:a9:2f:d0:f4:17:
                    cf:3a:9e:69:b6:5b:9b:7e:44:6d:04:dd:f4:cc:ff:
                    f1:8b:5f:24:78:af:80:83:70:42:62:28:62:c3:18:
                    6d:dd:5a:9f:1f:59:36:85:78:c5:07:a4:ca:53:16:
                    b1:7a:1e:d6:54:be:68:e0:0b:e4:a0:c1:8a:6a:fa:
                    1d:8d:19:fd:c3:12:19:2b:c4:91:7c:81:88:78:42:
                    0c:60:10:bb:25:a3:cd:02:ca:6e:f2:4e:30:42:70:
                    8a:4f:09:58:f0:c9:6e:f9:e5:26:e6:b5:13:b1:4a:
                    04:9d:a5:37:4e:3f:57:2f:5b:37:7c:e6:79:1d:61:
                    97:6d:7b:b4:dc:28:fb:d9:a6:37:58:61:bc:4e:4c:
                    85:3f:96:36:32:01:36:e2:f4:04:7b:61:c3:8d:9a:
                    1c:6f:57:69:c5:a9:f4:66:46:23:b7:09:90:4f:98:
                    57:d5:e3:3c:95:d1:d9:f6:3d:45:85:14:c3:24:6d:
                    45:ae:b8:6f:87:dc:ac:f6:26:b1:2f:49:83:b4:9e:
                    c2:31:d3:f7:9f:89:54:a8:42:20:b4:95:a2:59:a3:
                    95:23:92:46:63:8b:69:b2:2a:5f:73:31:13:d9:8e:
                    88:f4:93:3c:80:28:fc:5c:91:06:53:f5:30:a2:cb:
                    03:40:e9:a7:60:ae:f9:a4:80:4d:30:3c:66:21:1c:
                    9b:2a:e0:ec:a6:99:bd:8c:89:d2:91:4a:40:07:10:
                    20:91:d8:be:e8:83:a7:f9:05:47:41:15:5c:58:a5:
                    89:84:f1:23:79:d1:d8:d1:98:2c:b5:e7:81:c6:2b:
                    01:37:41:0f:5c:44:07:fe:2d:0f:7d:f9:ec:98:e5:
                    ca:18:9f:d0:b0:c8:33:2d:df:8c:9e:cf:96:7b:76:
                    12:e8:49:f0:40:9f:c5:cc:e8:a8:74:c5:31:56:e0:
                    b6:3d:ba:1c:75:bb:87:f9:22:fa:c1:4c:2e:1b:5e:
                    76:b2:33:91:4c:f1:ed:0a:4f:4c:c4:31:9f:d6:30:
                    80:c4:6e:0f:15:ed:0e:db:16:80:f4:75:27:f4:f0:
                    0a:0a:43:ef:1b:76:24:c9:e8:93:96:ea:d3:d2:d1:
                    90:cc:c8:42:da:d1:ad:6f:4f:9f:b9:07:f1:08:8f:
                    53:56:fc:09:93:45:86:25:01:ba:96:dc:89:00:c4:
                    52:75:5d
                Exponent: 65537 (0x10001)
        X509v3 extensions:
            X509v3 Basic Constraints: 
                CA:FALSE
            Netscape Comment: 
                Easy-RSA Generated Certificate
            X509v3 Subject Key Identifier: 
                0D:13:8F:92:31:B3:12:A7:D6:23:E4:84:1D:4C:60:4A:5E:2B:44:6E
            X509v3 Authority Key Identifier: 
                keyid:12:CD:60:04:D2:A0:80:9E:70:ED:C6:99:B8:7B:2C:C6:52:FD:19:A1
                DirName:/C=US/ST=OH/L=Columbus/O=VikingVPN/OU=MyOrganizationalUnit/CN=VikingVPN CA/name=EasyRSA/emailAddress=me@myhost.mydomain
                serial:CF:35:85:EE:80:BF:2A:3E

            X509v3 Extended Key Usage: 
                TLS Web Client Authentication
            X509v3 Key Usage: 
                Digital Signature
    Signature Algorithm: sha256WithRSAEncryption
         48:19:44:19:9a:cb:6b:0f:48:62:7d:76:43:f4:ff:e3:1d:30:
         be:cb:7b:45:cc:85:8b:9a:bb:97:78:ec:cd:07:ba:08:53:d7:
         bf:1c:fa:2a:29:8f:f0:8e:e7:35:27:45:f2:18:bb:2a:3a:c8:
         bf:b8:82:77:c1:29:ae:35:fd:7e:11:1f:68:4d:11:e4:dd:d4:
         af:89:be:c1:c5:6b:7d:f0:93:58:83:4e:9a:be:a7:3c:42:d4:
         2c:cf:6c:82:86:d7:0e:63:c0:d0:d7:03:a1:cb:9e:21:ce:51:
         e8:17:ed:a4:6c:94:5e:3e:c1:0c:87:3e:61:cb:ea:da:a0:9b:
         00:81:86:39:3b:6f:71:70:83:19:34:d9:65:5d:ef:d4:cf:79:
         ee:42:77:43:f0:38:07:60:40:10:1d:1e:63:5d:a6:f2:26:ff:
         85:71:ab:67:50:b7:98:5c:cf:ad:c5:2c:f0:c3:36:17:57:30:
         97:8b:aa:1f:0f:a5:4c:4b:dc:cc:dc:db:b4:af:57:b8:71:28:
         e2:ac:aa:a6:65:cc:39:2d:02:5c:61:e7:e6:13:9d:ed:c0:35:
         d6:f2:7b:95:9e:e4:8c:dd:c5:78:fe:e8:ad:47:c1:a6:ea:2e:
         e7:e7:f0:7b:ec:f3:21:69:6a:a8:a9:37:28:d7:ed:ca:b0:b9:
         7d:ae:7e:52:c1:ae:8f:dd:6e:37:6e:da:a1:ac:ed:4d:58:8b:
         39:14:cc:28:01:6c:fc:26:bc:6c:ea:36:8e:7b:a8:94:6c:6e:
         bc:c3:1b:7b:b9:67:7b:41:b3:2d:62:9a:b7:15:86:43:4f:d6:
         a0:6b:86:cc:8c:78:b2:f2:84:e5:d1:f5:53:bd:b0:23:d6:be:
         30:81:bc:ac:b8:a0:7b:ef:9c:da:79:24:5b:f0:86:8b:09:e5:
         dc:2c:34:1d:d1:48:ad:7b:80:79:f6:e9:ab:e5:f8:99:9b:53:
         4c:ae:58:74:d8:da:45:ae:85:27:6c:c4:b8:aa:e9:b8:17:72:
         fc:37:e7:44:5e:01:5d:81:34:0a:c5:7e:47:df:ef:0c:cd:9a:
         c7:96:43:9c:57:c4:4e:7b:90:a1:6e:a3:ad:c7:d6:04:5b:a2:
         9b:3c:41:ff:d6:a4:90:c0:01:37:d9:20:d5:93:ad:f4:3b:18:
         3b:e4:86:5d:05:f2:03:ab:0e:76:0a:71:f5:a9:04:98:77:1f:
         75:70:ba:9e:5c:11:17:16:8c:e4:c9:53:ad:f6:1e:38:a1:1a:
         67:d9:31:88:31:c0:b4:a6:1a:39:be:0c:c4:ff:1a:86:fd:cb:
         ac:73:b9:78:12:8b:ac:88:ff:96:41:6c:34:aa:d6:6c:e1:e0:
         a9:7c:14:ad:c6:32:7c:8a
-----BEGIN CERTIFICATE-----
MIIGrTCCBJWgAwIBAgICJa4wDQYJKoZIhvcNAQELBQAwgawxCzAJBgNVBAYTAlVT
MQswCQYDVQQIEwJPSDERMA8GA1UEBxMIQ29sdW1idXMxEjAQBgNVBAoTCVZpa2lu
Z1ZQTjEdMBsGA1UECxMUTXlPcmdhbml6YXRpb25hbFVuaXQxFTATBgNVBAMTDFZp
a2luZ1ZQTiBDQTEQMA4GA1UEKRMHRWFzeVJTQTEhMB8GCSqGSIb3DQEJARYSbWVA
bXlob3N0Lm15ZG9tYWluMB4XDTE2MTIwNDE2MTYxMFoXDTI2MTIwMjE2MTYxMFow
HzEdMBsGA1UEAxMUQ2xpZW50MjA4M0NlcnQ0YTlhMDIwggIiMA0GCSqGSIb3DQEB
AQUAA4ICDwAwggIKAoICAQCdAZwM+5COqqwBckuGp7UNpEJ3agODCotnlIoH+QlF
vy+qHj/g+qCzrCIaL7xlMIebVptMAymsnFXnh4wTJ1k0krc9rb2pL9D0F886nmm2
W5t+RG0E3fTM//GLXyR4r4CDcEJiKGLDGG3dWp8fWTaFeMUHpMpTFrF6HtZUvmjg
C+SgwYpq+h2NGf3DEhkrxJF8gYh4QgxgELslo80Cym7yTjBCcIpPCVjwyW755Sbm
tROxSgSdpTdOP1cvWzd85nkdYZdte7TcKPvZpjdYYbxOTIU/ljYyATbi9AR7YcON
mhxvV2nFqfRmRiO3CZBPmFfV4zyV0dn2PUWFFMMkbUWuuG+H3Kz2JrEvSYO0nsIx
0/efiVSoQiC0laJZo5UjkkZji2myKl9zMRPZjoj0kzyAKPxckQZT9TCiywNA6adg
rvmkgE0wPGYhHJsq4Oymmb2MidKRSkAHECCR2L7og6f5BUdBFVxYpYmE8SN50djR
mCy154HGKwE3QQ9cRAf+LQ99+eyY5coYn9CwyDMt34yez5Z7dhLoSfBAn8XM6Kh0
xTFW4LY9uhx1u4f5IvrBTC4bXnayM5FM8e0KT0zEMZ/WMIDEbg8V7Q7bFoD0dSf0
8AoKQ+8bdiTJ6JOW6tPS0ZDMyELa0a1vT5+5B/EIj1NW/AmTRYYlAbqW3IkAxFJ1
XQIDAQABo4IBYzCCAV8wCQYDVR0TBAIwADAtBglghkgBhvhCAQ0EIBYeRWFzeS1S
U0EgR2VuZXJhdGVkIENlcnRpZmljYXRlMB0GA1UdDgQWBBQNE4+SMbMSp9Yj5IQd
TGBKXitEbjCB4QYDVR0jBIHZMIHWgBQSzWAE0qCAnnDtxpm4eyzGUv0ZoaGBsqSB
rzCBrDELMAkGA1UEBhMCVVMxCzAJBgNVBAgTAk9IMREwDwYDVQQHEwhDb2x1bWJ1
czESMBAGA1UEChMJVmlraW5nVlBOMR0wGwYDVQQLExRNeU9yZ2FuaXphdGlvbmFs
VW5pdDEVMBMGA1UEAxMMVmlraW5nVlBOIENBMRAwDgYDVQQpEwdFYXN5UlNBMSEw
HwYJKoZIhvcNAQkBFhJtZUBteWhvc3QubXlkb21haW6CCQDPNYXugL8qPjATBgNV
HSUEDDAKBggrBgEFBQcDAjALBgNVHQ8EBAMCB4AwDQYJKoZIhvcNAQELBQADggIB
AEgZRBmay2sPSGJ9dkP0/+MdML7Le0XMhYuau5d47M0HughT178c+iopj/CO5zUn
RfIYuyo6yL+4gnfBKa41/X4RH2hNEeTd1K+JvsHFa33wk1iDTpq+pzxC1CzPbIKG
1w5jwNDXA6HLniHOUegX7aRslF4+wQyHPmHL6tqgmwCBhjk7b3Fwgxk02WVd79TP
ee5Cd0PwOAdgQBAdHmNdpvIm/4Vxq2dQt5hcz63FLPDDNhdXMJeLqh8PpUxL3Mzc
27SvV7hxKOKsqqZlzDktAlxh5+YTne3ANdbye5We5IzdxXj+6K1HwabqLufn8Hvs
8yFpaqipNyjX7cqwuX2uflLBro/dbjdu2qGs7U1YizkUzCgBbPwmvGzqNo57qJRs
brzDG3u5Z3tBsy1imrcVhkNP1qBrhsyMeLLyhOXR9VO9sCPWvjCBvKy4oHvvnNp5
JFvwhosJ5dwsNB3RSK17gHn26avl+JmbU0yuWHTY2kWuhSdsxLiq6bgXcvw350Re
AV2BNArFfkff7wzNmseWQ5xXxE57kKFuo63H1gRbops8Qf/WpJDAATfZINWTrfQ7
GDvkhl0F8gOrDnYKcfWpBJh3H3Vwup5cERcWjOTJU632HjihGmfZMYgxwLSmGjm+
DMT/Gob9y6xzuXgSi6yI/5ZBbDSq1mzh4Kl8FK3GMnyK
-----END CERTIFICATE-----
