Certificate:
    Data:
        Version: 3 (0x2)
        Serial Number: 843 (0x34b)
    Signature Algorithm: md5WithRSAEncryption
        Issuer: C=US, ST=OH, L=Columbus, O=VikingVPN, OU=MyOrganizationalUnit, CN=VikingVPN CA/name=EasyRSA/emailAddress=me@myhost.mydomain
        Validity
            Not Before: Jan 26 20:28:31 2014 GMT
            Not After : Jan 24 20:28:31 2024 GMT
        Subject: CN=Client335Cert16c1ee
        Subject Public Key Info:
            Public Key Algorithm: rsaEncryption
                Public-Key: (4096 bit)
                Modulus:
                    00:b5:d6:f6:8a:ff:4e:d4:7b:be:cb:2a:f3:c7:e8:
                    5d:19:52:08:6b:49:5d:87:78:5f:91:d9:44:ed:02:
                    06:31:1b:a4:7a:9c:95:2c:a0:88:34:f2:0d:00:61:
                    6c:5c:13:f5:65:0e:4d:09:1f:5d:9f:45:bc:99:98:
                    a5:36:89:d1:73:cf:fb:47:1b:25:90:c5:f2:41:58:
                    af:cb:a7:0e:7e:75:10:a6:0e:b7:86:ff:d1:14:4a:
                    cd:f8:3a:d8:7d:9b:86:2d:83:42:d5:c9:6c:d4:ee:
                    53:6b:f6:6f:63:af:2b:c0:21:41:e3:69:f9:ec:26:
                    d9:58:dc:60:97:dc:dd:d1:01:5a:3f:0b:76:c7:64:
                    e0:85:a4:a6:89:49:79:3c:9a:ce:41:00:da:c0:24:
                    f4:73:df:04:34:80:a0:32:78:49:38:ef:c5:9f:e8:
                    1a:1c:94:dd:3d:61:f5:a9:1a:88:37:3d:05:f2:d5:
                    6f:75:d9:72:59:cb:07:bd:16:54:08:2f:15:f1:df:
                    56:61:8a:44:7d:00:12:75:68:27:34:6f:90:02:9f:
                    3b:e3:50:ae:9c:a3:24:e1:8c:37:c2:88:9e:ad:a6:
                    c9:fb:db:37:13:fe:c0:d8:32:e1:64:7f:5a:ff:b2:
                    15:6e:1a:65:c7:82:13:eb:b4:4c:93:c7:09:ab:c9:
                    b4:21:28:38:1a:7b:c5:1f:a8:4b:c1:e0:cc:3f:54:
                    f8:a4:57:28:cb:7d:b8:1f:99:87:70:8e:f6:b9:b5:
                    9a:6e:42:e8:17:c0:cd:71:6f:96:2d:ba:0e:e8:1b:
                    6c:b9:94:a5:d6:de:aa:34:6a:34:77:44:7f:20:8e:
                    b3:56:f1:69:aa:1e:74:b5:3c:3e:94:1c:9d:91:53:
                    78:9b:8f:40:ba:48:a4:39:d3:71:df:8f:bb:63:cd:
                    70:01:aa:12:0a:61:6f:c3:49:72:b3:63:9f:c6:51:
                    25:3a:c4:bb:44:83:e5:e6:4b:99:23:50:6a:73:4f:
                    c1:b5:c3:be:a4:9b:71:5a:39:ec:98:ce:53:23:dd:
                    5c:ad:3f:2d:71:ca:8f:fb:b8:a7:2c:99:99:f5:2f:
                    16:3a:31:29:2e:75:dd:34:64:37:25:36:19:b2:59:
                    ff:1d:ca:9d:4f:17:3a:d1:37:d4:8a:e9:dd:58:4b:
                    45:03:b3:7c:a5:c6:f4:2d:56:a1:f6:82:8f:69:b8:
                    0f:b7:a8:22:bf:28:32:2a:25:83:fe:68:40:bc:c1:
                    9c:58:e9:78:d6:ef:a2:38:e6:29:ec:d6:bf:22:c6:
                    26:59:17:15:01:7e:bd:f0:2d:82:1e:6f:86:2a:a8:
                    c5:6f:e7:1c:80:84:64:fd:f2:84:de:90:81:a2:98:
                    d4:70:f1
                Exponent: 65537 (0x10001)
        X509v3 extensions:
            X509v3 Basic Constraints: 
                CA:FALSE
            Netscape Comment: 
                Easy-RSA Generated Certificate
            X509v3 Subject Key Identifier: 
                D3:4A:6F:66:D1:73:94:63:FA:7E:AF:99:7E:90:11:5B:21:A3:F3:2A
            X509v3 Authority Key Identifier: 
                keyid:12:CD:60:04:D2:A0:80:9E:70:ED:C6:99:B8:7B:2C:C6:52:FD:19:A1
                DirName:/C=US/ST=OH/L=Columbus/O=VikingVPN/OU=MyOrganizationalUnit/CN=VikingVPN CA/name=EasyRSA/emailAddress=me@myhost.mydomain
                serial:CF:35:85:EE:80:BF:2A:3E

            X509v3 Extended Key Usage: 
                TLS Web Client Authentication
            X509v3 Key Usage: 
                Digital Signature
    Signature Algorithm: md5WithRSAEncryption
         a6:8a:29:1d:28:3b:44:5d:6e:6d:23:2b:2a:0b:c6:db:5e:2a:
         9a:fd:75:96:f5:89:80:a6:c9:8b:4e:31:89:35:6b:19:af:09:
         7a:64:5e:33:6b:e8:d0:96:0d:50:8c:a8:a9:4d:f3:60:05:a1:
         9b:77:07:60:1a:28:28:aa:87:09:53:52:91:e7:24:af:4b:8e:
         df:43:77:d7:40:df:55:64:1c:2b:7d:43:62:97:05:60:3a:26:
         78:c8:8f:c3:fb:05:c5:eb:2a:31:31:c6:f4:2d:b3:6d:ec:fb:
         b4:15:ac:04:c4:a1:79:90:a5:bf:33:00:06:95:f5:b1:7c:19:
         3d:23:d2:ab:d6:97:d4:3a:13:18:09:08:64:4a:ad:d2:47:fa:
         66:53:48:21:f8:c2:20:6b:70:9a:24:27:de:10:26:61:c2:9c:
         42:8c:4a:0e:db:43:a5:be:d2:2f:cd:46:fd:e5:35:28:2e:e1:
         7c:8c:d4:c0:ce:4b:d9:ca:b7:dd:4b:0a:47:83:13:b4:63:85:
         05:c4:1d:7b:48:08:fb:fd:6a:66:9b:02:c6:1f:9e:8a:7b:10:
         0e:49:3c:21:e8:18:d8:39:c2:6b:8b:25:0b:34:24:07:7e:25:
         30:af:59:3b:0e:24:c8:87:40:98:08:44:3d:29:21:f1:57:69:
         fc:ce:34:45:2f:01:1c:c8:1e:b4:cd:43:6f:28:ce:cc:86:30:
         1f:51:d5:82:82:f0:f7:a7:e0:37:5c:71:74:13:1f:06:5d:9e:
         58:e7:2b:76:42:9d:38:14:d6:58:78:3c:5e:f1:e2:0a:7e:33:
         b7:73:ae:a1:20:dc:d1:47:46:cf:0c:60:e2:68:cf:31:09:a7:
         74:bd:42:4b:cb:04:2e:5d:af:91:cc:19:f2:96:7a:09:b0:5e:
         16:37:98:9d:03:98:b1:ab:95:0a:e0:d8:57:8d:f9:58:06:5c:
         0e:76:2d:77:30:73:51:c4:f4:66:85:92:98:ef:f3:1e:dc:4f:
         11:b0:0c:04:62:fb:cd:98:b5:e4:cb:89:90:d8:4c:33:d9:17:
         7a:f2:96:a1:1c:61:dd:ad:cb:c2:1e:6f:d4:5a:b0:e0:26:63:
         3d:a2:a1:cf:6e:f0:f8:18:ac:51:49:fc:3b:77:a6:e3:cd:fc:
         44:14:6a:30:84:c3:53:13:11:97:73:60:8c:fb:19:cc:13:cd:
         fe:98:a0:16:39:d2:96:1c:eb:82:24:2b:78:0a:29:34:98:4a:
         4c:7c:46:42:de:01:79:70:5e:08:3b:c2:6f:47:fc:4a:ea:0e:
         a5:0c:0d:d8:af:bc:c9:64:3a:6f:cb:5e:77:cf:1b:ef:f3:c4:
         e1:32:fe:69:29:53:ba:40
-----BEGIN CERTIFICATE-----
MIIGrDCCBJSgAwIBAgICA0swDQYJKoZIhvcNAQEEBQAwgawxCzAJBgNVBAYTAlVT
MQswCQYDVQQIEwJPSDERMA8GA1UEBxMIQ29sdW1idXMxEjAQBgNVBAoTCVZpa2lu
Z1ZQTjEdMBsGA1UECxMUTXlPcmdhbml6YXRpb25hbFVuaXQxFTATBgNVBAMTDFZp
a2luZ1ZQTiBDQTEQMA4GA1UEKRMHRWFzeVJTQTEhMB8GCSqGSIb3DQEJARYSbWVA
bXlob3N0Lm15ZG9tYWluMB4XDTE0MDEyNjIwMjgzMVoXDTI0MDEyNDIwMjgzMVow
HjEcMBoGA1UEAxMTQ2xpZW50MzM1Q2VydDE2YzFlZTCCAiIwDQYJKoZIhvcNAQEB
BQADggIPADCCAgoCggIBALXW9or/TtR7vssq88foXRlSCGtJXYd4X5HZRO0CBjEb
pHqclSygiDTyDQBhbFwT9WUOTQkfXZ9FvJmYpTaJ0XPP+0cbJZDF8kFYr8unDn51
EKYOt4b/0RRKzfg62H2bhi2DQtXJbNTuU2v2b2OvK8AhQeNp+ewm2VjcYJfc3dEB
Wj8Ldsdk4IWkpolJeTyazkEA2sAk9HPfBDSAoDJ4STjvxZ/oGhyU3T1h9akaiDc9
BfLVb3XZclnLB70WVAgvFfHfVmGKRH0AEnVoJzRvkAKfO+NQrpyjJOGMN8KInq2m
yfvbNxP+wNgy4WR/Wv+yFW4aZceCE+u0TJPHCavJtCEoOBp7xR+oS8HgzD9U+KRX
KMt9uB+Zh3CO9rm1mm5C6BfAzXFvli26DugbbLmUpdbeqjRqNHdEfyCOs1bxaaoe
dLU8PpQcnZFTeJuPQLpIpDnTcd+Pu2PNcAGqEgphb8NJcrNjn8ZRJTrEu0SD5eZL
mSNQanNPwbXDvqSbcVo57JjOUyPdXK0/LXHKj/u4pyyZmfUvFjoxKS513TRkNyU2
GbJZ/x3KnU8XOtE31Irp3VhLRQOzfKXG9C1WofaCj2m4D7eoIr8oMiolg/5oQLzB
nFjpeNbvojjmKezWvyLGJlkXFQF+vfAtgh5vhiqoxW/nHICEZP3yhN6QgaKY1HDx
AgMBAAGjggFjMIIBXzAJBgNVHRMEAjAAMC0GCWCGSAGG+EIBDQQgFh5FYXN5LVJT
QSBHZW5lcmF0ZWQgQ2VydGlmaWNhdGUwHQYDVR0OBBYEFNNKb2bRc5Rj+n6vmX6Q
EVsho/MqMIHhBgNVHSMEgdkwgdaAFBLNYATSoICecO3Gmbh7LMZS/RmhoYGypIGv
MIGsMQswCQYDVQQGEwJVUzELMAkGA1UECBMCT0gxETAPBgNVBAcTCENvbHVtYnVz
MRIwEAYDVQQKEwlWaWtpbmdWUE4xHTAbBgNVBAsTFE15T3JnYW5pemF0aW9uYWxV
bml0MRUwEwYDVQQDEwxWaWtpbmdWUE4gQ0ExEDAOBgNVBCkTB0Vhc3lSU0ExITAf
BgkqhkiG9w0BCQEWEm1lQG15aG9zdC5teWRvbWFpboIJAM81he6Avyo+MBMGA1Ud
JQQMMAoGCCsGAQUFBwMCMAsGA1UdDwQEAwIHgDANBgkqhkiG9w0BAQQFAAOCAgEA
poopHSg7RF1ubSMrKgvG214qmv11lvWJgKbJi04xiTVrGa8JemReM2vo0JYNUIyo
qU3zYAWhm3cHYBooKKqHCVNSkeckr0uO30N310DfVWQcK31DYpcFYDomeMiPw/sF
xesqMTHG9C2zbez7tBWsBMSheZClvzMABpX1sXwZPSPSq9aX1DoTGAkIZEqt0kf6
ZlNIIfjCIGtwmiQn3hAmYcKcQoxKDttDpb7SL81G/eU1KC7hfIzUwM5L2cq33UsK
R4MTtGOFBcQde0gI+/1qZpsCxh+einsQDkk8IegY2DnCa4slCzQkB34lMK9ZOw4k
yIdAmAhEPSkh8Vdp/M40RS8BHMgetM1DbyjOzIYwH1HVgoLw96fgN1xxdBMfBl2e
WOcrdkKdOBTWWHg8XvHiCn4zt3OuoSDc0UdGzwxg4mjPMQmndL1CS8sELl2vkcwZ
8pZ6CbBeFjeYnQOYsauVCuDYV435WAZcDnYtdzBzUcT0ZoWSmO/zHtxPEbAMBGL7
zZi15MuJkNhMM9kXevKWoRxh3a3Lwh5v1Fqw4CZjPaKhz27w+BisUUn8O3em4838
RBRqMITDUxMRl3NgjPsZzBPN/pigFjnSlhzrgiQreAopNJhKTHxGQt4BeXBeCDvC
b0f8SuoOpQwN2K+8yWQ6b8ted88b7/PE4TL+aSlTukA=
-----END CERTIFICATE-----
