Certificate:
    Data:
        Version: 3 (0x2)
        Serial Number: 5673 (0x1629)
    Signature Algorithm: md5WithRSAEncryption
        Issuer: C=US, ST=OH, L=Columbus, O=VikingVPN, OU=MyOrganizationalUnit, CN=VikingVPN CA/name=EasyRSA/emailAddress=me@myhost.mydomain
        Validity
            Not Before: Jul  2 03:14:47 2015 GMT
            Not After : Jun 29 03:14:47 2025 GMT
        Subject: CN=Client1802Certf57582
        Subject Public Key Info:
            Public Key Algorithm: rsaEncryption
                Public-Key: (4096 bit)
                Modulus:
                    00:b9:3c:8f:a8:e0:cb:51:23:d2:65:e1:37:b5:e4:
                    91:11:e6:00:05:08:be:f9:22:c7:b8:cf:d7:32:3d:
                    8b:b0:10:78:25:24:30:91:35:61:68:83:7f:2e:d7:
                    97:14:66:5a:82:e0:c5:1e:d4:57:56:6b:76:ba:0c:
                    f5:fb:3d:85:0d:71:fd:fc:1f:ac:1e:a9:fe:82:2a:
                    17:da:64:e2:9c:c7:fa:78:d6:18:83:93:b2:70:22:
                    df:81:f5:20:00:77:73:a6:30:06:37:2a:9c:a9:71:
                    1a:c3:3a:da:66:1d:c5:7c:5f:d6:d7:ce:29:4a:ee:
                    43:cf:8e:be:92:79:01:4b:e5:33:3c:33:93:1d:66:
                    c4:2e:64:1a:04:0d:07:80:75:0e:9a:30:4c:2e:a8:
                    68:2c:75:6d:e5:b8:61:bb:e6:60:ca:fc:85:83:dc:
                    49:73:b8:6a:93:75:5d:5b:3a:41:bd:d0:36:23:fd:
                    d8:49:8d:dd:03:a0:cd:07:40:3b:31:d8:2e:e5:b4:
                    9c:d4:c7:5b:63:f5:da:c8:80:47:f8:54:79:ce:44:
                    5e:ef:12:22:d4:84:8c:34:bd:44:17:e6:10:30:4f:
                    74:5a:47:9f:2f:5d:d4:ac:cf:d9:d4:61:d5:43:e5:
                    50:2e:b5:a2:98:05:41:94:66:c3:07:54:53:7c:d8:
                    2f:f8:42:06:39:68:a2:82:fa:92:40:66:3a:a7:c2:
                    44:8f:1c:c1:46:49:5e:ff:5f:ee:8e:78:ae:6f:6b:
                    fd:72:15:d3:c2:30:60:ac:e9:d1:ce:6f:c7:23:e7:
                    96:3a:fc:fd:45:dc:eb:e4:25:87:ef:0e:5f:4d:d7:
                    69:85:e1:c9:80:85:de:2d:64:ff:44:50:31:ec:7e:
                    28:6f:05:ed:3d:9e:c6:5f:5b:ca:35:4d:97:9e:18:
                    ea:c6:b5:fd:0f:bd:85:95:72:97:c9:76:7b:26:57:
                    09:18:8c:7d:eb:1c:f9:ee:a5:aa:e1:12:a5:72:de:
                    a6:a7:c0:bc:d7:ec:65:27:09:60:dd:05:3c:05:bf:
                    7b:de:8b:c9:d2:cf:56:c3:0f:32:d7:8b:cc:e9:f9:
                    db:fd:c0:c3:64:08:6b:27:e3:b4:b3:51:75:f6:20:
                    e8:c2:c7:83:2a:48:77:d2:e0:06:e5:42:ca:87:72:
                    49:86:9a:1d:55:3f:00:3c:4d:87:86:cf:81:dd:80:
                    69:4d:08:a0:8e:4f:c5:a3:60:9e:3a:14:ff:6e:9e:
                    22:a1:ca:4d:98:d0:c5:73:50:2c:65:48:6c:7e:0a:
                    74:59:c4:6a:f1:9a:30:f4:9b:50:54:c7:e5:d5:22:
                    fa:92:f2:05:72:b5:59:20:61:f9:a5:90:4a:9b:49:
                    b2:d9:1b
                Exponent: 65537 (0x10001)
        X509v3 extensions:
            X509v3 Basic Constraints: 
                CA:FALSE
            Netscape Comment: 
                Easy-RSA Generated Certificate
            X509v3 Subject Key Identifier: 
                F7:B4:35:72:0A:26:A7:95:88:61:F7:88:68:3D:34:E3:39:BF:CA:23
            X509v3 Authority Key Identifier: 
                keyid:12:CD:60:04:D2:A0:80:9E:70:ED:C6:99:B8:7B:2C:C6:52:FD:19:A1
                DirName:/C=US/ST=OH/L=Columbus/O=VikingVPN/OU=MyOrganizationalUnit/CN=VikingVPN CA/name=EasyRSA/emailAddress=me@myhost.mydomain
                serial:CF:35:85:EE:80:BF:2A:3E

            X509v3 Extended Key Usage: 
                TLS Web Client Authentication
            X509v3 Key Usage: 
                Digital Signature
    Signature Algorithm: md5WithRSAEncryption
         ab:9b:1c:76:19:35:41:3f:bb:3a:59:c7:4b:3a:2e:f9:c3:86:
         3e:4c:3c:3f:7d:be:28:90:88:bd:39:ca:dc:0d:ab:44:f5:a4:
         11:e7:d9:20:91:3c:7d:2d:e7:a3:67:0a:03:e6:b5:20:c8:b0:
         c7:0a:7b:3a:31:20:50:0a:58:74:ba:de:41:46:8b:73:8f:5f:
         97:82:a7:a1:4a:d1:5c:f9:fa:48:73:04:62:2f:60:b1:ac:ec:
         fc:1c:69:cc:2f:e6:23:90:98:7f:17:10:52:22:20:b7:b9:99:
         02:cc:3e:97:3f:38:3c:ed:6e:61:61:b9:0f:bd:f0:d2:b4:fb:
         b2:74:82:ac:db:1b:4a:99:c5:0a:bb:7f:e5:09:ea:60:f7:e3:
         b1:a7:36:2e:e2:30:8e:d4:2c:da:52:c0:84:11:b8:78:f3:98:
         4e:60:5c:0d:18:69:b6:9a:68:e4:b2:fd:c5:08:ab:c5:7a:ac:
         38:fe:8b:2f:4d:f3:a7:3c:1e:6c:94:1b:4c:47:b1:be:f1:00:
         98:d1:17:ac:70:37:4e:5e:39:75:49:6c:a2:81:84:90:29:1a:
         85:ab:8a:40:d9:ad:ff:c7:1f:5f:32:15:54:d6:ac:9b:49:e5:
         ef:a0:02:bd:79:dc:17:f3:43:13:29:20:83:d2:8e:8b:e1:d0:
         2d:08:fc:35:0c:4b:82:58:82:db:70:3c:67:ab:f0:ea:0d:83:
         8f:9a:97:d9:5a:8a:56:ce:e1:29:e8:2c:00:c7:2a:57:18:a5:
         0f:38:6b:a3:73:3f:fb:e2:52:44:5c:f8:55:90:d5:82:f6:75:
         b6:5c:5b:33:a1:57:32:de:f5:99:7a:8c:78:b0:33:9f:88:42:
         4b:39:92:11:09:5e:c8:00:9a:46:90:ad:03:bb:47:23:31:cd:
         bf:fe:d0:36:ab:69:1b:1d:51:5b:d9:1a:97:d0:a0:18:70:00:
         31:7b:f9:0f:5f:65:12:cd:b5:1d:ff:54:8e:ad:55:9c:c4:25:
         df:d8:db:9f:27:2b:70:d0:9d:72:64:e5:38:ba:d9:79:17:79:
         28:e7:38:0d:95:85:c7:ce:35:06:f2:d2:f4:18:bb:c9:7d:62:
         70:b5:0f:bf:94:62:9a:95:96:79:87:e5:4b:c1:28:9c:5d:af:
         f2:53:c6:92:63:34:94:34:65:d7:11:5f:89:f9:f9:d0:4d:3d:
         65:59:12:7a:9d:54:a0:30:20:09:c6:05:40:01:a3:5c:ac:78:
         18:3b:47:ca:05:28:78:59:e1:d5:73:c7:21:97:d3:32:59:2e:
         9a:66:97:b4:75:db:5e:39:3e:72:d0:cd:ae:37:93:71:59:8c:
         4f:dc:27:76:07:1f:9c:8a
-----BEGIN CERTIFICATE-----
MIIGrTCCBJWgAwIBAgICFikwDQYJKoZIhvcNAQEEBQAwgawxCzAJBgNVBAYTAlVT
MQswCQYDVQQIEwJPSDERMA8GA1UEBxMIQ29sdW1idXMxEjAQBgNVBAoTCVZpa2lu
Z1ZQTjEdMBsGA1UECxMUTXlPcmdhbml6YXRpb25hbFVuaXQxFTATBgNVBAMTDFZp
a2luZ1ZQTiBDQTEQMA4GA1UEKRMHRWFzeVJTQTEhMB8GCSqGSIb3DQEJARYSbWVA
bXlob3N0Lm15ZG9tYWluMB4XDTE1MDcwMjAzMTQ0N1oXDTI1MDYyOTAzMTQ0N1ow
HzEdMBsGA1UEAxMUQ2xpZW50MTgwMkNlcnRmNTc1ODIwggIiMA0GCSqGSIb3DQEB
AQUAA4ICDwAwggIKAoICAQC5PI+o4MtRI9Jl4Te15JER5gAFCL75Ise4z9cyPYuw
EHglJDCRNWFog38u15cUZlqC4MUe1FdWa3a6DPX7PYUNcf38H6weqf6CKhfaZOKc
x/p41hiDk7JwIt+B9SAAd3OmMAY3KpypcRrDOtpmHcV8X9bXzilK7kPPjr6SeQFL
5TM8M5MdZsQuZBoEDQeAdQ6aMEwuqGgsdW3luGG75mDK/IWD3ElzuGqTdV1bOkG9
0DYj/dhJjd0DoM0HQDsx2C7ltJzUx1tj9drIgEf4VHnORF7vEiLUhIw0vUQX5hAw
T3RaR58vXdSsz9nUYdVD5VAutaKYBUGUZsMHVFN82C/4QgY5aKKC+pJAZjqnwkSP
HMFGSV7/X+6OeK5va/1yFdPCMGCs6dHOb8cj55Y6/P1F3OvkJYfvDl9N12mF4cmA
hd4tZP9EUDHsfihvBe09nsZfW8o1TZeeGOrGtf0PvYWVcpfJdnsmVwkYjH3rHPnu
parhEqVy3qanwLzX7GUnCWDdBTwFv3vei8nSz1bDDzLXi8zp+dv9wMNkCGsn47Sz
UXX2IOjCx4MqSHfS4AblQsqHckmGmh1VPwA8TYeGz4HdgGlNCKCOT8WjYJ46FP9u
niKhyk2Y0MVzUCxlSGx+CnRZxGrxmjD0m1BUx+XVIvqS8gVytVkgYfmlkEqbSbLZ
GwIDAQABo4IBYzCCAV8wCQYDVR0TBAIwADAtBglghkgBhvhCAQ0EIBYeRWFzeS1S
U0EgR2VuZXJhdGVkIENlcnRpZmljYXRlMB0GA1UdDgQWBBT3tDVyCianlYhh94ho
PTTjOb/KIzCB4QYDVR0jBIHZMIHWgBQSzWAE0qCAnnDtxpm4eyzGUv0ZoaGBsqSB
rzCBrDELMAkGA1UEBhMCVVMxCzAJBgNVBAgTAk9IMREwDwYDVQQHEwhDb2x1bWJ1
czESMBAGA1UEChMJVmlraW5nVlBOMR0wGwYDVQQLExRNeU9yZ2FuaXphdGlvbmFs
VW5pdDEVMBMGA1UEAxMMVmlraW5nVlBOIENBMRAwDgYDVQQpEwdFYXN5UlNBMSEw
HwYJKoZIhvcNAQkBFhJtZUBteWhvc3QubXlkb21haW6CCQDPNYXugL8qPjATBgNV
HSUEDDAKBggrBgEFBQcDAjALBgNVHQ8EBAMCB4AwDQYJKoZIhvcNAQEEBQADggIB
AKubHHYZNUE/uzpZx0s6LvnDhj5MPD99viiQiL05ytwNq0T1pBHn2SCRPH0t56Nn
CgPmtSDIsMcKezoxIFAKWHS63kFGi3OPX5eCp6FK0Vz5+khzBGIvYLGs7Pwcacwv
5iOQmH8XEFIiILe5mQLMPpc/ODztbmFhuQ+98NK0+7J0gqzbG0qZxQq7f+UJ6mD3
47GnNi7iMI7ULNpSwIQRuHjzmE5gXA0YabaaaOSy/cUIq8V6rDj+iy9N86c8HmyU
G0xHsb7xAJjRF6xwN05eOXVJbKKBhJApGoWrikDZrf/HH18yFVTWrJtJ5e+gAr15
3BfzQxMpIIPSjovh0C0I/DUMS4JYgttwPGer8OoNg4+al9lailbO4SnoLADHKlcY
pQ84a6NzP/viUkRc+FWQ1YL2dbZcWzOhVzLe9Zl6jHiwM5+IQks5khEJXsgAmkaQ
rQO7RyMxzb/+0DaraRsdUVvZGpfQoBhwADF7+Q9fZRLNtR3/VI6tVZzEJd/Y258n
K3DQnXJk5Ti62XkXeSjnOA2VhcfONQby0vQYu8l9YnC1D7+UYpqVlnmH5UvBKJxd
r/JTxpJjNJQ0ZdcRX4n5+dBNPWVZEnqdVKAwIAnGBUABo1yseBg7R8oFKHhZ4dVz
xyGX0zJZLppml7R12145PnLQza43k3FZjE/cJ3YHH5yK
-----END CERTIFICATE-----
