Certificate:
    Data:
        Version: 3 (0x2)
        Serial Number: 6676 (0x1a14)
    Signature Algorithm: md5WithRSAEncryption
        Issuer: C=US, ST=OH, L=Columbus, O=VikingVPN, OU=MyOrganizationalUnit, CN=VikingVPN CA/name=EasyRSA/emailAddress=me@myhost.mydomain
        Validity
            Not Before: Nov 10 13:42:30 2015 GMT
            Not After : Nov  7 13:42:30 2025 GMT
        Subject: CN=Client1160Certad40c2
        Subject Public Key Info:
            Public Key Algorithm: rsaEncryption
                Public-Key: (4096 bit)
                Modulus:
                    00:94:21:78:04:c5:a0:85:57:19:c5:36:00:3b:52:
                    be:30:15:78:2b:c5:5c:4f:4b:42:51:e8:95:07:e5:
                    76:c7:4f:bb:87:49:76:75:f7:fc:42:3a:a2:17:a4:
                    27:8d:89:4a:c6:60:6f:92:98:65:2c:b9:9a:f1:a3:
                    d4:e7:32:ee:e4:97:7c:2b:29:d3:6d:38:a9:78:27:
                    58:92:fb:48:2d:c2:89:e2:69:e0:fe:2c:08:53:19:
                    86:0e:e6:5d:32:3d:b0:30:d7:4c:ee:36:48:9f:97:
                    b1:26:6e:84:26:e0:29:e7:34:1d:67:b0:7c:e1:5c:
                    f6:b0:f8:e3:a3:1d:ac:3b:e8:3e:73:cd:0a:99:b2:
                    dc:0f:fb:c0:56:7e:b1:69:96:08:c2:c1:9e:14:dc:
                    4b:2e:25:5c:4b:ce:e0:1f:32:d7:a6:0c:58:41:fe:
                    e9:ed:ad:f1:73:b4:f7:ea:af:74:bb:ff:13:82:63:
                    c6:54:dd:51:4b:f3:ba:58:49:6b:e3:41:b1:28:b8:
                    7c:82:01:a5:8f:a4:15:97:b6:b2:6f:47:b5:5f:e9:
                    83:dd:d3:58:1f:d2:e1:2a:21:44:70:15:cf:c3:57:
                    2a:45:37:e8:d2:ef:af:04:c5:df:1c:27:64:52:cf:
                    5d:3c:0d:cd:16:0a:10:a2:23:6d:39:ad:11:c4:04:
                    4c:06:c5:95:bf:7a:03:6c:ac:a0:af:ff:eb:8b:4b:
                    fe:84:c4:98:f5:c9:93:fe:0c:5b:e2:b5:99:2c:9f:
                    da:34:64:98:d0:45:d1:7e:f4:f0:1a:9f:18:f5:6a:
                    10:0a:3d:d9:b2:24:25:f4:32:2b:6c:13:ee:83:d0:
                    07:0a:c3:45:5e:c2:90:ef:df:54:50:83:aa:c9:65:
                    e9:1c:80:5f:35:f6:c2:96:7e:a9:37:c4:76:80:2c:
                    78:d3:a8:b7:53:87:82:e2:68:a7:99:75:9e:0d:11:
                    6b:ca:71:36:d6:52:65:52:69:4c:cf:d4:ad:86:d5:
                    6c:8a:f0:ff:a3:be:39:c0:52:91:f1:59:e4:94:a5:
                    bc:10:9d:20:1c:4f:a7:04:66:d8:12:4d:7e:e2:d9:
                    e9:67:25:aa:62:5b:27:bb:4d:a0:69:bc:8d:f8:6c:
                    be:d4:eb:15:1e:2d:8c:e7:f2:15:d3:23:c7:7e:63:
                    d8:ad:f5:be:b4:3c:80:51:45:31:66:d3:dc:65:f5:
                    cd:90:d7:c6:c7:80:34:39:2a:43:c3:65:4b:b1:86:
                    6c:c8:c8:09:66:ce:d6:9f:ab:16:b9:54:61:8e:b0:
                    6e:0f:84:78:22:86:ad:b0:68:45:e1:33:e0:05:d1:
                    ff:21:df:89:2b:96:99:39:a7:31:23:92:fc:19:1d:
                    7c:b4:9d
                Exponent: 65537 (0x10001)
        X509v3 extensions:
            X509v3 Basic Constraints: 
                CA:FALSE
            Netscape Comment: 
                Easy-RSA Generated Certificate
            X509v3 Subject Key Identifier: 
                16:B3:54:E5:66:9F:C1:68:96:26:A2:E1:DA:E9:13:1C:EE:DF:D2:AC
            X509v3 Authority Key Identifier: 
                keyid:12:CD:60:04:D2:A0:80:9E:70:ED:C6:99:B8:7B:2C:C6:52:FD:19:A1
                DirName:/C=US/ST=OH/L=Columbus/O=VikingVPN/OU=MyOrganizationalUnit/CN=VikingVPN CA/name=EasyRSA/emailAddress=me@myhost.mydomain
                serial:CF:35:85:EE:80:BF:2A:3E

            X509v3 Extended Key Usage: 
                TLS Web Client Authentication
            X509v3 Key Usage: 
                Digital Signature
    Signature Algorithm: md5WithRSAEncryption
         e5:84:14:a6:8a:e3:1e:de:86:95:aa:88:8f:ed:68:2f:74:99:
         ba:e6:b1:ae:e0:98:46:f9:ab:ea:e5:22:1b:df:71:4b:b4:30:
         c7:47:1a:5c:8d:1c:0d:52:a6:ee:ef:66:4c:c1:ba:c1:97:60:
         3c:e8:01:c1:1f:33:cd:40:18:6f:54:62:13:2c:48:fb:fc:08:
         c6:08:00:7c:b8:54:42:7c:37:cd:33:a0:5f:f9:e6:6f:3a:ad:
         3b:cb:32:a0:5b:64:14:0f:0f:fd:28:12:be:15:63:90:55:03:
         24:92:ea:e0:94:3b:6e:e3:10:a5:bc:f4:28:9a:da:0c:3e:9f:
         56:e1:a9:7c:b4:3e:fb:25:91:85:f8:a0:6a:2d:28:fb:db:62:
         92:47:5b:fc:0c:c4:c2:b6:7f:52:c9:aa:8a:e4:43:6f:73:d7:
         b0:ab:82:b4:15:fb:bc:a5:12:0b:3c:4f:7d:5e:d6:fb:98:bf:
         d8:03:49:0e:16:24:00:d6:d3:01:79:76:11:06:8f:04:c6:99:
         82:4e:da:54:28:12:97:75:ea:03:a6:95:e9:3d:c8:a4:4c:c0:
         da:bf:c8:00:7c:63:e5:01:dd:a6:8f:4d:8a:fa:84:0d:9a:ba:
         d1:f6:b3:9c:0d:07:fc:94:1f:b4:32:97:d2:2b:a8:30:34:20:
         44:c6:6b:b4:5e:30:72:fc:c2:df:a4:cd:a2:76:8f:fc:14:72:
         92:64:ea:83:ac:e7:af:19:e1:3c:ea:03:9b:13:bc:10:72:66:
         91:93:04:05:76:be:7e:c5:16:55:37:a6:a4:93:26:ad:8a:2e:
         20:81:78:d3:32:59:19:46:c4:04:16:33:b5:b5:c2:f1:0f:fd:
         22:83:e3:66:4d:70:e3:c4:fb:51:a1:9f:03:8c:c0:b6:c3:36:
         9f:fc:1d:d2:4b:74:08:a0:48:71:d5:02:fd:43:38:19:82:2c:
         cc:4e:97:95:94:31:67:f3:33:7f:4c:f8:56:f4:01:82:1d:d2:
         87:8d:1c:7a:2c:fc:01:cc:90:16:9f:92:af:2b:39:b6:ef:e9:
         2e:5c:a4:05:f4:32:bb:18:ed:81:de:7a:33:4a:ea:86:61:ce:
         55:e9:f7:67:1c:70:f2:b9:89:9d:f6:b0:7d:26:25:27:d5:f7:
         f8:40:70:87:5e:5a:57:4d:17:51:01:1d:d4:11:94:10:60:2f:
         7f:0c:25:ef:1e:45:37:86:57:a5:ba:28:f5:e5:45:a9:8b:0b:
         37:1e:d9:d6:91:58:1c:66:92:de:70:e6:40:51:06:dd:ff:02:
         dd:47:51:49:2d:9e:18:a9:2a:01:0c:51:63:e1:08:7d:88:28:
         35:f7:3a:c5:c9:23:e5:24
-----BEGIN CERTIFICATE-----
MIIGrTCCBJWgAwIBAgICGhQwDQYJKoZIhvcNAQEEBQAwgawxCzAJBgNVBAYTAlVT
MQswCQYDVQQIEwJPSDERMA8GA1UEBxMIQ29sdW1idXMxEjAQBgNVBAoTCVZpa2lu
Z1ZQTjEdMBsGA1UECxMUTXlPcmdhbml6YXRpb25hbFVuaXQxFTATBgNVBAMTDFZp
a2luZ1ZQTiBDQTEQMA4GA1UEKRMHRWFzeVJTQTEhMB8GCSqGSIb3DQEJARYSbWVA
bXlob3N0Lm15ZG9tYWluMB4XDTE1MTExMDEzNDIzMFoXDTI1MTEwNzEzNDIzMFow
HzEdMBsGA1UEAxMUQ2xpZW50MTE2MENlcnRhZDQwYzIwggIiMA0GCSqGSIb3DQEB
AQUAA4ICDwAwggIKAoICAQCUIXgExaCFVxnFNgA7Ur4wFXgrxVxPS0JR6JUH5XbH
T7uHSXZ19/xCOqIXpCeNiUrGYG+SmGUsuZrxo9TnMu7kl3wrKdNtOKl4J1iS+0gt
woniaeD+LAhTGYYO5l0yPbAw10zuNkifl7EmboQm4CnnNB1nsHzhXPaw+OOjHaw7
6D5zzQqZstwP+8BWfrFplgjCwZ4U3EsuJVxLzuAfMtemDFhB/untrfFztPfqr3S7
/xOCY8ZU3VFL87pYSWvjQbEouHyCAaWPpBWXtrJvR7Vf6YPd01gf0uEqIURwFc/D
VypFN+jS768Exd8cJ2RSz108Dc0WChCiI205rRHEBEwGxZW/egNsrKCv/+uLS/6E
xJj1yZP+DFvitZksn9o0ZJjQRdF+9PAanxj1ahAKPdmyJCX0MitsE+6D0AcKw0Ve
wpDv31RQg6rJZekcgF819sKWfqk3xHaALHjTqLdTh4LiaKeZdZ4NEWvKcTbWUmVS
aUzP1K2G1WyK8P+jvjnAUpHxWeSUpbwQnSAcT6cEZtgSTX7i2elnJapiWye7TaBp
vI34bL7U6xUeLYzn8hXTI8d+Y9it9b60PIBRRTFm09xl9c2Q18bHgDQ5KkPDZUux
hmzIyAlmztafqxa5VGGOsG4PhHgihq2waEXhM+AF0f8h34krlpk5pzEjkvwZHXy0
nQIDAQABo4IBYzCCAV8wCQYDVR0TBAIwADAtBglghkgBhvhCAQ0EIBYeRWFzeS1S
U0EgR2VuZXJhdGVkIENlcnRpZmljYXRlMB0GA1UdDgQWBBQWs1TlZp/BaJYmouHa
6RMc7t/SrDCB4QYDVR0jBIHZMIHWgBQSzWAE0qCAnnDtxpm4eyzGUv0ZoaGBsqSB
rzCBrDELMAkGA1UEBhMCVVMxCzAJBgNVBAgTAk9IMREwDwYDVQQHEwhDb2x1bWJ1
czESMBAGA1UEChMJVmlraW5nVlBOMR0wGwYDVQQLExRNeU9yZ2FuaXphdGlvbmFs
VW5pdDEVMBMGA1UEAxMMVmlraW5nVlBOIENBMRAwDgYDVQQpEwdFYXN5UlNBMSEw
HwYJKoZIhvcNAQkBFhJtZUBteWhvc3QubXlkb21haW6CCQDPNYXugL8qPjATBgNV
HSUEDDAKBggrBgEFBQcDAjALBgNVHQ8EBAMCB4AwDQYJKoZIhvcNAQEEBQADggIB
AOWEFKaK4x7ehpWqiI/taC90mbrmsa7gmEb5q+rlIhvfcUu0MMdHGlyNHA1Spu7v
ZkzBusGXYDzoAcEfM81AGG9UYhMsSPv8CMYIAHy4VEJ8N80zoF/55m86rTvLMqBb
ZBQPD/0oEr4VY5BVAySS6uCUO27jEKW89Cia2gw+n1bhqXy0PvslkYX4oGotKPvb
YpJHW/wMxMK2f1LJqorkQ29z17CrgrQV+7ylEgs8T31e1vuYv9gDSQ4WJADW0wF5
dhEGjwTGmYJO2lQoEpd16gOmlek9yKRMwNq/yAB8Y+UB3aaPTYr6hA2autH2s5wN
B/yUH7Qyl9IrqDA0IETGa7ReMHL8wt+kzaJ2j/wUcpJk6oOs568Z4TzqA5sTvBBy
ZpGTBAV2vn7FFlU3pqSTJq2KLiCBeNMyWRlGxAQWM7W1wvEP/SKD42ZNcOPE+1Gh
nwOMwLbDNp/8HdJLdAigSHHVAv1DOBmCLMxOl5WUMWfzM39M+Fb0AYId0oeNHHos
/AHMkBafkq8rObbv6S5cpAX0MrsY7YHeejNK6oZhzlXp92cccPK5iZ32sH0mJSfV
9/hAcIdeWldNF1EBHdQRlBBgL38MJe8eRTeGV6W6KPXlRamLCzce2daRWBxmkt5w
5kBRBt3/At1HUUktnhipKgEMUWPhCH2IKDX3OsXJI+Uk
-----END CERTIFICATE-----
