Certificate:
    Data:
        Version: 3 (0x2)
        Serial Number: 6553 (0x1999)
    Signature Algorithm: md5WithRSAEncryption
        Issuer: C=US, ST=OH, L=Columbus, O=VikingVPN, OU=MyOrganizationalUnit, CN=VikingVPN CA/name=EasyRSA/emailAddress=me@myhost.mydomain
        Validity
            Not Before: Oct 25 11:50:46 2015 GMT
            Not After : Oct 22 11:50:46 2025 GMT
        Subject: CN=Client1558Cert25c304
        Subject Public Key Info:
            Public Key Algorithm: rsaEncryption
                Public-Key: (4096 bit)
                Modulus:
                    00:c6:7b:c6:4e:78:72:ac:d5:95:59:47:39:bd:0c:
                    9f:ca:68:06:82:83:f2:8f:47:46:da:ec:c3:62:df:
                    93:b9:e1:84:a6:cd:8f:d4:0e:7e:00:68:92:ad:c0:
                    81:fe:90:52:99:c9:ad:b1:a2:e0:0b:76:f9:e6:7d:
                    23:cd:98:e0:86:7b:8c:fd:3f:4a:cb:44:7b:fa:17:
                    de:ca:44:16:e3:5b:d3:4f:8e:db:88:5a:01:30:4b:
                    4c:01:bc:4d:97:7d:6d:61:b7:ac:4b:98:a9:bc:cd:
                    7d:0b:ba:b4:2c:1e:a5:8c:78:29:c8:43:dd:4a:a4:
                    28:fb:1b:ea:04:ab:73:4c:bb:28:ba:a2:36:0e:0f:
                    34:32:7f:71:93:85:fb:c2:fb:1c:d9:ec:35:a0:79:
                    50:43:b1:96:6e:65:d7:fc:4f:b4:2b:59:df:4c:69:
                    3e:a9:04:92:31:fa:c7:74:3f:b2:7f:5e:78:ee:8c:
                    18:42:a4:f8:e3:76:68:b6:7a:90:a2:c5:4e:cb:d4:
                    83:9e:fe:3c:8b:5c:e5:5f:08:8e:a4:b3:b3:b4:80:
                    71:7b:b9:bd:ae:85:16:99:d6:94:6d:33:70:6d:8d:
                    55:67:15:98:c2:88:65:50:ea:a4:cb:75:f8:08:36:
                    7c:18:c0:62:c1:2e:93:48:f3:6f:36:1c:63:dd:bf:
                    2b:48:e3:21:76:36:12:66:3d:35:49:35:c3:1d:bd:
                    1e:2b:ff:c5:4d:c1:47:1d:0b:d9:af:dd:0d:30:cb:
                    15:9b:64:da:10:ce:d1:15:fc:c3:81:93:fc:e8:5d:
                    50:9c:75:3d:03:9f:8a:0e:7d:30:7b:4c:f0:d1:b8:
                    78:15:77:0b:db:0a:23:de:20:43:8a:c8:ae:e3:82:
                    2f:f1:df:82:cb:93:3e:14:08:0b:b1:00:fa:1c:57:
                    18:6a:df:e6:59:4d:b2:0e:33:42:aa:85:75:c8:ec:
                    53:7f:b9:17:9d:48:fa:1b:2f:07:32:40:b1:85:5c:
                    06:f2:a0:35:02:d5:2b:e9:d2:fb:b8:6e:a0:70:4a:
                    4e:c7:d4:a3:ac:e5:29:d9:00:f7:ea:4c:05:5e:8d:
                    c0:17:db:fe:58:00:c7:15:a4:1a:c5:ba:b8:a4:69:
                    54:0e:af:5f:f5:0e:40:53:d4:36:74:85:8e:07:99:
                    a6:56:6c:30:6d:fe:cd:5f:b7:4d:07:75:18:15:eb:
                    47:b1:2d:26:96:5e:c6:4c:de:c8:89:f2:cb:95:a6:
                    67:ec:d3:9b:a1:8e:24:41:86:6d:83:0d:fc:aa:74:
                    00:2a:cc:bb:10:7e:5f:ec:17:1b:89:e3:96:58:4e:
                    68:46:2b:d3:8a:be:fc:d8:b3:bb:4b:85:6d:b4:a2:
                    d7:39:b5
                Exponent: 65537 (0x10001)
        X509v3 extensions:
            X509v3 Basic Constraints: 
                CA:FALSE
            Netscape Comment: 
                Easy-RSA Generated Certificate
            X509v3 Subject Key Identifier: 
                7A:CE:41:F6:BF:3B:69:8E:4D:60:A0:99:AB:39:5F:60:9D:1B:8C:0C
            X509v3 Authority Key Identifier: 
                keyid:12:CD:60:04:D2:A0:80:9E:70:ED:C6:99:B8:7B:2C:C6:52:FD:19:A1
                DirName:/C=US/ST=OH/L=Columbus/O=VikingVPN/OU=MyOrganizationalUnit/CN=VikingVPN CA/name=EasyRSA/emailAddress=me@myhost.mydomain
                serial:CF:35:85:EE:80:BF:2A:3E

            X509v3 Extended Key Usage: 
                TLS Web Client Authentication
            X509v3 Key Usage: 
                Digital Signature
    Signature Algorithm: md5WithRSAEncryption
         b3:79:19:2e:d6:a9:8c:68:f8:0e:62:8b:be:a4:99:39:5b:0f:
         e3:45:ec:c9:1f:e8:2d:39:bc:d3:ef:25:3c:17:cf:9a:a9:d0:
         80:b9:8b:6e:73:53:61:28:a7:b5:1b:25:c9:89:55:fd:b9:8d:
         32:b9:5f:7a:a8:31:3e:72:d7:79:18:18:d4:7d:72:39:f1:82:
         bb:c5:af:a0:a4:74:3a:27:dd:68:7c:aa:b5:da:7a:f1:3d:2d:
         f3:78:63:4f:e7:f5:62:db:fd:75:3f:db:b2:54:5f:07:39:77:
         04:45:6e:af:7d:d7:5d:db:8e:b6:af:b0:4c:19:0c:1c:c5:d7:
         f3:bf:7b:79:69:2c:5e:3e:10:cf:46:4a:7b:21:c8:27:6b:a9:
         2a:bd:3c:9c:8e:21:c5:56:b6:0b:ca:d0:6d:2e:9b:c9:13:f5:
         d1:cd:5f:c6:48:9d:52:24:df:f6:5f:67:8d:3d:cc:4c:24:1f:
         ff:63:5a:1f:5d:bd:cc:1a:b6:70:e2:eb:12:98:54:c7:58:92:
         d5:e0:a1:f7:08:d4:6b:20:60:14:5d:aa:35:08:71:90:cd:69:
         59:9b:da:38:19:02:da:eb:ec:4b:26:73:8a:1f:0f:69:d8:23:
         39:70:e2:b5:29:39:c6:f2:cc:1d:7a:54:5e:38:69:00:fb:74:
         41:c7:73:77:44:ea:26:f0:47:a6:6d:60:9b:8f:d8:5e:4d:74:
         f3:66:b6:0f:58:37:33:68:0c:c2:cc:cc:a9:d7:fa:a7:b7:a5:
         8a:71:c8:d2:da:66:9a:ae:74:b8:54:8a:6b:97:a3:38:85:ac:
         f2:80:bd:9f:37:d9:0d:fb:c0:dd:0a:1a:dd:a4:a2:ba:a2:c2:
         06:a6:5d:38:4c:a8:ca:9c:8b:c7:97:43:37:17:fd:ca:e9:ca:
         6e:34:d4:8c:d9:cb:87:98:b5:99:39:a0:81:43:e4:f3:83:de:
         37:1e:9a:b4:c0:3c:47:e9:20:93:a9:67:6a:90:55:3b:49:3a:
         10:9c:b9:52:c9:15:e1:35:f6:b9:49:2b:06:29:07:d4:a6:4e:
         b9:2e:16:56:10:4e:a8:4f:d2:99:ec:eb:00:a8:2a:d5:9a:1b:
         9b:5d:86:eb:06:5b:ba:04:45:5c:c3:a3:51:77:eb:ff:ed:95:
         c2:cc:83:ac:5e:47:f2:6c:3f:c1:8c:26:9a:f8:d0:47:83:ae:
         2e:62:80:73:3a:35:18:58:da:df:a7:2f:18:d8:44:99:c9:72:
         83:c8:21:0e:96:32:15:39:04:1a:be:46:a1:76:0a:05:53:39:
         58:1e:53:ef:1f:98:44:39:cb:cd:9d:69:06:de:67:b0:40:69:
         45:ea:c6:c6:49:ae:b7:44
-----BEGIN CERTIFICATE-----
MIIGrTCCBJWgAwIBAgICGZkwDQYJKoZIhvcNAQEEBQAwgawxCzAJBgNVBAYTAlVT
MQswCQYDVQQIEwJPSDERMA8GA1UEBxMIQ29sdW1idXMxEjAQBgNVBAoTCVZpa2lu
Z1ZQTjEdMBsGA1UECxMUTXlPcmdhbml6YXRpb25hbFVuaXQxFTATBgNVBAMTDFZp
a2luZ1ZQTiBDQTEQMA4GA1UEKRMHRWFzeVJTQTEhMB8GCSqGSIb3DQEJARYSbWVA
bXlob3N0Lm15ZG9tYWluMB4XDTE1MTAyNTExNTA0NloXDTI1MTAyMjExNTA0Nlow
HzEdMBsGA1UEAxMUQ2xpZW50MTU1OENlcnQyNWMzMDQwggIiMA0GCSqGSIb3DQEB
AQUAA4ICDwAwggIKAoICAQDGe8ZOeHKs1ZVZRzm9DJ/KaAaCg/KPR0ba7MNi35O5
4YSmzY/UDn4AaJKtwIH+kFKZya2xouALdvnmfSPNmOCGe4z9P0rLRHv6F97KRBbj
W9NPjtuIWgEwS0wBvE2XfW1ht6xLmKm8zX0LurQsHqWMeCnIQ91KpCj7G+oEq3NM
uyi6ojYODzQyf3GThfvC+xzZ7DWgeVBDsZZuZdf8T7QrWd9MaT6pBJIx+sd0P7J/
XnjujBhCpPjjdmi2epCixU7L1IOe/jyLXOVfCI6ks7O0gHF7ub2uhRaZ1pRtM3Bt
jVVnFZjCiGVQ6qTLdfgINnwYwGLBLpNI8282HGPdvytI4yF2NhJmPTVJNcMdvR4r
/8VNwUcdC9mv3Q0wyxWbZNoQztEV/MOBk/zoXVCcdT0Dn4oOfTB7TPDRuHgVdwvb
CiPeIEOKyK7jgi/x34LLkz4UCAuxAPocVxhq3+ZZTbIOM0KqhXXI7FN/uRedSPob
LwcyQLGFXAbyoDUC1Svp0vu4bqBwSk7H1KOs5SnZAPfqTAVejcAX2/5YAMcVpBrF
urikaVQOr1/1DkBT1DZ0hY4HmaZWbDBt/s1ft00HdRgV60exLSaWXsZM3siJ8suV
pmfs05uhjiRBhm2DDfyqdAAqzLsQfl/sFxuJ45ZYTmhGK9OKvvzYs7tLhW20otc5
tQIDAQABo4IBYzCCAV8wCQYDVR0TBAIwADAtBglghkgBhvhCAQ0EIBYeRWFzeS1S
U0EgR2VuZXJhdGVkIENlcnRpZmljYXRlMB0GA1UdDgQWBBR6zkH2vztpjk1goJmr
OV9gnRuMDDCB4QYDVR0jBIHZMIHWgBQSzWAE0qCAnnDtxpm4eyzGUv0ZoaGBsqSB
rzCBrDELMAkGA1UEBhMCVVMxCzAJBgNVBAgTAk9IMREwDwYDVQQHEwhDb2x1bWJ1
czESMBAGA1UEChMJVmlraW5nVlBOMR0wGwYDVQQLExRNeU9yZ2FuaXphdGlvbmFs
VW5pdDEVMBMGA1UEAxMMVmlraW5nVlBOIENBMRAwDgYDVQQpEwdFYXN5UlNBMSEw
HwYJKoZIhvcNAQkBFhJtZUBteWhvc3QubXlkb21haW6CCQDPNYXugL8qPjATBgNV
HSUEDDAKBggrBgEFBQcDAjALBgNVHQ8EBAMCB4AwDQYJKoZIhvcNAQEEBQADggIB
ALN5GS7WqYxo+A5ii76kmTlbD+NF7Mkf6C05vNPvJTwXz5qp0IC5i25zU2Eop7Ub
JcmJVf25jTK5X3qoMT5y13kYGNR9cjnxgrvFr6CkdDon3Wh8qrXaevE9LfN4Y0/n
9WLb/XU/27JUXwc5dwRFbq99113bjravsEwZDBzF1/O/e3lpLF4+EM9GSnshyCdr
qSq9PJyOIcVWtgvK0G0um8kT9dHNX8ZInVIk3/ZfZ409zEwkH/9jWh9dvcwatnDi
6xKYVMdYktXgofcI1GsgYBRdqjUIcZDNaVmb2jgZAtrr7Esmc4ofD2nYIzlw4rUp
OcbyzB16VF44aQD7dEHHc3dE6ibwR6ZtYJuP2F5NdPNmtg9YNzNoDMLMzKnX+qe3
pYpxyNLaZpqudLhUimuXoziFrPKAvZ832Q37wN0KGt2korqiwgamXThMqMqci8eX
QzcX/crpym401IzZy4eYtZk5oIFD5POD3jcemrTAPEfpIJOpZ2qQVTtJOhCcuVLJ
FeE19rlJKwYpB9SmTrkuFlYQTqhP0pns6wCoKtWaG5tdhusGW7oERVzDo1F36//t
lcLMg6xeR/JsP8GMJpr40EeDri5igHM6NRhY2t+nLxjYRJnJcoPIIQ6WMhU5BBq+
RqF2CgVTOVgeU+8fmEQ5y82daQbeZ7BAaUXqxsZJrrdE
-----END CERTIFICATE-----
