Certificate:
    Data:
        Version: 3 (0x2)
        Serial Number: 42 (0x2a)
    Signature Algorithm: md5WithRSAEncryption
        Issuer: C=US, ST=OH, L=Columbus, O=VikingVPN, OU=MyOrganizationalUnit, CN=VikingVPN CA/name=EasyRSA/emailAddress=me@myhost.mydomain
        Validity
            Not Before: Aug  7 20:03:22 2013 GMT
            Not After : Aug  5 20:03:22 2023 GMT
        Subject: CN=Client20Cert61fd5f
        Subject Public Key Info:
            Public Key Algorithm: rsaEncryption
                Public-Key: (4096 bit)
                Modulus:
                    00:ca:39:36:c5:b8:02:8f:41:66:80:2c:b3:b4:68:
                    ef:05:c4:73:4b:a0:6c:06:cb:99:1c:bd:ec:eb:e7:
                    80:d2:c2:8e:ca:d0:64:88:6f:0d:fc:39:a4:f7:70:
                    a2:fe:e0:80:4c:ec:fc:a1:4d:0c:dd:dd:41:3f:d1:
                    e8:e4:b8:56:7a:3c:8a:5b:78:cd:39:95:78:46:19:
                    6c:e7:2a:86:d3:9a:36:d1:c7:06:7f:c0:97:98:06:
                    88:e6:5c:c9:b9:50:2a:04:7e:97:38:b0:13:f8:b9:
                    91:10:0d:b5:51:fb:af:73:8d:9e:e6:fd:b2:a5:af:
                    49:6e:d9:79:51:8e:92:78:cf:0f:49:1a:9e:12:5a:
                    74:37:21:65:da:e6:83:ad:63:39:45:73:9a:56:14:
                    1f:41:1b:ed:39:6c:69:a2:b3:ce:0a:87:fc:e8:c5:
                    7b:f8:28:ea:f5:97:e8:ab:19:d1:16:66:c8:57:cf:
                    af:d8:d9:2b:80:7e:83:71:0f:9a:f4:7b:eb:a5:ad:
                    a3:b9:de:3a:1d:6c:68:1d:67:b8:3d:94:65:f7:9d:
                    dc:79:4f:bd:11:22:4d:1b:0b:d2:63:ea:d5:18:7e:
                    f5:32:b6:04:b4:ad:d4:c1:f2:f2:a1:a9:2b:14:47:
                    3f:fe:cc:be:4c:ab:cf:a8:6b:e5:07:6d:82:7e:e2:
                    7d:d9:41:ae:47:b4:01:bf:62:09:d3:fa:c7:a2:22:
                    96:c3:3e:71:52:c3:b4:a8:dd:84:5a:aa:2f:eb:21:
                    4a:27:68:d9:ee:49:da:f5:44:a2:17:8c:4e:c4:3f:
                    97:bd:03:07:ce:61:0d:f1:09:32:a2:17:94:dd:fb:
                    18:1f:d0:02:11:06:18:89:7c:44:eb:6d:bd:ba:3d:
                    dd:bb:2b:fc:40:91:36:c8:13:32:59:bd:26:e1:9f:
                    af:06:83:ae:d7:b5:3c:1c:ca:42:c3:a0:85:d6:0f:
                    f5:b3:9a:3d:f9:7a:c5:12:de:cd:4e:20:10:49:4c:
                    31:fb:e0:b1:f7:fd:eb:a0:e1:6d:e9:3c:ca:a3:71:
                    78:7a:17:89:a8:7b:57:8e:e0:ff:be:03:05:34:e6:
                    67:62:e6:d3:4b:ff:01:90:d7:9f:6c:f3:99:f1:20:
                    d5:4a:34:24:02:67:4e:a3:0b:14:b3:e4:70:b3:53:
                    11:41:b4:3b:4c:15:62:1c:1c:d1:ae:3f:95:d7:d4:
                    e2:27:01:72:51:4a:31:d5:68:8c:eb:fb:ed:d5:04:
                    70:e7:b9:00:51:ae:8d:6e:09:4a:f1:f6:a8:24:1b:
                    ad:82:f8:e6:01:27:c4:15:97:a5:43:22:7b:d5:af:
                    74:dc:6b:23:4c:f6:84:c5:ac:a2:c8:60:fa:2a:be:
                    ea:14:c5
                Exponent: 65537 (0x10001)
        X509v3 extensions:
            X509v3 Basic Constraints: 
                CA:FALSE
            Netscape Comment: 
                Easy-RSA Generated Certificate
            X509v3 Subject Key Identifier: 
                C2:58:46:88:9F:AB:73:4E:A5:A5:52:F1:BA:2B:C7:41:3E:E4:6B:13
            X509v3 Authority Key Identifier: 
                keyid:12:CD:60:04:D2:A0:80:9E:70:ED:C6:99:B8:7B:2C:C6:52:FD:19:A1
                DirName:/C=US/ST=OH/L=Columbus/O=VikingVPN/OU=MyOrganizationalUnit/CN=VikingVPN CA/name=EasyRSA/emailAddress=me@myhost.mydomain
                serial:CF:35:85:EE:80:BF:2A:3E

            X509v3 Extended Key Usage: 
                TLS Web Client Authentication
            X509v3 Key Usage: 
                Digital Signature
    Signature Algorithm: md5WithRSAEncryption
         ec:13:db:69:36:be:34:a6:65:a1:72:a1:4a:77:97:b6:f7:20:
         a8:f2:16:48:38:47:27:55:77:1a:44:39:3e:bd:fb:ba:81:b0:
         30:31:a8:14:7b:6b:0d:f6:20:1b:99:e3:e5:cc:db:08:a7:14:
         5e:0b:60:f0:df:de:c8:7e:e9:df:99:90:28:ed:2b:f8:09:e1:
         87:97:21:8f:8f:17:7b:da:bd:76:88:ec:73:c1:65:2e:3d:47:
         ff:e3:94:7b:7d:12:37:9f:4d:47:31:3b:e0:25:9f:f2:67:57:
         1d:1e:09:0d:22:12:74:97:2c:90:84:32:1f:ae:61:e4:8c:80:
         73:03:58:e6:3b:82:ec:af:47:0d:cc:c7:d1:dd:39:6a:86:41:
         e6:20:39:aa:8f:02:08:3c:75:4e:8e:2e:c3:d8:ad:a0:3a:03:
         c7:d1:d1:35:c6:4d:c2:c5:41:30:05:44:67:1b:6a:59:c8:c0:
         fb:3e:81:aa:5e:a9:0b:6b:76:b5:7a:bb:cd:a8:be:06:d4:46:
         bc:11:4a:ab:5f:e7:a4:4c:91:7b:41:85:d7:a4:03:a1:05:c7:
         9e:ef:10:9d:27:79:d2:b5:ca:7c:cc:ba:cd:23:0e:81:88:90:
         75:e3:a5:59:28:39:df:b0:a3:34:81:57:ff:c6:61:a3:33:3d:
         15:cd:86:44:58:83:ec:ab:6b:fb:04:e1:71:a4:26:87:58:e5:
         95:a5:4e:e4:d8:f3:6f:15:04:d1:4a:67:87:6b:b1:79:16:1d:
         d2:62:bb:34:cf:81:91:47:a0:16:8c:51:64:6c:1e:2c:95:ea:
         80:b7:94:98:74:f9:e7:a6:aa:c9:2b:86:fc:90:52:23:1f:49:
         fb:7c:e1:68:85:52:d8:68:1b:c1:cb:05:93:5d:f6:ef:87:e1:
         d0:41:13:9f:4f:05:0b:76:78:d0:52:68:dc:9c:b2:bc:80:41:
         83:b8:3e:d6:8f:4d:54:95:3d:d7:79:37:9d:08:a8:c4:97:0e:
         e5:c4:91:b9:8f:a1:6c:2e:46:01:76:41:6e:f3:b3:df:b7:fd:
         85:11:9b:f8:39:fb:74:7a:8d:06:0f:a2:ad:f3:6a:03:e6:e1:
         15:d7:0d:b9:73:8e:6c:46:b3:8c:e0:75:fe:eb:82:10:f8:74:
         c5:66:86:ff:15:cb:76:05:2b:7b:3c:d5:5a:f0:ed:cb:33:e5:
         33:2f:be:7c:0b:33:59:7f:7e:c8:c0:8c:bd:72:2d:52:d1:c2:
         de:de:c7:2e:9c:3e:af:65:13:66:f7:c5:33:75:f4:3d:16:cc:
         ed:ae:d6:16:67:3c:61:9d:de:35:00:16:aa:b4:8b:02:80:9a:
         59:5f:58:9d:67:99:64:2e
-----BEGIN CERTIFICATE-----
MIIGqjCCBJKgAwIBAgIBKjANBgkqhkiG9w0BAQQFADCBrDELMAkGA1UEBhMCVVMx
CzAJBgNVBAgTAk9IMREwDwYDVQQHEwhDb2x1bWJ1czESMBAGA1UEChMJVmlraW5n
VlBOMR0wGwYDVQQLExRNeU9yZ2FuaXphdGlvbmFsVW5pdDEVMBMGA1UEAxMMVmlr
aW5nVlBOIENBMRAwDgYDVQQpEwdFYXN5UlNBMSEwHwYJKoZIhvcNAQkBFhJtZUBt
eWhvc3QubXlkb21haW4wHhcNMTMwODA3MjAwMzIyWhcNMjMwODA1MjAwMzIyWjAd
MRswGQYDVQQDExJDbGllbnQyMENlcnQ2MWZkNWYwggIiMA0GCSqGSIb3DQEBAQUA
A4ICDwAwggIKAoICAQDKOTbFuAKPQWaALLO0aO8FxHNLoGwGy5kcvezr54DSwo7K
0GSIbw38OaT3cKL+4IBM7PyhTQzd3UE/0ejkuFZ6PIpbeM05lXhGGWznKobTmjbR
xwZ/wJeYBojmXMm5UCoEfpc4sBP4uZEQDbVR+69zjZ7m/bKlr0lu2XlRjpJ4zw9J
Gp4SWnQ3IWXa5oOtYzlFc5pWFB9BG+05bGmis84Kh/zoxXv4KOr1l+irGdEWZshX
z6/Y2SuAfoNxD5r0e+ulraO53jodbGgdZ7g9lGX3ndx5T70RIk0bC9Jj6tUYfvUy
tgS0rdTB8vKhqSsURz/+zL5Mq8+oa+UHbYJ+4n3ZQa5HtAG/YgnT+seiIpbDPnFS
w7So3YRaqi/rIUonaNnuSdr1RKIXjE7EP5e9AwfOYQ3xCTKiF5Td+xgf0AIRBhiJ
fETrbb26Pd27K/xAkTbIEzJZvSbhn68Gg67XtTwcykLDoIXWD/Wzmj35esUS3s1O
IBBJTDH74LH3/eug4W3pPMqjcXh6F4moe1eO4P++AwU05mdi5tNL/wGQ159s85nx
INVKNCQCZ06jCxSz5HCzUxFBtDtMFWIcHNGuP5XX1OInAXJRSjHVaIzr++3VBHDn
uQBRro1uCUrx9qgkG62C+OYBJ8QVl6VDInvVr3TcayNM9oTFrKLIYPoqvuoUxQID
AQABo4IBYzCCAV8wCQYDVR0TBAIwADAtBglghkgBhvhCAQ0EIBYeRWFzeS1SU0Eg
R2VuZXJhdGVkIENlcnRpZmljYXRlMB0GA1UdDgQWBBTCWEaIn6tzTqWlUvG6K8dB
PuRrEzCB4QYDVR0jBIHZMIHWgBQSzWAE0qCAnnDtxpm4eyzGUv0ZoaGBsqSBrzCB
rDELMAkGA1UEBhMCVVMxCzAJBgNVBAgTAk9IMREwDwYDVQQHEwhDb2x1bWJ1czES
MBAGA1UEChMJVmlraW5nVlBOMR0wGwYDVQQLExRNeU9yZ2FuaXphdGlvbmFsVW5p
dDEVMBMGA1UEAxMMVmlraW5nVlBOIENBMRAwDgYDVQQpEwdFYXN5UlNBMSEwHwYJ
KoZIhvcNAQkBFhJtZUBteWhvc3QubXlkb21haW6CCQDPNYXugL8qPjATBgNVHSUE
DDAKBggrBgEFBQcDAjALBgNVHQ8EBAMCB4AwDQYJKoZIhvcNAQEEBQADggIBAOwT
22k2vjSmZaFyoUp3l7b3IKjyFkg4RydVdxpEOT69+7qBsDAxqBR7aw32IBuZ4+XM
2winFF4LYPDf3sh+6d+ZkCjtK/gJ4YeXIY+PF3vavXaI7HPBZS49R//jlHt9Ejef
TUcxO+Aln/JnVx0eCQ0iEnSXLJCEMh+uYeSMgHMDWOY7guyvRw3Mx9HdOWqGQeYg
OaqPAgg8dU6OLsPYraA6A8fR0TXGTcLFQTAFRGcbalnIwPs+gapeqQtrdrV6u82o
vgbURrwRSqtf56RMkXtBhdekA6EFx57vEJ0nedK1ynzMus0jDoGIkHXjpVkoOd+w
ozSBV//GYaMzPRXNhkRYg+yra/sE4XGkJodY5ZWlTuTY828VBNFKZ4drsXkWHdJi
uzTPgZFHoBaMUWRsHiyV6oC3lJh0+eemqskrhvyQUiMfSft84WiFUthoG8HLBZNd
9u+H4dBBE59PBQt2eNBSaNycsryAQYO4PtaPTVSVPdd5N50IqMSXDuXEkbmPoWwu
RgF2QW7zs9+3/YURm/g5+3R6jQYPoq3zagPm4RXXDblzjmxGs4zgdf7rghD4dMVm
hv8Vy3YFK3s81Vrw7csz5TMvvnwLM1l/fsjAjL1yLVLRwt7exy6cPq9lE2b3xTN1
9D0WzO2u1hZnPGGd3jUAFqq0iwKAmllfWJ1nmWQu
-----END CERTIFICATE-----
