Certificate:
    Data:
        Version: 3 (0x2)
        Serial Number: 11728 (0x2dd0)
    Signature Algorithm: sha256WithRSAEncryption
        Issuer: C=US, ST=OH, L=Columbus, O=VikingVPN, OU=MyOrganizationalUnit, CN=VikingVPN CA/name=EasyRSA/emailAddress=me@myhost.mydomain
        Validity
            Not Before: Aug 29 14:52:35 2017 GMT
            Not After : Aug 27 14:52:35 2027 GMT
        Subject: CN=Client3064Cert232277
        Subject Public Key Info:
            Public Key Algorithm: rsaEncryption
                Public-Key: (4096 bit)
                Modulus:
                    00:e4:0d:29:5b:1e:b6:62:d0:52:99:15:5c:41:59:
                    89:e9:2e:fc:b9:92:20:3e:07:73:87:0d:73:ea:23:
                    df:68:da:0f:bc:03:3e:42:d8:77:59:be:aa:5b:7d:
                    37:d1:9a:6a:f9:66:4a:2a:65:46:52:11:20:81:90:
                    a2:99:4f:3f:de:6c:0f:2f:cf:ba:a4:12:92:ee:62:
                    98:b5:e5:16:0d:cb:fb:25:aa:17:a5:77:3a:2d:49:
                    89:56:2e:13:0a:a3:2e:cd:93:aa:b4:3e:80:c5:f0:
                    be:de:98:d1:ff:29:bb:14:b3:5d:47:53:61:5f:4b:
                    37:ba:37:89:95:75:c0:e2:19:b3:87:cd:38:be:46:
                    08:97:01:27:1c:1e:bf:6a:87:12:8b:34:28:99:96:
                    d1:ac:5e:f7:7c:b2:cc:c9:1d:12:e3:c8:7a:ce:8e:
                    a8:a2:4e:ab:3c:5b:f2:94:28:a7:fa:54:55:08:14:
                    03:87:06:8d:85:66:2c:c6:3b:35:3c:d8:bd:e5:47:
                    82:8c:73:fe:79:8a:47:f9:48:e1:07:a8:e8:11:8b:
                    6c:1c:37:85:55:bb:5f:6f:ad:9b:64:e0:1a:21:c1:
                    6c:6a:0e:5a:af:d7:32:90:09:41:4f:51:90:52:5d:
                    a5:88:61:6a:19:55:43:60:ba:f6:29:7c:b4:3d:e8:
                    1e:ce:db:1d:45:c6:d1:86:13:ac:b6:56:37:ac:b3:
                    07:db:72:02:ef:35:56:b7:28:5f:75:e7:9f:04:0a:
                    e3:7b:6b:22:95:de:eb:66:e5:32:31:0b:0b:60:86:
                    2b:ef:ca:f9:22:03:3f:09:6d:de:da:e7:96:c0:eb:
                    8b:eb:a0:79:61:5d:48:62:55:c9:20:a7:cf:c8:d6:
                    4c:d4:aa:02:4d:78:0f:e3:00:10:e4:93:3e:6f:9f:
                    fe:b6:52:a8:cd:3a:f6:8b:57:a9:16:08:b1:74:18:
                    5a:ac:ba:5e:bd:0f:2d:8d:5d:27:0d:3f:4b:c5:4c:
                    94:1e:07:a3:60:dd:57:35:b4:9e:6f:f4:1f:ea:66:
                    48:e0:45:07:94:1b:9b:cb:43:54:1e:58:9f:3c:f0:
                    aa:cf:04:27:06:ff:cc:4c:1e:64:9d:21:5f:a6:6b:
                    a8:45:3e:2b:d7:5c:90:6b:69:ff:31:55:c3:0b:c3:
                    24:ce:f7:2d:ff:45:2d:33:f9:ff:f9:0c:b9:14:d3:
                    b3:a6:a1:07:99:da:39:5d:ad:98:39:4a:c0:bb:6a:
                    cf:f6:01:b3:4d:bd:74:bd:52:34:aa:78:44:4a:f8:
                    9d:33:17:7a:e9:90:38:f5:59:91:86:80:90:d4:f2:
                    17:9d:dd:a9:3f:44:ad:75:ac:b7:dd:0f:c1:cc:db:
                    60:36:07
                Exponent: 65537 (0x10001)
        X509v3 extensions:
            X509v3 Basic Constraints: 
                CA:FALSE
            Netscape Comment: 
                Easy-RSA Generated Certificate
            X509v3 Subject Key Identifier: 
                68:C7:6F:C6:BE:11:6B:B7:AE:A7:04:C4:9F:E3:EC:64:0A:94:39:17
            X509v3 Authority Key Identifier: 
                keyid:12:CD:60:04:D2:A0:80:9E:70:ED:C6:99:B8:7B:2C:C6:52:FD:19:A1
                DirName:/C=US/ST=OH/L=Columbus/O=VikingVPN/OU=MyOrganizationalUnit/CN=VikingVPN CA/name=EasyRSA/emailAddress=me@myhost.mydomain
                serial:CF:35:85:EE:80:BF:2A:3E

            X509v3 Extended Key Usage: 
                TLS Web Client Authentication
            X509v3 Key Usage: 
                Digital Signature
    Signature Algorithm: sha256WithRSAEncryption
         95:c9:63:a2:c5:ac:d4:64:35:81:b5:6c:f7:d4:84:f7:46:46:
         ee:e0:6c:d0:ca:d3:08:a3:8a:9c:46:6e:b6:34:2a:a5:9e:b5:
         dc:89:07:a1:6c:25:e1:f9:ad:01:8a:c0:58:43:d6:4c:42:94:
         06:b2:11:b0:f8:c7:e7:6b:9e:a4:2b:04:ec:1d:44:5d:27:99:
         d4:24:33:d7:60:e7:6a:2d:1c:1e:b3:42:05:7b:53:38:82:cb:
         ad:2e:85:3b:6d:bb:cb:2f:1f:07:45:d4:cb:10:cf:8e:4e:52:
         bf:09:f2:7a:26:8f:16:15:50:2b:ee:c4:62:e3:fa:40:b6:43:
         41:32:db:bc:07:e0:cc:61:57:19:12:da:cb:0b:0a:a1:a7:4f:
         16:ea:77:b4:6e:cc:3f:2c:d2:cc:1b:66:78:f5:f6:e6:8f:af:
         13:27:e1:d5:4c:d6:5d:9b:e9:62:05:fd:bc:25:f3:d9:2d:4b:
         6a:f0:0b:23:36:fa:94:45:a0:64:bc:06:45:e8:f6:89:af:23:
         e3:56:9b:08:e7:8b:38:68:a4:b6:a6:58:fa:e4:59:0f:7a:38:
         49:47:4e:3b:88:62:02:b0:bf:13:1c:43:62:03:3a:50:e5:3d:
         66:7c:ed:56:1b:91:e5:fa:ab:71:ca:b8:5a:63:70:44:08:be:
         ec:6a:eb:b1:06:2c:e8:aa:8e:25:e8:61:90:76:cf:9c:25:12:
         6c:b3:01:87:c8:42:91:85:a7:08:dc:a4:67:03:7e:63:58:b1:
         fe:7d:85:4e:eb:b6:91:e1:d4:a2:48:f3:4c:96:7c:14:e5:52:
         d6:7a:70:7c:b6:5b:77:d0:27:2f:f3:03:87:8f:e5:b9:a2:9a:
         90:94:ab:a0:aa:88:6a:83:a2:30:c6:c0:0f:f6:44:f6:bc:f3:
         85:a8:76:32:d9:fa:f5:96:27:4b:33:fd:58:be:49:3c:e8:ae:
         f4:65:67:77:2c:17:a7:fe:76:e4:32:78:4f:88:06:64:33:59:
         4e:56:d7:b9:72:62:fe:0c:bf:90:31:f5:af:f0:82:07:bf:46:
         e3:ae:09:ac:3f:2a:4e:67:f5:db:9e:b9:8d:16:81:38:b7:5b:
         de:3e:a4:8f:2c:a0:60:cb:7f:04:b4:dc:0d:ec:f4:8f:74:a4:
         a6:82:f5:8e:79:5f:34:17:c3:ad:68:02:74:da:ea:e4:56:73:
         f5:ca:ad:a4:7c:9a:e6:56:ee:a0:1f:52:d5:d1:25:5b:4c:8f:
         ef:b8:4a:78:27:89:f2:fd:be:e7:09:7c:44:e3:75:c2:06:6a:
         7b:19:0f:0f:82:c1:8b:ea:95:8c:9c:b3:50:55:ed:d7:b3:b5:
         f2:6b:cf:61:7a:b8:d6:c5
-----BEGIN CERTIFICATE-----
MIIGrTCCBJWgAwIBAgICLdAwDQYJKoZIhvcNAQELBQAwgawxCzAJBgNVBAYTAlVT
MQswCQYDVQQIEwJPSDERMA8GA1UEBxMIQ29sdW1idXMxEjAQBgNVBAoTCVZpa2lu
Z1ZQTjEdMBsGA1UECxMUTXlPcmdhbml6YXRpb25hbFVuaXQxFTATBgNVBAMTDFZp
a2luZ1ZQTiBDQTEQMA4GA1UEKRMHRWFzeVJTQTEhMB8GCSqGSIb3DQEJARYSbWVA
bXlob3N0Lm15ZG9tYWluMB4XDTE3MDgyOTE0NTIzNVoXDTI3MDgyNzE0NTIzNVow
HzEdMBsGA1UEAxMUQ2xpZW50MzA2NENlcnQyMzIyNzcwggIiMA0GCSqGSIb3DQEB
AQUAA4ICDwAwggIKAoICAQDkDSlbHrZi0FKZFVxBWYnpLvy5kiA+B3OHDXPqI99o
2g+8Az5C2HdZvqpbfTfRmmr5ZkoqZUZSESCBkKKZTz/ebA8vz7qkEpLuYpi15RYN
y/slqheldzotSYlWLhMKoy7Nk6q0PoDF8L7emNH/KbsUs11HU2FfSze6N4mVdcDi
GbOHzTi+RgiXASccHr9qhxKLNCiZltGsXvd8sszJHRLjyHrOjqiiTqs8W/KUKKf6
VFUIFAOHBo2FZizGOzU82L3lR4KMc/55ikf5SOEHqOgRi2wcN4VVu19vrZtk4Boh
wWxqDlqv1zKQCUFPUZBSXaWIYWoZVUNguvYpfLQ96B7O2x1FxtGGE6y2Vjesswfb
cgLvNVa3KF91558ECuN7ayKV3utm5TIxCwtghivvyvkiAz8Jbd7a55bA64vroHlh
XUhiVckgp8/I1kzUqgJNeA/jABDkkz5vn/62UqjNOvaLV6kWCLF0GFqsul69Dy2N
XScNP0vFTJQeB6Ng3Vc1tJ5v9B/qZkjgRQeUG5vLQ1QeWJ888KrPBCcG/8xMHmSd
IV+ma6hFPivXXJBraf8xVcMLwyTO9y3/RS0z+f/5DLkU07OmoQeZ2jldrZg5SsC7
as/2AbNNvXS9UjSqeERK+J0zF3rpkDj1WZGGgJDU8hed3ak/RK11rLfdD8HM22A2
BwIDAQABo4IBYzCCAV8wCQYDVR0TBAIwADAtBglghkgBhvhCAQ0EIBYeRWFzeS1S
U0EgR2VuZXJhdGVkIENlcnRpZmljYXRlMB0GA1UdDgQWBBRox2/GvhFrt66nBMSf
4+xkCpQ5FzCB4QYDVR0jBIHZMIHWgBQSzWAE0qCAnnDtxpm4eyzGUv0ZoaGBsqSB
rzCBrDELMAkGA1UEBhMCVVMxCzAJBgNVBAgTAk9IMREwDwYDVQQHEwhDb2x1bWJ1
czESMBAGA1UEChMJVmlraW5nVlBOMR0wGwYDVQQLExRNeU9yZ2FuaXphdGlvbmFs
VW5pdDEVMBMGA1UEAxMMVmlraW5nVlBOIENBMRAwDgYDVQQpEwdFYXN5UlNBMSEw
HwYJKoZIhvcNAQkBFhJtZUBteWhvc3QubXlkb21haW6CCQDPNYXugL8qPjATBgNV
HSUEDDAKBggrBgEFBQcDAjALBgNVHQ8EBAMCB4AwDQYJKoZIhvcNAQELBQADggIB
AJXJY6LFrNRkNYG1bPfUhPdGRu7gbNDK0wijipxGbrY0KqWetdyJB6FsJeH5rQGK
wFhD1kxClAayEbD4x+drnqQrBOwdRF0nmdQkM9dg52otHB6zQgV7UziCy60uhTtt
u8svHwdF1MsQz45OUr8J8nomjxYVUCvuxGLj+kC2Q0Ey27wH4MxhVxkS2ssLCqGn
Txbqd7RuzD8s0swbZnj19uaPrxMn4dVM1l2b6WIF/bwl89ktS2rwCyM2+pRFoGS8
BkXo9omvI+NWmwjnizhopLamWPrkWQ96OElHTjuIYgKwvxMcQ2IDOlDlPWZ87VYb
keX6q3HKuFpjcEQIvuxq67EGLOiqjiXoYZB2z5wlEmyzAYfIQpGFpwjcpGcDfmNY
sf59hU7rtpHh1KJI80yWfBTlUtZ6cHy2W3fQJy/zA4eP5bmimpCUq6CqiGqDojDG
wA/2RPa884WodjLZ+vWWJ0sz/Vi+STzorvRlZ3csF6f+duQyeE+IBmQzWU5W17ly
Yv4Mv5Ax9a/wgge/RuOuCaw/Kk5n9dueuY0WgTi3W94+pI8soGDLfwS03A3s9I90
pKaC9Y55XzQXw61oAnTa6uRWc/XKraR8muZW7qAfUtXRJVtMj++4SngnifL9vucJ
fETjdcIGansZDw+CwYvqlYycs1BV7deztfJrz2F6uNbF
-----END CERTIFICATE-----
