Certificate:
    Data:
        Version: 3 (0x2)
        Serial Number: 3378 (0xd32)
    Signature Algorithm: md5WithRSAEncryption
        Issuer: C=US, ST=OH, L=Columbus, O=VikingVPN, OU=MyOrganizationalUnit, CN=VikingVPN CA/name=EasyRSA/emailAddress=me@myhost.mydomain
        Validity
            Not Before: Nov 13 05:16:28 2014 GMT
            Not After : Nov 10 05:16:28 2024 GMT
        Subject: CN=Client1164Cert965179
        Subject Public Key Info:
            Public Key Algorithm: rsaEncryption
                Public-Key: (4096 bit)
                Modulus:
                    00:d0:47:34:32:f7:74:9c:33:ef:01:5e:4f:dd:ae:
                    76:3a:a7:d1:fd:6d:4f:34:66:07:bd:ae:7d:49:f9:
                    1c:b8:ee:65:91:26:c5:75:2e:cf:ea:76:a8:7d:59:
                    e6:21:ef:fe:1e:55:cd:38:c8:c1:65:31:d2:b0:66:
                    89:49:7f:0f:7f:fc:fb:37:34:c0:c0:98:95:27:b2:
                    09:71:92:e8:a6:22:46:d6:27:da:31:ff:8e:64:e0:
                    7a:96:99:94:5a:bb:38:76:8f:c4:f3:7f:63:60:9e:
                    65:a9:9f:5a:2c:40:97:a7:37:a0:fc:7e:12:46:08:
                    4c:6e:ab:d4:28:66:71:79:09:8a:22:c3:b8:cb:93:
                    72:81:e3:ff:6c:96:83:5c:f6:51:bd:c7:a9:18:b0:
                    10:15:7d:0b:3f:de:8c:31:54:25:b6:f3:91:9c:5e:
                    f0:ea:61:38:f9:71:76:41:c7:bf:51:fe:80:62:6c:
                    08:f6:61:b0:35:3f:1c:57:c6:8a:d3:73:71:e9:cd:
                    dd:cd:37:14:43:8d:dd:eb:06:bf:e3:0d:6d:41:13:
                    0d:c5:4e:27:39:7b:87:e7:cd:d7:84:fa:26:82:d4:
                    89:f8:ae:66:4b:ef:d8:4b:80:5a:bf:99:4d:fb:fe:
                    4a:d7:ac:a3:d4:80:1b:d1:dd:ff:3c:39:08:98:5e:
                    ee:d0:8f:84:92:2e:e1:43:1f:86:61:b9:f1:38:24:
                    8d:c4:bc:14:70:f3:92:46:98:97:71:1b:41:a1:b3:
                    9c:8b:99:45:45:eb:8f:d4:37:32:02:1b:15:20:7f:
                    35:4f:99:93:4c:10:39:29:16:12:11:0a:98:86:12:
                    2c:3f:5a:a3:04:d0:bc:0b:63:5b:bc:89:6a:7a:70:
                    57:12:6e:29:3b:82:38:a6:a8:4b:3d:90:b9:fd:4f:
                    14:71:44:b0:d8:7c:bd:0b:cf:ce:c5:b3:5f:0a:fc:
                    7e:88:8d:b8:da:09:ff:a7:0e:fb:f5:42:8c:df:f8:
                    80:11:6c:07:d9:69:aa:75:0b:82:1a:f6:b7:4b:d6:
                    67:fd:40:a5:01:22:96:e8:3a:57:6b:43:07:82:f7:
                    52:35:f2:d7:56:00:f7:0a:f2:0a:10:0d:fe:c9:98:
                    d6:82:bd:6d:be:a6:9c:ad:78:4e:15:92:0e:ef:52:
                    35:91:ff:ca:6a:82:4a:a2:f2:87:d8:68:74:13:ce:
                    8f:ba:c6:fb:b7:c9:fa:10:5e:18:87:b0:c5:c6:90:
                    09:0b:11:96:4b:91:7f:6e:1e:07:b3:60:05:84:c8:
                    60:ae:09:6a:63:bc:31:14:89:ba:11:9c:d1:ea:27:
                    73:ce:42:89:15:07:d1:11:b5:75:bf:22:68:38:87:
                    00:a4:29
                Exponent: 65537 (0x10001)
        X509v3 extensions:
            X509v3 Basic Constraints: 
                CA:FALSE
            Netscape Comment: 
                Easy-RSA Generated Certificate
            X509v3 Subject Key Identifier: 
                6B:81:49:4A:8A:34:E5:69:DA:19:A8:52:48:48:59:46:1C:66:7B:00
            X509v3 Authority Key Identifier: 
                keyid:12:CD:60:04:D2:A0:80:9E:70:ED:C6:99:B8:7B:2C:C6:52:FD:19:A1
                DirName:/C=US/ST=OH/L=Columbus/O=VikingVPN/OU=MyOrganizationalUnit/CN=VikingVPN CA/name=EasyRSA/emailAddress=me@myhost.mydomain
                serial:CF:35:85:EE:80:BF:2A:3E

            X509v3 Extended Key Usage: 
                TLS Web Client Authentication
            X509v3 Key Usage: 
                Digital Signature
    Signature Algorithm: md5WithRSAEncryption
         cd:ed:97:41:c9:ba:8a:9f:c6:72:66:72:78:21:7d:d2:74:dc:
         41:39:85:26:29:b9:a6:0f:ba:9b:95:d4:5f:1b:08:07:34:69:
         e8:8f:d1:25:a1:db:63:01:b5:46:9b:e3:80:8a:ec:98:9b:7c:
         ac:9d:b4:00:16:f4:2d:7a:0f:1e:34:f8:26:02:f5:76:c3:51:
         b2:2a:1b:a7:48:51:15:ab:a9:3c:b3:72:e2:9a:5d:b9:c6:2c:
         e6:ba:51:0a:a8:c6:0b:b3:df:55:6b:b7:47:8e:0e:54:58:f7:
         6b:61:07:f4:b1:1d:17:1d:4b:4d:29:33:2d:c5:37:32:63:00:
         bf:7a:19:39:b2:50:46:fc:7d:3a:6b:7d:68:47:84:0e:53:f0:
         8e:bd:ac:61:b9:d3:d9:9c:9f:26:f8:ee:0e:e5:a9:b4:8b:97:
         45:f0:c4:8e:57:0f:1d:c9:13:b1:65:dd:08:8c:47:71:1f:ae:
         52:a7:9f:3e:66:d9:f3:d5:b7:e8:7e:73:31:23:d2:a9:82:5b:
         60:d6:ef:cd:ba:db:36:48:9f:ea:c5:14:21:ef:75:d4:e1:c0:
         9b:74:8a:1c:02:a5:cd:89:c5:ad:c1:53:c7:8d:5d:6e:e1:24:
         66:51:bd:d8:3c:a6:9f:b5:30:09:8d:aa:15:9a:b7:44:54:51:
         9d:7b:15:0c:1a:cd:e4:3c:1e:49:ad:31:4a:84:93:95:9a:69:
         09:17:d1:64:fa:2a:f0:fb:db:e4:6e:d5:67:4f:0b:23:9b:d2:
         87:4a:4d:18:40:10:7a:d1:61:9c:eb:7f:a6:7e:f4:53:b0:9d:
         93:f3:ac:e8:cf:ee:51:46:99:bd:78:5a:5d:7b:7f:86:80:33:
         7c:a3:82:91:f6:83:c3:47:2e:52:f2:bf:a4:3e:0b:59:94:2e:
         0e:ff:d1:5d:50:e2:ba:91:04:52:06:b1:3e:7d:c4:24:7d:80:
         ff:18:91:c6:92:3b:21:7e:9a:74:c6:02:aa:35:54:f4:5f:dc:
         a7:fd:35:77:2d:f8:80:9c:04:5b:df:73:88:f4:23:dc:a6:31:
         7a:a7:68:05:d1:54:ed:7c:04:8a:83:c7:c8:bc:46:43:02:7f:
         bc:a1:dc:58:0a:75:bd:33:2f:64:32:84:da:5b:e2:01:63:37:
         93:0e:46:b5:b6:0a:ca:fa:55:e1:9c:5f:60:45:f7:91:99:bd:
         d6:ba:b8:1f:7a:91:1e:67:40:a3:87:6d:3a:8c:13:8a:44:3d:
         d1:0d:d1:a9:da:aa:58:56:36:50:3d:78:06:b5:e1:5e:3c:e9:
         f0:f5:fb:ed:6f:c8:8e:9c:d2:f7:58:28:49:22:fd:14:7a:da:
         91:95:38:67:66:3f:66:d7
-----BEGIN CERTIFICATE-----
MIIGrTCCBJWgAwIBAgICDTIwDQYJKoZIhvcNAQEEBQAwgawxCzAJBgNVBAYTAlVT
MQswCQYDVQQIEwJPSDERMA8GA1UEBxMIQ29sdW1idXMxEjAQBgNVBAoTCVZpa2lu
Z1ZQTjEdMBsGA1UECxMUTXlPcmdhbml6YXRpb25hbFVuaXQxFTATBgNVBAMTDFZp
a2luZ1ZQTiBDQTEQMA4GA1UEKRMHRWFzeVJTQTEhMB8GCSqGSIb3DQEJARYSbWVA
bXlob3N0Lm15ZG9tYWluMB4XDTE0MTExMzA1MTYyOFoXDTI0MTExMDA1MTYyOFow
HzEdMBsGA1UEAxMUQ2xpZW50MTE2NENlcnQ5NjUxNzkwggIiMA0GCSqGSIb3DQEB
AQUAA4ICDwAwggIKAoICAQDQRzQy93ScM+8BXk/drnY6p9H9bU80Zge9rn1J+Ry4
7mWRJsV1Ls/qdqh9WeYh7/4eVc04yMFlMdKwZolJfw9//Ps3NMDAmJUnsglxkuim
IkbWJ9ox/45k4HqWmZRauzh2j8Tzf2NgnmWpn1osQJenN6D8fhJGCExuq9QoZnF5
CYoiw7jLk3KB4/9sloNc9lG9x6kYsBAVfQs/3owxVCW285GcXvDqYTj5cXZBx79R
/oBibAj2YbA1PxxXxorTc3Hpzd3NNxRDjd3rBr/jDW1BEw3FTic5e4fnzdeE+iaC
1In4rmZL79hLgFq/mU37/krXrKPUgBvR3f88OQiYXu7Qj4SSLuFDH4ZhufE4JI3E
vBRw85JGmJdxG0Ghs5yLmUVF64/UNzICGxUgfzVPmZNMEDkpFhIRCpiGEiw/WqME
0LwLY1u8iWp6cFcSbik7gjimqEs9kLn9TxRxRLDYfL0Lz87Fs18K/H6IjbjaCf+n
Dvv1Qozf+IARbAfZaap1C4Ia9rdL1mf9QKUBIpboOldrQweC91I18tdWAPcK8goQ
Df7JmNaCvW2+ppyteE4Vkg7vUjWR/8pqgkqi8ofYaHQTzo+6xvu3yfoQXhiHsMXG
kAkLEZZLkX9uHgezYAWEyGCuCWpjvDEUiboRnNHqJ3POQokVB9ERtXW/Img4hwCk
KQIDAQABo4IBYzCCAV8wCQYDVR0TBAIwADAtBglghkgBhvhCAQ0EIBYeRWFzeS1S
U0EgR2VuZXJhdGVkIENlcnRpZmljYXRlMB0GA1UdDgQWBBRrgUlKijTladoZqFJI
SFlGHGZ7ADCB4QYDVR0jBIHZMIHWgBQSzWAE0qCAnnDtxpm4eyzGUv0ZoaGBsqSB
rzCBrDELMAkGA1UEBhMCVVMxCzAJBgNVBAgTAk9IMREwDwYDVQQHEwhDb2x1bWJ1
czESMBAGA1UEChMJVmlraW5nVlBOMR0wGwYDVQQLExRNeU9yZ2FuaXphdGlvbmFs
VW5pdDEVMBMGA1UEAxMMVmlraW5nVlBOIENBMRAwDgYDVQQpEwdFYXN5UlNBMSEw
HwYJKoZIhvcNAQkBFhJtZUBteWhvc3QubXlkb21haW6CCQDPNYXugL8qPjATBgNV
HSUEDDAKBggrBgEFBQcDAjALBgNVHQ8EBAMCB4AwDQYJKoZIhvcNAQEEBQADggIB
AM3tl0HJuoqfxnJmcnghfdJ03EE5hSYpuaYPupuV1F8bCAc0aeiP0SWh22MBtUab
44CK7JibfKydtAAW9C16Dx40+CYC9XbDUbIqG6dIURWrqTyzcuKaXbnGLOa6UQqo
xguz31Vrt0eODlRY92thB/SxHRcdS00pMy3FNzJjAL96GTmyUEb8fTprfWhHhA5T
8I69rGG509mcnyb47g7lqbSLl0XwxI5XDx3JE7Fl3QiMR3EfrlKnnz5m2fPVt+h+
czEj0qmCW2DW78262zZIn+rFFCHvddThwJt0ihwCpc2Jxa3BU8eNXW7hJGZRvdg8
pp+1MAmNqhWat0RUUZ17FQwazeQ8HkmtMUqEk5WaaQkX0WT6KvD72+Ru1WdPCyOb
0odKTRhAEHrRYZzrf6Z+9FOwnZPzrOjP7lFGmb14Wl17f4aAM3yjgpH2g8NHLlLy
v6Q+C1mULg7/0V1Q4rqRBFIGsT59xCR9gP8YkcaSOyF+mnTGAqo1VPRf3Kf9NXct
+ICcBFvfc4j0I9ymMXqnaAXRVO18BIqDx8i8RkMCf7yh3FgKdb0zL2QyhNpb4gFj
N5MORrW2Csr6VeGcX2BF95GZvda6uB96kR5nQKOHbTqME4pEPdEN0anaqlhWNlA9
eAa14V486fD1++1vyI6c0vdYKEki/RR62pGVOGdmP2bX
-----END CERTIFICATE-----
