Certificate:
    Data:
        Version: 3 (0x2)
        Serial Number: 359 (0x167)
    Signature Algorithm: md5WithRSAEncryption
        Issuer: C=US, ST=OH, L=Columbus, O=VikingVPN, OU=MyOrganizationalUnit, CN=VikingVPN CA/name=EasyRSA/emailAddress=me@myhost.mydomain
        Validity
            Not Before: Oct 30 09:18:37 2013 GMT
            Not After : Oct 28 09:18:37 2023 GMT
        Subject: CN=Client158Cert6362f8
        Subject Public Key Info:
            Public Key Algorithm: rsaEncryption
                Public-Key: (4096 bit)
                Modulus:
                    00:a5:20:04:b1:01:07:dc:cb:0e:da:3d:16:d9:31:
                    ca:aa:80:00:b2:23:ad:3f:e5:b0:56:ac:b1:67:18:
                    d3:40:c7:e5:3f:be:57:27:f2:02:10:98:72:b3:d4:
                    35:81:80:cd:68:62:e2:1b:a3:2c:e3:f9:aa:f5:1c:
                    1a:32:40:4e:f9:58:6d:b4:46:ff:b8:45:c6:3c:17:
                    3c:2d:98:e3:e1:fa:ca:99:7e:34:f9:ae:96:ae:ae:
                    ef:88:c4:ee:74:f1:6d:b6:c0:50:b8:5b:3f:94:29:
                    fb:1e:14:67:60:70:d4:b3:85:1c:3e:45:55:6b:be:
                    c0:e7:d8:f1:74:41:d1:73:ba:1e:a5:94:55:d1:7e:
                    24:25:2a:99:44:86:c7:1d:15:a0:45:bf:6e:45:62:
                    6d:1f:f1:39:1b:cb:25:26:1b:44:96:ad:16:dc:4b:
                    43:18:cb:c5:ff:ed:2c:b8:05:6b:c9:25:73:88:d2:
                    1d:e7:bb:f0:2c:6d:dd:33:04:66:c0:dd:dd:b2:68:
                    58:9e:17:48:3d:ff:3a:04:de:f6:3b:2d:a0:b6:4b:
                    34:fb:62:ef:c0:25:e7:42:04:92:d4:cb:1f:9c:35:
                    e9:61:b8:0a:22:04:45:9e:0d:dc:7f:0b:33:67:d7:
                    d1:da:39:f2:9b:de:98:eb:ad:c9:f5:69:f1:29:5a:
                    30:d2:3a:15:2a:6a:d7:98:85:ef:32:a9:cb:8b:8c:
                    6a:c8:64:7b:5e:88:2b:eb:d3:aa:7e:61:bf:9c:27:
                    b3:70:7d:52:a4:97:b4:d3:e2:5d:a9:4e:97:0d:1c:
                    9e:f1:f5:c1:34:42:1e:79:49:d7:bf:55:5b:57:80:
                    7d:32:05:6b:5c:61:14:74:79:e8:51:ce:17:86:cd:
                    62:83:ac:8b:32:bd:51:16:6a:60:e8:b1:e7:74:3c:
                    b7:80:77:54:f7:63:c9:15:52:b6:ee:de:6d:1b:87:
                    76:bb:60:9b:95:91:99:df:3f:05:b0:fd:53:ad:2d:
                    53:33:93:dc:1c:83:dc:4d:be:a1:17:49:26:a6:1f:
                    b1:83:2a:9c:ae:01:ca:57:4e:98:0c:8b:f7:5b:73:
                    d0:33:fd:cb:e5:3f:2b:a7:34:39:66:4d:ec:fc:bd:
                    05:d5:31:95:98:75:95:e4:ed:e0:57:bb:5f:ff:9a:
                    b7:cf:57:ec:24:d0:ba:67:7f:90:54:7d:c4:0e:33:
                    68:d8:d6:f4:30:c3:d7:4a:79:07:34:f2:26:5b:02:
                    e1:77:ab:bb:e8:3e:00:43:25:08:22:12:ad:46:05:
                    9c:04:e6:cb:71:e1:4c:1a:54:67:dd:05:9c:64:36:
                    33:80:81:7c:97:6d:95:ea:9a:4d:0e:51:4b:53:88:
                    61:d8:9b
                Exponent: 65537 (0x10001)
        X509v3 extensions:
            X509v3 Basic Constraints: 
                CA:FALSE
            Netscape Comment: 
                Easy-RSA Generated Certificate
            X509v3 Subject Key Identifier: 
                3A:D8:42:59:E0:55:54:CE:E3:E4:62:24:E9:86:26:53:2E:AB:97:F8
            X509v3 Authority Key Identifier: 
                keyid:12:CD:60:04:D2:A0:80:9E:70:ED:C6:99:B8:7B:2C:C6:52:FD:19:A1
                DirName:/C=US/ST=OH/L=Columbus/O=VikingVPN/OU=MyOrganizationalUnit/CN=VikingVPN CA/name=EasyRSA/emailAddress=me@myhost.mydomain
                serial:CF:35:85:EE:80:BF:2A:3E

            X509v3 Extended Key Usage: 
                TLS Web Client Authentication
            X509v3 Key Usage: 
                Digital Signature
    Signature Algorithm: md5WithRSAEncryption
         22:95:06:05:4f:84:68:bd:8c:b8:ea:6e:3f:6f:ac:ce:d5:20:
         5c:db:db:d8:a9:f8:37:94:f7:3a:29:8d:6a:7d:ac:b6:77:8b:
         75:0a:aa:66:12:9c:32:99:40:74:8c:08:d4:58:31:d1:0b:4b:
         fc:a6:21:e8:de:45:10:73:df:e8:55:b3:a6:09:b4:54:8b:75:
         82:a8:8e:5e:f6:9b:47:6e:54:f0:41:17:c8:28:89:3f:72:28:
         75:90:b3:1c:4e:d9:c6:b2:35:72:05:9d:c6:3c:a7:7f:1b:f7:
         2c:57:58:11:ec:6f:e4:db:d1:0a:52:73:68:8c:52:19:98:89:
         48:17:30:81:3c:cb:5a:f7:3f:22:68:ba:64:cf:5e:64:3e:f0:
         7f:c4:5c:cf:32:06:93:cb:53:38:d6:7e:62:fe:7e:50:46:06:
         b1:85:64:03:fe:fc:2c:c4:ce:5b:31:8d:f1:34:a8:91:fa:9d:
         37:dc:ca:77:05:d4:0c:be:5d:25:86:bc:66:f2:1c:08:ec:b5:
         a8:8d:68:b7:90:11:4b:c8:98:c9:f5:e7:ab:ad:17:69:91:b1:
         9b:37:16:6e:7d:ee:55:82:79:81:3e:0a:77:fd:1e:c0:57:35:
         74:6b:eb:82:c3:07:b2:29:c1:81:65:45:a9:7d:7a:56:df:ab:
         79:cb:1f:0e:cf:74:9a:b0:2b:40:fd:7d:e5:4e:7e:ca:74:63:
         19:cb:05:60:b3:fd:4e:2e:22:25:7c:3f:e9:b8:35:f3:4e:e4:
         82:a2:ce:cb:b2:c2:9f:d7:e2:25:b1:c1:5f:bf:fe:b4:ea:81:
         2d:a8:be:56:b6:dc:61:e5:3b:23:fa:3e:0e:c3:76:8f:99:3d:
         47:eb:f2:6e:17:d2:c9:12:72:34:b1:bb:27:41:5a:eb:c6:b7:
         13:4d:67:98:0e:11:30:4c:d7:81:1a:19:8f:49:b9:b6:41:15:
         a1:9b:72:c8:0b:f7:ad:22:ad:70:d0:53:ba:11:3f:7d:ce:bf:
         39:f0:70:a0:ab:ff:a7:74:67:20:5e:c2:2f:d2:08:e6:91:fe:
         bf:77:46:2f:1c:6b:dd:d1:c0:b3:0e:13:41:db:34:c5:33:7b:
         cd:8c:13:1d:c3:0d:8a:96:f1:86:4b:19:66:7f:21:1b:da:06:
         17:62:c0:c2:90:ff:68:ea:9f:1e:f0:27:9b:1c:b4:6f:ac:18:
         03:7d:50:7e:43:01:0b:4f:f8:b9:be:c5:0a:e0:89:b3:83:c0:
         aa:ba:1c:f2:f0:b5:f5:e4:25:6a:55:a8:dd:51:58:4a:4a:e5:
         4e:e3:47:d7:2b:60:94:63:c4:67:30:a2:a8:2a:c1:6b:d4:a1:
         31:b3:95:5c:18:44:6b:b1
-----BEGIN CERTIFICATE-----
MIIGrDCCBJSgAwIBAgICAWcwDQYJKoZIhvcNAQEEBQAwgawxCzAJBgNVBAYTAlVT
MQswCQYDVQQIEwJPSDERMA8GA1UEBxMIQ29sdW1idXMxEjAQBgNVBAoTCVZpa2lu
Z1ZQTjEdMBsGA1UECxMUTXlPcmdhbml6YXRpb25hbFVuaXQxFTATBgNVBAMTDFZp
a2luZ1ZQTiBDQTEQMA4GA1UEKRMHRWFzeVJTQTEhMB8GCSqGSIb3DQEJARYSbWVA
bXlob3N0Lm15ZG9tYWluMB4XDTEzMTAzMDA5MTgzN1oXDTIzMTAyODA5MTgzN1ow
HjEcMBoGA1UEAxMTQ2xpZW50MTU4Q2VydDYzNjJmODCCAiIwDQYJKoZIhvcNAQEB
BQADggIPADCCAgoCggIBAKUgBLEBB9zLDto9FtkxyqqAALIjrT/lsFassWcY00DH
5T++VyfyAhCYcrPUNYGAzWhi4hujLOP5qvUcGjJATvlYbbRG/7hFxjwXPC2Y4+H6
ypl+NPmulq6u74jE7nTxbbbAULhbP5Qp+x4UZ2Bw1LOFHD5FVWu+wOfY8XRB0XO6
HqWUVdF+JCUqmUSGxx0VoEW/bkVibR/xORvLJSYbRJatFtxLQxjLxf/tLLgFa8kl
c4jSHee78Cxt3TMEZsDd3bJoWJ4XSD3/OgTe9jstoLZLNPti78Al50IEktTLH5w1
6WG4CiIERZ4N3H8LM2fX0do58pvemOutyfVp8SlaMNI6FSpq15iF7zKpy4uMashk
e16IK+vTqn5hv5wns3B9UqSXtNPiXalOlw0cnvH1wTRCHnlJ179VW1eAfTIFa1xh
FHR56FHOF4bNYoOsizK9URZqYOix53Q8t4B3VPdjyRVStu7ebRuHdrtgm5WRmd8/
BbD9U60tUzOT3ByD3E2+oRdJJqYfsYMqnK4ByldOmAyL91tz0DP9y+U/K6c0OWZN
7Py9BdUxlZh1leTt4Fe7X/+at89X7CTQumd/kFR9xA4zaNjW9DDD10p5BzTyJlsC
4Xeru+g+AEMlCCISrUYFnATmy3HhTBpUZ90FnGQ2M4CBfJdtleqaTQ5RS1OIYdib
AgMBAAGjggFjMIIBXzAJBgNVHRMEAjAAMC0GCWCGSAGG+EIBDQQgFh5FYXN5LVJT
QSBHZW5lcmF0ZWQgQ2VydGlmaWNhdGUwHQYDVR0OBBYEFDrYQlngVVTO4+RiJOmG
JlMuq5f4MIHhBgNVHSMEgdkwgdaAFBLNYATSoICecO3Gmbh7LMZS/RmhoYGypIGv
MIGsMQswCQYDVQQGEwJVUzELMAkGA1UECBMCT0gxETAPBgNVBAcTCENvbHVtYnVz
MRIwEAYDVQQKEwlWaWtpbmdWUE4xHTAbBgNVBAsTFE15T3JnYW5pemF0aW9uYWxV
bml0MRUwEwYDVQQDEwxWaWtpbmdWUE4gQ0ExEDAOBgNVBCkTB0Vhc3lSU0ExITAf
BgkqhkiG9w0BCQEWEm1lQG15aG9zdC5teWRvbWFpboIJAM81he6Avyo+MBMGA1Ud
JQQMMAoGCCsGAQUFBwMCMAsGA1UdDwQEAwIHgDANBgkqhkiG9w0BAQQFAAOCAgEA
IpUGBU+EaL2MuOpuP2+sztUgXNvb2Kn4N5T3OimNan2stneLdQqqZhKcMplAdIwI
1Fgx0QtL/KYh6N5FEHPf6FWzpgm0VIt1gqiOXvabR25U8EEXyCiJP3IodZCzHE7Z
xrI1cgWdxjynfxv3LFdYEexv5NvRClJzaIxSGZiJSBcwgTzLWvc/Imi6ZM9eZD7w
f8RczzIGk8tTONZ+Yv5+UEYGsYVkA/78LMTOWzGN8TSokfqdN9zKdwXUDL5dJYa8
ZvIcCOy1qI1ot5ARS8iYyfXnq60XaZGxmzcWbn3uVYJ5gT4Kd/0ewFc1dGvrgsMH
sinBgWVFqX16Vt+recsfDs90mrArQP195U5+ynRjGcsFYLP9Ti4iJXw/6bg1807k
gqLOy7LCn9fiJbHBX7/+tOqBLai+VrbcYeU7I/o+DsN2j5k9R+vybhfSyRJyNLG7
J0Fa68a3E01nmA4RMEzXgRoZj0m5tkEVoZtyyAv3rSKtcNBTuhE/fc6/OfBwoKv/
p3RnIF7CL9II5pH+v3dGLxxr3dHAsw4TQds0xTN7zYwTHcMNipbxhksZZn8hG9oG
F2LAwpD/aOqfHvAnmxy0b6wYA31QfkMBC0/4ub7FCuCJs4PAqroc8vC19eQlalWo
3VFYSkrlTuNH1ytglGPEZzCiqCrBa9ShMbOVXBhEa7E=
-----END CERTIFICATE-----
