Certificate:
    Data:
        Version: 3 (0x2)
        Serial Number: 9510 (0x2526)
    Signature Algorithm: sha256WithRSAEncryption
        Issuer: C=US, ST=OH, L=Columbus, O=VikingVPN, OU=MyOrganizationalUnit, CN=VikingVPN CA/name=EasyRSA/emailAddress=me@myhost.mydomain
        Validity
            Not Before: Nov 22 02:52:09 2016 GMT
            Not After : Nov 20 02:52:09 2026 GMT
        Subject: CN=Client972Certd87d1f
        Subject Public Key Info:
            Public Key Algorithm: rsaEncryption
                Public-Key: (4096 bit)
                Modulus:
                    00:c1:bf:0e:e1:aa:27:f5:95:1b:11:5c:88:7e:4f:
                    d9:7a:13:0e:63:1d:9f:d1:33:5b:63:22:a1:29:22:
                    e7:4d:83:e6:b3:df:4f:14:54:bd:93:89:61:b0:dd:
                    a8:c0:2d:14:c2:8b:a0:21:9b:29:0e:f9:c5:ca:a7:
                    b1:66:b4:a7:0a:81:e9:67:47:9d:60:91:8b:c0:d8:
                    44:b7:b3:96:d8:eb:25:b7:fe:94:ac:98:a1:eb:39:
                    6a:f9:6e:60:6e:5f:b5:27:a5:56:07:03:a8:a5:b9:
                    a7:30:83:6a:0c:cf:a3:bb:61:dc:13:3e:22:43:81:
                    ef:58:fe:5c:fe:f4:1d:91:e8:83:ac:4f:d8:3d:af:
                    0a:71:ba:c9:92:d2:14:8c:c8:59:43:a5:34:57:c6:
                    10:7d:76:46:cb:ab:21:81:ca:89:a8:32:68:3a:06:
                    87:c3:66:b0:53:c1:d5:2b:bb:1f:d2:dc:e5:8c:34:
                    99:76:2f:c6:c9:a9:3a:6f:be:53:bc:94:c5:cc:10:
                    d0:45:6f:a6:7a:65:a5:6e:fb:db:b9:c5:dc:35:24:
                    a6:a8:09:68:cf:b8:26:88:d1:c0:55:f6:5e:82:30:
                    74:81:9a:bf:d8:df:89:a4:36:cc:7a:fe:88:a5:b2:
                    69:9c:14:37:41:d8:d9:63:2b:d5:18:6b:8d:82:bf:
                    18:6e:c1:73:f7:7b:44:aa:b0:6f:aa:8a:28:5e:97:
                    ce:a6:7f:4a:8c:9b:ed:ac:05:19:84:21:96:4c:80:
                    78:91:57:61:55:a2:d2:d4:bd:69:c7:ae:57:0d:cc:
                    bf:93:5d:c2:4a:2e:41:87:61:11:64:a7:58:d5:01:
                    b5:fb:2a:73:93:69:82:17:96:d1:8b:b9:62:ee:44:
                    82:02:4a:aa:7c:ca:51:62:3f:ee:2d:c7:79:d1:29:
                    f9:95:b4:12:80:41:86:57:2b:1e:3f:92:ab:ef:df:
                    12:ce:56:91:8a:a3:b5:63:2c:0b:f6:1a:44:08:32:
                    b6:a4:c8:d3:a2:bf:94:ec:37:a7:62:7f:00:d1:05:
                    9f:4e:cd:42:40:c6:33:83:18:b7:49:b9:d7:00:55:
                    a1:08:49:af:ed:2a:04:e0:dc:a4:8a:fb:4f:92:ab:
                    20:b7:fe:01:32:39:8b:f0:71:fe:71:8e:ad:01:e6:
                    44:ce:2b:80:97:e7:2f:91:b1:26:5d:86:b1:ab:68:
                    84:5a:20:91:db:36:e5:57:0d:d2:b7:bf:9e:46:07:
                    63:ff:d8:be:ea:84:f5:4b:ea:6c:d5:4b:96:aa:30:
                    14:d2:86:b9:6f:d2:03:5b:8a:83:0c:b9:f3:ef:bc:
                    77:64:65:a7:7a:c9:0c:67:ff:17:e4:5d:c6:79:71:
                    9d:32:c9
                Exponent: 65537 (0x10001)
        X509v3 extensions:
            X509v3 Basic Constraints: 
                CA:FALSE
            Netscape Comment: 
                Easy-RSA Generated Certificate
            X509v3 Subject Key Identifier: 
                FE:17:FE:70:46:43:19:D4:77:F7:20:45:43:86:9E:6A:B0:C1:B1:A7
            X509v3 Authority Key Identifier: 
                keyid:12:CD:60:04:D2:A0:80:9E:70:ED:C6:99:B8:7B:2C:C6:52:FD:19:A1
                DirName:/C=US/ST=OH/L=Columbus/O=VikingVPN/OU=MyOrganizationalUnit/CN=VikingVPN CA/name=EasyRSA/emailAddress=me@myhost.mydomain
                serial:CF:35:85:EE:80:BF:2A:3E

            X509v3 Extended Key Usage: 
                TLS Web Client Authentication
            X509v3 Key Usage: 
                Digital Signature
    Signature Algorithm: sha256WithRSAEncryption
         9b:33:31:2c:fb:84:9e:c3:e4:c0:cf:e5:fe:78:f5:0e:6a:f1:
         17:67:42:09:46:c3:55:e0:24:dd:7f:4c:78:e6:af:a9:70:01:
         4a:8c:2e:6e:06:dc:9b:1d:aa:85:3b:4b:68:98:ba:f4:63:43:
         85:23:f6:71:3b:28:07:7d:72:25:cc:a7:d1:ec:d6:2b:b5:f2:
         79:3b:bc:7e:66:be:30:b5:a4:75:50:f5:db:f5:a8:fc:db:df:
         a7:f2:55:07:1f:36:80:1e:e5:5d:f0:a4:f9:1c:f1:38:80:c9:
         d2:c1:bb:e2:2d:1d:e6:40:20:d0:4c:a6:1b:cb:e8:05:09:df:
         b0:bd:c1:39:74:30:b7:1d:bb:4e:a1:24:e1:86:20:3a:9c:f0:
         97:c2:5c:89:7d:41:ae:6e:de:42:a8:a1:ce:f7:87:51:1d:b5:
         48:99:c8:09:10:64:d9:73:77:62:59:12:97:01:76:38:ac:31:
         4e:0c:40:9b:a2:2c:3b:9b:dc:5b:02:7d:42:f2:a8:c0:58:d6:
         2b:a6:80:bb:0e:ac:39:7e:5f:ff:0a:62:53:1d:3d:e3:d7:7a:
         27:7a:e0:3f:55:a5:19:cf:7c:34:5f:53:c7:d1:19:29:1c:1e:
         07:ce:1b:1f:3d:f0:60:fc:77:86:0b:d7:ef:c1:26:9f:59:19:
         95:08:a0:7e:3f:c5:e7:6e:67:80:ba:3c:8a:6c:0c:af:5e:4b:
         97:bf:13:5d:49:7c:e0:ff:cc:5c:26:80:ec:fe:77:d4:08:25:
         03:71:25:d1:4a:aa:9d:4c:a3:ea:f6:7a:2b:58:f6:6b:0f:31:
         74:8d:2d:23:4e:18:3a:bc:9f:04:aa:12:12:a5:e5:4a:8b:73:
         40:fe:78:67:2c:0b:48:08:02:0f:31:2f:64:15:65:4b:4c:1f:
         67:67:f8:f0:be:a9:f7:b3:98:0f:21:c4:9a:75:ed:68:7f:8b:
         bc:d3:b5:12:66:ed:3a:1d:6f:fc:dc:cb:dd:98:b8:f5:bc:07:
         4c:56:f5:70:b0:cd:fd:ac:66:2d:26:a4:94:1f:da:bd:fa:b0:
         4b:38:f7:d7:db:b2:43:da:81:31:69:b3:08:d6:b6:84:fd:e2:
         7e:f5:79:6b:31:9d:97:17:cb:0c:b0:0e:df:24:54:66:4b:2d:
         85:10:cc:20:e4:37:77:81:2b:01:63:4e:16:e1:00:a0:d3:c8:
         b3:04:6d:3d:fc:d0:2e:70:76:1f:06:cb:01:a3:b4:bc:e5:d1:
         0c:1a:bc:31:1a:0e:aa:6c:89:4e:f2:b9:21:72:a4:82:4e:25:
         73:57:48:24:9b:e5:a0:27:b5:e4:10:08:92:98:3b:7d:32:1b:
         d8:47:da:8c:4e:38:36:cf
-----BEGIN CERTIFICATE-----
MIIGrDCCBJSgAwIBAgICJSYwDQYJKoZIhvcNAQELBQAwgawxCzAJBgNVBAYTAlVT
MQswCQYDVQQIEwJPSDERMA8GA1UEBxMIQ29sdW1idXMxEjAQBgNVBAoTCVZpa2lu
Z1ZQTjEdMBsGA1UECxMUTXlPcmdhbml6YXRpb25hbFVuaXQxFTATBgNVBAMTDFZp
a2luZ1ZQTiBDQTEQMA4GA1UEKRMHRWFzeVJTQTEhMB8GCSqGSIb3DQEJARYSbWVA
bXlob3N0Lm15ZG9tYWluMB4XDTE2MTEyMjAyNTIwOVoXDTI2MTEyMDAyNTIwOVow
HjEcMBoGA1UEAxMTQ2xpZW50OTcyQ2VydGQ4N2QxZjCCAiIwDQYJKoZIhvcNAQEB
BQADggIPADCCAgoCggIBAMG/DuGqJ/WVGxFciH5P2XoTDmMdn9EzW2MioSki502D
5rPfTxRUvZOJYbDdqMAtFMKLoCGbKQ75xcqnsWa0pwqB6WdHnWCRi8DYRLezltjr
Jbf+lKyYoes5avluYG5ftSelVgcDqKW5pzCDagzPo7th3BM+IkOB71j+XP70HZHo
g6xP2D2vCnG6yZLSFIzIWUOlNFfGEH12RsurIYHKiagyaDoGh8NmsFPB1Su7H9Lc
5Yw0mXYvxsmpOm++U7yUxcwQ0EVvpnplpW7727nF3DUkpqgJaM+4JojRwFX2XoIw
dIGav9jfiaQ2zHr+iKWyaZwUN0HY2WMr1RhrjYK/GG7Bc/d7RKqwb6qKKF6XzqZ/
Soyb7awFGYQhlkyAeJFXYVWi0tS9aceuVw3Mv5NdwkouQYdhEWSnWNUBtfsqc5Np
gheW0Yu5Yu5EggJKqnzKUWI/7i3HedEp+ZW0EoBBhlcrHj+Sq+/fEs5WkYqjtWMs
C/YaRAgytqTI06K/lOw3p2J/ANEFn07NQkDGM4MYt0m51wBVoQhJr+0qBODcpIr7
T5KrILf+ATI5i/Bx/nGOrQHmRM4rgJfnL5GxJl2GsatohFogkds25VcN0re/nkYH
Y//YvuqE9UvqbNVLlqowFNKGuW/SA1uKgwy58++8d2Rlp3rJDGf/F+RdxnlxnTLJ
AgMBAAGjggFjMIIBXzAJBgNVHRMEAjAAMC0GCWCGSAGG+EIBDQQgFh5FYXN5LVJT
QSBHZW5lcmF0ZWQgQ2VydGlmaWNhdGUwHQYDVR0OBBYEFP4X/nBGQxnUd/cgRUOG
nmqwwbGnMIHhBgNVHSMEgdkwgdaAFBLNYATSoICecO3Gmbh7LMZS/RmhoYGypIGv
MIGsMQswCQYDVQQGEwJVUzELMAkGA1UECBMCT0gxETAPBgNVBAcTCENvbHVtYnVz
MRIwEAYDVQQKEwlWaWtpbmdWUE4xHTAbBgNVBAsTFE15T3JnYW5pemF0aW9uYWxV
bml0MRUwEwYDVQQDEwxWaWtpbmdWUE4gQ0ExEDAOBgNVBCkTB0Vhc3lSU0ExITAf
BgkqhkiG9w0BCQEWEm1lQG15aG9zdC5teWRvbWFpboIJAM81he6Avyo+MBMGA1Ud
JQQMMAoGCCsGAQUFBwMCMAsGA1UdDwQEAwIHgDANBgkqhkiG9w0BAQsFAAOCAgEA
mzMxLPuEnsPkwM/l/nj1DmrxF2dCCUbDVeAk3X9MeOavqXABSowubgbcmx2qhTtL
aJi69GNDhSP2cTsoB31yJcyn0ezWK7XyeTu8fma+MLWkdVD12/Wo/Nvfp/JVBx82
gB7lXfCk+RzxOIDJ0sG74i0d5kAg0EymG8voBQnfsL3BOXQwtx27TqEk4YYgOpzw
l8JciX1Brm7eQqihzveHUR21SJnICRBk2XN3YlkSlwF2OKwxTgxAm6IsO5vcWwJ9
QvKowFjWK6aAuw6sOX5f/wpiUx0949d6J3rgP1WlGc98NF9Tx9EZKRweB84bHz3w
YPx3hgvX78Emn1kZlQigfj/F525ngLo8imwMr15Ll78TXUl84P/MXCaA7P531Agl
A3El0UqqnUyj6vZ6K1j2aw8xdI0tI04YOryfBKoSEqXlSotzQP54ZywLSAgCDzEv
ZBVlS0wfZ2f48L6p97OYDyHEmnXtaH+LvNO1EmbtOh1v/NzL3Zi49bwHTFb1cLDN
/axmLSaklB/avfqwSzj319uyQ9qBMWmzCNa2hP3ifvV5azGdlxfLDLAO3yRUZkst
hRDMIOQ3d4ErAWNOFuEAoNPIswRtPfzQLnB2HwbLAaO0vOXRDBq8MRoOqmyJTvK5
IXKkgk4lc1dIJJvloCe15BAIkpg7fTIb2EfajE44Ns8=
-----END CERTIFICATE-----
