Certificate:
    Data:
        Version: 3 (0x2)
        Serial Number: 704 (0x2c0)
    Signature Algorithm: md5WithRSAEncryption
        Issuer: C=US, ST=OH, L=Columbus, O=VikingVPN, OU=MyOrganizationalUnit, CN=VikingVPN CA/name=EasyRSA/emailAddress=me@myhost.mydomain
        Validity
            Not Before: Jan  5 23:36:53 2014 GMT
            Not After : Jan  3 23:36:53 2024 GMT
        Subject: CN=Client277Cert345907
        Subject Public Key Info:
            Public Key Algorithm: rsaEncryption
                Public-Key: (4096 bit)
                Modulus:
                    00:ee:a6:be:b1:0f:fa:75:d1:9f:cf:d2:96:a4:c1:
                    42:22:e2:ad:da:e8:3b:6f:fa:6d:5c:ec:37:13:8c:
                    9e:d7:b1:d7:50:26:62:b0:74:c5:de:c2:72:86:63:
                    aa:db:57:65:fd:e6:27:af:6d:2a:16:4d:e8:f5:1f:
                    cd:5a:43:ce:b5:12:fa:66:66:2e:b5:9b:83:fd:01:
                    54:2d:c8:52:01:25:c9:9c:fd:8e:ba:39:b7:a7:3b:
                    8e:32:80:de:97:ef:45:ca:85:da:59:c4:7b:cf:e7:
                    ca:35:50:cb:af:b7:17:32:8d:3c:bf:f5:61:1e:84:
                    ad:f5:98:54:1b:41:02:72:7c:4e:b3:cf:c4:6f:0e:
                    f3:d6:7f:e0:d0:b4:ae:41:3d:5b:a7:22:a5:f4:c8:
                    8f:f2:79:3b:5a:a0:ec:f4:29:e9:79:65:fb:c8:67:
                    62:1b:0d:0f:62:95:59:3e:06:40:59:22:82:be:5d:
                    15:14:c2:a9:10:fd:ff:29:19:d6:7b:f8:bb:8d:89:
                    a8:43:dc:8b:d2:e5:1c:56:11:f0:55:1f:9c:96:00:
                    da:fb:fc:60:e3:07:09:05:ce:3c:d8:0c:3a:6e:15:
                    4e:85:94:69:dd:40:4a:0a:20:f1:f4:07:b7:f5:26:
                    b0:bd:31:4e:4a:b0:87:53:76:13:ec:a0:99:66:e5:
                    f2:f7:cb:e1:a3:95:ac:87:88:f1:0f:3d:bc:cc:c2:
                    3d:12:3d:d1:e8:1e:2d:54:9c:65:76:52:7e:59:ea:
                    48:95:df:73:a6:bb:5f:05:2e:6a:10:e0:00:24:0d:
                    4e:56:4b:5c:eb:c2:5b:54:7b:13:9b:90:6e:1a:15:
                    02:e9:ac:37:50:2a:1a:e0:d1:a1:e5:42:d9:6a:04:
                    0f:99:ab:5c:ee:09:e3:db:91:93:f6:87:7f:46:67:
                    08:fc:4e:8f:fe:d8:c7:b7:55:5a:f5:d0:dd:33:cd:
                    d2:15:1a:09:9f:05:8e:77:53:d9:5b:ac:8b:96:69:
                    f4:95:c4:68:81:52:05:a5:13:29:6b:c8:b2:b9:4b:
                    ba:32:dd:dd:7f:e5:4d:98:40:41:8c:06:a8:53:d4:
                    25:f7:1b:3c:92:72:1d:17:78:6b:78:fa:90:f4:2e:
                    c2:32:d6:11:54:db:b0:27:2c:6d:3f:c5:c6:23:e7:
                    cd:3c:35:7b:07:30:09:0b:8c:26:be:11:2b:72:62:
                    b5:7d:65:a8:39:3c:b8:56:9c:60:86:88:23:cf:7c:
                    d5:77:c8:7a:2a:ba:2a:0e:44:7a:32:9e:39:9d:65:
                    7f:68:d5:8a:8e:ce:10:5c:5d:49:48:c0:60:10:e9:
                    85:4e:d2:4b:e6:d7:88:d3:46:12:76:86:92:e2:17:
                    eb:45:d5
                Exponent: 65537 (0x10001)
        X509v3 extensions:
            X509v3 Basic Constraints: 
                CA:FALSE
            Netscape Comment: 
                Easy-RSA Generated Certificate
            X509v3 Subject Key Identifier: 
                84:D1:50:76:33:F1:89:8F:AF:52:FD:C1:B4:D9:D7:9B:D2:6D:BC:19
            X509v3 Authority Key Identifier: 
                keyid:12:CD:60:04:D2:A0:80:9E:70:ED:C6:99:B8:7B:2C:C6:52:FD:19:A1
                DirName:/C=US/ST=OH/L=Columbus/O=VikingVPN/OU=MyOrganizationalUnit/CN=VikingVPN CA/name=EasyRSA/emailAddress=me@myhost.mydomain
                serial:CF:35:85:EE:80:BF:2A:3E

            X509v3 Extended Key Usage: 
                TLS Web Client Authentication
            X509v3 Key Usage: 
                Digital Signature
    Signature Algorithm: md5WithRSAEncryption
         1d:9e:87:03:2d:a9:ec:98:cf:85:3e:6f:c9:45:31:83:d0:af:
         e6:b4:9e:a8:34:18:e1:3b:59:96:c3:5e:db:1d:74:a7:e2:2b:
         d2:2a:b7:e3:36:f0:6d:50:ef:d5:89:73:ed:35:7f:56:7e:ad:
         3d:7c:73:ac:c0:18:ea:11:ae:8f:3e:57:5c:13:de:f7:9f:a9:
         c1:82:d5:d4:e3:54:97:22:d6:ab:65:47:5c:24:d6:8f:a9:eb:
         a7:aa:7f:1b:cc:15:2a:5f:3d:58:14:f2:d6:7b:70:c4:8e:dc:
         d3:01:e5:6d:1f:59:8a:75:e9:0e:4d:cc:24:64:8b:91:3d:ab:
         90:37:2b:8d:2b:c8:da:92:5f:0f:8f:8e:52:2e:a7:46:75:63:
         ec:1b:dd:b7:61:3f:ef:64:3a:80:dd:51:84:39:af:d8:b4:c5:
         a0:ce:f8:1c:11:8d:a8:13:bc:46:3c:ec:8c:48:23:4f:23:2a:
         d2:81:7f:71:b1:de:7d:06:e8:2e:47:ff:56:08:06:4f:74:bf:
         b9:14:33:2b:67:00:58:bf:19:b3:6c:99:cf:9f:f1:6a:d2:1d:
         ac:fe:9d:3b:60:70:a8:78:87:d3:c8:fd:4c:8f:f8:80:18:28:
         2c:0c:d9:c4:85:92:92:f8:5d:b7:da:8a:f1:fe:e2:7c:6d:9e:
         02:77:c3:ef:1b:65:86:ca:5a:2f:46:86:f7:23:a3:0b:41:62:
         be:79:e6:8b:63:1b:37:90:03:50:36:4d:72:6d:5d:ac:c6:5c:
         21:9f:00:cf:93:44:b3:74:be:ea:0c:cf:ac:12:36:a7:63:62:
         90:98:b2:49:e6:8e:79:7f:81:09:dd:f8:9f:80:f4:7f:15:26:
         9c:5f:d4:1d:19:5a:5a:03:99:e6:61:3f:c6:8c:a8:67:ca:9a:
         a4:60:2f:3e:37:fd:7a:8b:fd:5c:bf:54:32:56:ef:57:a8:3f:
         d9:b7:c0:81:0f:ad:ed:30:91:be:15:8f:49:98:0c:cf:51:64:
         7f:5e:45:c2:ae:6f:ac:b6:14:47:e1:d0:38:aa:50:bb:99:40:
         86:ab:3f:a0:be:bc:39:34:da:39:b9:26:93:4d:c1:60:7a:5e:
         cd:56:0e:3d:86:a7:1b:09:52:f2:35:48:2c:fc:40:8a:99:be:
         6b:d7:18:56:62:8d:72:f1:08:a3:ee:17:3f:9e:32:76:ac:4d:
         41:1b:12:ab:dc:f5:0a:9c:2d:49:ff:0b:d4:b4:03:27:e7:87:
         b2:f5:5c:77:fc:a8:4c:7a:2b:08:95:9f:82:17:0b:03:20:2c:
         ca:78:da:86:4a:0b:67:d9:35:cd:21:c9:5e:c5:4e:99:11:fa:
         4e:51:2b:d5:8a:7d:71:e0
-----BEGIN CERTIFICATE-----
MIIGrDCCBJSgAwIBAgICAsAwDQYJKoZIhvcNAQEEBQAwgawxCzAJBgNVBAYTAlVT
MQswCQYDVQQIEwJPSDERMA8GA1UEBxMIQ29sdW1idXMxEjAQBgNVBAoTCVZpa2lu
Z1ZQTjEdMBsGA1UECxMUTXlPcmdhbml6YXRpb25hbFVuaXQxFTATBgNVBAMTDFZp
a2luZ1ZQTiBDQTEQMA4GA1UEKRMHRWFzeVJTQTEhMB8GCSqGSIb3DQEJARYSbWVA
bXlob3N0Lm15ZG9tYWluMB4XDTE0MDEwNTIzMzY1M1oXDTI0MDEwMzIzMzY1M1ow
HjEcMBoGA1UEAxMTQ2xpZW50Mjc3Q2VydDM0NTkwNzCCAiIwDQYJKoZIhvcNAQEB
BQADggIPADCCAgoCggIBAO6mvrEP+nXRn8/SlqTBQiLirdroO2/6bVzsNxOMntex
11AmYrB0xd7CcoZjqttXZf3mJ69tKhZN6PUfzVpDzrUS+mZmLrWbg/0BVC3IUgEl
yZz9jro5t6c7jjKA3pfvRcqF2lnEe8/nyjVQy6+3FzKNPL/1YR6ErfWYVBtBAnJ8
TrPPxG8O89Z/4NC0rkE9W6cipfTIj/J5O1qg7PQp6Xll+8hnYhsND2KVWT4GQFki
gr5dFRTCqRD9/ykZ1nv4u42JqEPci9LlHFYR8FUfnJYA2vv8YOMHCQXOPNgMOm4V
ToWUad1ASgog8fQHt/UmsL0xTkqwh1N2E+ygmWbl8vfL4aOVrIeI8Q89vMzCPRI9
0egeLVScZXZSflnqSJXfc6a7XwUuahDgACQNTlZLXOvCW1R7E5uQbhoVAumsN1Aq
GuDRoeVC2WoED5mrXO4J49uRk/aHf0ZnCPxOj/7Yx7dVWvXQ3TPN0hUaCZ8FjndT
2Vusi5Zp9JXEaIFSBaUTKWvIsrlLujLd3X/lTZhAQYwGqFPUJfcbPJJyHRd4a3j6
kPQuwjLWEVTbsCcsbT/FxiPnzTw1ewcwCQuMJr4RK3JitX1lqDk8uFacYIaII898
1XfIeiq6Kg5EejKeOZ1lf2jVio7OEFxdSUjAYBDphU7SS+bXiNNGEnaGkuIX60XV
AgMBAAGjggFjMIIBXzAJBgNVHRMEAjAAMC0GCWCGSAGG+EIBDQQgFh5FYXN5LVJT
QSBHZW5lcmF0ZWQgQ2VydGlmaWNhdGUwHQYDVR0OBBYEFITRUHYz8YmPr1L9wbTZ
15vSbbwZMIHhBgNVHSMEgdkwgdaAFBLNYATSoICecO3Gmbh7LMZS/RmhoYGypIGv
MIGsMQswCQYDVQQGEwJVUzELMAkGA1UECBMCT0gxETAPBgNVBAcTCENvbHVtYnVz
MRIwEAYDVQQKEwlWaWtpbmdWUE4xHTAbBgNVBAsTFE15T3JnYW5pemF0aW9uYWxV
bml0MRUwEwYDVQQDEwxWaWtpbmdWUE4gQ0ExEDAOBgNVBCkTB0Vhc3lSU0ExITAf
BgkqhkiG9w0BCQEWEm1lQG15aG9zdC5teWRvbWFpboIJAM81he6Avyo+MBMGA1Ud
JQQMMAoGCCsGAQUFBwMCMAsGA1UdDwQEAwIHgDANBgkqhkiG9w0BAQQFAAOCAgEA
HZ6HAy2p7JjPhT5vyUUxg9Cv5rSeqDQY4TtZlsNe2x10p+Ir0iq34zbwbVDv1Ylz
7TV/Vn6tPXxzrMAY6hGujz5XXBPe95+pwYLV1ONUlyLWq2VHXCTWj6nrp6p/G8wV
Kl89WBTy1ntwxI7c0wHlbR9ZinXpDk3MJGSLkT2rkDcrjSvI2pJfD4+OUi6nRnVj
7Bvdt2E/72Q6gN1RhDmv2LTFoM74HBGNqBO8RjzsjEgjTyMq0oF/cbHefQboLkf/
VggGT3S/uRQzK2cAWL8Zs2yZz5/xatIdrP6dO2BwqHiH08j9TI/4gBgoLAzZxIWS
kvhdt9qK8f7ifG2eAnfD7xtlhspaL0aG9yOjC0Fivnnmi2MbN5ADUDZNcm1drMZc
IZ8Az5NEs3S+6gzPrBI2p2NikJiySeaOeX+BCd34n4D0fxUmnF/UHRlaWgOZ5mE/
xoyoZ8qapGAvPjf9eov9XL9UMlbvV6g/2bfAgQ+t7TCRvhWPSZgMz1Fkf15Fwq5v
rLYUR+HQOKpQu5lAhqs/oL68OTTaObkmk03BYHpezVYOPYanGwlS8jVILPxAipm+
a9cYVmKNcvEIo+4XP54ydqxNQRsSq9z1CpwtSf8L1LQDJ+eHsvVcd/yoTHorCJWf
ghcLAyAsynjahkoLZ9k1zSHJXsVOmRH6TlEr1Yp9ceA=
-----END CERTIFICATE-----
