Certificate:
    Data:
        Version: 3 (0x2)
        Serial Number: 6611 (0x19d3)
    Signature Algorithm: md5WithRSAEncryption
        Issuer: C=US, ST=OH, L=Columbus, O=VikingVPN, OU=MyOrganizationalUnit, CN=VikingVPN CA/name=EasyRSA/emailAddress=me@myhost.mydomain
        Validity
            Not Before: Nov  2 15:08:19 2015 GMT
            Not After : Oct 30 15:08:19 2025 GMT
        Subject: CN=Client1152Cert055c04
        Subject Public Key Info:
            Public Key Algorithm: rsaEncryption
                Public-Key: (4096 bit)
                Modulus:
                    00:ae:52:89:12:a1:30:b7:a1:3b:13:08:a1:b0:7d:
                    ab:09:93:c7:63:42:7c:1d:bd:ef:d1:4d:71:fe:9c:
                    82:b8:f7:4b:65:0b:2b:21:a9:57:6c:21:42:75:d3:
                    fc:81:df:75:08:97:10:15:c6:62:d8:84:81:03:c2:
                    49:fe:3f:80:f2:3e:3d:c2:4d:a0:05:87:ee:b7:51:
                    d2:e2:d2:7b:82:96:3f:eb:a8:59:5f:05:e7:7a:f5:
                    76:f1:34:89:21:90:8c:e9:55:9d:51:76:8d:f9:68:
                    b2:cd:41:17:5c:96:99:a2:e7:9a:06:5a:c0:ce:4f:
                    be:08:f6:a2:b1:79:25:dd:f3:a3:72:43:f5:ad:02:
                    56:06:d3:08:85:a8:df:77:49:25:86:b2:de:32:d9:
                    7f:24:d0:2d:57:94:6c:ff:14:57:6d:f1:88:9d:57:
                    90:2f:59:b3:50:b8:ba:7f:ac:39:08:fa:31:66:74:
                    01:87:b2:96:02:a3:e8:b1:04:0c:e5:eb:7f:7f:be:
                    39:a7:15:c2:60:d1:e6:3a:6d:c8:31:ae:5a:08:67:
                    47:94:6f:90:5b:6a:8b:50:74:a3:53:84:5c:65:4b:
                    5a:05:1e:24:be:c4:fb:fe:a8:19:b2:97:73:85:c9:
                    a5:34:c3:15:23:3e:1f:f2:ac:6a:b1:48:a1:b9:80:
                    dd:5f:a0:73:02:3f:8c:6a:15:ac:f6:b2:f8:97:b7:
                    46:20:64:c4:10:81:8f:95:b9:6a:cb:c5:f1:c0:54:
                    e2:24:cc:2c:19:ad:76:11:ad:a8:8e:dd:22:7f:77:
                    a3:e7:29:8a:6c:6b:88:30:a7:78:9e:25:e5:d4:d3:
                    7f:b8:ca:1d:07:28:8b:0f:7b:c9:ba:f9:20:45:04:
                    8c:fc:e2:a7:84:52:ea:91:11:52:00:26:bf:21:00:
                    8b:28:6a:20:cb:61:6e:f7:7f:ed:32:d6:24:4d:d5:
                    57:c5:9b:ec:3f:ff:4d:9b:d1:ad:c4:2a:dd:83:9e:
                    82:55:c8:f7:a2:d6:67:f7:60:fa:94:ef:74:d2:f9:
                    41:c7:62:39:0d:90:41:72:7b:fc:f6:a1:ff:c5:bc:
                    ce:35:18:6e:66:f1:c6:69:f6:c3:84:c5:ba:b0:65:
                    f3:75:d9:82:83:43:85:d0:6e:8b:c9:96:bf:06:c3:
                    64:6a:8e:dd:44:8e:17:20:4d:73:13:c6:46:84:4d:
                    54:8f:23:ec:0e:b2:7c:8c:6c:ba:e2:75:76:65:a6:
                    8a:91:1b:de:03:c4:07:e4:c8:4a:f1:ed:53:68:e7:
                    51:f5:d1:b5:7d:03:52:5d:e2:d1:26:49:69:9c:2a:
                    16:7b:f2:b8:68:72:85:2c:07:ef:c5:c5:ba:81:ac:
                    61:58:cd
                Exponent: 65537 (0x10001)
        X509v3 extensions:
            X509v3 Basic Constraints: 
                CA:FALSE
            Netscape Comment: 
                Easy-RSA Generated Certificate
            X509v3 Subject Key Identifier: 
                24:A0:91:91:C2:DC:D7:A3:67:0C:39:72:B9:90:31:57:B1:87:82:71
            X509v3 Authority Key Identifier: 
                keyid:12:CD:60:04:D2:A0:80:9E:70:ED:C6:99:B8:7B:2C:C6:52:FD:19:A1
                DirName:/C=US/ST=OH/L=Columbus/O=VikingVPN/OU=MyOrganizationalUnit/CN=VikingVPN CA/name=EasyRSA/emailAddress=me@myhost.mydomain
                serial:CF:35:85:EE:80:BF:2A:3E

            X509v3 Extended Key Usage: 
                TLS Web Client Authentication
            X509v3 Key Usage: 
                Digital Signature
    Signature Algorithm: md5WithRSAEncryption
         a5:0a:e6:e5:f9:fb:3e:14:42:68:f0:12:5d:7b:c7:a6:bf:c9:
         bc:c5:ae:e8:a0:8e:31:41:4b:6e:4b:a7:50:94:14:d6:e5:26:
         e6:2b:80:1f:33:bf:f9:a9:76:4a:8f:82:56:11:89:3e:41:e9:
         90:76:79:40:8b:b5:cd:00:9a:12:2f:d8:5e:b8:4e:f7:6b:82:
         61:d0:18:77:9c:72:ca:9b:93:dd:58:3e:ee:79:77:ae:84:5e:
         56:e2:05:1c:17:5c:0e:1e:2f:3b:c8:f7:d5:7e:25:8e:ae:2b:
         25:fd:05:85:09:83:13:e1:5c:d5:d2:21:dc:05:94:b3:03:8e:
         64:75:a5:c0:09:bd:5f:63:3e:34:78:bf:cb:33:0c:08:60:05:
         55:be:78:f4:8f:ac:a4:8e:c3:f7:d8:ca:63:44:3e:8b:85:28:
         a5:37:d5:6a:50:b4:96:33:13:0c:b4:b2:fe:0a:f3:06:61:7a:
         6e:b3:fb:a2:df:45:9f:87:f0:8a:7a:0b:42:7a:b9:8b:8a:55:
         2e:71:03:d4:10:01:55:ac:bd:e7:a9:e0:8b:4e:b5:44:96:f6:
         1f:61:52:91:9c:b5:11:62:7d:24:c7:c7:de:fa:9f:55:e7:d6:
         36:77:93:b6:76:39:78:4f:9b:5b:d1:68:95:8b:f5:78:ca:ce:
         25:81:86:df:c2:60:10:b0:16:53:ec:97:fd:2b:85:30:18:ce:
         60:17:ac:01:51:7b:b8:f9:9e:62:f7:a4:91:54:a7:b2:b4:6d:
         00:4a:cc:87:e4:bf:ad:ae:ed:55:88:5a:ac:5c:34:34:94:18:
         d2:9a:35:b6:34:e4:2d:9d:37:b8:18:0a:1e:e2:3e:6b:6a:eb:
         7b:78:51:16:16:53:86:29:80:ff:45:63:84:b1:61:ae:f5:e3:
         e8:9b:bb:74:6b:37:39:4c:52:82:f1:45:b8:e3:95:09:48:b7:
         e4:39:b4:51:7c:9e:e4:40:24:82:06:7e:83:bf:48:94:40:8e:
         01:5a:b3:f9:3a:a6:e1:cb:36:ef:eb:27:c0:08:5e:a8:f3:0a:
         b4:3c:ec:d7:2b:da:fa:eb:90:82:95:1e:78:83:d6:4d:68:98:
         1e:b2:66:43:67:d0:8c:e7:d8:99:4f:3b:b7:64:bf:f6:72:35:
         a2:37:fe:e9:29:e5:77:9e:50:3d:f5:10:c8:d3:2b:26:18:3c:
         16:10:da:67:40:25:d3:09:b9:08:87:16:a4:56:3a:4a:21:0a:
         cd:1b:74:82:91:d1:88:34:1c:ad:cf:b7:60:d2:8a:ca:5a:ca:
         8f:3c:78:81:bd:1b:68:fc:ea:08:65:d3:93:65:02:6d:69:f1:
         26:1b:09:49:77:87:fe:ca
-----BEGIN CERTIFICATE-----
MIIGrTCCBJWgAwIBAgICGdMwDQYJKoZIhvcNAQEEBQAwgawxCzAJBgNVBAYTAlVT
MQswCQYDVQQIEwJPSDERMA8GA1UEBxMIQ29sdW1idXMxEjAQBgNVBAoTCVZpa2lu
Z1ZQTjEdMBsGA1UECxMUTXlPcmdhbml6YXRpb25hbFVuaXQxFTATBgNVBAMTDFZp
a2luZ1ZQTiBDQTEQMA4GA1UEKRMHRWFzeVJTQTEhMB8GCSqGSIb3DQEJARYSbWVA
bXlob3N0Lm15ZG9tYWluMB4XDTE1MTEwMjE1MDgxOVoXDTI1MTAzMDE1MDgxOVow
HzEdMBsGA1UEAxMUQ2xpZW50MTE1MkNlcnQwNTVjMDQwggIiMA0GCSqGSIb3DQEB
AQUAA4ICDwAwggIKAoICAQCuUokSoTC3oTsTCKGwfasJk8djQnwdve/RTXH+nIK4
90tlCyshqVdsIUJ10/yB33UIlxAVxmLYhIEDwkn+P4DyPj3CTaAFh+63UdLi0nuC
lj/rqFlfBed69XbxNIkhkIzpVZ1Rdo35aLLNQRdclpmi55oGWsDOT74I9qKxeSXd
86NyQ/WtAlYG0wiFqN93SSWGst4y2X8k0C1XlGz/FFdt8YidV5AvWbNQuLp/rDkI
+jFmdAGHspYCo+ixBAzl639/vjmnFcJg0eY6bcgxrloIZ0eUb5BbaotQdKNThFxl
S1oFHiS+xPv+qBmyl3OFyaU0wxUjPh/yrGqxSKG5gN1foHMCP4xqFaz2sviXt0Yg
ZMQQgY+VuWrLxfHAVOIkzCwZrXYRraiO3SJ/d6PnKYpsa4gwp3ieJeXU03+4yh0H
KIsPe8m6+SBFBIz84qeEUuqREVIAJr8hAIsoaiDLYW73f+0y1iRN1VfFm+w//02b
0a3EKt2DnoJVyPei1mf3YPqU73TS+UHHYjkNkEFye/z2of/FvM41GG5m8cZp9sOE
xbqwZfN12YKDQ4XQbovJlr8Gw2Rqjt1EjhcgTXMTxkaETVSPI+wOsnyMbLridXZl
poqRG94DxAfkyErx7VNo51H10bV9A1Jd4tEmSWmcKhZ78rhocoUsB+/FxbqBrGFY
zQIDAQABo4IBYzCCAV8wCQYDVR0TBAIwADAtBglghkgBhvhCAQ0EIBYeRWFzeS1S
U0EgR2VuZXJhdGVkIENlcnRpZmljYXRlMB0GA1UdDgQWBBQkoJGRwtzXo2cMOXK5
kDFXsYeCcTCB4QYDVR0jBIHZMIHWgBQSzWAE0qCAnnDtxpm4eyzGUv0ZoaGBsqSB
rzCBrDELMAkGA1UEBhMCVVMxCzAJBgNVBAgTAk9IMREwDwYDVQQHEwhDb2x1bWJ1
czESMBAGA1UEChMJVmlraW5nVlBOMR0wGwYDVQQLExRNeU9yZ2FuaXphdGlvbmFs
VW5pdDEVMBMGA1UEAxMMVmlraW5nVlBOIENBMRAwDgYDVQQpEwdFYXN5UlNBMSEw
HwYJKoZIhvcNAQkBFhJtZUBteWhvc3QubXlkb21haW6CCQDPNYXugL8qPjATBgNV
HSUEDDAKBggrBgEFBQcDAjALBgNVHQ8EBAMCB4AwDQYJKoZIhvcNAQEEBQADggIB
AKUK5uX5+z4UQmjwEl17x6a/ybzFruigjjFBS25Lp1CUFNblJuYrgB8zv/mpdkqP
glYRiT5B6ZB2eUCLtc0AmhIv2F64TvdrgmHQGHeccsqbk91YPu55d66EXlbiBRwX
XA4eLzvI99V+JY6uKyX9BYUJgxPhXNXSIdwFlLMDjmR1pcAJvV9jPjR4v8szDAhg
BVW+ePSPrKSOw/fYymNEPouFKKU31WpQtJYzEwy0sv4K8wZhem6z+6LfRZ+H8Ip6
C0J6uYuKVS5xA9QQAVWsveep4ItOtUSW9h9hUpGctRFifSTHx976n1Xn1jZ3k7Z2
OXhPm1vRaJWL9XjKziWBht/CYBCwFlPsl/0rhTAYzmAXrAFRe7j5nmL3pJFUp7K0
bQBKzIfkv62u7VWIWqxcNDSUGNKaNbY05C2dN7gYCh7iPmtq63t4URYWU4YpgP9F
Y4SxYa714+ibu3RrNzlMUoLxRbjjlQlIt+Q5tFF8nuRAJIIGfoO/SJRAjgFas/k6
puHLNu/rJ8AIXqjzCrQ87Ncr2vrrkIKVHniD1k1omB6yZkNn0Izn2JlPO7dkv/Zy
NaI3/ukp5XeeUD31EMjTKyYYPBYQ2mdAJdMJuQiHFqRWOkohCs0bdIKR0Yg0HK3P
t2DSispayo88eIG9G2j86ghl05NlAm1p8SYbCUl3h/7K
-----END CERTIFICATE-----
