Certificate:
    Data:
        Version: 3 (0x2)
        Serial Number: 4552 (0x11c8)
    Signature Algorithm: md5WithRSAEncryption
        Issuer: C=US, ST=OH, L=Columbus, O=VikingVPN, OU=MyOrganizationalUnit, CN=VikingVPN CA/name=EasyRSA/emailAddress=me@myhost.mydomain
        Validity
            Not Before: Feb 24 05:18:53 2015 GMT
            Not After : Feb 21 05:18:53 2025 GMT
        Subject: CN=Client1476Cert2eb187
        Subject Public Key Info:
            Public Key Algorithm: rsaEncryption
                Public-Key: (4096 bit)
                Modulus:
                    00:b5:26:d1:3a:37:b1:d9:ab:51:02:3d:c7:c5:8c:
                    92:28:56:89:5d:aa:3b:ef:ae:2b:65:ab:68:21:1f:
                    5c:7b:bd:50:02:bc:aa:77:c5:57:83:0f:13:3f:71:
                    4a:8b:95:5a:eb:f5:d4:80:fc:13:71:53:3f:95:0d:
                    50:de:37:83:43:0e:b8:f1:bc:69:78:4f:e4:93:94:
                    1f:24:0d:c3:08:56:b8:e0:8a:4f:81:aa:43:58:d4:
                    92:30:db:b9:50:25:55:77:3d:48:33:01:72:07:8c:
                    6d:a2:c4:fe:f3:74:ff:95:00:b7:66:4c:56:ce:86:
                    d3:10:11:61:be:f4:17:23:d5:14:ae:3c:6b:10:5c:
                    c6:0f:2b:7a:3e:5f:99:bf:c1:c6:9f:16:58:06:0f:
                    5c:e5:b0:77:10:2b:bf:09:a4:f4:e8:c3:9c:74:bf:
                    94:af:a2:35:d2:16:c0:9b:20:ef:16:35:32:5a:17:
                    b9:39:1a:fe:85:0a:73:83:16:35:c3:2c:9c:d9:f7:
                    c7:9b:7c:9c:b6:bd:b7:cf:a7:75:59:df:d1:7f:d9:
                    f6:b1:fc:c0:69:29:39:8e:11:b5:19:2f:af:93:46:
                    71:4c:06:fc:3b:52:38:43:8a:96:1b:9b:c0:1a:31:
                    e8:1f:82:8c:b0:6b:96:e3:0a:a0:e0:01:a3:ef:65:
                    36:1f:48:cf:25:0e:0b:a1:51:8d:c9:73:99:d0:84:
                    08:ac:5d:79:16:96:fa:6a:7d:f8:f9:40:19:ea:69:
                    b1:c3:ef:cb:11:bd:47:f9:24:6e:31:61:f5:18:ef:
                    62:8c:a2:2a:78:ac:bb:ab:65:72:c6:ba:21:14:c8:
                    9b:7b:e1:c9:81:e4:93:51:47:e3:18:e5:b0:76:59:
                    f3:42:c7:92:59:68:6c:fa:ab:ec:f9:26:29:d0:35:
                    ee:ab:6d:01:8a:8c:6d:a6:48:59:2d:ee:03:15:55:
                    6b:b7:cc:bb:40:a2:c1:4e:cb:36:63:01:06:c8:bd:
                    71:a1:c5:38:86:35:11:c1:d7:ed:61:e5:09:43:0b:
                    a4:8c:bd:99:e6:be:58:0f:90:9c:3d:5f:e9:db:aa:
                    5f:62:6c:7b:c5:12:f2:da:59:dc:88:51:91:e8:9a:
                    7b:31:2a:4b:31:57:2e:7b:7e:04:b1:1b:1d:51:11:
                    9a:30:e2:35:11:f8:7f:d0:82:6b:07:13:6d:ae:51:
                    9f:c2:6e:e6:d4:31:41:50:41:06:4d:a7:30:be:14:
                    72:1b:42:c1:ff:b8:f7:8a:7b:48:4a:23:6c:55:57:
                    09:ac:af:8e:d0:94:51:d3:de:64:c9:07:b8:96:be:
                    ba:d4:3c:1c:44:84:58:37:84:5a:6f:13:42:f1:8f:
                    a7:28:01
                Exponent: 65537 (0x10001)
        X509v3 extensions:
            X509v3 Basic Constraints: 
                CA:FALSE
            Netscape Comment: 
                Easy-RSA Generated Certificate
            X509v3 Subject Key Identifier: 
                56:2F:16:E7:9C:1B:FC:99:74:B3:B5:48:A9:81:FE:F5:C9:47:87:4F
            X509v3 Authority Key Identifier: 
                keyid:12:CD:60:04:D2:A0:80:9E:70:ED:C6:99:B8:7B:2C:C6:52:FD:19:A1
                DirName:/C=US/ST=OH/L=Columbus/O=VikingVPN/OU=MyOrganizationalUnit/CN=VikingVPN CA/name=EasyRSA/emailAddress=me@myhost.mydomain
                serial:CF:35:85:EE:80:BF:2A:3E

            X509v3 Extended Key Usage: 
                TLS Web Client Authentication
            X509v3 Key Usage: 
                Digital Signature
    Signature Algorithm: md5WithRSAEncryption
         58:0d:96:15:14:6b:aa:fb:00:89:fe:72:ca:44:fe:63:78:58:
         68:aa:09:9a:d9:af:a4:13:32:53:52:92:2b:3b:a1:2d:db:58:
         c6:d5:f1:2f:d4:d7:11:f9:ec:62:c2:a1:3e:18:8c:9a:82:ab:
         48:0e:2e:eb:50:e7:36:a0:42:6a:34:4f:cb:32:e9:b7:49:e0:
         8e:ab:d5:c3:f2:d0:9a:5b:18:00:50:5b:10:84:f3:06:43:c4:
         dc:1c:c9:b6:35:2a:b2:6f:8a:a7:e0:2a:43:d4:98:36:cd:43:
         d5:41:a6:56:31:2e:a8:58:cf:99:fe:8f:c1:02:2d:b8:e2:2f:
         04:c9:6f:f8:c8:da:2b:af:8e:0c:04:28:3b:67:16:60:9a:02:
         be:8a:cb:67:aa:88:4b:07:93:cb:77:f4:c3:6c:3a:70:73:f5:
         29:fd:30:de:f0:e5:f8:b5:15:5d:58:6e:1c:8f:1b:80:5c:c3:
         7e:bd:b3:0c:d0:6b:87:92:99:72:53:64:bc:4d:d8:ba:f3:15:
         13:ce:59:1a:74:45:49:39:b1:83:6c:4e:4f:38:21:35:d6:51:
         1b:7f:de:09:64:c2:c2:e8:87:a5:5a:86:17:c8:b3:43:4c:27:
         e6:cb:44:e4:4f:f2:61:1a:36:46:9b:a0:e1:d3:98:fe:09:5f:
         c2:3f:70:89:ba:d0:25:e7:d5:b8:e7:91:fe:cd:ad:3b:23:3d:
         16:6e:8f:f1:56:3d:57:fd:58:e3:fd:d8:f6:81:a4:8a:51:91:
         54:ba:22:10:5a:3a:b8:b9:e3:8c:67:ef:0f:f9:de:9d:30:af:
         0f:cc:5e:2a:8b:9a:e4:28:d8:e9:ad:68:e1:21:91:73:52:93:
         27:c1:97:87:10:74:a7:d6:2f:c2:b5:31:3d:fd:5e:f3:6b:a5:
         6f:82:6f:09:c4:2f:81:e6:44:39:cc:8a:aa:5c:f5:62:84:af:
         bf:b8:0e:c3:68:30:d0:de:04:0d:0d:58:02:41:af:ae:ea:54:
         c1:a0:76:4f:a4:9b:a7:9c:cb:1f:a8:cf:57:0d:ae:c4:75:fd:
         43:2e:c0:8b:0a:b5:95:98:b5:cc:73:1b:c4:65:61:1a:63:c9:
         40:54:ef:16:e5:cc:ea:2e:84:f7:2a:35:0e:dd:4a:3d:08:11:
         a7:6f:39:98:f5:94:62:74:9b:48:69:5d:49:d0:1b:70:f6:6c:
         d9:36:32:5e:65:f2:d4:c1:a0:dc:72:ed:f5:76:b6:c8:1f:36:
         c2:ff:75:90:37:24:ad:74:94:d7:07:24:79:9a:0c:b8:1b:e3:
         a0:40:13:d7:8e:c8:1e:46:ef:32:36:a1:e2:24:58:6d:4c:c3:
         45:e6:e8:63:e7:ae:17:ce
-----BEGIN CERTIFICATE-----
MIIGrTCCBJWgAwIBAgICEcgwDQYJKoZIhvcNAQEEBQAwgawxCzAJBgNVBAYTAlVT
MQswCQYDVQQIEwJPSDERMA8GA1UEBxMIQ29sdW1idXMxEjAQBgNVBAoTCVZpa2lu
Z1ZQTjEdMBsGA1UECxMUTXlPcmdhbml6YXRpb25hbFVuaXQxFTATBgNVBAMTDFZp
a2luZ1ZQTiBDQTEQMA4GA1UEKRMHRWFzeVJTQTEhMB8GCSqGSIb3DQEJARYSbWVA
bXlob3N0Lm15ZG9tYWluMB4XDTE1MDIyNDA1MTg1M1oXDTI1MDIyMTA1MTg1M1ow
HzEdMBsGA1UEAxMUQ2xpZW50MTQ3NkNlcnQyZWIxODcwggIiMA0GCSqGSIb3DQEB
AQUAA4ICDwAwggIKAoICAQC1JtE6N7HZq1ECPcfFjJIoVoldqjvvritlq2ghH1x7
vVACvKp3xVeDDxM/cUqLlVrr9dSA/BNxUz+VDVDeN4NDDrjxvGl4T+STlB8kDcMI
Vrjgik+BqkNY1JIw27lQJVV3PUgzAXIHjG2ixP7zdP+VALdmTFbOhtMQEWG+9Bcj
1RSuPGsQXMYPK3o+X5m/wcafFlgGD1zlsHcQK78JpPTow5x0v5SvojXSFsCbIO8W
NTJaF7k5Gv6FCnODFjXDLJzZ98ebfJy2vbfPp3VZ39F/2fax/MBpKTmOEbUZL6+T
RnFMBvw7UjhDipYbm8AaMegfgoywa5bjCqDgAaPvZTYfSM8lDguhUY3Jc5nQhAis
XXkWlvpqffj5QBnqabHD78sRvUf5JG4xYfUY72KMoip4rLurZXLGuiEUyJt74cmB
5JNRR+MY5bB2WfNCx5JZaGz6q+z5JinQNe6rbQGKjG2mSFkt7gMVVWu3zLtAosFO
yzZjAQbIvXGhxTiGNRHB1+1h5QlDC6SMvZnmvlgPkJw9X+nbql9ibHvFEvLaWdyI
UZHomnsxKksxVy57fgSxGx1REZow4jUR+H/QgmsHE22uUZ/CbubUMUFQQQZNpzC+
FHIbQsH/uPeKe0hKI2xVVwmsr47QlFHT3mTJB7iWvrrUPBxEhFg3hFpvE0Lxj6co
AQIDAQABo4IBYzCCAV8wCQYDVR0TBAIwADAtBglghkgBhvhCAQ0EIBYeRWFzeS1S
U0EgR2VuZXJhdGVkIENlcnRpZmljYXRlMB0GA1UdDgQWBBRWLxbnnBv8mXSztUip
gf71yUeHTzCB4QYDVR0jBIHZMIHWgBQSzWAE0qCAnnDtxpm4eyzGUv0ZoaGBsqSB
rzCBrDELMAkGA1UEBhMCVVMxCzAJBgNVBAgTAk9IMREwDwYDVQQHEwhDb2x1bWJ1
czESMBAGA1UEChMJVmlraW5nVlBOMR0wGwYDVQQLExRNeU9yZ2FuaXphdGlvbmFs
VW5pdDEVMBMGA1UEAxMMVmlraW5nVlBOIENBMRAwDgYDVQQpEwdFYXN5UlNBMSEw
HwYJKoZIhvcNAQkBFhJtZUBteWhvc3QubXlkb21haW6CCQDPNYXugL8qPjATBgNV
HSUEDDAKBggrBgEFBQcDAjALBgNVHQ8EBAMCB4AwDQYJKoZIhvcNAQEEBQADggIB
AFgNlhUUa6r7AIn+cspE/mN4WGiqCZrZr6QTMlNSkis7oS3bWMbV8S/U1xH57GLC
oT4YjJqCq0gOLutQ5zagQmo0T8sy6bdJ4I6r1cPy0JpbGABQWxCE8wZDxNwcybY1
KrJviqfgKkPUmDbNQ9VBplYxLqhYz5n+j8ECLbjiLwTJb/jI2iuvjgwEKDtnFmCa
Ar6Ky2eqiEsHk8t39MNsOnBz9Sn9MN7w5fi1FV1YbhyPG4Bcw369swzQa4eSmXJT
ZLxN2LrzFRPOWRp0RUk5sYNsTk84ITXWURt/3glkwsLoh6VahhfIs0NMJ+bLRORP
8mEaNkaboOHTmP4JX8I/cIm60CXn1bjnkf7NrTsjPRZuj/FWPVf9WOP92PaBpIpR
kVS6IhBaOri544xn7w/53p0wrw/MXiqLmuQo2OmtaOEhkXNSkyfBl4cQdKfWL8K1
MT39XvNrpW+CbwnEL4HmRDnMiqpc9WKEr7+4DsNoMNDeBA0NWAJBr67qVMGgdk+k
m6ecyx+oz1cNrsR1/UMuwIsKtZWYtcxzG8RlYRpjyUBU7xblzOouhPcqNQ7dSj0I
EadvOZj1lGJ0m0hpXUnQG3D2bNk2Ml5l8tTBoNxy7fV2tsgfNsL/dZA3JK10lNcH
JHmaDLgb46BAE9eOyB5G7zI2oeIkWG1Mw0Xm6GPnrhfO
-----END CERTIFICATE-----
