Certificate:
    Data:
        Version: 3 (0x2)
        Serial Number: 7983 (0x1f2f)
    Signature Algorithm: md5WithRSAEncryption
        Issuer: C=US, ST=OH, L=Columbus, O=VikingVPN, OU=MyOrganizationalUnit, CN=VikingVPN CA/name=EasyRSA/emailAddress=me@myhost.mydomain
        Validity
            Not Before: May 14 20:27:54 2016 GMT
            Not After : May 12 20:27:54 2026 GMT
        Subject: CN=Client2256Cert8ff539
        Subject Public Key Info:
            Public Key Algorithm: rsaEncryption
                Public-Key: (4096 bit)
                Modulus:
                    00:a2:5d:37:01:24:5b:26:65:ce:bd:42:a4:2d:d2:
                    df:77:27:49:36:01:20:6f:32:a0:c6:7f:52:31:73:
                    1f:63:fd:58:44:78:0b:7a:9f:8b:81:e1:8f:e7:58:
                    89:22:50:59:d5:2d:cb:1d:cf:c9:d1:33:ef:91:78:
                    7e:62:72:97:87:10:98:c1:34:90:2b:af:f8:4c:7f:
                    1b:1c:cb:d8:05:4a:3d:1c:bb:e0:e2:ab:07:c8:af:
                    bb:6d:a8:b6:2e:2c:46:b6:86:ef:2f:bb:25:fa:2b:
                    09:36:22:27:12:38:ab:8e:8c:ab:6d:7d:eb:8b:5c:
                    80:cb:73:b2:00:02:de:0f:4f:dd:22:5b:f6:5e:bb:
                    69:ca:71:68:47:7d:3c:4f:39:c4:8b:69:92:10:fd:
                    99:00:96:13:47:18:c8:a3:bc:4d:80:e8:33:ac:8a:
                    97:7c:4b:eb:c2:ae:82:8b:7a:e3:70:cf:33:c8:81:
                    f5:5d:f9:20:b6:64:a0:77:16:a1:f2:7f:39:3f:72:
                    f2:50:9f:ca:d1:03:c1:90:df:e9:56:fc:dc:94:1c:
                    76:37:1c:66:df:98:28:01:f4:16:68:56:ae:0e:fb:
                    47:8c:74:3e:49:15:c1:00:4a:3b:a1:37:7a:25:00:
                    21:05:8f:6f:f3:09:04:45:99:f2:7e:5a:c5:f2:74:
                    dd:fa:8e:56:a3:8b:c3:a4:51:9f:d6:43:4e:e0:1c:
                    e9:ed:f6:ea:55:1b:49:67:4c:33:8f:a7:fc:fc:91:
                    72:8c:c8:57:5c:ae:21:56:d5:1f:23:20:df:cc:46:
                    00:9e:9b:6f:32:cd:bb:0e:e5:e2:45:80:eb:41:b6:
                    19:b3:b0:05:f9:49:a6:0c:1f:c8:48:b2:ac:75:46:
                    96:c5:69:cb:ca:1e:1c:f0:c9:d4:56:29:2f:6b:ec:
                    65:79:a9:ef:c3:1b:42:13:9e:13:5e:b3:48:ab:09:
                    f4:e9:32:a1:34:e3:c5:6c:b0:ef:ee:b9:62:4e:14:
                    46:3f:e0:04:18:21:5d:7e:ce:1a:7d:0c:75:70:80:
                    6c:f5:f4:3a:a2:89:48:c5:78:0f:6b:85:0a:50:3f:
                    bf:20:90:e2:2a:5d:68:03:05:14:74:bb:32:a4:79:
                    0f:2d:f4:42:8c:0b:1e:6e:f4:e5:66:3b:42:dd:09:
                    86:b3:25:81:4b:31:56:68:63:5f:63:75:e2:ea:23:
                    3d:93:b6:79:0a:12:4d:b6:8a:3f:f0:6e:fe:55:75:
                    53:40:23:5f:c7:c8:79:75:52:54:4e:60:69:4c:bd:
                    de:92:af:34:d4:e6:e7:ce:3d:04:03:48:cb:53:16:
                    e6:09:3c:e9:19:a9:9e:58:b5:bc:9b:c4:8f:af:11:
                    fd:6d:27
                Exponent: 65537 (0x10001)
        X509v3 extensions:
            X509v3 Basic Constraints: 
                CA:FALSE
            Netscape Comment: 
                Easy-RSA Generated Certificate
            X509v3 Subject Key Identifier: 
                F5:4D:6C:65:9A:DE:C9:82:19:94:FD:01:B6:B7:7C:51:41:88:7A:AE
            X509v3 Authority Key Identifier: 
                keyid:12:CD:60:04:D2:A0:80:9E:70:ED:C6:99:B8:7B:2C:C6:52:FD:19:A1
                DirName:/C=US/ST=OH/L=Columbus/O=VikingVPN/OU=MyOrganizationalUnit/CN=VikingVPN CA/name=EasyRSA/emailAddress=me@myhost.mydomain
                serial:CF:35:85:EE:80:BF:2A:3E

            X509v3 Extended Key Usage: 
                TLS Web Client Authentication
            X509v3 Key Usage: 
                Digital Signature
    Signature Algorithm: md5WithRSAEncryption
         b7:25:b0:1d:db:30:25:53:9f:52:64:da:78:8e:93:f3:50:8a:
         75:00:7e:1d:99:76:eb:ef:98:57:43:3a:1b:c5:38:44:e2:b1:
         07:9b:47:76:d7:f5:4a:46:d4:ea:f8:a5:9d:d6:a7:8b:31:8f:
         67:36:a8:be:cb:6f:f1:d2:01:ea:45:c6:23:81:30:b3:00:66:
         e4:c3:23:65:4a:6f:1d:b2:ff:2c:a5:30:ea:06:8a:f5:5a:97:
         3f:ef:2d:8f:b7:40:d8:dc:25:1c:ce:b4:ba:33:8f:e9:31:19:
         3b:c6:85:bc:ba:c9:c1:79:d9:51:07:12:6c:72:fe:77:9b:08:
         52:e8:a0:59:dd:e1:77:d2:87:8c:c2:ae:93:10:ca:ef:1d:44:
         93:ab:33:ce:71:eb:cb:d3:54:77:9e:56:ee:74:85:b0:98:a8:
         09:b4:fb:e3:8d:d7:93:01:0e:5f:89:65:53:4d:a5:37:53:f1:
         99:be:d8:03:ce:f9:7e:a8:be:93:aa:fb:94:56:8d:89:57:82:
         a5:61:86:e1:f5:02:7c:16:7a:3f:d4:24:1f:73:66:fc:b1:1f:
         b9:d6:bf:5b:d6:fa:03:1a:fe:f4:70:6c:7b:ed:42:9a:95:79:
         84:8b:bb:06:ce:3d:b7:f8:54:dc:6e:2e:01:62:d1:da:9a:d2:
         0c:6d:a9:c8:2f:33:3e:53:e5:df:67:23:81:a2:aa:f8:dc:ca:
         63:b1:cf:ff:d4:df:73:6e:b2:49:ad:0c:20:67:87:27:87:31:
         88:e0:b0:18:49:6f:7d:01:ae:af:c4:6c:c2:21:62:a8:0d:14:
         87:6e:0b:f1:58:2d:78:12:86:1b:ae:fa:92:5f:24:30:24:09:
         3d:ac:4a:d3:6b:4c:97:81:b3:5a:d7:d9:cb:97:6e:7a:98:48:
         13:b3:3c:29:a7:fa:6e:55:af:9d:6b:22:6f:12:b9:72:3e:1d:
         1c:b3:56:fd:46:23:a5:8a:e4:c9:d9:8c:ed:ed:48:88:7b:56:
         0e:c8:b3:58:67:7a:a7:e2:5e:16:48:ae:84:29:5c:19:ee:d1:
         37:e0:f0:9f:f6:d4:ea:64:e6:d9:c2:06:4e:b3:a0:2b:a9:f8:
         39:53:85:8b:2a:bd:14:8f:cf:dc:c6:c8:a5:65:d5:5a:52:0a:
         1c:c3:99:a3:15:04:0a:7f:0e:d1:08:7d:2b:fa:05:6d:fd:51:
         65:f3:3f:c4:69:2a:f1:ee:2f:5b:18:6c:5a:07:0e:88:f7:3c:
         8c:6b:84:c9:20:70:d3:43:20:31:88:dc:c2:49:24:70:d9:ec:
         33:9d:08:d8:0d:5f:45:6a:21:b5:3d:31:ec:b9:08:ec:38:50:
         e3:b1:44:57:f8:ff:cb:8b
-----BEGIN CERTIFICATE-----
MIIGrTCCBJWgAwIBAgICHy8wDQYJKoZIhvcNAQEEBQAwgawxCzAJBgNVBAYTAlVT
MQswCQYDVQQIEwJPSDERMA8GA1UEBxMIQ29sdW1idXMxEjAQBgNVBAoTCVZpa2lu
Z1ZQTjEdMBsGA1UECxMUTXlPcmdhbml6YXRpb25hbFVuaXQxFTATBgNVBAMTDFZp
a2luZ1ZQTiBDQTEQMA4GA1UEKRMHRWFzeVJTQTEhMB8GCSqGSIb3DQEJARYSbWVA
bXlob3N0Lm15ZG9tYWluMB4XDTE2MDUxNDIwMjc1NFoXDTI2MDUxMjIwMjc1NFow
HzEdMBsGA1UEAxMUQ2xpZW50MjI1NkNlcnQ4ZmY1MzkwggIiMA0GCSqGSIb3DQEB
AQUAA4ICDwAwggIKAoICAQCiXTcBJFsmZc69QqQt0t93J0k2ASBvMqDGf1Ixcx9j
/VhEeAt6n4uB4Y/nWIkiUFnVLcsdz8nRM++ReH5icpeHEJjBNJArr/hMfxscy9gF
Sj0cu+DiqwfIr7ttqLYuLEa2hu8vuyX6Kwk2IicSOKuOjKttfeuLXIDLc7IAAt4P
T90iW/Zeu2nKcWhHfTxPOcSLaZIQ/ZkAlhNHGMijvE2A6DOsipd8S+vCroKLeuNw
zzPIgfVd+SC2ZKB3FqHyfzk/cvJQn8rRA8GQ3+lW/NyUHHY3HGbfmCgB9BZoVq4O
+0eMdD5JFcEASjuhN3olACEFj2/zCQRFmfJ+WsXydN36jlaji8OkUZ/WQ07gHOnt
9upVG0lnTDOPp/z8kXKMyFdcriFW1R8jIN/MRgCem28yzbsO5eJFgOtBthmzsAX5
SaYMH8hIsqx1RpbFacvKHhzwydRWKS9r7GV5qe/DG0ITnhNes0irCfTpMqE048Vs
sO/uuWJOFEY/4AQYIV1+zhp9DHVwgGz19DqiiUjFeA9rhQpQP78gkOIqXWgDBRR0
uzKkeQ8t9EKMCx5u9OVmO0LdCYazJYFLMVZoY19jdeLqIz2TtnkKEk22ij/wbv5V
dVNAI1/HyHl1UlROYGlMvd6SrzTU5ufOPQQDSMtTFuYJPOkZqZ5YtbybxI+vEf1t
JwIDAQABo4IBYzCCAV8wCQYDVR0TBAIwADAtBglghkgBhvhCAQ0EIBYeRWFzeS1S
U0EgR2VuZXJhdGVkIENlcnRpZmljYXRlMB0GA1UdDgQWBBT1TWxlmt7JghmU/QG2
t3xRQYh6rjCB4QYDVR0jBIHZMIHWgBQSzWAE0qCAnnDtxpm4eyzGUv0ZoaGBsqSB
rzCBrDELMAkGA1UEBhMCVVMxCzAJBgNVBAgTAk9IMREwDwYDVQQHEwhDb2x1bWJ1
czESMBAGA1UEChMJVmlraW5nVlBOMR0wGwYDVQQLExRNeU9yZ2FuaXphdGlvbmFs
VW5pdDEVMBMGA1UEAxMMVmlraW5nVlBOIENBMRAwDgYDVQQpEwdFYXN5UlNBMSEw
HwYJKoZIhvcNAQkBFhJtZUBteWhvc3QubXlkb21haW6CCQDPNYXugL8qPjATBgNV
HSUEDDAKBggrBgEFBQcDAjALBgNVHQ8EBAMCB4AwDQYJKoZIhvcNAQEEBQADggIB
ALclsB3bMCVTn1Jk2niOk/NQinUAfh2ZduvvmFdDOhvFOETisQebR3bX9UpG1Or4
pZ3Wp4sxj2c2qL7Lb/HSAepFxiOBMLMAZuTDI2VKbx2y/yylMOoGivValz/vLY+3
QNjcJRzOtLozj+kxGTvGhby6ycF52VEHEmxy/nebCFLooFnd4XfSh4zCrpMQyu8d
RJOrM85x68vTVHeeVu50hbCYqAm0++ON15MBDl+JZVNNpTdT8Zm+2APO+X6ovpOq
+5RWjYlXgqVhhuH1AnwWej/UJB9zZvyxH7nWv1vW+gMa/vRwbHvtQpqVeYSLuwbO
Pbf4VNxuLgFi0dqa0gxtqcgvMz5T5d9nI4GiqvjcymOxz//U33NuskmtDCBnhyeH
MYjgsBhJb30Brq/EbMIhYqgNFIduC/FYLXgShhuu+pJfJDAkCT2sStNrTJeBs1rX
2cuXbnqYSBOzPCmn+m5Vr51rIm8SuXI+HRyzVv1GI6WK5MnZjO3tSIh7Vg7Is1hn
eqfiXhZIroQpXBnu0Tfg8J/21Opk5tnCBk6zoCup+DlThYsqvRSPz9zGyKVl1VpS
ChzDmaMVBAp/DtEIfSv6BW39UWXzP8RpKvHuL1sYbFoHDoj3PIxrhMkgcNNDIDGI
3MJJJHDZ7DOdCNgNX0VqIbU9Mey5COw4UOOxRFf4/8uL
-----END CERTIFICATE-----
