Certificate:
    Data:
        Version: 3 (0x2)
        Serial Number: 89 (0x59)
    Signature Algorithm: md5WithRSAEncryption
        Issuer: C=US, ST=OH, L=Columbus, O=VikingVPN, OU=MyOrganizationalUnit, CN=VikingVPN CA/name=EasyRSA/emailAddress=me@myhost.mydomain
        Validity
            Not Before: Aug 24 15:48:56 2013 GMT
            Not After : Aug 22 15:48:56 2023 GMT
        Subject: CN=Client63Cert477a22
        Subject Public Key Info:
            Public Key Algorithm: rsaEncryption
                Public-Key: (4096 bit)
                Modulus:
                    00:a4:9d:14:2a:56:2d:2c:e4:45:17:fd:93:23:30:
                    4c:73:69:51:56:3a:5a:fe:16:ed:0b:9a:d6:df:15:
                    f5:60:e6:b0:30:63:28:46:b4:83:4b:4f:cb:f7:67:
                    48:5f:6d:bf:88:f1:ef:dc:9d:14:18:13:3b:0d:c6:
                    de:8f:bd:c1:38:81:b1:dc:35:9b:80:a8:b0:72:50:
                    79:0d:71:91:9c:79:b7:e2:9f:01:1c:c5:e3:e4:38:
                    06:9e:30:26:ea:39:7d:33:0f:0b:cb:94:90:c3:2d:
                    65:86:3a:f0:9a:7b:0a:69:9b:7d:e7:b0:8f:d1:ca:
                    f7:30:49:17:3d:12:c7:f0:f1:75:c4:c7:b9:15:cf:
                    c7:bc:c3:c3:5c:c8:ca:a7:78:08:ec:6a:78:bc:e9:
                    55:c3:c2:b9:80:ee:8d:7e:97:2c:c1:3a:9e:2b:1e:
                    40:32:c0:6f:a8:b4:5a:6a:9e:26:f8:1e:3a:19:8e:
                    97:d1:6f:25:85:16:de:80:64:4c:9d:34:46:44:5e:
                    70:38:26:8d:91:63:18:d2:a9:da:81:ba:37:d1:5a:
                    15:a3:06:2e:4e:25:27:b9:83:f1:ed:7a:02:7f:bd:
                    e7:67:bf:cf:95:6c:20:c8:7f:0a:b7:9f:cc:b3:49:
                    89:a6:3f:18:89:93:26:c4:61:5c:dd:44:85:67:8a:
                    49:6b:1c:3c:f7:0c:d5:63:d6:e1:f0:47:ba:1d:4c:
                    d6:7e:9d:28:eb:74:5c:a2:53:c4:0a:c3:cb:26:85:
                    78:46:32:5f:20:d0:92:5a:47:10:3e:51:dd:e1:59:
                    18:4b:6d:31:39:e5:16:10:d5:77:d2:86:03:dc:20:
                    fe:02:8e:55:19:5d:05:6a:a7:d4:06:78:93:70:42:
                    f0:39:48:f9:e4:d2:86:2c:7d:d9:83:f1:9e:ea:ff:
                    1f:41:6a:ed:da:02:85:f9:25:d6:e2:93:72:28:b3:
                    9b:aa:3f:2e:e4:68:87:5d:d3:1d:6d:81:3d:03:23:
                    64:d3:2a:0e:01:49:0c:d4:a5:57:f2:2f:fb:a9:8a:
                    53:1d:1c:6e:ea:99:dd:33:f0:51:48:4f:4a:97:84:
                    8c:f3:73:10:87:dd:93:6d:5d:6b:1e:82:0d:eb:2e:
                    5d:4d:77:b9:2d:90:42:43:b6:86:86:aa:fe:b7:25:
                    0c:0f:2f:45:c8:e6:e3:cc:0e:d4:f4:5f:80:3a:91:
                    f6:93:55:e5:4e:f6:d6:10:e0:ed:a4:a1:ac:6c:5e:
                    f3:26:9a:b1:cd:f1:21:00:d1:f6:19:f1:5b:10:0a:
                    21:fe:fa:ca:07:2e:1b:8d:fd:51:5b:a2:ff:b4:56:
                    1e:36:31:c5:4b:42:53:bf:3a:2b:71:a0:b3:9c:f8:
                    7b:17:f1
                Exponent: 65537 (0x10001)
        X509v3 extensions:
            X509v3 Basic Constraints: 
                CA:FALSE
            Netscape Comment: 
                Easy-RSA Generated Certificate
            X509v3 Subject Key Identifier: 
                F5:EC:99:D3:4A:A8:8C:D1:F1:83:2D:FC:0D:94:B0:AA:D8:CB:45:9E
            X509v3 Authority Key Identifier: 
                keyid:12:CD:60:04:D2:A0:80:9E:70:ED:C6:99:B8:7B:2C:C6:52:FD:19:A1
                DirName:/C=US/ST=OH/L=Columbus/O=VikingVPN/OU=MyOrganizationalUnit/CN=VikingVPN CA/name=EasyRSA/emailAddress=me@myhost.mydomain
                serial:CF:35:85:EE:80:BF:2A:3E

            X509v3 Extended Key Usage: 
                TLS Web Client Authentication
            X509v3 Key Usage: 
                Digital Signature
    Signature Algorithm: md5WithRSAEncryption
         ac:45:bf:76:1b:e8:6a:23:1c:af:21:7c:55:c3:b8:97:da:31:
         71:4f:c0:59:a1:dc:cf:8b:16:43:9c:1e:a8:f9:c7:01:c8:f3:
         71:a1:0c:c5:d0:20:dc:3b:c4:11:b8:55:44:95:fd:13:f6:e0:
         64:7e:f0:d8:29:c0:31:4f:8d:8e:7b:fb:be:b7:c1:ad:d7:99:
         cf:ee:d1:cf:c8:91:22:d1:10:ae:2b:0d:55:91:f8:db:01:81:
         1b:c1:a4:38:12:9b:ab:5a:7e:34:a2:b4:46:16:f6:0e:cb:2d:
         df:20:5e:78:89:56:0c:0d:0e:0a:88:b6:5f:d8:35:01:b8:e1:
         74:b1:bc:3b:87:f1:4c:93:f5:d1:23:3d:aa:cd:8d:b8:92:2a:
         7d:a4:47:52:ce:e9:22:d7:2d:e2:b7:c4:fc:8f:ee:5e:7b:a6:
         89:2a:48:42:ee:18:ca:ce:55:69:28:a4:03:ca:4d:2c:52:e2:
         25:03:76:58:c5:9e:7b:d1:cb:e8:75:ce:d1:b7:59:2d:ff:26:
         ae:81:20:a6:5e:16:50:45:2f:8b:e8:6b:82:ee:28:ce:a0:4d:
         2d:ca:e9:33:3d:a1:fc:c6:c1:fa:8e:ea:7c:b2:5b:fe:a0:35:
         53:9e:91:3c:9e:38:57:9b:aa:38:f3:6d:f1:ff:d6:de:d9:ce:
         49:ab:ca:1b:44:79:80:bc:f2:07:e7:d9:9c:6f:b2:cc:4c:77:
         4c:c4:f5:15:b6:25:85:d3:a3:bc:15:e9:b2:56:8a:fc:67:3b:
         79:1e:57:99:8d:71:03:87:7a:39:6b:29:89:96:dd:34:93:1e:
         64:15:33:d4:a6:c4:68:0f:a1:3c:93:f0:c7:19:c8:81:00:be:
         bf:04:45:3b:95:f5:34:8f:22:6d:5d:46:16:25:86:dc:59:8a:
         e0:89:63:be:f7:cc:4f:9c:22:4b:df:27:87:9e:41:fc:25:28:
         2c:26:fe:08:c5:57:cd:2e:af:2c:c4:77:0f:7f:40:18:e0:04:
         78:01:ed:66:9b:04:96:8c:24:2f:e4:27:32:10:4d:e2:92:95:
         4a:4d:68:a5:e4:a4:91:f3:31:be:27:06:62:09:ff:0a:85:1d:
         2c:a2:8b:1e:6e:ae:38:2d:6a:4b:0c:1a:14:8d:bf:22:06:a5:
         80:a5:82:61:cf:ee:6e:7e:3e:af:bf:31:85:83:18:26:5e:35:
         2d:a8:b7:04:13:80:fb:70:e6:6c:8a:3c:e9:8f:eb:1a:52:30:
         01:b2:d1:2b:23:23:19:e9:44:cd:b0:15:de:58:ed:1e:2f:69:
         2a:49:9e:81:29:58:b0:50:df:ef:39:9c:0d:f3:c9:a5:c1:87:
         1f:da:66:31:92:85:45:6a
-----BEGIN CERTIFICATE-----
MIIGqjCCBJKgAwIBAgIBWTANBgkqhkiG9w0BAQQFADCBrDELMAkGA1UEBhMCVVMx
CzAJBgNVBAgTAk9IMREwDwYDVQQHEwhDb2x1bWJ1czESMBAGA1UEChMJVmlraW5n
VlBOMR0wGwYDVQQLExRNeU9yZ2FuaXphdGlvbmFsVW5pdDEVMBMGA1UEAxMMVmlr
aW5nVlBOIENBMRAwDgYDVQQpEwdFYXN5UlNBMSEwHwYJKoZIhvcNAQkBFhJtZUBt
eWhvc3QubXlkb21haW4wHhcNMTMwODI0MTU0ODU2WhcNMjMwODIyMTU0ODU2WjAd
MRswGQYDVQQDExJDbGllbnQ2M0NlcnQ0NzdhMjIwggIiMA0GCSqGSIb3DQEBAQUA
A4ICDwAwggIKAoICAQCknRQqVi0s5EUX/ZMjMExzaVFWOlr+Fu0LmtbfFfVg5rAw
YyhGtINLT8v3Z0hfbb+I8e/cnRQYEzsNxt6PvcE4gbHcNZuAqLByUHkNcZGcebfi
nwEcxePkOAaeMCbqOX0zDwvLlJDDLWWGOvCaewppm33nsI/RyvcwSRc9Esfw8XXE
x7kVz8e8w8NcyMqneAjsani86VXDwrmA7o1+lyzBOp4rHkAywG+otFpqnib4HjoZ
jpfRbyWFFt6AZEydNEZEXnA4Jo2RYxjSqdqBujfRWhWjBi5OJSe5g/HtegJ/vedn
v8+VbCDIfwq3n8yzSYmmPxiJkybEYVzdRIVniklrHDz3DNVj1uHwR7odTNZ+nSjr
dFyiU8QKw8smhXhGMl8g0JJaRxA+Ud3hWRhLbTE55RYQ1XfShgPcIP4CjlUZXQVq
p9QGeJNwQvA5SPnk0oYsfdmD8Z7q/x9Bau3aAoX5Jdbik3Ios5uqPy7kaIdd0x1t
gT0DI2TTKg4BSQzUpVfyL/upilMdHG7qmd0z8FFIT0qXhIzzcxCH3ZNtXWsegg3r
Ll1Nd7ktkEJDtoaGqv63JQwPL0XI5uPMDtT0X4A6kfaTVeVO9tYQ4O2koaxsXvMm
mrHN8SEA0fYZ8VsQCiH++soHLhuN/VFbov+0Vh42McVLQlO/OitxoLOc+HsX8QID
AQABo4IBYzCCAV8wCQYDVR0TBAIwADAtBglghkgBhvhCAQ0EIBYeRWFzeS1SU0Eg
R2VuZXJhdGVkIENlcnRpZmljYXRlMB0GA1UdDgQWBBT17JnTSqiM0fGDLfwNlLCq
2MtFnjCB4QYDVR0jBIHZMIHWgBQSzWAE0qCAnnDtxpm4eyzGUv0ZoaGBsqSBrzCB
rDELMAkGA1UEBhMCVVMxCzAJBgNVBAgTAk9IMREwDwYDVQQHEwhDb2x1bWJ1czES
MBAGA1UEChMJVmlraW5nVlBOMR0wGwYDVQQLExRNeU9yZ2FuaXphdGlvbmFsVW5p
dDEVMBMGA1UEAxMMVmlraW5nVlBOIENBMRAwDgYDVQQpEwdFYXN5UlNBMSEwHwYJ
KoZIhvcNAQkBFhJtZUBteWhvc3QubXlkb21haW6CCQDPNYXugL8qPjATBgNVHSUE
DDAKBggrBgEFBQcDAjALBgNVHQ8EBAMCB4AwDQYJKoZIhvcNAQEEBQADggIBAKxF
v3Yb6GojHK8hfFXDuJfaMXFPwFmh3M+LFkOcHqj5xwHI83GhDMXQINw7xBG4VUSV
/RP24GR+8NgpwDFPjY57+763wa3Xmc/u0c/IkSLREK4rDVWR+NsBgRvBpDgSm6ta
fjSitEYW9g7LLd8gXniJVgwNDgqItl/YNQG44XSxvDuH8UyT9dEjParNjbiSKn2k
R1LO6SLXLeK3xPyP7l57pokqSELuGMrOVWkopAPKTSxS4iUDdljFnnvRy+h1ztG3
WS3/Jq6BIKZeFlBFL4voa4LuKM6gTS3K6TM9ofzGwfqO6nyyW/6gNVOekTyeOFeb
qjjzbfH/1t7ZzkmryhtEeYC88gfn2ZxvssxMd0zE9RW2JYXTo7wV6bJWivxnO3ke
V5mNcQOHejlrKYmW3TSTHmQVM9SmxGgPoTyT8McZyIEAvr8ERTuV9TSPIm1dRhYl
htxZiuCJY773zE+cIkvfJ4eeQfwlKCwm/gjFV80uryzEdw9/QBjgBHgB7WabBJaM
JC/kJzIQTeKSlUpNaKXkpJHzMb4nBmIJ/wqFHSyiix5urjgtaksMGhSNvyIGpYCl
gmHP7m5+Pq+/MYWDGCZeNS2otwQTgPtw5myKPOmP6xpSMAGy0SsjIxnpRM2wFd5Y
7R4vaSpJnoEpWLBQ3+85nA3zyaXBhx/aZjGShUVq
-----END CERTIFICATE-----
