Certificate:
    Data:
        Version: 3 (0x2)
        Serial Number: 4951 (0x1357)
    Signature Algorithm: md5WithRSAEncryption
        Issuer: C=US, ST=OH, L=Columbus, O=VikingVPN, OU=MyOrganizationalUnit, CN=VikingVPN CA/name=EasyRSA/emailAddress=me@myhost.mydomain
        Validity
            Not Before: Apr 13 03:25:39 2015 GMT
            Not After : Apr 10 03:25:39 2025 GMT
        Subject: CN=Client1614Cert58a1f1
        Subject Public Key Info:
            Public Key Algorithm: rsaEncryption
                Public-Key: (4096 bit)
                Modulus:
                    00:e2:58:84:e7:68:4d:a5:0e:77:c7:ea:db:ca:b5:
                    32:a4:f0:11:46:d9:f3:4f:90:de:50:90:b5:13:f4:
                    58:a8:66:9d:60:bb:2a:86:48:1f:6e:c9:ab:d4:f1:
                    cb:9c:d6:66:86:49:d2:b1:63:45:1e:da:e4:6a:76:
                    c8:59:d6:2d:60:c9:c4:43:bb:24:37:be:dc:fa:33:
                    8e:7c:93:64:c8:81:36:06:4a:61:1b:51:3f:32:1d:
                    ba:32:2f:66:12:4c:b6:1e:0c:78:c1:1d:26:6f:5f:
                    8f:2e:c8:1a:e9:d0:75:2e:dc:af:bb:f8:3e:c3:a8:
                    90:db:39:54:51:b5:13:7c:bf:50:e0:60:ac:ab:d0:
                    34:b3:ec:7d:c7:64:60:ec:20:60:43:cd:4c:c4:dc:
                    17:1c:39:ac:2d:11:36:6e:d6:95:f1:e1:d0:d2:00:
                    c9:12:d2:7f:ad:c4:de:f2:ce:96:e8:ed:94:2e:5f:
                    6b:27:c6:c0:3b:97:72:ea:20:98:24:9d:84:bb:af:
                    1e:dc:50:e5:3c:fe:87:9d:c7:53:df:ed:4e:33:da:
                    6f:90:92:a8:37:98:3e:a1:30:ee:49:99:e6:99:c4:
                    73:15:86:63:a3:12:52:9c:8f:e1:a6:ac:36:96:eb:
                    48:5d:fd:76:53:9e:26:76:d4:07:09:44:e5:c9:5e:
                    d1:b6:dc:f0:2a:50:cf:86:f2:2e:4d:31:87:18:7f:
                    8a:c1:6d:e0:e2:07:8c:a5:17:58:d9:e6:80:d3:5f:
                    28:3f:ed:4c:e0:9e:2c:df:c7:0c:34:50:dc:cb:be:
                    25:c2:f8:32:62:7a:fc:70:c0:f3:ab:7b:d3:a8:a9:
                    5d:b7:a1:84:11:d1:59:76:67:fb:ea:2e:0e:fb:ea:
                    a7:30:a1:c5:06:03:d6:e0:71:fb:77:fc:58:07:15:
                    82:e5:c6:7c:01:f5:1c:b1:79:35:bf:5b:96:f4:9c:
                    23:6b:dd:05:86:f5:6b:6a:3d:17:aa:b9:51:69:85:
                    8e:4b:74:59:f9:8c:e6:f7:d7:ac:59:3e:58:f1:e3:
                    f6:96:f1:12:a2:9e:25:35:3c:48:98:37:35:1f:8f:
                    60:08:4b:87:ad:ec:ec:ba:ec:67:5d:a6:02:29:01:
                    ed:46:bb:a2:09:a1:b6:1b:3c:ab:94:0d:cb:3c:d8:
                    99:fd:2e:de:98:21:1d:17:2f:82:1a:eb:28:fc:2d:
                    da:ed:51:a6:1a:77:c8:ec:58:09:0c:0b:f5:29:29:
                    b7:b8:ec:e8:2c:02:a3:a0:80:d5:ec:0a:99:92:9d:
                    8d:df:bc:4a:23:18:c4:48:90:67:cd:81:a5:25:c3:
                    a6:e6:a9:d2:80:6b:57:40:5d:aa:39:55:f4:27:7e:
                    dc:c3:01
                Exponent: 65537 (0x10001)
        X509v3 extensions:
            X509v3 Basic Constraints: 
                CA:FALSE
            Netscape Comment: 
                Easy-RSA Generated Certificate
            X509v3 Subject Key Identifier: 
                42:7F:14:17:88:FD:86:6E:44:35:96:68:01:34:F0:AC:06:45:73:B6
            X509v3 Authority Key Identifier: 
                keyid:12:CD:60:04:D2:A0:80:9E:70:ED:C6:99:B8:7B:2C:C6:52:FD:19:A1
                DirName:/C=US/ST=OH/L=Columbus/O=VikingVPN/OU=MyOrganizationalUnit/CN=VikingVPN CA/name=EasyRSA/emailAddress=me@myhost.mydomain
                serial:CF:35:85:EE:80:BF:2A:3E

            X509v3 Extended Key Usage: 
                TLS Web Client Authentication
            X509v3 Key Usage: 
                Digital Signature
    Signature Algorithm: md5WithRSAEncryption
         0c:2d:2e:01:7a:a3:f8:da:13:56:e0:ff:27:b8:f4:34:62:77:
         60:c0:c2:2d:8f:5f:13:3b:c6:f8:e7:0e:4a:7a:e4:df:00:62:
         a3:9a:31:4e:ae:1c:6e:af:fb:a1:01:38:bd:71:45:9a:12:fc:
         b5:c3:83:6e:65:21:48:1c:a3:d7:4e:ec:dc:b0:3e:63:26:85:
         fd:6d:cb:00:ab:a6:28:c4:73:5e:45:39:77:05:49:4b:84:3c:
         04:1d:06:4b:03:ac:93:de:6e:81:41:15:32:ea:18:37:27:b1:
         6f:79:64:2e:df:9a:58:b1:65:69:8b:62:96:b7:bf:89:6a:c6:
         7f:9f:08:ae:39:85:51:97:45:4c:63:32:75:3d:30:15:df:8a:
         0d:a6:5e:1c:c9:02:b5:e3:9a:9e:21:08:52:a3:8d:62:b4:a1:
         66:77:10:3f:03:43:1c:71:01:e4:90:db:ab:fc:79:62:49:57:
         22:c9:92:3b:06:3d:ac:11:e7:2c:ab:f1:d5:9b:db:e9:23:a3:
         e0:04:be:0b:ab:3b:84:5c:47:19:58:94:79:8a:85:fe:d2:db:
         f6:c3:70:1c:3b:eb:33:fa:6c:c8:d8:ed:f5:78:7a:f3:0c:3f:
         60:f8:96:7c:e1:1e:30:41:0f:21:5e:3d:a6:94:b8:2b:a9:e1:
         41:85:d2:ca:98:91:e3:68:71:9e:d2:fd:42:50:69:eb:5b:17:
         30:45:82:df:30:d9:cd:2e:5f:3e:9d:98:fa:91:68:4e:f8:ef:
         cc:1a:40:36:1c:54:98:dd:2e:e4:fb:9a:b1:8a:b5:2b:51:10:
         70:da:4a:ac:e9:4f:bb:58:85:2e:3f:4d:5f:2d:d7:64:a1:7d:
         ba:4f:8c:2f:19:3e:80:bc:3c:1e:fa:63:47:bc:b7:8e:07:c9:
         0a:21:a7:2e:6f:22:d3:10:a2:f9:9b:2e:2a:af:79:0e:05:28:
         6a:1a:9e:39:cc:cd:5c:b6:14:a8:e9:1a:f3:5f:c9:b5:ca:5b:
         21:f6:2f:b6:ac:ca:78:c9:c4:83:1f:e9:b3:9b:d1:3a:b8:f7:
         8a:27:9e:0a:39:ab:a2:68:1d:10:cc:a2:10:d4:fa:a1:ea:29:
         bd:8d:0d:0a:c5:4c:5c:ab:4a:4f:cb:7c:0e:2a:88:23:0c:bc:
         83:26:72:1b:3f:08:47:8d:ed:58:2f:80:9f:d9:7e:43:a1:a7:
         bb:88:30:9e:df:8e:1a:c9:19:5e:ae:29:ce:83:de:4d:b2:31:
         b1:a1:db:12:08:7a:1d:66:8f:fb:ac:1b:48:de:46:47:8e:b6:
         28:44:36:b5:94:3f:0b:35:ff:54:e2:07:47:fa:c0:c8:9e:b9:
         cf:a0:24:03:4f:d5:12:c3
-----BEGIN CERTIFICATE-----
MIIGrTCCBJWgAwIBAgICE1cwDQYJKoZIhvcNAQEEBQAwgawxCzAJBgNVBAYTAlVT
MQswCQYDVQQIEwJPSDERMA8GA1UEBxMIQ29sdW1idXMxEjAQBgNVBAoTCVZpa2lu
Z1ZQTjEdMBsGA1UECxMUTXlPcmdhbml6YXRpb25hbFVuaXQxFTATBgNVBAMTDFZp
a2luZ1ZQTiBDQTEQMA4GA1UEKRMHRWFzeVJTQTEhMB8GCSqGSIb3DQEJARYSbWVA
bXlob3N0Lm15ZG9tYWluMB4XDTE1MDQxMzAzMjUzOVoXDTI1MDQxMDAzMjUzOVow
HzEdMBsGA1UEAxMUQ2xpZW50MTYxNENlcnQ1OGExZjEwggIiMA0GCSqGSIb3DQEB
AQUAA4ICDwAwggIKAoICAQDiWITnaE2lDnfH6tvKtTKk8BFG2fNPkN5QkLUT9Fio
Zp1guyqGSB9uyavU8cuc1maGSdKxY0Ue2uRqdshZ1i1gycRDuyQ3vtz6M458k2TI
gTYGSmEbUT8yHboyL2YSTLYeDHjBHSZvX48uyBrp0HUu3K+7+D7DqJDbOVRRtRN8
v1DgYKyr0DSz7H3HZGDsIGBDzUzE3BccOawtETZu1pXx4dDSAMkS0n+txN7yzpbo
7ZQuX2snxsA7l3LqIJgknYS7rx7cUOU8/oedx1Pf7U4z2m+Qkqg3mD6hMO5JmeaZ
xHMVhmOjElKcj+GmrDaW60hd/XZTniZ21AcJROXJXtG23PAqUM+G8i5NMYcYf4rB
beDiB4ylF1jZ5oDTXyg/7Uzgnizfxww0UNzLviXC+DJievxwwPOre9OoqV23oYQR
0Vl2Z/vqLg776qcwocUGA9bgcft3/FgHFYLlxnwB9RyxeTW/W5b0nCNr3QWG9Wtq
PRequVFphY5LdFn5jOb316xZPljx4/aW8RKiniU1PEiYNzUfj2AIS4et7Oy67Gdd
pgIpAe1Gu6IJobYbPKuUDcs82Jn9Lt6YIR0XL4Ia6yj8LdrtUaYad8jsWAkMC/Up
Kbe47OgsAqOggNXsCpmSnY3fvEojGMRIkGfNgaUlw6bmqdKAa1dAXao5VfQnftzD
AQIDAQABo4IBYzCCAV8wCQYDVR0TBAIwADAtBglghkgBhvhCAQ0EIBYeRWFzeS1S
U0EgR2VuZXJhdGVkIENlcnRpZmljYXRlMB0GA1UdDgQWBBRCfxQXiP2GbkQ1lmgB
NPCsBkVztjCB4QYDVR0jBIHZMIHWgBQSzWAE0qCAnnDtxpm4eyzGUv0ZoaGBsqSB
rzCBrDELMAkGA1UEBhMCVVMxCzAJBgNVBAgTAk9IMREwDwYDVQQHEwhDb2x1bWJ1
czESMBAGA1UEChMJVmlraW5nVlBOMR0wGwYDVQQLExRNeU9yZ2FuaXphdGlvbmFs
VW5pdDEVMBMGA1UEAxMMVmlraW5nVlBOIENBMRAwDgYDVQQpEwdFYXN5UlNBMSEw
HwYJKoZIhvcNAQkBFhJtZUBteWhvc3QubXlkb21haW6CCQDPNYXugL8qPjATBgNV
HSUEDDAKBggrBgEFBQcDAjALBgNVHQ8EBAMCB4AwDQYJKoZIhvcNAQEEBQADggIB
AAwtLgF6o/jaE1bg/ye49DRid2DAwi2PXxM7xvjnDkp65N8AYqOaMU6uHG6v+6EB
OL1xRZoS/LXDg25lIUgco9dO7NywPmMmhf1tywCrpijEc15FOXcFSUuEPAQdBksD
rJPeboFBFTLqGDcnsW95ZC7fmlixZWmLYpa3v4lqxn+fCK45hVGXRUxjMnU9MBXf
ig2mXhzJArXjmp4hCFKjjWK0oWZ3ED8DQxxxAeSQ26v8eWJJVyLJkjsGPawR5yyr
8dWb2+kjo+AEvgurO4RcRxlYlHmKhf7S2/bDcBw76zP6bMjY7fV4evMMP2D4lnzh
HjBBDyFePaaUuCup4UGF0sqYkeNocZ7S/UJQaetbFzBFgt8w2c0uXz6dmPqRaE74
78waQDYcVJjdLuT7mrGKtStREHDaSqzpT7tYhS4/TV8t12ShfbpPjC8ZPoC8PB76
Y0e8t44HyQohpy5vItMQovmbLiqveQ4FKGoanjnMzVy2FKjpGvNfybXKWyH2L7as
ynjJxIMf6bOb0Tq494onngo5q6JoHRDMohDU+qHqKb2NDQrFTFyrSk/LfA4qiCMM
vIMmchs/CEeN7VgvgJ/ZfkOhp7uIMJ7fjhrJGV6uKc6D3k2yMbGh2xIIeh1mj/us
G0jeRkeOtihENrWUPws1/1TiB0f6wMieuc+gJANP1RLD
-----END CERTIFICATE-----
