Certificate:
    Data:
        Version: 3 (0x2)
        Serial Number: 6147 (0x1803)
    Signature Algorithm: md5WithRSAEncryption
        Issuer: C=US, ST=OH, L=Columbus, O=VikingVPN, OU=MyOrganizationalUnit, CN=VikingVPN CA/name=EasyRSA/emailAddress=me@myhost.mydomain
        Validity
            Not Before: Aug 26 17:38:32 2015 GMT
            Not After : Aug 23 17:38:32 2025 GMT
        Subject: CN=Client1925Certce630f
        Subject Public Key Info:
            Public Key Algorithm: rsaEncryption
                Public-Key: (4096 bit)
                Modulus:
                    00:ae:05:53:94:2e:50:78:05:d6:d8:9c:a4:08:48:
                    12:d3:a0:de:88:0e:51:37:8e:37:1f:25:68:27:da:
                    ba:1e:f9:99:1e:10:a7:48:3e:b0:ad:eb:4e:ea:0e:
                    1a:31:7e:6b:e5:b0:71:5a:d2:53:09:04:79:0c:9c:
                    28:7e:28:a3:e6:f0:91:6d:51:bb:67:59:e8:25:ef:
                    6e:01:3f:24:4f:7b:08:7d:74:d7:8c:cf:8a:fa:fa:
                    30:15:84:6c:fe:79:3f:38:53:63:a8:84:13:3a:fc:
                    ff:7f:09:4d:78:4b:c3:a3:74:9d:53:b9:53:a6:ab:
                    5c:a4:53:9d:cf:57:44:ad:65:6e:38:2d:56:6f:43:
                    fe:b0:6a:5b:3d:bc:95:88:d2:95:84:1a:1a:57:cc:
                    b2:06:aa:7b:54:52:ee:58:28:60:39:90:1f:9a:bb:
                    88:cc:04:c6:ad:47:79:d4:8e:cc:6d:65:5a:a1:fc:
                    b8:bf:59:29:1b:bd:ef:b2:fe:dc:30:57:4b:47:de:
                    da:9e:8f:16:0c:cf:67:40:76:ab:59:9a:98:95:e3:
                    c6:f9:00:88:8b:05:96:7f:70:d5:53:59:25:93:2b:
                    b9:f8:c3:5e:b5:80:c3:6b:63:7f:7c:5e:13:9d:bb:
                    d5:8c:31:20:25:d7:6f:61:39:30:61:68:c1:56:fc:
                    05:ca:57:a2:5f:38:61:bf:fd:5b:82:bc:ae:0f:10:
                    a1:4a:f2:47:2a:2c:41:44:22:8b:97:54:a8:f3:0f:
                    b0:f1:53:8f:7a:32:17:19:43:9e:a4:84:a7:79:9b:
                    79:e6:1b:36:cb:e1:f0:aa:1d:41:63:b9:8b:a3:ff:
                    ab:b1:de:2a:68:fc:af:1c:10:14:bf:08:c2:db:5b:
                    eb:25:c5:e7:5f:31:50:7a:6f:62:b7:09:52:2b:54:
                    4b:7d:f7:62:74:c2:1d:e6:f1:0e:61:fd:d1:ee:62:
                    6a:b5:30:be:1b:a4:9f:86:3a:c9:79:79:56:d7:89:
                    50:0c:82:22:26:92:fd:89:ab:4d:9d:39:da:2d:ce:
                    5e:c4:b5:d3:44:09:52:fe:f6:19:f6:bd:d7:5c:47:
                    18:f2:5d:d9:bf:43:54:a1:1e:aa:c2:f0:60:90:ea:
                    ee:6e:ca:66:ad:6c:cc:9e:fa:fd:a5:84:08:24:d3:
                    45:e7:20:c0:40:75:40:b9:53:ac:59:87:4d:2c:31:
                    b7:b8:47:4f:39:85:08:0e:2d:32:07:d1:05:69:9f:
                    2d:2f:fc:15:9f:95:70:a7:f9:b9:ce:b9:2f:87:d9:
                    21:a3:d3:0e:14:88:ef:8c:96:21:0f:46:a6:f2:1f:
                    97:c5:48:ad:4e:fc:e6:32:a9:71:95:94:5c:14:c8:
                    59:e5:d1
                Exponent: 65537 (0x10001)
        X509v3 extensions:
            X509v3 Basic Constraints: 
                CA:FALSE
            Netscape Comment: 
                Easy-RSA Generated Certificate
            X509v3 Subject Key Identifier: 
                E5:23:07:2F:00:3A:91:BD:D6:18:3D:FF:FC:BB:F5:56:02:A2:E4:13
            X509v3 Authority Key Identifier: 
                keyid:12:CD:60:04:D2:A0:80:9E:70:ED:C6:99:B8:7B:2C:C6:52:FD:19:A1
                DirName:/C=US/ST=OH/L=Columbus/O=VikingVPN/OU=MyOrganizationalUnit/CN=VikingVPN CA/name=EasyRSA/emailAddress=me@myhost.mydomain
                serial:CF:35:85:EE:80:BF:2A:3E

            X509v3 Extended Key Usage: 
                TLS Web Client Authentication
            X509v3 Key Usage: 
                Digital Signature
    Signature Algorithm: md5WithRSAEncryption
         4e:60:80:ae:07:9c:cc:30:5f:c0:06:5c:c5:bb:c0:62:65:32:
         7f:9a:08:fc:cc:f4:f0:d1:ab:90:96:c9:bf:9f:92:a1:fd:98:
         55:03:4c:2b:fc:3d:ed:db:a5:92:ea:dc:ce:b1:0d:18:6a:c9:
         bf:a0:d1:29:91:f9:68:ca:01:b4:e0:b4:ac:29:32:bb:b9:1d:
         b3:3f:cb:55:b5:e6:4e:c9:48:13:90:d4:ea:ff:08:e9:16:6f:
         05:9d:2d:73:45:ea:ec:c5:bc:b7:bb:67:32:e3:50:89:18:3b:
         38:81:49:14:f8:91:c7:bc:27:23:16:71:0c:61:85:4c:5f:03:
         19:4c:3d:69:4c:e3:17:ec:1d:cf:f0:51:c9:44:51:bc:1d:0a:
         95:de:07:05:d6:4d:7b:fe:34:a4:5f:e7:19:4d:90:85:02:b6:
         cb:37:20:fd:83:2a:fe:db:d6:6a:d3:cf:c3:25:13:3d:0a:da:
         8a:37:bd:62:39:26:8c:ba:38:69:a3:5b:99:87:a8:3b:b3:7e:
         d2:fd:04:6d:d7:a4:90:fc:29:6d:d3:59:61:75:8e:da:d9:ff:
         52:49:f7:f6:2e:67:8a:c4:a3:c2:ab:82:6f:9d:d0:13:30:4b:
         c6:0a:e4:af:87:30:2e:3b:fd:ed:b8:4b:ea:b7:76:f7:3a:e1:
         34:66:58:2b:10:d3:ad:34:d5:f0:c8:7b:11:b0:c7:6a:b4:d4:
         29:1f:ee:61:fe:08:a3:45:cb:00:22:c0:3f:ff:a0:44:03:85:
         2b:14:f1:74:5a:b4:52:b9:9b:05:34:9e:42:82:37:55:14:b1:
         35:b5:42:48:a7:7a:d6:35:cb:c6:cf:01:08:30:fd:c8:6c:64:
         08:96:22:9b:5b:dd:86:e3:12:f1:a0:29:3c:57:c7:28:a5:77:
         74:fa:c1:3a:c7:96:90:62:32:0f:c7:ec:fe:00:d9:d5:39:40:
         6e:2d:16:0b:ab:aa:6a:ad:63:32:97:6b:89:b9:e7:5c:66:ca:
         25:71:5a:77:30:d9:55:b3:04:1d:61:99:7b:43:53:a8:18:b8:
         ea:b9:b5:bd:e9:10:f7:19:dc:09:fe:92:35:ae:d4:5d:55:bf:
         9b:bc:52:d3:de:36:a4:24:1b:3d:d6:f4:47:6c:0b:e9:5a:51:
         11:85:9e:82:b7:8e:8e:27:b9:92:57:15:c8:35:0e:7f:aa:f3:
         01:34:80:d6:94:94:ad:04:28:6d:f4:9a:5b:6c:a5:a6:32:c9:
         4d:a2:a9:c9:2b:6b:e0:08:04:0e:f5:8f:5e:29:36:e4:66:d0:
         08:72:7f:60:52:19:b7:90:af:6a:40:c4:7b:15:50:bf:1d:74:
         7a:94:65:13:3a:e1:3d:1a
-----BEGIN CERTIFICATE-----
MIIGrTCCBJWgAwIBAgICGAMwDQYJKoZIhvcNAQEEBQAwgawxCzAJBgNVBAYTAlVT
MQswCQYDVQQIEwJPSDERMA8GA1UEBxMIQ29sdW1idXMxEjAQBgNVBAoTCVZpa2lu
Z1ZQTjEdMBsGA1UECxMUTXlPcmdhbml6YXRpb25hbFVuaXQxFTATBgNVBAMTDFZp
a2luZ1ZQTiBDQTEQMA4GA1UEKRMHRWFzeVJTQTEhMB8GCSqGSIb3DQEJARYSbWVA
bXlob3N0Lm15ZG9tYWluMB4XDTE1MDgyNjE3MzgzMloXDTI1MDgyMzE3MzgzMlow
HzEdMBsGA1UEAxMUQ2xpZW50MTkyNUNlcnRjZTYzMGYwggIiMA0GCSqGSIb3DQEB
AQUAA4ICDwAwggIKAoICAQCuBVOULlB4BdbYnKQISBLToN6IDlE3jjcfJWgn2roe
+ZkeEKdIPrCt607qDhoxfmvlsHFa0lMJBHkMnCh+KKPm8JFtUbtnWegl724BPyRP
ewh9dNeMz4r6+jAVhGz+eT84U2OohBM6/P9/CU14S8OjdJ1TuVOmq1ykU53PV0St
ZW44LVZvQ/6wals9vJWI0pWEGhpXzLIGqntUUu5YKGA5kB+au4jMBMatR3nUjsxt
ZVqh/Li/WSkbve+y/twwV0tH3tqejxYMz2dAdqtZmpiV48b5AIiLBZZ/cNVTWSWT
K7n4w161gMNrY398XhOdu9WMMSAl129hOTBhaMFW/AXKV6JfOGG//VuCvK4PEKFK
8kcqLEFEIouXVKjzD7DxU496MhcZQ56khKd5m3nmGzbL4fCqHUFjuYuj/6ux3ipo
/K8cEBS/CMLbW+slxedfMVB6b2K3CVIrVEt992J0wh3m8Q5h/dHuYmq1ML4bpJ+G
Osl5eVbXiVAMgiImkv2Jq02dOdotzl7EtdNECVL+9hn2vddcRxjyXdm/Q1ShHqrC
8GCQ6u5uymatbMye+v2lhAgk00XnIMBAdUC5U6xZh00sMbe4R085hQgOLTIH0QVp
ny0v/BWflXCn+bnOuS+H2SGj0w4UiO+MliEPRqbyH5fFSK1O/OYyqXGVlFwUyFnl
0QIDAQABo4IBYzCCAV8wCQYDVR0TBAIwADAtBglghkgBhvhCAQ0EIBYeRWFzeS1S
U0EgR2VuZXJhdGVkIENlcnRpZmljYXRlMB0GA1UdDgQWBBTlIwcvADqRvdYYPf/8
u/VWAqLkEzCB4QYDVR0jBIHZMIHWgBQSzWAE0qCAnnDtxpm4eyzGUv0ZoaGBsqSB
rzCBrDELMAkGA1UEBhMCVVMxCzAJBgNVBAgTAk9IMREwDwYDVQQHEwhDb2x1bWJ1
czESMBAGA1UEChMJVmlraW5nVlBOMR0wGwYDVQQLExRNeU9yZ2FuaXphdGlvbmFs
VW5pdDEVMBMGA1UEAxMMVmlraW5nVlBOIENBMRAwDgYDVQQpEwdFYXN5UlNBMSEw
HwYJKoZIhvcNAQkBFhJtZUBteWhvc3QubXlkb21haW6CCQDPNYXugL8qPjATBgNV
HSUEDDAKBggrBgEFBQcDAjALBgNVHQ8EBAMCB4AwDQYJKoZIhvcNAQEEBQADggIB
AE5ggK4HnMwwX8AGXMW7wGJlMn+aCPzM9PDRq5CWyb+fkqH9mFUDTCv8Pe3bpZLq
3M6xDRhqyb+g0SmR+WjKAbTgtKwpMru5HbM/y1W15k7JSBOQ1Or/COkWbwWdLXNF
6uzFvLe7ZzLjUIkYOziBSRT4kce8JyMWcQxhhUxfAxlMPWlM4xfsHc/wUclEUbwd
CpXeBwXWTXv+NKRf5xlNkIUCtss3IP2DKv7b1mrTz8MlEz0K2oo3vWI5Joy6OGmj
W5mHqDuzftL9BG3XpJD8KW3TWWF1jtrZ/1JJ9/YuZ4rEo8Krgm+d0BMwS8YK5K+H
MC47/e24S+q3dvc64TRmWCsQ06001fDIexGwx2q01Ckf7mH+CKNFywAiwD//oEQD
hSsU8XRatFK5mwU0nkKCN1UUsTW1QkinetY1y8bPAQgw/chsZAiWIptb3YbjEvGg
KTxXxyild3T6wTrHlpBiMg/H7P4A2dU5QG4tFgurqmqtYzKXa4m551xmyiVxWncw
2VWzBB1hmXtDU6gYuOq5tb3pEPcZ3An+kjWu1F1Vv5u8UtPeNqQkGz3W9EdsC+la
URGFnoK3jo4nuZJXFcg1Dn+q8wE0gNaUlK0EKG30mltspaYyyU2iqckra+AIBA71
j14pNuRm0Ahyf2BSGbeQr2pAxHsVUL8ddHqUZRM64T0a
-----END CERTIFICATE-----
