Certificate:
    Data:
        Version: 3 (0x2)
        Serial Number: 1574 (0x626)
    Signature Algorithm: md5WithRSAEncryption
        Issuer: C=US, ST=OH, L=Columbus, O=VikingVPN, OU=MyOrganizationalUnit, CN=VikingVPN CA/name=EasyRSA/emailAddress=me@myhost.mydomain
        Validity
            Not Before: Apr 12 16:49:36 2014 GMT
            Not After : Apr  9 16:49:36 2024 GMT
        Subject: CN=Client344Cert81f980
        Subject Public Key Info:
            Public Key Algorithm: rsaEncryption
                Public-Key: (4096 bit)
                Modulus:
                    00:ca:05:15:f1:9d:07:81:94:16:36:c0:65:e1:82:
                    24:2b:ac:23:96:9e:d5:ae:58:18:0e:34:4d:3e:56:
                    c4:39:4d:7e:7e:45:14:c7:6c:fb:f1:af:ae:64:78:
                    7b:d1:6d:77:70:7c:4e:4f:29:f7:e0:83:da:a7:4c:
                    c3:cc:2e:25:9b:3e:c6:d0:c0:8b:28:b5:1b:a5:7c:
                    72:3b:8c:32:0a:e4:2c:ea:23:2c:fb:bb:c1:2c:c8:
                    1c:62:1d:d6:65:bc:63:b2:de:db:74:df:eb:86:6a:
                    39:11:8d:d2:a0:21:32:13:c9:77:3e:22:66:3b:ac:
                    b3:33:24:f9:c8:b6:15:b4:53:a8:76:e6:6f:fa:d0:
                    51:cd:e3:78:c9:ca:0e:bf:07:a5:a9:6c:8d:bb:a9:
                    d3:80:ba:62:a5:6f:cd:45:8c:c4:5e:52:e5:ab:97:
                    38:cf:7d:6d:be:d5:79:f7:8c:ee:45:83:e3:d9:2d:
                    ab:3f:3d:0d:ad:90:dd:b6:2f:11:ff:bc:16:0b:13:
                    e0:2d:74:93:34:92:90:4c:b8:eb:49:3f:fe:6e:0d:
                    de:ba:1e:ef:2e:9d:d3:a2:5d:f9:74:3c:b4:d2:c5:
                    0d:e5:8b:0d:94:32:7d:60:f4:33:13:6f:79:70:ef:
                    1a:de:23:2e:30:5b:51:38:ac:5f:eb:85:79:05:6c:
                    4d:b0:81:31:bd:68:35:a2:2a:bb:a6:db:1e:33:79:
                    4d:8e:0e:76:02:9d:db:aa:30:8f:2c:ca:79:e7:0a:
                    41:c1:5f:a8:3f:d1:c2:75:57:21:6d:69:7f:22:18:
                    fd:79:88:76:74:bd:80:7d:66:2a:dd:68:1a:c2:5a:
                    62:10:fc:7e:fa:60:e4:ee:0a:45:ca:d6:1c:3d:01:
                    66:a0:ae:f5:6b:58:08:c0:15:89:3f:9a:53:c4:ad:
                    a5:3f:c9:c2:d0:f3:96:20:b9:c7:1e:50:93:72:82:
                    2c:0b:24:af:09:4f:b2:6c:a4:cf:ba:25:f4:fd:02:
                    c2:31:0a:38:b4:fa:d7:b0:77:52:c7:5a:6a:33:7e:
                    89:e6:0b:42:d6:42:77:22:5d:31:42:ac:e4:d8:8a:
                    7f:5a:07:d9:c4:41:44:05:43:1d:8a:f9:6e:42:1f:
                    96:9a:38:79:65:d7:d0:61:7e:0e:1c:fb:e3:e9:69:
                    e0:0a:0d:a6:d3:58:b9:d1:ed:f3:ec:61:e2:c0:24:
                    ad:7d:c1:62:ae:2d:7d:96:0e:0e:06:3d:e6:3c:6d:
                    f1:32:66:ef:46:55:19:50:13:aa:d0:62:4d:30:53:
                    a0:96:10:51:4c:f0:22:07:74:65:73:d3:5b:e1:a2:
                    95:73:26:6b:d5:c7:16:8e:f8:12:90:a1:b7:d4:3b:
                    72:df:0f
                Exponent: 65537 (0x10001)
        X509v3 extensions:
            X509v3 Basic Constraints: 
                CA:FALSE
            Netscape Comment: 
                Easy-RSA Generated Certificate
            X509v3 Subject Key Identifier: 
                0A:15:38:3A:07:0F:08:8F:91:7E:5E:74:2F:EB:E2:D9:1F:88:8D:0C
            X509v3 Authority Key Identifier: 
                keyid:12:CD:60:04:D2:A0:80:9E:70:ED:C6:99:B8:7B:2C:C6:52:FD:19:A1
                DirName:/C=US/ST=OH/L=Columbus/O=VikingVPN/OU=MyOrganizationalUnit/CN=VikingVPN CA/name=EasyRSA/emailAddress=me@myhost.mydomain
                serial:CF:35:85:EE:80:BF:2A:3E

            X509v3 Extended Key Usage: 
                TLS Web Client Authentication
            X509v3 Key Usage: 
                Digital Signature
    Signature Algorithm: md5WithRSAEncryption
         ea:27:7b:d9:32:8a:2a:cb:c4:f2:3f:be:a1:07:b6:38:86:92:
         c5:04:f6:7d:1a:7d:ec:36:4e:83:07:eb:28:cc:77:95:1e:1e:
         4f:f0:0e:ec:b7:b8:27:d2:59:6f:01:63:1e:f4:97:b9:19:8f:
         a9:80:fe:b9:d7:cc:dd:78:ec:a2:bc:c3:16:e3:13:e0:26:50:
         d1:2f:95:c6:2c:60:ad:87:6e:25:3b:e4:8b:61:cc:fa:7b:f1:
         a0:97:e4:da:c7:69:cf:2f:bd:d1:81:04:54:ac:d4:a2:ec:29:
         02:3c:62:c4:c1:40:ff:65:ab:b5:05:c3:de:ac:cc:47:b3:53:
         f6:ea:ab:2b:20:11:2b:e3:96:50:95:74:d2:92:9e:7d:f2:37:
         f9:3e:6e:e3:b5:a3:3f:6f:b4:65:76:75:40:e4:0a:92:43:9d:
         2a:c6:c5:75:5d:f0:87:7a:1d:5f:5d:e2:f0:8e:99:18:21:74:
         0c:03:1f:06:0a:e5:b3:1b:cd:cc:52:42:85:03:15:4c:5e:37:
         af:73:56:78:d0:0d:7a:f8:ad:74:36:88:3f:93:02:54:44:b2:
         cf:21:4a:50:aa:4b:be:b6:cc:72:43:65:81:3f:f1:e1:2b:b8:
         e5:8e:b3:03:8b:ef:3d:a9:2d:b2:40:e0:e8:e7:e8:bb:ec:60:
         21:0e:52:d0:a3:14:73:62:75:a5:8a:58:75:30:2b:e8:04:18:
         43:b7:40:1a:07:bd:e1:f9:57:23:43:c1:f2:56:54:99:2a:dd:
         c5:eb:60:31:5a:11:1d:11:00:75:50:c0:77:ed:b3:14:12:a1:
         e8:6b:b7:d3:98:39:8c:ae:6e:68:a5:d8:8d:74:1a:51:94:ed:
         d2:23:78:5d:5f:ab:d0:3f:48:ab:d4:0b:0e:b0:72:b3:cd:da:
         ce:81:16:00:1c:98:0c:f9:d4:fc:00:34:96:c6:ea:61:5c:24:
         f5:f4:b5:22:b5:90:a5:ce:ae:8f:6d:06:75:98:9f:de:14:73:
         67:eb:c4:29:95:46:ee:25:1a:3c:6e:3e:35:f3:15:67:2e:49:
         64:1f:4f:86:6f:1c:55:f1:69:40:5d:e1:76:3b:49:56:4e:8c:
         36:f5:c0:35:9d:39:4f:0d:48:89:d5:1c:87:33:fc:83:f1:be:
         6c:00:38:1a:5d:32:f8:8b:e8:30:9c:36:42:ac:28:d5:85:57:
         10:89:86:31:b6:59:4a:22:99:35:3d:97:a3:6e:07:b2:d5:af:
         5e:0e:00:9c:85:e2:88:0c:07:a7:d4:0f:cd:63:c1:9f:70:f4:
         18:21:29:b6:f8:7e:6c:6e:fe:7a:0a:33:e3:d4:0b:84:04:7d:
         e4:a6:c2:6e:0e:18:4f:99
-----BEGIN CERTIFICATE-----
MIIGrDCCBJSgAwIBAgICBiYwDQYJKoZIhvcNAQEEBQAwgawxCzAJBgNVBAYTAlVT
MQswCQYDVQQIEwJPSDERMA8GA1UEBxMIQ29sdW1idXMxEjAQBgNVBAoTCVZpa2lu
Z1ZQTjEdMBsGA1UECxMUTXlPcmdhbml6YXRpb25hbFVuaXQxFTATBgNVBAMTDFZp
a2luZ1ZQTiBDQTEQMA4GA1UEKRMHRWFzeVJTQTEhMB8GCSqGSIb3DQEJARYSbWVA
bXlob3N0Lm15ZG9tYWluMB4XDTE0MDQxMjE2NDkzNloXDTI0MDQwOTE2NDkzNlow
HjEcMBoGA1UEAxMTQ2xpZW50MzQ0Q2VydDgxZjk4MDCCAiIwDQYJKoZIhvcNAQEB
BQADggIPADCCAgoCggIBAMoFFfGdB4GUFjbAZeGCJCusI5ae1a5YGA40TT5WxDlN
fn5FFMds+/GvrmR4e9Ftd3B8Tk8p9+CD2qdMw8wuJZs+xtDAiyi1G6V8cjuMMgrk
LOojLPu7wSzIHGId1mW8Y7Le23Tf64ZqORGN0qAhMhPJdz4iZjusszMk+ci2FbRT
qHbmb/rQUc3jeMnKDr8Hpalsjbup04C6YqVvzUWMxF5S5auXOM99bb7VefeM7kWD
49ktqz89Da2Q3bYvEf+8FgsT4C10kzSSkEy460k//m4N3roe7y6d06Jd+XQ8tNLF
DeWLDZQyfWD0MxNveXDvGt4jLjBbUTisX+uFeQVsTbCBMb1oNaIqu6bbHjN5TY4O
dgKd26owjyzKeecKQcFfqD/RwnVXIW1pfyIY/XmIdnS9gH1mKt1oGsJaYhD8fvpg
5O4KRcrWHD0BZqCu9WtYCMAViT+aU8StpT/JwtDzliC5xx5Qk3KCLAskrwlPsmyk
z7ol9P0CwjEKOLT617B3UsdaajN+ieYLQtZCdyJdMUKs5NiKf1oH2cRBRAVDHYr5
bkIflpo4eWXX0GF+Dhz74+lp4AoNptNYudHt8+xh4sAkrX3BYq4tfZYODgY95jxt
8TJm70ZVGVATqtBiTTBToJYQUUzwIgd0ZXPTW+GilXMma9XHFo74EpCht9Q7ct8P
AgMBAAGjggFjMIIBXzAJBgNVHRMEAjAAMC0GCWCGSAGG+EIBDQQgFh5FYXN5LVJT
QSBHZW5lcmF0ZWQgQ2VydGlmaWNhdGUwHQYDVR0OBBYEFAoVODoHDwiPkX5edC/r
4tkfiI0MMIHhBgNVHSMEgdkwgdaAFBLNYATSoICecO3Gmbh7LMZS/RmhoYGypIGv
MIGsMQswCQYDVQQGEwJVUzELMAkGA1UECBMCT0gxETAPBgNVBAcTCENvbHVtYnVz
MRIwEAYDVQQKEwlWaWtpbmdWUE4xHTAbBgNVBAsTFE15T3JnYW5pemF0aW9uYWxV
bml0MRUwEwYDVQQDEwxWaWtpbmdWUE4gQ0ExEDAOBgNVBCkTB0Vhc3lSU0ExITAf
BgkqhkiG9w0BCQEWEm1lQG15aG9zdC5teWRvbWFpboIJAM81he6Avyo+MBMGA1Ud
JQQMMAoGCCsGAQUFBwMCMAsGA1UdDwQEAwIHgDANBgkqhkiG9w0BAQQFAAOCAgEA
6id72TKKKsvE8j++oQe2OIaSxQT2fRp97DZOgwfrKMx3lR4eT/AO7Le4J9JZbwFj
HvSXuRmPqYD+udfM3XjsorzDFuMT4CZQ0S+VxixgrYduJTvki2HM+nvxoJfk2sdp
zy+90YEEVKzUouwpAjxixMFA/2WrtQXD3qzMR7NT9uqrKyARK+OWUJV00pKeffI3
+T5u47WjP2+0ZXZ1QOQKkkOdKsbFdV3wh3odX13i8I6ZGCF0DAMfBgrlsxvNzFJC
hQMVTF43r3NWeNANevitdDaIP5MCVESyzyFKUKpLvrbMckNlgT/x4Su45Y6zA4vv
PaktskDg6Ofou+xgIQ5S0KMUc2J1pYpYdTAr6AQYQ7dAGge94flXI0PB8lZUmSrd
xetgMVoRHREAdVDAd+2zFBKh6Gu305g5jK5uaKXYjXQaUZTt0iN4XV+r0D9Iq9QL
DrBys83azoEWAByYDPnU/AA0lsbqYVwk9fS1IrWQpc6uj20GdZif3hRzZ+vEKZVG
7iUaPG4+NfMVZy5JZB9Phm8cVfFpQF3hdjtJVk6MNvXANZ05Tw1IidUchzP8g/G+
bAA4Gl0y+IvoMJw2Qqwo1YVXEImGMbZZSiKZNT2Xo24HstWvXg4AnIXiiAwHp9QP
zWPBn3D0GCEptvh+bG7+egoz49QLhAR95KbCbg4YT5k=
-----END CERTIFICATE-----
