Certificate:
    Data:
        Version: 3 (0x2)
        Serial Number: 5383 (0x1507)
    Signature Algorithm: md5WithRSAEncryption
        Issuer: C=US, ST=OH, L=Columbus, O=VikingVPN, OU=MyOrganizationalUnit, CN=VikingVPN CA/name=EasyRSA/emailAddress=me@myhost.mydomain
        Validity
            Not Before: May 25 18:25:12 2015 GMT
            Not After : May 22 18:25:12 2025 GMT
        Subject: CN=Client1643Certb99782
        Subject Public Key Info:
            Public Key Algorithm: rsaEncryption
                Public-Key: (4096 bit)
                Modulus:
                    00:aa:40:5f:2c:e4:f8:13:59:ed:4a:2f:2e:b6:d3:
                    a7:c6:27:01:57:de:a7:ca:38:14:d2:f7:f9:23:5e:
                    dc:14:ff:a9:48:d2:67:8d:0b:7d:4b:ff:b8:98:76:
                    15:70:66:a0:e9:98:40:18:db:51:97:87:45:60:42:
                    78:86:b8:83:e1:dd:8a:c0:37:63:06:0b:38:3f:fb:
                    4d:de:3a:32:ae:47:91:b4:a8:db:6f:1e:9a:7d:08:
                    7e:db:e4:b5:ef:32:8f:c7:bd:76:ce:f4:c3:11:91:
                    2b:aa:d6:76:81:fc:f5:9e:5e:2e:a9:11:5e:46:d0:
                    d3:05:8b:88:28:cf:51:92:81:94:d9:73:3b:e3:d2:
                    2d:b2:68:8b:ee:f2:7c:32:e8:4b:12:a5:9b:a1:79:
                    fe:53:0f:b5:85:22:8f:8a:25:6b:0a:63:3f:08:9b:
                    64:3d:5e:17:e0:86:35:61:6c:f3:13:d0:61:a5:57:
                    f4:ca:a0:42:45:3c:ba:49:f5:a9:40:cc:d9:17:23:
                    e5:63:e8:43:1b:14:7c:08:5c:1e:ae:6e:06:fe:43:
                    f4:a3:69:13:cb:e5:d9:cd:16:44:eb:19:de:f9:78:
                    b6:13:2a:97:99:4f:fe:4d:4b:75:00:7a:76:3b:34:
                    6e:a4:e2:c3:81:41:f1:5b:a1:92:a6:1e:98:6b:34:
                    7f:ac:ef:7f:f6:05:12:3f:e6:37:1b:30:1f:f0:0c:
                    5b:76:4e:96:9d:dc:ff:fd:3d:4e:37:e3:1d:9a:6a:
                    51:f3:bb:04:cc:ea:8d:bf:a6:05:dd:d2:8f:e5:51:
                    41:22:85:1f:1f:e6:1f:e2:89:c8:53:7f:c0:42:00:
                    c9:04:25:b4:57:a2:ed:bd:a9:32:86:93:fa:2c:af:
                    ae:91:a3:b9:4f:86:a2:a9:ca:26:7f:93:fa:44:80:
                    1a:82:70:ff:2a:d0:a6:97:bb:ae:fe:a2:fe:1e:4a:
                    58:2c:f6:c9:90:e8:f2:b6:51:85:d6:11:0b:2d:fa:
                    c6:aa:25:28:62:e4:43:43:5a:70:84:6e:f8:0d:84:
                    5c:c4:de:c7:4a:e2:dc:db:02:b5:a6:57:f4:71:62:
                    f2:20:72:bb:4e:b4:2c:ef:d7:b8:95:a2:21:32:0b:
                    dd:1d:d9:8e:09:07:09:79:a0:f6:64:1d:a9:c6:94:
                    bb:a1:73:a6:51:c7:5e:7e:d8:4b:de:e9:3f:8b:ac:
                    3a:21:9c:f6:d6:f4:14:86:69:12:d5:03:f3:df:59:
                    bd:1f:65:77:bb:be:6f:00:96:2a:c4:b4:0f:ce:02:
                    90:44:3c:55:57:73:ec:6f:54:22:fc:73:70:6d:62:
                    db:6a:28:34:14:89:d1:a0:95:01:68:79:50:02:7c:
                    8f:53:b5
                Exponent: 65537 (0x10001)
        X509v3 extensions:
            X509v3 Basic Constraints: 
                CA:FALSE
            Netscape Comment: 
                Easy-RSA Generated Certificate
            X509v3 Subject Key Identifier: 
                75:1A:BB:4D:88:D0:FA:DA:41:8B:40:83:DE:8B:4E:DC:F1:56:89:29
            X509v3 Authority Key Identifier: 
                keyid:12:CD:60:04:D2:A0:80:9E:70:ED:C6:99:B8:7B:2C:C6:52:FD:19:A1
                DirName:/C=US/ST=OH/L=Columbus/O=VikingVPN/OU=MyOrganizationalUnit/CN=VikingVPN CA/name=EasyRSA/emailAddress=me@myhost.mydomain
                serial:CF:35:85:EE:80:BF:2A:3E

            X509v3 Extended Key Usage: 
                TLS Web Client Authentication
            X509v3 Key Usage: 
                Digital Signature
    Signature Algorithm: md5WithRSAEncryption
         2a:ff:96:07:7d:4f:14:bf:b4:4c:85:d1:d2:2a:2b:bc:7c:c4:
         43:a0:34:29:7b:8c:45:2a:df:f9:d2:ef:88:30:ec:fd:5c:73:
         5a:bd:8e:ea:fc:28:57:0f:fe:73:e3:23:5f:27:0d:d6:60:4a:
         3c:ad:06:f6:dc:a2:3e:8d:cd:1d:96:66:65:5c:52:42:e9:84:
         c4:de:a9:d2:62:2c:44:a2:b6:cd:75:d1:78:3d:13:e2:b0:9c:
         af:23:24:b3:2f:3f:4f:fd:2c:1e:d7:a5:e2:e2:88:2a:4c:b5:
         b4:cf:bb:26:79:ae:ae:c2:38:1a:7f:e4:33:b8:43:94:0b:5b:
         88:9f:20:a9:53:ad:1e:e0:c7:a8:52:c2:6b:7c:97:4e:27:2b:
         d7:62:dd:4b:12:91:16:50:9b:22:15:8c:c2:e3:96:25:a7:9a:
         fd:5a:69:e3:c6:44:ea:75:74:4f:d9:05:27:15:69:21:21:a4:
         b0:0d:39:81:b6:5b:dc:c1:6e:77:8c:85:54:0d:3d:65:cb:4b:
         0a:af:5d:be:f0:e6:c3:63:f9:60:50:c4:23:56:10:ee:d0:94:
         6e:5a:ba:b6:43:9d:23:3d:29:c1:c5:76:06:b2:14:9c:0f:bd:
         66:76:3e:22:b4:db:c8:c5:40:d5:b1:54:d9:c7:18:28:d7:3b:
         57:aa:43:4a:ca:53:27:7a:33:f2:2b:a7:f4:6d:c1:55:eb:77:
         a1:f2:e3:d0:1d:d3:20:29:e4:7f:ac:8c:18:b3:96:60:1c:5f:
         c3:f0:f5:2a:85:d5:2d:d2:c4:81:6b:ea:a5:dc:b7:eb:d9:84:
         82:f0:9e:83:88:3f:27:53:59:57:6b:32:d4:37:11:7b:c4:6a:
         e4:8f:6f:1f:6d:fc:71:55:18:6e:f6:9d:de:71:96:e0:c2:c8:
         8b:85:60:b5:ae:cf:cd:41:36:fd:ec:dc:3e:2b:26:d6:6a:52:
         0c:7f:63:4c:87:4a:2b:23:11:b3:3b:9c:2d:19:d6:e7:e4:f9:
         a5:5b:26:f7:cb:02:40:7c:c0:3b:ad:3c:11:55:64:5d:a4:3a:
         b0:5d:a8:64:c3:07:c2:0c:2c:d2:81:5f:a3:b3:85:50:69:85:
         2a:22:86:67:9b:62:df:8c:32:c9:06:4c:dd:ea:af:b4:c1:51:
         f8:c9:ff:f6:97:01:58:e8:4c:c3:49:bc:df:8b:a4:e2:ba:51:
         0d:5c:3b:a4:be:36:65:c0:41:51:14:dd:97:b8:78:69:85:24:
         05:2b:b4:81:0c:26:f5:80:a0:0b:b7:e3:98:3f:ac:62:79:e9:
         f2:78:ff:2d:8c:df:b7:f7:94:c6:f7:3e:78:b0:d5:b1:c4:61:
         89:a8:52:04:33:8f:10:96
-----BEGIN CERTIFICATE-----
MIIGrTCCBJWgAwIBAgICFQcwDQYJKoZIhvcNAQEEBQAwgawxCzAJBgNVBAYTAlVT
MQswCQYDVQQIEwJPSDERMA8GA1UEBxMIQ29sdW1idXMxEjAQBgNVBAoTCVZpa2lu
Z1ZQTjEdMBsGA1UECxMUTXlPcmdhbml6YXRpb25hbFVuaXQxFTATBgNVBAMTDFZp
a2luZ1ZQTiBDQTEQMA4GA1UEKRMHRWFzeVJTQTEhMB8GCSqGSIb3DQEJARYSbWVA
bXlob3N0Lm15ZG9tYWluMB4XDTE1MDUyNTE4MjUxMloXDTI1MDUyMjE4MjUxMlow
HzEdMBsGA1UEAxMUQ2xpZW50MTY0M0NlcnRiOTk3ODIwggIiMA0GCSqGSIb3DQEB
AQUAA4ICDwAwggIKAoICAQCqQF8s5PgTWe1KLy6206fGJwFX3qfKOBTS9/kjXtwU
/6lI0meNC31L/7iYdhVwZqDpmEAY21GXh0VgQniGuIPh3YrAN2MGCzg/+03eOjKu
R5G0qNtvHpp9CH7b5LXvMo/HvXbO9MMRkSuq1naB/PWeXi6pEV5G0NMFi4goz1GS
gZTZczvj0i2yaIvu8nwy6EsSpZuhef5TD7WFIo+KJWsKYz8Im2Q9XhfghjVhbPMT
0GGlV/TKoEJFPLpJ9alAzNkXI+Vj6EMbFHwIXB6ubgb+Q/SjaRPL5dnNFkTrGd75
eLYTKpeZT/5NS3UAenY7NG6k4sOBQfFboZKmHphrNH+s73/2BRI/5jcbMB/wDFt2
Tpad3P/9PU434x2aalHzuwTM6o2/pgXd0o/lUUEihR8f5h/iichTf8BCAMkEJbRX
ou29qTKGk/osr66Ro7lPhqKpyiZ/k/pEgBqCcP8q0KaXu67+ov4eSlgs9smQ6PK2
UYXWEQst+saqJShi5ENDWnCEbvgNhFzE3sdK4tzbArWmV/RxYvIgcrtOtCzv17iV
oiEyC90d2Y4JBwl5oPZkHanGlLuhc6ZRx15+2Eve6T+LrDohnPbW9BSGaRLVA/Pf
Wb0fZXe7vm8AlirEtA/OApBEPFVXc+xvVCL8c3BtYttqKDQUidGglQFoeVACfI9T
tQIDAQABo4IBYzCCAV8wCQYDVR0TBAIwADAtBglghkgBhvhCAQ0EIBYeRWFzeS1S
U0EgR2VuZXJhdGVkIENlcnRpZmljYXRlMB0GA1UdDgQWBBR1GrtNiND62kGLQIPe
i07c8VaJKTCB4QYDVR0jBIHZMIHWgBQSzWAE0qCAnnDtxpm4eyzGUv0ZoaGBsqSB
rzCBrDELMAkGA1UEBhMCVVMxCzAJBgNVBAgTAk9IMREwDwYDVQQHEwhDb2x1bWJ1
czESMBAGA1UEChMJVmlraW5nVlBOMR0wGwYDVQQLExRNeU9yZ2FuaXphdGlvbmFs
VW5pdDEVMBMGA1UEAxMMVmlraW5nVlBOIENBMRAwDgYDVQQpEwdFYXN5UlNBMSEw
HwYJKoZIhvcNAQkBFhJtZUBteWhvc3QubXlkb21haW6CCQDPNYXugL8qPjATBgNV
HSUEDDAKBggrBgEFBQcDAjALBgNVHQ8EBAMCB4AwDQYJKoZIhvcNAQEEBQADggIB
ACr/lgd9TxS/tEyF0dIqK7x8xEOgNCl7jEUq3/nS74gw7P1cc1q9jur8KFcP/nPj
I18nDdZgSjytBvbcoj6NzR2WZmVcUkLphMTeqdJiLESits110Xg9E+KwnK8jJLMv
P0/9LB7XpeLiiCpMtbTPuyZ5rq7COBp/5DO4Q5QLW4ifIKlTrR7gx6hSwmt8l04n
K9di3UsSkRZQmyIVjMLjliWnmv1aaePGROp1dE/ZBScVaSEhpLANOYG2W9zBbneM
hVQNPWXLSwqvXb7w5sNj+WBQxCNWEO7QlG5aurZDnSM9KcHFdgayFJwPvWZ2PiK0
28jFQNWxVNnHGCjXO1eqQ0rKUyd6M/Irp/RtwVXrd6Hy49Ad0yAp5H+sjBizlmAc
X8Pw9SqF1S3SxIFr6qXct+vZhILwnoOIPydTWVdrMtQ3EXvEauSPbx9t/HFVGG72
nd5xluDCyIuFYLWuz81BNv3s3D4rJtZqUgx/Y0yHSisjEbM7nC0Z1ufk+aVbJvfL
AkB8wDutPBFVZF2kOrBdqGTDB8IMLNKBX6OzhVBphSoihmebYt+MMskGTN3qr7TB
UfjJ//aXAVjoTMNJvN+LpOK6UQ1cO6S+NmXAQVEU3Ze4eGmFJAUrtIEMJvWAoAu3
45g/rGJ56fJ4/y2M37f3lMb3Pniw1bHEYYmoUgQzjxCW
-----END CERTIFICATE-----
