Certificate:
    Data:
        Version: 3 (0x2)
        Serial Number: 10646 (0x2996)
    Signature Algorithm: sha256WithRSAEncryption
        Issuer: C=US, ST=OH, L=Columbus, O=VikingVPN, OU=MyOrganizationalUnit, CN=VikingVPN CA/name=EasyRSA/emailAddress=me@myhost.mydomain
        Validity
            Not Before: Apr 14 23:45:48 2017 GMT
            Not After : Apr 12 23:45:48 2027 GMT
        Subject: CN=Client2217Cert927de1
        Subject Public Key Info:
            Public Key Algorithm: rsaEncryption
                Public-Key: (4096 bit)
                Modulus:
                    00:cb:94:8a:57:23:4e:94:a6:c1:ae:6f:d9:c1:65:
                    aa:97:b6:81:97:a0:2c:b1:69:e3:d4:a1:9f:31:c9:
                    f2:c0:6b:1b:67:ae:31:88:56:f6:ce:fb:79:54:d7:
                    d6:d8:46:c1:fb:a0:12:46:f9:8d:20:26:af:81:ba:
                    2f:6a:24:5a:08:d4:76:0a:e6:f6:2d:b6:06:ba:24:
                    2f:cc:d3:2b:0d:f9:7c:c2:69:07:ae:fa:86:2a:8f:
                    05:0d:0a:38:2b:fb:25:3c:ee:73:c6:a6:db:05:97:
                    b2:8a:c6:d0:4e:8d:8f:9e:b1:b7:b2:3c:71:6d:9f:
                    d5:48:4f:b9:d1:59:a9:88:43:82:e5:42:9f:80:9b:
                    48:40:a5:61:0b:7d:6b:ba:b5:31:3c:b6:90:ec:3d:
                    09:9f:9a:35:ec:1b:aa:75:9c:a6:8d:31:03:9e:36:
                    29:08:67:88:d3:76:6f:98:86:fe:75:cd:34:bb:c1:
                    5b:a8:ba:ce:d9:50:22:ce:67:82:8d:14:68:a6:f9:
                    c7:c3:22:2f:92:48:05:74:b6:67:5d:23:73:7b:88:
                    ad:92:f4:a2:dd:5b:d2:3c:8d:e1:71:48:c1:db:17:
                    c4:7f:22:13:e1:62:7b:b5:49:a5:e4:04:53:6a:d8:
                    79:c2:ec:f6:b2:b1:1a:5b:b0:eb:e9:08:dd:19:6c:
                    c1:1e:31:13:52:59:04:8c:c9:3e:1c:b3:96:24:95:
                    0c:be:1a:d0:7d:73:05:3d:0a:fc:a0:03:7b:37:dc:
                    d7:61:87:79:ea:c6:36:a1:56:cd:ea:95:94:d5:c1:
                    44:97:c6:13:76:12:2a:a8:84:8d:a9:9a:56:ae:f1:
                    0f:c3:dc:10:25:ae:72:cf:a6:e4:25:08:e2:47:7c:
                    0d:87:f6:9a:e9:35:e6:36:ff:d7:8e:bf:18:fc:1f:
                    c2:12:9a:bb:15:8d:78:b3:9c:97:5c:65:2d:58:95:
                    8f:e0:21:55:8d:d7:d0:9f:e1:cc:5f:f0:99:67:cc:
                    ad:ac:7d:69:61:c5:0b:2c:12:ef:58:5e:64:c1:9c:
                    7d:4c:3a:53:a7:ff:09:58:a5:c3:8e:13:e6:f3:7a:
                    13:59:6e:23:3f:21:2f:c4:11:94:34:c3:51:20:fc:
                    10:89:dd:18:86:5c:23:0d:1c:fe:cb:9c:7d:32:1c:
                    2d:ae:3b:39:94:15:5f:2e:cd:f5:d6:a2:71:90:8c:
                    9a:9c:d6:e5:1d:5f:22:49:ab:db:bb:2e:4a:0d:3f:
                    2c:3d:d6:8c:55:4e:92:5e:04:50:74:ef:83:94:e0:
                    3d:9e:0e:64:54:43:e4:2e:e7:e2:46:28:15:cf:6d:
                    67:da:d7:59:f6:fb:f1:2c:cc:24:6f:a1:0c:8c:af:
                    12:46:cb
                Exponent: 65537 (0x10001)
        X509v3 extensions:
            X509v3 Basic Constraints: 
                CA:FALSE
            Netscape Comment: 
                Easy-RSA Generated Certificate
            X509v3 Subject Key Identifier: 
                7E:17:35:4A:DA:1A:15:49:03:58:8B:15:23:0A:E9:50:E9:56:19:F2
            X509v3 Authority Key Identifier: 
                keyid:12:CD:60:04:D2:A0:80:9E:70:ED:C6:99:B8:7B:2C:C6:52:FD:19:A1
                DirName:/C=US/ST=OH/L=Columbus/O=VikingVPN/OU=MyOrganizationalUnit/CN=VikingVPN CA/name=EasyRSA/emailAddress=me@myhost.mydomain
                serial:CF:35:85:EE:80:BF:2A:3E

            X509v3 Extended Key Usage: 
                TLS Web Client Authentication
            X509v3 Key Usage: 
                Digital Signature
    Signature Algorithm: sha256WithRSAEncryption
         04:ba:ba:8e:31:79:b0:7b:2f:d6:d5:07:d8:ff:a5:54:e2:57:
         c9:a3:54:74:34:7f:fb:91:79:a8:fc:c2:4f:d8:4f:d1:d4:b7:
         91:01:3b:7d:27:70:9a:0c:30:c5:9b:70:50:7e:1f:24:a8:64:
         9a:79:d8:80:0d:98:c9:cd:6f:7b:db:ae:96:f0:e8:07:0d:d5:
         f7:05:d7:4d:3b:c2:f9:8e:03:4f:93:27:e8:1b:b4:0f:3d:e7:
         d9:4f:e3:aa:c9:d1:a3:46:fa:a9:ae:a3:65:a2:1c:af:ee:3b:
         23:b5:e8:a1:e3:b8:90:cb:2e:03:a4:c2:ec:1d:2a:ec:67:9d:
         c3:b4:a0:3d:07:b5:ca:2c:29:c2:e0:4a:df:56:91:2f:1a:25:
         64:6e:1b:b5:e2:94:16:3f:cd:e4:cf:6f:5e:8b:96:b2:b0:7a:
         66:a6:79:de:17:20:71:30:68:e1:37:10:17:ce:0e:a3:ea:81:
         cd:31:17:eb:5f:63:48:6c:e5:20:fb:80:90:24:4c:84:a3:ac:
         db:ed:99:88:12:7e:24:ba:3b:8a:28:c1:7d:bc:e8:69:5a:35:
         fc:e4:fd:7d:72:cc:61:b7:21:a6:c9:b1:1e:de:8c:3c:18:0b:
         d5:df:97:2f:74:c9:45:ae:14:4a:00:89:86:51:2b:5b:59:99:
         21:5b:64:79:47:d1:59:3b:bf:6e:23:26:80:f8:1b:d9:11:56:
         25:3c:0e:29:96:64:12:1d:50:71:2a:a4:f6:6a:7e:c9:5e:71:
         e9:67:91:da:c9:10:22:cb:46:05:f9:ca:cf:7d:48:bb:f5:5a:
         ca:58:98:b8:aa:62:47:ca:9f:4e:2d:ba:e3:8d:3e:e6:23:22:
         45:2f:7b:ab:22:43:45:ba:fe:47:14:75:5b:25:2e:d6:bc:4a:
         2e:f1:49:32:7a:f3:b7:5d:11:7b:88:0c:0c:56:69:a6:a9:f4:
         fe:4e:c5:b0:d2:c6:6c:e5:f0:27:e2:bf:db:8e:3a:3c:cd:2e:
         ed:5d:3f:15:63:c1:25:df:8b:13:39:c9:c3:39:4a:a9:b1:8e:
         59:11:de:ff:3c:e4:c5:fc:41:ad:fc:2d:7a:f9:73:51:98:97:
         88:5e:3f:f5:5b:59:db:e8:ec:fe:d6:a1:e1:77:31:98:dd:8c:
         71:98:ea:82:cf:5d:fd:4c:54:af:28:6f:50:c9:85:2a:ab:0a:
         57:9a:a1:52:c4:69:9f:1f:c8:94:bc:7f:12:77:ff:fe:26:8f:
         75:0c:05:8c:4d:40:d4:cd:b4:4f:14:53:c2:a8:ff:fd:4d:cf:
         31:a8:a5:00:c2:91:57:b8:a7:bf:2b:86:76:2d:60:ea:88:bb:
         a2:7a:1e:53:cd:03:06:97
-----BEGIN CERTIFICATE-----
MIIGrTCCBJWgAwIBAgICKZYwDQYJKoZIhvcNAQELBQAwgawxCzAJBgNVBAYTAlVT
MQswCQYDVQQIEwJPSDERMA8GA1UEBxMIQ29sdW1idXMxEjAQBgNVBAoTCVZpa2lu
Z1ZQTjEdMBsGA1UECxMUTXlPcmdhbml6YXRpb25hbFVuaXQxFTATBgNVBAMTDFZp
a2luZ1ZQTiBDQTEQMA4GA1UEKRMHRWFzeVJTQTEhMB8GCSqGSIb3DQEJARYSbWVA
bXlob3N0Lm15ZG9tYWluMB4XDTE3MDQxNDIzNDU0OFoXDTI3MDQxMjIzNDU0OFow
HzEdMBsGA1UEAxMUQ2xpZW50MjIxN0NlcnQ5MjdkZTEwggIiMA0GCSqGSIb3DQEB
AQUAA4ICDwAwggIKAoICAQDLlIpXI06UpsGub9nBZaqXtoGXoCyxaePUoZ8xyfLA
axtnrjGIVvbO+3lU19bYRsH7oBJG+Y0gJq+Bui9qJFoI1HYK5vYttga6JC/M0ysN
+XzCaQeu+oYqjwUNCjgr+yU87nPGptsFl7KKxtBOjY+esbeyPHFtn9VIT7nRWamI
Q4LlQp+Am0hApWELfWu6tTE8tpDsPQmfmjXsG6p1nKaNMQOeNikIZ4jTdm+Yhv51
zTS7wVuous7ZUCLOZ4KNFGim+cfDIi+SSAV0tmddI3N7iK2S9KLdW9I8jeFxSMHb
F8R/IhPhYnu1SaXkBFNq2HnC7PaysRpbsOvpCN0ZbMEeMRNSWQSMyT4cs5YklQy+
GtB9cwU9CvygA3s33Ndhh3nqxjahVs3qlZTVwUSXxhN2EiqohI2pmlau8Q/D3BAl
rnLPpuQlCOJHfA2H9prpNeY2/9eOvxj8H8ISmrsVjXiznJdcZS1YlY/gIVWN19Cf
4cxf8JlnzK2sfWlhxQssEu9YXmTBnH1MOlOn/wlYpcOOE+bzehNZbiM/IS/EEZQ0
w1Eg/BCJ3RiGXCMNHP7LnH0yHC2uOzmUFV8uzfXWonGQjJqc1uUdXyJJq9u7LkoN
Pyw91oxVTpJeBFB074OU4D2eDmRUQ+Qu5+JGKBXPbWfa11n2+/EszCRvoQyMrxJG
ywIDAQABo4IBYzCCAV8wCQYDVR0TBAIwADAtBglghkgBhvhCAQ0EIBYeRWFzeS1S
U0EgR2VuZXJhdGVkIENlcnRpZmljYXRlMB0GA1UdDgQWBBR+FzVK2hoVSQNYixUj
CulQ6VYZ8jCB4QYDVR0jBIHZMIHWgBQSzWAE0qCAnnDtxpm4eyzGUv0ZoaGBsqSB
rzCBrDELMAkGA1UEBhMCVVMxCzAJBgNVBAgTAk9IMREwDwYDVQQHEwhDb2x1bWJ1
czESMBAGA1UEChMJVmlraW5nVlBOMR0wGwYDVQQLExRNeU9yZ2FuaXphdGlvbmFs
VW5pdDEVMBMGA1UEAxMMVmlraW5nVlBOIENBMRAwDgYDVQQpEwdFYXN5UlNBMSEw
HwYJKoZIhvcNAQkBFhJtZUBteWhvc3QubXlkb21haW6CCQDPNYXugL8qPjATBgNV
HSUEDDAKBggrBgEFBQcDAjALBgNVHQ8EBAMCB4AwDQYJKoZIhvcNAQELBQADggIB
AAS6uo4xebB7L9bVB9j/pVTiV8mjVHQ0f/uReaj8wk/YT9HUt5EBO30ncJoMMMWb
cFB+HySoZJp52IANmMnNb3vbrpbw6AcN1fcF1007wvmOA0+TJ+gbtA8959lP46rJ
0aNG+qmuo2WiHK/uOyO16KHjuJDLLgOkwuwdKuxnncO0oD0HtcosKcLgSt9WkS8a
JWRuG7XilBY/zeTPb16LlrKwemamed4XIHEwaOE3EBfODqPqgc0xF+tfY0hs5SD7
gJAkTISjrNvtmYgSfiS6O4oowX286GlaNfzk/X1yzGG3IabJsR7ejDwYC9Xfly90
yUWuFEoAiYZRK1tZmSFbZHlH0Vk7v24jJoD4G9kRViU8DimWZBIdUHEqpPZqfsle
celnkdrJECLLRgX5ys99SLv1WspYmLiqYkfKn04tuuONPuYjIkUve6siQ0W6/kcU
dVslLta8Si7xSTJ687ddEXuIDAxWaaap9P5OxbDSxmzl8Cfiv9uOOjzNLu1dPxVj
wSXfixM5ycM5SqmxjlkR3v885MX8Qa38LXr5c1GYl4heP/VbWdvo7P7WoeF3MZjd
jHGY6oLPXf1MVK8ob1DJhSqrCleaoVLEaZ8fyJS8fxJ3//4mj3UMBYxNQNTNtE8U
U8Ko//1NzzGopQDCkVe4p78rhnYtYOqIu6J6HlPNAwaX
-----END CERTIFICATE-----
