Certificate:
    Data:
        Version: 3 (0x2)
        Serial Number: 2533 (0x9e5)
    Signature Algorithm: md5WithRSAEncryption
        Issuer: C=US, ST=OH, L=Columbus, O=VikingVPN, OU=MyOrganizationalUnit, CN=VikingVPN CA/name=EasyRSA/emailAddress=me@myhost.mydomain
        Validity
            Not Before: Aug 11 04:46:24 2014 GMT
            Not After : Aug  8 04:46:24 2024 GMT
        Subject: CN=Client879Cert0220c3
        Subject Public Key Info:
            Public Key Algorithm: rsaEncryption
                Public-Key: (4096 bit)
                Modulus:
                    00:e6:1d:17:98:b2:c5:fd:53:8f:7b:27:01:a2:72:
                    fd:38:98:d0:52:b1:ee:34:e7:f4:45:6d:47:40:b5:
                    da:ed:50:ad:a2:9f:e9:47:e1:98:68:dd:6a:65:3d:
                    64:6b:aa:8e:35:00:53:e0:07:20:3c:c3:27:58:81:
                    c1:c1:c6:5d:9a:0c:f2:c3:9d:7d:b1:aa:bc:01:42:
                    34:5e:42:df:7d:be:d3:9c:fb:be:5e:99:04:39:82:
                    20:b1:71:1e:58:37:cc:2b:27:eb:01:83:5f:fc:35:
                    77:30:3c:2e:03:42:39:ec:b4:1a:16:80:ef:0a:c3:
                    21:1e:a6:c4:a7:37:de:1c:03:5a:9b:c1:65:2c:db:
                    f1:f0:c1:fc:8c:1c:b1:94:aa:c1:5e:07:a4:05:7f:
                    76:2d:22:26:40:e5:63:18:8a:6f:e0:2a:c0:b4:43:
                    e5:aa:42:49:b9:05:51:16:69:a5:52:af:0e:48:92:
                    6b:65:4d:7a:79:23:a4:08:94:73:aa:67:2c:4a:d5:
                    8e:62:18:f9:33:b2:3d:95:01:5f:c7:b1:24:32:7e:
                    50:b7:02:93:1a:ba:8b:02:a0:79:5f:6d:0f:8c:56:
                    c5:ed:3e:9e:1c:31:6e:b9:0a:6c:25:8f:ba:92:dd:
                    01:4f:27:0c:38:d9:3a:22:7d:ce:61:d4:d7:6a:a7:
                    10:46:a2:e5:8b:6e:1c:bc:3f:d9:59:32:9e:7b:8d:
                    f6:45:6c:a8:2c:fb:7b:89:a9:41:cd:18:75:e0:0b:
                    17:12:b7:7c:a9:93:72:bb:4f:ab:57:f2:44:46:44:
                    7b:e6:3b:2f:f9:a0:9f:14:58:31:a3:8e:60:dc:bc:
                    7c:d2:35:e1:1d:26:22:53:23:61:ad:34:60:cd:ae:
                    77:fc:a7:ba:26:c6:cb:c2:87:3f:56:e7:b4:5e:e3:
                    d7:4e:ff:17:60:ef:35:ea:b1:af:94:cb:29:54:2c:
                    2b:01:51:59:40:61:0e:ca:b1:9d:ab:09:06:b9:7b:
                    ab:1f:9b:98:15:37:c7:78:61:fb:f5:77:58:b5:2c:
                    c4:6b:21:02:4a:fb:f6:58:c1:c9:b4:25:37:3c:98:
                    6a:0c:91:c7:53:92:c4:49:1b:f4:1f:38:5d:d5:34:
                    aa:58:b7:26:02:d0:88:53:0e:c3:8a:c7:49:9e:cc:
                    18:39:fd:56:86:2e:52:ff:d8:11:95:fa:31:9d:c9:
                    03:a1:aa:04:93:3e:ce:85:fa:16:70:9d:54:0a:6d:
                    47:c5:4a:2c:04:06:db:cd:b0:89:1a:40:de:c1:65:
                    77:5e:a3:56:7c:9c:dd:ef:fb:d5:78:d6:74:d6:46:
                    97:81:b0:20:b1:62:86:02:ae:35:30:10:a1:6b:20:
                    c4:b4:33
                Exponent: 65537 (0x10001)
        X509v3 extensions:
            X509v3 Basic Constraints: 
                CA:FALSE
            Netscape Comment: 
                Easy-RSA Generated Certificate
            X509v3 Subject Key Identifier: 
                AA:80:80:8E:E7:4B:DF:23:D6:54:61:E2:3D:D0:D1:EB:DB:10:4A:B2
            X509v3 Authority Key Identifier: 
                keyid:12:CD:60:04:D2:A0:80:9E:70:ED:C6:99:B8:7B:2C:C6:52:FD:19:A1
                DirName:/C=US/ST=OH/L=Columbus/O=VikingVPN/OU=MyOrganizationalUnit/CN=VikingVPN CA/name=EasyRSA/emailAddress=me@myhost.mydomain
                serial:CF:35:85:EE:80:BF:2A:3E

            X509v3 Extended Key Usage: 
                TLS Web Client Authentication
            X509v3 Key Usage: 
                Digital Signature
    Signature Algorithm: md5WithRSAEncryption
         97:98:e1:78:85:bd:3e:a2:6a:36:fb:71:1a:52:bc:3c:eb:03:
         96:87:5e:fb:31:94:ad:b6:32:44:e8:00:e3:38:7e:cd:fd:98:
         2f:5f:be:9e:a4:5a:07:53:8a:3c:12:80:04:e7:73:c6:c0:e5:
         cd:94:3a:e6:b3:3a:15:20:7b:9c:2c:67:86:df:da:ff:8a:95:
         0c:5e:0f:45:d0:94:4f:6c:61:e7:01:f4:bf:75:e9:0a:09:e1:
         0d:10:60:2b:57:74:b2:3d:fe:a2:a9:05:89:f0:4d:9a:17:4b:
         16:18:22:74:32:d1:0c:0c:2d:24:e7:02:d4:0d:7c:87:c0:26:
         fb:1e:39:08:50:5e:9d:60:09:46:dc:b3:f8:3f:d1:3a:2a:86:
         64:bd:c5:f6:d8:01:fe:2f:30:1c:06:16:5d:05:5a:5b:b8:2a:
         e9:7b:77:0e:1e:9a:17:53:10:e2:e2:64:e0:6f:fb:6b:29:5d:
         fe:76:82:cd:12:5c:5c:0f:6b:ac:11:68:32:75:69:22:77:e0:
         df:d3:de:ed:37:b2:fe:f7:b6:6b:65:28:8e:2f:ea:83:0d:bd:
         35:0a:26:f5:1d:cb:e2:52:69:1d:8c:74:21:92:d1:91:a8:e4:
         d0:37:8f:c8:a7:e8:96:03:76:47:19:7a:15:28:45:a1:86:59:
         15:b9:76:d6:fc:b0:99:f9:4c:4d:8f:b1:ab:34:f9:3b:a6:05:
         9f:43:0a:6a:ea:ff:51:fe:38:d6:b3:68:a4:ea:cb:e3:cc:7a:
         5e:04:ea:e2:d5:59:8f:23:c4:5d:c3:52:cc:58:6d:22:a7:58:
         ea:b3:b6:15:79:17:98:bc:ee:84:f1:7f:1c:fb:91:51:31:9c:
         3b:f6:30:3e:06:5e:5f:7e:36:73:bd:29:2f:6d:61:61:14:bc:
         7b:0d:85:4c:20:d1:38:1e:f0:5b:46:c2:5c:f4:5c:15:ef:f0:
         16:cd:6b:50:e7:1b:b8:3f:b7:61:20:db:17:44:7c:05:1a:3c:
         cc:d2:c8:d9:35:f2:33:d1:03:81:8d:cf:11:73:71:30:c8:4f:
         1e:a4:69:cb:31:b7:5c:15:11:d1:54:61:40:49:66:03:30:a5:
         0f:1c:d1:6f:0a:5d:26:7e:64:fd:3e:6d:ae:87:68:97:d6:b3:
         ff:c0:96:91:f6:98:17:6d:bb:ba:4a:e2:c0:31:79:b8:5d:bc:
         7a:09:83:6d:fe:3c:0e:8b:cd:25:31:8e:3f:69:aa:ff:f8:19:
         2c:01:b1:2c:dd:a7:b5:b8:fd:ca:d3:40:1a:6a:53:c2:98:40:
         a5:7d:64:ab:f5:a3:e1:ba:fb:c4:d4:9b:f7:49:68:fc:f4:db:
         e7:7b:d0:77:56:66:86:2e
-----BEGIN CERTIFICATE-----
MIIGrDCCBJSgAwIBAgICCeUwDQYJKoZIhvcNAQEEBQAwgawxCzAJBgNVBAYTAlVT
MQswCQYDVQQIEwJPSDERMA8GA1UEBxMIQ29sdW1idXMxEjAQBgNVBAoTCVZpa2lu
Z1ZQTjEdMBsGA1UECxMUTXlPcmdhbml6YXRpb25hbFVuaXQxFTATBgNVBAMTDFZp
a2luZ1ZQTiBDQTEQMA4GA1UEKRMHRWFzeVJTQTEhMB8GCSqGSIb3DQEJARYSbWVA
bXlob3N0Lm15ZG9tYWluMB4XDTE0MDgxMTA0NDYyNFoXDTI0MDgwODA0NDYyNFow
HjEcMBoGA1UEAxMTQ2xpZW50ODc5Q2VydDAyMjBjMzCCAiIwDQYJKoZIhvcNAQEB
BQADggIPADCCAgoCggIBAOYdF5iyxf1Tj3snAaJy/TiY0FKx7jTn9EVtR0C12u1Q
raKf6UfhmGjdamU9ZGuqjjUAU+AHIDzDJ1iBwcHGXZoM8sOdfbGqvAFCNF5C332+
05z7vl6ZBDmCILFxHlg3zCsn6wGDX/w1dzA8LgNCOey0GhaA7wrDIR6mxKc33hwD
WpvBZSzb8fDB/IwcsZSqwV4HpAV/di0iJkDlYxiKb+AqwLRD5apCSbkFURZppVKv
DkiSa2VNenkjpAiUc6pnLErVjmIY+TOyPZUBX8exJDJ+ULcCkxq6iwKgeV9tD4xW
xe0+nhwxbrkKbCWPupLdAU8nDDjZOiJ9zmHU12qnEEai5YtuHLw/2VkynnuN9kVs
qCz7e4mpQc0YdeALFxK3fKmTcrtPq1fyREZEe+Y7L/mgnxRYMaOOYNy8fNI14R0m
IlMjYa00YM2ud/ynuibGy8KHP1bntF7j107/F2DvNeqxr5TLKVQsKwFRWUBhDsqx
nasJBrl7qx+bmBU3x3hh+/V3WLUsxGshAkr79ljBybQlNzyYagyRx1OSxEkb9B84
XdU0qli3JgLQiFMOw4rHSZ7MGDn9VoYuUv/YEZX6MZ3JA6GqBJM+zoX6FnCdVApt
R8VKLAQG282wiRpA3sFld16jVnyc3e/71XjWdNZGl4GwILFihgKuNTAQoWsgxLQz
AgMBAAGjggFjMIIBXzAJBgNVHRMEAjAAMC0GCWCGSAGG+EIBDQQgFh5FYXN5LVJT
QSBHZW5lcmF0ZWQgQ2VydGlmaWNhdGUwHQYDVR0OBBYEFKqAgI7nS98j1lRh4j3Q
0evbEEqyMIHhBgNVHSMEgdkwgdaAFBLNYATSoICecO3Gmbh7LMZS/RmhoYGypIGv
MIGsMQswCQYDVQQGEwJVUzELMAkGA1UECBMCT0gxETAPBgNVBAcTCENvbHVtYnVz
MRIwEAYDVQQKEwlWaWtpbmdWUE4xHTAbBgNVBAsTFE15T3JnYW5pemF0aW9uYWxV
bml0MRUwEwYDVQQDEwxWaWtpbmdWUE4gQ0ExEDAOBgNVBCkTB0Vhc3lSU0ExITAf
BgkqhkiG9w0BCQEWEm1lQG15aG9zdC5teWRvbWFpboIJAM81he6Avyo+MBMGA1Ud
JQQMMAoGCCsGAQUFBwMCMAsGA1UdDwQEAwIHgDANBgkqhkiG9w0BAQQFAAOCAgEA
l5jheIW9PqJqNvtxGlK8POsDlode+zGUrbYyROgA4zh+zf2YL1++nqRaB1OKPBKA
BOdzxsDlzZQ65rM6FSB7nCxnht/a/4qVDF4PRdCUT2xh5wH0v3XpCgnhDRBgK1d0
sj3+oqkFifBNmhdLFhgidDLRDAwtJOcC1A18h8Am+x45CFBenWAJRtyz+D/ROiqG
ZL3F9tgB/i8wHAYWXQVaW7gq6Xt3Dh6aF1MQ4uJk4G/7ayld/naCzRJcXA9rrBFo
MnVpInfg39Pe7Tey/ve2a2Uoji/qgw29NQom9R3L4lJpHYx0IZLRkajk0DePyKfo
lgN2Rxl6FShFoYZZFbl21vywmflMTY+xqzT5O6YFn0MKaur/Uf441rNopOrL48x6
XgTq4tVZjyPEXcNSzFhtIqdY6rO2FXkXmLzuhPF/HPuRUTGcO/YwPgZeX342c70p
L21hYRS8ew2FTCDROB7wW0bCXPRcFe/wFs1rUOcbuD+3YSDbF0R8BRo8zNLI2TXy
M9EDgY3PEXNxMMhPHqRpyzG3XBUR0VRhQElmAzClDxzRbwpdJn5k/T5trodol9az
/8CWkfaYF227ukriwDF5uF28egmDbf48DovNJTGOP2mq//gZLAGxLN2ntbj9ytNA
GmpTwphApX1kq/Wj4br7xNSb90lo/PTb53vQd1Zmhi4=
-----END CERTIFICATE-----
