Certificate:
    Data:
        Version: 3 (0x2)
        Serial Number: 7470 (0x1d2e)
    Signature Algorithm: md5WithRSAEncryption
        Issuer: C=US, ST=OH, L=Columbus, O=VikingVPN, OU=MyOrganizationalUnit, CN=VikingVPN CA/name=EasyRSA/emailAddress=me@myhost.mydomain
        Validity
            Not Before: Mar 10 02:12:44 2016 GMT
            Not After : Mar  8 02:12:44 2026 GMT
        Subject: CN=Client2223Certfa914b
        Subject Public Key Info:
            Public Key Algorithm: rsaEncryption
                Public-Key: (4096 bit)
                Modulus:
                    00:d2:fc:70:0b:21:78:f6:4b:aa:3f:82:8a:5e:14:
                    41:79:c9:20:88:a1:cf:cf:3d:01:1e:6b:19:16:71:
                    73:d4:f4:31:6a:03:17:8f:69:04:15:99:3d:6d:b5:
                    08:aa:23:ac:75:1e:ba:b1:f6:3b:ea:0a:6d:d0:3e:
                    d6:7c:e4:66:40:e8:ef:08:f1:73:f5:1e:fe:ad:d4:
                    26:4a:4a:d6:b3:c2:ba:2e:a8:91:76:59:80:cf:10:
                    4e:38:8f:4e:06:9f:f4:53:91:9b:a3:56:7f:ec:97:
                    43:5d:47:73:9c:a9:81:44:68:33:36:c8:24:15:42:
                    70:78:7a:a9:5f:53:2b:35:bd:5c:e6:35:12:e7:17:
                    f3:8c:22:bd:bf:14:f7:be:ee:37:c2:97:9e:f5:f5:
                    ed:f9:68:b6:08:54:98:41:04:d1:dc:c1:e3:15:8e:
                    39:f9:73:a6:24:7e:ea:52:41:17:d1:85:18:c7:3d:
                    ba:4b:a2:75:fc:c1:37:5c:d9:2a:6f:c6:6c:3f:f7:
                    a1:78:83:74:7a:17:13:94:5a:8c:7d:4d:ed:7c:ac:
                    78:f1:b7:c7:54:25:7b:b9:1c:04:d8:1f:fb:10:da:
                    a4:89:8f:5f:19:37:db:d1:64:29:aa:5e:1a:65:cb:
                    de:e6:88:46:6e:35:35:9e:d1:7e:5e:eb:84:8e:39:
                    2e:15:4d:0a:cb:c7:f6:6b:09:9a:aa:03:1c:2f:db:
                    26:b5:f5:72:59:95:62:67:b5:67:5d:e4:f2:9f:6f:
                    ec:3d:96:d1:1b:be:2f:94:70:58:e6:8a:03:8c:c3:
                    12:14:9b:a5:d5:21:22:c5:49:cc:0e:8b:02:5f:f1:
                    75:58:81:f1:ad:22:06:1f:bf:12:98:c9:d2:bd:fa:
                    ca:aa:12:df:88:c3:03:f8:f6:43:04:20:db:53:7a:
                    d1:7b:b9:c1:45:f1:c9:33:31:36:37:38:bb:27:bd:
                    5c:05:5a:2f:56:c5:8e:ee:eb:81:fb:21:a7:b3:36:
                    0c:c8:a9:cc:5b:20:5f:97:62:63:5d:ce:30:6b:29:
                    ff:8c:ea:98:8c:61:67:bf:74:d9:97:9a:98:ea:68:
                    f3:f1:e0:ea:27:99:fd:1b:1a:4f:ab:c8:1e:1c:0d:
                    a1:cc:35:df:56:70:e8:03:a8:7d:32:1e:d2:24:75:
                    c7:98:29:39:dc:88:ce:5a:cb:23:29:46:e5:dd:79:
                    99:d7:c0:ac:51:6c:ee:c3:c8:42:a2:ce:71:88:4d:
                    50:89:db:7d:3f:e7:ae:1a:00:9e:7c:1f:e1:07:e2:
                    f8:b1:b3:60:cc:6b:ac:c1:88:ff:ba:fa:23:d8:86:
                    3c:0d:a5:e6:e7:a8:7c:bc:22:3a:ce:ae:05:60:0f:
                    74:05:25
                Exponent: 65537 (0x10001)
        X509v3 extensions:
            X509v3 Basic Constraints: 
                CA:FALSE
            Netscape Comment: 
                Easy-RSA Generated Certificate
            X509v3 Subject Key Identifier: 
                9E:8A:93:A0:29:D5:94:E8:81:3B:A8:95:E1:1C:C7:DA:CC:96:43:C5
            X509v3 Authority Key Identifier: 
                keyid:12:CD:60:04:D2:A0:80:9E:70:ED:C6:99:B8:7B:2C:C6:52:FD:19:A1
                DirName:/C=US/ST=OH/L=Columbus/O=VikingVPN/OU=MyOrganizationalUnit/CN=VikingVPN CA/name=EasyRSA/emailAddress=me@myhost.mydomain
                serial:CF:35:85:EE:80:BF:2A:3E

            X509v3 Extended Key Usage: 
                TLS Web Client Authentication
            X509v3 Key Usage: 
                Digital Signature
    Signature Algorithm: md5WithRSAEncryption
         04:c9:9b:63:76:8b:12:53:94:4b:48:33:9e:6d:44:64:59:55:
         20:5d:7c:3f:61:ac:b4:39:56:a3:98:bc:d0:e0:d0:25:4d:69:
         b0:7c:ae:57:3e:5f:29:0f:51:b4:ff:25:95:32:33:d8:57:85:
         7f:d8:5b:7b:6d:01:5a:48:9b:1e:05:55:3c:8e:4d:07:69:3a:
         fa:d9:27:60:4e:d9:b1:c7:54:b5:0a:d2:78:e9:2e:3f:dc:6e:
         25:a9:31:c1:97:cc:61:e7:4e:24:81:35:32:95:3d:5d:2f:01:
         a1:32:66:cd:f1:a0:15:90:99:7b:91:ae:1c:f9:0d:04:63:e7:
         18:f4:fc:c1:dc:1a:38:4f:0a:31:b6:84:19:2b:be:48:5b:80:
         ab:f2:4e:2e:1f:81:ca:c8:04:e6:5d:01:6e:30:35:ee:da:1e:
         20:e1:8d:4b:e7:29:59:22:8f:6a:fd:38:09:dc:a4:39:fc:54:
         bf:67:13:c3:e2:46:e4:78:f7:42:25:ed:75:52:0a:79:a6:f8:
         55:93:ce:ca:81:ef:5d:89:19:ab:6c:4a:3c:18:c4:b1:eb:d2:
         a4:a3:07:4f:6c:aa:8f:cb:93:ef:88:0c:ca:39:95:9f:e5:d3:
         62:1c:47:a2:9f:b1:68:8f:e3:6f:09:d6:ae:07:2a:31:e8:b4:
         46:db:c6:35:aa:42:9e:5d:f2:ec:33:38:41:f3:b0:33:0c:de:
         84:8c:ad:32:50:d3:e4:b2:f1:7d:9c:cf:9f:d4:12:84:c2:24:
         6f:48:bf:f2:78:3f:1d:b8:43:2a:de:a1:46:89:fa:e4:f1:bd:
         64:af:74:7f:93:93:0b:6f:b5:14:17:59:50:43:69:ef:5c:6f:
         ea:9b:80:41:3d:37:74:76:18:8b:8b:2d:a0:61:fb:dc:a6:43:
         89:a0:95:1d:2f:31:8d:33:f0:ed:05:0e:bd:48:11:4f:ef:cd:
         fb:9a:43:55:84:7d:2d:df:2e:ff:4f:f8:7a:b0:96:85:0a:c1:
         83:87:8d:50:34:9c:c2:92:fe:d7:7a:52:d1:62:4b:9b:4e:c2:
         f4:27:5e:b5:04:6f:fe:04:d7:38:bb:85:42:12:5b:c9:6e:8f:
         f6:a9:43:47:86:c9:29:7c:b5:08:8e:d7:f1:1a:dd:35:62:bd:
         8a:42:63:02:80:cc:46:94:47:eb:52:fc:f6:b1:68:ae:2b:51:
         b4:06:29:c2:8f:df:e2:74:d0:dc:6b:f3:41:bc:6b:11:7b:87:
         06:18:fc:b0:49:3c:a7:82:8b:c7:c9:9b:60:34:c2:5a:6e:f4:
         ab:8d:d0:24:c0:27:0d:9a:5c:7a:df:79:86:c1:c7:2d:4d:c6:
         ac:ff:16:48:63:e4:93:fd
-----BEGIN CERTIFICATE-----
MIIGrTCCBJWgAwIBAgICHS4wDQYJKoZIhvcNAQEEBQAwgawxCzAJBgNVBAYTAlVT
MQswCQYDVQQIEwJPSDERMA8GA1UEBxMIQ29sdW1idXMxEjAQBgNVBAoTCVZpa2lu
Z1ZQTjEdMBsGA1UECxMUTXlPcmdhbml6YXRpb25hbFVuaXQxFTATBgNVBAMTDFZp
a2luZ1ZQTiBDQTEQMA4GA1UEKRMHRWFzeVJTQTEhMB8GCSqGSIb3DQEJARYSbWVA
bXlob3N0Lm15ZG9tYWluMB4XDTE2MDMxMDAyMTI0NFoXDTI2MDMwODAyMTI0NFow
HzEdMBsGA1UEAxMUQ2xpZW50MjIyM0NlcnRmYTkxNGIwggIiMA0GCSqGSIb3DQEB
AQUAA4ICDwAwggIKAoICAQDS/HALIXj2S6o/gopeFEF5ySCIoc/PPQEeaxkWcXPU
9DFqAxePaQQVmT1ttQiqI6x1Hrqx9jvqCm3QPtZ85GZA6O8I8XP1Hv6t1CZKStaz
wrouqJF2WYDPEE44j04Gn/RTkZujVn/sl0NdR3OcqYFEaDM2yCQVQnB4eqlfUys1
vVzmNRLnF/OMIr2/FPe+7jfCl5719e35aLYIVJhBBNHcweMVjjn5c6YkfupSQRfR
hRjHPbpLonX8wTdc2Spvxmw/96F4g3R6FxOUWox9Te18rHjxt8dUJXu5HATYH/sQ
2qSJj18ZN9vRZCmqXhply97miEZuNTWe0X5e64SOOS4VTQrLx/ZrCZqqAxwv2ya1
9XJZlWJntWdd5PKfb+w9ltEbvi+UcFjmigOMwxIUm6XVISLFScwOiwJf8XVYgfGt
IgYfvxKYydK9+sqqEt+IwwP49kMEINtTetF7ucFF8ckzMTY3OLsnvVwFWi9WxY7u
64H7IaezNgzIqcxbIF+XYmNdzjBrKf+M6piMYWe/dNmXmpjqaPPx4Oonmf0bGk+r
yB4cDaHMNd9WcOgDqH0yHtIkdceYKTnciM5ayyMpRuXdeZnXwKxRbO7DyEKiznGI
TVCJ230/564aAJ58H+EH4vixs2DMa6zBiP+6+iPYhjwNpebnqHy8IjrOrgVgD3QF
JQIDAQABo4IBYzCCAV8wCQYDVR0TBAIwADAtBglghkgBhvhCAQ0EIBYeRWFzeS1S
U0EgR2VuZXJhdGVkIENlcnRpZmljYXRlMB0GA1UdDgQWBBSeipOgKdWU6IE7qJXh
HMfazJZDxTCB4QYDVR0jBIHZMIHWgBQSzWAE0qCAnnDtxpm4eyzGUv0ZoaGBsqSB
rzCBrDELMAkGA1UEBhMCVVMxCzAJBgNVBAgTAk9IMREwDwYDVQQHEwhDb2x1bWJ1
czESMBAGA1UEChMJVmlraW5nVlBOMR0wGwYDVQQLExRNeU9yZ2FuaXphdGlvbmFs
VW5pdDEVMBMGA1UEAxMMVmlraW5nVlBOIENBMRAwDgYDVQQpEwdFYXN5UlNBMSEw
HwYJKoZIhvcNAQkBFhJtZUBteWhvc3QubXlkb21haW6CCQDPNYXugL8qPjATBgNV
HSUEDDAKBggrBgEFBQcDAjALBgNVHQ8EBAMCB4AwDQYJKoZIhvcNAQEEBQADggIB
AATJm2N2ixJTlEtIM55tRGRZVSBdfD9hrLQ5VqOYvNDg0CVNabB8rlc+XykPUbT/
JZUyM9hXhX/YW3ttAVpImx4FVTyOTQdpOvrZJ2BO2bHHVLUK0njpLj/cbiWpMcGX
zGHnTiSBNTKVPV0vAaEyZs3xoBWQmXuRrhz5DQRj5xj0/MHcGjhPCjG2hBkrvkhb
gKvyTi4fgcrIBOZdAW4wNe7aHiDhjUvnKVkij2r9OAncpDn8VL9nE8PiRuR490Il
7XVSCnmm+FWTzsqB712JGatsSjwYxLHr0qSjB09sqo/Lk++IDMo5lZ/l02IcR6Kf
sWiP428J1q4HKjHotEbbxjWqQp5d8uwzOEHzsDMM3oSMrTJQ0+Sy8X2cz5/UEoTC
JG9Iv/J4Px24QyreoUaJ+uTxvWSvdH+TkwtvtRQXWVBDae9cb+qbgEE9N3R2GIuL
LaBh+9ymQ4mglR0vMY0z8O0FDr1IEU/vzfuaQ1WEfS3fLv9P+HqwloUKwYOHjVA0
nMKS/td6UtFiS5tOwvQnXrUEb/4E1zi7hUISW8luj/apQ0eGySl8tQiO1/Ea3TVi
vYpCYwKAzEaUR+tS/PaxaK4rUbQGKcKP3+J00Nxr80G8axF7hwYY/LBJPKeCi8fJ
m2A0wlpu9KuN0CTAJw2aXHrfeYbBxy1Nxqz/Fkhj5JP9
-----END CERTIFICATE-----
