Certificate:
    Data:
        Version: 3 (0x2)
        Serial Number: 3572 (0xdf4)
    Signature Algorithm: md5WithRSAEncryption
        Issuer: C=US, ST=OH, L=Columbus, O=VikingVPN, OU=MyOrganizationalUnit, CN=VikingVPN CA/name=EasyRSA/emailAddress=me@myhost.mydomain
        Validity
            Not Before: Dec  2 01:35:11 2014 GMT
            Not After : Nov 29 01:35:11 2024 GMT
        Subject: CN=Client1230Certf7e5f0
        Subject Public Key Info:
            Public Key Algorithm: rsaEncryption
                Public-Key: (4096 bit)
                Modulus:
                    00:aa:54:2c:ba:f7:ce:44:b2:e7:bd:86:c1:a5:39:
                    b0:51:8a:98:59:27:2c:3c:26:6c:12:fa:1b:f6:77:
                    1b:a3:f9:41:d3:30:6a:1d:c4:19:26:b7:f8:25:2e:
                    78:a4:49:87:89:73:dd:de:c4:26:73:7e:c2:22:00:
                    9b:e2:ea:d8:c1:b5:a5:e0:47:63:5b:2c:70:c9:94:
                    ae:65:e5:10:3a:00:13:5b:9d:d6:7c:a9:b6:63:a2:
                    b9:93:13:9c:79:4c:b2:74:c7:1a:82:6a:49:1e:1f:
                    14:ac:95:6d:26:21:42:21:06:8f:9a:68:74:e2:8c:
                    7d:8d:8a:14:28:48:fa:b8:d1:a0:54:90:fe:87:0b:
                    32:00:43:da:3d:59:09:0a:9e:e8:53:dd:3d:88:74:
                    f9:2d:4a:97:53:0c:3c:c1:d7:76:dd:0d:81:80:18:
                    d8:62:e9:69:d6:40:e1:1f:ac:b0:9d:11:3d:87:d1:
                    6b:5b:4c:0c:bc:1a:7f:20:2c:f8:f0:5d:11:20:94:
                    09:bf:73:72:04:6c:e5:f1:e4:90:5b:d8:2a:ac:29:
                    33:ff:e7:03:e3:82:7a:5d:cf:d8:4d:2a:c3:6d:2e:
                    dc:ce:e1:e5:36:4a:2e:d9:a3:a3:fd:2f:06:89:ba:
                    7d:fc:3b:a1:e7:fa:2c:f3:ce:23:18:0e:f1:53:a0:
                    39:4e:14:1a:cd:9e:d3:66:81:3d:a0:e4:6c:80:6d:
                    40:d6:14:57:05:2f:5d:82:27:f3:78:91:af:ab:97:
                    09:e9:a9:c1:40:ab:6b:9e:4a:1e:cd:16:dc:43:a4:
                    a1:1f:4f:c7:10:58:8d:8d:54:54:b5:13:f0:80:b4:
                    ee:5d:29:c4:d1:9c:33:fc:59:04:7f:78:3d:89:f9:
                    80:81:61:2f:79:de:93:5e:7b:80:fb:fe:af:1d:ed:
                    28:19:4d:46:f1:7e:66:80:89:d1:74:3e:7e:f5:6a:
                    40:57:38:e6:12:c9:8a:e8:d0:2c:bb:87:70:d4:bf:
                    80:06:71:ef:e4:d9:9e:23:4d:0c:36:72:8c:2f:09:
                    7d:db:43:26:8b:a9:e6:15:68:cb:be:5f:8e:2c:7a:
                    cb:39:9c:5f:b4:a2:f8:14:cb:ec:02:02:5a:58:ab:
                    ba:a2:a2:12:26:b3:db:81:5d:ba:53:73:2e:62:a5:
                    03:20:2d:ec:bb:92:58:64:81:a9:c6:0a:19:3b:de:
                    5e:40:ea:98:52:4d:cc:ce:38:95:86:c9:0b:ec:8e:
                    c9:4f:00:b4:f9:1f:01:a2:e5:f8:9a:57:6b:1f:fc:
                    10:a5:68:1e:88:7d:20:00:ec:75:ea:32:68:ff:e6:
                    6f:c2:c4:21:05:61:60:42:ce:34:20:86:2c:10:73:
                    14:1e:f1
                Exponent: 65537 (0x10001)
        X509v3 extensions:
            X509v3 Basic Constraints: 
                CA:FALSE
            Netscape Comment: 
                Easy-RSA Generated Certificate
            X509v3 Subject Key Identifier: 
                8D:62:16:3E:40:50:A1:75:F0:86:27:78:6B:D8:49:31:83:0C:52:8F
            X509v3 Authority Key Identifier: 
                keyid:12:CD:60:04:D2:A0:80:9E:70:ED:C6:99:B8:7B:2C:C6:52:FD:19:A1
                DirName:/C=US/ST=OH/L=Columbus/O=VikingVPN/OU=MyOrganizationalUnit/CN=VikingVPN CA/name=EasyRSA/emailAddress=me@myhost.mydomain
                serial:CF:35:85:EE:80:BF:2A:3E

            X509v3 Extended Key Usage: 
                TLS Web Client Authentication
            X509v3 Key Usage: 
                Digital Signature
    Signature Algorithm: md5WithRSAEncryption
         09:93:c2:c9:0d:7e:ba:87:da:2f:a5:3d:63:aa:8d:31:55:ef:
         fc:37:16:7d:37:2b:f2:29:13:2d:8b:ae:af:69:f3:51:c2:75:
         25:fa:2f:48:c9:5a:6b:6c:6d:40:35:5d:10:68:c5:7d:e8:cd:
         ed:d2:4d:8b:85:fa:71:12:cc:e8:95:e0:30:68:f7:37:64:35:
         55:ae:07:6e:4d:be:a8:84:43:a6:3c:a6:49:90:7f:0d:07:d4:
         0a:aa:62:2e:1a:4c:56:9a:65:06:6e:a3:57:5b:80:ef:59:2d:
         9a:e0:32:68:41:d7:50:2a:de:67:55:4a:de:be:f2:32:3e:53:
         c6:aa:9e:91:fa:d0:ab:5d:bd:54:0c:d0:cd:33:b2:85:b2:9b:
         6d:16:07:f0:e3:a5:a6:fc:1d:2f:6a:48:2c:10:3f:47:c4:38:
         66:b7:1a:3a:ef:a3:99:86:2f:34:a9:cc:2b:6a:7e:40:3c:7a:
         12:22:5f:62:af:2e:65:61:f2:9a:a6:19:38:ba:4c:f3:7d:78:
         2c:8f:38:e8:fb:17:bb:1c:12:ca:aa:84:05:d1:b8:b7:a3:e6:
         f5:0d:6f:8c:6b:24:98:d3:17:78:91:02:eb:fe:3e:88:a9:5e:
         22:84:d3:ec:cd:f5:4a:81:91:59:aa:c7:98:5a:0c:93:3f:17:
         b5:b4:fe:39:23:1a:37:0e:5c:51:a1:ae:22:86:f6:38:52:e4:
         e4:fc:db:e3:bc:50:78:7c:4c:f6:2e:b1:0c:2f:dc:fa:1c:c9:
         3e:93:6d:20:0f:1f:c7:dc:04:c3:d8:52:81:80:2e:93:96:b9:
         29:cc:6f:14:99:b6:35:31:99:5d:8b:72:10:ab:ed:5e:b0:8d:
         0e:92:b2:9f:4d:43:d8:3f:de:e9:c3:5a:e5:8a:fb:50:72:5e:
         60:c8:84:1c:d5:14:5b:a9:57:23:90:95:43:e5:61:9e:88:6f:
         53:c0:91:05:35:78:cf:86:0b:49:8a:70:7e:70:d9:28:8e:32:
         20:37:f6:3f:d2:80:89:55:51:23:3d:38:e6:58:1a:c7:f1:da:
         94:b1:0e:5f:5b:1c:31:de:8d:0c:46:14:63:ed:04:5a:51:fb:
         48:bb:51:51:97:67:57:b6:6d:02:68:dc:b6:70:ef:fc:56:3d:
         4c:3e:81:4b:18:62:e6:58:5d:67:0a:7a:7b:92:96:07:f4:d9:
         5e:d6:40:d7:4a:6a:c5:e5:3c:bc:ef:fb:f7:05:b8:5b:53:7a:
         ad:a9:e0:96:33:6f:50:8a:94:6d:02:f0:07:6e:59:e9:c1:58:
         95:96:70:34:68:9d:65:a5:02:d2:d2:7c:17:ce:4e:98:f9:e5:
         05:70:02:cc:ed:64:41:0a
-----BEGIN CERTIFICATE-----
MIIGrTCCBJWgAwIBAgICDfQwDQYJKoZIhvcNAQEEBQAwgawxCzAJBgNVBAYTAlVT
MQswCQYDVQQIEwJPSDERMA8GA1UEBxMIQ29sdW1idXMxEjAQBgNVBAoTCVZpa2lu
Z1ZQTjEdMBsGA1UECxMUTXlPcmdhbml6YXRpb25hbFVuaXQxFTATBgNVBAMTDFZp
a2luZ1ZQTiBDQTEQMA4GA1UEKRMHRWFzeVJTQTEhMB8GCSqGSIb3DQEJARYSbWVA
bXlob3N0Lm15ZG9tYWluMB4XDTE0MTIwMjAxMzUxMVoXDTI0MTEyOTAxMzUxMVow
HzEdMBsGA1UEAxMUQ2xpZW50MTIzMENlcnRmN2U1ZjAwggIiMA0GCSqGSIb3DQEB
AQUAA4ICDwAwggIKAoICAQCqVCy6985Esue9hsGlObBRiphZJyw8JmwS+hv2dxuj
+UHTMGodxBkmt/glLnikSYeJc93exCZzfsIiAJvi6tjBtaXgR2NbLHDJlK5l5RA6
ABNbndZ8qbZjormTE5x5TLJ0xxqCakkeHxSslW0mIUIhBo+aaHTijH2NihQoSPq4
0aBUkP6HCzIAQ9o9WQkKnuhT3T2IdPktSpdTDDzB13bdDYGAGNhi6WnWQOEfrLCd
ET2H0WtbTAy8Gn8gLPjwXREglAm/c3IEbOXx5JBb2CqsKTP/5wPjgnpdz9hNKsNt
LtzO4eU2Si7Zo6P9LwaJun38O6Hn+izzziMYDvFToDlOFBrNntNmgT2g5GyAbUDW
FFcFL12CJ/N4ka+rlwnpqcFAq2ueSh7NFtxDpKEfT8cQWI2NVFS1E/CAtO5dKcTR
nDP8WQR/eD2J+YCBYS953pNee4D7/q8d7SgZTUbxfmaAidF0Pn71akBXOOYSyYro
0Cy7h3DUv4AGce/k2Z4jTQw2cowvCX3bQyaLqeYVaMu+X44sess5nF+0ovgUy+wC
AlpYq7qiohIms9uBXbpTcy5ipQMgLey7klhkganGChk73l5A6phSTczOOJWGyQvs
jslPALT5HwGi5fiaV2sf/BClaB6IfSAA7HXqMmj/5m/CxCEFYWBCzjQghiwQcxQe
8QIDAQABo4IBYzCCAV8wCQYDVR0TBAIwADAtBglghkgBhvhCAQ0EIBYeRWFzeS1S
U0EgR2VuZXJhdGVkIENlcnRpZmljYXRlMB0GA1UdDgQWBBSNYhY+QFChdfCGJ3hr
2EkxgwxSjzCB4QYDVR0jBIHZMIHWgBQSzWAE0qCAnnDtxpm4eyzGUv0ZoaGBsqSB
rzCBrDELMAkGA1UEBhMCVVMxCzAJBgNVBAgTAk9IMREwDwYDVQQHEwhDb2x1bWJ1
czESMBAGA1UEChMJVmlraW5nVlBOMR0wGwYDVQQLExRNeU9yZ2FuaXphdGlvbmFs
VW5pdDEVMBMGA1UEAxMMVmlraW5nVlBOIENBMRAwDgYDVQQpEwdFYXN5UlNBMSEw
HwYJKoZIhvcNAQkBFhJtZUBteWhvc3QubXlkb21haW6CCQDPNYXugL8qPjATBgNV
HSUEDDAKBggrBgEFBQcDAjALBgNVHQ8EBAMCB4AwDQYJKoZIhvcNAQEEBQADggIB
AAmTwskNfrqH2i+lPWOqjTFV7/w3Fn03K/IpEy2Lrq9p81HCdSX6L0jJWmtsbUA1
XRBoxX3oze3STYuF+nESzOiV4DBo9zdkNVWuB25NvqiEQ6Y8pkmQfw0H1AqqYi4a
TFaaZQZuo1dbgO9ZLZrgMmhB11Aq3mdVSt6+8jI+U8aqnpH60KtdvVQM0M0zsoWy
m20WB/Djpab8HS9qSCwQP0fEOGa3Gjrvo5mGLzSpzCtqfkA8ehIiX2KvLmVh8pqm
GTi6TPN9eCyPOOj7F7scEsqqhAXRuLej5vUNb4xrJJjTF3iRAuv+PoipXiKE0+zN
9UqBkVmqx5haDJM/F7W0/jkjGjcOXFGhriKG9jhS5OT82+O8UHh8TPYusQwv3Poc
yT6TbSAPH8fcBMPYUoGALpOWuSnMbxSZtjUxmV2LchCr7V6wjQ6Ssp9NQ9g/3unD
WuWK+1ByXmDIhBzVFFupVyOQlUPlYZ6Ib1PAkQU1eM+GC0mKcH5w2SiOMiA39j/S
gIlVUSM9OOZYGsfx2pSxDl9bHDHejQxGFGPtBFpR+0i7UVGXZ1e2bQJo3LZw7/xW
PUw+gUsYYuZYXWcKenuSlgf02V7WQNdKasXlPLzv+/cFuFtTeq2p4JYzb1CKlG0C
8AduWenBWJWWcDRonWWlAtLSfBfOTpj55QVwAsztZEEK
-----END CERTIFICATE-----
