Certificate:
    Data:
        Version: 3 (0x2)
        Serial Number: 1848 (0x738)
    Signature Algorithm: md5WithRSAEncryption
        Issuer: C=US, ST=OH, L=Columbus, O=VikingVPN, OU=MyOrganizationalUnit, CN=VikingVPN CA/name=EasyRSA/emailAddress=me@myhost.mydomain
        Validity
            Not Before: May  9 08:15:58 2014 GMT
            Not After : May  6 08:15:58 2024 GMT
        Subject: CN=Client597Cert0c5011
        Subject Public Key Info:
            Public Key Algorithm: rsaEncryption
                Public-Key: (4096 bit)
                Modulus:
                    00:c8:33:02:51:23:8d:26:40:f9:53:8f:8d:6d:87:
                    90:fa:f8:e9:61:f3:59:5d:52:1a:17:a1:5f:fb:bd:
                    4f:1d:db:93:de:63:e8:7f:3c:5c:c7:53:58:64:77:
                    22:d1:65:8d:a7:09:85:5f:e7:40:b6:f4:34:cc:64:
                    b6:81:f2:2f:74:d2:7f:c7:7e:ed:fc:95:1c:44:bd:
                    1f:3e:83:41:29:8a:95:fa:08:ae:73:f0:34:d2:8d:
                    51:f2:ec:9b:db:c4:a9:88:a5:71:e3:00:3e:73:03:
                    bd:91:34:27:b0:8a:83:94:ee:fe:6b:9c:53:08:ef:
                    dc:a7:fc:b7:7a:5d:4d:cc:85:18:5c:f2:3a:28:eb:
                    57:28:c0:ab:eb:47:3b:0c:ca:57:c7:1b:0f:20:2d:
                    e2:0c:85:79:7a:f8:18:15:69:22:bc:89:07:18:30:
                    f8:13:96:da:b6:88:67:da:29:ae:cd:76:a0:0a:04:
                    f6:9b:c1:87:75:b1:bf:b2:db:73:91:3d:d3:0b:25:
                    9d:c1:12:69:86:6b:f1:99:c7:b2:36:61:ca:a7:c5:
                    d4:30:63:d9:d6:2c:86:ed:45:c2:6b:a8:0a:f6:54:
                    87:c0:fd:5e:e6:8f:c4:31:80:f8:d5:f3:2a:9d:4a:
                    7a:bc:dc:f5:b7:33:7e:be:18:36:0a:77:e1:fc:78:
                    83:4d:79:9a:1f:88:e4:7b:db:95:16:97:05:cb:d5:
                    43:dd:c6:ba:e2:8b:77:92:55:a8:9b:9c:74:b9:0c:
                    ed:ec:8a:f7:9d:0e:a7:c0:d0:11:a0:ee:53:6e:21:
                    07:4c:41:6b:d9:7b:f7:c3:48:61:f9:a7:97:df:92:
                    f4:82:ed:92:7f:12:cc:51:50:41:6e:d5:4d:fe:39:
                    95:f7:62:01:c6:da:0d:47:6a:22:d4:ac:de:96:47:
                    65:b3:88:14:6f:bb:df:9e:ba:86:19:18:e9:06:2f:
                    c9:45:75:6c:13:f1:80:ba:32:9a:1d:8a:17:1c:21:
                    e6:a0:d0:d5:3c:fa:60:58:4a:b2:7c:db:39:38:ab:
                    48:5d:a5:2a:ab:c2:b7:7f:3d:02:ab:05:cf:39:76:
                    25:f6:ab:fe:a5:ef:9b:c5:65:77:c8:4f:7c:93:ad:
                    cb:be:44:e7:50:b1:15:87:55:74:ae:3c:7a:7f:a9:
                    05:cd:93:f3:68:57:0d:d2:50:b3:8f:4d:95:fb:a1:
                    e6:ef:3b:fd:eb:00:55:50:16:3b:cf:8f:e9:53:fd:
                    6c:53:12:62:7c:cb:bf:56:a3:6b:51:a7:f0:ef:80:
                    fe:98:df:4e:3e:76:c4:40:64:d3:82:79:c1:82:9f:
                    3d:e1:9a:aa:88:c7:26:da:5a:ac:a8:94:48:de:35:
                    5c:9a:bd
                Exponent: 65537 (0x10001)
        X509v3 extensions:
            X509v3 Basic Constraints: 
                CA:FALSE
            Netscape Comment: 
                Easy-RSA Generated Certificate
            X509v3 Subject Key Identifier: 
                CE:1F:57:46:1A:99:53:B0:1E:1F:97:A5:F0:87:F9:88:1E:A4:DE:C2
            X509v3 Authority Key Identifier: 
                keyid:12:CD:60:04:D2:A0:80:9E:70:ED:C6:99:B8:7B:2C:C6:52:FD:19:A1
                DirName:/C=US/ST=OH/L=Columbus/O=VikingVPN/OU=MyOrganizationalUnit/CN=VikingVPN CA/name=EasyRSA/emailAddress=me@myhost.mydomain
                serial:CF:35:85:EE:80:BF:2A:3E

            X509v3 Extended Key Usage: 
                TLS Web Client Authentication
            X509v3 Key Usage: 
                Digital Signature
    Signature Algorithm: md5WithRSAEncryption
         13:86:1d:26:38:cc:5c:3c:a2:ad:20:3b:5a:7d:8d:5a:57:48:
         ca:c3:16:af:36:99:fb:a3:04:2c:ba:1f:43:5c:2f:2d:61:a9:
         f5:ae:86:36:1a:7d:d9:18:3f:21:39:95:ad:8b:cf:b2:66:c3:
         23:74:19:d0:f2:e2:6d:49:8c:e8:f9:e5:0f:43:23:d5:fa:66:
         49:19:96:4c:fd:09:e8:b0:5c:fe:9a:ac:12:d3:2d:09:f7:8c:
         f3:f8:9a:f5:7f:c6:7a:9f:1f:0f:29:58:d2:a8:1f:84:7d:b2:
         08:a7:7d:05:75:8c:63:a9:16:75:4c:61:71:b4:5a:e7:9e:55:
         31:18:1e:98:8b:4b:0d:cd:0c:ad:f7:c5:4c:d2:e8:4c:aa:3d:
         1c:32:75:bf:3a:38:7d:8a:8c:95:01:55:6f:79:8e:9c:76:e3:
         b5:e5:c7:7e:fb:b1:49:df:91:0b:c2:fe:9c:01:94:35:82:ee:
         09:f5:ce:d0:c4:e1:b1:2d:bb:c2:ed:d0:63:ff:67:eb:a9:d3:
         77:be:cc:5e:e6:f1:9d:9e:da:0b:66:e1:2d:4a:10:d6:6e:8c:
         2f:0e:60:4f:cc:1a:36:3a:40:7f:fa:4e:07:ad:7b:35:d1:15:
         7d:61:31:8c:65:2f:82:ea:1e:82:51:49:b1:f8:fa:a1:5c:99:
         13:b6:a9:23:f6:ad:0f:ce:4b:e9:04:5d:93:d6:aa:5a:e6:1e:
         f1:d1:df:19:bf:f0:9e:3a:cc:12:6d:6b:50:fd:eb:ab:9e:fc:
         11:98:a4:e7:11:85:a3:b7:59:a9:b6:9a:46:b1:c8:51:f9:0b:
         94:03:2e:a0:18:78:c5:a7:4a:33:53:f6:97:74:3b:2a:d0:03:
         7a:9c:a1:90:8b:00:9b:b0:d7:77:b2:f9:4d:27:43:66:41:8c:
         20:5e:91:5b:4d:55:c2:c6:99:f5:d9:cd:13:9b:32:16:1c:ec:
         de:0d:0a:b5:c5:68:96:8c:78:40:b0:21:7d:34:f9:b8:0b:91:
         be:5c:bf:65:a3:b7:2d:2b:71:8e:d2:76:43:b3:9b:f5:f7:bc:
         32:28:0d:00:c8:92:21:bd:f6:b9:68:68:a9:f6:98:4d:c9:cf:
         d1:41:4c:8b:58:52:fe:3a:bb:be:65:45:73:53:04:e5:0c:a4:
         55:e2:17:5d:0c:b5:96:d3:24:77:ef:de:49:09:ff:40:76:da:
         25:5c:37:65:39:c3:51:23:42:7f:55:18:fa:78:fe:1c:37:73:
         95:b0:eb:09:a8:1d:ee:a5:10:d4:91:17:d3:66:cf:49:79:56:
         6c:a7:7f:59:73:f3:8c:4a:67:b1:4a:60:3c:2b:bb:a1:15:66:
         f5:9c:47:8d:a8:c8:24:3f
-----BEGIN CERTIFICATE-----
MIIGrDCCBJSgAwIBAgICBzgwDQYJKoZIhvcNAQEEBQAwgawxCzAJBgNVBAYTAlVT
MQswCQYDVQQIEwJPSDERMA8GA1UEBxMIQ29sdW1idXMxEjAQBgNVBAoTCVZpa2lu
Z1ZQTjEdMBsGA1UECxMUTXlPcmdhbml6YXRpb25hbFVuaXQxFTATBgNVBAMTDFZp
a2luZ1ZQTiBDQTEQMA4GA1UEKRMHRWFzeVJTQTEhMB8GCSqGSIb3DQEJARYSbWVA
bXlob3N0Lm15ZG9tYWluMB4XDTE0MDUwOTA4MTU1OFoXDTI0MDUwNjA4MTU1OFow
HjEcMBoGA1UEAxMTQ2xpZW50NTk3Q2VydDBjNTAxMTCCAiIwDQYJKoZIhvcNAQEB
BQADggIPADCCAgoCggIBAMgzAlEjjSZA+VOPjW2HkPr46WHzWV1SGhehX/u9Tx3b
k95j6H88XMdTWGR3ItFljacJhV/nQLb0NMxktoHyL3TSf8d+7fyVHES9Hz6DQSmK
lfoIrnPwNNKNUfLsm9vEqYilceMAPnMDvZE0J7CKg5Tu/mucUwjv3Kf8t3pdTcyF
GFzyOijrVyjAq+tHOwzKV8cbDyAt4gyFeXr4GBVpIryJBxgw+BOW2raIZ9oprs12
oAoE9pvBh3Wxv7Lbc5E90wslncESaYZr8ZnHsjZhyqfF1DBj2dYshu1FwmuoCvZU
h8D9XuaPxDGA+NXzKp1Kerzc9bczfr4YNgp34fx4g015mh+I5HvblRaXBcvVQ93G
uuKLd5JVqJucdLkM7eyK950Op8DQEaDuU24hB0xBa9l798NIYfmnl9+S9ILtkn8S
zFFQQW7VTf45lfdiAcbaDUdqItSs3pZHZbOIFG+73566hhkY6QYvyUV1bBPxgLoy
mh2KFxwh5qDQ1Tz6YFhKsnzbOTirSF2lKqvCt389AqsFzzl2Jfar/qXvm8Vld8hP
fJOty75E51CxFYdVdK48en+pBc2T82hXDdJQs49Nlfuh5u87/esAVVAWO8+P6VP9
bFMSYnzLv1aja1Gn8O+A/pjfTj52xEBk04J5wYKfPeGaqojHJtparKiUSN41XJq9
AgMBAAGjggFjMIIBXzAJBgNVHRMEAjAAMC0GCWCGSAGG+EIBDQQgFh5FYXN5LVJT
QSBHZW5lcmF0ZWQgQ2VydGlmaWNhdGUwHQYDVR0OBBYEFM4fV0YamVOwHh+XpfCH
+YgepN7CMIHhBgNVHSMEgdkwgdaAFBLNYATSoICecO3Gmbh7LMZS/RmhoYGypIGv
MIGsMQswCQYDVQQGEwJVUzELMAkGA1UECBMCT0gxETAPBgNVBAcTCENvbHVtYnVz
MRIwEAYDVQQKEwlWaWtpbmdWUE4xHTAbBgNVBAsTFE15T3JnYW5pemF0aW9uYWxV
bml0MRUwEwYDVQQDEwxWaWtpbmdWUE4gQ0ExEDAOBgNVBCkTB0Vhc3lSU0ExITAf
BgkqhkiG9w0BCQEWEm1lQG15aG9zdC5teWRvbWFpboIJAM81he6Avyo+MBMGA1Ud
JQQMMAoGCCsGAQUFBwMCMAsGA1UdDwQEAwIHgDANBgkqhkiG9w0BAQQFAAOCAgEA
E4YdJjjMXDyirSA7Wn2NWldIysMWrzaZ+6MELLofQ1wvLWGp9a6GNhp92Rg/ITmV
rYvPsmbDI3QZ0PLibUmM6PnlD0Mj1fpmSRmWTP0J6LBc/pqsEtMtCfeM8/ia9X/G
ep8fDylY0qgfhH2yCKd9BXWMY6kWdUxhcbRa555VMRgemItLDc0MrffFTNLoTKo9
HDJ1vzo4fYqMlQFVb3mOnHbjteXHfvuxSd+RC8L+nAGUNYLuCfXO0MThsS27wu3Q
Y/9n66nTd77MXubxnZ7aC2bhLUoQ1m6MLw5gT8waNjpAf/pOB617NdEVfWExjGUv
guoeglFJsfj6oVyZE7apI/atD85L6QRdk9aqWuYe8dHfGb/wnjrMEm1rUP3rq578
EZik5xGFo7dZqbaaRrHIUfkLlAMuoBh4xadKM1P2l3Q7KtADepyhkIsAm7DXd7L5
TSdDZkGMIF6RW01VwsaZ9dnNE5syFhzs3g0KtcVolox4QLAhfTT5uAuRvly/ZaO3
LStxjtJ2Q7Ob9fe8MigNAMiSIb32uWhoqfaYTcnP0UFMi1hS/jq7vmVFc1ME5Qyk
VeIXXQy1ltMkd+/eSQn/QHbaJVw3ZTnDUSNCf1UY+nj+HDdzlbDrCagd7qUQ1JEX
02bPSXlWbKd/WXPzjEpnsUpgPCu7oRVm9ZxHjajIJD8=
-----END CERTIFICATE-----
