Certificate:
    Data:
        Version: 3 (0x2)
        Serial Number: 6226 (0x1852)
    Signature Algorithm: md5WithRSAEncryption
        Issuer: C=US, ST=OH, L=Columbus, O=VikingVPN, OU=MyOrganizationalUnit, CN=VikingVPN CA/name=EasyRSA/emailAddress=me@myhost.mydomain
        Validity
            Not Before: Sep  7 06:53:45 2015 GMT
            Not After : Sep  4 06:53:45 2025 GMT
        Subject: CN=Client1364Certff615d
        Subject Public Key Info:
            Public Key Algorithm: rsaEncryption
                Public-Key: (4096 bit)
                Modulus:
                    00:b2:91:1a:60:fb:6f:ee:3f:a0:47:76:e9:df:6b:
                    97:eb:b3:fe:51:dd:43:b4:4f:fa:93:54:08:b6:23:
                    fe:01:49:b6:80:dc:45:2f:18:0e:fb:05:07:43:f4:
                    d6:b9:56:b2:90:ed:22:6a:cf:a3:89:08:a0:e3:a8:
                    7b:0d:1b:d9:1c:53:45:e5:0b:e3:ae:36:64:01:0c:
                    f9:d3:1b:c0:4b:12:f6:8a:70:64:8e:7a:14:e9:80:
                    40:5c:45:8b:cb:e6:59:19:5d:5c:92:a2:93:85:14:
                    cf:17:2d:3a:19:a1:a6:7b:71:f6:a3:36:db:b0:54:
                    ab:36:d1:fe:39:c7:5a:b9:e1:37:fc:48:de:49:f4:
                    4f:36:46:2b:f8:8c:76:58:bf:48:5c:a8:a3:ed:93:
                    39:01:b0:8b:45:fd:32:5e:a6:73:92:89:3c:7b:56:
                    4e:de:1e:3d:a7:56:df:d6:8e:41:ae:06:e3:b2:18:
                    c9:22:89:7d:a1:28:9f:94:4c:a1:95:4e:36:c6:74:
                    ae:23:ce:5d:da:e8:fd:0d:ee:d6:65:55:33:01:a3:
                    eb:22:c8:2c:ad:6e:2f:5b:b4:15:f2:53:52:8d:66:
                    36:f3:81:7e:ce:55:93:02:04:4b:7e:72:90:a9:45:
                    b3:73:d6:14:71:18:7b:65:b4:2a:d9:75:bc:f7:45:
                    04:67:9d:69:df:3d:2b:51:91:d7:6f:a8:49:52:d3:
                    85:36:b1:a2:09:5a:ec:73:ce:1e:fe:91:5a:22:23:
                    4e:b9:93:cf:6a:46:72:03:e3:9c:50:e7:a8:a4:0d:
                    c2:72:1e:36:f5:ad:c2:43:b5:c6:c0:43:5b:e3:bc:
                    68:22:d5:6b:99:78:e4:4e:90:a8:3e:cd:f6:a3:b5:
                    ac:35:64:f5:89:51:45:a6:f5:a4:58:6c:0d:33:5a:
                    8b:9d:e8:91:3e:73:d6:d6:df:8f:10:e8:2b:af:78:
                    31:b4:ca:0c:9a:9e:1e:ad:f6:a4:89:f4:05:8c:75:
                    f8:ee:f2:6a:9d:60:bc:8d:be:b8:15:bd:ff:cf:43:
                    2b:fc:94:be:a6:b4:d1:fb:ed:51:60:43:49:56:dd:
                    5a:2b:7d:b3:62:93:e2:5e:5d:eb:37:a1:a5:d9:73:
                    25:3c:5a:f3:d9:3f:a9:fa:39:6c:86:97:49:d0:c9:
                    a4:b7:bc:38:72:e6:31:66:fc:b4:07:70:69:da:6d:
                    65:1d:46:55:77:42:da:9f:fb:6a:15:ff:39:b6:34:
                    5c:1c:5e:16:6a:b4:6b:3f:4e:ff:84:61:b3:18:b4:
                    79:f3:0e:c2:77:0a:01:01:ae:39:ba:f7:62:0e:26:
                    e9:d2:31:a8:cc:a8:40:39:95:cb:6d:8f:a5:34:cf:
                    f7:24:f5
                Exponent: 65537 (0x10001)
        X509v3 extensions:
            X509v3 Basic Constraints: 
                CA:FALSE
            Netscape Comment: 
                Easy-RSA Generated Certificate
            X509v3 Subject Key Identifier: 
                B4:E0:CE:0B:6D:7F:13:64:8B:D8:0B:B0:EE:E3:B2:52:95:AD:0F:7C
            X509v3 Authority Key Identifier: 
                keyid:12:CD:60:04:D2:A0:80:9E:70:ED:C6:99:B8:7B:2C:C6:52:FD:19:A1
                DirName:/C=US/ST=OH/L=Columbus/O=VikingVPN/OU=MyOrganizationalUnit/CN=VikingVPN CA/name=EasyRSA/emailAddress=me@myhost.mydomain
                serial:CF:35:85:EE:80:BF:2A:3E

            X509v3 Extended Key Usage: 
                TLS Web Client Authentication
            X509v3 Key Usage: 
                Digital Signature
    Signature Algorithm: md5WithRSAEncryption
         9c:fb:2c:b0:46:04:d5:80:2d:f7:c8:ab:29:2f:56:5b:49:86:
         cd:7f:13:86:63:f3:3a:5c:5f:02:27:99:5a:87:f5:be:e0:db:
         42:e0:4f:0d:51:96:33:2d:4f:bf:5e:09:a3:0e:8f:fc:d5:6e:
         9c:6d:5a:30:4c:8d:18:c3:b7:2b:7b:5d:c4:7a:45:94:8e:f2:
         e5:05:0d:7a:19:43:60:06:d6:11:11:e4:67:f5:07:0e:1b:c1:
         70:11:d5:fd:42:64:37:ac:14:dd:df:a9:67:d8:9c:bf:81:7c:
         fb:38:4b:b1:67:56:3f:29:29:7e:1e:30:bc:c3:48:c2:93:c1:
         c6:78:66:c1:49:28:cd:36:95:22:bd:13:ae:21:6f:f2:06:87:
         be:45:90:7e:da:24:85:eb:23:c0:38:3f:29:6a:83:5a:d7:12:
         d2:55:6e:00:29:72:b8:9d:a8:76:73:7d:17:39:41:62:2d:4e:
         00:26:02:74:c2:6f:3f:5c:08:10:b4:1b:da:bd:14:f1:31:5c:
         8e:3f:5d:ce:ef:ab:d6:58:1e:cd:6d:53:9b:e4:da:50:9e:20:
         cc:cd:4a:68:cd:0c:d6:2c:ff:cc:c9:e6:a6:00:d3:7a:7a:6b:
         3d:04:b0:f8:76:38:78:6d:b8:e2:6f:e5:8c:06:43:03:47:80:
         53:d1:b4:d2:a9:88:ac:ea:74:49:63:27:a5:58:3a:46:a3:9c:
         91:39:34:23:b1:48:18:9b:5f:af:93:ca:2c:88:20:47:6e:bd:
         ed:4b:80:69:8d:60:e8:61:ed:3b:5a:4e:f1:29:b9:3b:ac:48:
         19:e7:02:ea:3d:46:f2:5c:f4:b5:f7:89:fe:c5:18:0d:7d:4c:
         f4:79:ab:e7:0c:2c:a5:50:02:a6:4f:31:a2:7c:0c:e8:12:af:
         0d:23:79:67:91:6b:6d:0d:c5:ef:19:80:e8:cd:fe:4e:23:cd:
         32:c5:48:83:04:2b:97:35:32:bf:2f:1d:bf:a9:f8:d9:cd:29:
         1a:12:e5:73:55:6f:9d:b4:d9:c3:4e:c4:81:a7:4e:91:90:7b:
         1f:7e:1f:b3:42:f7:cb:58:69:02:ba:23:1d:03:43:a1:e0:01:
         28:66:39:e4:3b:3f:89:25:30:04:7a:10:d4:38:37:52:4c:38:
         dd:8a:a7:25:5b:c9:a0:76:6c:f6:17:a9:20:bb:2a:8a:d0:1f:
         c0:83:16:da:a6:f8:a1:ff:88:16:6a:69:f1:a9:4d:de:56:0a:
         19:5f:06:7e:74:ae:83:b9:04:31:15:de:44:da:07:c4:16:56:
         af:cb:63:06:68:4e:22:19:1e:35:b1:f4:f2:fe:86:06:12:84:
         3e:54:56:04:74:89:81:1b
-----BEGIN CERTIFICATE-----
MIIGrTCCBJWgAwIBAgICGFIwDQYJKoZIhvcNAQEEBQAwgawxCzAJBgNVBAYTAlVT
MQswCQYDVQQIEwJPSDERMA8GA1UEBxMIQ29sdW1idXMxEjAQBgNVBAoTCVZpa2lu
Z1ZQTjEdMBsGA1UECxMUTXlPcmdhbml6YXRpb25hbFVuaXQxFTATBgNVBAMTDFZp
a2luZ1ZQTiBDQTEQMA4GA1UEKRMHRWFzeVJTQTEhMB8GCSqGSIb3DQEJARYSbWVA
bXlob3N0Lm15ZG9tYWluMB4XDTE1MDkwNzA2NTM0NVoXDTI1MDkwNDA2NTM0NVow
HzEdMBsGA1UEAxMUQ2xpZW50MTM2NENlcnRmZjYxNWQwggIiMA0GCSqGSIb3DQEB
AQUAA4ICDwAwggIKAoICAQCykRpg+2/uP6BHdunfa5frs/5R3UO0T/qTVAi2I/4B
SbaA3EUvGA77BQdD9Na5VrKQ7SJqz6OJCKDjqHsNG9kcU0XlC+OuNmQBDPnTG8BL
EvaKcGSOehTpgEBcRYvL5lkZXVySopOFFM8XLToZoaZ7cfajNtuwVKs20f45x1q5
4Tf8SN5J9E82Riv4jHZYv0hcqKPtkzkBsItF/TJepnOSiTx7Vk7eHj2nVt/WjkGu
BuOyGMkiiX2hKJ+UTKGVTjbGdK4jzl3a6P0N7tZlVTMBo+siyCytbi9btBXyU1KN
ZjbzgX7OVZMCBEt+cpCpRbNz1hRxGHtltCrZdbz3RQRnnWnfPStRkddvqElS04U2
saIJWuxzzh7+kVoiI065k89qRnID45xQ56ikDcJyHjb1rcJDtcbAQ1vjvGgi1WuZ
eOROkKg+zfajtaw1ZPWJUUWm9aRYbA0zWoud6JE+c9bW348Q6CuveDG0ygyanh6t
9qSJ9AWMdfju8mqdYLyNvrgVvf/PQyv8lL6mtNH77VFgQ0lW3VorfbNik+JeXes3
oaXZcyU8WvPZP6n6OWyGl0nQyaS3vDhy5jFm/LQHcGnabWUdRlV3Qtqf+2oV/zm2
NFwcXhZqtGs/Tv+EYbMYtHnzDsJ3CgEBrjm692IOJunSMajMqEA5lcttj6U0z/ck
9QIDAQABo4IBYzCCAV8wCQYDVR0TBAIwADAtBglghkgBhvhCAQ0EIBYeRWFzeS1S
U0EgR2VuZXJhdGVkIENlcnRpZmljYXRlMB0GA1UdDgQWBBS04M4LbX8TZIvYC7Du
47JSla0PfDCB4QYDVR0jBIHZMIHWgBQSzWAE0qCAnnDtxpm4eyzGUv0ZoaGBsqSB
rzCBrDELMAkGA1UEBhMCVVMxCzAJBgNVBAgTAk9IMREwDwYDVQQHEwhDb2x1bWJ1
czESMBAGA1UEChMJVmlraW5nVlBOMR0wGwYDVQQLExRNeU9yZ2FuaXphdGlvbmFs
VW5pdDEVMBMGA1UEAxMMVmlraW5nVlBOIENBMRAwDgYDVQQpEwdFYXN5UlNBMSEw
HwYJKoZIhvcNAQkBFhJtZUBteWhvc3QubXlkb21haW6CCQDPNYXugL8qPjATBgNV
HSUEDDAKBggrBgEFBQcDAjALBgNVHQ8EBAMCB4AwDQYJKoZIhvcNAQEEBQADggIB
AJz7LLBGBNWALffIqykvVltJhs1/E4Zj8zpcXwInmVqH9b7g20LgTw1RljMtT79e
CaMOj/zVbpxtWjBMjRjDtyt7XcR6RZSO8uUFDXoZQ2AG1hER5Gf1Bw4bwXAR1f1C
ZDesFN3fqWfYnL+BfPs4S7FnVj8pKX4eMLzDSMKTwcZ4ZsFJKM02lSK9E64hb/IG
h75FkH7aJIXrI8A4Pylqg1rXEtJVbgApcridqHZzfRc5QWItTgAmAnTCbz9cCBC0
G9q9FPExXI4/Xc7vq9ZYHs1tU5vk2lCeIMzNSmjNDNYs/8zJ5qYA03p6az0EsPh2
OHhtuOJv5YwGQwNHgFPRtNKpiKzqdEljJ6VYOkajnJE5NCOxSBibX6+TyiyIIEdu
ve1LgGmNYOhh7TtaTvEpuTusSBnnAuo9RvJc9LX3if7FGA19TPR5q+cMLKVQAqZP
MaJ8DOgSrw0jeWeRa20Nxe8ZgOjN/k4jzTLFSIMEK5c1Mr8vHb+p+NnNKRoS5XNV
b5202cNOxIGnTpGQex9+H7NC98tYaQK6Ix0DQ6HgAShmOeQ7P4klMAR6ENQ4N1JM
ON2KpyVbyaB2bPYXqSC7KorQH8CDFtqm+KH/iBZqafGpTd5WChlfBn50roO5BDEV
3kTaB8QWVq/LYwZoTiIZHjWx9PL+hgYShD5UVgR0iYEb
-----END CERTIFICATE-----
