Certificate:
    Data:
        Version: 3 (0x2)
        Serial Number: 7702 (0x1e16)
    Signature Algorithm: md5WithRSAEncryption
        Issuer: C=US, ST=OH, L=Columbus, O=VikingVPN, OU=MyOrganizationalUnit, CN=VikingVPN CA/name=EasyRSA/emailAddress=me@myhost.mydomain
        Validity
            Not Before: Apr  9 15:21:36 2016 GMT
            Not After : Apr  7 15:21:36 2026 GMT
        Subject: CN=Client321Certf5a487
        Subject Public Key Info:
            Public Key Algorithm: rsaEncryption
                Public-Key: (4096 bit)
                Modulus:
                    00:c4:41:ef:03:b4:1d:3d:63:67:0e:85:f5:b2:8e:
                    60:8e:e7:cc:c2:61:0d:ad:e2:75:08:5c:46:35:3c:
                    b3:37:97:a8:cf:70:0e:42:4b:b7:29:f8:9e:07:ef:
                    14:02:51:24:10:ac:d0:a4:63:ed:92:eb:a8:5e:d2:
                    e1:d3:6c:14:ba:2b:5e:9b:ee:f8:1d:db:44:9e:a1:
                    1f:fe:8a:e1:f2:93:07:b4:f4:de:68:7e:1f:75:d9:
                    4b:2e:9d:52:42:85:90:69:cb:d8:54:a2:c7:a4:8f:
                    de:23:e7:c2:4d:83:22:a7:d3:93:7f:3e:e5:51:56:
                    b0:a6:db:30:28:e5:1e:0b:c1:47:9c:37:a8:13:f9:
                    0f:82:51:c8:26:97:7c:8b:80:e0:01:04:6e:5b:e3:
                    aa:09:25:43:8e:bb:48:c6:1a:88:b2:3f:e1:e8:ba:
                    99:bd:2c:fa:4c:40:fc:31:14:bb:52:28:b7:92:b0:
                    d2:cb:40:1c:b4:7c:99:ba:27:3a:1e:d7:46:46:e2:
                    62:32:4f:3e:17:ce:c3:a5:6e:c4:e0:83:2c:62:31:
                    ef:61:0d:fc:db:39:63:d0:4d:c6:4f:90:eb:70:8c:
                    b4:67:9d:b1:af:b1:d7:f0:7a:50:ef:e0:75:6d:b9:
                    cb:4a:b7:1d:37:76:39:61:0d:6f:19:78:e4:ba:1c:
                    20:67:7d:42:77:a3:bf:16:a4:4a:54:89:3a:82:87:
                    5c:92:46:e3:b7:1c:b7:27:9c:55:e8:e4:23:dc:1f:
                    97:73:b2:15:41:3e:35:c5:85:5e:8f:91:7f:43:2d:
                    b6:c2:30:c5:0e:a5:e0:24:7a:fd:70:94:95:1f:98:
                    f1:2b:0e:48:29:d7:11:78:11:61:81:53:34:7e:c6:
                    d1:51:58:f1:6d:5f:dd:a8:99:02:e4:cf:0f:e7:b7:
                    73:db:f5:ae:20:20:a2:5f:ad:b2:80:04:24:8f:d0:
                    24:e5:2e:08:9c:0f:fa:b2:c5:42:99:40:ac:35:65:
                    b7:a9:b9:06:43:81:64:03:c2:4a:a8:94:7e:df:cd:
                    51:0b:89:c0:59:44:2b:81:71:92:4b:df:ad:ed:59:
                    09:9f:f8:73:0f:3c:46:be:3d:b2:5f:41:be:12:0f:
                    ac:75:ea:91:c4:78:1b:5a:cc:40:9e:0f:e3:c1:81:
                    29:86:53:ea:d2:d1:12:63:eb:ab:cc:2d:b9:49:03:
                    70:0b:9b:f9:6e:fa:18:8e:07:8c:ab:53:c0:58:27:
                    22:f1:69:62:50:6e:e6:8b:b4:6b:bc:92:22:b1:c6:
                    a4:ae:a7:e0:2f:45:b1:34:45:07:7b:78:a4:19:d8:
                    a2:87:02:d4:34:e6:79:8e:dc:dc:06:28:d5:16:3a:
                    67:e0:6f
                Exponent: 65537 (0x10001)
        X509v3 extensions:
            X509v3 Basic Constraints: 
                CA:FALSE
            Netscape Comment: 
                Easy-RSA Generated Certificate
            X509v3 Subject Key Identifier: 
                18:B0:57:64:F6:8B:84:B1:21:39:EF:3A:23:DC:E2:31:05:81:0F:08
            X509v3 Authority Key Identifier: 
                keyid:12:CD:60:04:D2:A0:80:9E:70:ED:C6:99:B8:7B:2C:C6:52:FD:19:A1
                DirName:/C=US/ST=OH/L=Columbus/O=VikingVPN/OU=MyOrganizationalUnit/CN=VikingVPN CA/name=EasyRSA/emailAddress=me@myhost.mydomain
                serial:CF:35:85:EE:80:BF:2A:3E

            X509v3 Extended Key Usage: 
                TLS Web Client Authentication
            X509v3 Key Usage: 
                Digital Signature
    Signature Algorithm: md5WithRSAEncryption
         db:9e:b1:29:ef:10:e6:ec:f3:47:52:19:d9:93:ea:72:2a:8a:
         2d:87:e4:4b:41:8a:48:74:54:cf:54:0b:07:8f:db:e8:58:ed:
         5e:1c:69:54:30:34:77:85:78:fc:47:85:1a:ac:da:42:75:0a:
         4d:b9:b3:f3:39:2f:11:f1:5d:54:67:d6:1d:d4:b9:29:0d:a4:
         76:51:14:e5:f7:80:62:a6:96:f9:a4:22:fe:f6:38:96:76:82:
         96:e2:f6:2f:e6:8a:96:37:09:9a:95:dd:b4:e8:6c:2a:ff:26:
         dc:a3:73:dd:42:59:85:2f:09:f1:ed:1b:1a:57:49:a1:59:21:
         9c:9a:5a:28:a4:e0:45:67:0d:68:fc:d7:8b:4b:0d:af:b4:73:
         f1:73:72:17:f3:1e:1e:36:08:c3:37:bc:6b:77:50:a2:3f:9c:
         b1:23:bc:0f:ab:12:84:21:60:ff:8f:db:84:c4:1f:eb:90:42:
         68:78:6c:a6:c1:74:42:bc:a9:5d:e5:3b:b4:81:16:d6:59:d0:
         e3:25:3f:3e:83:8a:c6:99:46:1d:e8:9a:3a:8a:ed:9c:c1:4e:
         0a:6a:11:aa:eb:60:36:87:ca:0d:4d:a3:ff:06:7b:06:1a:ff:
         f5:8b:9b:77:25:76:02:a8:4e:89:b0:ea:f4:2b:2e:b7:46:74:
         1b:eb:2a:07:c7:ec:3d:f5:46:26:08:eb:10:91:59:8b:c8:78:
         9f:86:e4:22:8b:56:48:60:ab:24:56:65:1e:bc:19:9e:dc:b6:
         25:5a:07:45:34:e8:f9:93:9b:db:51:e7:dc:84:0d:32:63:86:
         0e:d4:af:be:61:2b:77:83:63:c8:20:89:14:82:96:09:97:9e:
         94:bc:9e:98:cd:48:31:78:ed:08:14:ef:50:20:a6:2f:a1:be:
         f6:dd:8b:9b:06:1c:d1:45:91:7f:87:7f:75:d9:0e:0c:e9:f9:
         29:78:6a:b3:dc:57:82:b5:92:34:02:85:b2:a3:68:a5:bf:6a:
         5a:ec:e8:46:e0:03:fb:ba:cd:93:4b:bb:2f:59:98:7a:45:69:
         4a:99:bf:9f:2e:a2:ee:f5:79:02:8c:7b:fe:7a:bc:59:fe:65:
         a9:b8:63:ee:8b:00:e1:dc:2c:47:b6:cf:fb:8f:5c:9b:99:da:
         22:73:c9:a5:f7:bb:5f:f6:26:9d:60:7e:b5:d3:8f:0e:21:89:
         ee:13:c2:07:9f:04:3b:06:6b:52:dc:f7:87:f4:1b:33:a9:37:
         6b:4c:92:50:c9:bb:50:24:6f:2b:9a:d3:c4:82:78:12:c2:eb:
         8a:68:1e:d8:7a:7c:f1:9e:8f:45:9b:70:e5:db:b2:28:d5:a0:
         e8:c3:22:ff:9c:eb:ed:ad
-----BEGIN CERTIFICATE-----
MIIGrDCCBJSgAwIBAgICHhYwDQYJKoZIhvcNAQEEBQAwgawxCzAJBgNVBAYTAlVT
MQswCQYDVQQIEwJPSDERMA8GA1UEBxMIQ29sdW1idXMxEjAQBgNVBAoTCVZpa2lu
Z1ZQTjEdMBsGA1UECxMUTXlPcmdhbml6YXRpb25hbFVuaXQxFTATBgNVBAMTDFZp
a2luZ1ZQTiBDQTEQMA4GA1UEKRMHRWFzeVJTQTEhMB8GCSqGSIb3DQEJARYSbWVA
bXlob3N0Lm15ZG9tYWluMB4XDTE2MDQwOTE1MjEzNloXDTI2MDQwNzE1MjEzNlow
HjEcMBoGA1UEAxMTQ2xpZW50MzIxQ2VydGY1YTQ4NzCCAiIwDQYJKoZIhvcNAQEB
BQADggIPADCCAgoCggIBAMRB7wO0HT1jZw6F9bKOYI7nzMJhDa3idQhcRjU8szeX
qM9wDkJLtyn4ngfvFAJRJBCs0KRj7ZLrqF7S4dNsFLorXpvu+B3bRJ6hH/6K4fKT
B7T03mh+H3XZSy6dUkKFkGnL2FSix6SP3iPnwk2DIqfTk38+5VFWsKbbMCjlHgvB
R5w3qBP5D4JRyCaXfIuA4AEEblvjqgklQ467SMYaiLI/4ei6mb0s+kxA/DEUu1Io
t5Kw0stAHLR8mbonOh7XRkbiYjJPPhfOw6VuxOCDLGIx72EN/Ns5Y9BNxk+Q63CM
tGedsa+x1/B6UO/gdW25y0q3HTd2OWENbxl45LocIGd9QnejvxakSlSJOoKHXJJG
47cctyecVejkI9wfl3OyFUE+NcWFXo+Rf0MttsIwxQ6l4CR6/XCUlR+Y8SsOSCnX
EXgRYYFTNH7G0VFY8W1f3aiZAuTPD+e3c9v1riAgol+tsoAEJI/QJOUuCJwP+rLF
QplArDVlt6m5BkOBZAPCSqiUft/NUQuJwFlEK4Fxkkvfre1ZCZ/4cw88Rr49sl9B
vhIPrHXqkcR4G1rMQJ4P48GBKYZT6tLREmPrq8wtuUkDcAub+W76GI4HjKtTwFgn
IvFpYlBu5ou0a7ySIrHGpK6n4C9FsTRFB3t4pBnYoocC1DTmeY7c3AYo1RY6Z+Bv
AgMBAAGjggFjMIIBXzAJBgNVHRMEAjAAMC0GCWCGSAGG+EIBDQQgFh5FYXN5LVJT
QSBHZW5lcmF0ZWQgQ2VydGlmaWNhdGUwHQYDVR0OBBYEFBiwV2T2i4SxITnvOiPc
4jEFgQ8IMIHhBgNVHSMEgdkwgdaAFBLNYATSoICecO3Gmbh7LMZS/RmhoYGypIGv
MIGsMQswCQYDVQQGEwJVUzELMAkGA1UECBMCT0gxETAPBgNVBAcTCENvbHVtYnVz
MRIwEAYDVQQKEwlWaWtpbmdWUE4xHTAbBgNVBAsTFE15T3JnYW5pemF0aW9uYWxV
bml0MRUwEwYDVQQDEwxWaWtpbmdWUE4gQ0ExEDAOBgNVBCkTB0Vhc3lSU0ExITAf
BgkqhkiG9w0BCQEWEm1lQG15aG9zdC5teWRvbWFpboIJAM81he6Avyo+MBMGA1Ud
JQQMMAoGCCsGAQUFBwMCMAsGA1UdDwQEAwIHgDANBgkqhkiG9w0BAQQFAAOCAgEA
256xKe8Q5uzzR1IZ2ZPqciqKLYfkS0GKSHRUz1QLB4/b6FjtXhxpVDA0d4V4/EeF
GqzaQnUKTbmz8zkvEfFdVGfWHdS5KQ2kdlEU5feAYqaW+aQi/vY4lnaCluL2L+aK
ljcJmpXdtOhsKv8m3KNz3UJZhS8J8e0bGldJoVkhnJpaKKTgRWcNaPzXi0sNr7Rz
8XNyF/MeHjYIwze8a3dQoj+csSO8D6sShCFg/4/bhMQf65BCaHhspsF0QrypXeU7
tIEW1lnQ4yU/PoOKxplGHeiaOortnMFOCmoRqutgNofKDU2j/wZ7Bhr/9YubdyV2
AqhOibDq9Csut0Z0G+sqB8fsPfVGJgjrEJFZi8h4n4bkIotWSGCrJFZlHrwZnty2
JVoHRTTo+ZOb21Hn3IQNMmOGDtSvvmErd4NjyCCJFIKWCZeelLyemM1IMXjtCBTv
UCCmL6G+9t2LmwYc0UWRf4d/ddkODOn5KXhqs9xXgrWSNAKFsqNopb9qWuzoRuAD
+7rNk0u7L1mYekVpSpm/ny6i7vV5Aox7/nq8Wf5lqbhj7osA4dwsR7bP+49cm5na
InPJpfe7X/YmnWB+tdOPDiGJ7hPCB58EOwZrUtz3h/QbM6k3a0ySUMm7UCRvK5rT
xIJ4EsLrimge2Hp88Z6PRZtw5duyKNWg6MMi/5zr7a0=
-----END CERTIFICATE-----
