Certificate:
    Data:
        Version: 3 (0x2)
        Serial Number: 113 (0x71)
    Signature Algorithm: md5WithRSAEncryption
        Issuer: C=US, ST=OH, L=Columbus, O=VikingVPN, OU=MyOrganizationalUnit, CN=VikingVPN CA/name=EasyRSA/emailAddress=me@myhost.mydomain
        Validity
            Not Before: Sep  1 18:29:50 2013 GMT
            Not After : Aug 30 18:29:50 2023 GMT
        Subject: CN=Client1Certb89422
        Subject Public Key Info:
            Public Key Algorithm: rsaEncryption
                Public-Key: (4096 bit)
                Modulus:
                    00:ab:ea:84:cd:64:1d:d7:0c:a3:be:d8:1a:68:f7:
                    67:f1:3f:f7:c9:d9:cf:1a:c4:23:48:18:a9:d8:9a:
                    58:9b:a4:6f:8f:9e:c6:0c:e4:cb:3c:c6:82:e1:9d:
                    4f:76:0d:15:33:e5:0f:fc:e6:8e:3d:32:99:b1:b9:
                    87:b4:10:6a:9f:62:51:38:7c:12:06:b5:d9:df:dd:
                    e0:9d:ba:11:0c:1a:01:da:29:c7:85:c1:2c:f8:41:
                    6a:5b:be:95:5a:92:ca:7a:87:8e:d3:f2:58:9d:f7:
                    7a:1e:cd:dc:7d:a4:79:ac:f8:50:17:2b:b3:27:c1:
                    fa:5b:1a:83:87:f6:bf:cf:7d:8e:37:7c:34:66:49:
                    f0:97:79:14:15:71:60:86:48:6d:04:1f:65:a1:a0:
                    b4:7b:ec:35:88:24:30:65:04:3b:ed:1c:0a:11:cc:
                    c0:5d:d5:25:d1:ae:e9:10:f1:04:a4:3f:0e:93:93:
                    c7:89:a9:63:2c:5e:1e:9d:e0:6e:ab:49:ea:46:7f:
                    91:d9:d3:5a:76:a9:ac:cd:b8:9a:97:0b:30:0c:b4:
                    4c:4c:c2:64:6c:b8:6a:f3:e0:02:b0:a1:e5:de:28:
                    ae:32:26:59:98:6e:aa:9f:d5:8c:10:bc:53:24:ad:
                    9b:d2:3f:cf:26:27:cf:be:b8:00:eb:26:e6:a1:59:
                    d7:c3:81:e5:84:58:a5:01:b3:55:95:55:4c:e3:c7:
                    d4:f6:a6:65:ac:48:30:6d:4c:4f:f7:0a:e4:3e:7e:
                    ed:18:72:a1:dc:8c:64:ea:ef:3f:19:07:af:4e:b2:
                    94:39:4a:2f:29:1b:72:d5:29:a4:27:7f:68:ee:1f:
                    4e:2c:bf:66:8b:e5:55:83:5e:d8:08:c3:30:39:f5:
                    b8:cb:a2:e5:73:fa:c8:64:bc:3b:34:55:01:e3:88:
                    24:bd:4c:e7:93:70:58:7e:b2:91:70:53:c2:46:28:
                    f9:74:bf:54:54:09:bd:2a:bf:ef:1c:c8:49:97:88:
                    c7:32:50:2f:cd:bd:c4:63:39:e0:48:ea:bb:52:4d:
                    be:d6:fc:62:95:d6:23:df:23:c7:f6:b9:c3:92:ac:
                    01:e4:cb:be:36:b9:6e:23:56:42:a3:be:93:8d:cb:
                    fa:26:b8:5b:70:7c:75:d1:a1:aa:09:1e:4c:05:a2:
                    65:fa:ab:ae:1e:fa:2a:61:fb:d2:c3:b6:38:9d:54:
                    51:7a:ab:a8:85:7a:28:0d:1a:32:1a:06:80:de:3c:
                    23:b3:77:1e:3f:a5:21:18:f0:5c:b6:86:d4:7f:dd:
                    ad:23:05:3d:e1:84:a1:f3:f6:f2:47:20:c3:c8:de:
                    cf:57:6d:55:98:3b:cd:fb:fd:ba:53:6d:16:04:66:
                    77:d1:c7
                Exponent: 65537 (0x10001)
        X509v3 extensions:
            X509v3 Basic Constraints: 
                CA:FALSE
            Netscape Comment: 
                Easy-RSA Generated Certificate
            X509v3 Subject Key Identifier: 
                51:01:5C:1B:B7:EF:B0:2A:D1:93:A0:69:00:E4:90:84:CD:1E:5B:98
            X509v3 Authority Key Identifier: 
                keyid:12:CD:60:04:D2:A0:80:9E:70:ED:C6:99:B8:7B:2C:C6:52:FD:19:A1
                DirName:/C=US/ST=OH/L=Columbus/O=VikingVPN/OU=MyOrganizationalUnit/CN=VikingVPN CA/name=EasyRSA/emailAddress=me@myhost.mydomain
                serial:CF:35:85:EE:80:BF:2A:3E

            X509v3 Extended Key Usage: 
                TLS Web Client Authentication
            X509v3 Key Usage: 
                Digital Signature
    Signature Algorithm: md5WithRSAEncryption
         ac:34:6c:30:99:2f:fc:24:12:2c:34:80:df:b2:5b:e4:bb:66:
         21:6e:d6:02:39:71:ba:da:46:c9:59:42:ce:dd:6f:9a:34:73:
         17:db:6f:4f:03:4d:1a:91:07:9e:ff:10:ce:6e:a9:bf:a1:a7:
         aa:47:34:b0:3b:9e:2d:31:b2:76:b8:61:76:22:73:82:48:55:
         4e:c3:7b:08:62:be:92:8e:67:ea:4a:f9:b7:43:1b:3e:85:1d:
         0c:d5:17:d4:5d:f0:dc:28:07:b2:09:7d:ae:ef:3e:56:ea:cd:
         fb:10:72:3e:60:50:89:c2:5f:48:4a:05:47:cf:2a:07:4a:28:
         46:eb:54:b2:6e:64:33:cc:43:04:0b:ca:2d:be:f2:4e:17:90:
         13:76:4f:79:27:88:8e:5b:2b:49:01:8b:64:b7:31:c4:75:b9:
         18:a9:d3:c1:dc:01:b3:88:fc:2d:0b:78:ba:ba:f6:b3:bc:c8:
         ef:a7:e4:98:73:cb:52:bc:c6:05:42:93:78:72:5a:d1:dd:2c:
         62:6b:79:d6:b8:97:fa:cb:52:83:bd:18:f9:a2:3c:cc:b5:82:
         61:bd:11:08:84:e2:09:31:3e:48:8f:92:8f:60:85:db:77:c1:
         de:8d:f9:44:5a:cf:30:3d:79:b7:8d:9e:13:3c:0b:e9:47:c7:
         2d:ce:0d:ba:1d:f4:73:23:c5:5c:88:9b:80:bf:f8:1d:58:c4:
         a1:85:36:2d:40:63:92:6f:c9:51:97:e4:08:e0:0a:98:a6:68:
         e5:a5:b4:a2:13:b0:13:16:21:3e:95:b1:fd:b7:fe:c0:13:e6:
         fa:e2:54:bb:99:7f:3c:3d:83:5b:43:a1:71:4c:32:81:b7:db:
         25:6d:15:da:3b:f1:72:e8:0a:b3:f1:70:ac:4b:14:02:74:6c:
         fb:66:9c:f3:d8:c1:b1:f8:c6:37:b3:6b:af:68:1e:5c:2a:69:
         82:26:c7:a8:a8:03:30:54:de:54:90:71:2b:7b:2e:a0:1e:62:
         87:b0:a8:da:f6:a1:07:ff:dd:da:ec:72:73:01:24:bd:ba:b0:
         54:9c:31:c0:37:18:e6:0d:f7:22:e2:5b:bc:a1:a8:b1:5c:d3:
         92:51:43:78:e9:f3:43:2d:5f:27:df:17:82:52:d5:7c:46:5e:
         c1:db:cb:97:42:a8:f3:d0:f5:0b:6b:7c:63:ae:6f:63:30:44:
         ae:9e:a9:fa:c5:b6:68:7c:4d:84:72:09:42:af:24:f6:94:ac:
         8c:55:ad:12:fe:3c:58:20:9a:68:3e:20:a6:8e:ee:f9:2e:e3:
         00:20:80:5e:d3:a1:0f:5f:f6:91:cc:cd:97:d2:f5:35:a4:e2:
         5f:8d:d3:89:18:89:92:ae
-----BEGIN CERTIFICATE-----
MIIGqTCCBJGgAwIBAgIBcTANBgkqhkiG9w0BAQQFADCBrDELMAkGA1UEBhMCVVMx
CzAJBgNVBAgTAk9IMREwDwYDVQQHEwhDb2x1bWJ1czESMBAGA1UEChMJVmlraW5n
VlBOMR0wGwYDVQQLExRNeU9yZ2FuaXphdGlvbmFsVW5pdDEVMBMGA1UEAxMMVmlr
aW5nVlBOIENBMRAwDgYDVQQpEwdFYXN5UlNBMSEwHwYJKoZIhvcNAQkBFhJtZUBt
eWhvc3QubXlkb21haW4wHhcNMTMwOTAxMTgyOTUwWhcNMjMwODMwMTgyOTUwWjAc
MRowGAYDVQQDExFDbGllbnQxQ2VydGI4OTQyMjCCAiIwDQYJKoZIhvcNAQEBBQAD
ggIPADCCAgoCggIBAKvqhM1kHdcMo77YGmj3Z/E/98nZzxrEI0gYqdiaWJukb4+e
xgzkyzzGguGdT3YNFTPlD/zmjj0ymbG5h7QQap9iUTh8Ega12d/d4J26EQwaAdop
x4XBLPhBalu+lVqSynqHjtPyWJ33eh7N3H2keaz4UBcrsyfB+lsag4f2v899jjd8
NGZJ8Jd5FBVxYIZIbQQfZaGgtHvsNYgkMGUEO+0cChHMwF3VJdGu6RDxBKQ/DpOT
x4mpYyxeHp3gbqtJ6kZ/kdnTWnaprM24mpcLMAy0TEzCZGy4avPgArCh5d4orjIm
WZhuqp/VjBC8UyStm9I/zyYnz764AOsm5qFZ18OB5YRYpQGzVZVVTOPH1PamZaxI
MG1MT/cK5D5+7RhyodyMZOrvPxkHr06ylDlKLykbctUppCd/aO4fTiy/ZovlVYNe
2AjDMDn1uMui5XP6yGS8OzRVAeOIJL1M55NwWH6ykXBTwkYo+XS/VFQJvSq/7xzI
SZeIxzJQL829xGM54Ejqu1JNvtb8YpXWI98jx/a5w5KsAeTLvja5biNWQqO+k43L
+ia4W3B8ddGhqgkeTAWiZfqrrh76KmH70sO2OJ1UUXqrqIV6KA0aMhoGgN48I7N3
Hj+lIRjwXLaG1H/drSMFPeGEofP28kcgw8jez1dtVZg7zfv9ulNtFgRmd9HHAgMB
AAGjggFjMIIBXzAJBgNVHRMEAjAAMC0GCWCGSAGG+EIBDQQgFh5FYXN5LVJTQSBH
ZW5lcmF0ZWQgQ2VydGlmaWNhdGUwHQYDVR0OBBYEFFEBXBu377Aq0ZOgaQDkkITN
HluYMIHhBgNVHSMEgdkwgdaAFBLNYATSoICecO3Gmbh7LMZS/RmhoYGypIGvMIGs
MQswCQYDVQQGEwJVUzELMAkGA1UECBMCT0gxETAPBgNVBAcTCENvbHVtYnVzMRIw
EAYDVQQKEwlWaWtpbmdWUE4xHTAbBgNVBAsTFE15T3JnYW5pemF0aW9uYWxVbml0
MRUwEwYDVQQDEwxWaWtpbmdWUE4gQ0ExEDAOBgNVBCkTB0Vhc3lSU0ExITAfBgkq
hkiG9w0BCQEWEm1lQG15aG9zdC5teWRvbWFpboIJAM81he6Avyo+MBMGA1UdJQQM
MAoGCCsGAQUFBwMCMAsGA1UdDwQEAwIHgDANBgkqhkiG9w0BAQQFAAOCAgEArDRs
MJkv/CQSLDSA37Jb5LtmIW7WAjlxutpGyVlCzt1vmjRzF9tvTwNNGpEHnv8Qzm6p
v6Gnqkc0sDueLTGydrhhdiJzgkhVTsN7CGK+ko5n6kr5t0MbPoUdDNUX1F3w3CgH
sgl9ru8+VurN+xByPmBQicJfSEoFR88qB0ooRutUsm5kM8xDBAvKLb7yTheQE3ZP
eSeIjlsrSQGLZLcxxHW5GKnTwdwBs4j8LQt4urr2s7zI76fkmHPLUrzGBUKTeHJa
0d0sYmt51riX+stSg70Y+aI8zLWCYb0RCITiCTE+SI+Sj2CF23fB3o35RFrPMD15
t42eEzwL6UfHLc4Nuh30cyPFXIibgL/4HVjEoYU2LUBjkm/JUZfkCOAKmKZo5aW0
ohOwExYhPpWx/bf+wBPm+uJUu5l/PD2DW0OhcUwygbfbJW0V2jvxcugKs/FwrEsU
AnRs+2ac89jBsfjGN7Nrr2geXCppgibHqKgDMFTeVJBxK3suoB5ih7Co2vahB//d
2uxycwEkvbqwVJwxwDcY5g33IuJbvKGosVzTklFDeOnzQy1fJ98XglLVfEZewdvL
l0Ko89D1C2t8Y65vYzBErp6p+sW2aHxNhHIJQq8k9pSsjFWtEv48WCCaaD4gpo7u
+S7jACCAXtOhD1/2kczNl9L1NaTiX43TiRiJkq4=
-----END CERTIFICATE-----
