Certificate:
    Data:
        Version: 3 (0x2)
        Serial Number: 3411 (0xd53)
    Signature Algorithm: md5WithRSAEncryption
        Issuer: C=US, ST=OH, L=Columbus, O=VikingVPN, OU=MyOrganizationalUnit, CN=VikingVPN CA/name=EasyRSA/emailAddress=me@myhost.mydomain
        Validity
            Not Before: Nov 16 11:38:28 2014 GMT
            Not After : Nov 13 11:38:28 2024 GMT
        Subject: CN=Client1171Cert2d424e
        Subject Public Key Info:
            Public Key Algorithm: rsaEncryption
                Public-Key: (4096 bit)
                Modulus:
                    00:c8:7f:83:27:3c:14:ec:c5:e4:a6:7c:92:d5:a5:
                    20:fb:e5:3c:da:8d:3e:12:9d:79:1e:5b:86:ee:30:
                    80:02:b5:12:e2:36:23:8f:b9:06:06:54:78:1d:d7:
                    d0:e7:93:d0:46:1e:e3:f7:b2:26:6c:0b:2b:11:30:
                    29:69:ba:69:98:24:13:2e:f5:5b:4a:2b:5e:8d:2f:
                    ce:48:ee:2c:aa:b9:ec:66:22:a3:eb:86:7b:be:90:
                    5f:91:98:72:00:80:e5:9c:90:14:62:c7:b6:d4:19:
                    27:75:07:f6:1b:f0:27:4b:cd:dc:3e:37:7c:46:8f:
                    28:cf:e3:66:63:a2:54:36:6f:7a:28:46:bc:5e:8a:
                    c8:94:f4:6a:dc:a3:d2:c1:73:ff:fd:a0:a1:ee:b8:
                    b4:65:f8:ce:81:0d:d5:d6:0b:e9:fb:2f:8b:9f:18:
                    85:9f:e3:01:4a:91:ee:e6:6a:5c:5f:fd:51:d1:8e:
                    ab:22:e3:20:1f:51:44:b5:4d:e6:20:e9:84:d4:24:
                    7e:61:e4:da:92:60:8e:9a:ab:00:a1:60:fd:f1:af:
                    c7:f5:c9:10:e0:9a:b2:a2:a8:4a:e5:75:4f:80:5c:
                    11:ab:4d:12:2f:36:05:47:6c:ee:3c:df:32:39:ad:
                    c9:50:7a:9e:7d:80:a1:1b:44:4f:e0:9d:9c:9e:d8:
                    93:06:59:a8:29:17:0d:19:a4:1d:46:32:49:14:25:
                    58:da:c1:c8:a6:54:97:67:a9:55:53:1d:cc:31:e7:
                    46:28:a6:9c:c2:4f:1c:31:d0:68:f9:80:f1:2a:a6:
                    76:a6:7b:83:b8:7d:c1:e3:c4:89:6f:93:9a:60:58:
                    63:9a:63:58:99:78:75:8e:e3:e2:58:12:59:6e:b6:
                    46:76:1e:b2:6f:00:7f:5a:be:41:dc:11:7d:cc:d2:
                    54:7e:99:56:c0:e4:ca:2c:8b:6d:84:56:40:f3:2b:
                    5d:88:f0:6b:f8:ec:47:f6:3d:2f:31:92:11:4f:7f:
                    b6:59:7b:5f:89:39:e4:ae:53:97:60:1a:45:ce:50:
                    20:3a:57:04:dd:34:fa:8e:d2:0c:5d:c2:7b:84:40:
                    36:2a:24:8b:35:e2:46:47:69:05:b1:9d:27:b9:bb:
                    7d:d4:78:38:e7:64:c7:9d:68:9e:ef:82:a6:5f:56:
                    24:07:79:69:30:e8:92:5f:27:0d:c6:14:5c:3a:4f:
                    28:29:4a:61:09:e1:64:1f:7e:d4:2e:18:de:21:72:
                    37:2b:c2:52:7c:58:67:bd:70:de:ef:5e:dd:6b:be:
                    ae:f5:ac:f9:9d:74:78:2f:71:e5:fb:82:19:c0:db:
                    54:40:ec:03:d6:8e:a1:f1:30:d4:7b:17:bc:20:04:
                    04:6b:e9
                Exponent: 65537 (0x10001)
        X509v3 extensions:
            X509v3 Basic Constraints: 
                CA:FALSE
            Netscape Comment: 
                Easy-RSA Generated Certificate
            X509v3 Subject Key Identifier: 
                32:B9:13:47:55:B0:D4:A0:B6:54:E2:EE:6F:7E:D0:FE:68:F8:B1:AA
            X509v3 Authority Key Identifier: 
                keyid:12:CD:60:04:D2:A0:80:9E:70:ED:C6:99:B8:7B:2C:C6:52:FD:19:A1
                DirName:/C=US/ST=OH/L=Columbus/O=VikingVPN/OU=MyOrganizationalUnit/CN=VikingVPN CA/name=EasyRSA/emailAddress=me@myhost.mydomain
                serial:CF:35:85:EE:80:BF:2A:3E

            X509v3 Extended Key Usage: 
                TLS Web Client Authentication
            X509v3 Key Usage: 
                Digital Signature
    Signature Algorithm: md5WithRSAEncryption
         3f:7f:7a:22:ed:b1:f7:20:cf:1e:c4:5b:e7:53:24:f4:f5:64:
         04:ee:89:46:25:ed:2d:bf:3f:99:0a:4c:c4:ac:3e:d0:b4:3d:
         2c:62:37:3e:0e:cc:48:7c:b8:a8:ad:d8:89:ea:24:30:6f:16:
         49:c9:34:df:aa:fa:20:67:55:46:c8:35:6c:4c:f5:25:e1:34:
         71:11:a6:55:91:43:87:45:47:f4:1f:63:95:d6:ea:ba:c8:4f:
         6a:3d:5d:9c:43:7a:27:fb:e2:0c:07:93:81:f1:44:2f:12:ac:
         9b:ce:50:0b:4e:d6:6d:41:70:c8:d5:09:5c:e3:c9:11:00:da:
         39:b2:6b:98:53:28:25:c1:ad:33:5c:e7:5b:29:38:e1:93:cc:
         d0:4d:1f:17:2a:2d:9c:a9:4a:6f:a2:f2:62:bd:55:64:74:a5:
         28:5b:06:56:a4:55:29:83:e1:bf:b6:91:c1:61:f5:ee:9c:90:
         02:c3:b5:49:5e:04:1e:99:7c:b2:21:78:61:f8:70:bb:5f:fa:
         a2:dc:24:a1:1c:20:3e:d6:2c:ee:e9:ae:50:f0:96:9e:a2:a5:
         15:79:76:69:22:75:2c:99:7a:21:26:f5:11:e9:85:e0:c7:1f:
         58:40:c8:5d:e8:94:97:7c:71:bb:9b:ca:73:b8:d0:c6:07:98:
         52:b8:8a:c0:33:4e:0c:b2:9c:df:05:88:36:47:c4:85:2b:1a:
         73:0e:36:1e:3f:77:5a:4b:f5:c1:64:a1:4e:1b:16:c3:cc:45:
         d0:66:fd:7f:e3:b6:88:fc:63:5a:39:69:fd:18:ff:86:4f:d0:
         55:59:dc:ac:3f:f8:82:e8:da:8f:5f:14:95:f9:ed:b0:64:cd:
         21:a9:83:9e:92:9b:56:85:39:9b:22:b9:48:48:2d:5e:bf:ab:
         dd:80:22:5b:56:b9:cc:15:f9:7c:f3:8b:c4:0f:1e:16:da:44:
         13:e4:bd:48:cb:a3:12:a6:1c:ab:07:54:be:a0:31:71:40:55:
         4a:c3:5c:22:88:5c:1e:e8:a9:14:ec:04:be:8c:4f:ee:35:3a:
         6e:8b:93:cd:50:7a:cd:71:53:cc:70:a3:a5:46:74:7d:1f:30:
         5b:2f:20:6d:2c:f3:02:58:69:f9:0e:a2:05:3e:b1:cf:02:5c:
         0d:e9:a2:93:1c:b0:6a:5c:49:ed:53:19:be:99:44:35:ad:46:
         25:e7:7f:a9:1e:f9:c5:8e:cf:0f:42:38:a4:39:65:8d:47:02:
         69:56:fd:ae:66:79:f5:ad:8d:06:f6:14:77:df:76:65:07:6f:
         5d:2a:8c:fa:66:59:7f:a5:25:ac:78:d5:cd:73:aa:ee:64:a4:
         3d:ee:67:d4:07:ad:0e:0f
-----BEGIN CERTIFICATE-----
MIIGrTCCBJWgAwIBAgICDVMwDQYJKoZIhvcNAQEEBQAwgawxCzAJBgNVBAYTAlVT
MQswCQYDVQQIEwJPSDERMA8GA1UEBxMIQ29sdW1idXMxEjAQBgNVBAoTCVZpa2lu
Z1ZQTjEdMBsGA1UECxMUTXlPcmdhbml6YXRpb25hbFVuaXQxFTATBgNVBAMTDFZp
a2luZ1ZQTiBDQTEQMA4GA1UEKRMHRWFzeVJTQTEhMB8GCSqGSIb3DQEJARYSbWVA
bXlob3N0Lm15ZG9tYWluMB4XDTE0MTExNjExMzgyOFoXDTI0MTExMzExMzgyOFow
HzEdMBsGA1UEAxMUQ2xpZW50MTE3MUNlcnQyZDQyNGUwggIiMA0GCSqGSIb3DQEB
AQUAA4ICDwAwggIKAoICAQDIf4MnPBTsxeSmfJLVpSD75TzajT4SnXkeW4buMIAC
tRLiNiOPuQYGVHgd19Dnk9BGHuP3siZsCysRMClpummYJBMu9VtKK16NL85I7iyq
uexmIqPrhnu+kF+RmHIAgOWckBRix7bUGSd1B/Yb8CdLzdw+N3xGjyjP42ZjolQ2
b3ooRrxeisiU9Grco9LBc//9oKHuuLRl+M6BDdXWC+n7L4ufGIWf4wFKke7malxf
/VHRjqsi4yAfUUS1TeYg6YTUJH5h5NqSYI6aqwChYP3xr8f1yRDgmrKiqErldU+A
XBGrTRIvNgVHbO483zI5rclQep59gKEbRE/gnZye2JMGWagpFw0ZpB1GMkkUJVja
wcimVJdnqVVTHcwx50YoppzCTxwx0Gj5gPEqpname4O4fcHjxIlvk5pgWGOaY1iZ
eHWO4+JYEllutkZ2HrJvAH9avkHcEX3M0lR+mVbA5Mosi22EVkDzK12I8Gv47Ef2
PS8xkhFPf7ZZe1+JOeSuU5dgGkXOUCA6VwTdNPqO0gxdwnuEQDYqJIs14kZHaQWx
nSe5u33UeDjnZMedaJ7vgqZfViQHeWkw6JJfJw3GFFw6TygpSmEJ4WQfftQuGN4h
cjcrwlJ8WGe9cN7vXt1rvq71rPmddHgvceX7ghnA21RA7APWjqHxMNR7F7wgBARr
6QIDAQABo4IBYzCCAV8wCQYDVR0TBAIwADAtBglghkgBhvhCAQ0EIBYeRWFzeS1S
U0EgR2VuZXJhdGVkIENlcnRpZmljYXRlMB0GA1UdDgQWBBQyuRNHVbDUoLZU4u5v
ftD+aPixqjCB4QYDVR0jBIHZMIHWgBQSzWAE0qCAnnDtxpm4eyzGUv0ZoaGBsqSB
rzCBrDELMAkGA1UEBhMCVVMxCzAJBgNVBAgTAk9IMREwDwYDVQQHEwhDb2x1bWJ1
czESMBAGA1UEChMJVmlraW5nVlBOMR0wGwYDVQQLExRNeU9yZ2FuaXphdGlvbmFs
VW5pdDEVMBMGA1UEAxMMVmlraW5nVlBOIENBMRAwDgYDVQQpEwdFYXN5UlNBMSEw
HwYJKoZIhvcNAQkBFhJtZUBteWhvc3QubXlkb21haW6CCQDPNYXugL8qPjATBgNV
HSUEDDAKBggrBgEFBQcDAjALBgNVHQ8EBAMCB4AwDQYJKoZIhvcNAQEEBQADggIB
AD9/eiLtsfcgzx7EW+dTJPT1ZATuiUYl7S2/P5kKTMSsPtC0PSxiNz4OzEh8uKit
2InqJDBvFknJNN+q+iBnVUbINWxM9SXhNHERplWRQ4dFR/QfY5XW6rrIT2o9XZxD
eif74gwHk4HxRC8SrJvOUAtO1m1BcMjVCVzjyREA2jmya5hTKCXBrTNc51spOOGT
zNBNHxcqLZypSm+i8mK9VWR0pShbBlakVSmD4b+2kcFh9e6ckALDtUleBB6ZfLIh
eGH4cLtf+qLcJKEcID7WLO7prlDwlp6ipRV5dmkidSyZeiEm9RHpheDHH1hAyF3o
lJd8cbubynO40MYHmFK4isAzTgyynN8FiDZHxIUrGnMONh4/d1pL9cFkoU4bFsPM
RdBm/X/jtoj8Y1o5af0Y/4ZP0FVZ3Kw/+ILo2o9fFJX57bBkzSGpg56Sm1aFOZsi
uUhILV6/q92AIltWucwV+Xzzi8QPHhbaRBPkvUjLoxKmHKsHVL6gMXFAVUrDXCKI
XB7oqRTsBL6MT+41Om6Lk81Qes1xU8xwo6VGdH0fMFsvIG0s8wJYafkOogU+sc8C
XA3popMcsGpcSe1TGb6ZRDWtRiXnf6ke+cWOzw9COKQ5ZY1HAmlW/a5mefWtjQb2
FHffdmUHb10qjPpmWX+lJax41c1zqu5kpD3uZ9QHrQ4P
-----END CERTIFICATE-----
