Certificate:
    Data:
        Version: 3 (0x2)
        Serial Number: 3037 (0xbdd)
    Signature Algorithm: md5WithRSAEncryption
        Issuer: C=US, ST=OH, L=Columbus, O=VikingVPN, OU=MyOrganizationalUnit, CN=VikingVPN CA/name=EasyRSA/emailAddress=me@myhost.mydomain
        Validity
            Not Before: Oct  4 20:03:49 2014 GMT
            Not After : Oct  1 20:03:49 2024 GMT
        Subject: CN=Client1031Cert6079b1
        Subject Public Key Info:
            Public Key Algorithm: rsaEncryption
                Public-Key: (4096 bit)
                Modulus:
                    00:ae:a6:9a:47:6b:b6:74:8c:39:b6:70:e4:45:e3:
                    35:91:66:de:15:0e:40:2f:24:06:b8:4f:01:9f:0a:
                    c8:1a:8d:55:55:27:0d:43:91:93:57:1c:52:1f:cf:
                    88:41:4f:99:92:10:e2:6b:11:f7:e5:77:0f:12:80:
                    85:60:ce:d2:e0:a8:0b:f2:da:99:9c:56:5f:ec:9d:
                    81:09:3f:c5:89:34:80:9f:af:24:9f:cc:3a:de:47:
                    76:a7:63:fc:cc:77:10:2a:1c:d9:6b:19:ec:3a:07:
                    00:af:f9:bb:07:4f:52:80:bc:b6:02:63:82:6c:4c:
                    58:30:6e:2c:01:ac:9b:8e:2f:4b:0c:60:45:77:a9:
                    66:42:03:76:63:97:a9:98:a7:2c:ac:af:10:87:e7:
                    3d:5e:34:14:1d:fd:75:de:4d:da:4e:57:1e:22:0d:
                    ad:30:6c:9b:46:b3:64:60:bb:81:40:9d:2b:32:8a:
                    25:d2:7b:c2:97:fa:0d:b9:c4:c3:34:cc:b5:9c:2e:
                    00:b2:3e:c6:7b:ec:39:0e:3d:5c:45:c0:64:f1:47:
                    1d:2a:b7:89:5f:38:ba:cd:63:14:fb:a3:db:4a:c0:
                    9c:09:b8:dd:b1:14:9c:77:eb:80:11:ef:65:45:f0:
                    91:87:80:a0:30:98:79:8e:0b:0b:74:98:4b:f4:17:
                    7a:98:31:35:bc:93:ba:b3:4c:2c:f6:ca:d7:3e:89:
                    ad:85:b9:4f:67:4a:74:27:26:ec:23:67:57:a0:6c:
                    4b:11:d9:0f:e5:59:8b:20:1c:ea:a4:8c:ac:3c:a1:
                    ab:df:fc:06:3d:31:97:8b:71:17:83:62:13:1f:57:
                    85:9c:f5:46:d7:e3:90:39:5b:f9:92:f2:42:05:df:
                    12:ea:68:1e:a8:b0:f4:16:4b:e9:bc:f9:07:a4:33:
                    76:b8:3a:8d:d3:c3:d6:20:01:55:dc:d4:c0:f0:c9:
                    e8:d7:8a:28:a0:0b:d3:91:0b:f8:af:ef:9d:ad:f2:
                    5d:1d:64:a7:f5:4a:42:b3:9f:ce:f0:89:8f:93:33:
                    ed:51:d3:a4:f5:30:27:94:bf:a0:aa:d3:d8:76:94:
                    90:d8:8c:bf:af:7e:82:2a:7c:0f:ce:2d:66:f3:9d:
                    ae:d8:de:93:16:8d:13:48:5a:4b:b2:0e:dc:e9:0c:
                    28:e7:59:8c:1c:c8:c4:df:37:27:03:70:de:bc:ff:
                    c1:72:c5:e0:2d:dd:a5:bc:c7:cd:36:dc:75:1a:bf:
                    bf:08:0a:f0:dc:3f:a5:25:94:32:80:36:66:64:5d:
                    6e:90:8b:03:a7:75:48:93:b5:58:11:79:52:09:92:
                    dd:e4:03:e5:1a:3d:46:77:cb:f8:b3:f1:8c:56:37:
                    bd:85:c9
                Exponent: 65537 (0x10001)
        X509v3 extensions:
            X509v3 Basic Constraints: 
                CA:FALSE
            Netscape Comment: 
                Easy-RSA Generated Certificate
            X509v3 Subject Key Identifier: 
                E8:EA:EA:19:09:8C:6E:42:72:0F:31:C6:26:49:DB:5F:E0:57:21:DF
            X509v3 Authority Key Identifier: 
                keyid:12:CD:60:04:D2:A0:80:9E:70:ED:C6:99:B8:7B:2C:C6:52:FD:19:A1
                DirName:/C=US/ST=OH/L=Columbus/O=VikingVPN/OU=MyOrganizationalUnit/CN=VikingVPN CA/name=EasyRSA/emailAddress=me@myhost.mydomain
                serial:CF:35:85:EE:80:BF:2A:3E

            X509v3 Extended Key Usage: 
                TLS Web Client Authentication
            X509v3 Key Usage: 
                Digital Signature
    Signature Algorithm: md5WithRSAEncryption
         b5:4b:a8:5c:5c:36:78:7c:9b:52:19:d4:8b:45:db:e3:1a:c7:
         97:bc:6f:e5:7a:01:d1:71:18:e6:6a:a5:42:07:74:e2:70:0a:
         39:a8:de:37:46:c6:79:8a:cf:f0:c6:31:dd:03:30:3b:b6:22:
         fd:8d:1a:ea:1c:5d:ac:7e:74:1f:08:7b:3b:d8:15:b5:72:0d:
         b5:bc:8e:54:50:b0:6e:7e:70:cd:c7:12:01:ca:8a:7b:4a:53:
         1e:ea:e8:61:88:29:be:fe:36:fa:39:d1:94:ac:c4:5b:b3:b4:
         07:cf:16:0d:83:48:57:6c:68:c2:f0:20:6a:ec:c8:51:e1:95:
         38:38:48:88:8e:71:5b:dd:ed:22:02:55:25:97:0f:dc:8b:5e:
         6f:28:e4:5a:ba:d2:b7:0b:95:bd:66:88:05:33:20:0e:eb:fb:
         8b:d6:35:4d:fc:07:6b:12:06:12:0f:36:bc:ac:15:75:4f:af:
         48:9d:c6:aa:fd:43:64:90:7a:6a:19:40:29:8b:2b:de:07:0e:
         70:e5:35:b7:d5:19:3b:a0:1a:dd:b2:97:3a:89:96:3b:a9:34:
         f7:14:69:46:3d:82:64:54:88:48:fd:db:e3:d9:36:38:e2:9f:
         8c:a2:67:79:25:5d:a0:ea:d2:2e:35:08:b3:17:11:6a:7c:81:
         2d:ec:ff:5b:eb:77:61:97:04:01:ba:f4:d8:d6:2b:55:44:59:
         b2:cd:9b:dd:df:2b:07:f5:4f:ac:6e:a4:af:f5:50:30:5c:0c:
         15:d6:61:df:df:d9:58:7d:3b:1a:6a:0f:d3:8c:ef:4e:36:28:
         e0:7a:c1:6e:68:99:42:bc:27:6f:cc:dd:6d:aa:6b:34:7f:2d:
         e9:49:eb:ce:ee:86:ac:16:81:e5:eb:05:49:14:03:fc:96:60:
         3c:55:ea:a1:ff:e5:af:7c:31:28:a7:a3:2d:2a:17:02:33:32:
         a8:1e:20:b5:e6:c6:99:ae:69:93:9c:fb:50:95:a0:f8:ba:25:
         a4:d1:a7:c7:ff:2d:87:25:f0:00:a2:3c:a6:d3:58:3c:84:63:
         46:0a:dc:02:1f:d0:ac:25:14:21:f4:c9:82:40:70:41:59:6c:
         1a:23:df:7f:72:09:81:54:04:b3:d9:cc:9f:37:9c:1c:5f:91:
         0d:1d:f8:72:d1:96:af:b4:f3:18:70:91:2b:17:8d:26:c6:6b:
         b1:43:eb:94:0b:39:a4:b0:2b:2d:c0:24:a3:c7:b7:53:fb:f1:
         c5:60:ff:ca:1d:ed:84:e3:62:5d:d4:27:5e:81:dd:ae:04:c6:
         5e:1f:12:85:33:65:90:20:e3:69:f7:fb:59:a1:31:f9:a0:45:
         e8:65:f4:3b:f5:2f:d2:9f
-----BEGIN CERTIFICATE-----
MIIGrTCCBJWgAwIBAgICC90wDQYJKoZIhvcNAQEEBQAwgawxCzAJBgNVBAYTAlVT
MQswCQYDVQQIEwJPSDERMA8GA1UEBxMIQ29sdW1idXMxEjAQBgNVBAoTCVZpa2lu
Z1ZQTjEdMBsGA1UECxMUTXlPcmdhbml6YXRpb25hbFVuaXQxFTATBgNVBAMTDFZp
a2luZ1ZQTiBDQTEQMA4GA1UEKRMHRWFzeVJTQTEhMB8GCSqGSIb3DQEJARYSbWVA
bXlob3N0Lm15ZG9tYWluMB4XDTE0MTAwNDIwMDM0OVoXDTI0MTAwMTIwMDM0OVow
HzEdMBsGA1UEAxMUQ2xpZW50MTAzMUNlcnQ2MDc5YjEwggIiMA0GCSqGSIb3DQEB
AQUAA4ICDwAwggIKAoICAQCupppHa7Z0jDm2cORF4zWRZt4VDkAvJAa4TwGfCsga
jVVVJw1DkZNXHFIfz4hBT5mSEOJrEffldw8SgIVgztLgqAvy2pmcVl/snYEJP8WJ
NICfrySfzDreR3anY/zMdxAqHNlrGew6BwCv+bsHT1KAvLYCY4JsTFgwbiwBrJuO
L0sMYEV3qWZCA3Zjl6mYpyysrxCH5z1eNBQd/XXeTdpOVx4iDa0wbJtGs2Rgu4FA
nSsyiiXSe8KX+g25xMM0zLWcLgCyPsZ77DkOPVxFwGTxRx0qt4lfOLrNYxT7o9tK
wJwJuN2xFJx364AR72VF8JGHgKAwmHmOCwt0mEv0F3qYMTW8k7qzTCz2ytc+ia2F
uU9nSnQnJuwjZ1egbEsR2Q/lWYsgHOqkjKw8oavf/AY9MZeLcReDYhMfV4Wc9UbX
45A5W/mS8kIF3xLqaB6osPQWS+m8+QekM3a4Oo3Tw9YgAVXc1MDwyejXiiigC9OR
C/iv752t8l0dZKf1SkKzn87wiY+TM+1R06T1MCeUv6Cq09h2lJDYjL+vfoIqfA/O
LWbzna7Y3pMWjRNIWkuyDtzpDCjnWYwcyMTfNycDcN68/8FyxeAt3aW8x8023HUa
v78ICvDcP6UllDKANmZkXW6QiwOndUiTtVgReVIJkt3kA+UaPUZ3y/iz8YxWN72F
yQIDAQABo4IBYzCCAV8wCQYDVR0TBAIwADAtBglghkgBhvhCAQ0EIBYeRWFzeS1S
U0EgR2VuZXJhdGVkIENlcnRpZmljYXRlMB0GA1UdDgQWBBTo6uoZCYxuQnIPMcYm
Sdtf4Fch3zCB4QYDVR0jBIHZMIHWgBQSzWAE0qCAnnDtxpm4eyzGUv0ZoaGBsqSB
rzCBrDELMAkGA1UEBhMCVVMxCzAJBgNVBAgTAk9IMREwDwYDVQQHEwhDb2x1bWJ1
czESMBAGA1UEChMJVmlraW5nVlBOMR0wGwYDVQQLExRNeU9yZ2FuaXphdGlvbmFs
VW5pdDEVMBMGA1UEAxMMVmlraW5nVlBOIENBMRAwDgYDVQQpEwdFYXN5UlNBMSEw
HwYJKoZIhvcNAQkBFhJtZUBteWhvc3QubXlkb21haW6CCQDPNYXugL8qPjATBgNV
HSUEDDAKBggrBgEFBQcDAjALBgNVHQ8EBAMCB4AwDQYJKoZIhvcNAQEEBQADggIB
ALVLqFxcNnh8m1IZ1ItF2+Max5e8b+V6AdFxGOZqpUIHdOJwCjmo3jdGxnmKz/DG
Md0DMDu2Iv2NGuocXax+dB8IezvYFbVyDbW8jlRQsG5+cM3HEgHKintKUx7q6GGI
Kb7+Nvo50ZSsxFuztAfPFg2DSFdsaMLwIGrsyFHhlTg4SIiOcVvd7SICVSWXD9yL
Xm8o5Fq60rcLlb1miAUzIA7r+4vWNU38B2sSBhIPNrysFXVPr0idxqr9Q2SQemoZ
QCmLK94HDnDlNbfVGTugGt2ylzqJljupNPcUaUY9gmRUiEj92+PZNjjin4yiZ3kl
XaDq0i41CLMXEWp8gS3s/1vrd2GXBAG69NjWK1VEWbLNm93fKwf1T6xupK/1UDBc
DBXWYd/f2Vh9OxpqD9OM7042KOB6wW5omUK8J2/M3W2qazR/LelJ687uhqwWgeXr
BUkUA/yWYDxV6qH/5a98MSinoy0qFwIzMqgeILXmxpmuaZOc+1CVoPi6JaTRp8f/
LYcl8ACiPKbTWDyEY0YK3AIf0KwlFCH0yYJAcEFZbBoj339yCYFUBLPZzJ83nBxf
kQ0d+HLRlq+08xhwkSsXjSbGa7FD65QLOaSwKy3AJKPHt1P78cVg/8od7YTjYl3U
J16B3a4Exl4fEoUzZZAg42n3+1mhMfmgRehl9Dv1L9Kf
-----END CERTIFICATE-----
