Certificate:
    Data:
        Version: 3 (0x2)
        Serial Number: 12657 (0x3171)
    Signature Algorithm: sha256WithRSAEncryption
        Issuer: C=US, ST=OH, L=Columbus, O=VikingVPN, OU=MyOrganizationalUnit, CN=VikingVPN CA/name=EasyRSA/emailAddress=me@myhost.mydomain
        Validity
            Not Before: Mar  2 15:43:54 2018 GMT
            Not After : Feb 28 15:43:54 2028 GMT
        Subject: CN=Client643Cert328818
        Subject Public Key Info:
            Public Key Algorithm: rsaEncryption
                Public-Key: (4096 bit)
                Modulus:
                    00:aa:18:c0:92:83:78:57:ae:56:f2:68:66:63:1a:
                    5f:17:e2:c2:dd:11:98:28:28:a3:2b:91:ab:bf:88:
                    ed:7d:65:57:9d:b9:3d:e1:d1:8d:d4:d8:1c:39:e0:
                    3a:c4:ab:88:af:56:7e:18:90:1d:d6:ba:d6:a5:b7:
                    88:d8:b7:f1:04:51:84:74:88:7b:b3:1c:26:e2:24:
                    cd:ad:9d:33:68:70:d9:c7:18:95:c1:45:69:65:55:
                    02:0b:8c:ec:36:46:18:e7:b6:96:2f:09:75:59:40:
                    c1:8b:7c:ae:ca:53:a5:ea:10:73:5d:41:ef:94:a4:
                    8e:d2:98:d3:34:75:b8:7c:46:c9:18:53:49:79:02:
                    cc:73:e0:1c:1d:15:3e:34:00:a3:01:ca:90:a1:6d:
                    35:aa:ee:ca:e1:61:7c:a7:7b:8d:49:b3:35:22:3e:
                    df:54:60:90:90:4b:5d:c3:9b:3e:f1:1a:16:1e:6d:
                    80:28:4b:43:4c:37:af:c2:98:7e:7c:6c:55:82:1f:
                    06:ec:af:69:00:b0:34:8c:81:60:96:59:f6:95:3f:
                    1d:c8:bb:b9:e1:c1:5f:6f:1b:0d:c4:f9:e7:0a:f5:
                    ee:23:dc:cf:d9:03:db:75:76:b4:a1:0f:aa:2c:07:
                    6f:9a:7a:37:8b:bf:23:a7:9c:dd:39:f2:c5:ec:e3:
                    21:0d:6e:84:bf:5b:55:63:51:f1:3d:ed:68:0e:d4:
                    54:3a:7f:b3:d5:40:2d:84:03:e7:06:d5:dc:a7:6d:
                    64:e9:49:15:09:ac:b9:b3:66:e4:bd:fb:23:15:57:
                    0e:cc:9c:66:15:b5:a5:7a:f6:31:62:59:d6:d8:d7:
                    a4:4c:1b:78:42:39:c8:8f:eb:1d:91:78:c2:84:01:
                    e9:c2:38:80:52:4f:7d:aa:26:20:cf:fc:90:c2:fd:
                    7f:27:cc:a6:6a:97:86:c4:c0:73:8c:e7:47:da:72:
                    72:76:1e:a3:6e:60:55:8d:ae:8f:42:e8:f4:74:e7:
                    ed:8e:18:65:62:26:ac:ed:5f:84:29:bf:5a:70:ba:
                    0e:c5:4c:5d:20:62:bc:98:d5:3f:7b:46:57:1e:9a:
                    f4:63:fd:90:38:0a:52:83:a9:e6:a1:f6:37:b7:0e:
                    8d:33:0e:73:14:4c:e7:a8:e8:52:7d:c7:fa:3c:8f:
                    71:01:34:b7:bc:7a:c8:d8:f3:d2:b4:dc:13:86:ac:
                    34:52:a6:90:29:f6:03:c4:a6:9d:0b:80:ee:7a:7a:
                    1b:9b:5e:f5:cd:9c:e6:8e:88:19:2f:24:db:e2:86:
                    96:f4:bd:b6:95:4d:04:b2:88:5a:e1:ec:19:9c:14:
                    c9:16:51:1f:6e:9c:17:5e:f9:7c:1d:24:11:4c:52:
                    f6:a8:6d
                Exponent: 65537 (0x10001)
        X509v3 extensions:
            X509v3 Basic Constraints: 
                CA:FALSE
            Netscape Comment: 
                Easy-RSA Generated Certificate
            X509v3 Subject Key Identifier: 
                9C:77:68:7C:CF:80:FB:64:4A:A2:C2:66:75:EE:BD:89:92:D9:8A:27
            X509v3 Authority Key Identifier: 
                keyid:12:CD:60:04:D2:A0:80:9E:70:ED:C6:99:B8:7B:2C:C6:52:FD:19:A1
                DirName:/C=US/ST=OH/L=Columbus/O=VikingVPN/OU=MyOrganizationalUnit/CN=VikingVPN CA/name=EasyRSA/emailAddress=me@myhost.mydomain
                serial:CF:35:85:EE:80:BF:2A:3E

            X509v3 Extended Key Usage: 
                TLS Web Client Authentication
            X509v3 Key Usage: 
                Digital Signature
    Signature Algorithm: sha256WithRSAEncryption
         83:d1:bc:05:62:a0:6c:53:da:b0:57:37:af:f4:e4:ce:c7:ce:
         96:7b:61:e9:a4:c6:29:c9:a2:39:8f:ab:14:21:17:0e:e5:c2:
         32:4b:06:8d:b4:8f:e1:f1:6f:c2:4b:0d:c0:4f:d0:d1:9d:71:
         77:ee:45:91:42:48:d6:c6:90:73:9f:c5:28:fc:e6:de:78:4b:
         1e:fe:e0:25:92:a3:5e:4a:81:23:63:0f:19:e2:44:2b:07:45:
         b1:33:fb:5c:0c:c9:91:36:d8:fa:ce:49:08:f6:e4:cd:65:b9:
         86:f6:d8:85:ad:a8:7b:04:ff:33:9b:4f:4c:04:3c:e0:02:de:
         96:9a:0d:45:93:6f:62:a3:21:55:97:a2:97:56:7b:58:22:73:
         60:f2:36:eb:a1:34:7e:52:54:7e:7b:68:f2:a4:1a:87:99:e6:
         c6:5a:63:03:f2:c4:de:56:81:f6:66:19:65:0c:c3:d6:57:86:
         6b:0d:23:87:42:ad:be:47:6c:a6:b9:26:e7:0d:bc:7d:8a:fe:
         b9:40:d5:2a:d1:2e:8e:6a:7a:43:e2:b5:9e:49:a4:b3:52:9a:
         36:e9:1c:11:39:f2:e6:21:0d:9c:f8:c9:70:5f:1a:ba:ab:99:
         37:63:36:24:cd:be:ab:fa:dd:6c:9c:95:99:c2:89:45:d7:73:
         ac:61:31:c5:b8:39:72:ec:05:4c:a8:5f:0f:25:b3:d5:9a:19:
         c7:d3:9d:8b:35:d0:aa:d0:9e:9b:a4:15:27:3d:f6:80:76:23:
         0e:05:ac:7a:87:f4:1b:d2:8b:c1:0c:c3:95:0c:fb:4f:be:a1:
         ca:d1:e4:9f:74:bf:56:40:5f:4d:26:c5:33:71:0d:44:52:16:
         d6:9e:98:70:78:38:44:a0:1f:9f:29:57:33:63:0a:7d:b8:5b:
         1e:76:e0:62:4d:9a:c0:7f:38:1c:76:16:56:ef:82:12:25:1b:
         33:19:44:99:79:66:1d:55:15:13:6b:f7:39:cc:47:4d:20:5e:
         61:03:1c:8f:31:ed:43:2d:44:aa:ad:92:e0:04:1d:8e:85:da:
         c6:f8:5d:bf:cb:c1:1b:62:7d:ab:9b:de:24:12:fb:8a:e7:85:
         7d:0a:d2:5b:24:af:30:27:86:c5:19:99:2b:f4:3c:c8:c3:b8:
         ef:bf:c4:8c:80:c8:e7:38:e8:ba:47:6c:cd:a0:6e:ef:85:22:
         52:58:a2:d9:27:ca:2d:cb:4e:58:2e:0d:52:93:98:18:c0:55:
         9c:9c:35:30:2f:b8:6a:6f:51:e5:28:68:77:6a:39:42:c9:85:
         c8:02:2e:bb:e9:61:8d:ae:bc:a4:ad:96:16:ed:8d:64:54:39:
         3a:5e:41:ea:56:61:e2:ec
-----BEGIN CERTIFICATE-----
MIIGrDCCBJSgAwIBAgICMXEwDQYJKoZIhvcNAQELBQAwgawxCzAJBgNVBAYTAlVT
MQswCQYDVQQIEwJPSDERMA8GA1UEBxMIQ29sdW1idXMxEjAQBgNVBAoTCVZpa2lu
Z1ZQTjEdMBsGA1UECxMUTXlPcmdhbml6YXRpb25hbFVuaXQxFTATBgNVBAMTDFZp
a2luZ1ZQTiBDQTEQMA4GA1UEKRMHRWFzeVJTQTEhMB8GCSqGSIb3DQEJARYSbWVA
bXlob3N0Lm15ZG9tYWluMB4XDTE4MDMwMjE1NDM1NFoXDTI4MDIyODE1NDM1NFow
HjEcMBoGA1UEAxMTQ2xpZW50NjQzQ2VydDMyODgxODCCAiIwDQYJKoZIhvcNAQEB
BQADggIPADCCAgoCggIBAKoYwJKDeFeuVvJoZmMaXxfiwt0RmCgooyuRq7+I7X1l
V525PeHRjdTYHDngOsSriK9WfhiQHda61qW3iNi38QRRhHSIe7McJuIkza2dM2hw
2ccYlcFFaWVVAguM7DZGGOe2li8JdVlAwYt8rspTpeoQc11B75SkjtKY0zR1uHxG
yRhTSXkCzHPgHB0VPjQAowHKkKFtNaruyuFhfKd7jUmzNSI+31RgkJBLXcObPvEa
Fh5tgChLQ0w3r8KYfnxsVYIfBuyvaQCwNIyBYJZZ9pU/Hci7ueHBX28bDcT55wr1
7iPcz9kD23V2tKEPqiwHb5p6N4u/I6ec3TnyxezjIQ1uhL9bVWNR8T3taA7UVDp/
s9VALYQD5wbV3KdtZOlJFQmsubNm5L37IxVXDsycZhW1pXr2MWJZ1tjXpEwbeEI5
yI/rHZF4woQB6cI4gFJPfaomIM/8kML9fyfMpmqXhsTAc4znR9pycnYeo25gVY2u
j0Lo9HTn7Y4YZWImrO1fhCm/WnC6DsVMXSBivJjVP3tGVx6a9GP9kDgKUoOp5qH2
N7cOjTMOcxRM56joUn3H+jyPcQE0t7x6yNjz0rTcE4asNFKmkCn2A8SmnQuA7np6
G5te9c2c5o6IGS8k2+KGlvS9tpVNBLKIWuHsGZwUyRZRH26cF175fB0kEUxS9qht
AgMBAAGjggFjMIIBXzAJBgNVHRMEAjAAMC0GCWCGSAGG+EIBDQQgFh5FYXN5LVJT
QSBHZW5lcmF0ZWQgQ2VydGlmaWNhdGUwHQYDVR0OBBYEFJx3aHzPgPtkSqLCZnXu
vYmS2YonMIHhBgNVHSMEgdkwgdaAFBLNYATSoICecO3Gmbh7LMZS/RmhoYGypIGv
MIGsMQswCQYDVQQGEwJVUzELMAkGA1UECBMCT0gxETAPBgNVBAcTCENvbHVtYnVz
MRIwEAYDVQQKEwlWaWtpbmdWUE4xHTAbBgNVBAsTFE15T3JnYW5pemF0aW9uYWxV
bml0MRUwEwYDVQQDEwxWaWtpbmdWUE4gQ0ExEDAOBgNVBCkTB0Vhc3lSU0ExITAf
BgkqhkiG9w0BCQEWEm1lQG15aG9zdC5teWRvbWFpboIJAM81he6Avyo+MBMGA1Ud
JQQMMAoGCCsGAQUFBwMCMAsGA1UdDwQEAwIHgDANBgkqhkiG9w0BAQsFAAOCAgEA
g9G8BWKgbFPasFc3r/TkzsfOlnth6aTGKcmiOY+rFCEXDuXCMksGjbSP4fFvwksN
wE/Q0Z1xd+5FkUJI1saQc5/FKPzm3nhLHv7gJZKjXkqBI2MPGeJEKwdFsTP7XAzJ
kTbY+s5JCPbkzWW5hvbYha2oewT/M5tPTAQ84ALelpoNRZNvYqMhVZeil1Z7WCJz
YPI266E0flJUfnto8qQah5nmxlpjA/LE3laB9mYZZQzD1leGaw0jh0Ktvkdsprkm
5w28fYr+uUDVKtEujmp6Q+K1nkmks1KaNukcETny5iENnPjJcF8auquZN2M2JM2+
q/rdbJyVmcKJRddzrGExxbg5cuwFTKhfDyWz1ZoZx9OdizXQqtCem6QVJz32gHYj
DgWseof0G9KLwQzDlQz7T76hytHkn3S/VkBfTSbFM3ENRFIW1p6YcHg4RKAfnylX
M2MKfbhbHnbgYk2awH84HHYWVu+CEiUbMxlEmXlmHVUVE2v3OcxHTSBeYQMcjzHt
Qy1Eqq2S4AQdjoXaxvhdv8vBG2J9q5veJBL7iueFfQrSWySvMCeGxRmZK/Q8yMO4
77/EjIDI5zjoukdszaBu74UiUlii2SfKLctOWC4NUpOYGMBVnJw1MC+4am9R5Sho
d2o5QsmFyAIuu+lhja68pK2WFu2NZFQ5Ol5B6lZh4uw=
-----END CERTIFICATE-----
