Certificate:
    Data:
        Version: 3 (0x2)
        Serial Number: 1950 (0x79e)
    Signature Algorithm: md5WithRSAEncryption
        Issuer: C=US, ST=OH, L=Columbus, O=VikingVPN, OU=MyOrganizationalUnit, CN=VikingVPN CA/name=EasyRSA/emailAddress=me@myhost.mydomain
        Validity
            Not Before: May 23 18:36:02 2014 GMT
            Not After : May 20 18:36:02 2024 GMT
        Subject: CN=Client674Cert249391
        Subject Public Key Info:
            Public Key Algorithm: rsaEncryption
                Public-Key: (4096 bit)
                Modulus:
                    00:f2:41:65:f2:6e:05:74:36:50:ec:55:d1:8f:3f:
                    4f:44:28:cc:00:48:4e:9c:e8:f2:6f:13:fc:5c:19:
                    c9:a8:30:5b:33:48:fd:33:1a:25:e8:63:22:61:d5:
                    63:51:6d:1a:96:5b:d7:31:4a:d1:29:20:c6:a3:88:
                    7c:f1:46:8d:52:92:7c:1b:f4:30:51:9e:84:a4:f8:
                    ef:0e:2e:66:dc:b5:43:bf:f4:eb:6b:29:a0:8b:d2:
                    ed:fa:2e:d2:41:12:3a:0d:28:24:e5:d9:77:18:95:
                    e9:fe:c4:9a:35:52:c2:64:64:b6:ca:36:41:38:f6:
                    db:b6:2f:6e:df:2a:fa:aa:e3:e4:7f:f0:44:fe:57:
                    40:c2:fd:8d:4e:00:d4:10:73:cd:6e:d5:b7:94:3e:
                    bc:d3:91:d2:db:eb:0e:1a:77:d1:f4:ac:15:21:9d:
                    99:fa:67:98:d0:48:1e:a7:a3:5d:c6:b7:70:84:ae:
                    2a:14:8b:b6:30:74:c2:0c:e1:f1:53:86:de:ed:26:
                    41:02:46:c6:d2:7e:1e:5e:08:ee:3b:ef:2b:9f:9b:
                    9c:9e:a1:6c:32:f9:cd:50:33:b6:31:9c:03:9a:14:
                    15:05:a3:36:9c:4f:0c:72:15:f1:8e:73:33:64:14:
                    44:a1:d0:f9:0e:2b:84:5f:f4:2b:b0:3a:25:bf:2f:
                    31:de:e4:39:d3:ef:bd:95:d0:f4:64:4e:ec:ad:ef:
                    24:56:3d:1d:45:d0:90:e0:6a:ed:6b:d4:8a:9d:c1:
                    95:73:fb:2a:cd:54:21:91:23:4e:f4:18:93:33:ca:
                    56:5c:96:1f:74:57:91:45:69:a6:d5:ea:3c:50:9b:
                    5c:05:7b:de:f8:d5:c7:95:c5:b0:0a:fb:2d:bc:ee:
                    c8:62:5e:7f:b6:87:59:08:db:1d:f5:8a:3f:e8:6e:
                    4b:51:89:f0:d2:45:01:d7:77:9f:3c:20:2f:38:69:
                    f6:98:af:4d:3f:dc:5b:7c:ec:80:d1:c6:0b:fb:63:
                    9c:fe:15:69:45:eb:32:a6:f4:f7:7f:5a:99:9b:9d:
                    40:a8:ac:49:1a:a8:38:de:26:80:97:52:71:fe:8d:
                    93:a1:81:bd:32:02:4c:66:e2:60:73:b0:f0:51:0d:
                    a7:53:bd:0e:06:7b:2f:ee:df:64:21:2e:bd:5c:c0:
                    49:ab:da:1b:fa:b8:2c:fb:7c:48:c3:5b:5a:cb:b3:
                    d2:3b:f3:b9:c6:48:04:a1:84:72:6f:24:c2:e4:df:
                    aa:d4:64:58:a0:c5:9b:27:95:c9:c2:33:d4:b0:73:
                    37:e2:5f:fe:c2:ea:9e:0c:75:cd:27:fa:1b:41:6f:
                    4b:00:5f:17:a9:d1:91:66:f9:98:f7:02:71:90:3f:
                    ec:9d:bf
                Exponent: 65537 (0x10001)
        X509v3 extensions:
            X509v3 Basic Constraints: 
                CA:FALSE
            Netscape Comment: 
                Easy-RSA Generated Certificate
            X509v3 Subject Key Identifier: 
                57:1D:56:C0:E6:AF:F9:20:D1:FF:EF:64:57:34:F7:64:CE:A0:1F:C5
            X509v3 Authority Key Identifier: 
                keyid:12:CD:60:04:D2:A0:80:9E:70:ED:C6:99:B8:7B:2C:C6:52:FD:19:A1
                DirName:/C=US/ST=OH/L=Columbus/O=VikingVPN/OU=MyOrganizationalUnit/CN=VikingVPN CA/name=EasyRSA/emailAddress=me@myhost.mydomain
                serial:CF:35:85:EE:80:BF:2A:3E

            X509v3 Extended Key Usage: 
                TLS Web Client Authentication
            X509v3 Key Usage: 
                Digital Signature
    Signature Algorithm: md5WithRSAEncryption
         30:f2:2e:ae:4d:80:a6:5e:dc:62:8d:59:db:40:9a:59:e4:2f:
         bb:5e:33:7b:c1:02:fd:9b:c3:02:01:cf:b2:07:0c:37:e8:45:
         cc:48:43:23:8f:d1:cd:9a:97:09:3d:b5:b2:d0:0f:39:14:7f:
         07:bc:ea:e7:1c:5f:39:7e:18:5a:11:d5:31:54:21:31:b2:17:
         bd:38:b0:36:4f:04:fe:24:37:ec:8e:96:e8:d3:61:4b:eb:06:
         fc:77:9b:d5:2a:e9:6f:1c:f3:fd:eb:95:17:82:18:55:e0:0b:
         73:7c:66:8b:3b:7a:65:17:56:00:10:b8:65:a3:89:df:20:63:
         f7:24:9b:7f:d0:f1:37:19:77:49:a6:89:c6:64:02:0e:57:09:
         fa:8c:a0:13:1c:bd:59:5e:66:51:fa:34:f4:5a:2a:62:52:f6:
         88:d3:ba:b5:8f:63:50:54:71:43:32:2c:10:60:78:7a:34:9a:
         58:df:e4:5f:c1:19:49:a2:46:9e:92:58:e1:a6:55:fb:55:1d:
         50:45:90:3d:6a:a5:89:af:cd:27:02:6e:06:49:5b:03:0f:0b:
         79:37:d0:79:d9:d0:cf:16:3b:57:9c:cf:41:61:af:3d:91:72:
         84:73:8f:e2:10:19:fd:13:9b:5c:79:5d:22:57:d9:b3:62:df:
         39:1a:59:16:9d:f4:4a:a1:39:90:06:89:90:b1:26:66:14:80:
         e5:3b:03:16:14:f7:74:25:e8:82:7e:ad:e0:b2:71:3e:14:b2:
         0d:ba:d5:ea:9b:29:1c:61:76:ae:8b:de:57:e1:74:bf:13:41:
         45:d3:95:a5:97:95:64:57:a7:c2:33:32:e8:53:f8:18:b3:78:
         bc:04:6d:f0:d2:6a:4b:84:4d:3f:e4:c7:df:86:9d:eb:f6:73:
         45:f2:d7:64:2e:67:b0:b3:26:48:e7:97:85:45:f1:86:d6:53:
         e2:8d:85:0e:07:dc:80:9f:2e:c1:90:44:a9:fc:da:92:54:5b:
         5f:09:66:c7:b1:0e:30:83:0b:44:11:9e:2b:13:69:2f:b8:11:
         8d:ce:0c:b1:a7:27:13:bc:15:b1:45:6e:eb:3a:0b:5d:1c:0f:
         a8:08:0b:98:0a:29:4b:1f:34:a8:6a:17:fe:3b:06:11:90:60:
         83:8b:83:57:6e:d0:d7:da:66:77:08:54:86:66:56:43:a3:ce:
         cc:75:18:79:9c:e0:f4:a4:49:2c:ce:f2:1d:a7:e7:97:bf:f4:
         81:89:1a:1f:aa:a3:e4:8b:03:d4:43:fd:59:a8:da:0e:15:99:
         de:6d:80:b6:fa:bd:e2:c8:ef:82:3f:ba:58:e9:a4:0a:00:b7:
         24:28:8a:9a:93:ed:db:c7
-----BEGIN CERTIFICATE-----
MIIGrDCCBJSgAwIBAgICB54wDQYJKoZIhvcNAQEEBQAwgawxCzAJBgNVBAYTAlVT
MQswCQYDVQQIEwJPSDERMA8GA1UEBxMIQ29sdW1idXMxEjAQBgNVBAoTCVZpa2lu
Z1ZQTjEdMBsGA1UECxMUTXlPcmdhbml6YXRpb25hbFVuaXQxFTATBgNVBAMTDFZp
a2luZ1ZQTiBDQTEQMA4GA1UEKRMHRWFzeVJTQTEhMB8GCSqGSIb3DQEJARYSbWVA
bXlob3N0Lm15ZG9tYWluMB4XDTE0MDUyMzE4MzYwMloXDTI0MDUyMDE4MzYwMlow
HjEcMBoGA1UEAxMTQ2xpZW50Njc0Q2VydDI0OTM5MTCCAiIwDQYJKoZIhvcNAQEB
BQADggIPADCCAgoCggIBAPJBZfJuBXQ2UOxV0Y8/T0QozABITpzo8m8T/FwZyagw
WzNI/TMaJehjImHVY1FtGpZb1zFK0SkgxqOIfPFGjVKSfBv0MFGehKT47w4uZty1
Q7/062spoIvS7fou0kESOg0oJOXZdxiV6f7EmjVSwmRktso2QTj227Yvbt8q+qrj
5H/wRP5XQML9jU4A1BBzzW7Vt5Q+vNOR0tvrDhp30fSsFSGdmfpnmNBIHqejXca3
cISuKhSLtjB0wgzh8VOG3u0mQQJGxtJ+Hl4I7jvvK5+bnJ6hbDL5zVAztjGcA5oU
FQWjNpxPDHIV8Y5zM2QURKHQ+Q4rhF/0K7A6Jb8vMd7kOdPvvZXQ9GRO7K3vJFY9
HUXQkOBq7WvUip3BlXP7Ks1UIZEjTvQYkzPKVlyWH3RXkUVpptXqPFCbXAV73vjV
x5XFsAr7LbzuyGJef7aHWQjbHfWKP+huS1GJ8NJFAdd3nzwgLzhp9pivTT/cW3zs
gNHGC/tjnP4VaUXrMqb0939amZudQKisSRqoON4mgJdScf6Nk6GBvTICTGbiYHOw
8FENp1O9DgZ7L+7fZCEuvVzASavaG/q4LPt8SMNbWsuz0jvzucZIBKGEcm8kwuTf
qtRkWKDFmyeVycIz1LBzN+Jf/sLqngx1zSf6G0FvSwBfF6nRkWb5mPcCcZA/7J2/
AgMBAAGjggFjMIIBXzAJBgNVHRMEAjAAMC0GCWCGSAGG+EIBDQQgFh5FYXN5LVJT
QSBHZW5lcmF0ZWQgQ2VydGlmaWNhdGUwHQYDVR0OBBYEFFcdVsDmr/kg0f/vZFc0
92TOoB/FMIHhBgNVHSMEgdkwgdaAFBLNYATSoICecO3Gmbh7LMZS/RmhoYGypIGv
MIGsMQswCQYDVQQGEwJVUzELMAkGA1UECBMCT0gxETAPBgNVBAcTCENvbHVtYnVz
MRIwEAYDVQQKEwlWaWtpbmdWUE4xHTAbBgNVBAsTFE15T3JnYW5pemF0aW9uYWxV
bml0MRUwEwYDVQQDEwxWaWtpbmdWUE4gQ0ExEDAOBgNVBCkTB0Vhc3lSU0ExITAf
BgkqhkiG9w0BCQEWEm1lQG15aG9zdC5teWRvbWFpboIJAM81he6Avyo+MBMGA1Ud
JQQMMAoGCCsGAQUFBwMCMAsGA1UdDwQEAwIHgDANBgkqhkiG9w0BAQQFAAOCAgEA
MPIurk2Apl7cYo1Z20CaWeQvu14ze8EC/ZvDAgHPsgcMN+hFzEhDI4/RzZqXCT21
stAPORR/B7zq5xxfOX4YWhHVMVQhMbIXvTiwNk8E/iQ37I6W6NNhS+sG/Heb1Srp
bxzz/euVF4IYVeALc3xmizt6ZRdWABC4ZaOJ3yBj9ySbf9DxNxl3SaaJxmQCDlcJ
+oygExy9WV5mUfo09FoqYlL2iNO6tY9jUFRxQzIsEGB4ejSaWN/kX8EZSaJGnpJY
4aZV+1UdUEWQPWqlia/NJwJuBklbAw8LeTfQednQzxY7V5zPQWGvPZFyhHOP4hAZ
/RObXHldIlfZs2LfORpZFp30SqE5kAaJkLEmZhSA5TsDFhT3dCXogn6t4LJxPhSy
DbrV6pspHGF2roveV+F0vxNBRdOVpZeVZFenwjMy6FP4GLN4vARt8NJqS4RNP+TH
34ad6/ZzRfLXZC5nsLMmSOeXhUXxhtZT4o2FDgfcgJ8uwZBEqfzaklRbXwlmx7EO
MIMLRBGeKxNpL7gRjc4MsacnE7wVsUVu6zoLXRwPqAgLmAopSx80qGoX/jsGEZBg
g4uDV27Q19pmdwhUhmZWQ6POzHUYeZzg9KRJLM7yHafnl7/0gYkaH6qj5IsD1EP9
WajaDhWZ3m2Atvq94sjvgj+6WOmkCgC3JCiKmpPt28c=
-----END CERTIFICATE-----
