Certificate:
    Data:
        Version: 3 (0x2)
        Serial Number: 12641 (0x3161)
    Signature Algorithm: sha256WithRSAEncryption
        Issuer: C=US, ST=OH, L=Columbus, O=VikingVPN, OU=MyOrganizationalUnit, CN=VikingVPN CA/name=EasyRSA/emailAddress=me@myhost.mydomain
        Validity
            Not Before: Mar  1 11:46:06 2018 GMT
            Not After : Feb 27 11:46:06 2028 GMT
        Subject: CN=Client1702Cert183db4
        Subject Public Key Info:
            Public Key Algorithm: rsaEncryption
                Public-Key: (4096 bit)
                Modulus:
                    00:e5:96:55:72:6b:69:f4:19:c1:e8:10:ae:21:29:
                    de:8f:1d:0e:1b:ec:dd:e5:51:98:cf:c5:63:12:6c:
                    f4:1e:74:02:fc:fb:30:aa:17:62:77:61:f6:49:3c:
                    e3:d7:94:a7:3e:5e:e1:c8:bb:69:3c:69:f3:cb:75:
                    b6:b9:3d:4b:8c:44:41:61:7a:09:b9:03:26:19:19:
                    f2:32:dc:ae:c0:db:f6:47:ea:82:d5:05:36:61:f8:
                    7f:dd:5d:c0:f4:88:66:09:5c:f0:08:54:8b:4b:7a:
                    1b:45:b8:db:59:1e:96:ed:fc:1c:a3:c8:94:ab:a1:
                    4a:11:06:51:16:26:4d:72:99:f3:f4:48:db:96:d5:
                    d0:92:56:16:de:35:71:48:b9:66:da:79:9c:40:ba:
                    c0:68:f2:71:3e:14:e2:50:9e:92:60:84:c7:24:50:
                    4e:d6:76:ec:4b:0e:66:81:f8:f4:ac:f4:25:4d:40:
                    c1:b5:c7:66:a0:9e:43:6a:3a:ab:57:b1:19:16:43:
                    4a:07:f5:3e:fe:3a:67:71:c3:9f:6d:5a:d5:67:40:
                    38:6f:58:02:25:64:ac:f8:83:8d:85:f9:cf:ca:28:
                    21:bc:a9:c2:eb:a0:f9:9f:27:5d:b9:d3:8b:13:49:
                    a1:fb:ba:f8:bb:7d:26:99:cd:c3:08:4d:46:c9:ed:
                    b4:a3:a7:21:90:5d:43:97:f2:21:dc:df:36:59:30:
                    34:c5:06:7e:79:d6:4a:2a:a6:31:ee:72:08:71:a4:
                    79:cb:e6:29:4b:91:4b:5e:2b:28:82:ea:5e:63:66:
                    18:b8:24:68:b4:7d:81:d0:2b:6c:8b:5b:3e:55:bf:
                    3d:ce:4d:64:ea:2a:b8:bb:5f:75:88:56:b2:c0:41:
                    24:0a:d5:7d:f6:40:e9:71:ae:5d:7a:8d:02:20:26:
                    73:4c:f1:24:2c:bd:95:3e:19:36:41:23:77:23:a2:
                    ee:9b:9f:91:a2:b1:f6:2c:ef:2f:f0:89:fa:ea:c1:
                    19:7a:5e:f5:8d:2d:0d:d2:37:41:80:69:64:21:95:
                    13:a0:d3:c2:52:a7:5c:48:07:ab:55:e1:5f:4d:42:
                    01:96:de:10:43:ba:4f:a6:13:a4:64:87:83:70:91:
                    ba:a5:bc:0a:8a:f4:44:4e:0d:47:da:9b:db:16:89:
                    6a:de:26:6b:d5:0f:78:85:af:2f:4a:c1:2e:22:db:
                    c3:aa:6e:7a:c4:7e:93:c2:39:f4:ab:71:11:11:98:
                    93:34:25:35:7c:4e:91:e6:f8:f4:ff:12:2c:89:3c:
                    8d:61:0d:51:71:c8:5f:c8:60:84:8e:f7:65:38:b9:
                    0c:d0:ed:90:d8:4a:ee:a1:3b:0d:b8:a1:1f:69:db:
                    99:03:17
                Exponent: 65537 (0x10001)
        X509v3 extensions:
            X509v3 Basic Constraints: 
                CA:FALSE
            Netscape Comment: 
                Easy-RSA Generated Certificate
            X509v3 Subject Key Identifier: 
                D4:AE:BA:85:6C:97:AE:9E:1B:7C:AA:3F:96:49:54:14:E5:97:12:F0
            X509v3 Authority Key Identifier: 
                keyid:12:CD:60:04:D2:A0:80:9E:70:ED:C6:99:B8:7B:2C:C6:52:FD:19:A1
                DirName:/C=US/ST=OH/L=Columbus/O=VikingVPN/OU=MyOrganizationalUnit/CN=VikingVPN CA/name=EasyRSA/emailAddress=me@myhost.mydomain
                serial:CF:35:85:EE:80:BF:2A:3E

            X509v3 Extended Key Usage: 
                TLS Web Client Authentication
            X509v3 Key Usage: 
                Digital Signature
    Signature Algorithm: sha256WithRSAEncryption
         e1:fd:c8:b9:a0:78:9a:38:c3:6c:60:5b:a1:96:73:7d:ea:65:
         ad:48:b2:2c:66:a5:39:57:4d:f9:cf:8c:88:4e:55:0c:20:4d:
         d7:59:f0:ba:49:c6:ab:42:e4:5c:7b:55:83:89:7d:d5:03:3a:
         d1:ce:eb:f1:c2:37:e7:15:f8:51:39:e9:8c:78:87:a0:df:df:
         56:f6:75:79:bc:06:e8:d8:f4:16:bd:8a:99:1b:54:9e:61:de:
         44:45:9b:6e:58:64:7e:0f:05:e0:f0:81:06:d2:7d:a9:e3:bf:
         6e:59:d5:db:c5:36:97:67:f1:b0:ac:32:c7:ce:a7:c0:1e:3d:
         7b:40:14:72:c8:f7:5d:29:19:ba:a3:b4:ea:20:b5:87:aa:47:
         25:a8:5e:cf:a7:3a:e8:89:53:60:b2:9c:2a:1c:fd:f8:d2:4e:
         c2:7f:41:4b:18:2c:02:f1:13:75:06:4e:d3:5a:a6:fd:ed:4f:
         f0:9f:d8:c0:1a:81:bb:89:4f:50:4c:50:ac:cd:3a:7c:3f:84:
         2c:58:33:7a:39:e2:ff:9b:44:5a:43:50:d1:ca:d3:b0:0c:6a:
         6c:3a:14:19:d6:9a:10:55:2d:29:59:ad:c4:1e:34:fd:a8:e1:
         4b:3d:36:b4:87:c4:14:1c:bf:ce:91:11:0c:b9:e1:ba:21:76:
         59:51:d4:64:9d:1e:88:c1:0e:f1:1c:e2:e3:48:3f:3f:0f:f1:
         a4:f1:11:c4:60:a5:26:be:46:37:90:af:82:17:b0:2a:ee:56:
         28:6e:21:35:b1:53:e3:8c:d7:ac:a4:53:86:21:43:ff:c8:4d:
         51:3f:a7:1b:dc:6e:fd:9c:47:77:18:a0:12:9f:24:78:0f:47:
         97:77:9c:f1:a6:c5:52:94:d3:94:9c:f7:5f:88:45:7d:56:f7:
         73:3e:7d:de:3b:48:e9:8a:0b:74:99:b3:4a:89:59:a7:d4:6b:
         2b:6a:bf:3e:a8:5f:bc:3f:57:46:fc:6e:4d:86:d2:ef:f2:0e:
         93:14:33:83:a1:04:37:7a:f5:cb:df:0a:2e:8b:61:c3:70:e4:
         8b:ef:73:14:a3:d8:c3:28:e2:55:6b:90:c2:d9:c3:41:c4:9a:
         63:fc:c6:6b:50:6c:3d:92:0c:75:e7:e2:4c:44:13:db:e6:69:
         99:64:1d:ee:73:c1:63:d1:94:e0:20:fd:bd:a0:ef:29:53:fa:
         37:ae:62:08:e2:99:50:2f:f7:55:41:16:8e:f7:b9:97:c5:82:
         25:64:43:81:91:d3:6e:79:3c:1b:12:1a:a9:4d:84:38:e9:4d:
         e5:ed:ab:fe:47:64:5b:76:8c:67:64:b6:d2:12:5a:f9:6c:33:
         84:a5:9c:7c:af:74:10:2e
-----BEGIN CERTIFICATE-----
MIIGrTCCBJWgAwIBAgICMWEwDQYJKoZIhvcNAQELBQAwgawxCzAJBgNVBAYTAlVT
MQswCQYDVQQIEwJPSDERMA8GA1UEBxMIQ29sdW1idXMxEjAQBgNVBAoTCVZpa2lu
Z1ZQTjEdMBsGA1UECxMUTXlPcmdhbml6YXRpb25hbFVuaXQxFTATBgNVBAMTDFZp
a2luZ1ZQTiBDQTEQMA4GA1UEKRMHRWFzeVJTQTEhMB8GCSqGSIb3DQEJARYSbWVA
bXlob3N0Lm15ZG9tYWluMB4XDTE4MDMwMTExNDYwNloXDTI4MDIyNzExNDYwNlow
HzEdMBsGA1UEAxMUQ2xpZW50MTcwMkNlcnQxODNkYjQwggIiMA0GCSqGSIb3DQEB
AQUAA4ICDwAwggIKAoICAQDlllVya2n0GcHoEK4hKd6PHQ4b7N3lUZjPxWMSbPQe
dAL8+zCqF2J3YfZJPOPXlKc+XuHIu2k8afPLdba5PUuMREFhegm5AyYZGfIy3K7A
2/ZH6oLVBTZh+H/dXcD0iGYJXPAIVItLehtFuNtZHpbt/ByjyJSroUoRBlEWJk1y
mfP0SNuW1dCSVhbeNXFIuWbaeZxAusBo8nE+FOJQnpJghMckUE7WduxLDmaB+PSs
9CVNQMG1x2agnkNqOqtXsRkWQ0oH9T7+Omdxw59tWtVnQDhvWAIlZKz4g42F+c/K
KCG8qcLroPmfJ12504sTSaH7uvi7fSaZzcMITUbJ7bSjpyGQXUOX8iHc3zZZMDTF
Bn551koqpjHucghxpHnL5ilLkUteKyiC6l5jZhi4JGi0fYHQK2yLWz5Vvz3OTWTq
Kri7X3WIVrLAQSQK1X32QOlxrl16jQIgJnNM8SQsvZU+GTZBI3cjou6bn5GisfYs
7y/wifrqwRl6XvWNLQ3SN0GAaWQhlROg08JSp1xIB6tV4V9NQgGW3hBDuk+mE6Rk
h4NwkbqlvAqK9ERODUfam9sWiWreJmvVD3iFry9KwS4i28OqbnrEfpPCOfSrcRER
mJM0JTV8TpHm+PT/EiyJPI1hDVFxyF/IYISO92U4uQzQ7ZDYSu6hOw24oR9p25kD
FwIDAQABo4IBYzCCAV8wCQYDVR0TBAIwADAtBglghkgBhvhCAQ0EIBYeRWFzeS1S
U0EgR2VuZXJhdGVkIENlcnRpZmljYXRlMB0GA1UdDgQWBBTUrrqFbJeunht8qj+W
SVQU5ZcS8DCB4QYDVR0jBIHZMIHWgBQSzWAE0qCAnnDtxpm4eyzGUv0ZoaGBsqSB
rzCBrDELMAkGA1UEBhMCVVMxCzAJBgNVBAgTAk9IMREwDwYDVQQHEwhDb2x1bWJ1
czESMBAGA1UEChMJVmlraW5nVlBOMR0wGwYDVQQLExRNeU9yZ2FuaXphdGlvbmFs
VW5pdDEVMBMGA1UEAxMMVmlraW5nVlBOIENBMRAwDgYDVQQpEwdFYXN5UlNBMSEw
HwYJKoZIhvcNAQkBFhJtZUBteWhvc3QubXlkb21haW6CCQDPNYXugL8qPjATBgNV
HSUEDDAKBggrBgEFBQcDAjALBgNVHQ8EBAMCB4AwDQYJKoZIhvcNAQELBQADggIB
AOH9yLmgeJo4w2xgW6GWc33qZa1IsixmpTlXTfnPjIhOVQwgTddZ8LpJxqtC5Fx7
VYOJfdUDOtHO6/HCN+cV+FE56Yx4h6Df31b2dXm8BujY9Ba9ipkbVJ5h3kRFm25Y
ZH4PBeDwgQbSfanjv25Z1dvFNpdn8bCsMsfOp8AePXtAFHLI910pGbqjtOogtYeq
RyWoXs+nOuiJU2CynCoc/fjSTsJ/QUsYLALxE3UGTtNapv3tT/Cf2MAagbuJT1BM
UKzNOnw/hCxYM3o54v+bRFpDUNHK07AMamw6FBnWmhBVLSlZrcQeNP2o4Us9NrSH
xBQcv86REQy54bohdllR1GSdHojBDvEc4uNIPz8P8aTxEcRgpSa+RjeQr4IXsCru
VihuITWxU+OM16ykU4YhQ//ITVE/pxvcbv2cR3cYoBKfJHgPR5d3nPGmxVKU05Sc
91+IRX1W93M+fd47SOmKC3SZs0qJWafUaytqvz6oX7w/V0b8bk2G0u/yDpMUM4Oh
BDd69cvfCi6LYcNw5IvvcxSj2MMo4lVrkMLZw0HEmmP8xmtQbD2SDHXn4kxEE9vm
aZlkHe5zwWPRlOAg/b2g7ylT+jeuYgjimVAv91VBFo73uZfFgiVkQ4GR0255PBsS
GqlNhDjpTeXtq/5HZFt2jGdkttISWvlsM4SlnHyvdBAu
-----END CERTIFICATE-----
