Certificate:
    Data:
        Version: 3 (0x2)
        Serial Number: 3111 (0xc27)
    Signature Algorithm: md5WithRSAEncryption
        Issuer: C=US, ST=OH, L=Columbus, O=VikingVPN, OU=MyOrganizationalUnit, CN=VikingVPN CA/name=EasyRSA/emailAddress=me@myhost.mydomain
        Validity
            Not Before: Oct 13 21:30:15 2014 GMT
            Not After : Oct 10 21:30:15 2024 GMT
        Subject: CN=Client3Cert625368
        Subject Public Key Info:
            Public Key Algorithm: rsaEncryption
                Public-Key: (4096 bit)
                Modulus:
                    00:b9:8a:af:7b:5d:3a:60:9d:fd:c3:25:ba:40:2f:
                    01:d5:25:be:27:a3:c8:d2:a5:14:09:36:6b:28:c5:
                    72:b1:58:0a:40:75:e3:36:0c:73:32:13:c7:1d:4d:
                    18:e9:14:d3:3a:fb:34:9a:3c:85:39:55:9d:ee:98:
                    7c:d6:0d:63:90:8a:8a:a7:ec:1e:85:3d:22:6c:87:
                    a3:f8:ea:74:aa:8e:fa:c1:9c:34:43:63:1d:87:cc:
                    06:70:04:5f:c8:b0:64:b9:37:4a:e6:9d:75:f3:10:
                    e3:9d:98:be:22:09:c5:58:ee:e6:19:31:5f:de:bb:
                    38:8f:51:44:31:a5:fc:ec:9e:b1:c7:40:d3:5e:a0:
                    f8:94:b4:67:20:f5:78:c8:73:17:11:7d:da:30:e5:
                    92:15:f4:64:cf:11:46:e7:b3:d8:e3:40:3b:c1:88:
                    04:2d:c8:5e:58:2f:ff:9d:ce:ec:b9:b4:52:3a:b1:
                    a3:09:a4:5a:cc:ad:e4:73:61:05:53:40:9a:41:d1:
                    aa:b6:fa:29:99:c2:ae:1c:83:43:ad:a8:cd:66:eb:
                    07:d2:bd:10:36:ee:48:a3:ac:de:91:75:27:df:4c:
                    d8:bf:51:e7:76:cf:3f:11:fc:5f:31:bd:b1:b7:c0:
                    07:14:da:da:5d:eb:0c:b4:6e:98:39:c6:66:54:24:
                    85:c0:9b:af:e0:50:44:0d:27:4d:4b:a5:e1:f1:d7:
                    90:1a:f1:3a:a7:92:82:62:02:dd:5d:00:6f:23:4c:
                    ca:10:77:d2:bd:73:4e:38:23:75:92:8a:a7:4e:5d:
                    09:df:3d:43:53:b4:0d:4f:48:af:06:04:39:e0:69:
                    7e:7b:ea:5c:c6:77:56:a0:d3:1d:fe:13:e5:48:8c:
                    f9:29:1d:19:a2:c4:63:c5:c9:2d:c0:e3:06:e3:f8:
                    da:01:77:98:ff:d2:b4:3e:c8:50:e8:27:b0:35:b7:
                    79:f1:24:51:4f:08:78:26:1a:47:de:bf:fc:1a:60:
                    a2:a5:2d:9e:bc:27:a8:68:23:a7:75:de:a6:82:72:
                    de:27:b1:84:cb:f0:d5:58:ab:60:08:66:63:a1:c4:
                    bd:e6:ca:31:65:81:e3:b4:20:b1:1f:ed:b0:0e:27:
                    56:50:12:f0:ec:06:ac:9c:d8:31:f7:8a:86:17:46:
                    29:59:c9:99:0f:8d:2e:24:7d:ee:28:b1:df:a7:c9:
                    47:10:0f:00:40:13:09:28:af:c7:c6:aa:86:18:1d:
                    6d:74:b6:0c:b9:eb:79:a7:3f:16:19:71:55:87:ae:
                    9f:60:7b:d9:a9:59:f8:b6:44:e9:b7:f1:41:53:73:
                    89:f6:b9:de:d3:c3:e9:59:45:41:56:f1:74:37:72:
                    6d:e4:ad
                Exponent: 65537 (0x10001)
        X509v3 extensions:
            X509v3 Basic Constraints: 
                CA:FALSE
            Netscape Comment: 
                Easy-RSA Generated Certificate
            X509v3 Subject Key Identifier: 
                AA:BE:1E:31:0B:FB:78:EC:20:E3:95:F9:8C:BA:13:D7:15:DC:0C:9C
            X509v3 Authority Key Identifier: 
                keyid:12:CD:60:04:D2:A0:80:9E:70:ED:C6:99:B8:7B:2C:C6:52:FD:19:A1
                DirName:/C=US/ST=OH/L=Columbus/O=VikingVPN/OU=MyOrganizationalUnit/CN=VikingVPN CA/name=EasyRSA/emailAddress=me@myhost.mydomain
                serial:CF:35:85:EE:80:BF:2A:3E

            X509v3 Extended Key Usage: 
                TLS Web Client Authentication
            X509v3 Key Usage: 
                Digital Signature
    Signature Algorithm: md5WithRSAEncryption
         ad:45:95:03:41:1d:3c:45:6d:5a:a6:f5:d0:1a:68:b1:23:83:
         1c:b4:b9:e0:72:cd:85:53:b2:44:cb:9a:6e:96:6c:2b:75:b8:
         e1:e8:6e:e8:f6:1c:24:45:45:48:14:4a:b5:75:23:c4:da:13:
         eb:23:82:aa:bc:a9:55:85:15:83:2f:52:0f:72:7c:d9:e5:d1:
         48:72:d2:40:cc:66:5c:54:e6:d5:05:55:e6:80:12:11:4b:d2:
         0d:f2:dc:f2:f8:fd:73:36:76:f2:c7:3d:27:d2:2a:b7:8b:a4:
         7b:4b:a2:f9:64:5a:f2:61:16:7d:7c:2d:c1:47:d4:0b:af:62:
         3d:c6:cc:a7:1e:88:00:18:e5:35:fe:45:bd:93:9c:6f:fd:f2:
         83:4e:86:24:b0:05:f7:08:6a:50:d1:76:d0:ad:14:c3:62:f9:
         71:b6:c3:50:d5:03:77:dd:2c:ba:e4:4d:0d:9e:03:38:65:ca:
         9c:ae:42:7f:0f:a4:bf:cc:00:1d:e2:92:e3:b9:cc:ea:c8:45:
         0f:b8:fc:cb:31:c2:29:80:35:16:14:1a:84:5c:23:d7:af:3a:
         1f:08:ca:95:8c:b9:c7:46:2d:1d:0f:49:89:bc:94:c0:69:64:
         3c:8c:b5:fe:1c:17:ee:db:91:ba:db:23:03:e0:7b:a5:e1:da:
         3a:52:46:85:ef:ae:54:71:76:82:ab:29:d1:92:4d:46:a0:cb:
         62:30:a8:55:1f:b9:a4:bf:2a:1f:ec:82:ba:42:e3:5a:bc:35:
         62:f6:9e:01:9e:0f:fc:26:c2:9d:94:ec:64:23:05:8c:e7:2d:
         91:c0:6b:fd:fc:61:11:47:4f:45:22:2c:ca:52:1c:2e:fe:18:
         9b:28:18:47:c1:0a:e4:c2:2a:60:23:7e:1f:36:0b:fe:7b:a2:
         df:ec:6a:48:10:8a:89:b0:aa:2d:a0:6e:55:02:4c:cb:55:75:
         04:59:67:6f:90:28:1d:70:e2:de:4e:de:fa:39:ed:c0:96:25:
         cf:18:93:25:29:3f:dc:5c:b9:48:f5:50:e6:47:bf:14:22:6f:
         e0:9e:f7:d8:9b:3f:ce:64:b2:3f:ef:8f:78:96:2a:3b:04:6a:
         7a:96:81:a0:3b:c2:ad:3d:41:51:4e:ac:7a:b5:b8:ac:d3:34:
         02:15:2b:64:63:7a:55:1a:82:95:81:eb:e1:63:fa:0c:0c:17:
         f1:f3:7e:e1:78:58:9e:43:72:9e:34:d8:78:0f:5e:b2:1b:e7:
         de:76:cb:e0:11:41:5e:98:7d:e9:ea:c3:aa:32:cd:88:eb:26:
         47:33:0e:43:92:93:e4:fa:96:31:dc:14:2b:8e:98:88:df:82:
         3d:d9:a3:9b:4b:6e:f1:27
-----BEGIN CERTIFICATE-----
MIIGqjCCBJKgAwIBAgICDCcwDQYJKoZIhvcNAQEEBQAwgawxCzAJBgNVBAYTAlVT
MQswCQYDVQQIEwJPSDERMA8GA1UEBxMIQ29sdW1idXMxEjAQBgNVBAoTCVZpa2lu
Z1ZQTjEdMBsGA1UECxMUTXlPcmdhbml6YXRpb25hbFVuaXQxFTATBgNVBAMTDFZp
a2luZ1ZQTiBDQTEQMA4GA1UEKRMHRWFzeVJTQTEhMB8GCSqGSIb3DQEJARYSbWVA
bXlob3N0Lm15ZG9tYWluMB4XDTE0MTAxMzIxMzAxNVoXDTI0MTAxMDIxMzAxNVow
HDEaMBgGA1UEAxMRQ2xpZW50M0NlcnQ2MjUzNjgwggIiMA0GCSqGSIb3DQEBAQUA
A4ICDwAwggIKAoICAQC5iq97XTpgnf3DJbpALwHVJb4no8jSpRQJNmsoxXKxWApA
deM2DHMyE8cdTRjpFNM6+zSaPIU5VZ3umHzWDWOQioqn7B6FPSJsh6P46nSqjvrB
nDRDYx2HzAZwBF/IsGS5N0rmnXXzEOOdmL4iCcVY7uYZMV/euziPUUQxpfzsnrHH
QNNeoPiUtGcg9XjIcxcRfdow5ZIV9GTPEUbns9jjQDvBiAQtyF5YL/+dzuy5tFI6
saMJpFrMreRzYQVTQJpB0aq2+imZwq4cg0OtqM1m6wfSvRA27kijrN6RdSffTNi/
Ued2zz8R/F8xvbG3wAcU2tpd6wy0bpg5xmZUJIXAm6/gUEQNJ01LpeHx15Aa8Tqn
koJiAt1dAG8jTMoQd9K9c044I3WSiqdOXQnfPUNTtA1PSK8GBDngaX576lzGd1ag
0x3+E+VIjPkpHRmixGPFyS3A4wbj+NoBd5j/0rQ+yFDoJ7A1t3nxJFFPCHgmGkfe
v/waYKKlLZ68J6hoI6d13qaCct4nsYTL8NVYq2AIZmOhxL3myjFlgeO0ILEf7bAO
J1ZQEvDsBqyc2DH3ioYXRilZyZkPjS4kfe4osd+nyUcQDwBAEwkor8fGqoYYHW10
tgy563mnPxYZcVWHrp9ge9mpWfi2ROm38UFTc4n2ud7Tw+lZRUFW8XQ3cm3krQID
AQABo4IBYzCCAV8wCQYDVR0TBAIwADAtBglghkgBhvhCAQ0EIBYeRWFzeS1SU0Eg
R2VuZXJhdGVkIENlcnRpZmljYXRlMB0GA1UdDgQWBBSqvh4xC/t47CDjlfmMuhPX
FdwMnDCB4QYDVR0jBIHZMIHWgBQSzWAE0qCAnnDtxpm4eyzGUv0ZoaGBsqSBrzCB
rDELMAkGA1UEBhMCVVMxCzAJBgNVBAgTAk9IMREwDwYDVQQHEwhDb2x1bWJ1czES
MBAGA1UEChMJVmlraW5nVlBOMR0wGwYDVQQLExRNeU9yZ2FuaXphdGlvbmFsVW5p
dDEVMBMGA1UEAxMMVmlraW5nVlBOIENBMRAwDgYDVQQpEwdFYXN5UlNBMSEwHwYJ
KoZIhvcNAQkBFhJtZUBteWhvc3QubXlkb21haW6CCQDPNYXugL8qPjATBgNVHSUE
DDAKBggrBgEFBQcDAjALBgNVHQ8EBAMCB4AwDQYJKoZIhvcNAQEEBQADggIBAK1F
lQNBHTxFbVqm9dAaaLEjgxy0ueByzYVTskTLmm6WbCt1uOHobuj2HCRFRUgUSrV1
I8TaE+sjgqq8qVWFFYMvUg9yfNnl0Uhy0kDMZlxU5tUFVeaAEhFL0g3y3PL4/XM2
dvLHPSfSKreLpHtLovlkWvJhFn18LcFH1AuvYj3GzKceiAAY5TX+Rb2TnG/98oNO
hiSwBfcIalDRdtCtFMNi+XG2w1DVA3fdLLrkTQ2eAzhlypyuQn8PpL/MAB3ikuO5
zOrIRQ+4/MsxwimANRYUGoRcI9evOh8IypWMucdGLR0PSYm8lMBpZDyMtf4cF+7b
kbrbIwPge6Xh2jpSRoXvrlRxdoKrKdGSTUagy2IwqFUfuaS/Kh/sgrpC41q8NWL2
ngGeD/wmwp2U7GQjBYznLZHAa/38YRFHT0UiLMpSHC7+GJsoGEfBCuTCKmAjfh82
C/57ot/sakgQiomwqi2gblUCTMtVdQRZZ2+QKB1w4t5O3vo57cCWJc8YkyUpP9xc
uUj1UOZHvxQib+Ce99ibP85ksj/vj3iWKjsEanqWgaA7wq09QVFOrHq1uKzTNAIV
K2RjelUagpWB6+Fj+gwMF/HzfuF4WJ5Dcp402HgPXrIb5952y+ARQV6Yfenqw6oy
zYjrJkczDkOSk+T6ljHcFCuOmIjfgj3Zo5tLbvEn
-----END CERTIFICATE-----
