Certificate:
    Data:
        Version: 3 (0x2)
        Serial Number: 9012 (0x2334)
    Signature Algorithm: sha256WithRSAEncryption
        Issuer: C=US, ST=OH, L=Columbus, O=VikingVPN, OU=MyOrganizationalUnit, CN=VikingVPN CA/name=EasyRSA/emailAddress=me@myhost.mydomain
        Validity
            Not Before: Sep 10 23:22:26 2016 GMT
            Not After : Sep  8 23:22:26 2026 GMT
        Subject: CN=Client276Cert3a9064
        Subject Public Key Info:
            Public Key Algorithm: rsaEncryption
                Public-Key: (4096 bit)
                Modulus:
                    00:dc:2b:a3:fb:11:c2:63:31:ca:48:a3:0b:17:86:
                    84:a1:34:ba:3c:ce:22:22:6e:e5:9e:7b:83:d5:3f:
                    29:5e:8c:63:c2:65:32:23:f7:04:26:55:47:dd:81:
                    6e:b2:dd:75:1a:a9:7e:e0:2c:78:4e:0b:de:ad:ca:
                    be:28:11:00:ec:9e:49:60:9b:3c:7f:5a:f1:9a:59:
                    f2:eb:3c:60:b0:34:da:e2:38:db:30:b5:94:f5:66:
                    2d:55:65:19:7f:13:dc:84:86:7c:fc:45:93:cd:6f:
                    d5:66:44:2e:c1:bc:1b:79:02:40:1e:a7:2e:5b:5a:
                    12:b4:5a:53:cd:e7:db:6f:45:27:63:92:6d:48:79:
                    f2:46:0d:fc:82:87:10:71:b4:28:3d:12:11:69:aa:
                    4f:d9:c2:b7:61:9d:e1:82:e2:19:f9:9d:78:af:6d:
                    63:a5:5c:cb:1a:ff:b2:4b:f5:f7:ab:32:e0:6e:a0:
                    54:07:7d:90:78:88:d8:9f:77:8e:0d:1b:19:08:3a:
                    4f:17:10:76:48:19:7d:9c:ee:4e:c8:a8:d6:eb:a0:
                    72:9f:2c:f5:d6:b3:73:c8:c7:8f:dd:b0:14:b6:92:
                    19:04:5c:57:fd:84:8a:9e:96:c6:fe:50:5a:98:ca:
                    20:02:3d:94:9f:ea:5b:a5:3a:92:89:06:3f:d0:b4:
                    0a:d4:06:fa:bb:fe:40:42:01:90:d4:93:e9:ec:5b:
                    c0:8f:38:5d:89:89:6a:b6:26:f4:64:fc:77:5a:eb:
                    43:40:37:94:60:5f:32:8b:83:81:ff:21:42:e5:8a:
                    2c:46:75:d4:90:50:40:a4:b4:c5:8d:fd:e0:96:a0:
                    c9:4d:35:8e:dd:e0:c9:d3:07:aa:e8:8b:27:92:08:
                    b8:30:62:3d:f7:48:c0:e6:e8:a1:0f:ef:56:8b:30:
                    fd:bc:ab:32:ef:69:e1:5f:e3:ba:cf:de:ec:9c:62:
                    50:68:c6:72:48:aa:18:b2:5f:70:4d:46:de:6c:aa:
                    02:b6:ad:08:28:48:a8:f0:c2:03:20:62:be:95:97:
                    cc:b2:d9:de:ab:7d:34:db:c7:32:09:fa:92:64:27:
                    b4:a9:8c:3d:e5:5b:b4:12:cf:5b:6d:64:ba:cf:32:
                    c3:4d:ea:2c:97:d1:0b:d5:22:ca:bc:6b:e9:81:7d:
                    8c:3e:50:2d:be:7e:20:56:20:30:2b:6b:83:ac:d6:
                    8d:99:d4:b9:74:15:52:9f:db:96:08:0d:18:74:19:
                    b2:8b:22:fe:45:9f:be:f6:2c:cf:5f:31:89:f8:9d:
                    0f:9d:d0:85:2e:e9:16:60:b9:02:7f:74:66:01:53:
                    33:a3:75:7e:f9:89:1f:ac:1f:53:a6:35:8d:9f:14:
                    cb:d3:a9
                Exponent: 65537 (0x10001)
        X509v3 extensions:
            X509v3 Basic Constraints: 
                CA:FALSE
            Netscape Comment: 
                Easy-RSA Generated Certificate
            X509v3 Subject Key Identifier: 
                4D:7D:F0:47:35:B8:86:C0:DE:5D:11:A8:21:0B:B9:83:15:70:6B:4A
            X509v3 Authority Key Identifier: 
                keyid:12:CD:60:04:D2:A0:80:9E:70:ED:C6:99:B8:7B:2C:C6:52:FD:19:A1
                DirName:/C=US/ST=OH/L=Columbus/O=VikingVPN/OU=MyOrganizationalUnit/CN=VikingVPN CA/name=EasyRSA/emailAddress=me@myhost.mydomain
                serial:CF:35:85:EE:80:BF:2A:3E

            X509v3 Extended Key Usage: 
                TLS Web Client Authentication
            X509v3 Key Usage: 
                Digital Signature
    Signature Algorithm: sha256WithRSAEncryption
         c1:5c:99:f3:82:9e:8f:34:4a:98:cc:cb:94:fb:a3:91:06:3e:
         f0:21:6d:f3:0c:2c:2e:a9:40:00:f5:6a:8d:0f:a8:27:69:6d:
         76:a2:14:ee:ef:1f:6d:42:9b:41:13:9f:bf:6d:7e:ff:c0:59:
         ed:34:42:c9:2c:2b:6d:2f:81:11:93:d6:92:3a:67:70:ed:3a:
         c3:14:07:9f:06:78:c8:fe:3b:e2:8f:fb:0b:b4:20:9a:3a:8a:
         10:c0:82:23:a3:89:db:96:0f:03:c8:10:96:bc:e6:b2:c4:b8:
         45:88:8e:9d:08:35:ee:54:65:9a:30:2c:19:eb:c9:23:b0:63:
         81:7e:9d:17:a4:00:fa:4b:7c:3e:80:9c:a2:52:3f:6c:f8:6b:
         cf:64:7c:16:5b:1c:64:e3:8b:e5:7c:49:23:69:ec:1e:0f:c9:
         2b:19:4f:f2:35:d6:c8:42:f6:be:8d:ca:83:99:7d:0c:2d:85:
         90:e9:12:fe:1d:d6:b1:16:86:e6:54:40:c8:4f:71:57:31:0b:
         30:a2:de:f7:bb:7c:21:4a:41:9b:66:fd:54:b5:53:14:6b:c9:
         76:f0:6a:c5:3a:58:ac:9c:e6:7e:32:fc:6a:fc:4f:4b:37:47:
         3b:46:23:0f:18:49:2f:3f:00:a2:ca:03:43:72:ac:ad:a7:40:
         f3:3d:9d:ef:57:84:3a:dc:06:ca:88:a2:42:6b:32:55:c3:56:
         3f:56:e6:56:e0:5d:d7:99:97:d7:f6:98:92:3a:c1:0a:34:e6:
         38:b8:4e:a6:eb:8f:b4:c5:58:4f:2f:46:1f:3b:61:f6:90:87:
         07:75:21:c1:72:58:fd:eb:bd:4a:4c:04:1c:59:0c:ba:7e:e1:
         c3:fd:11:0e:fb:1b:f1:f8:40:b1:09:2b:71:fd:19:3b:69:f0:
         e5:2e:a7:47:ca:a4:d1:56:63:16:50:e6:6a:d5:7e:59:6e:6e:
         2f:6c:2b:84:ff:d9:c2:17:b0:b2:08:bd:25:f5:8b:e1:2c:f0:
         29:3c:90:0e:90:d8:14:44:9c:31:dd:50:47:dd:26:c8:4b:e8:
         ff:a1:50:8d:69:51:53:51:e2:96:cf:dd:c0:7f:ff:7d:9c:e5:
         1c:85:63:04:90:73:dd:4f:b7:47:71:71:a9:d0:c5:a2:90:69:
         b3:d4:1a:c3:fb:73:25:ce:33:10:e2:78:e7:86:ec:d5:20:cc:
         56:2f:ac:08:0c:d6:1c:45:09:5b:89:51:e0:be:b3:96:ea:5e:
         8a:04:c6:4a:df:f7:bb:15:4b:98:9c:53:ef:02:27:e6:f9:77:
         79:09:a8:a7:cc:c9:59:3e:78:51:3e:6c:95:7d:a0:99:64:07:
         ee:4e:36:ce:81:55:8e:0a
-----BEGIN CERTIFICATE-----
MIIGrDCCBJSgAwIBAgICIzQwDQYJKoZIhvcNAQELBQAwgawxCzAJBgNVBAYTAlVT
MQswCQYDVQQIEwJPSDERMA8GA1UEBxMIQ29sdW1idXMxEjAQBgNVBAoTCVZpa2lu
Z1ZQTjEdMBsGA1UECxMUTXlPcmdhbml6YXRpb25hbFVuaXQxFTATBgNVBAMTDFZp
a2luZ1ZQTiBDQTEQMA4GA1UEKRMHRWFzeVJTQTEhMB8GCSqGSIb3DQEJARYSbWVA
bXlob3N0Lm15ZG9tYWluMB4XDTE2MDkxMDIzMjIyNloXDTI2MDkwODIzMjIyNlow
HjEcMBoGA1UEAxMTQ2xpZW50Mjc2Q2VydDNhOTA2NDCCAiIwDQYJKoZIhvcNAQEB
BQADggIPADCCAgoCggIBANwro/sRwmMxykijCxeGhKE0ujzOIiJu5Z57g9U/KV6M
Y8JlMiP3BCZVR92BbrLddRqpfuAseE4L3q3KvigRAOyeSWCbPH9a8ZpZ8us8YLA0
2uI42zC1lPVmLVVlGX8T3ISGfPxFk81v1WZELsG8G3kCQB6nLltaErRaU83n229F
J2OSbUh58kYN/IKHEHG0KD0SEWmqT9nCt2Gd4YLiGfmdeK9tY6Vcyxr/skv196sy
4G6gVAd9kHiI2J93jg0bGQg6TxcQdkgZfZzuTsio1uugcp8s9dazc8jHj92wFLaS
GQRcV/2Eip6Wxv5QWpjKIAI9lJ/qW6U6kokGP9C0CtQG+rv+QEIBkNST6exbwI84
XYmJarYm9GT8d1rrQ0A3lGBfMouDgf8hQuWKLEZ11JBQQKS0xY394JagyU01jt3g
ydMHquiLJ5IIuDBiPfdIwObooQ/vVosw/byrMu9p4V/jus/e7JxiUGjGckiqGLJf
cE1G3myqAratCChIqPDCAyBivpWXzLLZ3qt9NNvHMgn6kmQntKmMPeVbtBLPW21k
us8yw03qLJfRC9Uiyrxr6YF9jD5QLb5+IFYgMCtrg6zWjZnUuXQVUp/blggNGHQZ
sosi/kWfvvYsz18xifidD53QhS7pFmC5An90ZgFTM6N1fvmJH6wfU6Y1jZ8Uy9Op
AgMBAAGjggFjMIIBXzAJBgNVHRMEAjAAMC0GCWCGSAGG+EIBDQQgFh5FYXN5LVJT
QSBHZW5lcmF0ZWQgQ2VydGlmaWNhdGUwHQYDVR0OBBYEFE198Ec1uIbA3l0RqCEL
uYMVcGtKMIHhBgNVHSMEgdkwgdaAFBLNYATSoICecO3Gmbh7LMZS/RmhoYGypIGv
MIGsMQswCQYDVQQGEwJVUzELMAkGA1UECBMCT0gxETAPBgNVBAcTCENvbHVtYnVz
MRIwEAYDVQQKEwlWaWtpbmdWUE4xHTAbBgNVBAsTFE15T3JnYW5pemF0aW9uYWxV
bml0MRUwEwYDVQQDEwxWaWtpbmdWUE4gQ0ExEDAOBgNVBCkTB0Vhc3lSU0ExITAf
BgkqhkiG9w0BCQEWEm1lQG15aG9zdC5teWRvbWFpboIJAM81he6Avyo+MBMGA1Ud
JQQMMAoGCCsGAQUFBwMCMAsGA1UdDwQEAwIHgDANBgkqhkiG9w0BAQsFAAOCAgEA
wVyZ84KejzRKmMzLlPujkQY+8CFt8wwsLqlAAPVqjQ+oJ2ltdqIU7u8fbUKbQROf
v21+/8BZ7TRCySwrbS+BEZPWkjpncO06wxQHnwZ4yP474o/7C7QgmjqKEMCCI6OJ
25YPA8gQlrzmssS4RYiOnQg17lRlmjAsGevJI7BjgX6dF6QA+kt8PoCcolI/bPhr
z2R8FlscZOOL5XxJI2nsHg/JKxlP8jXWyEL2vo3Kg5l9DC2FkOkS/h3WsRaG5lRA
yE9xVzELMKLe97t8IUpBm2b9VLVTFGvJdvBqxTpYrJzmfjL8avxPSzdHO0YjDxhJ
Lz8AosoDQ3KsradA8z2d71eEOtwGyoiiQmsyVcNWP1bmVuBd15mX1/aYkjrBCjTm
OLhOpuuPtMVYTy9GHzth9pCHB3UhwXJY/eu9SkwEHFkMun7hw/0RDvsb8fhAsQkr
cf0ZO2nw5S6nR8qk0VZjFlDmatV+WW5uL2wrhP/Zwhewsgi9JfWL4SzwKTyQDpDY
FEScMd1QR90myEvo/6FQjWlRU1Hils/dwH//fZzlHIVjBJBz3U+3R3FxqdDFopBp
s9Qaw/tzJc4zEOJ454bs1SDMVi+sCAzWHEUJW4lR4L6zlupeigTGSt/3uxVLmJxT
7wIn5vl3eQmop8zJWT54UT5slX2gmWQH7k42zoFVjgo=
-----END CERTIFICATE-----
