Certificate:
    Data:
        Version: 3 (0x2)
        Serial Number: 5477 (0x1565)
    Signature Algorithm: md5WithRSAEncryption
        Issuer: C=US, ST=OH, L=Columbus, O=VikingVPN, OU=MyOrganizationalUnit, CN=VikingVPN CA/name=EasyRSA/emailAddress=me@myhost.mydomain
        Validity
            Not Before: Jun  3 12:40:22 2015 GMT
            Not After : May 31 12:40:22 2025 GMT
        Subject: CN=Client1738Certf87749
        Subject Public Key Info:
            Public Key Algorithm: rsaEncryption
                Public-Key: (4096 bit)
                Modulus:
                    00:d9:c7:cd:e5:e6:fe:21:d7:a0:8d:1b:28:6f:5b:
                    70:58:fe:4d:cf:55:d3:b3:0f:7f:cd:f9:87:0f:0e:
                    e9:b1:16:e2:b3:ed:db:b4:07:a1:35:11:95:9b:d6:
                    fe:7b:ef:e8:53:fd:c6:e0:cf:7e:b8:bc:54:fd:15:
                    af:c7:f3:32:8e:fd:3c:39:1e:be:6b:36:76:d6:18:
                    05:07:ed:da:66:57:15:f7:12:4e:a1:48:11:8b:d9:
                    60:35:10:f8:0d:b2:c6:76:d3:35:5d:58:5b:38:17:
                    63:fb:bc:17:a2:55:88:ca:3f:4d:f0:59:74:18:87:
                    9d:b7:0c:69:5f:0e:cb:50:c3:f4:74:3f:d2:a7:f2:
                    5e:fa:da:05:ed:b9:b9:dc:2d:f8:d1:ed:5e:79:a4:
                    ae:40:2b:e6:35:74:23:27:d6:4a:c8:b8:bf:4c:81:
                    ab:8f:f3:a9:ff:5f:7a:37:5a:67:df:37:08:bd:bc:
                    13:18:32:3e:a9:8f:fa:39:8d:51:51:17:49:58:96:
                    27:d9:2b:00:75:1d:6b:54:27:7f:90:dc:87:45:dd:
                    e9:00:08:a7:32:95:14:9f:36:59:f9:86:ba:74:f3:
                    9c:2a:ac:ac:43:6e:28:fc:00:9a:dd:64:b4:c3:27:
                    70:79:02:c9:8d:42:59:9c:25:77:67:ab:a0:00:5f:
                    2a:c0:a9:40:91:a0:83:56:42:2e:d8:d6:c8:5b:fc:
                    dc:5c:28:f1:1f:8e:69:ea:7b:09:fc:64:59:f0:87:
                    8f:b0:73:cd:ea:c7:73:9a:af:11:db:39:3e:f8:12:
                    ce:79:83:c2:8f:5c:0f:a3:99:27:63:bd:d9:69:47:
                    84:e1:82:dd:dc:9a:9c:e1:c3:e8:ff:d8:38:90:9e:
                    0f:5a:58:68:84:f3:1e:97:bc:7f:be:fb:10:2b:39:
                    80:44:25:bd:7d:81:7e:ee:77:c7:68:9d:36:c8:16:
                    ac:c3:9e:47:b9:b9:c6:08:b4:ae:30:a8:2e:b7:76:
                    97:26:15:f6:55:ef:0e:de:1a:3d:57:28:0a:e5:aa:
                    8a:e6:d7:6e:35:bc:96:16:d2:b5:b4:4a:71:a7:57:
                    0c:40:fe:ce:b3:12:4e:41:91:0e:28:c3:3f:6a:2b:
                    60:f1:5c:3e:6f:60:b3:5f:20:df:4a:3a:c8:8d:54:
                    ac:c5:18:d8:bd:4c:7b:7e:b4:ed:13:1b:c5:a4:06:
                    98:e3:a6:b7:f9:ac:50:d5:95:27:f3:9a:45:59:6d:
                    83:e7:46:d2:38:6d:e6:7f:b4:3a:35:f1:f6:e5:24:
                    d7:75:f1:d0:08:ea:93:8b:c9:f2:37:ff:13:5e:83:
                    82:90:a4:47:43:1c:e6:e7:c3:db:09:e5:59:54:17:
                    eb:96:3b
                Exponent: 65537 (0x10001)
        X509v3 extensions:
            X509v3 Basic Constraints: 
                CA:FALSE
            Netscape Comment: 
                Easy-RSA Generated Certificate
            X509v3 Subject Key Identifier: 
                27:0D:85:D4:9C:8B:A1:0D:15:42:31:6A:CB:D8:34:D0:04:06:81:18
            X509v3 Authority Key Identifier: 
                keyid:12:CD:60:04:D2:A0:80:9E:70:ED:C6:99:B8:7B:2C:C6:52:FD:19:A1
                DirName:/C=US/ST=OH/L=Columbus/O=VikingVPN/OU=MyOrganizationalUnit/CN=VikingVPN CA/name=EasyRSA/emailAddress=me@myhost.mydomain
                serial:CF:35:85:EE:80:BF:2A:3E

            X509v3 Extended Key Usage: 
                TLS Web Client Authentication
            X509v3 Key Usage: 
                Digital Signature
    Signature Algorithm: md5WithRSAEncryption
         da:ec:31:8b:3c:c0:0f:d9:12:a5:7f:01:3e:bf:57:ea:32:0a:
         18:d3:1a:4a:1d:4b:02:f5:82:bd:b3:c4:84:f2:05:1f:96:78:
         91:68:ed:0d:d3:20:19:38:f4:2a:24:26:2c:19:0e:36:47:aa:
         3b:3e:54:f2:b1:f5:fe:f1:6e:a5:33:5c:71:f3:4d:48:14:18:
         01:ea:61:71:21:34:8a:93:b8:c3:43:c9:8c:d4:1e:9e:5b:d2:
         38:7f:a6:59:ef:88:bf:89:bb:3d:06:52:94:43:b0:85:07:4a:
         81:d8:3c:5a:06:51:e3:6c:7c:1f:e5:28:3a:bf:0c:b0:6f:09:
         64:88:01:76:08:fa:58:0a:f5:47:8d:b9:2a:3b:05:21:ee:0b:
         0e:19:9d:74:b0:69:fd:16:82:48:03:73:f5:49:c0:8d:64:43:
         6c:94:64:96:f7:02:50:f1:16:cd:ec:da:78:58:28:92:fa:8b:
         30:90:d0:d9:cc:78:e6:1d:58:96:c6:0f:bd:b9:12:c6:97:15:
         b1:41:75:43:90:d8:ed:4c:d9:d2:eb:21:e8:e2:ea:7e:4a:a7:
         c5:07:fe:81:3a:99:9a:ae:ef:ed:c1:3e:a5:0d:8a:77:98:2e:
         5c:26:4b:59:ed:17:7c:a1:bd:25:f1:f9:8b:1c:f9:f2:cd:62:
         e4:f6:68:a1:15:7f:6a:cd:1c:0d:2f:af:62:50:8f:c8:03:8d:
         c7:1b:08:20:99:f1:7b:dd:4d:18:08:f1:2a:5b:d9:4b:03:2f:
         92:05:ff:10:b1:e1:0c:39:e9:e7:d7:fd:6c:a2:6f:50:c5:50:
         bd:82:d0:f8:f7:63:46:04:2e:d7:a4:23:ab:8a:fa:68:3a:8b:
         67:77:fa:c6:0b:82:8b:16:d9:38:b1:68:d1:2d:65:d1:ae:4a:
         3b:7c:ca:23:8c:21:30:77:67:22:d5:b7:a4:14:a9:06:20:3d:
         b4:98:61:1b:76:3d:4c:9c:08:55:58:ac:24:3c:94:91:c2:20:
         4f:fc:4a:b3:de:2d:b2:51:27:d4:04:11:42:6b:b3:bd:6e:b1:
         e5:a1:82:22:97:21:68:9f:6d:5d:d8:da:97:96:18:02:86:57:
         38:28:7a:cf:3f:b0:1d:49:b5:f4:d2:7a:95:b4:91:3a:de:e6:
         2f:2d:28:7a:97:85:ef:4b:e5:f6:ca:76:bb:e2:92:04:99:9c:
         44:7d:c6:db:15:7e:d7:b5:31:7f:25:54:22:58:76:5b:91:b2:
         26:75:b9:18:9c:4b:bc:7d:8d:21:b4:0e:5c:15:47:f4:7c:2e:
         85:4d:aa:01:dc:49:4d:74:00:50:e7:27:a3:66:7f:06:de:78:
         3a:1b:8b:22:fa:a1:80:35
-----BEGIN CERTIFICATE-----
MIIGrTCCBJWgAwIBAgICFWUwDQYJKoZIhvcNAQEEBQAwgawxCzAJBgNVBAYTAlVT
MQswCQYDVQQIEwJPSDERMA8GA1UEBxMIQ29sdW1idXMxEjAQBgNVBAoTCVZpa2lu
Z1ZQTjEdMBsGA1UECxMUTXlPcmdhbml6YXRpb25hbFVuaXQxFTATBgNVBAMTDFZp
a2luZ1ZQTiBDQTEQMA4GA1UEKRMHRWFzeVJTQTEhMB8GCSqGSIb3DQEJARYSbWVA
bXlob3N0Lm15ZG9tYWluMB4XDTE1MDYwMzEyNDAyMloXDTI1MDUzMTEyNDAyMlow
HzEdMBsGA1UEAxMUQ2xpZW50MTczOENlcnRmODc3NDkwggIiMA0GCSqGSIb3DQEB
AQUAA4ICDwAwggIKAoICAQDZx83l5v4h16CNGyhvW3BY/k3PVdOzD3/N+YcPDumx
FuKz7du0B6E1EZWb1v577+hT/cbgz364vFT9Fa/H8zKO/Tw5Hr5rNnbWGAUH7dpm
VxX3Ek6hSBGL2WA1EPgNssZ20zVdWFs4F2P7vBeiVYjKP03wWXQYh523DGlfDstQ
w/R0P9Kn8l762gXtubncLfjR7V55pK5AK+Y1dCMn1krIuL9MgauP86n/X3o3Wmff
Nwi9vBMYMj6pj/o5jVFRF0lYlifZKwB1HWtUJ3+Q3IdF3ekACKcylRSfNln5hrp0
85wqrKxDbij8AJrdZLTDJ3B5AsmNQlmcJXdnq6AAXyrAqUCRoINWQi7Y1shb/Nxc
KPEfjmnqewn8ZFnwh4+wc83qx3OarxHbOT74Es55g8KPXA+jmSdjvdlpR4Thgt3c
mpzhw+j/2DiQng9aWGiE8x6XvH+++xArOYBEJb19gX7ud8donTbIFqzDnke5ucYI
tK4wqC63dpcmFfZV7w7eGj1XKArlqorm1241vJYW0rW0SnGnVwxA/s6zEk5BkQ4o
wz9qK2DxXD5vYLNfIN9KOsiNVKzFGNi9THt+tO0TG8WkBpjjprf5rFDVlSfzmkVZ
bYPnRtI4beZ/tDo18fblJNd18dAI6pOLyfI3/xNeg4KQpEdDHObnw9sJ5VlUF+uW
OwIDAQABo4IBYzCCAV8wCQYDVR0TBAIwADAtBglghkgBhvhCAQ0EIBYeRWFzeS1S
U0EgR2VuZXJhdGVkIENlcnRpZmljYXRlMB0GA1UdDgQWBBQnDYXUnIuhDRVCMWrL
2DTQBAaBGDCB4QYDVR0jBIHZMIHWgBQSzWAE0qCAnnDtxpm4eyzGUv0ZoaGBsqSB
rzCBrDELMAkGA1UEBhMCVVMxCzAJBgNVBAgTAk9IMREwDwYDVQQHEwhDb2x1bWJ1
czESMBAGA1UEChMJVmlraW5nVlBOMR0wGwYDVQQLExRNeU9yZ2FuaXphdGlvbmFs
VW5pdDEVMBMGA1UEAxMMVmlraW5nVlBOIENBMRAwDgYDVQQpEwdFYXN5UlNBMSEw
HwYJKoZIhvcNAQkBFhJtZUBteWhvc3QubXlkb21haW6CCQDPNYXugL8qPjATBgNV
HSUEDDAKBggrBgEFBQcDAjALBgNVHQ8EBAMCB4AwDQYJKoZIhvcNAQEEBQADggIB
ANrsMYs8wA/ZEqV/AT6/V+oyChjTGkodSwL1gr2zxITyBR+WeJFo7Q3TIBk49Cok
JiwZDjZHqjs+VPKx9f7xbqUzXHHzTUgUGAHqYXEhNIqTuMNDyYzUHp5b0jh/plnv
iL+Juz0GUpRDsIUHSoHYPFoGUeNsfB/lKDq/DLBvCWSIAXYI+lgK9UeNuSo7BSHu
Cw4ZnXSwaf0WgkgDc/VJwI1kQ2yUZJb3AlDxFs3s2nhYKJL6izCQ0NnMeOYdWJbG
D725EsaXFbFBdUOQ2O1M2dLrIeji6n5Kp8UH/oE6mZqu7+3BPqUNineYLlwmS1nt
F3yhvSXx+Ysc+fLNYuT2aKEVf2rNHA0vr2JQj8gDjccbCCCZ8XvdTRgI8Spb2UsD
L5IF/xCx4Qw56efX/Wyib1DFUL2C0Pj3Y0YELtekI6uK+mg6i2d3+sYLgosW2Tix
aNEtZdGuSjt8yiOMITB3ZyLVt6QUqQYgPbSYYRt2PUycCFVYrCQ8lJHCIE/8SrPe
LbJRJ9QEEUJrs71useWhgiKXIWifbV3Y2peWGAKGVzgoes8/sB1JtfTSepW0kTre
5i8tKHqXhe9L5fbKdrvikgSZnER9xtsVfte1MX8lVCJYdluRsiZ1uRicS7x9jSG0
DlwVR/R8LoVNqgHcSU10AFDnJ6NmfwbeeDobiyL6oYA1
-----END CERTIFICATE-----
