Certificate:
    Data:
        Version: 3 (0x2)
        Serial Number: 7194 (0x1c1a)
    Signature Algorithm: md5WithRSAEncryption
        Issuer: C=US, ST=OH, L=Columbus, O=VikingVPN, OU=MyOrganizationalUnit, CN=VikingVPN CA/name=EasyRSA/emailAddress=me@myhost.mydomain
        Validity
            Not Before: Feb 14 22:26:01 2016 GMT
            Not After : Feb 11 22:26:01 2026 GMT
        Subject: CN=Client1803Cert78d5d6
        Subject Public Key Info:
            Public Key Algorithm: rsaEncryption
                Public-Key: (4096 bit)
                Modulus:
                    00:af:e4:67:43:9b:84:d2:fc:4b:fe:f7:9c:36:ad:
                    12:ec:3f:c4:b4:75:d0:39:15:88:d7:0e:7b:ab:1c:
                    9e:95:e3:91:c0:80:18:d6:89:b1:91:0c:7f:a9:c5:
                    3c:cf:e7:b7:0a:ad:ca:bc:68:71:cf:c4:e5:80:a4:
                    10:8e:75:3e:08:b0:71:37:73:ed:7a:8f:29:f3:09:
                    eb:d4:a4:ff:12:33:d3:11:94:d4:17:2a:49:6b:59:
                    3c:f6:b8:f3:1f:78:ad:50:34:77:1d:6d:90:2b:34:
                    bf:d3:75:95:77:ad:85:27:e8:47:c9:1d:1c:e1:34:
                    06:1a:14:0b:76:07:e6:b4:4b:46:a0:c6:4f:15:81:
                    43:c0:ed:e5:db:c5:9b:48:ee:68:eb:85:6b:e9:f0:
                    73:3d:90:c9:6b:a0:38:97:a2:60:ad:50:d7:ea:e8:
                    8b:3f:3f:00:6b:69:e5:de:7d:c2:a0:4d:89:23:84:
                    ef:52:9a:20:26:16:d5:f4:a6:74:30:2a:5b:58:e4:
                    02:31:c5:91:76:49:dd:42:55:9c:f8:e7:43:76:a9:
                    c1:f5:56:f2:87:5e:15:a1:29:45:80:bd:a6:48:70:
                    f3:5a:24:9d:fe:3b:b7:27:ad:e9:7e:28:ca:e5:57:
                    22:5f:1c:97:82:ea:ac:d0:00:8a:ca:bc:c3:d4:db:
                    cf:24:f3:84:d9:1a:95:a2:b6:76:ae:1f:cc:6c:fa:
                    d0:a8:b9:5e:49:7e:f0:bd:c2:59:1e:52:6d:28:f8:
                    b2:bb:7f:ea:ba:ee:d6:2f:5b:d5:78:69:6e:5c:88:
                    de:9a:d9:77:0d:ba:7c:23:0d:c7:48:a8:59:c8:2e:
                    0f:5a:17:17:e2:05:ad:4f:1b:00:f8:4c:88:ec:a5:
                    c7:cc:df:d6:6e:11:1d:df:cd:29:54:c1:1e:80:9b:
                    aa:4d:ff:64:0b:37:f4:3c:a0:f9:2c:79:ef:0b:d8:
                    32:94:8f:ca:58:8b:c8:24:e8:44:a3:f5:4b:76:ed:
                    22:e1:57:65:ba:35:8b:f9:aa:fc:0a:e8:dc:a8:01:
                    52:fb:84:d0:d6:e6:8f:54:d4:13:14:98:7d:48:23:
                    a0:78:85:f6:df:de:87:1c:01:c1:2b:83:a0:6d:67:
                    8c:05:4b:c8:25:4f:82:d3:f7:2a:49:6c:c3:8c:e7:
                    de:9f:42:6f:cb:af:1c:a3:7b:b4:3b:9d:da:03:21:
                    8a:8b:31:8d:c2:22:6b:d2:b6:0e:9d:ee:b4:de:f3:
                    e5:c1:eb:e3:f7:81:2b:c5:b9:88:ec:33:7b:7f:9d:
                    51:9b:af:12:c0:2d:f7:3a:37:38:63:de:af:48:e3:
                    4c:e7:13:31:32:43:28:29:df:96:da:cb:36:03:08:
                    c8:65:2b
                Exponent: 65537 (0x10001)
        X509v3 extensions:
            X509v3 Basic Constraints: 
                CA:FALSE
            Netscape Comment: 
                Easy-RSA Generated Certificate
            X509v3 Subject Key Identifier: 
                04:3D:21:3D:45:ED:83:E8:95:AB:1A:CD:21:17:FF:C4:F9:C0:AB:D4
            X509v3 Authority Key Identifier: 
                keyid:12:CD:60:04:D2:A0:80:9E:70:ED:C6:99:B8:7B:2C:C6:52:FD:19:A1
                DirName:/C=US/ST=OH/L=Columbus/O=VikingVPN/OU=MyOrganizationalUnit/CN=VikingVPN CA/name=EasyRSA/emailAddress=me@myhost.mydomain
                serial:CF:35:85:EE:80:BF:2A:3E

            X509v3 Extended Key Usage: 
                TLS Web Client Authentication
            X509v3 Key Usage: 
                Digital Signature
    Signature Algorithm: md5WithRSAEncryption
         b5:ea:d4:55:fe:73:1f:81:c7:e1:ae:86:f0:90:35:c6:30:46:
         5c:fd:02:b3:f7:e5:40:65:1f:9d:be:c0:93:8b:32:d6:7d:cc:
         ce:6f:6b:91:4e:dc:0d:18:09:cc:b9:f1:67:f9:33:0b:0e:0c:
         78:ff:23:c0:bf:b8:58:e8:79:6c:30:2b:af:4a:a1:c9:92:a6:
         ab:41:f6:7a:b0:e2:21:fa:eb:99:e0:f4:3a:90:2e:9b:a2:74:
         37:c8:b4:c3:9c:ec:51:42:03:33:d0:1c:e6:de:ae:d9:2a:0c:
         fb:b1:b2:3a:7b:cb:17:8d:fd:07:7c:35:e0:89:74:12:99:76:
         d2:37:39:10:2f:51:95:dd:3b:5c:67:b7:a0:3d:ca:76:74:59:
         79:37:26:f8:1e:81:14:80:0f:08:5a:26:9f:82:28:07:85:b6:
         4b:06:43:29:26:4e:e4:5d:b0:08:86:79:33:35:14:17:8a:66:
         65:19:66:6d:99:ec:f1:14:9a:c4:be:10:9e:6c:d1:eb:81:0e:
         f5:55:6c:4a:c9:f5:96:76:b1:60:00:c2:85:8f:7b:1f:48:5d:
         16:ab:8c:71:8f:f3:84:90:50:56:6e:6f:34:a4:83:45:84:1e:
         0f:65:58:6c:4d:f3:8a:ce:79:16:e0:4c:09:1b:53:8f:cc:27:
         7e:93:ba:be:33:38:92:dd:be:81:84:b8:c2:2b:44:dd:59:db:
         e7:10:b0:7a:a9:63:b9:46:ea:86:71:a2:3a:5c:88:dd:76:ec:
         cf:9b:c8:6e:e3:cd:2a:dc:96:7b:ea:ae:8d:ca:3b:23:ca:fb:
         6d:45:8d:a4:d7:96:1b:76:40:63:ba:cb:72:c5:26:05:2a:e3:
         66:91:8a:c6:51:c4:24:80:7e:d9:43:de:a6:f3:ca:79:18:6b:
         3e:32:e7:f6:25:9e:96:0d:3e:fc:da:e4:af:82:91:d4:6a:34:
         d0:38:cd:8b:3f:1d:30:b5:00:4d:20:27:ad:76:5e:f6:a0:98:
         ae:17:26:f1:7f:8b:a0:99:1a:66:b7:da:aa:f7:13:58:24:10:
         b8:a9:50:ed:53:2a:70:bb:ea:e3:18:19:99:d7:5e:a5:2c:fd:
         a3:d5:44:2a:49:6d:08:1b:82:93:82:c7:47:2f:c9:c3:a8:2b:
         26:27:0f:72:ba:2f:38:0b:f7:89:e5:40:9e:3c:60:a5:aa:58:
         7a:49:f9:9f:9b:29:81:1a:0a:cc:25:7a:1c:75:52:1c:ef:ab:
         d7:99:14:c4:50:7b:61:ba:a5:ff:88:b7:3b:03:ed:ed:e5:49:
         08:87:38:ff:d9:27:42:5c:ad:b2:2c:b3:a6:30:7c:de:ea:37:
         37:01:79:52:8c:a9:5d:b6
-----BEGIN CERTIFICATE-----
MIIGrTCCBJWgAwIBAgICHBowDQYJKoZIhvcNAQEEBQAwgawxCzAJBgNVBAYTAlVT
MQswCQYDVQQIEwJPSDERMA8GA1UEBxMIQ29sdW1idXMxEjAQBgNVBAoTCVZpa2lu
Z1ZQTjEdMBsGA1UECxMUTXlPcmdhbml6YXRpb25hbFVuaXQxFTATBgNVBAMTDFZp
a2luZ1ZQTiBDQTEQMA4GA1UEKRMHRWFzeVJTQTEhMB8GCSqGSIb3DQEJARYSbWVA
bXlob3N0Lm15ZG9tYWluMB4XDTE2MDIxNDIyMjYwMVoXDTI2MDIxMTIyMjYwMVow
HzEdMBsGA1UEAxMUQ2xpZW50MTgwM0NlcnQ3OGQ1ZDYwggIiMA0GCSqGSIb3DQEB
AQUAA4ICDwAwggIKAoICAQCv5GdDm4TS/Ev+95w2rRLsP8S0ddA5FYjXDnurHJ6V
45HAgBjWibGRDH+pxTzP57cKrcq8aHHPxOWApBCOdT4IsHE3c+16jynzCevUpP8S
M9MRlNQXKklrWTz2uPMfeK1QNHcdbZArNL/TdZV3rYUn6EfJHRzhNAYaFAt2B+a0
S0agxk8VgUPA7eXbxZtI7mjrhWvp8HM9kMlroDiXomCtUNfq6Is/PwBraeXefcKg
TYkjhO9SmiAmFtX0pnQwKltY5AIxxZF2Sd1CVZz450N2qcH1VvKHXhWhKUWAvaZI
cPNaJJ3+O7cnrel+KMrlVyJfHJeC6qzQAIrKvMPU288k84TZGpWitnauH8xs+tCo
uV5JfvC9wlkeUm0o+LK7f+q67tYvW9V4aW5ciN6a2XcNunwjDcdIqFnILg9aFxfi
Ba1PGwD4TIjspcfM39ZuER3fzSlUwR6Am6pN/2QLN/Q8oPksee8L2DKUj8pYi8gk
6ESj9Ut27SLhV2W6NYv5qvwK6NyoAVL7hNDW5o9U1BMUmH1II6B4hfbf3occAcEr
g6BtZ4wFS8glT4LT9ypJbMOM596fQm/Lrxyje7Q7ndoDIYqLMY3CImvStg6d7rTe
8+XB6+P3gSvFuYjsM3t/nVGbrxLALfc6Nzhj3q9I40znEzEyQygp35bayzYDCMhl
KwIDAQABo4IBYzCCAV8wCQYDVR0TBAIwADAtBglghkgBhvhCAQ0EIBYeRWFzeS1S
U0EgR2VuZXJhdGVkIENlcnRpZmljYXRlMB0GA1UdDgQWBBQEPSE9Re2D6JWrGs0h
F//E+cCr1DCB4QYDVR0jBIHZMIHWgBQSzWAE0qCAnnDtxpm4eyzGUv0ZoaGBsqSB
rzCBrDELMAkGA1UEBhMCVVMxCzAJBgNVBAgTAk9IMREwDwYDVQQHEwhDb2x1bWJ1
czESMBAGA1UEChMJVmlraW5nVlBOMR0wGwYDVQQLExRNeU9yZ2FuaXphdGlvbmFs
VW5pdDEVMBMGA1UEAxMMVmlraW5nVlBOIENBMRAwDgYDVQQpEwdFYXN5UlNBMSEw
HwYJKoZIhvcNAQkBFhJtZUBteWhvc3QubXlkb21haW6CCQDPNYXugL8qPjATBgNV
HSUEDDAKBggrBgEFBQcDAjALBgNVHQ8EBAMCB4AwDQYJKoZIhvcNAQEEBQADggIB
ALXq1FX+cx+Bx+GuhvCQNcYwRlz9ArP35UBlH52+wJOLMtZ9zM5va5FO3A0YCcy5
8Wf5MwsODHj/I8C/uFjoeWwwK69KocmSpqtB9nqw4iH665ng9DqQLpuidDfItMOc
7FFCAzPQHObertkqDPuxsjp7yxeN/Qd8NeCJdBKZdtI3ORAvUZXdO1xnt6A9ynZ0
WXk3JvgegRSADwhaJp+CKAeFtksGQykmTuRdsAiGeTM1FBeKZmUZZm2Z7PEUmsS+
EJ5s0euBDvVVbErJ9ZZ2sWAAwoWPex9IXRarjHGP84SQUFZubzSkg0WEHg9lWGxN
84rOeRbgTAkbU4/MJ36Tur4zOJLdvoGEuMIrRN1Z2+cQsHqpY7lG6oZxojpciN12
7M+byG7jzSrclnvqro3KOyPK+21FjaTXlht2QGO6y3LFJgUq42aRisZRxCSAftlD
3qbzynkYaz4y5/YlnpYNPvza5K+CkdRqNNA4zYs/HTC1AE0gJ612XvagmK4XJvF/
i6CZGma32qr3E1gkELipUO1TKnC76uMYGZnXXqUs/aPVRCpJbQgbgpOCx0cvycOo
KyYnD3K6LzgL94nlQJ48YKWqWHpJ+Z+bKYEaCswlehx1Uhzvq9eZFMRQe2G6pf+I
tzsD7e3lSQiHOP/ZJ0JcrbIss6YwfN7qNzcBeVKMqV22
-----END CERTIFICATE-----
