Certificate:
    Data:
        Version: 3 (0x2)
        Serial Number: 2874 (0xb3a)
    Signature Algorithm: md5WithRSAEncryption
        Issuer: C=US, ST=OH, L=Columbus, O=VikingVPN, OU=MyOrganizationalUnit, CN=VikingVPN CA/name=EasyRSA/emailAddress=me@myhost.mydomain
        Validity
            Not Before: Sep 17 14:25:12 2014 GMT
            Not After : Sep 14 14:25:12 2024 GMT
        Subject: CN=Client989Cert66aa3e
        Subject Public Key Info:
            Public Key Algorithm: rsaEncryption
                Public-Key: (4096 bit)
                Modulus:
                    00:ca:a2:76:cd:3b:ad:ee:32:9f:fa:3f:42:f1:73:
                    e4:00:9f:7d:52:17:d5:33:36:bc:41:fb:5f:31:23:
                    62:64:f1:4f:c0:90:0f:a3:5d:b1:7d:f6:94:e3:dc:
                    47:f4:ee:2e:e5:5a:66:9a:a6:42:26:1c:b9:3b:f3:
                    7f:64:42:77:12:33:93:43:db:22:41:9a:84:fe:38:
                    7f:6d:b8:01:98:9c:2c:15:07:d0:94:bf:2f:5c:04:
                    06:0a:cb:c2:6b:75:c5:c0:39:db:63:e7:18:bb:3b:
                    d6:05:4b:ac:3a:f4:13:3a:56:bc:25:3d:7d:7c:84:
                    e9:ce:b7:ca:97:10:0d:f3:09:62:af:73:49:4a:d5:
                    f0:4b:4b:d3:8e:61:2b:3b:ce:fd:74:30:fd:33:5d:
                    c4:72:b5:cd:76:1a:56:28:c5:48:02:1e:bf:15:83:
                    49:12:90:46:ab:8e:fa:05:50:50:64:dc:66:6c:f8:
                    43:9f:35:9b:72:56:d9:f1:a6:fa:a0:92:ef:96:32:
                    9c:56:12:e0:5c:86:04:c4:2d:19:d3:af:88:a8:b1:
                    eb:5f:73:71:7b:c8:eb:88:ed:6d:40:00:47:de:8b:
                    7b:b4:2d:29:b4:d5:e4:7d:29:46:0d:e9:a5:73:d1:
                    bd:cb:b7:72:19:45:f7:e7:1b:01:f5:9c:96:b9:14:
                    f7:3f:0f:bc:14:f2:2e:d1:58:64:f3:d1:f9:2c:40:
                    d5:e5:4b:5f:7c:db:9d:30:29:4c:d0:a5:ac:8a:11:
                    fc:01:44:fe:ee:3a:04:b9:62:b1:ae:31:7a:10:ce:
                    6d:44:16:e8:c5:5b:24:b1:a9:3a:bb:57:64:df:73:
                    d6:56:d0:0f:75:3b:71:25:8e:97:f8:62:b6:80:89:
                    58:d9:58:5a:d7:53:b4:6e:b4:da:51:9e:3e:03:36:
                    68:95:09:f3:ab:ff:76:f8:75:54:3b:f8:e9:ef:f1:
                    34:d3:7c:97:9a:d1:55:a5:30:17:04:cb:f5:df:2c:
                    36:b5:94:c3:60:cb:dd:fc:b2:46:66:0d:f6:0e:bb:
                    57:f4:0c:97:46:87:52:f2:ed:74:71:83:ee:af:6f:
                    ad:25:31:c4:5e:f5:b6:d9:0a:0c:91:68:0f:7d:08:
                    f8:5d:c0:80:e8:d4:e8:aa:2a:03:ee:8f:ae:9f:e5:
                    ac:9e:f5:04:b5:43:d0:7d:96:d6:47:14:26:7a:f6:
                    92:c9:bb:bb:8d:20:f8:98:6b:4f:99:ba:61:ee:a3:
                    87:6e:d3:2f:92:43:c2:3c:c6:ca:1e:d9:f4:0b:b9:
                    4d:8b:69:a9:4b:db:f4:9f:63:6e:3a:96:7a:4a:f9:
                    e5:4b:9e:07:6e:64:6f:46:9c:a9:5f:96:ad:e2:3c:
                    e8:f2:1b
                Exponent: 65537 (0x10001)
        X509v3 extensions:
            X509v3 Basic Constraints: 
                CA:FALSE
            Netscape Comment: 
                Easy-RSA Generated Certificate
            X509v3 Subject Key Identifier: 
                2A:0F:E2:DD:77:4A:93:A7:C3:C9:EF:B2:86:E1:C6:41:BA:58:C6:9B
            X509v3 Authority Key Identifier: 
                keyid:12:CD:60:04:D2:A0:80:9E:70:ED:C6:99:B8:7B:2C:C6:52:FD:19:A1
                DirName:/C=US/ST=OH/L=Columbus/O=VikingVPN/OU=MyOrganizationalUnit/CN=VikingVPN CA/name=EasyRSA/emailAddress=me@myhost.mydomain
                serial:CF:35:85:EE:80:BF:2A:3E

            X509v3 Extended Key Usage: 
                TLS Web Client Authentication
            X509v3 Key Usage: 
                Digital Signature
    Signature Algorithm: md5WithRSAEncryption
         e2:90:84:99:54:47:65:22:d9:a2:27:20:ff:8b:b6:68:d4:6d:
         1b:a3:be:30:8c:c9:32:83:13:a1:81:2e:ef:ff:14:83:d9:39:
         6f:29:67:86:e6:76:e1:4c:a5:44:a0:24:f9:bb:93:00:e2:1e:
         c7:d7:f9:3f:b4:92:73:0f:2f:74:1d:16:b6:e6:b9:22:ef:df:
         6d:17:ec:45:db:87:88:ab:14:25:b5:e9:77:e4:11:b8:43:05:
         12:fa:9c:af:1b:b0:40:b6:f8:c3:50:99:e3:37:6a:e1:c9:10:
         41:a3:a1:8b:26:c8:a6:2e:82:e3:a2:d0:b2:eb:a5:e6:c7:f0:
         59:54:28:35:a0:65:67:c5:63:5e:fc:58:09:b0:1e:46:e6:a5:
         fb:5a:44:70:8b:47:7a:ca:8f:93:76:40:c3:fa:e0:9a:d0:7a:
         28:ce:89:24:04:8f:1f:ce:f0:c3:a5:f3:71:b0:6b:59:58:07:
         9c:b0:ea:11:ea:25:3c:f1:58:b5:93:21:71:ff:7b:df:45:04:
         4a:ba:0a:66:ee:b4:72:eb:75:cc:0f:e3:39:ec:f9:d0:6d:16:
         fa:c4:1c:7f:f2:30:62:57:2e:87:97:b2:88:a8:64:83:04:d9:
         6f:dd:4f:30:3c:58:d2:b1:b2:b9:b0:74:45:34:ec:ff:ef:21:
         d7:19:72:81:45:c7:83:eb:ae:2a:45:f8:e8:f8:cc:9d:50:c0:
         cf:28:99:e2:9d:d9:5e:e4:98:2d:0b:9a:05:29:17:d1:5e:b1:
         78:1a:86:8c:85:e3:09:46:72:16:c9:33:83:62:27:29:36:fc:
         09:e3:a2:00:91:b7:47:ec:37:41:c9:3a:a1:b1:c1:29:31:cb:
         37:a8:10:3c:dd:56:86:4c:db:e0:dd:88:c1:f7:97:7d:4e:80:
         49:32:c9:48:3e:fa:88:99:63:91:d8:81:e5:10:29:5f:30:a8:
         36:7e:33:cb:fc:aa:0d:5b:77:65:14:40:8f:65:e6:fa:1b:93:
         5c:ed:f5:db:6e:c5:ae:3f:bb:af:a3:02:cb:c3:86:4c:42:33:
         0d:5d:4e:d6:1b:e3:86:c4:fc:f6:94:04:70:5d:f6:e9:87:00:
         97:b6:9f:31:c9:d1:62:8d:72:60:19:8f:c7:68:2c:c1:78:8d:
         26:6b:79:56:97:2d:f1:51:47:54:6b:9d:da:9f:e4:13:55:70:
         20:5c:b7:7a:2b:34:65:0a:a6:20:09:8a:b0:cf:8a:20:48:98:
         da:9d:aa:15:53:f9:0b:be:6f:25:de:21:c1:a6:d4:4e:73:e6:
         0e:c9:04:75:05:95:4f:38:5f:90:ff:ae:f6:cf:95:c0:c4:4e:
         eb:a7:48:92:01:c9:d6:9b
-----BEGIN CERTIFICATE-----
MIIGrDCCBJSgAwIBAgICCzowDQYJKoZIhvcNAQEEBQAwgawxCzAJBgNVBAYTAlVT
MQswCQYDVQQIEwJPSDERMA8GA1UEBxMIQ29sdW1idXMxEjAQBgNVBAoTCVZpa2lu
Z1ZQTjEdMBsGA1UECxMUTXlPcmdhbml6YXRpb25hbFVuaXQxFTATBgNVBAMTDFZp
a2luZ1ZQTiBDQTEQMA4GA1UEKRMHRWFzeVJTQTEhMB8GCSqGSIb3DQEJARYSbWVA
bXlob3N0Lm15ZG9tYWluMB4XDTE0MDkxNzE0MjUxMloXDTI0MDkxNDE0MjUxMlow
HjEcMBoGA1UEAxMTQ2xpZW50OTg5Q2VydDY2YWEzZTCCAiIwDQYJKoZIhvcNAQEB
BQADggIPADCCAgoCggIBAMqids07re4yn/o/QvFz5ACffVIX1TM2vEH7XzEjYmTx
T8CQD6NdsX32lOPcR/TuLuVaZpqmQiYcuTvzf2RCdxIzk0PbIkGahP44f224AZic
LBUH0JS/L1wEBgrLwmt1xcA522PnGLs71gVLrDr0EzpWvCU9fXyE6c63ypcQDfMJ
Yq9zSUrV8EtL045hKzvO/XQw/TNdxHK1zXYaVijFSAIevxWDSRKQRquO+gVQUGTc
Zmz4Q581m3JW2fGm+qCS75YynFYS4FyGBMQtGdOviKix619zcXvI64jtbUAAR96L
e7QtKbTV5H0pRg3ppXPRvcu3chlF9+cbAfWclrkU9z8PvBTyLtFYZPPR+SxA1eVL
X3zbnTApTNClrIoR/AFE/u46BLlisa4xehDObUQW6MVbJLGpOrtXZN9z1lbQD3U7
cSWOl/hitoCJWNlYWtdTtG602lGePgM2aJUJ86v/dvh1VDv46e/xNNN8l5rRVaUw
FwTL9d8sNrWUw2DL3fyyRmYN9g67V/QMl0aHUvLtdHGD7q9vrSUxxF71ttkKDJFo
D30I+F3AgOjU6KoqA+6Prp/lrJ71BLVD0H2W1kcUJnr2ksm7u40g+JhrT5m6Ye6j
h27TL5JDwjzGyh7Z9Au5TYtpqUvb9J9jbjqWekr55UueB25kb0acqV+WreI86PIb
AgMBAAGjggFjMIIBXzAJBgNVHRMEAjAAMC0GCWCGSAGG+EIBDQQgFh5FYXN5LVJT
QSBHZW5lcmF0ZWQgQ2VydGlmaWNhdGUwHQYDVR0OBBYEFCoP4t13SpOnw8nvsobh
xkG6WMabMIHhBgNVHSMEgdkwgdaAFBLNYATSoICecO3Gmbh7LMZS/RmhoYGypIGv
MIGsMQswCQYDVQQGEwJVUzELMAkGA1UECBMCT0gxETAPBgNVBAcTCENvbHVtYnVz
MRIwEAYDVQQKEwlWaWtpbmdWUE4xHTAbBgNVBAsTFE15T3JnYW5pemF0aW9uYWxV
bml0MRUwEwYDVQQDEwxWaWtpbmdWUE4gQ0ExEDAOBgNVBCkTB0Vhc3lSU0ExITAf
BgkqhkiG9w0BCQEWEm1lQG15aG9zdC5teWRvbWFpboIJAM81he6Avyo+MBMGA1Ud
JQQMMAoGCCsGAQUFBwMCMAsGA1UdDwQEAwIHgDANBgkqhkiG9w0BAQQFAAOCAgEA
4pCEmVRHZSLZoicg/4u2aNRtG6O+MIzJMoMToYEu7/8Ug9k5bylnhuZ24UylRKAk
+buTAOIex9f5P7SScw8vdB0Wtua5Iu/fbRfsRduHiKsUJbXpd+QRuEMFEvqcrxuw
QLb4w1CZ4zdq4ckQQaOhiybIpi6C46LQsuul5sfwWVQoNaBlZ8VjXvxYCbAeRual
+1pEcItHesqPk3ZAw/rgmtB6KM6JJASPH87ww6XzcbBrWVgHnLDqEeolPPFYtZMh
cf9730UESroKZu60cut1zA/jOez50G0W+sQcf/IwYlcuh5eyiKhkgwTZb91PMDxY
0rGyubB0RTTs/+8h1xlygUXHg+uuKkX46PjMnVDAzyiZ4p3ZXuSYLQuaBSkX0V6x
eBqGjIXjCUZyFskzg2InKTb8CeOiAJG3R+w3Qck6obHBKTHLN6gQPN1Whkzb4N2I
wfeXfU6ASTLJSD76iJljkdiB5RApXzCoNn4zy/yqDVt3ZRRAj2Xm+huTXO31227F
rj+7r6MCy8OGTEIzDV1O1hvjhsT89pQEcF326YcAl7afMcnRYo1yYBmPx2gswXiN
Jmt5Vpct8VFHVGud2p/kE1VwIFy3eis0ZQqmIAmKsM+KIEiY2p2qFVP5C75vJd4h
wabUTnPmDskEdQWVTzhfkP+u9s+VwMRO66dIkgHJ1ps=
-----END CERTIFICATE-----
