Certificate:
    Data:
        Version: 3 (0x2)
        Serial Number: 11418 (0x2c9a)
    Signature Algorithm: sha256WithRSAEncryption
        Issuer: C=US, ST=OH, L=Columbus, O=VikingVPN, OU=MyOrganizationalUnit, CN=VikingVPN CA/name=EasyRSA/emailAddress=me@myhost.mydomain
        Validity
            Not Before: Jul 25 20:38:20 2017 GMT
            Not After : Jul 23 20:38:20 2027 GMT
        Subject: CN=Client2986Certafce9a
        Subject Public Key Info:
            Public Key Algorithm: rsaEncryption
                Public-Key: (4096 bit)
                Modulus:
                    00:d3:b4:46:b1:87:6d:b9:18:12:ca:69:f4:20:59:
                    51:b3:e7:6e:86:1a:c9:44:61:60:be:fb:de:b9:3f:
                    77:74:1a:6a:99:19:3d:f3:39:f2:48:9c:9b:65:4f:
                    2d:86:45:da:25:75:1f:cc:dd:a0:77:02:ce:97:85:
                    1f:f4:4c:f4:b1:bd:4d:8b:d3:ed:b3:43:2e:ba:2f:
                    70:70:b6:c5:8e:72:80:ed:0e:7e:44:91:e2:a7:63:
                    7f:51:34:cb:2f:7e:92:c3:81:5f:68:16:e2:ee:8b:
                    c9:56:34:8f:f5:72:92:32:3c:1c:97:e5:83:45:69:
                    6f:36:87:44:ec:fd:d4:b9:e8:97:eb:c7:be:61:70:
                    a4:66:55:2b:4e:93:77:37:2f:5b:97:9a:97:91:01:
                    12:54:79:60:8d:2d:83:9a:0d:33:97:da:af:46:07:
                    66:22:cb:f2:65:e8:9c:02:6d:50:bd:e9:24:7b:42:
                    12:be:58:e0:8b:81:13:20:be:b8:09:00:40:fc:4d:
                    35:2b:07:7b:f9:53:1f:39:bd:ab:da:2e:7a:f3:69:
                    d0:45:31:d9:c5:f5:22:f5:fd:5c:b9:d6:d5:fc:a3:
                    51:1f:4c:3e:e6:e2:43:78:fe:ca:09:91:30:10:b6:
                    37:03:a7:ea:e7:4a:eb:4f:80:bf:de:95:71:12:e9:
                    03:6e:bc:8c:ac:b6:3f:73:b2:0e:d8:31:d2:8e:8b:
                    36:e8:a4:66:80:2b:0c:48:96:aa:2c:27:3b:f2:c7:
                    bb:74:41:ff:b7:e5:67:c0:b3:0a:aa:6b:fa:05:30:
                    df:ee:f6:b8:41:5d:af:a8:f6:1e:a9:cb:f4:30:af:
                    28:52:dd:af:98:24:84:a2:01:b2:91:30:7e:5e:92:
                    1f:25:7b:3c:b1:7c:22:58:b7:60:e5:ca:93:83:c6:
                    d0:f4:8f:bb:20:c1:9b:e9:2d:23:b2:c8:32:df:43:
                    53:c8:3b:61:b5:f6:35:90:1e:c9:01:46:dd:30:45:
                    7d:e8:2b:26:52:d5:1e:45:ad:b5:fe:3b:71:c7:7f:
                    7d:8b:4c:ae:7e:60:1c:5a:48:d3:6e:28:a1:8d:db:
                    fe:71:6f:54:98:e6:21:cf:85:12:f9:51:b1:84:d2:
                    e9:39:d4:4b:9a:f0:3f:c1:cd:f9:e1:cb:8b:c7:22:
                    fb:ba:ca:a3:e0:41:08:f2:ad:af:2f:92:6b:b4:ef:
                    59:a8:48:a4:f4:e1:f0:6d:44:e5:82:e9:2c:33:06:
                    2d:11:0b:fe:b4:8a:44:fa:a1:06:82:cd:04:5d:b4:
                    a5:91:36:93:da:e8:43:9e:96:c4:16:77:3d:4c:f2:
                    74:a7:43:88:7b:4f:ba:3c:e3:b6:5a:89:50:6b:0d:
                    77:7d:63
                Exponent: 65537 (0x10001)
        X509v3 extensions:
            X509v3 Basic Constraints: 
                CA:FALSE
            Netscape Comment: 
                Easy-RSA Generated Certificate
            X509v3 Subject Key Identifier: 
                E8:DF:18:97:31:2F:1F:0A:CC:E1:65:C5:7C:5D:D1:68:91:DB:46:01
            X509v3 Authority Key Identifier: 
                keyid:12:CD:60:04:D2:A0:80:9E:70:ED:C6:99:B8:7B:2C:C6:52:FD:19:A1
                DirName:/C=US/ST=OH/L=Columbus/O=VikingVPN/OU=MyOrganizationalUnit/CN=VikingVPN CA/name=EasyRSA/emailAddress=me@myhost.mydomain
                serial:CF:35:85:EE:80:BF:2A:3E

            X509v3 Extended Key Usage: 
                TLS Web Client Authentication
            X509v3 Key Usage: 
                Digital Signature
    Signature Algorithm: sha256WithRSAEncryption
         c7:10:a6:1b:96:81:03:b1:48:90:e7:c1:d4:5e:f2:c7:f7:0a:
         fb:54:fa:28:8c:2e:67:6a:da:5e:8d:74:0f:d5:9f:31:d3:65:
         7d:54:2a:27:d7:2e:e5:4f:15:a0:df:91:b2:47:ed:2a:59:07:
         6a:62:81:d8:87:75:bb:be:37:b7:ac:c9:39:11:fb:5a:ca:3c:
         a8:07:6b:7c:e7:91:9a:16:98:92:0a:f8:09:53:9c:54:ca:8a:
         c5:f1:58:8b:0f:55:ee:61:00:db:51:13:7f:7c:87:25:90:38:
         ff:ef:75:75:c5:b4:15:e4:da:d0:86:76:dc:ef:65:fa:b3:67:
         a5:09:b3:3c:21:0c:e9:58:cd:78:ff:2f:dd:81:be:05:29:11:
         5f:1d:ac:0f:cd:a1:d2:e0:54:77:1b:8e:be:f9:f5:c1:3f:f3:
         2c:a2:09:c0:ce:72:86:75:ab:bc:4a:98:6a:82:6d:01:11:8c:
         e0:11:40:8c:49:30:d0:0b:3c:ff:47:a1:16:d9:22:df:87:23:
         bc:92:79:32:b6:39:7d:2f:df:61:a8:3c:49:96:1c:79:93:63:
         19:19:5a:8d:d3:15:9f:05:0d:6b:e6:a9:9c:35:2e:8c:78:12:
         7a:30:cf:54:0d:60:9c:53:4d:5e:28:69:c2:db:3e:1d:87:71:
         68:15:2c:3e:52:7c:1e:1b:07:56:9c:f0:79:db:82:c9:d9:13:
         b0:cc:5f:91:8a:c7:fc:79:2f:7d:fa:c1:4f:ab:b8:b7:a6:15:
         d2:f4:8e:8c:3b:9c:d6:9d:9e:9a:71:9b:82:5d:0c:6c:df:d5:
         2c:77:1b:f3:20:28:f1:42:45:a8:12:aa:7b:d5:5a:26:b2:eb:
         af:c1:bd:e3:77:9f:50:4d:ff:e7:0c:f7:58:52:4f:0b:0c:c1:
         39:ac:c4:e3:e3:70:1b:dd:01:f2:ff:0a:6a:0c:12:23:37:67:
         f5:ea:d1:c8:df:8e:bf:6d:9f:73:2d:ab:66:ea:4a:7a:8b:18:
         3e:9d:3d:d6:ae:84:03:70:a3:59:7d:7e:fb:ec:0e:ad:4f:3a:
         d3:5c:aa:ec:a7:4d:93:7d:7b:aa:de:ee:0b:f6:32:6d:3a:21:
         68:8d:73:a9:bc:36:35:03:5c:23:72:9b:bc:bb:5e:4c:7a:8d:
         5b:1f:22:f9:74:6d:9c:ea:55:e5:81:82:f8:bb:2e:40:bc:ea:
         3d:fd:4c:cd:ca:97:de:d7:9e:08:6b:eb:55:2f:5e:3e:71:90:
         35:2e:29:4b:27:e9:95:99:44:ad:d8:7a:92:76:37:4a:ff:e2:
         25:f9:13:20:ec:87:71:d0:c7:6c:a7:9f:c2:54:ae:ef:26:af:
         a2:86:ca:18:a3:c0:3b:20
-----BEGIN CERTIFICATE-----
MIIGrTCCBJWgAwIBAgICLJowDQYJKoZIhvcNAQELBQAwgawxCzAJBgNVBAYTAlVT
MQswCQYDVQQIEwJPSDERMA8GA1UEBxMIQ29sdW1idXMxEjAQBgNVBAoTCVZpa2lu
Z1ZQTjEdMBsGA1UECxMUTXlPcmdhbml6YXRpb25hbFVuaXQxFTATBgNVBAMTDFZp
a2luZ1ZQTiBDQTEQMA4GA1UEKRMHRWFzeVJTQTEhMB8GCSqGSIb3DQEJARYSbWVA
bXlob3N0Lm15ZG9tYWluMB4XDTE3MDcyNTIwMzgyMFoXDTI3MDcyMzIwMzgyMFow
HzEdMBsGA1UEAxMUQ2xpZW50Mjk4NkNlcnRhZmNlOWEwggIiMA0GCSqGSIb3DQEB
AQUAA4ICDwAwggIKAoICAQDTtEaxh225GBLKafQgWVGz526GGslEYWC++965P3d0
GmqZGT3zOfJInJtlTy2GRdoldR/M3aB3As6XhR/0TPSxvU2L0+2zQy66L3BwtsWO
coDtDn5EkeKnY39RNMsvfpLDgV9oFuLui8lWNI/1cpIyPByX5YNFaW82h0Ts/dS5
6Jfrx75hcKRmVStOk3c3L1uXmpeRARJUeWCNLYOaDTOX2q9GB2Yiy/Jl6JwCbVC9
6SR7QhK+WOCLgRMgvrgJAED8TTUrB3v5Ux85vavaLnrzadBFMdnF9SL1/Vy51tX8
o1EfTD7m4kN4/soJkTAQtjcDp+rnSutPgL/elXES6QNuvIystj9zsg7YMdKOizbo
pGaAKwxIlqosJzvyx7t0Qf+35WfAswqqa/oFMN/u9rhBXa+o9h6py/QwryhS3a+Y
JISiAbKRMH5ekh8lezyxfCJYt2DlypODxtD0j7sgwZvpLSOyyDLfQ1PIO2G19jWQ
HskBRt0wRX3oKyZS1R5FrbX+O3HHf32LTK5+YBxaSNNuKKGN2/5xb1SY5iHPhRL5
UbGE0uk51Eua8D/Bzfnhy4vHIvu6yqPgQQjyra8vkmu071moSKT04fBtROWC6Swz
Bi0RC/60ikT6oQaCzQRdtKWRNpPa6EOelsQWdz1M8nSnQ4h7T7o847ZaiVBrDXd9
YwIDAQABo4IBYzCCAV8wCQYDVR0TBAIwADAtBglghkgBhvhCAQ0EIBYeRWFzeS1S
U0EgR2VuZXJhdGVkIENlcnRpZmljYXRlMB0GA1UdDgQWBBTo3xiXMS8fCszhZcV8
XdFokdtGATCB4QYDVR0jBIHZMIHWgBQSzWAE0qCAnnDtxpm4eyzGUv0ZoaGBsqSB
rzCBrDELMAkGA1UEBhMCVVMxCzAJBgNVBAgTAk9IMREwDwYDVQQHEwhDb2x1bWJ1
czESMBAGA1UEChMJVmlraW5nVlBOMR0wGwYDVQQLExRNeU9yZ2FuaXphdGlvbmFs
VW5pdDEVMBMGA1UEAxMMVmlraW5nVlBOIENBMRAwDgYDVQQpEwdFYXN5UlNBMSEw
HwYJKoZIhvcNAQkBFhJtZUBteWhvc3QubXlkb21haW6CCQDPNYXugL8qPjATBgNV
HSUEDDAKBggrBgEFBQcDAjALBgNVHQ8EBAMCB4AwDQYJKoZIhvcNAQELBQADggIB
AMcQphuWgQOxSJDnwdRe8sf3CvtU+iiMLmdq2l6NdA/VnzHTZX1UKifXLuVPFaDf
kbJH7SpZB2pigdiHdbu+N7esyTkR+1rKPKgHa3znkZoWmJIK+AlTnFTKisXxWIsP
Ve5hANtRE398hyWQOP/vdXXFtBXk2tCGdtzvZfqzZ6UJszwhDOlYzXj/L92BvgUp
EV8drA/NodLgVHcbjr759cE/8yyiCcDOcoZ1q7xKmGqCbQERjOARQIxJMNALPP9H
oRbZIt+HI7ySeTK2OX0v32GoPEmWHHmTYxkZWo3TFZ8FDWvmqZw1Lox4Enowz1QN
YJxTTV4oacLbPh2HcWgVLD5SfB4bB1ac8HnbgsnZE7DMX5GKx/x5L336wU+ruLem
FdL0jow7nNadnppxm4JdDGzf1Sx3G/MgKPFCRagSqnvVWiay66/BveN3n1BN/+cM
91hSTwsMwTmsxOPjcBvdAfL/CmoMEiM3Z/Xq0cjfjr9tn3Mtq2bqSnqLGD6dPdau
hANwo1l9fvvsDq1POtNcquynTZN9e6re7gv2Mm06IWiNc6m8NjUDXCNym7y7Xkx6
jVsfIvl0bZzqVeWBgvi7LkC86j39TM3Kl97Xnghr61UvXj5xkDUuKUsn6ZWZRK3Y
epJ2N0r/4iX5EyDsh3HQx2ynn8JUru8mr6KGyhijwDsg
-----END CERTIFICATE-----
