Certificate:
    Data:
        Version: 3 (0x2)
        Serial Number: 3185 (0xc71)
    Signature Algorithm: md5WithRSAEncryption
        Issuer: C=US, ST=OH, L=Columbus, O=VikingVPN, OU=MyOrganizationalUnit, CN=VikingVPN CA/name=EasyRSA/emailAddress=me@myhost.mydomain
        Validity
            Not Before: Oct 24 14:17:41 2014 GMT
            Not After : Oct 21 14:17:41 2024 GMT
        Subject: CN=Client1101Certf7fcaa
        Subject Public Key Info:
            Public Key Algorithm: rsaEncryption
                Public-Key: (4096 bit)
                Modulus:
                    00:c3:b1:c9:68:a2:d2:96:91:24:1d:41:ad:5c:e3:
                    24:b4:b1:45:38:c1:a0:17:1e:6c:7c:b5:f3:aa:12:
                    bf:10:21:6f:c7:b5:68:59:92:ff:95:1d:5d:c5:c6:
                    f2:24:a0:26:04:b3:b0:8b:32:0d:b1:d7:fb:29:43:
                    62:36:4c:e1:93:cc:c8:b2:02:67:11:ea:bd:e7:3a:
                    e0:ab:e5:6e:52:1d:95:59:d0:c2:57:c6:c5:22:f1:
                    fb:fa:49:7c:20:db:02:f1:f9:0d:9b:c1:37:ce:e0:
                    95:50:b0:c0:ae:17:15:43:18:86:1e:14:66:78:96:
                    de:81:5e:a8:ee:ef:3c:13:3a:da:dc:8d:09:15:12:
                    90:9f:33:f6:28:ae:68:37:d1:64:54:78:85:4c:24:
                    c8:c7:90:b4:39:3c:e8:f2:0d:6b:7c:87:1f:d2:dd:
                    91:cd:b6:f5:c8:54:1d:8a:11:8d:fc:17:c2:0a:b7:
                    e7:b6:35:a6:ed:fb:be:d7:3c:08:99:09:5b:62:cb:
                    2e:ee:1d:f2:a4:b3:7d:61:d2:a5:44:84:4f:e9:08:
                    dc:76:f0:c3:37:33:f5:27:11:85:14:dc:28:0c:89:
                    17:da:02:1d:1e:92:30:3d:6f:f7:e0:3a:8a:96:81:
                    75:a2:95:f4:a7:e3:43:db:a2:17:e2:2c:4c:75:b6:
                    d6:5e:10:ed:b0:0d:26:db:92:9a:c6:62:e1:b4:69:
                    c7:58:ef:07:3d:5c:a6:8f:e4:c5:b4:4f:19:27:74:
                    f7:83:42:8c:4b:e7:ff:b0:54:86:3e:99:2a:a5:53:
                    eb:12:ca:b7:72:f5:f7:c8:d2:c6:71:c9:a1:8f:22:
                    97:fc:20:a8:e1:d2:6d:75:57:2c:45:7f:54:a3:29:
                    d4:28:72:40:3d:a1:33:a3:d2:7f:15:c0:50:e6:f3:
                    e5:57:4c:99:62:95:fd:2e:c9:1b:7f:d9:db:30:be:
                    86:db:da:37:bb:34:c4:70:53:37:89:9e:41:53:49:
                    54:a6:cd:62:e0:c1:71:91:08:c6:ed:3f:34:43:93:
                    e9:db:72:8c:4b:77:9f:22:c1:3d:f5:93:80:7d:30:
                    26:66:8f:20:46:6e:79:46:0c:87:82:82:34:4c:a3:
                    51:3a:41:62:a8:63:e2:ac:79:c0:9b:4d:fa:5a:44:
                    a9:66:46:7a:92:ea:4e:c5:d8:51:93:94:d5:fd:e2:
                    7e:db:da:32:7d:b0:b3:73:c4:61:73:02:75:62:0a:
                    32:1e:ce:53:50:65:40:4e:35:a8:1c:b9:2b:c2:57:
                    5a:c5:23:b3:1e:ab:58:65:a8:6e:f8:8c:27:92:0b:
                    f2:d3:f7:7b:9c:c4:e1:83:ec:3c:07:fd:69:15:4e:
                    a3:12:89
                Exponent: 65537 (0x10001)
        X509v3 extensions:
            X509v3 Basic Constraints: 
                CA:FALSE
            Netscape Comment: 
                Easy-RSA Generated Certificate
            X509v3 Subject Key Identifier: 
                C0:30:32:81:6C:77:FD:5C:AB:24:37:6D:47:5A:12:BE:3E:6B:46:C7
            X509v3 Authority Key Identifier: 
                keyid:12:CD:60:04:D2:A0:80:9E:70:ED:C6:99:B8:7B:2C:C6:52:FD:19:A1
                DirName:/C=US/ST=OH/L=Columbus/O=VikingVPN/OU=MyOrganizationalUnit/CN=VikingVPN CA/name=EasyRSA/emailAddress=me@myhost.mydomain
                serial:CF:35:85:EE:80:BF:2A:3E

            X509v3 Extended Key Usage: 
                TLS Web Client Authentication
            X509v3 Key Usage: 
                Digital Signature
    Signature Algorithm: md5WithRSAEncryption
         93:3c:11:a7:64:0c:c9:d3:9a:66:7e:f6:08:a6:49:0a:2d:fd:
         ef:87:8e:d9:de:72:db:3f:26:22:cd:d3:44:68:75:35:e5:ed:
         b1:7f:fb:de:bb:2e:61:9f:f8:60:26:71:c3:f0:23:f1:07:e5:
         49:d3:17:06:bd:38:81:e6:d5:64:16:11:70:f8:d7:90:3b:06:
         47:00:99:eb:aa:2d:68:7d:26:a2:a8:49:f2:52:88:71:f3:5b:
         a0:5a:4b:dc:48:d1:ca:07:bb:cc:f8:86:ab:e2:9b:d2:c0:d3:
         b3:51:4d:21:dc:f3:66:77:8e:6d:e5:f4:52:da:e7:89:1e:6c:
         5a:1f:a6:67:73:65:0f:5b:b2:c2:12:77:88:5f:8d:5a:89:ec:
         30:f0:a6:1a:98:4f:3f:27:04:9b:d9:95:52:62:7c:c3:2c:6a:
         05:8a:65:8a:d1:55:d4:19:10:6c:20:0f:fe:cf:e4:4d:98:97:
         e2:db:96:2f:d6:4f:ce:34:c5:f4:64:fa:fa:40:0f:51:4d:b2:
         0b:d2:4a:8d:f4:a2:ee:66:54:47:ae:49:ca:6e:cb:bc:4a:92:
         41:4c:bd:21:84:78:05:65:11:97:82:5d:4a:a1:91:a4:76:8c:
         31:fc:c5:23:55:38:dd:9e:93:c5:4e:14:20:eb:b7:39:b3:e3:
         4b:8a:5b:2c:a2:a3:81:c2:27:99:40:89:94:5e:a6:8b:38:a6:
         19:57:6c:26:f9:8a:43:b9:22:56:d4:d1:5d:48:10:8d:ed:e1:
         a1:39:46:6f:ce:28:ef:ba:e7:a8:5c:5e:2d:ab:0a:76:1d:31:
         27:e4:7f:08:d6:71:c3:5a:af:f6:7a:c7:a2:a8:30:49:98:9e:
         9b:db:68:bc:25:f4:c8:42:78:b4:22:46:e4:06:71:96:73:41:
         0f:64:3c:6f:41:bd:69:01:4d:d0:e4:ea:6c:9c:26:a2:56:52:
         ce:20:25:f8:53:44:4d:d0:b5:e2:b7:01:08:c1:a7:cb:5e:fb:
         6d:3e:31:52:1e:2c:89:eb:b5:69:68:31:1e:60:4f:19:d0:aa:
         d8:af:73:96:b3:6d:1e:81:78:21:6b:de:f9:cb:ec:68:db:1a:
         01:52:56:15:3c:4d:55:3b:04:2e:21:f7:91:87:45:97:72:6c:
         c1:6b:b8:58:00:54:54:d3:33:c7:57:f6:0e:a3:34:fe:57:6e:
         f2:f7:c3:a3:95:3e:1b:21:85:b4:1f:86:12:54:e8:4b:f2:84:
         51:09:41:2d:81:ee:e6:ac:7f:e1:61:05:0f:ee:9c:2b:76:e3:
         db:2d:7d:b4:92:2d:5a:39:c4:db:3c:e2:f0:13:f2:b1:f5:5f:
         d2:17:0f:a9:0d:4f:af:8a
-----BEGIN CERTIFICATE-----
MIIGrTCCBJWgAwIBAgICDHEwDQYJKoZIhvcNAQEEBQAwgawxCzAJBgNVBAYTAlVT
MQswCQYDVQQIEwJPSDERMA8GA1UEBxMIQ29sdW1idXMxEjAQBgNVBAoTCVZpa2lu
Z1ZQTjEdMBsGA1UECxMUTXlPcmdhbml6YXRpb25hbFVuaXQxFTATBgNVBAMTDFZp
a2luZ1ZQTiBDQTEQMA4GA1UEKRMHRWFzeVJTQTEhMB8GCSqGSIb3DQEJARYSbWVA
bXlob3N0Lm15ZG9tYWluMB4XDTE0MTAyNDE0MTc0MVoXDTI0MTAyMTE0MTc0MVow
HzEdMBsGA1UEAxMUQ2xpZW50MTEwMUNlcnRmN2ZjYWEwggIiMA0GCSqGSIb3DQEB
AQUAA4ICDwAwggIKAoICAQDDsclootKWkSQdQa1c4yS0sUU4waAXHmx8tfOqEr8Q
IW/HtWhZkv+VHV3FxvIkoCYEs7CLMg2x1/spQ2I2TOGTzMiyAmcR6r3nOuCr5W5S
HZVZ0MJXxsUi8fv6SXwg2wLx+Q2bwTfO4JVQsMCuFxVDGIYeFGZ4lt6BXqju7zwT
OtrcjQkVEpCfM/Yormg30WRUeIVMJMjHkLQ5POjyDWt8hx/S3ZHNtvXIVB2KEY38
F8IKt+e2Nabt+77XPAiZCVtiyy7uHfKks31h0qVEhE/pCNx28MM3M/UnEYUU3CgM
iRfaAh0ekjA9b/fgOoqWgXWilfSn40PbohfiLEx1ttZeEO2wDSbbkprGYuG0acdY
7wc9XKaP5MW0TxkndPeDQoxL5/+wVIY+mSqlU+sSyrdy9ffI0sZxyaGPIpf8IKjh
0m11VyxFf1SjKdQockA9oTOj0n8VwFDm8+VXTJlilf0uyRt/2dswvobb2je7NMRw
UzeJnkFTSVSmzWLgwXGRCMbtPzRDk+nbcoxLd58iwT31k4B9MCZmjyBGbnlGDIeC
gjRMo1E6QWKoY+KsecCbTfpaRKlmRnqS6k7F2FGTlNX94n7b2jJ9sLNzxGFzAnVi
CjIezlNQZUBONagcuSvCV1rFI7Meq1hlqG74jCeSC/LT93ucxOGD7DwH/WkVTqMS
iQIDAQABo4IBYzCCAV8wCQYDVR0TBAIwADAtBglghkgBhvhCAQ0EIBYeRWFzeS1S
U0EgR2VuZXJhdGVkIENlcnRpZmljYXRlMB0GA1UdDgQWBBTAMDKBbHf9XKskN21H
WhK+PmtGxzCB4QYDVR0jBIHZMIHWgBQSzWAE0qCAnnDtxpm4eyzGUv0ZoaGBsqSB
rzCBrDELMAkGA1UEBhMCVVMxCzAJBgNVBAgTAk9IMREwDwYDVQQHEwhDb2x1bWJ1
czESMBAGA1UEChMJVmlraW5nVlBOMR0wGwYDVQQLExRNeU9yZ2FuaXphdGlvbmFs
VW5pdDEVMBMGA1UEAxMMVmlraW5nVlBOIENBMRAwDgYDVQQpEwdFYXN5UlNBMSEw
HwYJKoZIhvcNAQkBFhJtZUBteWhvc3QubXlkb21haW6CCQDPNYXugL8qPjATBgNV
HSUEDDAKBggrBgEFBQcDAjALBgNVHQ8EBAMCB4AwDQYJKoZIhvcNAQEEBQADggIB
AJM8EadkDMnTmmZ+9gimSQot/e+Hjtnects/JiLN00RodTXl7bF/+967LmGf+GAm
ccPwI/EH5UnTFwa9OIHm1WQWEXD415A7BkcAmeuqLWh9JqKoSfJSiHHzW6BaS9xI
0coHu8z4hqvim9LA07NRTSHc82Z3jm3l9FLa54kebFofpmdzZQ9bssISd4hfjVqJ
7DDwphqYTz8nBJvZlVJifMMsagWKZYrRVdQZEGwgD/7P5E2Yl+Lbli/WT840xfRk
+vpAD1FNsgvSSo30ou5mVEeuScpuy7xKkkFMvSGEeAVlEZeCXUqhkaR2jDH8xSNV
ON2ek8VOFCDrtzmz40uKWyyio4HCJ5lAiZRepos4phlXbCb5ikO5IlbU0V1IEI3t
4aE5Rm/OKO+656hcXi2rCnYdMSfkfwjWccNar/Z6x6KoMEmYnpvbaLwl9MhCeLQi
RuQGcZZzQQ9kPG9BvWkBTdDk6mycJqJWUs4gJfhTRE3QteK3AQjBp8te+20+MVIe
LInrtWloMR5gTxnQqtivc5azbR6BeCFr3vnL7GjbGgFSVhU8TVU7BC4h95GHRZdy
bMFruFgAVFTTM8dX9g6jNP5XbvL3w6OVPhshhbQfhhJU6EvyhFEJQS2B7uasf+Fh
BQ/unCt249stfbSSLVo5xNs84vAT8rH1X9IXD6kNT6+K
-----END CERTIFICATE-----
