Certificate:
    Data:
        Version: 3 (0x2)
        Serial Number: 11229 (0x2bdd)
    Signature Algorithm: sha256WithRSAEncryption
        Issuer: C=US, ST=OH, L=Columbus, O=VikingVPN, OU=MyOrganizationalUnit, CN=VikingVPN CA/name=EasyRSA/emailAddress=me@myhost.mydomain
        Validity
            Not Before: Jul  4 20:35:20 2017 GMT
            Not After : Jul  2 20:35:20 2027 GMT
        Subject: CN=Client2980Cert91fc40
        Subject Public Key Info:
            Public Key Algorithm: rsaEncryption
                Public-Key: (4096 bit)
                Modulus:
                    00:ed:22:0b:4f:9b:b4:42:b2:3b:9e:bd:63:62:d5:
                    58:2c:8f:87:f4:19:9c:74:77:7a:c5:98:40:54:cd:
                    9c:17:ce:21:e9:f6:a0:39:60:93:be:77:18:7a:8d:
                    b4:72:77:a7:17:eb:e8:e8:b7:a1:69:f1:21:4f:c5:
                    81:d3:1e:09:e1:26:51:dc:7d:28:04:46:26:37:33:
                    6b:e5:6c:30:34:11:de:96:92:44:89:e8:c3:0f:a6:
                    29:68:54:02:f9:f9:55:f5:cb:d0:bd:d9:76:b6:b3:
                    a6:cd:46:c2:23:c7:a1:ca:32:78:e7:7d:08:60:f3:
                    73:2e:a6:9c:a1:c8:2c:fa:83:4b:e2:6a:fd:06:cd:
                    db:2d:b4:21:90:f3:c1:54:33:a2:9a:12:02:eb:d2:
                    92:25:ff:f4:7e:5e:b1:87:76:09:12:df:38:b2:9e:
                    ab:4e:39:09:c7:5f:82:b7:16:df:fc:2a:11:94:5e:
                    52:d2:a2:94:2b:44:11:7c:af:62:9d:01:0b:f6:d1:
                    26:00:f0:92:7e:59:cf:fc:ba:c2:6f:3c:95:4e:43:
                    1c:b1:61:52:7c:44:5f:42:01:e6:91:41:5e:00:ea:
                    bd:a2:56:c5:df:3d:50:b1:e5:50:fd:c1:27:de:5a:
                    91:81:5e:6c:fb:de:1b:55:e7:ed:4a:35:ca:13:2d:
                    23:9d:e2:66:89:27:14:15:76:31:1d:33:65:af:c9:
                    5e:85:66:66:55:fa:f4:d5:a9:1e:dd:36:20:da:c6:
                    a9:68:7e:1d:da:a2:1a:d8:1c:01:34:5d:d6:a7:fd:
                    4b:82:f9:70:d1:ac:e7:d3:13:57:30:13:8c:2c:76:
                    58:3d:f7:00:52:e6:fe:9c:71:fc:5f:a2:0f:48:35:
                    cd:f8:0b:c9:d5:be:8a:f0:aa:11:c0:10:50:be:a6:
                    4b:a3:a8:02:b0:7a:af:7f:f7:60:3f:fe:ce:b6:28:
                    d1:48:94:2d:e4:0d:20:25:e7:2d:30:6f:fe:e4:12:
                    68:a1:e3:81:ac:a6:96:c5:0a:8f:57:3d:74:13:ab:
                    80:21:cc:fa:0a:04:f3:0e:e7:fb:04:65:8f:d8:16:
                    99:f7:bf:43:77:87:df:88:a2:cf:a6:15:e4:69:e2:
                    38:77:5b:bb:28:b1:1f:aa:ef:22:ea:87:2b:e2:97:
                    c1:8d:19:96:9f:50:4c:a9:a1:95:32:37:99:99:cf:
                    1d:59:4b:a8:40:45:b3:9d:f6:01:63:d4:fe:cc:6b:
                    14:93:9a:ed:e2:29:8f:09:b4:72:b1:e5:8a:4b:32:
                    c2:a4:b4:19:06:dc:f4:49:2a:8b:a0:ae:75:2c:b4:
                    c0:eb:37:8d:24:64:30:3d:90:bc:85:2e:6a:d0:bc:
                    31:9a:d1
                Exponent: 65537 (0x10001)
        X509v3 extensions:
            X509v3 Basic Constraints: 
                CA:FALSE
            Netscape Comment: 
                Easy-RSA Generated Certificate
            X509v3 Subject Key Identifier: 
                B5:0E:34:86:53:C1:C7:CA:3D:53:DD:31:1E:02:1B:AC:73:7B:C1:E7
            X509v3 Authority Key Identifier: 
                keyid:12:CD:60:04:D2:A0:80:9E:70:ED:C6:99:B8:7B:2C:C6:52:FD:19:A1
                DirName:/C=US/ST=OH/L=Columbus/O=VikingVPN/OU=MyOrganizationalUnit/CN=VikingVPN CA/name=EasyRSA/emailAddress=me@myhost.mydomain
                serial:CF:35:85:EE:80:BF:2A:3E

            X509v3 Extended Key Usage: 
                TLS Web Client Authentication
            X509v3 Key Usage: 
                Digital Signature
    Signature Algorithm: sha256WithRSAEncryption
         cd:fb:57:11:6c:cc:86:0c:3e:9f:f3:86:e7:31:29:30:5a:58:
         b3:84:bc:34:d7:74:0c:1a:fb:03:fd:e8:99:2f:17:b3:9a:23:
         8d:d3:6b:8d:a0:b9:ba:de:6a:2f:33:2f:54:5a:ac:1e:4d:17:
         0b:1d:02:10:df:8f:9a:f9:88:9e:2e:7e:10:e4:e2:e6:5b:69:
         c8:d3:88:04:b2:e6:4b:94:1f:02:28:d5:43:29:c7:ce:43:4b:
         bf:e7:4d:a5:f5:97:5e:40:df:83:ce:4e:d4:d0:04:c2:6f:b0:
         9f:3d:65:ba:7c:7a:b3:db:43:98:33:c8:ed:9b:11:0f:ce:cc:
         59:5b:61:a5:3b:72:0f:48:85:36:bd:ad:02:cc:39:57:fd:df:
         27:1f:c2:4b:d5:2e:43:f4:e6:ef:65:04:f9:73:1d:a7:ba:14:
         cd:bc:57:73:88:41:ec:ee:82:6e:1b:5f:79:6a:a6:b5:23:d0:
         7c:8f:88:64:ab:21:93:6d:56:d6:07:4e:a5:d9:18:e0:95:a3:
         bc:c1:47:8a:48:3e:03:85:59:1d:d5:8f:0c:be:ec:83:e2:2b:
         73:04:75:d5:ce:89:cb:1a:4e:b6:b4:ca:2f:62:51:06:a0:d4:
         65:f7:bb:72:a3:c9:d7:62:e7:f3:ee:58:49:e4:98:e7:85:49:
         ae:08:dc:03:11:cd:99:54:72:09:c3:78:04:d8:ff:9a:11:6c:
         17:22:93:6c:98:1a:09:7f:2f:ea:b8:52:a2:c1:32:54:8c:00:
         f7:25:75:36:4e:dc:6b:a1:76:33:b9:6e:80:1a:96:65:d3:a8:
         0d:3c:ff:9f:63:43:db:5a:b8:63:a8:30:33:3f:27:92:8c:b8:
         9c:e0:12:5d:cf:31:6d:f9:f9:39:d1:79:0e:e5:a3:ca:f7:e1:
         99:01:2d:54:98:53:a0:2f:51:f3:18:dc:92:32:35:76:f7:9b:
         4b:58:e6:1e:96:b9:00:60:06:10:08:e0:e8:d2:5d:7f:f9:0c:
         8b:1a:df:ba:38:71:75:50:bc:67:ad:5b:9b:1a:e3:6c:cf:f4:
         5f:e8:4c:53:98:38:8c:f5:a0:34:d4:bf:dd:e4:19:b3:23:3f:
         6c:dd:4f:b8:35:56:b2:61:07:42:2f:0b:47:e5:1a:ea:a8:5c:
         c3:09:5b:93:20:e6:86:e3:a8:6d:4e:eb:cb:e5:b2:e5:81:aa:
         d1:c8:aa:b3:06:f1:aa:d2:8e:c6:2e:28:0c:28:2b:f2:a7:a2:
         41:d5:3d:3f:00:7e:bd:05:3b:85:ed:14:95:c7:ff:e4:30:4b:
         83:a9:ca:db:47:f5:a2:66:a3:ea:89:59:5b:3e:2a:e6:d0:2a:
         d5:af:d7:0c:08:ae:c7:72
-----BEGIN CERTIFICATE-----
MIIGrTCCBJWgAwIBAgICK90wDQYJKoZIhvcNAQELBQAwgawxCzAJBgNVBAYTAlVT
MQswCQYDVQQIEwJPSDERMA8GA1UEBxMIQ29sdW1idXMxEjAQBgNVBAoTCVZpa2lu
Z1ZQTjEdMBsGA1UECxMUTXlPcmdhbml6YXRpb25hbFVuaXQxFTATBgNVBAMTDFZp
a2luZ1ZQTiBDQTEQMA4GA1UEKRMHRWFzeVJTQTEhMB8GCSqGSIb3DQEJARYSbWVA
bXlob3N0Lm15ZG9tYWluMB4XDTE3MDcwNDIwMzUyMFoXDTI3MDcwMjIwMzUyMFow
HzEdMBsGA1UEAxMUQ2xpZW50Mjk4MENlcnQ5MWZjNDAwggIiMA0GCSqGSIb3DQEB
AQUAA4ICDwAwggIKAoICAQDtIgtPm7RCsjuevWNi1Vgsj4f0GZx0d3rFmEBUzZwX
ziHp9qA5YJO+dxh6jbRyd6cX6+jot6Fp8SFPxYHTHgnhJlHcfSgERiY3M2vlbDA0
Ed6WkkSJ6MMPpiloVAL5+VX1y9C92Xa2s6bNRsIjx6HKMnjnfQhg83MuppyhyCz6
g0viav0GzdsttCGQ88FUM6KaEgLr0pIl//R+XrGHdgkS3ziynqtOOQnHX4K3Ft/8
KhGUXlLSopQrRBF8r2KdAQv20SYA8JJ+Wc/8usJvPJVOQxyxYVJ8RF9CAeaRQV4A
6r2iVsXfPVCx5VD9wSfeWpGBXmz73htV5+1KNcoTLSOd4maJJxQVdjEdM2WvyV6F
ZmZV+vTVqR7dNiDaxqlofh3aohrYHAE0Xdan/UuC+XDRrOfTE1cwE4wsdlg99wBS
5v6ccfxfog9INc34C8nVvorwqhHAEFC+pkujqAKweq9/92A//s62KNFIlC3kDSAl
5y0wb/7kEmih44GsppbFCo9XPXQTq4AhzPoKBPMO5/sEZY/YFpn3v0N3h9+Ios+m
FeRp4jh3W7sosR+q7yLqhyvil8GNGZafUEypoZUyN5mZzx1ZS6hARbOd9gFj1P7M
axSTmu3iKY8JtHKx5YpLMsKktBkG3PRJKougrnUstMDrN40kZDA9kLyFLmrQvDGa
0QIDAQABo4IBYzCCAV8wCQYDVR0TBAIwADAtBglghkgBhvhCAQ0EIBYeRWFzeS1S
U0EgR2VuZXJhdGVkIENlcnRpZmljYXRlMB0GA1UdDgQWBBS1DjSGU8HHyj1T3TEe
Ahusc3vB5zCB4QYDVR0jBIHZMIHWgBQSzWAE0qCAnnDtxpm4eyzGUv0ZoaGBsqSB
rzCBrDELMAkGA1UEBhMCVVMxCzAJBgNVBAgTAk9IMREwDwYDVQQHEwhDb2x1bWJ1
czESMBAGA1UEChMJVmlraW5nVlBOMR0wGwYDVQQLExRNeU9yZ2FuaXphdGlvbmFs
VW5pdDEVMBMGA1UEAxMMVmlraW5nVlBOIENBMRAwDgYDVQQpEwdFYXN5UlNBMSEw
HwYJKoZIhvcNAQkBFhJtZUBteWhvc3QubXlkb21haW6CCQDPNYXugL8qPjATBgNV
HSUEDDAKBggrBgEFBQcDAjALBgNVHQ8EBAMCB4AwDQYJKoZIhvcNAQELBQADggIB
AM37VxFszIYMPp/zhucxKTBaWLOEvDTXdAwa+wP96JkvF7OaI43Ta42gubreai8z
L1RarB5NFwsdAhDfj5r5iJ4ufhDk4uZbacjTiASy5kuUHwIo1UMpx85DS7/nTaX1
l15A34POTtTQBMJvsJ89Zbp8erPbQ5gzyO2bEQ/OzFlbYaU7cg9IhTa9rQLMOVf9
3ycfwkvVLkP05u9lBPlzHae6FM28V3OIQezugm4bX3lqprUj0HyPiGSrIZNtVtYH
TqXZGOCVo7zBR4pIPgOFWR3Vjwy+7IPiK3MEddXOicsaTra0yi9iUQag1GX3u3Kj
yddi5/PuWEnkmOeFSa4I3AMRzZlUcgnDeATY/5oRbBcik2yYGgl/L+q4UqLBMlSM
APcldTZO3GuhdjO5boAalmXTqA08/59jQ9tauGOoMDM/J5KMuJzgEl3PMW35+TnR
eQ7lo8r34ZkBLVSYU6AvUfMY3JIyNXb3m0tY5h6WuQBgBhAI4OjSXX/5DIsa37o4
cXVQvGetW5sa42zP9F/oTFOYOIz1oDTUv93kGbMjP2zdT7g1VrJhB0IvC0flGuqo
XMMJW5Mg5objqG1O68vlsuWBqtHIqrMG8arSjsYuKAwoK/KnokHVPT8Afr0FO4Xt
FJXH/+QwS4OpyttH9aJmo+qJWVs+KubQKtWv1wwIrsdy
-----END CERTIFICATE-----
