Certificate:
    Data:
        Version: 3 (0x2)
        Serial Number: 949 (0x3b5)
    Signature Algorithm: md5WithRSAEncryption
        Issuer: C=US, ST=OH, L=Columbus, O=VikingVPN, OU=MyOrganizationalUnit, CN=VikingVPN CA/name=EasyRSA/emailAddress=me@myhost.mydomain
        Validity
            Not Before: Feb  5 03:01:13 2014 GMT
            Not After : Feb  3 03:01:13 2024 GMT
        Subject: CN=Client284Cert40fc41
        Subject Public Key Info:
            Public Key Algorithm: rsaEncryption
                Public-Key: (4096 bit)
                Modulus:
                    00:de:08:94:ec:fc:c7:ff:a7:db:50:88:c3:a6:f4:
                    d5:b6:ad:0d:82:7a:c1:0b:20:8d:54:47:22:d4:d6:
                    6a:a6:d1:99:26:f3:01:5f:17:ca:91:71:d6:9f:55:
                    b4:a5:05:c5:ce:2c:63:d7:64:55:81:a2:74:83:e2:
                    65:05:4b:35:88:9d:dd:c9:25:52:50:da:bf:42:38:
                    70:db:1f:01:36:55:66:d6:b8:46:ad:cf:42:72:be:
                    48:a6:e4:c0:b1:0f:2c:42:fd:6b:72:4a:ce:67:24:
                    a8:64:56:2c:f5:04:a3:dd:3d:06:bb:7d:9b:9c:54:
                    51:04:2d:1c:0e:8c:be:95:c1:3d:0c:73:37:32:18:
                    70:de:23:5b:48:08:d2:56:9b:85:9d:00:fe:73:47:
                    23:17:43:6a:e0:fb:a6:f4:8d:5c:dc:23:c3:e5:86:
                    de:4c:1d:c4:ae:16:0b:ef:5b:40:61:28:bc:ba:2a:
                    ba:c6:ed:e4:f4:20:31:c8:ab:88:ee:9f:92:7a:0f:
                    5e:31:71:7c:3d:8f:e6:36:e5:a9:c8:eb:fc:a7:7e:
                    7c:9e:6b:5a:20:8e:d5:ea:f9:f4:a7:71:ea:cf:ae:
                    73:07:b6:06:87:66:1c:c5:d9:51:06:0c:f4:2f:41:
                    d2:f9:ab:15:2b:14:1d:73:41:85:76:47:93:74:4a:
                    69:30:32:cd:6b:b7:39:f8:25:c2:d3:65:ff:ca:17:
                    ba:86:2e:ac:d3:79:11:22:f4:76:a9:5c:bd:2d:7d:
                    a6:66:3c:ae:96:90:02:7b:17:ad:a4:63:f7:6f:b7:
                    2d:9c:4a:d7:c5:dc:12:d1:b4:34:d0:f9:10:0f:4f:
                    bc:1a:38:7b:7b:02:8d:7f:65:e9:78:10:a2:b2:b7:
                    eb:c7:63:5f:b5:c4:98:9a:54:59:84:ac:06:81:09:
                    ec:ef:bb:5f:8a:ad:58:77:60:7e:5b:c5:9b:57:aa:
                    a9:0d:6f:f7:d2:81:cc:6e:c6:b8:e2:3f:79:19:78:
                    89:67:d9:f3:ac:c9:1d:0e:50:2d:a9:26:ea:58:25:
                    e5:50:97:8a:5d:c2:91:05:59:9d:28:db:46:12:d6:
                    99:54:80:b0:87:36:f6:3d:39:d2:aa:d1:ac:ee:90:
                    4e:45:b2:cc:99:59:9a:88:12:6f:36:3e:09:42:0c:
                    e4:bf:a4:d5:58:b5:01:2b:74:a0:fd:73:5a:91:9e:
                    5e:0f:5d:26:5a:d1:38:2b:10:7a:04:ac:f8:00:30:
                    e8:9d:77:ca:eb:40:e1:96:8d:93:5c:b1:b1:8b:44:
                    84:22:ef:8b:31:75:0d:b7:22:b9:8b:54:d8:c5:7b:
                    a6:04:bb:fd:7f:a2:70:ac:c8:66:ef:81:52:3a:52:
                    a1:70:21
                Exponent: 65537 (0x10001)
        X509v3 extensions:
            X509v3 Basic Constraints: 
                CA:FALSE
            Netscape Comment: 
                Easy-RSA Generated Certificate
            X509v3 Subject Key Identifier: 
                B1:86:C8:83:84:1B:67:A5:72:72:5C:93:8A:2B:2A:62:62:B6:2E:1E
            X509v3 Authority Key Identifier: 
                keyid:12:CD:60:04:D2:A0:80:9E:70:ED:C6:99:B8:7B:2C:C6:52:FD:19:A1
                DirName:/C=US/ST=OH/L=Columbus/O=VikingVPN/OU=MyOrganizationalUnit/CN=VikingVPN CA/name=EasyRSA/emailAddress=me@myhost.mydomain
                serial:CF:35:85:EE:80:BF:2A:3E

            X509v3 Extended Key Usage: 
                TLS Web Client Authentication
            X509v3 Key Usage: 
                Digital Signature
    Signature Algorithm: md5WithRSAEncryption
         13:f5:17:6b:6b:17:b1:ce:3c:7d:d3:51:bb:a0:eb:70:3f:30:
         bc:c1:9b:5b:2e:dc:e1:03:33:d6:b4:a3:66:df:f7:2c:b7:ad:
         4e:7d:e6:33:e6:fe:33:26:ab:ce:62:cf:12:42:32:3b:1f:bc:
         2e:c4:de:52:8a:7b:9e:33:94:13:72:cc:c6:1a:90:7a:a1:57:
         62:93:7c:ee:62:76:09:59:2e:91:d0:23:6f:37:5b:3d:f3:34:
         92:b0:3f:38:61:4c:8b:44:a6:d8:be:ff:e1:89:8a:01:85:d6:
         87:c6:16:dd:4b:c3:17:a1:28:cf:30:c4:8b:59:0f:16:9b:e2:
         5c:24:b2:63:c4:3f:60:fd:8a:2e:8d:a3:a4:d1:c4:de:cb:fe:
         c8:d2:12:25:d6:da:81:08:81:b7:8b:d6:35:73:fa:d6:0a:da:
         e2:57:b5:1b:42:0c:76:c5:76:66:ec:5e:d3:35:6a:8b:fb:9d:
         79:a0:07:9b:b4:dd:90:75:cc:cf:91:98:ef:34:85:5d:fb:25:
         2e:77:94:b4:93:6d:d1:91:ae:4b:38:16:d9:68:09:ab:0a:18:
         e3:f6:bd:54:fe:6b:80:87:be:89:dc:fd:d8:9d:ee:32:62:35:
         f0:19:5a:d8:a6:17:42:bd:bf:af:bd:f5:12:be:c3:45:b4:7f:
         27:b6:b1:66:67:50:eb:43:23:88:72:87:c9:ab:81:02:3a:58:
         fd:67:96:5c:48:cc:ce:c7:c3:70:3e:9d:9c:c2:a6:16:5b:1e:
         c0:18:bd:f2:a8:92:1a:08:bc:69:ec:ef:5f:9a:ed:b7:3c:a3:
         01:9e:26:db:12:72:83:9e:26:86:6d:72:2b:2f:dc:1c:34:03:
         d8:3a:03:23:08:57:06:46:13:07:29:75:7a:ea:76:92:f9:66:
         e4:55:2b:77:24:68:6a:4f:82:54:1e:68:dc:42:8c:53:5a:ca:
         02:52:c0:4e:1e:78:56:ee:65:c3:f8:dc:90:f5:10:95:c5:9d:
         3b:4b:be:0f:05:6e:23:a3:e5:cf:46:74:0b:70:65:f9:3f:e8:
         b1:ac:ed:6c:3a:4e:68:8d:d8:3e:7e:5a:ae:40:63:2c:96:47:
         f0:33:28:a7:58:ce:eb:ee:9b:ac:78:1b:d6:37:b5:8a:9a:ab:
         6f:64:79:82:f8:1e:e7:3d:33:c3:a4:e1:1e:a0:fa:90:ef:f0:
         1b:37:67:cb:43:7a:49:d6:62:08:11:6d:dc:df:95:95:f1:c4:
         cd:25:69:2c:1f:d4:ac:da:f9:0f:03:96:f8:12:cf:2c:c9:53:
         61:d2:55:44:a7:61:f0:c0:05:99:dc:b8:d6:0e:4d:9a:de:a4:
         ea:fe:0a:f3:23:f9:af:33
-----BEGIN CERTIFICATE-----
MIIGrDCCBJSgAwIBAgICA7UwDQYJKoZIhvcNAQEEBQAwgawxCzAJBgNVBAYTAlVT
MQswCQYDVQQIEwJPSDERMA8GA1UEBxMIQ29sdW1idXMxEjAQBgNVBAoTCVZpa2lu
Z1ZQTjEdMBsGA1UECxMUTXlPcmdhbml6YXRpb25hbFVuaXQxFTATBgNVBAMTDFZp
a2luZ1ZQTiBDQTEQMA4GA1UEKRMHRWFzeVJTQTEhMB8GCSqGSIb3DQEJARYSbWVA
bXlob3N0Lm15ZG9tYWluMB4XDTE0MDIwNTAzMDExM1oXDTI0MDIwMzAzMDExM1ow
HjEcMBoGA1UEAxMTQ2xpZW50Mjg0Q2VydDQwZmM0MTCCAiIwDQYJKoZIhvcNAQEB
BQADggIPADCCAgoCggIBAN4IlOz8x/+n21CIw6b01batDYJ6wQsgjVRHItTWaqbR
mSbzAV8XypFx1p9VtKUFxc4sY9dkVYGidIPiZQVLNYid3cklUlDav0I4cNsfATZV
Zta4Rq3PQnK+SKbkwLEPLEL9a3JKzmckqGRWLPUEo909Brt9m5xUUQQtHA6MvpXB
PQxzNzIYcN4jW0gI0labhZ0A/nNHIxdDauD7pvSNXNwjw+WG3kwdxK4WC+9bQGEo
vLoqusbt5PQgMciriO6fknoPXjFxfD2P5jblqcjr/Kd+fJ5rWiCO1er59Kdx6s+u
cwe2BodmHMXZUQYM9C9B0vmrFSsUHXNBhXZHk3RKaTAyzWu3OfglwtNl/8oXuoYu
rNN5ESL0dqlcvS19pmY8rpaQAnsXraRj92+3LZxK18XcEtG0NND5EA9PvBo4e3sC
jX9l6XgQorK368djX7XEmJpUWYSsBoEJ7O+7X4qtWHdgflvFm1eqqQ1v99KBzG7G
uOI/eRl4iWfZ86zJHQ5QLakm6lgl5VCXil3CkQVZnSjbRhLWmVSAsIc29j050qrR
rO6QTkWyzJlZmogSbzY+CUIM5L+k1Vi1ASt0oP1zWpGeXg9dJlrROCsQegSs+AAw
6J13yutA4ZaNk1yxsYtEhCLvizF1DbciuYtU2MV7pgS7/X+icKzIZu+BUjpSoXAh
AgMBAAGjggFjMIIBXzAJBgNVHRMEAjAAMC0GCWCGSAGG+EIBDQQgFh5FYXN5LVJT
QSBHZW5lcmF0ZWQgQ2VydGlmaWNhdGUwHQYDVR0OBBYEFLGGyIOEG2elcnJck4or
KmJiti4eMIHhBgNVHSMEgdkwgdaAFBLNYATSoICecO3Gmbh7LMZS/RmhoYGypIGv
MIGsMQswCQYDVQQGEwJVUzELMAkGA1UECBMCT0gxETAPBgNVBAcTCENvbHVtYnVz
MRIwEAYDVQQKEwlWaWtpbmdWUE4xHTAbBgNVBAsTFE15T3JnYW5pemF0aW9uYWxV
bml0MRUwEwYDVQQDEwxWaWtpbmdWUE4gQ0ExEDAOBgNVBCkTB0Vhc3lSU0ExITAf
BgkqhkiG9w0BCQEWEm1lQG15aG9zdC5teWRvbWFpboIJAM81he6Avyo+MBMGA1Ud
JQQMMAoGCCsGAQUFBwMCMAsGA1UdDwQEAwIHgDANBgkqhkiG9w0BAQQFAAOCAgEA
E/UXa2sXsc48fdNRu6DrcD8wvMGbWy7c4QMz1rSjZt/3LLetTn3mM+b+MyarzmLP
EkIyOx+8LsTeUop7njOUE3LMxhqQeqFXYpN87mJ2CVkukdAjbzdbPfM0krA/OGFM
i0Sm2L7/4YmKAYXWh8YW3UvDF6EozzDEi1kPFpviXCSyY8Q/YP2KLo2jpNHE3sv+
yNISJdbagQiBt4vWNXP61gra4le1G0IMdsV2Zuxe0zVqi/udeaAHm7TdkHXMz5GY
7zSFXfslLneUtJNt0ZGuSzgW2WgJqwoY4/a9VP5rgIe+idz92J3uMmI18Bla2KYX
Qr2/r731Er7DRbR/J7axZmdQ60MjiHKHyauBAjpY/WeWXEjMzsfDcD6dnMKmFlse
wBi98qiSGgi8aezvX5rttzyjAZ4m2xJyg54mhm1yKy/cHDQD2DoDIwhXBkYTByl1
eup2kvlm5FUrdyRoak+CVB5o3EKMU1rKAlLATh54Vu5lw/jckPUQlcWdO0u+DwVu
I6Plz0Z0C3Bl+T/osaztbDpOaI3YPn5arkBjLJZH8DMop1jO6+6brHgb1je1ipqr
b2R5gvge5z0zw6ThHqD6kO/wGzdny0N6SdZiCBFt3N+VlfHEzSVpLB/UrNr5DwOW
+BLPLMlTYdJVRKdh8MAFmdy41g5Nmt6k6v4K8yP5rzM=
-----END CERTIFICATE-----
