Certificate:
    Data:
        Version: 3 (0x2)
        Serial Number: 2801 (0xaf1)
    Signature Algorithm: md5WithRSAEncryption
        Issuer: C=US, ST=OH, L=Columbus, O=VikingVPN, OU=MyOrganizationalUnit, CN=VikingVPN CA/name=EasyRSA/emailAddress=me@myhost.mydomain
        Validity
            Not Before: Sep  9 16:53:58 2014 GMT
            Not After : Sep  6 16:53:58 2024 GMT
        Subject: CN=Client974Certa8aed1
        Subject Public Key Info:
            Public Key Algorithm: rsaEncryption
                Public-Key: (4096 bit)
                Modulus:
                    00:b6:c5:b0:18:09:7f:7b:71:e0:19:7f:2d:56:ba:
                    21:00:4e:db:dd:33:06:80:8e:c8:4b:e7:45:62:b1:
                    91:24:dc:09:5b:61:34:35:de:25:25:00:bd:5f:41:
                    c1:a6:96:76:ad:92:4b:09:97:c7:0a:8d:67:42:3e:
                    6f:72:bb:45:34:30:28:e1:70:6f:7b:85:00:f8:ba:
                    51:04:e7:6d:13:52:f3:83:0b:e9:40:28:87:9b:80:
                    12:a1:b2:25:6a:f3:ed:11:ef:e5:c9:20:65:a7:5d:
                    37:fc:a3:8f:cd:36:e2:d4:48:7e:ee:86:66:44:54:
                    6f:8e:a2:ac:0f:c3:9b:f6:bd:e3:62:26:9b:8e:9b:
                    47:ec:db:1d:d6:d8:59:c5:0e:12:ce:a0:9d:33:84:
                    34:04:ff:d4:13:70:02:0e:3f:6d:50:96:5e:79:c8:
                    2f:29:67:ee:09:ad:1a:82:13:03:de:29:30:82:84:
                    9f:53:a6:30:3c:fb:15:e0:4d:77:ac:05:9b:d9:ab:
                    87:02:f5:d5:90:0f:4a:0b:ac:0e:34:ab:5e:8c:8c:
                    ae:89:4d:21:84:b4:d4:56:4c:59:98:b2:36:56:a4:
                    85:0f:5e:92:c4:da:ad:48:6c:93:55:77:7b:88:e3:
                    9e:5f:e8:b6:d3:6b:c7:da:c0:1c:c6:40:ab:21:8d:
                    13:0d:f3:8b:45:52:8a:21:b7:22:5a:ff:56:8a:50:
                    55:37:76:a6:3b:4a:21:da:af:27:71:b1:fe:5d:51:
                    3d:57:15:c8:c3:90:28:4c:15:53:da:a7:4b:08:73:
                    0f:61:3c:3c:23:ea:bf:84:cd:a0:d9:2c:d9:6d:fc:
                    c6:b9:33:fd:af:14:f6:6b:0d:77:9d:1e:da:8f:c8:
                    6f:f6:2e:bc:ed:d8:09:72:c6:d9:ca:d0:7d:d0:11:
                    2c:c7:c1:05:bf:d3:fd:23:00:4a:9d:90:b1:56:62:
                    ad:58:67:a3:07:02:72:11:0a:5f:ad:5f:9c:a3:2d:
                    10:1b:e0:45:68:63:02:25:91:0b:b7:2b:af:f2:38:
                    f2:5c:d2:38:07:30:b3:21:7f:6d:c7:0b:0f:f8:1f:
                    08:dd:20:f1:d8:f2:3c:4b:b3:8c:18:ab:a7:5d:f2:
                    94:fa:56:9d:58:94:dc:b6:eb:ce:e7:f2:4e:ac:c6:
                    c0:db:40:40:22:7d:a5:bd:70:83:ff:a5:33:43:72:
                    0f:5f:0a:ed:9a:61:4e:09:ef:12:c0:17:c1:22:04:
                    88:e2:4f:13:9b:a8:73:6d:b8:39:26:17:cc:92:3a:
                    6f:97:61:5f:ba:ba:50:14:70:67:c3:15:81:cc:7a:
                    05:a5:75:28:ae:af:60:01:ee:84:0c:d6:0a:1b:92:
                    ff:13:95
                Exponent: 65537 (0x10001)
        X509v3 extensions:
            X509v3 Basic Constraints: 
                CA:FALSE
            Netscape Comment: 
                Easy-RSA Generated Certificate
            X509v3 Subject Key Identifier: 
                95:5C:83:9F:F9:FA:1C:54:20:D8:E7:A4:B4:27:BF:56:A2:A2:A3:8B
            X509v3 Authority Key Identifier: 
                keyid:12:CD:60:04:D2:A0:80:9E:70:ED:C6:99:B8:7B:2C:C6:52:FD:19:A1
                DirName:/C=US/ST=OH/L=Columbus/O=VikingVPN/OU=MyOrganizationalUnit/CN=VikingVPN CA/name=EasyRSA/emailAddress=me@myhost.mydomain
                serial:CF:35:85:EE:80:BF:2A:3E

            X509v3 Extended Key Usage: 
                TLS Web Client Authentication
            X509v3 Key Usage: 
                Digital Signature
    Signature Algorithm: md5WithRSAEncryption
         ca:7e:02:7f:f3:92:8b:5d:00:df:ca:cb:6d:00:34:3b:8b:1a:
         86:c8:b9:13:d6:a2:dc:f3:28:d0:e1:2d:7a:fb:b4:2b:08:76:
         b0:cc:1d:a5:ba:04:2e:7d:46:64:84:e7:3a:70:b2:aa:68:9f:
         23:f9:f0:03:9a:f5:f4:33:2a:db:56:da:24:09:19:b1:0e:ce:
         0a:2c:0c:b6:e9:e9:de:91:8f:ae:46:0d:30:ba:1a:d3:0e:05:
         6f:fa:6b:d1:9e:82:11:8b:fe:67:94:96:d1:bd:cb:a7:6e:84:
         18:ea:d2:b5:dd:2c:2f:bf:d0:f8:e1:08:2d:13:af:a2:40:00:
         bc:c9:28:e7:62:54:02:1d:5f:44:3c:4c:fe:1e:06:4e:13:dc:
         54:ab:48:dd:5d:03:bb:28:54:34:24:64:b4:a0:9c:b7:27:12:
         7f:9e:56:82:21:04:c8:d3:7b:20:1a:c6:a9:b9:3b:d0:da:ca:
         ad:94:44:f7:8c:49:65:87:99:85:81:45:34:d3:64:7b:5a:2f:
         6c:ef:2a:b1:a5:bd:a3:25:f8:7a:fb:d5:89:df:5e:75:96:e2:
         3d:2e:14:d8:31:4d:f9:09:1a:a2:29:45:19:57:d9:be:a5:56:
         c1:98:f8:92:b6:bb:2c:0d:61:78:05:81:ac:58:a3:7a:92:02:
         a1:26:c8:15:c6:fc:e7:11:9b:35:2a:a4:1e:e4:ca:2a:aa:77:
         2b:a6:be:b1:1f:d7:83:67:80:f3:30:b8:2d:41:3d:54:65:2f:
         3b:ea:f7:18:ab:6e:e6:e1:bf:a1:72:72:fe:d8:ac:68:b7:51:
         24:88:04:b8:38:3b:72:6c:10:19:f4:38:fd:d0:c6:44:0f:64:
         b4:92:db:5e:1c:dd:55:b4:a1:cf:6a:fa:51:57:eb:88:62:59:
         a7:a6:c4:f8:32:ff:3f:91:6e:46:dc:76:de:63:b1:b2:e3:7d:
         9e:59:e6:0e:37:64:24:b4:c1:54:9d:25:2e:94:2a:b0:b5:8d:
         9a:fc:1e:58:df:d5:d3:9c:ea:8f:bb:e4:8e:b1:4f:b5:28:cb:
         a3:4d:7b:db:97:46:5c:75:77:64:f7:77:71:66:bd:47:a8:8e:
         b8:44:d6:ad:94:c4:bd:5f:85:d3:4e:14:74:34:5b:d8:db:86:
         85:83:34:41:ed:37:2a:06:9d:b5:0c:5c:8b:72:9f:23:b0:a4:
         ce:62:53:30:a1:10:7d:a8:53:b5:c0:4f:3d:69:a9:00:04:c2:
         52:85:d7:86:c5:d8:5d:f4:88:1d:3c:1c:a6:a8:65:26:7c:e3:
         43:c6:ed:ed:61:ec:30:89:53:98:84:1b:3c:bc:2a:f7:e8:99:
         47:9f:dc:2f:85:12:f1:9e
-----BEGIN CERTIFICATE-----
MIIGrDCCBJSgAwIBAgICCvEwDQYJKoZIhvcNAQEEBQAwgawxCzAJBgNVBAYTAlVT
MQswCQYDVQQIEwJPSDERMA8GA1UEBxMIQ29sdW1idXMxEjAQBgNVBAoTCVZpa2lu
Z1ZQTjEdMBsGA1UECxMUTXlPcmdhbml6YXRpb25hbFVuaXQxFTATBgNVBAMTDFZp
a2luZ1ZQTiBDQTEQMA4GA1UEKRMHRWFzeVJTQTEhMB8GCSqGSIb3DQEJARYSbWVA
bXlob3N0Lm15ZG9tYWluMB4XDTE0MDkwOTE2NTM1OFoXDTI0MDkwNjE2NTM1OFow
HjEcMBoGA1UEAxMTQ2xpZW50OTc0Q2VydGE4YWVkMTCCAiIwDQYJKoZIhvcNAQEB
BQADggIPADCCAgoCggIBALbFsBgJf3tx4Bl/LVa6IQBO290zBoCOyEvnRWKxkSTc
CVthNDXeJSUAvV9BwaaWdq2SSwmXxwqNZ0I+b3K7RTQwKOFwb3uFAPi6UQTnbRNS
84ML6UAoh5uAEqGyJWrz7RHv5ckgZaddN/yjj8024tRIfu6GZkRUb46irA/Dm/a9
42Imm46bR+zbHdbYWcUOEs6gnTOENAT/1BNwAg4/bVCWXnnILyln7gmtGoITA94p
MIKEn1OmMDz7FeBNd6wFm9mrhwL11ZAPSgusDjSrXoyMrolNIYS01FZMWZiyNlak
hQ9eksTarUhsk1V3e4jjnl/ottNrx9rAHMZAqyGNEw3zi0VSiiG3Ilr/VopQVTd2
pjtKIdqvJ3Gx/l1RPVcVyMOQKEwVU9qnSwhzD2E8PCPqv4TNoNks2W38xrkz/a8U
9msNd50e2o/Ib/YuvO3YCXLG2crQfdARLMfBBb/T/SMASp2QsVZirVhnowcCchEK
X61fnKMtEBvgRWhjAiWRC7crr/I48lzSOAcwsyF/bccLD/gfCN0g8djyPEuzjBir
p13ylPpWnViU3LbrzufyTqzGwNtAQCJ9pb1wg/+lM0NyD18K7ZphTgnvEsAXwSIE
iOJPE5uoc224OSYXzJI6b5dhX7q6UBRwZ8MVgcx6BaV1KK6vYAHuhAzWChuS/xOV
AgMBAAGjggFjMIIBXzAJBgNVHRMEAjAAMC0GCWCGSAGG+EIBDQQgFh5FYXN5LVJT
QSBHZW5lcmF0ZWQgQ2VydGlmaWNhdGUwHQYDVR0OBBYEFJVcg5/5+hxUINjnpLQn
v1aioqOLMIHhBgNVHSMEgdkwgdaAFBLNYATSoICecO3Gmbh7LMZS/RmhoYGypIGv
MIGsMQswCQYDVQQGEwJVUzELMAkGA1UECBMCT0gxETAPBgNVBAcTCENvbHVtYnVz
MRIwEAYDVQQKEwlWaWtpbmdWUE4xHTAbBgNVBAsTFE15T3JnYW5pemF0aW9uYWxV
bml0MRUwEwYDVQQDEwxWaWtpbmdWUE4gQ0ExEDAOBgNVBCkTB0Vhc3lSU0ExITAf
BgkqhkiG9w0BCQEWEm1lQG15aG9zdC5teWRvbWFpboIJAM81he6Avyo+MBMGA1Ud
JQQMMAoGCCsGAQUFBwMCMAsGA1UdDwQEAwIHgDANBgkqhkiG9w0BAQQFAAOCAgEA
yn4Cf/OSi10A38rLbQA0O4sahsi5E9ai3PMo0OEtevu0Kwh2sMwdpboELn1GZITn
OnCyqmifI/nwA5r19DMq21baJAkZsQ7OCiwMtunp3pGPrkYNMLoa0w4Fb/pr0Z6C
EYv+Z5SW0b3Lp26EGOrStd0sL7/Q+OEILROvokAAvMko52JUAh1fRDxM/h4GThPc
VKtI3V0DuyhUNCRktKCctycSf55WgiEEyNN7IBrGqbk70NrKrZRE94xJZYeZhYFF
NNNke1ovbO8qsaW9oyX4evvVid9edZbiPS4U2DFN+QkaoilFGVfZvqVWwZj4kra7
LA1heAWBrFijepICoSbIFcb85xGbNSqkHuTKKqp3K6a+sR/Xg2eA8zC4LUE9VGUv
O+r3GKtu5uG/oXJy/tisaLdRJIgEuDg7cmwQGfQ4/dDGRA9ktJLbXhzdVbShz2r6
UVfriGJZp6bE+DL/P5FuRtx23mOxsuN9nlnmDjdkJLTBVJ0lLpQqsLWNmvweWN/V
05zqj7vkjrFPtSjLo01725dGXHV3ZPd3cWa9R6iOuETWrZTEvV+F004UdDRb2NuG
hYM0Qe03KgadtQxci3KfI7CkzmJTMKEQfahTtcBPPWmpAATCUoXXhsXYXfSIHTwc
pqhlJnzjQ8bt7WHsMIlTmIQbPLwq9+iZR5/cL4US8Z4=
-----END CERTIFICATE-----
