Certificate:
    Data:
        Version: 3 (0x2)
        Serial Number: 6497 (0x1961)
    Signature Algorithm: md5WithRSAEncryption
        Issuer: C=US, ST=OH, L=Columbus, O=VikingVPN, OU=MyOrganizationalUnit, CN=VikingVPN CA/name=EasyRSA/emailAddress=me@myhost.mydomain
        Validity
            Not Before: Oct 19 06:02:19 2015 GMT
            Not After : Oct 16 06:02:19 2025 GMT
        Subject: CN=Client1868Cert625278
        Subject Public Key Info:
            Public Key Algorithm: rsaEncryption
                Public-Key: (4096 bit)
                Modulus:
                    00:9c:32:f5:a7:08:cd:62:cb:f6:d5:ba:11:c6:03:
                    7b:1f:74:69:2b:78:02:b8:d6:2d:88:a1:d6:eb:e0:
                    92:34:e3:6e:a6:61:c6:f0:5f:27:ea:f9:cc:ba:ad:
                    1d:f5:9a:3d:55:35:1f:03:2d:7b:4e:63:85:42:40:
                    80:ee:4b:a5:fe:43:1a:49:e7:ca:eb:04:f2:e8:8c:
                    4e:ca:0f:fb:0e:7a:73:a3:b7:2c:2a:78:15:f1:e6:
                    3d:8f:e7:f5:b6:c7:28:35:d1:38:c2:f0:51:2e:43:
                    8f:41:ce:cb:42:1a:f8:05:5c:9f:6e:86:04:53:6d:
                    7b:43:76:b8:b4:d4:0f:02:ac:6c:b9:b5:ad:27:a9:
                    47:75:37:e3:0f:22:89:59:f5:f0:32:a3:2c:a9:93:
                    36:84:ff:cf:c9:5e:29:cc:30:cf:70:17:ee:0b:9f:
                    20:19:93:69:dd:c7:ef:02:da:1a:4c:a5:4b:f5:00:
                    d3:a3:15:b2:e6:3a:c2:9f:26:57:bc:49:c6:b3:81:
                    20:ae:c9:72:81:24:90:22:9f:b1:91:af:33:c7:1a:
                    7a:cb:2b:ef:63:76:42:e2:c0:61:97:2d:53:ba:f5:
                    8d:0f:2f:6d:00:84:cf:76:cf:aa:2d:2a:ec:ca:51:
                    f7:f4:d1:f8:60:fb:9d:54:60:51:3a:c8:79:75:d5:
                    fe:e6:61:2f:ad:24:99:3a:a7:7e:7c:7f:92:ac:e3:
                    b3:cf:86:f3:c9:26:cc:da:bb:4c:93:37:0b:f4:90:
                    a3:48:ed:68:d3:29:e5:35:f4:ab:0c:05:45:75:d8:
                    62:14:ae:7a:8e:ff:61:68:f6:f6:9f:00:96:a7:66:
                    83:b8:f8:fa:88:1a:7a:11:47:5f:dd:68:3c:d6:c6:
                    95:a3:62:a4:31:6a:1a:9a:b7:a9:81:f7:59:5c:7a:
                    14:a7:a8:79:c0:b2:a5:a4:66:95:0f:0d:ac:0a:fa:
                    41:bf:40:9c:90:c8:ca:a5:46:c9:21:e9:f1:c8:b9:
                    16:a7:a3:d9:a5:35:ea:f6:5e:11:dc:16:e2:72:cb:
                    0e:63:ec:32:4c:b2:81:13:0d:ea:67:91:05:e9:3c:
                    01:f7:4a:1e:ac:b5:7c:44:fb:d2:c2:da:a7:8d:bf:
                    13:53:33:d4:85:d3:74:2c:57:89:57:b0:e1:a7:71:
                    3f:59:c5:fb:2e:44:f2:ca:68:24:66:ae:12:37:ff:
                    d4:15:0a:3b:c6:d0:01:be:76:f3:70:67:32:15:21:
                    79:ac:9d:9b:c4:8a:af:f0:dd:a4:58:d7:56:a4:0f:
                    01:d8:cd:95:b4:55:1b:9b:64:9b:3f:a9:09:36:e2:
                    29:73:47:87:34:63:ea:62:f5:aa:0c:95:c6:02:39:
                    02:b8:79
                Exponent: 65537 (0x10001)
        X509v3 extensions:
            X509v3 Basic Constraints: 
                CA:FALSE
            Netscape Comment: 
                Easy-RSA Generated Certificate
            X509v3 Subject Key Identifier: 
                42:2E:D0:FF:6E:DC:87:5E:81:BF:41:05:7C:BF:B8:B5:9F:28:CE:EA
            X509v3 Authority Key Identifier: 
                keyid:12:CD:60:04:D2:A0:80:9E:70:ED:C6:99:B8:7B:2C:C6:52:FD:19:A1
                DirName:/C=US/ST=OH/L=Columbus/O=VikingVPN/OU=MyOrganizationalUnit/CN=VikingVPN CA/name=EasyRSA/emailAddress=me@myhost.mydomain
                serial:CF:35:85:EE:80:BF:2A:3E

            X509v3 Extended Key Usage: 
                TLS Web Client Authentication
            X509v3 Key Usage: 
                Digital Signature
    Signature Algorithm: md5WithRSAEncryption
         69:5f:18:48:5f:34:74:77:2b:bd:64:1c:fe:36:29:24:47:e6:
         69:87:55:94:97:a9:07:a0:64:fc:f4:57:65:58:c6:55:2c:4a:
         45:02:1f:49:cf:87:2e:55:05:5a:ab:f3:c1:d0:72:ac:e2:95:
         08:a5:e3:f8:08:4a:89:4c:3b:14:7d:c1:ad:2d:d0:8f:38:e2:
         06:f9:b4:a3:94:64:51:68:33:8f:46:0a:8b:e6:12:5d:b3:7f:
         36:59:a3:e4:c9:17:b0:40:d3:2c:77:fb:d3:68:50:6f:76:87:
         20:77:0b:26:df:5c:fa:69:28:7e:9c:6b:84:d6:ca:63:00:bd:
         c4:1e:56:1a:12:d4:d1:2f:ac:f0:69:43:33:6a:d0:8c:57:7a:
         9e:5f:e8:4a:f9:6d:c2:8b:bc:92:b8:a8:2c:d0:30:07:cf:08:
         5f:75:db:22:87:73:58:c9:2c:f9:7a:a5:98:59:9e:26:52:d5:
         98:65:46:6d:08:d3:c2:bf:38:f4:27:2d:3c:10:0d:fc:5a:47:
         85:4c:32:69:bf:fb:71:20:be:22:19:6f:b6:ad:d0:67:9f:9e:
         27:d3:2e:5a:98:bf:c7:c7:58:09:6a:e4:ca:ac:a1:5a:72:b7:
         a7:39:e7:51:57:ad:ab:92:38:1d:86:58:d8:c9:d0:b7:b6:83:
         f7:68:5f:35:29:cb:e2:67:a5:c5:4c:85:33:4b:f3:44:e3:47:
         bb:00:66:1c:07:e0:5d:44:40:de:64:02:e6:d3:12:7c:59:8f:
         97:12:60:d7:9c:0b:d7:ae:be:66:e8:27:ad:c0:47:96:6f:76:
         57:0a:be:62:92:cd:1f:07:ca:2e:06:02:f5:2e:3e:4f:43:a6:
         bd:12:54:a6:7a:74:77:5e:32:42:09:35:6e:66:a0:c5:0e:d5:
         fc:6a:3b:fc:c5:75:2a:2f:99:e8:f4:34:b8:27:78:bf:f4:38:
         57:19:9e:26:c8:ac:48:af:0e:cb:99:26:94:81:fd:69:24:51:
         27:15:bd:c6:77:85:20:a5:3f:83:3f:94:25:1d:2f:62:92:e5:
         7d:0f:f3:3f:0d:8c:38:5f:33:87:69:d1:bf:71:d7:08:19:e2:
         a3:fd:4a:89:03:44:3c:9d:cb:73:a6:58:05:a3:8d:41:d3:ae:
         81:31:2f:d7:e9:a9:fc:a7:5f:d4:61:81:ec:9f:91:af:db:fa:
         bb:08:4d:5a:08:fc:ac:4d:4d:3a:32:35:f8:43:e1:24:8f:66:
         f2:82:d5:a9:66:c8:c7:05:38:e5:ef:b8:5c:77:51:d4:70:74:
         e8:78:0b:16:1c:52:aa:c5:3b:d4:73:a4:ca:16:50:36:2b:fe:
         3c:90:b8:d9:f6:80:62:f3
-----BEGIN CERTIFICATE-----
MIIGrTCCBJWgAwIBAgICGWEwDQYJKoZIhvcNAQEEBQAwgawxCzAJBgNVBAYTAlVT
MQswCQYDVQQIEwJPSDERMA8GA1UEBxMIQ29sdW1idXMxEjAQBgNVBAoTCVZpa2lu
Z1ZQTjEdMBsGA1UECxMUTXlPcmdhbml6YXRpb25hbFVuaXQxFTATBgNVBAMTDFZp
a2luZ1ZQTiBDQTEQMA4GA1UEKRMHRWFzeVJTQTEhMB8GCSqGSIb3DQEJARYSbWVA
bXlob3N0Lm15ZG9tYWluMB4XDTE1MTAxOTA2MDIxOVoXDTI1MTAxNjA2MDIxOVow
HzEdMBsGA1UEAxMUQ2xpZW50MTg2OENlcnQ2MjUyNzgwggIiMA0GCSqGSIb3DQEB
AQUAA4ICDwAwggIKAoICAQCcMvWnCM1iy/bVuhHGA3sfdGkreAK41i2Iodbr4JI0
426mYcbwXyfq+cy6rR31mj1VNR8DLXtOY4VCQIDuS6X+QxpJ58rrBPLojE7KD/sO
enOjtywqeBXx5j2P5/W2xyg10TjC8FEuQ49BzstCGvgFXJ9uhgRTbXtDdri01A8C
rGy5ta0nqUd1N+MPIolZ9fAyoyypkzaE/8/JXinMMM9wF+4LnyAZk2ndx+8C2hpM
pUv1ANOjFbLmOsKfJle8ScazgSCuyXKBJJAin7GRrzPHGnrLK+9jdkLiwGGXLVO6
9Y0PL20AhM92z6otKuzKUff00fhg+51UYFE6yHl11f7mYS+tJJk6p358f5Ks47PP
hvPJJszau0yTNwv0kKNI7WjTKeU19KsMBUV12GIUrnqO/2Fo9vafAJanZoO4+PqI
GnoRR1/daDzWxpWjYqQxahqat6mB91lcehSnqHnAsqWkZpUPDawK+kG/QJyQyMql
Rskh6fHIuRano9mlNer2XhHcFuJyyw5j7DJMsoETDepnkQXpPAH3Sh6stXxE+9LC
2qeNvxNTM9SF03QsV4lXsOGncT9ZxfsuRPLKaCRmrhI3/9QVCjvG0AG+dvNwZzIV
IXmsnZvEiq/w3aRY11akDwHYzZW0VRubZJs/qQk24ilzR4c0Y+pi9aoMlcYCOQK4
eQIDAQABo4IBYzCCAV8wCQYDVR0TBAIwADAtBglghkgBhvhCAQ0EIBYeRWFzeS1S
U0EgR2VuZXJhdGVkIENlcnRpZmljYXRlMB0GA1UdDgQWBBRCLtD/btyHXoG/QQV8
v7i1nyjO6jCB4QYDVR0jBIHZMIHWgBQSzWAE0qCAnnDtxpm4eyzGUv0ZoaGBsqSB
rzCBrDELMAkGA1UEBhMCVVMxCzAJBgNVBAgTAk9IMREwDwYDVQQHEwhDb2x1bWJ1
czESMBAGA1UEChMJVmlraW5nVlBOMR0wGwYDVQQLExRNeU9yZ2FuaXphdGlvbmFs
VW5pdDEVMBMGA1UEAxMMVmlraW5nVlBOIENBMRAwDgYDVQQpEwdFYXN5UlNBMSEw
HwYJKoZIhvcNAQkBFhJtZUBteWhvc3QubXlkb21haW6CCQDPNYXugL8qPjATBgNV
HSUEDDAKBggrBgEFBQcDAjALBgNVHQ8EBAMCB4AwDQYJKoZIhvcNAQEEBQADggIB
AGlfGEhfNHR3K71kHP42KSRH5mmHVZSXqQegZPz0V2VYxlUsSkUCH0nPhy5VBVqr
88HQcqzilQil4/gISolMOxR9wa0t0I844gb5tKOUZFFoM49GCovmEl2zfzZZo+TJ
F7BA0yx3+9NoUG92hyB3CybfXPppKH6ca4TWymMAvcQeVhoS1NEvrPBpQzNq0IxX
ep5f6Er5bcKLvJK4qCzQMAfPCF912yKHc1jJLPl6pZhZniZS1ZhlRm0I08K/OPQn
LTwQDfxaR4VMMmm/+3EgviIZb7at0GefnifTLlqYv8fHWAlq5MqsoVpyt6c551FX
rauSOB2GWNjJ0Le2g/doXzUpy+JnpcVMhTNL80TjR7sAZhwH4F1EQN5kAubTEnxZ
j5cSYNecC9euvmboJ63AR5ZvdlcKvmKSzR8Hyi4GAvUuPk9Dpr0SVKZ6dHdeMkIJ
NW5moMUO1fxqO/zFdSovmej0NLgneL/0OFcZnibIrEivDsuZJpSB/WkkUScVvcZ3
hSClP4M/lCUdL2KS5X0P8z8NjDhfM4dp0b9x1wgZ4qP9SokDRDydy3OmWAWjjUHT
roExL9fpqfynX9Rhgeyfka/b+rsITVoI/KxNTToyNfhD4SSPZvKC1almyMcFOOXv
uFx3UdRwdOh4CxYcUqrFO9RzpMoWUDYr/jyQuNn2gGLz
-----END CERTIFICATE-----
