Certificate:
    Data:
        Version: 3 (0x2)
        Serial Number: 6729 (0x1a49)
    Signature Algorithm: md5WithRSAEncryption
        Issuer: C=US, ST=OH, L=Columbus, O=VikingVPN, OU=MyOrganizationalUnit, CN=VikingVPN CA/name=EasyRSA/emailAddress=me@myhost.mydomain
        Validity
            Not Before: Nov 22 05:17:21 2015 GMT
            Not After : Nov 19 05:17:21 2025 GMT
        Subject: CN=Client1364Certf31800
        Subject Public Key Info:
            Public Key Algorithm: rsaEncryption
                Public-Key: (4096 bit)
                Modulus:
                    00:e6:36:89:58:98:5e:41:a2:27:98:1b:b7:1f:21:
                    4a:2e:b7:e4:86:4a:e1:b7:a5:77:45:36:87:3c:a6:
                    1f:a6:8b:ff:81:ef:c8:64:a8:40:65:9b:fd:43:a6:
                    b7:ed:53:38:b2:92:77:c9:cb:ff:e6:78:7e:9d:3e:
                    8b:af:35:7e:fc:82:fe:af:72:87:d5:2b:7b:df:8f:
                    08:17:f8:28:e1:a7:74:7c:82:49:7e:a0:9a:3f:40:
                    1c:1a:a8:20:8a:be:a9:e8:21:0d:4c:13:da:6b:ea:
                    9c:63:d1:75:29:97:2a:89:99:db:ae:cf:4a:85:df:
                    8a:45:25:bd:25:ba:14:02:22:79:b9:cd:cc:8f:43:
                    9b:48:ef:f6:94:dd:a2:b5:87:c7:f6:5f:23:bb:d5:
                    68:55:e4:3f:05:d1:d1:71:52:ec:13:45:eb:ee:70:
                    18:55:10:67:b8:82:1c:a9:78:4b:25:ae:7e:b3:1b:
                    b8:2d:c6:d3:8f:c2:4f:37:57:41:e2:f8:c5:1a:29:
                    9c:43:1f:67:70:51:28:dc:60:3f:20:35:29:b5:e5:
                    0c:db:cf:ac:4d:6f:51:1b:e6:59:be:53:50:38:97:
                    19:30:7b:30:91:97:48:3a:f3:ea:c0:6f:35:c1:f3:
                    34:c9:9c:1b:77:bd:49:21:e8:f6:2c:8c:de:0a:a6:
                    5b:21:81:d7:75:60:02:12:a9:37:87:e2:0c:ce:8a:
                    6b:30:cb:bb:32:0b:ee:9d:eb:5d:55:cd:56:e9:2a:
                    e2:89:b1:91:28:5a:4b:fa:c4:74:c6:b3:6e:80:0d:
                    5a:7f:76:06:dd:b3:2b:24:53:b5:5e:da:7c:c9:10:
                    da:b1:0e:69:32:16:57:17:ed:81:ef:b4:41:4a:02:
                    b3:11:7a:e5:89:69:45:e1:81:37:73:c1:76:70:2f:
                    d6:d7:e4:31:bc:88:46:10:2f:b8:4a:49:11:3f:53:
                    35:42:ee:29:b7:e0:89:bd:78:e9:ff:75:2f:a7:48:
                    52:a9:ba:5d:d2:cf:bf:56:8b:dc:e0:1b:55:01:21:
                    aa:c9:8e:f9:b5:e8:e5:6a:a5:53:09:1e:b3:3f:8d:
                    89:ac:c3:63:d8:71:fc:a3:b5:a9:1c:da:dd:6c:a2:
                    97:ca:93:51:32:ac:8c:c5:2a:d4:f6:77:18:27:44:
                    09:7a:84:8b:b4:f2:7a:1f:58:a3:40:a7:c1:87:8a:
                    de:86:bb:9d:15:3d:44:e7:21:6a:8c:17:57:88:67:
                    c0:af:59:60:82:bf:82:a1:36:a6:5a:91:ba:d0:4d:
                    db:bc:6a:46:d2:13:d9:f0:e9:50:59:e9:8f:e4:43:
                    19:83:b5:dd:c9:7e:7b:b2:2c:5d:5b:83:4f:1b:21:
                    05:86:8f
                Exponent: 65537 (0x10001)
        X509v3 extensions:
            X509v3 Basic Constraints: 
                CA:FALSE
            Netscape Comment: 
                Easy-RSA Generated Certificate
            X509v3 Subject Key Identifier: 
                84:80:77:F5:09:24:C1:80:77:8E:1E:D8:F8:96:2F:72:8C:BA:91:03
            X509v3 Authority Key Identifier: 
                keyid:12:CD:60:04:D2:A0:80:9E:70:ED:C6:99:B8:7B:2C:C6:52:FD:19:A1
                DirName:/C=US/ST=OH/L=Columbus/O=VikingVPN/OU=MyOrganizationalUnit/CN=VikingVPN CA/name=EasyRSA/emailAddress=me@myhost.mydomain
                serial:CF:35:85:EE:80:BF:2A:3E

            X509v3 Extended Key Usage: 
                TLS Web Client Authentication
            X509v3 Key Usage: 
                Digital Signature
    Signature Algorithm: md5WithRSAEncryption
         2d:c3:b4:3f:72:a7:a3:93:7e:e6:b0:d9:4e:16:72:5a:18:0c:
         7a:70:af:e3:34:e5:c7:18:23:63:50:d3:66:ba:8a:67:f5:5d:
         75:54:c5:11:a3:e8:9b:de:95:26:b6:27:98:57:16:47:df:3d:
         9d:22:63:00:2f:e5:a8:25:f0:43:bb:28:5d:b4:07:7a:62:db:
         f8:2b:86:3e:b4:bf:c4:9a:8c:16:07:07:bf:16:df:e4:57:ab:
         20:6a:54:77:b2:3e:82:b3:af:1e:ca:03:3a:ee:06:78:66:20:
         34:f6:bd:c5:7f:a2:1c:79:66:b2:25:9f:f3:8b:b7:5a:f4:7a:
         37:f8:0b:a4:af:f5:d3:64:dd:37:fa:a7:45:d3:5b:a6:00:17:
         9e:dd:08:d8:67:de:58:31:91:e4:bc:8e:61:d7:cc:cb:78:8c:
         17:f9:c5:66:90:b4:a4:70:c0:31:73:68:b8:81:92:31:4a:36:
         50:a3:28:c4:56:65:5f:dc:27:30:b8:35:e5:9b:c4:1a:70:be:
         38:7c:48:64:47:b6:cf:62:24:e4:00:38:3a:41:c8:d3:f9:d4:
         19:1b:0c:39:7a:7b:a5:98:cb:56:a6:64:17:4b:cd:8b:23:34:
         56:25:bb:4b:66:4d:72:16:a4:b2:92:4b:b1:5c:ea:e4:ae:16:
         37:9d:0d:e4:9f:7b:e5:77:78:a2:d1:d8:8a:91:3e:ed:35:db:
         b7:14:75:d4:14:b1:e4:d2:f2:91:1d:66:3d:1a:ea:be:f9:cb:
         5d:9b:e4:c3:60:a6:87:e3:03:57:69:a3:15:50:27:1b:4e:50:
         7a:11:ba:22:ae:26:95:a8:00:6d:83:3f:86:1a:d9:b8:cc:3c:
         75:13:35:08:23:d4:23:be:4c:15:ac:2e:63:b9:b1:87:6e:6f:
         4a:9e:c1:c8:d8:6b:a2:8b:ce:90:7f:cc:06:d9:35:fb:b7:0e:
         60:8b:8d:95:4b:b4:28:e0:93:d3:07:f9:30:50:38:10:82:e7:
         f9:6f:9c:8f:70:08:fc:42:63:2a:03:89:5a:0e:d7:aa:94:6a:
         a8:f5:ae:a6:31:ea:90:1d:6c:fb:69:d1:24:ae:32:0c:07:46:
         c0:09:8b:2d:e2:bb:bb:ac:c7:93:ba:25:c8:30:f3:8f:71:af:
         72:e9:00:2f:b0:7d:40:67:eb:63:c0:7b:1e:b2:f3:ff:77:31:
         4d:6c:4c:e3:96:ff:ed:3a:1d:66:87:e0:5b:39:e4:27:7c:a7:
         54:f9:0f:c1:9b:02:74:4e:dd:f8:5b:c8:b7:cb:e8:64:1a:44:
         cf:23:7f:c8:a2:1c:a1:b1:f1:e2:53:44:7b:16:70:24:31:ee:
         87:7d:63:b4:25:a7:52:9a
-----BEGIN CERTIFICATE-----
MIIGrTCCBJWgAwIBAgICGkkwDQYJKoZIhvcNAQEEBQAwgawxCzAJBgNVBAYTAlVT
MQswCQYDVQQIEwJPSDERMA8GA1UEBxMIQ29sdW1idXMxEjAQBgNVBAoTCVZpa2lu
Z1ZQTjEdMBsGA1UECxMUTXlPcmdhbml6YXRpb25hbFVuaXQxFTATBgNVBAMTDFZp
a2luZ1ZQTiBDQTEQMA4GA1UEKRMHRWFzeVJTQTEhMB8GCSqGSIb3DQEJARYSbWVA
bXlob3N0Lm15ZG9tYWluMB4XDTE1MTEyMjA1MTcyMVoXDTI1MTExOTA1MTcyMVow
HzEdMBsGA1UEAxMUQ2xpZW50MTM2NENlcnRmMzE4MDAwggIiMA0GCSqGSIb3DQEB
AQUAA4ICDwAwggIKAoICAQDmNolYmF5BoieYG7cfIUout+SGSuG3pXdFNoc8ph+m
i/+B78hkqEBlm/1DprftUziyknfJy//meH6dPouvNX78gv6vcofVK3vfjwgX+Cjh
p3R8gkl+oJo/QBwaqCCKvqnoIQ1ME9pr6pxj0XUplyqJmduuz0qF34pFJb0luhQC
Inm5zcyPQ5tI7/aU3aK1h8f2XyO71WhV5D8F0dFxUuwTRevucBhVEGe4ghypeEsl
rn6zG7gtxtOPwk83V0Hi+MUaKZxDH2dwUSjcYD8gNSm15Qzbz6xNb1Eb5lm+U1A4
lxkwezCRl0g68+rAbzXB8zTJnBt3vUkh6PYsjN4Kplshgdd1YAISqTeH4gzOimsw
y7syC+6d611VzVbpKuKJsZEoWkv6xHTGs26ADVp/dgbdsyskU7Ve2nzJENqxDmky
FlcX7YHvtEFKArMReuWJaUXhgTdzwXZwL9bX5DG8iEYQL7hKSRE/UzVC7im34Im9
eOn/dS+nSFKpul3Sz79Wi9zgG1UBIarJjvm16OVqpVMJHrM/jYmsw2PYcfyjtakc
2t1sopfKk1EyrIzFKtT2dxgnRAl6hIu08nofWKNAp8GHit6Gu50VPUTnIWqMF1eI
Z8CvWWCCv4KhNqZakbrQTdu8akbSE9nw6VBZ6Y/kQxmDtd3JfnuyLF1bg08bIQWG
jwIDAQABo4IBYzCCAV8wCQYDVR0TBAIwADAtBglghkgBhvhCAQ0EIBYeRWFzeS1S
U0EgR2VuZXJhdGVkIENlcnRpZmljYXRlMB0GA1UdDgQWBBSEgHf1CSTBgHeOHtj4
li9yjLqRAzCB4QYDVR0jBIHZMIHWgBQSzWAE0qCAnnDtxpm4eyzGUv0ZoaGBsqSB
rzCBrDELMAkGA1UEBhMCVVMxCzAJBgNVBAgTAk9IMREwDwYDVQQHEwhDb2x1bWJ1
czESMBAGA1UEChMJVmlraW5nVlBOMR0wGwYDVQQLExRNeU9yZ2FuaXphdGlvbmFs
VW5pdDEVMBMGA1UEAxMMVmlraW5nVlBOIENBMRAwDgYDVQQpEwdFYXN5UlNBMSEw
HwYJKoZIhvcNAQkBFhJtZUBteWhvc3QubXlkb21haW6CCQDPNYXugL8qPjATBgNV
HSUEDDAKBggrBgEFBQcDAjALBgNVHQ8EBAMCB4AwDQYJKoZIhvcNAQEEBQADggIB
AC3DtD9yp6OTfuaw2U4WcloYDHpwr+M05ccYI2NQ02a6imf1XXVUxRGj6JvelSa2
J5hXFkffPZ0iYwAv5agl8EO7KF20B3pi2/grhj60v8SajBYHB78W3+RXqyBqVHey
PoKzrx7KAzruBnhmIDT2vcV/ohx5ZrIln/OLt1r0ejf4C6Sv9dNk3Tf6p0XTW6YA
F57dCNhn3lgxkeS8jmHXzMt4jBf5xWaQtKRwwDFzaLiBkjFKNlCjKMRWZV/cJzC4
NeWbxBpwvjh8SGRHts9iJOQAODpByNP51BkbDDl6e6WYy1amZBdLzYsjNFYlu0tm
TXIWpLKSS7Fc6uSuFjedDeSfe+V3eKLR2IqRPu0127cUddQUseTS8pEdZj0a6r75
y12b5MNgpofjA1dpoxVQJxtOUHoRuiKuJpWoAG2DP4Ya2bjMPHUTNQgj1CO+TBWs
LmO5sYdub0qewcjYa6KLzpB/zAbZNfu3DmCLjZVLtCjgk9MH+TBQOBCC5/lvnI9w
CPxCYyoDiVoO16qUaqj1rqYx6pAdbPtp0SSuMgwHRsAJiy3iu7usx5O6Jcgw849x
r3LpAC+wfUBn62PAex6y8/93MU1sTOOW/+06HWaH4Fs55Cd8p1T5D8GbAnRO3fhb
yLfL6GQaRM8jf8iiHKGx8eJTRHsWcCQx7od9Y7Qlp1Ka
-----END CERTIFICATE-----
