Certificate:
    Data:
        Version: 3 (0x2)
        Serial Number: 6743 (0x1a57)
    Signature Algorithm: md5WithRSAEncryption
        Issuer: C=US, ST=OH, L=Columbus, O=VikingVPN, OU=MyOrganizationalUnit, CN=VikingVPN CA/name=EasyRSA/emailAddress=me@myhost.mydomain
        Validity
            Not Before: Nov 25 07:14:27 2015 GMT
            Not After : Nov 22 07:14:27 2025 GMT
        Subject: CN=Client1675Cert011464
        Subject Public Key Info:
            Public Key Algorithm: rsaEncryption
                Public-Key: (4096 bit)
                Modulus:
                    00:d4:3f:ad:36:77:2d:a4:6f:97:84:37:1b:f8:63:
                    36:6f:10:5b:5e:5b:cd:11:66:6e:23:4b:e2:5f:62:
                    8e:49:dd:c3:c7:ed:f0:3a:59:3a:1c:ad:a9:5d:4e:
                    07:d7:19:68:0b:27:44:e5:bf:35:16:40:ad:ba:ea:
                    b5:e1:19:55:ba:8a:61:b7:df:98:c4:a5:9e:33:0a:
                    51:d0:e4:28:5b:12:f7:0d:1f:30:5d:47:8b:84:87:
                    86:b3:0a:a1:7b:e7:90:6e:d7:e4:90:7c:f8:c0:5a:
                    0a:36:e4:d9:6f:ae:39:89:d7:43:ee:a9:dc:f6:42:
                    de:d0:33:69:01:81:ea:c3:27:20:a1:61:9a:6b:1a:
                    e0:6e:81:3a:c1:da:0e:77:c0:58:82:37:fe:e1:98:
                    a7:58:2e:11:eb:49:39:6d:6f:18:23:71:04:6d:4c:
                    25:22:ca:9b:26:ab:61:94:5c:a6:54:e5:b1:7e:3d:
                    8c:24:a2:33:b0:e6:9a:56:78:bb:17:d7:f7:a8:98:
                    87:34:ae:68:6b:e9:cf:75:f8:ee:f2:cf:50:07:87:
                    59:45:34:6e:c2:70:db:0f:cd:b3:bf:d0:56:a7:3f:
                    f2:09:72:0e:c7:5c:66:56:12:15:4d:a9:3b:e9:cd:
                    8c:9d:3a:60:c3:ee:56:c7:43:dc:d2:01:d9:a7:89:
                    33:2f:04:2b:6f:bb:7a:61:03:cc:71:3f:cf:0a:2a:
                    1b:6c:59:ec:e7:36:76:4f:39:b5:48:fa:cf:c9:e6:
                    0f:c2:49:f7:47:48:fd:52:f0:d4:27:6a:d0:0d:a0:
                    1b:a9:ad:9e:3c:5f:8f:10:40:42:0a:2b:92:4c:7c:
                    b6:7c:7b:0f:57:db:88:18:89:02:85:f0:e6:62:a1:
                    a4:3c:dd:43:5a:ae:ed:9c:41:00:3a:20:b2:fe:c0:
                    da:ac:7e:d8:3c:15:80:f8:f5:8f:aa:96:83:c1:57:
                    a1:81:1e:e7:bb:e0:30:82:53:6a:0d:dd:8e:66:20:
                    31:f9:72:46:e5:77:35:7e:58:73:91:55:ff:f4:d0:
                    59:66:15:df:01:81:8b:f4:00:47:f9:26:33:b5:37:
                    99:56:f7:84:19:2b:29:a0:d4:70:58:37:43:01:d0:
                    e7:06:ec:0c:d0:cc:f5:3b:72:1c:7e:75:64:1a:85:
                    67:9d:e9:ab:e2:f7:82:ed:e0:f7:2d:51:36:41:24:
                    1a:2f:8e:fe:7f:55:11:fd:e7:2c:96:42:36:cc:2f:
                    a8:51:a8:b5:1c:50:a8:41:c4:17:41:e1:98:6c:92:
                    62:eb:1e:be:85:ef:09:4f:44:67:09:e2:87:b8:1e:
                    ea:c1:81:51:a9:e1:34:60:e0:64:e4:48:fa:1e:89:
                    8c:90:83
                Exponent: 65537 (0x10001)
        X509v3 extensions:
            X509v3 Basic Constraints: 
                CA:FALSE
            Netscape Comment: 
                Easy-RSA Generated Certificate
            X509v3 Subject Key Identifier: 
                58:BF:A8:AF:1C:68:CA:FD:93:45:E2:71:2A:1B:B5:17:5F:8B:F2:11
            X509v3 Authority Key Identifier: 
                keyid:12:CD:60:04:D2:A0:80:9E:70:ED:C6:99:B8:7B:2C:C6:52:FD:19:A1
                DirName:/C=US/ST=OH/L=Columbus/O=VikingVPN/OU=MyOrganizationalUnit/CN=VikingVPN CA/name=EasyRSA/emailAddress=me@myhost.mydomain
                serial:CF:35:85:EE:80:BF:2A:3E

            X509v3 Extended Key Usage: 
                TLS Web Client Authentication
            X509v3 Key Usage: 
                Digital Signature
    Signature Algorithm: md5WithRSAEncryption
         d1:96:11:fb:4f:b4:96:11:0b:c1:b9:a8:ee:4c:b3:db:87:7a:
         5d:be:f7:ca:3f:45:f5:a0:88:09:1f:f5:a4:3c:e3:b2:ac:67:
         e4:80:60:bf:cf:2f:b7:ec:28:c6:20:8b:22:de:87:4f:a6:a7:
         7f:3f:ed:28:36:6b:fe:b2:9a:6a:d9:e1:e4:57:cc:0e:34:59:
         a8:9f:d3:0b:e9:68:ff:07:f3:d5:61:3a:96:71:6d:f4:1d:02:
         ca:c1:e0:2f:6e:7f:88:e1:e7:03:5c:5b:01:cf:6f:84:0b:bc:
         ef:59:e3:37:ef:1d:73:1f:7f:8f:8b:75:7f:87:e6:00:8f:9e:
         be:c0:06:8e:0c:2b:6c:47:28:be:87:d0:2c:60:d6:f1:5a:4a:
         62:99:90:17:72:71:ef:1a:c5:52:47:d6:37:a6:23:4f:b3:57:
         36:eb:03:b5:b7:c5:9d:0a:5f:70:f6:9f:a1:81:e1:c6:6b:11:
         8b:03:92:1e:f8:bf:48:9f:07:b3:b2:4d:07:9b:0c:b8:f5:b1:
         40:53:27:08:52:55:0f:f1:c5:e1:c2:df:b4:1d:36:0a:31:8d:
         8e:86:18:d6:e7:06:5d:05:b2:1f:86:3a:dd:a1:50:72:d4:a6:
         18:9a:08:60:f9:e8:25:3e:b6:1b:99:b9:32:9c:08:28:a5:ae:
         53:c6:10:42:f7:dd:f5:e7:88:b1:cb:2d:1d:6f:cf:e9:d5:43:
         e0:3b:d9:70:76:72:02:ca:f2:e2:b5:ec:75:6f:12:d9:6e:56:
         1a:ca:71:2b:34:e4:d4:a5:d2:70:a0:a5:59:a2:fe:94:fa:3c:
         d1:d5:fc:12:c5:44:c6:6b:db:ce:15:83:b8:9c:be:11:84:a0:
         e5:9e:6d:0f:a4:3c:2a:fd:ee:6e:bb:94:02:40:7d:3a:f4:c5:
         7c:b5:52:5b:08:0b:0e:9d:79:ab:f9:51:d4:ab:20:6b:03:eb:
         20:dd:72:49:53:8e:0c:ee:5f:e1:51:14:9b:0d:af:b2:65:88:
         55:70:fa:aa:8b:66:ab:f5:db:38:0b:6b:97:15:a8:96:04:33:
         5f:dd:35:f2:b0:f0:a5:97:a8:42:d3:3d:b9:5a:67:da:ed:40:
         32:6c:80:7d:a2:f0:78:2d:e1:ad:fc:1f:f3:01:b9:aa:44:3c:
         0b:66:47:0b:dc:d5:55:bc:6a:ac:85:30:60:70:b9:85:7b:f2:
         38:cc:78:11:3b:9b:c7:3e:05:c9:93:ea:5c:e5:49:10:61:20:
         73:02:35:b1:d4:02:2d:74:29:8c:49:9c:54:98:22:f6:34:90:
         ef:11:e6:05:b1:a4:a6:ed:f8:0a:2d:57:69:92:b5:2c:25:e9:
         32:37:9f:22:f2:ac:4e:27
-----BEGIN CERTIFICATE-----
MIIGrTCCBJWgAwIBAgICGlcwDQYJKoZIhvcNAQEEBQAwgawxCzAJBgNVBAYTAlVT
MQswCQYDVQQIEwJPSDERMA8GA1UEBxMIQ29sdW1idXMxEjAQBgNVBAoTCVZpa2lu
Z1ZQTjEdMBsGA1UECxMUTXlPcmdhbml6YXRpb25hbFVuaXQxFTATBgNVBAMTDFZp
a2luZ1ZQTiBDQTEQMA4GA1UEKRMHRWFzeVJTQTEhMB8GCSqGSIb3DQEJARYSbWVA
bXlob3N0Lm15ZG9tYWluMB4XDTE1MTEyNTA3MTQyN1oXDTI1MTEyMjA3MTQyN1ow
HzEdMBsGA1UEAxMUQ2xpZW50MTY3NUNlcnQwMTE0NjQwggIiMA0GCSqGSIb3DQEB
AQUAA4ICDwAwggIKAoICAQDUP602dy2kb5eENxv4YzZvEFteW80RZm4jS+JfYo5J
3cPH7fA6WTocraldTgfXGWgLJ0TlvzUWQK266rXhGVW6imG335jEpZ4zClHQ5Chb
EvcNHzBdR4uEh4azCqF755Bu1+SQfPjAWgo25NlvrjmJ10Puqdz2Qt7QM2kBgerD
JyChYZprGuBugTrB2g53wFiCN/7hmKdYLhHrSTltbxgjcQRtTCUiypsmq2GUXKZU
5bF+PYwkojOw5ppWeLsX1/eomIc0rmhr6c91+O7yz1AHh1lFNG7CcNsPzbO/0Fan
P/IJcg7HXGZWEhVNqTvpzYydOmDD7lbHQ9zSAdmniTMvBCtvu3phA8xxP88KKhts
WeznNnZPObVI+s/J5g/CSfdHSP1S8NQnatANoBuprZ48X48QQEIKK5JMfLZ8ew9X
24gYiQKF8OZioaQ83UNaru2cQQA6ILL+wNqsftg8FYD49Y+qloPBV6GBHue74DCC
U2oN3Y5mIDH5ckbldzV+WHORVf/00FlmFd8BgYv0AEf5JjO1N5lW94QZKymg1HBY
N0MB0OcG7AzQzPU7chx+dWQahWed6avi94Lt4PctUTZBJBovjv5/VRH95yyWQjbM
L6hRqLUcUKhBxBdB4ZhskmLrHr6F7wlPRGcJ4oe4HurBgVGp4TRg4GTkSPoeiYyQ
gwIDAQABo4IBYzCCAV8wCQYDVR0TBAIwADAtBglghkgBhvhCAQ0EIBYeRWFzeS1S
U0EgR2VuZXJhdGVkIENlcnRpZmljYXRlMB0GA1UdDgQWBBRYv6ivHGjK/ZNF4nEq
G7UXX4vyETCB4QYDVR0jBIHZMIHWgBQSzWAE0qCAnnDtxpm4eyzGUv0ZoaGBsqSB
rzCBrDELMAkGA1UEBhMCVVMxCzAJBgNVBAgTAk9IMREwDwYDVQQHEwhDb2x1bWJ1
czESMBAGA1UEChMJVmlraW5nVlBOMR0wGwYDVQQLExRNeU9yZ2FuaXphdGlvbmFs
VW5pdDEVMBMGA1UEAxMMVmlraW5nVlBOIENBMRAwDgYDVQQpEwdFYXN5UlNBMSEw
HwYJKoZIhvcNAQkBFhJtZUBteWhvc3QubXlkb21haW6CCQDPNYXugL8qPjATBgNV
HSUEDDAKBggrBgEFBQcDAjALBgNVHQ8EBAMCB4AwDQYJKoZIhvcNAQEEBQADggIB
ANGWEftPtJYRC8G5qO5Ms9uHel2+98o/RfWgiAkf9aQ847KsZ+SAYL/PL7fsKMYg
iyLeh0+mp38/7Sg2a/6ymmrZ4eRXzA40Waif0wvpaP8H89VhOpZxbfQdAsrB4C9u
f4jh5wNcWwHPb4QLvO9Z4zfvHXMff4+LdX+H5gCPnr7ABo4MK2xHKL6H0Cxg1vFa
SmKZkBdyce8axVJH1jemI0+zVzbrA7W3xZ0KX3D2n6GB4cZrEYsDkh74v0ifB7Oy
TQebDLj1sUBTJwhSVQ/xxeHC37QdNgoxjY6GGNbnBl0Fsh+GOt2hUHLUphiaCGD5
6CU+thuZuTKcCCilrlPGEEL33fXniLHLLR1vz+nVQ+A72XB2cgLK8uK17HVvEtlu
VhrKcSs05NSl0nCgpVmi/pT6PNHV/BLFRMZr284Vg7icvhGEoOWebQ+kPCr97m67
lAJAfTr0xXy1UlsICw6deav5UdSrIGsD6yDdcklTjgzuX+FRFJsNr7JliFVw+qqL
Zqv12zgLa5cVqJYEM1/dNfKw8KWXqELTPblaZ9rtQDJsgH2i8Hgt4a38H/MBuapE
PAtmRwvc1VW8aqyFMGBwuYV78jjMeBE7m8c+BcmT6lzlSRBhIHMCNbHUAi10KYxJ
nFSYIvY0kO8R5gWxpKbt+AotV2mStSwl6TI3nyLyrE4n
-----END CERTIFICATE-----
