Certificate:
    Data:
        Version: 3 (0x2)
        Serial Number: 8849 (0x2291)
    Signature Algorithm: sha256WithRSAEncryption
        Issuer: C=US, ST=OH, L=Columbus, O=VikingVPN, OU=MyOrganizationalUnit, CN=VikingVPN CA/name=EasyRSA/emailAddress=me@myhost.mydomain
        Validity
            Not Before: Aug 19 16:22:43 2016 GMT
            Not After : Aug 17 16:22:43 2026 GMT
        Subject: CN=Client2431Certc03375
        Subject Public Key Info:
            Public Key Algorithm: rsaEncryption
                Public-Key: (4096 bit)
                Modulus:
                    00:9e:9d:18:aa:e7:09:12:56:ed:3f:4d:8f:6a:7b:
                    c4:84:b3:e5:b6:87:33:92:40:5a:78:66:ea:d8:eb:
                    f4:84:b1:89:ce:60:31:cf:8e:15:2a:fd:fb:df:12:
                    c5:58:8d:66:96:01:69:18:b7:9e:90:56:94:23:de:
                    ba:f1:03:0c:e9:80:1f:ec:0f:d2:46:19:75:5f:e9:
                    af:fd:7e:46:d0:e6:52:ba:53:c3:f6:f9:65:7e:3f:
                    b7:63:1a:41:41:7f:f3:23:1b:fd:53:99:45:46:68:
                    27:98:bf:ac:30:6e:bb:f4:fa:c7:0e:cc:d0:d6:3b:
                    9a:a1:d2:8e:4b:13:83:ef:2d:b8:65:39:8c:98:9a:
                    de:43:30:d6:ed:c1:81:35:c7:d8:4c:af:17:8f:a0:
                    0a:2c:07:86:33:0c:cd:f7:1d:9f:91:a1:31:64:79:
                    d1:93:59:ae:c3:81:d9:0f:73:a8:4d:e7:70:bc:81:
                    c5:20:d8:c7:5b:17:df:fd:12:86:cb:50:7a:9e:60:
                    02:8a:12:91:b0:7f:c5:c6:c4:17:99:ac:3c:47:57:
                    52:f0:ec:36:89:a5:83:b1:ba:ea:ee:2b:9d:cc:f0:
                    41:3b:bd:4b:05:f8:e3:27:78:25:0d:0a:71:39:54:
                    ec:8f:3c:bc:09:98:3e:ed:7c:be:6b:72:c9:a1:7d:
                    c8:7a:fd:d0:8c:4a:56:7e:35:e0:2a:1e:6c:59:73:
                    46:ad:b9:0b:68:86:49:4a:d9:12:98:bf:1f:5a:59:
                    8a:99:fe:af:9a:36:9c:a3:cd:d0:06:d9:fb:84:be:
                    bd:0d:89:2f:7c:b9:db:d4:82:a8:3f:3c:a2:47:32:
                    74:28:a7:a9:0a:b0:19:7b:de:dc:c5:1d:b8:1a:90:
                    39:2c:26:79:a2:d9:a7:8c:7f:9c:93:6f:f6:fb:fd:
                    c9:cd:7d:b3:83:e3:00:b8:0f:3a:3e:ad:33:ba:f9:
                    11:f2:96:4e:47:77:1f:f2:c6:37:4d:e9:fb:e5:e8:
                    e2:50:f4:74:4a:25:79:69:51:2c:ca:e5:a6:32:34:
                    fc:00:86:a7:73:34:ba:b6:f3:8d:40:64:04:0e:fc:
                    ea:f2:17:d8:39:ca:ed:e5:5b:d5:e1:8d:04:b8:6e:
                    e8:13:88:af:e2:4e:bc:2f:ff:27:2f:33:40:6d:90:
                    ef:22:db:d4:3a:37:cc:89:d0:8b:c1:7c:10:50:c0:
                    8e:6b:95:f0:9f:23:c4:6a:02:3a:9d:6c:73:53:2e:
                    8e:d4:8d:26:b6:74:2b:5a:da:dc:3a:4d:e0:bb:4b:
                    92:54:01:54:1f:4d:c3:23:d6:f4:ee:4e:61:18:5d:
                    67:0c:f8:8c:26:00:a8:a2:a7:41:56:ee:84:cb:63:
                    c9:95:ef
                Exponent: 65537 (0x10001)
        X509v3 extensions:
            X509v3 Basic Constraints: 
                CA:FALSE
            Netscape Comment: 
                Easy-RSA Generated Certificate
            X509v3 Subject Key Identifier: 
                4C:A4:53:2F:AB:6D:3D:61:09:4F:8A:99:A0:6C:B3:99:3A:9A:CF:C8
            X509v3 Authority Key Identifier: 
                keyid:12:CD:60:04:D2:A0:80:9E:70:ED:C6:99:B8:7B:2C:C6:52:FD:19:A1
                DirName:/C=US/ST=OH/L=Columbus/O=VikingVPN/OU=MyOrganizationalUnit/CN=VikingVPN CA/name=EasyRSA/emailAddress=me@myhost.mydomain
                serial:CF:35:85:EE:80:BF:2A:3E

            X509v3 Extended Key Usage: 
                TLS Web Client Authentication
            X509v3 Key Usage: 
                Digital Signature
    Signature Algorithm: sha256WithRSAEncryption
         2c:b8:19:f5:a4:04:b2:d1:4c:02:9f:bb:d4:7a:c5:ee:cd:23:
         41:b0:4f:d8:a8:c4:4f:ab:5c:3d:2b:bd:7d:20:95:88:31:03:
         8b:56:cb:ff:83:7d:63:f4:cc:9a:9b:f5:b9:07:6a:ad:16:06:
         03:54:6e:2a:77:a7:1f:68:8d:83:77:ad:93:75:86:1e:04:8d:
         28:ad:f9:fc:08:6f:35:88:de:9a:31:b2:d9:32:58:78:c9:89:
         24:1c:56:db:ae:9d:96:2b:fe:b2:aa:6e:97:19:91:c6:37:53:
         de:30:02:65:fc:f1:94:0c:52:de:ae:4d:ff:0d:70:4a:7e:b6:
         d7:68:de:34:fa:f9:2b:40:e3:47:c7:ca:5e:42:5a:1d:e0:d5:
         f7:c1:4c:89:4e:43:79:b8:9d:fd:e0:49:59:eb:31:93:e4:0d:
         60:64:8f:99:d1:b9:4d:2f:47:b9:6d:d3:98:c7:76:54:5f:83:
         4e:0b:ee:d9:ea:c1:06:f7:ab:8d:ae:c2:ae:39:3b:74:44:8c:
         34:b6:cb:4f:57:21:0e:29:12:cf:6a:4e:ab:6a:a5:10:2a:61:
         6d:27:64:ab:e4:0d:d4:be:36:b9:ce:12:48:9d:f6:06:c1:8a:
         22:60:5b:3e:99:e2:22:2d:9c:85:9d:51:35:43:c2:59:dc:52:
         f4:a9:46:e4:3b:db:cf:59:d6:07:2a:a5:ab:7b:ad:18:d4:81:
         53:a4:3e:62:79:01:3c:f2:d7:90:4d:f8:e5:a5:c5:25:29:f2:
         5a:b0:02:d8:b1:1f:0e:ce:34:f4:7a:71:51:4c:1d:80:8e:6e:
         34:9b:da:ac:01:d1:4d:86:75:a3:ee:d9:ba:55:42:42:3f:54:
         d6:a2:70:3a:bc:55:18:5c:c4:27:9b:c4:44:0e:3f:46:21:af:
         02:af:c6:22:4c:ac:b3:37:32:ef:ee:6e:c8:49:ec:46:78:64:
         81:42:1b:9b:e8:ca:0e:75:d9:ba:f1:d4:94:fd:80:01:a9:3f:
         49:2e:93:7d:87:66:95:b0:c7:39:d9:5a:2b:51:e3:0f:73:db:
         09:65:e8:b5:8e:e8:d6:06:05:53:66:84:57:d9:d3:f4:a1:23:
         66:f8:65:0a:33:fa:7c:f9:ef:92:bf:ef:44:2e:af:bf:c1:e5:
         9c:70:98:b2:48:4d:a8:17:51:f7:c0:b0:fb:0d:47:27:15:aa:
         e7:07:f1:2b:df:39:e3:a9:08:d8:a6:f5:b8:a4:2a:6f:eb:d3:
         15:e4:26:25:e6:ef:b7:6f:b2:64:3e:b8:2d:b4:b6:5b:72:76:
         65:9d:79:1f:67:39:4c:ee:84:e5:08:2d:f0:00:5d:1c:fa:57:
         cb:97:25:8f:2b:33:ab:77
-----BEGIN CERTIFICATE-----
MIIGrTCCBJWgAwIBAgICIpEwDQYJKoZIhvcNAQELBQAwgawxCzAJBgNVBAYTAlVT
MQswCQYDVQQIEwJPSDERMA8GA1UEBxMIQ29sdW1idXMxEjAQBgNVBAoTCVZpa2lu
Z1ZQTjEdMBsGA1UECxMUTXlPcmdhbml6YXRpb25hbFVuaXQxFTATBgNVBAMTDFZp
a2luZ1ZQTiBDQTEQMA4GA1UEKRMHRWFzeVJTQTEhMB8GCSqGSIb3DQEJARYSbWVA
bXlob3N0Lm15ZG9tYWluMB4XDTE2MDgxOTE2MjI0M1oXDTI2MDgxNzE2MjI0M1ow
HzEdMBsGA1UEAxMUQ2xpZW50MjQzMUNlcnRjMDMzNzUwggIiMA0GCSqGSIb3DQEB
AQUAA4ICDwAwggIKAoICAQCenRiq5wkSVu0/TY9qe8SEs+W2hzOSQFp4ZurY6/SE
sYnOYDHPjhUq/fvfEsVYjWaWAWkYt56QVpQj3rrxAwzpgB/sD9JGGXVf6a/9fkbQ
5lK6U8P2+WV+P7djGkFBf/MjG/1TmUVGaCeYv6wwbrv0+scOzNDWO5qh0o5LE4Pv
LbhlOYyYmt5DMNbtwYE1x9hMrxePoAosB4YzDM33HZ+RoTFkedGTWa7DgdkPc6hN
53C8gcUg2MdbF9/9EobLUHqeYAKKEpGwf8XGxBeZrDxHV1Lw7DaJpYOxuuruK53M
8EE7vUsF+OMneCUNCnE5VOyPPLwJmD7tfL5rcsmhfch6/dCMSlZ+NeAqHmxZc0at
uQtohklK2RKYvx9aWYqZ/q+aNpyjzdAG2fuEvr0NiS98udvUgqg/PKJHMnQop6kK
sBl73tzFHbgakDksJnmi2aeMf5yTb/b7/cnNfbOD4wC4Dzo+rTO6+RHylk5Hdx/y
xjdN6fvl6OJQ9HRKJXlpUSzK5aYyNPwAhqdzNLq2841AZAQO/OryF9g5yu3lW9Xh
jQS4bugTiK/iTrwv/ycvM0BtkO8i29Q6N8yJ0IvBfBBQwI5rlfCfI8RqAjqdbHNT
Lo7UjSa2dCta2tw6TeC7S5JUAVQfTcMj1vTuTmEYXWcM+IwmAKiip0FW7oTLY8mV
7wIDAQABo4IBYzCCAV8wCQYDVR0TBAIwADAtBglghkgBhvhCAQ0EIBYeRWFzeS1S
U0EgR2VuZXJhdGVkIENlcnRpZmljYXRlMB0GA1UdDgQWBBRMpFMvq209YQlPipmg
bLOZOprPyDCB4QYDVR0jBIHZMIHWgBQSzWAE0qCAnnDtxpm4eyzGUv0ZoaGBsqSB
rzCBrDELMAkGA1UEBhMCVVMxCzAJBgNVBAgTAk9IMREwDwYDVQQHEwhDb2x1bWJ1
czESMBAGA1UEChMJVmlraW5nVlBOMR0wGwYDVQQLExRNeU9yZ2FuaXphdGlvbmFs
VW5pdDEVMBMGA1UEAxMMVmlraW5nVlBOIENBMRAwDgYDVQQpEwdFYXN5UlNBMSEw
HwYJKoZIhvcNAQkBFhJtZUBteWhvc3QubXlkb21haW6CCQDPNYXugL8qPjATBgNV
HSUEDDAKBggrBgEFBQcDAjALBgNVHQ8EBAMCB4AwDQYJKoZIhvcNAQELBQADggIB
ACy4GfWkBLLRTAKfu9R6xe7NI0GwT9ioxE+rXD0rvX0glYgxA4tWy/+DfWP0zJqb
9bkHaq0WBgNUbip3px9ojYN3rZN1hh4EjSit+fwIbzWI3poxstkyWHjJiSQcVtuu
nZYr/rKqbpcZkcY3U94wAmX88ZQMUt6uTf8NcEp+ttdo3jT6+StA40fHyl5CWh3g
1ffBTIlOQ3m4nf3gSVnrMZPkDWBkj5nRuU0vR7lt05jHdlRfg04L7tnqwQb3q42u
wq45O3REjDS2y09XIQ4pEs9qTqtqpRAqYW0nZKvkDdS+NrnOEkid9gbBiiJgWz6Z
4iItnIWdUTVDwlncUvSpRuQ7289Z1gcqpat7rRjUgVOkPmJ5ATzy15BN+OWlxSUp
8lqwAtixHw7ONPR6cVFMHYCObjSb2qwB0U2GdaPu2bpVQkI/VNaicDq8VRhcxCeb
xEQOP0YhrwKvxiJMrLM3Mu/ubshJ7EZ4ZIFCG5voyg512brx1JT9gAGpP0kuk32H
ZpWwxznZWitR4w9z2wll6LWO6NYGBVNmhFfZ0/ShI2b4ZQoz+nz575K/70Qur7/B
5ZxwmLJITagXUffAsPsNRycVqucH8SvfOeOpCNim9bikKm/r0xXkJiXm77dvsmQ+
uC20tltydmWdeR9nOUzuhOUILfAAXRz6V8uXJY8rM6t3
-----END CERTIFICATE-----
