Certificate:
    Data:
        Version: 3 (0x2)
        Serial Number: 7125 (0x1bd5)
    Signature Algorithm: md5WithRSAEncryption
        Issuer: C=US, ST=OH, L=Columbus, O=VikingVPN, OU=MyOrganizationalUnit, CN=VikingVPN CA/name=EasyRSA/emailAddress=me@myhost.mydomain
        Validity
            Not Before: Feb  4 05:36:03 2016 GMT
            Not After : Feb  1 05:36:03 2026 GMT
        Subject: CN=Client2161Cert0086cc
        Subject Public Key Info:
            Public Key Algorithm: rsaEncryption
                Public-Key: (4096 bit)
                Modulus:
                    00:c8:e3:ef:9b:25:a9:cf:e6:47:48:77:bc:4c:dc:
                    71:8b:26:4e:f3:49:26:89:c1:4e:a6:0f:1d:ae:45:
                    76:25:e2:76:78:1c:00:24:6f:c2:97:5b:97:34:84:
                    86:6b:01:ab:d4:ed:7d:a4:85:a7:bc:7d:89:d5:9c:
                    bd:d2:a2:03:ea:03:15:b9:a1:b4:35:2d:a2:91:1e:
                    10:43:ab:f1:3f:28:a5:ab:76:c8:0a:30:cf:b4:35:
                    de:54:ba:81:fa:a5:1b:22:4a:5a:14:c3:d4:d6:10:
                    dc:ec:e3:7d:10:a0:02:09:88:88:f9:95:d6:a2:4d:
                    9a:60:a6:21:17:ed:ec:74:26:83:8e:ca:01:cc:ec:
                    a0:44:94:63:7f:4f:94:4d:43:54:81:57:35:54:b1:
                    56:32:f7:58:2c:6c:76:b9:ab:e5:7f:4a:ff:f0:94:
                    f8:71:dd:52:c9:e8:82:9e:9b:33:0a:b3:55:f2:4b:
                    92:33:5b:8d:0e:9b:e6:42:4e:ec:17:b0:22:a7:fc:
                    11:e1:51:02:07:e4:40:4c:2d:97:73:24:f7:3a:bb:
                    f1:7d:2b:5d:d6:37:6f:1d:b1:aa:bc:60:3f:e5:0b:
                    49:c1:ea:e0:17:36:ba:4a:5e:98:24:cc:02:cb:fd:
                    a9:8a:f1:60:64:0a:d6:e9:35:71:06:f3:b0:3e:90:
                    fa:b0:27:57:e7:bc:2d:01:b0:b4:10:9a:6b:6e:93:
                    e6:ab:20:7b:13:37:32:23:d4:0f:cc:c4:2d:27:f3:
                    6e:09:3a:4b:7f:94:f7:5b:3a:52:24:94:46:83:d2:
                    7c:dc:49:ed:72:07:3c:d2:50:6f:bc:f1:1f:6a:6b:
                    0f:40:da:cd:de:3f:df:02:1f:41:01:a4:4c:43:bf:
                    5b:6f:16:d3:1f:65:ed:8c:e8:79:3f:f7:fc:f6:3e:
                    33:20:21:23:d7:29:5d:07:45:96:dc:a2:70:e9:1d:
                    85:87:64:bc:53:f3:ff:82:18:7b:27:c0:86:1b:d9:
                    01:09:54:fa:60:10:75:1a:d4:cf:ac:b6:83:5d:b5:
                    31:cb:3e:c2:c2:cb:0e:a7:38:44:80:7c:e3:00:53:
                    35:8e:88:66:ae:d4:b3:5a:f2:28:be:a5:64:0c:fc:
                    ff:8e:99:48:f5:c9:90:f4:25:58:66:44:51:10:a6:
                    da:e9:40:5b:47:63:7e:4f:ab:66:f4:bf:78:fe:fe:
                    4b:16:42:cd:9c:76:06:5c:4b:b2:67:b9:9d:a5:6a:
                    be:ca:80:ca:ca:17:a2:98:39:51:d8:48:08:b3:0e:
                    08:01:f1:f9:d5:b7:2a:a2:c3:b4:05:eb:89:e8:2b:
                    a9:34:30:4f:b8:61:62:0d:12:59:15:69:e3:5b:a0:
                    90:af:55
                Exponent: 65537 (0x10001)
        X509v3 extensions:
            X509v3 Basic Constraints: 
                CA:FALSE
            Netscape Comment: 
                Easy-RSA Generated Certificate
            X509v3 Subject Key Identifier: 
                4B:D2:B5:FF:83:C1:92:06:17:00:3F:D4:8B:EC:C2:2F:07:DB:3D:2C
            X509v3 Authority Key Identifier: 
                keyid:12:CD:60:04:D2:A0:80:9E:70:ED:C6:99:B8:7B:2C:C6:52:FD:19:A1
                DirName:/C=US/ST=OH/L=Columbus/O=VikingVPN/OU=MyOrganizationalUnit/CN=VikingVPN CA/name=EasyRSA/emailAddress=me@myhost.mydomain
                serial:CF:35:85:EE:80:BF:2A:3E

            X509v3 Extended Key Usage: 
                TLS Web Client Authentication
            X509v3 Key Usage: 
                Digital Signature
    Signature Algorithm: md5WithRSAEncryption
         8c:75:3e:51:64:f3:7e:80:e7:84:b9:94:fb:9d:c5:2b:99:04:
         69:89:a4:c6:05:19:44:10:ec:bc:0e:0c:27:0e:f3:a9:2b:2e:
         f2:1d:7c:b4:28:5b:67:4d:1a:48:84:e0:7d:ee:65:1c:c3:0b:
         2d:54:2f:17:53:1d:70:ac:9b:72:68:76:94:8b:7e:08:69:aa:
         24:a7:76:5c:cd:e5:b9:54:03:dc:90:a5:f6:bd:24:46:a1:f0:
         07:53:f3:b0:81:41:f3:50:c6:dc:83:75:71:b4:c5:4b:49:90:
         f7:13:af:a4:21:a7:18:e4:37:31:f0:de:2d:fa:04:04:3b:4b:
         7d:13:a0:fe:95:43:a7:d5:3d:19:13:d0:79:96:b4:a9:09:e2:
         ef:ef:09:c1:f8:e7:eb:8b:0e:66:e6:96:41:c0:fc:49:d6:8a:
         72:46:42:ac:44:8c:0a:8c:da:51:8a:25:a7:ce:65:54:66:09:
         05:e6:5c:a2:5c:ce:10:f9:4a:78:3c:81:f4:9d:ca:86:b6:67:
         53:44:90:52:45:b6:30:30:63:62:ab:a7:48:c2:33:fa:89:34:
         98:a3:cd:9b:af:64:73:5e:2f:0d:2d:f4:82:e8:65:9d:54:47:
         88:35:ea:c8:bd:9d:13:c1:c3:00:2e:da:ad:37:ec:fb:88:08:
         eb:94:a8:4a:f7:73:19:74:c4:48:d2:0d:19:fe:4e:38:1a:a0:
         0b:45:6d:0b:bd:3b:1f:04:d1:6e:b4:a1:6e:de:9b:9c:37:87:
         78:c1:c2:ab:1f:18:25:d9:1f:1a:c0:37:4e:c0:6b:ec:f6:4b:
         d1:b3:a6:cb:2b:92:d5:03:24:b6:13:e8:04:d2:83:69:60:5b:
         29:d0:d0:b4:c4:a2:3f:98:69:ec:a6:c6:04:d8:d1:5e:dc:c3:
         90:83:47:e4:a9:8f:07:62:5d:75:16:cd:06:a1:0b:a4:51:0f:
         7b:53:79:bc:23:f6:37:94:75:34:61:94:dd:e5:a1:9e:8c:cf:
         d7:5c:22:bd:85:95:78:5e:de:e0:89:3a:3a:b0:96:43:6f:66:
         4a:a4:67:2f:23:bd:7e:f0:67:c8:79:cf:2d:70:4c:46:e1:07:
         b4:9a:ff:81:9c:fe:03:36:5b:29:63:cb:7c:d6:6a:d4:d8:42:
         4d:e8:9d:64:95:59:26:89:48:8a:e0:15:66:00:08:dd:46:64:
         cb:c0:ef:74:da:80:6f:f7:3d:e9:d4:ee:f6:a3:55:8f:69:4b:
         fc:72:98:83:f3:58:8a:c0:76:9b:c0:56:44:ae:b1:02:49:d2:
         d7:ff:55:a2:93:00:b0:c0:f3:3e:09:21:4b:a9:f3:6c:bd:a8:
         30:17:b9:f6:38:5f:af:12
-----BEGIN CERTIFICATE-----
MIIGrTCCBJWgAwIBAgICG9UwDQYJKoZIhvcNAQEEBQAwgawxCzAJBgNVBAYTAlVT
MQswCQYDVQQIEwJPSDERMA8GA1UEBxMIQ29sdW1idXMxEjAQBgNVBAoTCVZpa2lu
Z1ZQTjEdMBsGA1UECxMUTXlPcmdhbml6YXRpb25hbFVuaXQxFTATBgNVBAMTDFZp
a2luZ1ZQTiBDQTEQMA4GA1UEKRMHRWFzeVJTQTEhMB8GCSqGSIb3DQEJARYSbWVA
bXlob3N0Lm15ZG9tYWluMB4XDTE2MDIwNDA1MzYwM1oXDTI2MDIwMTA1MzYwM1ow
HzEdMBsGA1UEAxMUQ2xpZW50MjE2MUNlcnQwMDg2Y2MwggIiMA0GCSqGSIb3DQEB
AQUAA4ICDwAwggIKAoICAQDI4++bJanP5kdId7xM3HGLJk7zSSaJwU6mDx2uRXYl
4nZ4HAAkb8KXW5c0hIZrAavU7X2khae8fYnVnL3SogPqAxW5obQ1LaKRHhBDq/E/
KKWrdsgKMM+0Nd5UuoH6pRsiSloUw9TWENzs430QoAIJiIj5ldaiTZpgpiEX7ex0
JoOOygHM7KBElGN/T5RNQ1SBVzVUsVYy91gsbHa5q+V/Sv/wlPhx3VLJ6IKemzMK
s1XyS5IzW40Om+ZCTuwXsCKn/BHhUQIH5EBMLZdzJPc6u/F9K13WN28dsaq8YD/l
C0nB6uAXNrpKXpgkzALL/amK8WBkCtbpNXEG87A+kPqwJ1fnvC0BsLQQmmtuk+ar
IHsTNzIj1A/MxC0n824JOkt/lPdbOlIklEaD0nzcSe1yBzzSUG+88R9qaw9A2s3e
P98CH0EBpExDv1tvFtMfZe2M6Hk/9/z2PjMgISPXKV0HRZbconDpHYWHZLxT8/+C
GHsnwIYb2QEJVPpgEHUa1M+stoNdtTHLPsLCyw6nOESAfOMAUzWOiGau1LNa8ii+
pWQM/P+OmUj1yZD0JVhmRFEQptrpQFtHY35Pq2b0v3j+/ksWQs2cdgZcS7JnuZ2l
ar7KgMrKF6KYOVHYSAizDggB8fnVtyqiw7QF64noK6k0ME+4YWINElkVaeNboJCv
VQIDAQABo4IBYzCCAV8wCQYDVR0TBAIwADAtBglghkgBhvhCAQ0EIBYeRWFzeS1S
U0EgR2VuZXJhdGVkIENlcnRpZmljYXRlMB0GA1UdDgQWBBRL0rX/g8GSBhcAP9SL
7MIvB9s9LDCB4QYDVR0jBIHZMIHWgBQSzWAE0qCAnnDtxpm4eyzGUv0ZoaGBsqSB
rzCBrDELMAkGA1UEBhMCVVMxCzAJBgNVBAgTAk9IMREwDwYDVQQHEwhDb2x1bWJ1
czESMBAGA1UEChMJVmlraW5nVlBOMR0wGwYDVQQLExRNeU9yZ2FuaXphdGlvbmFs
VW5pdDEVMBMGA1UEAxMMVmlraW5nVlBOIENBMRAwDgYDVQQpEwdFYXN5UlNBMSEw
HwYJKoZIhvcNAQkBFhJtZUBteWhvc3QubXlkb21haW6CCQDPNYXugL8qPjATBgNV
HSUEDDAKBggrBgEFBQcDAjALBgNVHQ8EBAMCB4AwDQYJKoZIhvcNAQEEBQADggIB
AIx1PlFk836A54S5lPudxSuZBGmJpMYFGUQQ7LwODCcO86krLvIdfLQoW2dNGkiE
4H3uZRzDCy1ULxdTHXCsm3JodpSLfghpqiSndlzN5blUA9yQpfa9JEah8AdT87CB
QfNQxtyDdXG0xUtJkPcTr6QhpxjkNzHw3i36BAQ7S30ToP6VQ6fVPRkT0HmWtKkJ
4u/vCcH45+uLDmbmlkHA/EnWinJGQqxEjAqM2lGKJafOZVRmCQXmXKJczhD5Sng8
gfSdyoa2Z1NEkFJFtjAwY2Krp0jCM/qJNJijzZuvZHNeLw0t9ILoZZ1UR4g16si9
nRPBwwAu2q037PuICOuUqEr3cxl0xEjSDRn+TjgaoAtFbQu9Ox8E0W60oW7em5w3
h3jBwqsfGCXZHxrAN07Aa+z2S9GzpssrktUDJLYT6ATSg2lgWynQ0LTEoj+Yaeym
xgTY0V7cw5CDR+SpjwdiXXUWzQahC6RRD3tTebwj9jeUdTRhlN3loZ6Mz9dcIr2F
lXhe3uCJOjqwlkNvZkqkZy8jvX7wZ8h5zy1wTEbhB7Sa/4Gc/gM2Wyljy3zWatTY
Qk3onWSVWSaJSIrgFWYACN1GZMvA73TagG/3PenU7vajVY9pS/xymIPzWIrAdpvA
VkSusQJJ0tf/VaKTALDA8z4JIUup82y9qDAXufY4X68S
-----END CERTIFICATE-----
