Certificate:
    Data:
        Version: 3 (0x2)
        Serial Number: 745 (0x2e9)
    Signature Algorithm: md5WithRSAEncryption
        Issuer: C=US, ST=OH, L=Columbus, O=VikingVPN, OU=MyOrganizationalUnit, CN=VikingVPN CA/name=EasyRSA/emailAddress=me@myhost.mydomain
        Validity
            Not Before: Jan 11 21:37:31 2014 GMT
            Not After : Jan  9 21:37:31 2024 GMT
        Subject: CN=Client294Cert765c32
        Subject Public Key Info:
            Public Key Algorithm: rsaEncryption
                Public-Key: (4096 bit)
                Modulus:
                    00:aa:6a:30:5a:45:01:0a:ad:de:a0:2a:39:5a:ec:
                    72:ce:67:85:b9:4c:c7:76:4e:a0:bb:af:c2:c8:a8:
                    81:02:e6:93:3f:5f:77:ad:bb:ec:7a:bc:5a:0b:aa:
                    23:f9:87:ea:41:21:ba:d9:0b:b2:97:b4:6e:bd:f9:
                    ae:5c:66:df:1a:c5:5f:27:f1:5c:49:f3:91:6d:75:
                    1f:28:1f:70:d7:78:3d:3b:23:9f:6b:19:88:ec:77:
                    05:20:4d:9e:5c:8e:4f:8d:3c:9a:e5:1a:7c:38:ab:
                    6d:3a:30:0f:b7:50:88:64:2a:08:a3:7e:a6:b6:40:
                    5e:ac:4b:73:af:93:7a:43:78:1b:ef:fc:2b:f9:ea:
                    69:34:0c:18:4d:45:3c:9f:5e:62:6d:fc:71:92:c6:
                    21:e4:68:18:ad:a8:d6:5e:4c:cf:1d:75:f8:2c:29:
                    f4:c0:d6:0b:6a:c5:3c:c1:40:da:8c:59:01:f7:99:
                    32:aa:b3:d2:3d:9c:02:cc:da:48:82:ef:4a:6a:3f:
                    44:48:59:69:14:d1:ac:62:26:c9:4f:35:18:5a:19:
                    2e:19:00:60:82:6b:75:06:b7:a0:10:34:34:08:d4:
                    14:58:ed:36:3c:b6:d0:fa:73:ab:71:e3:39:d9:79:
                    25:d0:53:27:c9:be:f5:79:f5:bd:d8:3c:c7:05:8d:
                    00:2c:52:8f:1a:20:9a:47:85:2d:18:4b:d4:7f:55:
                    63:09:3d:f5:52:e3:f1:51:72:e2:af:35:74:0f:c1:
                    c3:0b:7f:70:42:f3:77:9d:1f:8a:f3:e8:20:4e:97:
                    1b:a0:53:9c:f9:fa:85:a5:d6:27:2e:1a:ed:0c:5b:
                    e8:ec:49:12:43:20:a4:98:29:f7:51:e1:e4:70:3d:
                    76:28:84:86:a4:e2:14:8c:60:10:f9:eb:9b:7c:e0:
                    6b:25:6f:0c:69:ef:c6:2c:e4:f9:34:d7:44:90:de:
                    a1:48:20:d7:19:d7:bd:26:d0:57:68:9d:a4:9a:a4:
                    d1:cb:da:82:d3:b2:bf:88:08:69:ee:50:e8:2d:cc:
                    98:8e:df:7b:a0:8a:4c:07:49:cc:f8:c6:2e:79:39:
                    0d:14:d7:ff:4f:c5:b0:eb:16:ae:3a:aa:15:cc:86:
                    24:c8:ca:62:dc:1e:95:d9:19:21:34:36:84:64:d9:
                    06:69:f6:37:31:48:8a:e5:ee:d9:a2:62:d1:8a:78:
                    76:4d:8f:36:49:41:6f:a4:1d:a8:2c:95:e2:36:9a:
                    88:da:f4:82:ef:2c:57:59:e6:81:39:2a:02:23:79:
                    86:93:48:7b:f0:a1:e3:f2:a8:3a:4f:26:eb:04:15:
                    0d:c0:46:1c:ea:b3:42:86:45:98:db:ab:b3:76:e8:
                    36:5e:17
                Exponent: 65537 (0x10001)
        X509v3 extensions:
            X509v3 Basic Constraints: 
                CA:FALSE
            Netscape Comment: 
                Easy-RSA Generated Certificate
            X509v3 Subject Key Identifier: 
                C5:36:2F:71:03:C9:45:21:1C:DD:A5:44:A8:73:E3:F2:2F:7E:1E:F2
            X509v3 Authority Key Identifier: 
                keyid:12:CD:60:04:D2:A0:80:9E:70:ED:C6:99:B8:7B:2C:C6:52:FD:19:A1
                DirName:/C=US/ST=OH/L=Columbus/O=VikingVPN/OU=MyOrganizationalUnit/CN=VikingVPN CA/name=EasyRSA/emailAddress=me@myhost.mydomain
                serial:CF:35:85:EE:80:BF:2A:3E

            X509v3 Extended Key Usage: 
                TLS Web Client Authentication
            X509v3 Key Usage: 
                Digital Signature
    Signature Algorithm: md5WithRSAEncryption
         6a:36:69:b5:21:d9:fa:7b:f8:f0:c5:b3:85:a7:6e:1c:bb:83:
         60:b0:dc:ab:2b:3d:8b:b1:07:ad:48:8b:83:b6:60:1f:62:06:
         55:a2:a7:61:40:aa:dc:f0:0c:17:5f:0c:bc:03:45:2b:10:3c:
         bd:5b:4a:94:91:47:e0:b7:3d:5d:68:28:93:a4:a8:6f:5d:05:
         b6:f7:8f:0e:96:4e:08:b1:2d:13:d5:f4:e5:4b:40:bd:84:8a:
         fe:59:fc:16:03:dc:fa:13:db:92:45:64:7e:34:a3:62:63:34:
         fd:2e:d9:65:86:3e:38:68:9c:d0:ce:f4:57:18:24:ff:8e:bf:
         42:f1:b5:7c:8d:86:71:7b:a3:ec:af:3a:08:61:85:dd:af:cf:
         89:38:96:30:a4:f7:50:44:84:c2:a3:86:5b:18:a5:e1:38:bc:
         ea:03:b0:33:e7:56:d7:10:79:ed:7f:c6:32:5d:ec:3b:c9:0b:
         79:d5:96:7c:99:cd:fa:1b:b6:80:4b:89:99:93:7b:d2:dc:df:
         e7:d5:0b:f3:44:60:99:39:c9:b2:d5:3e:e3:e5:13:15:06:7c:
         0f:3f:ef:3a:d0:c8:8b:ed:1f:df:02:26:ba:86:fa:bc:fd:b5:
         01:98:18:fc:28:68:fc:0f:30:4e:b8:b0:74:f1:d2:aa:9d:8e:
         56:ff:9a:19:49:7b:4e:50:41:bd:01:12:82:28:78:ba:f1:13:
         c7:3f:6e:7d:cf:99:47:8d:36:e3:6c:de:06:32:4f:5e:da:47:
         2a:e7:a8:e0:2b:32:5b:15:7d:2a:46:27:67:f5:e1:0d:4c:bb:
         2b:94:7a:5b:dd:00:37:9d:2a:b4:d0:f3:19:4b:b6:19:bc:28:
         56:90:8c:40:88:3a:c6:41:b6:bc:8f:07:58:21:2f:19:87:22:
         38:66:f2:d0:51:01:c3:67:b4:98:b4:58:ce:db:01:00:4d:c0:
         6d:35:47:a4:d1:f4:a8:72:d1:9f:4b:f1:44:8a:ba:2f:80:3e:
         c2:90:52:9b:2c:b7:5c:a8:38:0f:a2:d0:af:76:ef:97:b9:f5:
         fb:09:ee:b7:00:0a:b9:c3:ff:e1:d0:bb:0e:05:b6:d6:92:b0:
         2a:a2:d8:97:d6:21:8e:0c:b8:1a:f8:1f:ae:bb:83:ab:56:9b:
         6f:e9:7e:2b:72:cf:a7:8d:fc:ff:08:8d:e6:ab:0a:4b:27:dd:
         32:e9:9d:41:99:58:a3:bd:12:2f:ea:4c:97:85:c9:64:e5:25:
         b0:f2:53:34:e8:32:22:7f:91:f1:47:44:d8:93:27:f5:cb:dd:
         eb:d6:34:fc:a3:f9:9a:ea:38:7f:d8:76:f5:42:37:94:4e:70:
         d9:d8:da:dc:3d:36:ce:63
-----BEGIN CERTIFICATE-----
MIIGrDCCBJSgAwIBAgICAukwDQYJKoZIhvcNAQEEBQAwgawxCzAJBgNVBAYTAlVT
MQswCQYDVQQIEwJPSDERMA8GA1UEBxMIQ29sdW1idXMxEjAQBgNVBAoTCVZpa2lu
Z1ZQTjEdMBsGA1UECxMUTXlPcmdhbml6YXRpb25hbFVuaXQxFTATBgNVBAMTDFZp
a2luZ1ZQTiBDQTEQMA4GA1UEKRMHRWFzeVJTQTEhMB8GCSqGSIb3DQEJARYSbWVA
bXlob3N0Lm15ZG9tYWluMB4XDTE0MDExMTIxMzczMVoXDTI0MDEwOTIxMzczMVow
HjEcMBoGA1UEAxMTQ2xpZW50Mjk0Q2VydDc2NWMzMjCCAiIwDQYJKoZIhvcNAQEB
BQADggIPADCCAgoCggIBAKpqMFpFAQqt3qAqOVrscs5nhblMx3ZOoLuvwsiogQLm
kz9fd6277Hq8WguqI/mH6kEhutkLspe0br35rlxm3xrFXyfxXEnzkW11HygfcNd4
PTsjn2sZiOx3BSBNnlyOT408muUafDirbTowD7dQiGQqCKN+prZAXqxLc6+TekN4
G+/8K/nqaTQMGE1FPJ9eYm38cZLGIeRoGK2o1l5Mzx11+Cwp9MDWC2rFPMFA2oxZ
AfeZMqqz0j2cAszaSILvSmo/REhZaRTRrGImyU81GFoZLhkAYIJrdQa3oBA0NAjU
FFjtNjy20Ppzq3HjOdl5JdBTJ8m+9Xn1vdg8xwWNACxSjxogmkeFLRhL1H9VYwk9
9VLj8VFy4q81dA/Bwwt/cELzd50fivPoIE6XG6BTnPn6haXWJy4a7Qxb6OxJEkMg
pJgp91Hh5HA9diiEhqTiFIxgEPnrm3zgayVvDGnvxizk+TTXRJDeoUgg1xnXvSbQ
V2idpJqk0cvagtOyv4gIae5Q6C3MmI7fe6CKTAdJzPjGLnk5DRTX/0/FsOsWrjqq
FcyGJMjKYtweldkZITQ2hGTZBmn2NzFIiuXu2aJi0Yp4dk2PNklBb6QdqCyV4jaa
iNr0gu8sV1nmgTkqAiN5hpNIe/Ch4/KoOk8m6wQVDcBGHOqzQoZFmNurs3boNl4X
AgMBAAGjggFjMIIBXzAJBgNVHRMEAjAAMC0GCWCGSAGG+EIBDQQgFh5FYXN5LVJT
QSBHZW5lcmF0ZWQgQ2VydGlmaWNhdGUwHQYDVR0OBBYEFMU2L3EDyUUhHN2lRKhz
4/Ivfh7yMIHhBgNVHSMEgdkwgdaAFBLNYATSoICecO3Gmbh7LMZS/RmhoYGypIGv
MIGsMQswCQYDVQQGEwJVUzELMAkGA1UECBMCT0gxETAPBgNVBAcTCENvbHVtYnVz
MRIwEAYDVQQKEwlWaWtpbmdWUE4xHTAbBgNVBAsTFE15T3JnYW5pemF0aW9uYWxV
bml0MRUwEwYDVQQDEwxWaWtpbmdWUE4gQ0ExEDAOBgNVBCkTB0Vhc3lSU0ExITAf
BgkqhkiG9w0BCQEWEm1lQG15aG9zdC5teWRvbWFpboIJAM81he6Avyo+MBMGA1Ud
JQQMMAoGCCsGAQUFBwMCMAsGA1UdDwQEAwIHgDANBgkqhkiG9w0BAQQFAAOCAgEA
ajZptSHZ+nv48MWzhaduHLuDYLDcqys9i7EHrUiLg7ZgH2IGVaKnYUCq3PAMF18M
vANFKxA8vVtKlJFH4Lc9XWgok6Sob10FtvePDpZOCLEtE9X05UtAvYSK/ln8FgPc
+hPbkkVkfjSjYmM0/S7ZZYY+OGic0M70Vxgk/46/QvG1fI2GcXuj7K86CGGF3a/P
iTiWMKT3UESEwqOGWxil4Ti86gOwM+dW1xB57X/GMl3sO8kLedWWfJnN+hu2gEuJ
mZN70tzf59UL80RgmTnJstU+4+UTFQZ8Dz/vOtDIi+0f3wImuob6vP21AZgY/Cho
/A8wTriwdPHSqp2OVv+aGUl7TlBBvQESgih4uvETxz9ufc+ZR40242zeBjJPXtpH
Kueo4CsyWxV9KkYnZ/XhDUy7K5R6W90AN50qtNDzGUu2GbwoVpCMQIg6xkG2vI8H
WCEvGYciOGby0FEBw2e0mLRYztsBAE3AbTVHpNH0qHLRn0vxRIq6L4A+wpBSmyy3
XKg4D6LQr3bvl7n1+wnutwAKucP/4dC7DgW21pKwKqLYl9Yhjgy4GvgfrruDq1ab
b+l+K3LPp438/wiN5qsKSyfdMumdQZlYo70SL+pMl4XJZOUlsPJTNOgyIn+R8UdE
2JMn9cvd69Y0/KP5muo4f9h29UI3lE5w2dja3D02zmM=
-----END CERTIFICATE-----
