Certificate:
    Data:
        Version: 3 (0x2)
        Serial Number: 2371 (0x943)
    Signature Algorithm: md5WithRSAEncryption
        Issuer: C=US, ST=OH, L=Columbus, O=VikingVPN, OU=MyOrganizationalUnit, CN=VikingVPN CA/name=EasyRSA/emailAddress=me@myhost.mydomain
        Validity
            Not Before: Jul 23 17:42:02 2014 GMT
            Not After : Jul 20 17:42:02 2024 GMT
        Subject: CN=Client831Certf45534
        Subject Public Key Info:
            Public Key Algorithm: rsaEncryption
                Public-Key: (4096 bit)
                Modulus:
                    00:b4:8f:4f:87:7d:23:71:d1:fa:d0:a9:45:e2:23:
                    5d:8d:4c:ba:8e:47:64:1d:ad:0e:64:56:f3:65:9a:
                    28:c9:0c:b6:64:04:41:9e:68:c2:6d:e2:67:6a:8a:
                    9b:3e:f2:ac:10:ca:41:71:b9:9e:15:41:6e:b9:59:
                    84:cb:27:79:bf:fb:41:a4:c0:39:86:ac:1f:42:4a:
                    57:c2:8a:e6:d5:f2:45:8b:55:21:52:36:d1:d7:89:
                    d7:aa:35:5e:ea:3b:38:94:8e:e5:eb:bc:1a:6e:da:
                    a2:91:6b:62:9c:cd:38:97:c7:70:29:0a:ad:ac:7c:
                    4c:54:a5:1a:77:f4:03:32:11:93:dc:64:69:e8:b1:
                    0e:28:97:5b:8b:68:98:cf:81:c0:e6:79:89:49:5f:
                    cc:38:82:9f:e5:9d:c8:9d:7a:d2:03:34:0c:a6:d2:
                    6f:87:2c:18:8a:90:ce:ec:af:07:96:4f:69:9b:60:
                    52:87:08:38:91:18:da:44:e6:a1:ef:2c:31:7c:e6:
                    ad:3d:fb:e0:f6:1b:05:a7:91:2a:a3:37:ab:70:e0:
                    e7:a6:26:35:a9:7d:a0:8d:d9:e8:31:db:4e:32:99:
                    bc:55:ca:8f:1e:0d:d6:c2:e6:2c:dd:27:4d:c4:22:
                    14:8e:0d:f2:30:08:4f:01:1a:75:b6:0a:c2:70:e3:
                    b0:f1:29:94:95:10:c9:a0:19:df:70:a1:57:71:bd:
                    fa:c0:df:f3:76:f8:74:95:c5:bd:24:9d:16:5e:a5:
                    21:7c:ee:90:93:ed:f3:2b:d6:49:75:0e:7b:ce:89:
                    ac:63:00:ac:14:8e:be:b3:e5:3b:94:2b:94:f8:70:
                    32:4e:5c:00:99:74:66:ec:3f:96:dc:bb:71:92:7b:
                    5a:f4:75:f3:7f:ca:54:c7:18:98:c3:87:cb:83:1f:
                    c8:da:ef:2f:c8:af:f0:0f:71:ef:73:1c:38:0c:da:
                    ac:da:ff:48:72:26:b5:ed:54:2a:2d:83:aa:ee:31:
                    8d:85:93:cc:f2:45:0e:62:20:8a:40:32:6d:ee:e3:
                    ea:5c:e4:dd:bf:0c:76:fe:59:9b:47:8e:8b:0d:28:
                    5d:a9:d3:b6:7b:77:0c:ae:14:40:67:37:b1:09:b1:
                    7e:be:53:7a:9b:e3:38:fc:c0:5a:37:01:94:48:9e:
                    ba:bd:de:1d:c6:c6:12:a5:00:95:67:8a:26:8e:83:
                    9a:46:f8:70:b3:00:48:3d:4f:26:8d:7a:4d:a2:b3:
                    e3:f8:d0:45:0a:00:02:a9:44:f8:dd:cb:54:ab:f0:
                    46:4b:ab:b4:4d:a3:af:e8:50:60:51:ac:09:91:46:
                    cb:e7:72:8c:9e:bd:01:ae:8a:15:d1:27:50:88:8d:
                    6d:97:57
                Exponent: 65537 (0x10001)
        X509v3 extensions:
            X509v3 Basic Constraints: 
                CA:FALSE
            Netscape Comment: 
                Easy-RSA Generated Certificate
            X509v3 Subject Key Identifier: 
                5B:71:89:B9:FA:72:C8:18:BC:13:FF:7D:A4:50:41:3D:C5:39:E3:05
            X509v3 Authority Key Identifier: 
                keyid:12:CD:60:04:D2:A0:80:9E:70:ED:C6:99:B8:7B:2C:C6:52:FD:19:A1
                DirName:/C=US/ST=OH/L=Columbus/O=VikingVPN/OU=MyOrganizationalUnit/CN=VikingVPN CA/name=EasyRSA/emailAddress=me@myhost.mydomain
                serial:CF:35:85:EE:80:BF:2A:3E

            X509v3 Extended Key Usage: 
                TLS Web Client Authentication
            X509v3 Key Usage: 
                Digital Signature
    Signature Algorithm: md5WithRSAEncryption
         29:0d:96:c9:49:9c:d4:54:88:3f:a7:ba:f6:14:ae:b1:b3:50:
         b1:ee:8d:b0:81:d1:a7:6c:45:3c:29:21:0e:67:5e:d7:e9:1c:
         d3:38:63:af:65:7e:d1:94:42:01:a9:e3:fd:2b:15:00:96:41:
         72:19:a6:94:79:92:fa:1c:2e:66:05:84:ac:2a:ae:4e:6d:91:
         23:b8:3d:9c:76:81:b8:5d:ee:2e:3e:86:f6:2e:58:c1:3f:94:
         f3:37:8f:da:79:34:2e:6c:1c:a0:3a:e3:5c:02:21:d7:79:f5:
         99:03:d4:d4:ea:21:0d:bc:14:ab:56:d9:53:05:88:b3:e1:58:
         25:1f:6b:8c:96:d8:24:83:84:f2:4a:22:23:5c:15:87:cd:f4:
         0d:75:22:c2:16:87:46:dd:ef:bd:25:a7:c3:3d:82:74:b6:50:
         98:84:f2:69:22:63:22:6b:f5:ae:a6:4f:25:dd:cd:be:8e:9b:
         52:97:0b:bb:fc:99:15:66:e7:b0:7b:b5:3f:0e:9e:0e:ed:69:
         1d:14:ff:6a:80:13:48:4c:cb:a7:49:56:e6:91:46:40:47:25:
         76:09:ba:a8:68:39:92:30:3f:8f:1a:ad:f8:17:b7:4c:a7:b8:
         73:4d:c8:1a:66:fc:4e:76:f0:36:c9:73:eb:20:8f:2e:84:0e:
         d1:fa:d3:9e:61:42:c8:9c:41:df:e3:1e:31:6d:6d:67:ff:09:
         e6:7d:76:fc:57:66:d0:d1:c4:80:94:a5:9a:c7:31:ed:0d:3d:
         41:fc:61:67:62:2f:24:31:1c:a8:3b:12:73:07:bc:79:7a:bd:
         3d:6a:14:ab:ca:8a:26:95:2b:0c:84:83:75:4a:63:28:28:44:
         8e:ce:b0:3e:42:a8:8f:00:7f:15:a3:bb:eb:27:29:91:72:04:
         47:c8:fa:95:ef:0d:b3:81:7d:d9:e2:29:8f:64:0c:c8:f6:a4:
         4c:af:c9:e9:8f:1b:03:02:d7:df:38:b6:a5:b2:cd:a2:3d:5f:
         09:f3:18:d7:8f:b3:c2:2e:d7:cf:13:6d:66:f0:d0:17:6b:f0:
         a8:ca:a5:38:d9:82:81:63:a5:94:f2:76:ba:60:aa:4d:3d:37:
         ce:ea:8a:d5:e5:24:3d:56:b6:ad:6a:4a:b1:0a:33:40:12:90:
         85:8c:48:2b:1a:9a:6f:26:f7:c9:18:8d:69:a6:2a:b9:f1:6e:
         2d:d8:7d:6e:e3:30:f8:29:4c:de:a1:6f:1f:48:f4:26:7e:f8:
         10:56:ac:a0:17:f4:6d:1d:2c:30:42:bf:ad:dd:be:a6:b2:97:
         4d:c3:6e:24:3d:fd:e4:1a:1e:54:0a:f8:be:32:00:9b:40:51:
         97:31:ca:fb:37:a0:20:c4
-----BEGIN CERTIFICATE-----
MIIGrDCCBJSgAwIBAgICCUMwDQYJKoZIhvcNAQEEBQAwgawxCzAJBgNVBAYTAlVT
MQswCQYDVQQIEwJPSDERMA8GA1UEBxMIQ29sdW1idXMxEjAQBgNVBAoTCVZpa2lu
Z1ZQTjEdMBsGA1UECxMUTXlPcmdhbml6YXRpb25hbFVuaXQxFTATBgNVBAMTDFZp
a2luZ1ZQTiBDQTEQMA4GA1UEKRMHRWFzeVJTQTEhMB8GCSqGSIb3DQEJARYSbWVA
bXlob3N0Lm15ZG9tYWluMB4XDTE0MDcyMzE3NDIwMloXDTI0MDcyMDE3NDIwMlow
HjEcMBoGA1UEAxMTQ2xpZW50ODMxQ2VydGY0NTUzNDCCAiIwDQYJKoZIhvcNAQEB
BQADggIPADCCAgoCggIBALSPT4d9I3HR+tCpReIjXY1Muo5HZB2tDmRW82WaKMkM
tmQEQZ5owm3iZ2qKmz7yrBDKQXG5nhVBbrlZhMsneb/7QaTAOYasH0JKV8KK5tXy
RYtVIVI20deJ16o1Xuo7OJSO5eu8Gm7aopFrYpzNOJfHcCkKrax8TFSlGnf0AzIR
k9xkaeixDiiXW4tomM+BwOZ5iUlfzDiCn+WdyJ160gM0DKbSb4csGIqQzuyvB5ZP
aZtgUocIOJEY2kTmoe8sMXzmrT374PYbBaeRKqM3q3Dg56YmNal9oI3Z6DHbTjKZ
vFXKjx4N1sLmLN0nTcQiFI4N8jAITwEadbYKwnDjsPEplJUQyaAZ33ChV3G9+sDf
83b4dJXFvSSdFl6lIXzukJPt8yvWSXUOe86JrGMArBSOvrPlO5QrlPhwMk5cAJl0
Zuw/lty7cZJ7WvR183/KVMcYmMOHy4MfyNrvL8iv8A9x73McOAzarNr/SHImte1U
Ki2Dqu4xjYWTzPJFDmIgikAybe7j6lzk3b8Mdv5Zm0eOiw0oXanTtnt3DK4UQGc3
sQmxfr5TepvjOPzAWjcBlEieur3eHcbGEqUAlWeKJo6Dmkb4cLMASD1PJo16TaKz
4/jQRQoAAqlE+N3LVKvwRkurtE2jr+hQYFGsCZFGy+dyjJ69Aa6KFdEnUIiNbZdX
AgMBAAGjggFjMIIBXzAJBgNVHRMEAjAAMC0GCWCGSAGG+EIBDQQgFh5FYXN5LVJT
QSBHZW5lcmF0ZWQgQ2VydGlmaWNhdGUwHQYDVR0OBBYEFFtxibn6csgYvBP/faRQ
QT3FOeMFMIHhBgNVHSMEgdkwgdaAFBLNYATSoICecO3Gmbh7LMZS/RmhoYGypIGv
MIGsMQswCQYDVQQGEwJVUzELMAkGA1UECBMCT0gxETAPBgNVBAcTCENvbHVtYnVz
MRIwEAYDVQQKEwlWaWtpbmdWUE4xHTAbBgNVBAsTFE15T3JnYW5pemF0aW9uYWxV
bml0MRUwEwYDVQQDEwxWaWtpbmdWUE4gQ0ExEDAOBgNVBCkTB0Vhc3lSU0ExITAf
BgkqhkiG9w0BCQEWEm1lQG15aG9zdC5teWRvbWFpboIJAM81he6Avyo+MBMGA1Ud
JQQMMAoGCCsGAQUFBwMCMAsGA1UdDwQEAwIHgDANBgkqhkiG9w0BAQQFAAOCAgEA
KQ2WyUmc1FSIP6e69hSusbNQse6NsIHRp2xFPCkhDmde1+kc0zhjr2V+0ZRCAanj
/SsVAJZBchmmlHmS+hwuZgWErCquTm2RI7g9nHaBuF3uLj6G9i5YwT+U8zeP2nk0
LmwcoDrjXAIh13n1mQPU1OohDbwUq1bZUwWIs+FYJR9rjJbYJIOE8koiI1wVh830
DXUiwhaHRt3vvSWnwz2CdLZQmITyaSJjImv1rqZPJd3Nvo6bUpcLu/yZFWbnsHu1
Pw6eDu1pHRT/aoATSEzLp0lW5pFGQEcldgm6qGg5kjA/jxqt+Be3TKe4c03IGmb8
TnbwNslz6yCPLoQO0frTnmFCyJxB3+MeMW1tZ/8J5n12/Fdm0NHEgJSlmscx7Q09
QfxhZ2IvJDEcqDsScwe8eXq9PWoUq8qKJpUrDISDdUpjKChEjs6wPkKojwB/FaO7
6ycpkXIER8j6le8Ns4F92eIpj2QMyPakTK/J6Y8bAwLX3zi2pbLNoj1fCfMY14+z
wi7XzxNtZvDQF2vwqMqlONmCgWOllPJ2umCqTT03zuqK1eUkPVa2rWpKsQozQBKQ
hYxIKxqabyb3yRiNaaYqufFuLdh9buMw+ClM3qFvH0j0Jn74EFasoBf0bR0sMEK/
rd2+prKXTcNuJD395BoeVAr4vjIAm0BRlzHK+zegIMQ=
-----END CERTIFICATE-----
