Certificate:
    Data:
        Version: 3 (0x2)
        Serial Number: 2417 (0x971)
    Signature Algorithm: md5WithRSAEncryption
        Issuer: C=US, ST=OH, L=Columbus, O=VikingVPN, OU=MyOrganizationalUnit, CN=VikingVPN CA/name=EasyRSA/emailAddress=me@myhost.mydomain
        Validity
            Not Before: Jul 30 22:00:03 2014 GMT
            Not After : Jul 27 22:00:03 2024 GMT
        Subject: CN=Client846Cert73ee77
        Subject Public Key Info:
            Public Key Algorithm: rsaEncryption
                Public-Key: (4096 bit)
                Modulus:
                    00:9b:98:74:95:3b:f9:0d:5e:0f:43:8e:f1:31:e6:
                    83:56:da:12:f2:66:34:d5:e7:43:63:cc:39:38:4b:
                    fc:dd:a1:b3:f9:6a:df:4c:3a:7c:63:d9:1d:8e:bf:
                    36:e4:be:86:c4:b8:2b:df:f3:74:52:82:0b:ac:57:
                    c4:d2:34:a1:05:77:9a:c3:af:c7:14:27:59:c1:5e:
                    75:fc:52:39:e3:2c:5b:6c:02:7c:71:65:30:ff:77:
                    da:27:24:75:91:73:8e:61:9a:56:24:e2:41:01:b5:
                    a2:49:79:19:d0:59:bd:d8:20:3e:2a:8f:df:7a:f0:
                    53:93:9c:b3:ed:f8:ce:85:81:3f:1d:9a:be:37:b5:
                    10:63:cf:61:fb:65:20:c6:d8:37:4e:0e:d1:6d:b5:
                    c8:a8:6e:62:35:04:c5:87:fd:67:0b:9b:1a:f1:71:
                    ea:82:66:40:31:5f:91:83:54:ef:27:6b:10:96:f1:
                    01:2d:fe:f8:f9:8e:6d:5e:e3:bd:92:d4:c1:9e:80:
                    bd:db:1a:33:0a:fe:dd:a8:4c:46:7e:0a:9b:03:3a:
                    a5:e1:be:51:2e:d4:04:b2:82:b4:f3:34:38:57:31:
                    15:ae:f3:44:f5:23:c2:d7:73:62:da:fb:05:66:1d:
                    bd:a7:28:07:37:48:59:f8:ff:5a:fd:34:b3:e8:39:
                    6c:28:c6:fd:9b:3d:63:53:bb:4a:45:7d:eb:0b:b5:
                    96:b7:74:bb:91:5d:1b:d0:c8:e7:0b:67:b0:f2:fc:
                    04:3d:47:02:4e:2b:bc:63:ef:ee:f1:e6:3b:87:99:
                    d5:fd:d4:b8:29:3b:34:5f:dc:3c:ed:b1:12:97:94:
                    d4:57:72:62:8f:c4:d4:28:e0:cc:78:f0:ce:e9:c7:
                    64:a0:12:65:83:7a:8a:ab:5d:42:78:18:b6:a8:7b:
                    77:15:f8:a7:dc:13:c2:3f:2f:88:1c:23:99:1a:9c:
                    09:7b:19:cf:45:a2:79:53:a1:e2:42:be:1f:22:82:
                    10:0c:44:56:94:69:53:39:cd:6f:a9:f7:d9:08:c0:
                    67:5b:fd:35:15:e1:65:10:55:36:7e:ab:dd:2d:0b:
                    bd:c4:c8:95:a5:36:58:89:fd:b8:78:86:13:1d:4e:
                    73:2a:29:70:96:27:e0:20:eb:bd:1b:94:0a:0c:dc:
                    91:cc:90:bd:6e:2f:22:77:45:85:4f:e1:66:1a:58:
                    ac:6a:be:fc:36:73:02:2d:3f:3c:fc:68:cc:f7:35:
                    1e:65:a1:5a:89:3a:be:04:d1:2d:5c:e8:24:f1:db:
                    66:56:79:36:4c:e6:6b:cf:f6:86:f5:9e:77:1d:89:
                    7b:28:f4:35:56:f3:7b:f9:ee:9f:2e:49:54:9b:4a:
                    24:85:2b
                Exponent: 65537 (0x10001)
        X509v3 extensions:
            X509v3 Basic Constraints: 
                CA:FALSE
            Netscape Comment: 
                Easy-RSA Generated Certificate
            X509v3 Subject Key Identifier: 
                23:5F:72:90:2E:7A:F5:C0:4B:CC:7B:FF:60:04:8B:95:C3:F1:17:3C
            X509v3 Authority Key Identifier: 
                keyid:12:CD:60:04:D2:A0:80:9E:70:ED:C6:99:B8:7B:2C:C6:52:FD:19:A1
                DirName:/C=US/ST=OH/L=Columbus/O=VikingVPN/OU=MyOrganizationalUnit/CN=VikingVPN CA/name=EasyRSA/emailAddress=me@myhost.mydomain
                serial:CF:35:85:EE:80:BF:2A:3E

            X509v3 Extended Key Usage: 
                TLS Web Client Authentication
            X509v3 Key Usage: 
                Digital Signature
    Signature Algorithm: md5WithRSAEncryption
         6c:74:1d:20:82:64:56:cd:a2:ec:67:93:d5:cc:32:2a:69:d7:
         61:77:9f:b6:a0:55:f4:38:1a:2e:6e:04:ad:9d:7b:88:15:9b:
         3f:d5:b0:54:f7:4c:be:e4:e9:79:dd:c5:8b:1b:0f:5e:db:59:
         66:14:04:6f:1c:50:9d:ff:01:86:5b:75:cd:64:3a:05:e1:bc:
         22:b0:63:91:7b:29:53:f5:ee:ae:b7:d9:7a:9f:91:f0:a7:cc:
         7e:04:a0:6a:eb:df:93:51:e5:e3:c4:ef:53:fe:b8:bc:d4:6f:
         ab:d7:45:3d:2e:8e:fc:0a:5d:47:01:e3:42:44:20:8f:3c:b1:
         3f:92:3d:9e:8f:6f:aa:79:b3:9c:1a:fa:62:50:71:c6:34:ad:
         52:2c:9e:ea:08:7c:c5:89:57:cd:d6:54:7b:72:79:c3:f8:6b:
         1c:a7:4f:c8:43:f8:95:4c:e0:a1:e0:c6:60:cd:f8:42:26:de:
         6d:ba:2e:1f:e5:4d:9d:97:d4:a3:d2:eb:19:bc:35:1e:98:6d:
         86:2b:80:8f:82:7d:5a:13:17:0c:2f:f2:fc:16:da:3c:fb:55:
         90:5e:9f:97:13:b1:68:05:1f:4b:14:87:d2:b6:86:19:3b:4e:
         47:fe:1d:47:8f:82:fd:ea:69:70:76:5f:57:48:dc:f5:9a:fd:
         f0:a5:ac:2d:af:9a:b3:17:f4:55:d2:76:89:13:e1:48:b4:74:
         fc:b7:2f:38:a2:b2:25:24:5f:75:be:20:be:98:6c:1e:aa:a8:
         a5:36:ba:06:73:61:b2:ba:b0:ab:a7:33:be:23:0c:f1:1c:a7:
         fe:0b:4f:cf:4e:cb:1e:df:55:6b:ab:75:c4:62:51:75:8f:0c:
         ad:47:06:81:5c:4f:48:66:c2:b4:d0:c8:3a:35:16:0b:e8:7b:
         fb:67:be:ea:fa:da:43:3e:d7:92:29:84:1c:9b:b9:3c:0b:2e:
         0c:4c:8b:34:e5:99:e4:08:1f:8a:18:e3:5b:e8:b3:d4:c8:18:
         9f:f9:7a:ec:43:1a:ec:98:46:eb:f6:73:c9:50:16:82:36:c7:
         e1:f1:e7:5d:6f:2e:de:92:e1:bf:3d:3e:54:f4:9f:67:cb:ba:
         1d:06:8d:5d:a9:2b:8e:d8:99:55:4d:99:84:c0:de:b1:68:0b:
         52:aa:47:b5:46:d9:f1:1b:ea:13:74:3c:32:e6:cd:69:15:f6:
         09:ef:8f:61:41:3c:1a:45:ff:5d:37:ab:2d:e5:6f:37:31:04:
         35:f0:3e:6d:3b:e4:71:53:8f:17:6f:c8:ed:0b:ac:16:18:87:
         ae:fc:e5:4e:2c:cf:11:73:42:7c:4f:7f:7a:df:9b:1d:a3:e7:
         d7:a1:63:ae:b8:01:2c:b1
-----BEGIN CERTIFICATE-----
MIIGrDCCBJSgAwIBAgICCXEwDQYJKoZIhvcNAQEEBQAwgawxCzAJBgNVBAYTAlVT
MQswCQYDVQQIEwJPSDERMA8GA1UEBxMIQ29sdW1idXMxEjAQBgNVBAoTCVZpa2lu
Z1ZQTjEdMBsGA1UECxMUTXlPcmdhbml6YXRpb25hbFVuaXQxFTATBgNVBAMTDFZp
a2luZ1ZQTiBDQTEQMA4GA1UEKRMHRWFzeVJTQTEhMB8GCSqGSIb3DQEJARYSbWVA
bXlob3N0Lm15ZG9tYWluMB4XDTE0MDczMDIyMDAwM1oXDTI0MDcyNzIyMDAwM1ow
HjEcMBoGA1UEAxMTQ2xpZW50ODQ2Q2VydDczZWU3NzCCAiIwDQYJKoZIhvcNAQEB
BQADggIPADCCAgoCggIBAJuYdJU7+Q1eD0OO8THmg1baEvJmNNXnQ2PMOThL/N2h
s/lq30w6fGPZHY6/NuS+hsS4K9/zdFKCC6xXxNI0oQV3msOvxxQnWcFedfxSOeMs
W2wCfHFlMP932ickdZFzjmGaViTiQQG1okl5GdBZvdggPiqP33rwU5Ocs+34zoWB
Px2avje1EGPPYftlIMbYN04O0W21yKhuYjUExYf9ZwubGvFx6oJmQDFfkYNU7ydr
EJbxAS3++PmObV7jvZLUwZ6AvdsaMwr+3ahMRn4KmwM6peG+US7UBLKCtPM0OFcx
Fa7zRPUjwtdzYtr7BWYdvacoBzdIWfj/Wv00s+g5bCjG/Zs9Y1O7SkV96wu1lrd0
u5FdG9DI5wtnsPL8BD1HAk4rvGPv7vHmO4eZ1f3UuCk7NF/cPO2xEpeU1FdyYo/E
1CjgzHjwzunHZKASZYN6iqtdQngYtqh7dxX4p9wTwj8viBwjmRqcCXsZz0WieVOh
4kK+HyKCEAxEVpRpUznNb6n32QjAZ1v9NRXhZRBVNn6r3S0LvcTIlaU2WIn9uHiG
Ex1OcyopcJYn4CDrvRuUCgzckcyQvW4vIndFhU/hZhpYrGq+/DZzAi0/PPxozPc1
HmWhWok6vgTRLVzoJPHbZlZ5Nkzma8/2hvWedx2Jeyj0NVbze/nuny5JVJtKJIUr
AgMBAAGjggFjMIIBXzAJBgNVHRMEAjAAMC0GCWCGSAGG+EIBDQQgFh5FYXN5LVJT
QSBHZW5lcmF0ZWQgQ2VydGlmaWNhdGUwHQYDVR0OBBYEFCNfcpAuevXAS8x7/2AE
i5XD8Rc8MIHhBgNVHSMEgdkwgdaAFBLNYATSoICecO3Gmbh7LMZS/RmhoYGypIGv
MIGsMQswCQYDVQQGEwJVUzELMAkGA1UECBMCT0gxETAPBgNVBAcTCENvbHVtYnVz
MRIwEAYDVQQKEwlWaWtpbmdWUE4xHTAbBgNVBAsTFE15T3JnYW5pemF0aW9uYWxV
bml0MRUwEwYDVQQDEwxWaWtpbmdWUE4gQ0ExEDAOBgNVBCkTB0Vhc3lSU0ExITAf
BgkqhkiG9w0BCQEWEm1lQG15aG9zdC5teWRvbWFpboIJAM81he6Avyo+MBMGA1Ud
JQQMMAoGCCsGAQUFBwMCMAsGA1UdDwQEAwIHgDANBgkqhkiG9w0BAQQFAAOCAgEA
bHQdIIJkVs2i7GeT1cwyKmnXYXeftqBV9DgaLm4ErZ17iBWbP9WwVPdMvuTped3F
ixsPXttZZhQEbxxQnf8Bhlt1zWQ6BeG8IrBjkXspU/XurrfZep+R8KfMfgSgauvf
k1Hl48TvU/64vNRvq9dFPS6O/ApdRwHjQkQgjzyxP5I9no9vqnmznBr6YlBxxjSt
Uiye6gh8xYlXzdZUe3J5w/hrHKdPyEP4lUzgoeDGYM34QibebbouH+VNnZfUo9Lr
Gbw1HphthiuAj4J9WhMXDC/y/BbaPPtVkF6flxOxaAUfSxSH0raGGTtOR/4dR4+C
/eppcHZfV0jc9Zr98KWsLa+asxf0VdJ2iRPhSLR0/LcvOKKyJSRfdb4gvphsHqqo
pTa6BnNhsrqwq6czviMM8Ryn/gtPz07LHt9Va6t1xGJRdY8MrUcGgVxPSGbCtNDI
OjUWC+h7+2e+6vraQz7XkimEHJu5PAsuDEyLNOWZ5AgfihjjW+iz1MgYn/l67EMa
7JhG6/ZzyVAWgjbH4fHnXW8u3pLhvz0+VPSfZ8u6HQaNXakrjtiZVU2ZhMDesWgL
UqpHtUbZ8RvqE3Q8MubNaRX2Ce+PYUE8GkX/XTerLeVvNzEENfA+bTvkcVOPF2/I
7QusFhiHrvzlTizPEXNCfE9/et+bHaPn16FjrrgBLLE=
-----END CERTIFICATE-----
