Certificate:
    Data:
        Version: 3 (0x2)
        Serial Number: 10670 (0x29ae)
    Signature Algorithm: sha256WithRSAEncryption
        Issuer: C=US, ST=OH, L=Columbus, O=VikingVPN, OU=MyOrganizationalUnit, CN=VikingVPN CA/name=EasyRSA/emailAddress=me@myhost.mydomain
        Validity
            Not Before: Apr 18 03:44:12 2017 GMT
            Not After : Apr 16 03:44:12 2027 GMT
        Subject: CN=Client2869Cert8e17ef
        Subject Public Key Info:
            Public Key Algorithm: rsaEncryption
                Public-Key: (4096 bit)
                Modulus:
                    00:d5:f1:5e:32:8f:06:4f:f6:17:41:b6:a3:84:e3:
                    02:08:4f:e6:5c:90:a1:d3:89:7b:ee:f5:d7:69:15:
                    7f:4d:fc:16:f6:5c:4f:37:bf:2b:6c:87:c7:cb:28:
                    ae:96:7b:9f:60:76:73:41:ee:83:13:0a:5c:6d:19:
                    81:36:fd:50:f9:fe:8e:cb:6f:ea:ce:22:c5:e2:93:
                    0e:3d:5b:10:61:37:eb:36:47:47:fc:56:b1:a0:59:
                    73:49:e0:b2:2d:8f:8f:0d:29:d2:79:e1:a2:41:3a:
                    47:a5:46:0c:98:6a:50:9b:46:31:10:cf:f5:a2:09:
                    9e:50:d6:a3:aa:0b:63:5c:29:3b:04:97:4b:5b:d2:
                    f7:fb:7f:cf:23:90:0e:ea:4e:a7:e6:2b:f5:f4:42:
                    77:d0:57:aa:3b:93:7a:c1:c1:b4:c2:d9:8a:44:89:
                    2e:d3:d0:f6:d9:6a:7d:f5:5e:64:a5:4c:44:2c:44:
                    ee:9d:56:8f:21:61:71:eb:6c:54:ec:b5:aa:f5:1c:
                    25:b6:e8:c0:f9:aa:a4:d1:a3:3e:82:0a:e4:bc:bd:
                    cc:eb:46:da:78:a8:47:1c:75:63:bd:2d:91:3a:5e:
                    f1:bf:46:58:87:68:f6:ee:a8:c7:2a:9a:a7:52:25:
                    c4:f2:c1:7d:d3:d7:39:0d:f5:f9:07:94:ce:d4:fd:
                    44:cd:95:c0:cd:41:aa:37:8c:d2:39:73:f2:f5:d1:
                    6b:8f:2a:7f:8f:8f:72:9a:96:35:6f:3d:ec:83:bc:
                    7f:9c:a0:62:8f:42:51:81:5f:42:f2:0c:6b:87:93:
                    f1:25:18:b0:c2:1e:91:1b:aa:96:de:b5:3c:f5:0c:
                    6c:f9:bb:29:8b:36:4a:ea:ca:a7:52:76:e5:37:65:
                    7e:ae:3f:09:0d:88:b3:cf:0f:cc:1f:31:cd:02:0a:
                    6c:7f:1b:19:17:b3:f9:1e:d4:29:62:2d:2f:f5:c3:
                    f0:9c:c0:0e:34:19:3a:e9:62:a0:ad:ed:d7:04:61:
                    08:c7:ac:8f:93:06:1a:d1:e6:91:61:7f:f1:96:4d:
                    a7:4f:f5:bf:42:85:52:07:6b:59:0c:e0:80:1c:c4:
                    b3:27:45:20:ea:95:d4:f2:d5:2b:9d:66:7d:28:66:
                    04:eb:db:58:5f:e0:0d:07:d6:4d:88:26:19:47:62:
                    76:7e:4b:74:b7:c9:6b:f3:50:7f:55:dc:9e:12:89:
                    5e:4c:cf:1a:9d:ff:57:c1:ce:34:dd:d9:d8:2f:20:
                    06:a9:ae:7e:42:9a:53:d3:0e:70:eb:e3:2c:92:d2:
                    e5:b8:a0:01:eb:55:57:c1:de:8b:12:d6:68:8e:97:
                    7f:e6:21:2c:3f:9c:78:03:73:c2:c1:0b:8c:ca:16:
                    3c:19:f3
                Exponent: 65537 (0x10001)
        X509v3 extensions:
            X509v3 Basic Constraints: 
                CA:FALSE
            Netscape Comment: 
                Easy-RSA Generated Certificate
            X509v3 Subject Key Identifier: 
                CE:41:25:5E:B5:38:9C:9D:99:1F:4C:D8:BC:76:5D:65:1F:8F:4F:F7
            X509v3 Authority Key Identifier: 
                keyid:12:CD:60:04:D2:A0:80:9E:70:ED:C6:99:B8:7B:2C:C6:52:FD:19:A1
                DirName:/C=US/ST=OH/L=Columbus/O=VikingVPN/OU=MyOrganizationalUnit/CN=VikingVPN CA/name=EasyRSA/emailAddress=me@myhost.mydomain
                serial:CF:35:85:EE:80:BF:2A:3E

            X509v3 Extended Key Usage: 
                TLS Web Client Authentication
            X509v3 Key Usage: 
                Digital Signature
    Signature Algorithm: sha256WithRSAEncryption
         bc:a8:6c:47:60:86:e4:d2:c9:a0:c7:c3:f2:2e:3c:8d:2f:63:
         e5:3e:23:da:93:38:fe:64:83:ed:16:b9:c9:8f:30:bb:57:f6:
         27:a7:07:da:3a:38:54:b0:e7:c4:d5:35:4c:81:4d:21:bc:e8:
         e1:bf:5d:93:17:64:da:e8:68:34:22:db:86:da:73:b7:9c:24:
         91:ba:8f:df:3f:8a:79:57:78:64:6b:45:b4:c1:67:6c:5e:03:
         7a:56:3e:e5:ff:6c:32:75:ac:06:2f:0c:d6:07:65:73:70:ce:
         af:22:a8:6f:29:af:2b:79:25:85:fc:68:a3:a0:e3:c9:bd:f6:
         70:7d:47:72:e1:84:62:2d:8a:22:85:a9:bb:e2:0f:f3:84:a7:
         af:22:a0:70:13:82:98:f8:e9:4f:3e:54:85:88:c3:21:24:a4:
         77:a6:98:ba:13:f5:57:b1:9c:fe:7f:8b:64:20:26:8a:bd:a6:
         03:88:99:4c:99:53:99:10:ac:5e:04:96:b3:3c:8f:f0:01:85:
         f0:45:b6:9f:1a:be:42:93:44:9d:b5:42:ec:ba:4d:90:7e:b8:
         ca:7c:7f:1b:92:41:69:75:22:1b:e6:3e:03:bc:b6:89:52:d3:
         f2:12:71:ea:6f:84:a9:6e:21:3f:db:20:5b:69:b9:94:d9:e3:
         c0:ee:b8:d6:09:fe:24:c1:bc:b9:40:8b:6a:00:8f:f3:38:c1:
         ef:a7:55:fb:55:6b:2f:28:cc:fb:56:0a:96:e1:ed:3f:56:e7:
         e7:d6:09:ea:7a:f1:e2:b5:0e:68:22:d0:ed:60:03:44:7e:b5:
         ec:8c:b5:e0:9c:7f:7f:08:8c:ad:e8:0b:5c:95:b6:bf:11:87:
         ee:ce:a5:7e:95:90:aa:85:18:4a:f7:a0:6a:7d:63:ab:f1:24:
         81:b2:3f:9a:55:07:30:2e:18:90:3b:cd:86:d9:60:76:be:42:
         6b:fd:82:f7:08:02:2c:c4:9c:cd:1f:e9:70:4d:bf:f3:25:87:
         1b:d5:30:ab:60:8f:57:4b:f0:58:15:8b:e8:29:3f:31:e3:13:
         57:fe:61:7b:fa:43:15:1c:2c:79:98:1c:e8:b1:75:f0:72:80:
         1a:79:6a:1d:49:b5:44:3f:d6:07:f4:1a:d8:77:12:16:62:e8:
         ef:77:a7:b5:90:77:a1:d6:c3:90:24:30:0b:42:5f:cd:d7:fe:
         27:11:ca:69:a9:23:50:e7:f0:21:53:77:3a:bb:55:e6:ce:ec:
         36:e4:a5:48:23:f4:5d:aa:77:03:24:f2:ae:98:43:84:6e:f1:
         47:6d:1b:f5:b3:82:5b:82:68:57:69:19:b9:06:63:10:27:a7:
         fb:2a:65:35:ce:0c:7c:26
-----BEGIN CERTIFICATE-----
MIIGrTCCBJWgAwIBAgICKa4wDQYJKoZIhvcNAQELBQAwgawxCzAJBgNVBAYTAlVT
MQswCQYDVQQIEwJPSDERMA8GA1UEBxMIQ29sdW1idXMxEjAQBgNVBAoTCVZpa2lu
Z1ZQTjEdMBsGA1UECxMUTXlPcmdhbml6YXRpb25hbFVuaXQxFTATBgNVBAMTDFZp
a2luZ1ZQTiBDQTEQMA4GA1UEKRMHRWFzeVJTQTEhMB8GCSqGSIb3DQEJARYSbWVA
bXlob3N0Lm15ZG9tYWluMB4XDTE3MDQxODAzNDQxMloXDTI3MDQxNjAzNDQxMlow
HzEdMBsGA1UEAxMUQ2xpZW50Mjg2OUNlcnQ4ZTE3ZWYwggIiMA0GCSqGSIb3DQEB
AQUAA4ICDwAwggIKAoICAQDV8V4yjwZP9hdBtqOE4wIIT+ZckKHTiXvu9ddpFX9N
/Bb2XE83vytsh8fLKK6We59gdnNB7oMTClxtGYE2/VD5/o7Lb+rOIsXikw49WxBh
N+s2R0f8VrGgWXNJ4LItj48NKdJ54aJBOkelRgyYalCbRjEQz/WiCZ5Q1qOqC2Nc
KTsEl0tb0vf7f88jkA7qTqfmK/X0QnfQV6o7k3rBwbTC2YpEiS7T0PbZan31XmSl
TEQsRO6dVo8hYXHrbFTstar1HCW26MD5qqTRoz6CCuS8vczrRtp4qEccdWO9LZE6
XvG/RliHaPbuqMcqmqdSJcTywX3T1zkN9fkHlM7U/UTNlcDNQao3jNI5c/L10WuP
Kn+Pj3KaljVvPeyDvH+coGKPQlGBX0LyDGuHk/ElGLDCHpEbqpbetTz1DGz5uymL
NkrqyqdSduU3ZX6uPwkNiLPPD8wfMc0CCmx/GxkXs/ke1CliLS/1w/CcwA40GTrp
YqCt7dcEYQjHrI+TBhrR5pFhf/GWTadP9b9ChVIHa1kM4IAcxLMnRSDqldTy1Sud
Zn0oZgTr21hf4A0H1k2IJhlHYnZ+S3S3yWvzUH9V3J4SiV5Mzxqd/1fBzjTd2dgv
IAaprn5CmlPTDnDr4yyS0uW4oAHrVVfB3osS1miOl3/mISw/nHgDc8LBC4zKFjwZ
8wIDAQABo4IBYzCCAV8wCQYDVR0TBAIwADAtBglghkgBhvhCAQ0EIBYeRWFzeS1S
U0EgR2VuZXJhdGVkIENlcnRpZmljYXRlMB0GA1UdDgQWBBTOQSVetTicnZkfTNi8
dl1lH49P9zCB4QYDVR0jBIHZMIHWgBQSzWAE0qCAnnDtxpm4eyzGUv0ZoaGBsqSB
rzCBrDELMAkGA1UEBhMCVVMxCzAJBgNVBAgTAk9IMREwDwYDVQQHEwhDb2x1bWJ1
czESMBAGA1UEChMJVmlraW5nVlBOMR0wGwYDVQQLExRNeU9yZ2FuaXphdGlvbmFs
VW5pdDEVMBMGA1UEAxMMVmlraW5nVlBOIENBMRAwDgYDVQQpEwdFYXN5UlNBMSEw
HwYJKoZIhvcNAQkBFhJtZUBteWhvc3QubXlkb21haW6CCQDPNYXugL8qPjATBgNV
HSUEDDAKBggrBgEFBQcDAjALBgNVHQ8EBAMCB4AwDQYJKoZIhvcNAQELBQADggIB
ALyobEdghuTSyaDHw/IuPI0vY+U+I9qTOP5kg+0WucmPMLtX9ienB9o6OFSw58TV
NUyBTSG86OG/XZMXZNroaDQi24bac7ecJJG6j98/inlXeGRrRbTBZ2xeA3pWPuX/
bDJ1rAYvDNYHZXNwzq8iqG8pryt5JYX8aKOg48m99nB9R3LhhGItiiKFqbviD/OE
p68ioHATgpj46U8+VIWIwyEkpHemmLoT9VexnP5/i2QgJoq9pgOImUyZU5kQrF4E
lrM8j/ABhfBFtp8avkKTRJ21Quy6TZB+uMp8fxuSQWl1IhvmPgO8tolS0/IScepv
hKluIT/bIFtpuZTZ48DuuNYJ/iTBvLlAi2oAj/M4we+nVftVay8ozPtWCpbh7T9W
5+fWCep68eK1Dmgi0O1gA0R+teyMteCcf38IjK3oC1yVtr8Rh+7OpX6VkKqFGEr3
oGp9Y6vxJIGyP5pVBzAuGJA7zYbZYHa+Qmv9gvcIAizEnM0f6XBNv/MlhxvVMKtg
j1dL8FgVi+gpPzHjE1f+YXv6QxUcLHmYHOixdfBygBp5ah1JtUQ/1gf0Gth3EhZi
6O93p7WQd6HWw5AkMAtCX83X/icRymmpI1Dn8CFTdzq7VebO7DbkpUgj9F2qdwMk
8q6YQ4Ru8UdtG/WzgluCaFdpGbkGYxAnp/sqZTXODHwm
-----END CERTIFICATE-----
