Certificate:
    Data:
        Version: 3 (0x2)
        Serial Number: 2008 (0x7d8)
    Signature Algorithm: md5WithRSAEncryption
        Issuer: C=US, ST=OH, L=Columbus, O=VikingVPN, OU=MyOrganizationalUnit, CN=VikingVPN CA/name=EasyRSA/emailAddress=me@myhost.mydomain
        Validity
            Not Before: Jun  3 09:08:45 2014 GMT
            Not After : May 31 09:08:45 2024 GMT
        Subject: CN=Client690Cert6b404a
        Subject Public Key Info:
            Public Key Algorithm: rsaEncryption
                Public-Key: (4096 bit)
                Modulus:
                    00:b3:f1:80:90:71:58:df:65:a8:3a:5c:c5:ed:e6:
                    34:93:88:6a:3c:db:32:8b:c1:48:02:0d:6f:ad:42:
                    fa:cc:28:1b:a5:91:b3:77:03:6c:57:dd:3c:14:d0:
                    32:c7:5b:d3:86:a2:4b:55:b2:e2:ed:a6:59:97:cb:
                    d1:d8:a8:b2:7d:fd:5b:0b:43:57:07:b4:25:f7:3e:
                    cc:6f:7b:84:b9:c7:d3:19:6d:7a:0e:ed:9d:59:57:
                    08:74:ca:59:43:b5:5d:1a:6d:bf:af:74:1d:e2:2f:
                    ae:7a:02:89:a0:9c:27:61:0c:8a:81:84:be:bf:67:
                    26:0f:8f:ae:fd:9c:be:35:93:fe:07:c4:6d:1f:5c:
                    bf:45:b0:95:21:90:16:8e:94:67:a7:b4:cf:b0:f4:
                    dd:70:b7:67:5b:cd:4f:a2:fb:58:fa:9e:fb:36:24:
                    8a:76:f2:cd:0e:0e:25:f6:65:e4:63:a6:09:d6:2d:
                    36:a5:48:1b:79:68:45:79:71:f0:05:4d:59:ab:a1:
                    89:28:41:d8:68:10:e0:8f:07:dd:42:ab:25:a2:50:
                    69:46:23:70:b6:59:26:27:56:0c:97:67:20:74:b4:
                    1c:27:09:de:1f:ea:8a:4f:66:a9:e5:8d:d6:40:48:
                    9d:59:ea:71:ee:ce:e6:aa:23:56:cf:da:64:3f:50:
                    b2:17:2b:51:8d:f9:d0:e6:76:1e:79:12:85:36:e7:
                    28:5c:0e:d4:5c:7e:93:df:ce:52:a0:21:7f:2c:1b:
                    49:e3:f0:a3:45:ff:af:73:fe:e4:7f:1d:44:34:19:
                    66:ea:b0:4b:88:92:57:8c:33:36:f5:83:4d:49:5b:
                    dd:3d:cb:d5:d3:61:8d:a6:aa:84:ca:8f:6e:62:1a:
                    e2:86:06:59:d4:c8:57:dc:b8:19:41:7a:02:22:25:
                    08:77:20:75:64:59:db:a4:ed:0f:e0:27:68:bd:f9:
                    4b:6a:c2:e5:a3:30:d5:0b:67:08:5f:5a:84:fc:ca:
                    b4:5f:0d:c3:97:bc:27:17:9c:77:7c:e1:fc:e6:94:
                    a6:50:4b:b7:a0:cb:ca:3d:01:43:13:17:85:4a:3b:
                    5a:1e:d6:b3:15:4b:bf:63:dc:41:36:ca:5d:54:04:
                    7d:6b:13:26:8d:1e:f4:10:49:e9:79:3c:4a:cf:40:
                    0c:dc:b6:58:04:bf:c9:71:8f:ad:f4:8d:31:11:d9:
                    30:90:49:a7:a4:b1:5f:b9:15:11:c4:c6:69:3e:98:
                    13:40:b3:fb:77:2d:94:2e:f6:62:53:e4:95:4d:2b:
                    9f:0a:68:34:f5:a6:66:b3:8f:40:df:a0:d8:e5:ca:
                    0d:98:f7:15:c8:a3:e6:c1:d5:92:43:10:52:8c:66:
                    be:70:41
                Exponent: 65537 (0x10001)
        X509v3 extensions:
            X509v3 Basic Constraints: 
                CA:FALSE
            Netscape Comment: 
                Easy-RSA Generated Certificate
            X509v3 Subject Key Identifier: 
                E6:0A:8F:40:56:A4:F9:F4:A8:E7:5E:96:2E:55:B9:BD:37:75:C0:70
            X509v3 Authority Key Identifier: 
                keyid:12:CD:60:04:D2:A0:80:9E:70:ED:C6:99:B8:7B:2C:C6:52:FD:19:A1
                DirName:/C=US/ST=OH/L=Columbus/O=VikingVPN/OU=MyOrganizationalUnit/CN=VikingVPN CA/name=EasyRSA/emailAddress=me@myhost.mydomain
                serial:CF:35:85:EE:80:BF:2A:3E

            X509v3 Extended Key Usage: 
                TLS Web Client Authentication
            X509v3 Key Usage: 
                Digital Signature
    Signature Algorithm: md5WithRSAEncryption
         45:6b:07:5a:d0:09:06:04:f1:c0:78:12:18:28:6e:d7:08:71:
         ea:fc:41:0a:a0:37:ca:db:3f:21:3b:0b:fa:a2:78:2b:32:9d:
         32:9b:90:82:02:bb:4e:6c:7b:5a:7c:91:d4:03:bc:10:5c:6f:
         22:46:eb:b8:84:b6:1a:6f:89:43:d3:7b:f3:12:70:91:65:fc:
         01:87:50:8f:f6:8c:1e:7b:dc:ee:c2:db:6b:e1:b5:bb:34:11:
         20:05:77:4a:c9:6a:88:08:da:c8:b5:9c:1b:aa:d8:ea:d1:66:
         46:32:01:3f:19:09:c9:92:af:57:cf:07:26:5a:c3:72:cd:71:
         99:b5:68:22:52:3a:f5:09:02:56:aa:33:e8:02:cc:cb:48:e5:
         a2:00:ff:42:2a:aa:18:d7:1e:d1:1f:85:86:43:af:a1:0b:fe:
         2e:5b:8a:f4:89:20:24:91:d8:52:df:37:07:a5:6d:1c:84:1d:
         b1:3d:64:17:4b:b6:2a:fd:7e:2a:47:74:76:95:10:b0:ea:fb:
         a3:ed:e7:2b:60:7d:0a:01:c7:90:08:12:b0:9d:26:79:5f:21:
         22:cd:f3:bb:7b:2f:a5:d3:b7:42:1a:ca:25:f5:fe:1a:3a:44:
         fe:9e:f9:9b:72:af:40:b1:19:a1:7f:14:ba:1b:12:41:76:7a:
         a4:f4:7e:e5:27:18:24:7b:56:f8:48:45:55:dd:64:74:f9:40:
         c4:34:b7:d7:32:ba:87:af:e0:11:81:3a:97:95:7c:7f:cc:cc:
         a3:3c:98:40:a1:e9:36:03:4e:0e:fa:00:c0:d8:5f:46:17:86:
         db:bf:4e:f6:52:60:dd:1d:42:6e:68:71:7e:63:cf:11:7f:6b:
         49:f8:95:ad:54:f3:63:3a:26:27:64:c7:e3:e1:d6:14:a0:1f:
         47:4f:cf:cb:2c:7a:41:b2:78:ec:6a:e8:d7:e3:0d:16:0c:d8:
         b1:d7:b9:8b:32:80:ec:4f:77:f8:9c:43:61:fb:38:c7:79:43:
         a1:0d:46:7d:69:3f:e2:16:0e:27:86:fa:47:86:0c:76:28:58:
         83:91:2c:27:f3:88:63:ca:68:fd:68:0d:04:9c:ec:ca:f3:42:
         b6:4a:8c:c4:08:3a:21:66:d2:09:28:d2:9c:b0:3b:e4:f0:74:
         7c:ae:75:c0:7d:a5:9b:da:48:d0:4b:6f:3a:99:73:e6:f0:21:
         d6:a5:71:33:c0:6b:87:2f:0e:db:db:0d:b4:94:e6:5a:c5:36:
         c3:9e:28:ca:d9:29:e8:07:61:3f:aa:26:9b:cd:77:e0:8f:a2:
         ef:60:32:8a:d8:0c:f3:f9:e1:ca:52:cf:58:c5:61:36:ec:81:
         09:58:30:e8:2a:d5:98:b4
-----BEGIN CERTIFICATE-----
MIIGrDCCBJSgAwIBAgICB9gwDQYJKoZIhvcNAQEEBQAwgawxCzAJBgNVBAYTAlVT
MQswCQYDVQQIEwJPSDERMA8GA1UEBxMIQ29sdW1idXMxEjAQBgNVBAoTCVZpa2lu
Z1ZQTjEdMBsGA1UECxMUTXlPcmdhbml6YXRpb25hbFVuaXQxFTATBgNVBAMTDFZp
a2luZ1ZQTiBDQTEQMA4GA1UEKRMHRWFzeVJTQTEhMB8GCSqGSIb3DQEJARYSbWVA
bXlob3N0Lm15ZG9tYWluMB4XDTE0MDYwMzA5MDg0NVoXDTI0MDUzMTA5MDg0NVow
HjEcMBoGA1UEAxMTQ2xpZW50NjkwQ2VydDZiNDA0YTCCAiIwDQYJKoZIhvcNAQEB
BQADggIPADCCAgoCggIBALPxgJBxWN9lqDpcxe3mNJOIajzbMovBSAINb61C+swo
G6WRs3cDbFfdPBTQMsdb04aiS1Wy4u2mWZfL0diosn39WwtDVwe0Jfc+zG97hLnH
0xlteg7tnVlXCHTKWUO1XRptv690HeIvrnoCiaCcJ2EMioGEvr9nJg+Prv2cvjWT
/gfEbR9cv0WwlSGQFo6UZ6e0z7D03XC3Z1vNT6L7WPqe+zYkinbyzQ4OJfZl5GOm
CdYtNqVIG3loRXlx8AVNWauhiShB2GgQ4I8H3UKrJaJQaUYjcLZZJidWDJdnIHS0
HCcJ3h/qik9mqeWN1kBInVnqce7O5qojVs/aZD9QshcrUY350OZ2HnkShTbnKFwO
1Fx+k9/OUqAhfywbSePwo0X/r3P+5H8dRDQZZuqwS4iSV4wzNvWDTUlb3T3L1dNh
jaaqhMqPbmIa4oYGWdTIV9y4GUF6AiIlCHcgdWRZ26TtD+AnaL35S2rC5aMw1Qtn
CF9ahPzKtF8Nw5e8Jxecd3zh/OaUplBLt6DLyj0BQxMXhUo7Wh7WsxVLv2PcQTbK
XVQEfWsTJo0e9BBJ6Xk8Ss9ADNy2WAS/yXGPrfSNMRHZMJBJp6SxX7kVEcTGaT6Y
E0Cz+3ctlC72YlPklU0rnwpoNPWmZrOPQN+g2OXKDZj3Fcij5sHVkkMQUoxmvnBB
AgMBAAGjggFjMIIBXzAJBgNVHRMEAjAAMC0GCWCGSAGG+EIBDQQgFh5FYXN5LVJT
QSBHZW5lcmF0ZWQgQ2VydGlmaWNhdGUwHQYDVR0OBBYEFOYKj0BWpPn0qOdeli5V
ub03dcBwMIHhBgNVHSMEgdkwgdaAFBLNYATSoICecO3Gmbh7LMZS/RmhoYGypIGv
MIGsMQswCQYDVQQGEwJVUzELMAkGA1UECBMCT0gxETAPBgNVBAcTCENvbHVtYnVz
MRIwEAYDVQQKEwlWaWtpbmdWUE4xHTAbBgNVBAsTFE15T3JnYW5pemF0aW9uYWxV
bml0MRUwEwYDVQQDEwxWaWtpbmdWUE4gQ0ExEDAOBgNVBCkTB0Vhc3lSU0ExITAf
BgkqhkiG9w0BCQEWEm1lQG15aG9zdC5teWRvbWFpboIJAM81he6Avyo+MBMGA1Ud
JQQMMAoGCCsGAQUFBwMCMAsGA1UdDwQEAwIHgDANBgkqhkiG9w0BAQQFAAOCAgEA
RWsHWtAJBgTxwHgSGChu1whx6vxBCqA3yts/ITsL+qJ4KzKdMpuQggK7Tmx7WnyR
1AO8EFxvIkbruIS2Gm+JQ9N78xJwkWX8AYdQj/aMHnvc7sLba+G1uzQRIAV3Sslq
iAjayLWcG6rY6tFmRjIBPxkJyZKvV88HJlrDcs1xmbVoIlI69QkCVqoz6ALMy0jl
ogD/QiqqGNce0R+FhkOvoQv+LluK9IkgJJHYUt83B6VtHIQdsT1kF0u2Kv1+Kkd0
dpUQsOr7o+3nK2B9CgHHkAgSsJ0meV8hIs3zu3svpdO3QhrKJfX+GjpE/p75m3Kv
QLEZoX8UuhsSQXZ6pPR+5ScYJHtW+EhFVd1kdPlAxDS31zK6h6/gEYE6l5V8f8zM
ozyYQKHpNgNODvoAwNhfRheG279O9lJg3R1CbmhxfmPPEX9rSfiVrVTzYzomJ2TH
4+HWFKAfR0/Pyyx6QbJ47Gro1+MNFgzYsde5izKA7E93+JxDYfs4x3lDoQ1GfWk/
4hYOJ4b6R4YMdihYg5EsJ/OIY8po/WgNBJzsyvNCtkqMxAg6IWbSCSjSnLA75PB0
fK51wH2lm9pI0EtvOplz5vAh1qVxM8Brhy8O29sNtJTmWsU2w54oytkp6AdhP6om
m8134I+i72AyitgM8/nhylLPWMVhNuyBCVgw6CrVmLQ=
-----END CERTIFICATE-----
