Certificate:
    Data:
        Version: 3 (0x2)
        Serial Number: 2252 (0x8cc)
    Signature Algorithm: md5WithRSAEncryption
        Issuer: C=US, ST=OH, L=Columbus, O=VikingVPN, OU=MyOrganizationalUnit, CN=VikingVPN CA/name=EasyRSA/emailAddress=me@myhost.mydomain
        Validity
            Not Before: Jul 13 18:21:23 2014 GMT
            Not After : Jul 10 18:21:23 2024 GMT
        Subject: CN=Client797Cert6577f4
        Subject Public Key Info:
            Public Key Algorithm: rsaEncryption
                Public-Key: (4096 bit)
                Modulus:
                    00:cc:14:66:43:11:99:24:3e:62:e9:2b:9c:f1:e1:
                    49:03:c4:1c:32:9f:0a:94:34:b8:a9:15:b7:54:b7:
                    e0:42:a6:79:5c:3b:b0:a2:34:29:a4:13:f6:85:27:
                    c4:fa:14:be:69:9b:25:a6:b6:7b:bd:33:34:05:01:
                    4c:4e:a4:58:7d:70:db:20:e5:d0:0c:94:38:64:be:
                    dd:e0:ca:ff:2d:b8:78:9b:ea:e6:8c:1d:47:7c:15:
                    cc:d8:d7:f7:5c:44:ad:0d:69:29:6d:e8:01:68:5d:
                    e6:81:63:17:f0:cb:44:8d:15:f1:96:0e:c2:84:97:
                    11:3e:8d:22:4f:e7:fb:41:a8:ac:ce:91:8f:ca:d0:
                    d4:42:94:c2:7b:c3:8a:f7:e3:0f:e3:87:60:fb:a8:
                    50:df:58:71:95:70:e5:61:3a:15:4e:92:bc:4d:b2:
                    ed:a8:b0:3c:f5:f5:5c:5e:f1:82:6c:81:68:45:89:
                    1a:05:a7:35:04:68:49:e0:e8:82:e0:47:1f:bd:17:
                    94:61:6c:3f:42:61:2b:b8:fe:d5:1c:9a:3a:f6:f9:
                    56:39:72:fa:2d:f7:0e:56:e2:cf:6a:a3:e6:c9:58:
                    9c:85:d6:54:23:8c:b4:82:ca:da:4f:70:7e:7f:53:
                    83:17:4e:7e:a6:d9:e5:7e:c9:bf:72:74:01:a4:f5:
                    7b:11:07:a5:cd:cb:25:42:c2:59:71:43:cd:29:e2:
                    b2:4b:68:0f:d9:74:ce:5b:7d:2b:c0:a8:a5:0d:fc:
                    86:9c:66:8f:5d:b6:22:34:8b:17:2a:a6:e8:e9:b0:
                    0f:03:00:f7:4a:7a:49:e2:e6:66:0a:cb:30:09:5d:
                    4e:a0:06:1a:73:39:86:7f:1b:4c:49:91:8c:47:22:
                    14:16:64:51:78:1c:b8:05:d8:d2:25:84:ce:b0:3e:
                    64:4d:9e:77:0f:82:7b:d5:4c:b2:b0:6a:74:b8:1f:
                    8c:d7:16:26:33:f7:88:6c:f7:9f:22:ad:06:18:77:
                    4f:62:c7:f6:05:ee:5e:c3:86:ea:b5:a9:0e:f7:23:
                    d7:0f:df:a2:db:75:35:6f:5b:29:6a:43:56:35:e2:
                    1d:12:9b:aa:7f:dd:66:0f:8e:17:81:b7:c2:49:63:
                    81:32:22:bd:5a:85:19:7d:1c:62:f6:1a:f3:a9:2d:
                    e0:ea:18:0b:7b:46:f5:99:7a:b4:1d:36:3a:7a:2c:
                    b1:9f:90:a7:0b:cf:64:07:ae:2c:5e:96:3a:28:ea:
                    37:ad:42:9e:ac:9a:e3:d3:8b:70:03:21:42:fe:20:
                    f4:2d:1c:62:9d:d5:af:5e:16:2d:c2:5a:3b:cc:93:
                    8d:33:df:ea:b4:93:9a:77:04:62:8b:eb:15:06:98:
                    d8:ce:69
                Exponent: 65537 (0x10001)
        X509v3 extensions:
            X509v3 Basic Constraints: 
                CA:FALSE
            Netscape Comment: 
                Easy-RSA Generated Certificate
            X509v3 Subject Key Identifier: 
                34:33:71:F6:E1:90:AE:04:22:20:15:23:55:EC:B8:6C:7A:A9:74:BD
            X509v3 Authority Key Identifier: 
                keyid:12:CD:60:04:D2:A0:80:9E:70:ED:C6:99:B8:7B:2C:C6:52:FD:19:A1
                DirName:/C=US/ST=OH/L=Columbus/O=VikingVPN/OU=MyOrganizationalUnit/CN=VikingVPN CA/name=EasyRSA/emailAddress=me@myhost.mydomain
                serial:CF:35:85:EE:80:BF:2A:3E

            X509v3 Extended Key Usage: 
                TLS Web Client Authentication
            X509v3 Key Usage: 
                Digital Signature
    Signature Algorithm: md5WithRSAEncryption
         e1:81:ec:22:df:d6:fb:6f:4b:97:59:f2:f9:6f:92:07:92:c0:
         63:5b:f6:fd:24:2e:1e:bc:b3:78:7c:f4:b4:a1:ca:5f:0f:d0:
         7c:16:fb:47:38:04:b2:fd:0b:55:e5:0a:bd:dc:5e:f5:b6:fd:
         54:17:89:8c:72:f7:0b:7b:00:a7:5c:54:0d:ac:c7:e6:fd:03:
         42:cb:8d:97:f9:a4:37:fe:d7:dc:12:31:44:7e:11:ee:88:4f:
         3a:ae:89:0e:df:8d:73:58:92:83:84:5e:43:82:c1:cd:7a:9d:
         44:2d:f6:e8:5c:87:64:ef:ce:96:96:4a:0d:5a:c0:17:a2:78:
         62:48:76:72:85:71:09:fd:72:40:db:eb:be:e8:7c:84:cf:2b:
         4e:73:76:98:20:80:ac:3d:ae:30:7e:1b:f6:b5:3c:21:9e:03:
         2f:ef:46:d5:13:33:62:5f:dc:6c:c7:6b:39:6e:26:7b:17:95:
         2d:8b:96:dc:fc:fd:b7:03:78:80:5d:9a:80:1a:87:d1:80:23:
         1a:58:39:6d:bc:17:d9:9f:8e:03:7f:72:5c:7d:ea:df:96:f0:
         04:77:c8:6c:19:22:eb:26:11:17:e7:10:46:8b:90:1b:76:a2:
         78:79:2b:99:18:71:22:db:33:98:59:b1:6f:ed:4d:8b:34:ab:
         45:d1:08:c9:cd:01:cc:2b:d7:d6:58:48:3d:74:4e:f2:1b:10:
         6a:cd:e9:c0:82:1c:77:d6:d3:e5:ed:23:06:f4:a0:eb:94:89:
         6d:75:b8:10:ee:21:85:28:30:8e:97:1e:07:68:ad:ec:3f:5f:
         6a:c9:f4:d1:ff:db:7c:e8:f4:f9:cf:2c:2f:a3:67:ae:86:7c:
         b9:ee:66:c7:e7:fd:c3:25:ce:79:34:e6:c6:8e:e9:1a:01:09:
         a1:87:b7:b0:08:6b:30:d5:b7:82:2c:0a:ba:02:4a:29:37:d8:
         27:a1:bd:b0:4b:70:f9:33:87:35:d0:02:63:20:26:e2:d6:09:
         01:83:13:02:96:06:86:b9:43:14:b5:a6:f9:29:0e:ec:ea:e2:
         aa:76:19:c0:29:c2:3e:6a:1d:ce:9c:46:a7:17:94:c3:d0:dd:
         32:f3:6c:d0:8f:8c:17:d7:19:73:a1:85:fc:1c:9d:a5:bb:51:
         b8:98:ab:8a:50:37:03:83:b1:c3:45:72:63:a3:9f:fb:9f:2a:
         11:0d:4f:3a:a5:65:63:ee:bb:f5:b1:70:8d:87:76:b1:54:33:
         14:8a:6e:38:d2:0d:15:a0:27:94:9c:27:1f:e7:f0:c4:6c:9e:
         24:f0:4b:f2:61:ea:6b:ef:28:3b:90:77:41:ba:23:9c:2b:90:
         7d:b5:a8:6b:1c:a2:d8:c6
-----BEGIN CERTIFICATE-----
MIIGrDCCBJSgAwIBAgICCMwwDQYJKoZIhvcNAQEEBQAwgawxCzAJBgNVBAYTAlVT
MQswCQYDVQQIEwJPSDERMA8GA1UEBxMIQ29sdW1idXMxEjAQBgNVBAoTCVZpa2lu
Z1ZQTjEdMBsGA1UECxMUTXlPcmdhbml6YXRpb25hbFVuaXQxFTATBgNVBAMTDFZp
a2luZ1ZQTiBDQTEQMA4GA1UEKRMHRWFzeVJTQTEhMB8GCSqGSIb3DQEJARYSbWVA
bXlob3N0Lm15ZG9tYWluMB4XDTE0MDcxMzE4MjEyM1oXDTI0MDcxMDE4MjEyM1ow
HjEcMBoGA1UEAxMTQ2xpZW50Nzk3Q2VydDY1NzdmNDCCAiIwDQYJKoZIhvcNAQEB
BQADggIPADCCAgoCggIBAMwUZkMRmSQ+YukrnPHhSQPEHDKfCpQ0uKkVt1S34EKm
eVw7sKI0KaQT9oUnxPoUvmmbJaa2e70zNAUBTE6kWH1w2yDl0AyUOGS+3eDK/y24
eJvq5owdR3wVzNjX91xErQ1pKW3oAWhd5oFjF/DLRI0V8ZYOwoSXET6NIk/n+0Go
rM6Rj8rQ1EKUwnvDivfjD+OHYPuoUN9YcZVw5WE6FU6SvE2y7aiwPPX1XF7xgmyB
aEWJGgWnNQRoSeDoguBHH70XlGFsP0JhK7j+1RyaOvb5Vjly+i33Dlbiz2qj5slY
nIXWVCOMtILK2k9wfn9TgxdOfqbZ5X7Jv3J0AaT1exEHpc3LJULCWXFDzSniskto
D9l0zlt9K8CopQ38hpxmj122IjSLFyqm6OmwDwMA90p6SeLmZgrLMAldTqAGGnM5
hn8bTEmRjEciFBZkUXgcuAXY0iWEzrA+ZE2edw+Ce9VMsrBqdLgfjNcWJjP3iGz3
nyKtBhh3T2LH9gXuXsOG6rWpDvcj1w/fott1NW9bKWpDVjXiHRKbqn/dZg+OF4G3
wkljgTIivVqFGX0cYvYa86kt4OoYC3tG9Zl6tB02OnossZ+QpwvPZAeuLF6WOijq
N61Cnqya49OLcAMhQv4g9C0cYp3Vr14WLcJaO8yTjTPf6rSTmncEYovrFQaY2M5p
AgMBAAGjggFjMIIBXzAJBgNVHRMEAjAAMC0GCWCGSAGG+EIBDQQgFh5FYXN5LVJT
QSBHZW5lcmF0ZWQgQ2VydGlmaWNhdGUwHQYDVR0OBBYEFDQzcfbhkK4EIiAVI1Xs
uGx6qXS9MIHhBgNVHSMEgdkwgdaAFBLNYATSoICecO3Gmbh7LMZS/RmhoYGypIGv
MIGsMQswCQYDVQQGEwJVUzELMAkGA1UECBMCT0gxETAPBgNVBAcTCENvbHVtYnVz
MRIwEAYDVQQKEwlWaWtpbmdWUE4xHTAbBgNVBAsTFE15T3JnYW5pemF0aW9uYWxV
bml0MRUwEwYDVQQDEwxWaWtpbmdWUE4gQ0ExEDAOBgNVBCkTB0Vhc3lSU0ExITAf
BgkqhkiG9w0BCQEWEm1lQG15aG9zdC5teWRvbWFpboIJAM81he6Avyo+MBMGA1Ud
JQQMMAoGCCsGAQUFBwMCMAsGA1UdDwQEAwIHgDANBgkqhkiG9w0BAQQFAAOCAgEA
4YHsIt/W+29Ll1ny+W+SB5LAY1v2/SQuHryzeHz0tKHKXw/QfBb7RzgEsv0LVeUK
vdxe9bb9VBeJjHL3C3sAp1xUDazH5v0DQsuNl/mkN/7X3BIxRH4R7ohPOq6JDt+N
c1iSg4ReQ4LBzXqdRC326FyHZO/OlpZKDVrAF6J4Ykh2coVxCf1yQNvrvuh8hM8r
TnN2mCCArD2uMH4b9rU8IZ4DL+9G1RMzYl/cbMdrOW4mexeVLYuW3Pz9twN4gF2a
gBqH0YAjGlg5bbwX2Z+OA39yXH3q35bwBHfIbBki6yYRF+cQRouQG3aieHkrmRhx
ItszmFmxb+1NizSrRdEIyc0BzCvX1lhIPXRO8hsQas3pwIIcd9bT5e0jBvSg65SJ
bXW4EO4hhSgwjpceB2it7D9fasn00f/bfOj0+c8sL6NnroZ8ue5mx+f9wyXOeTTm
xo7pGgEJoYe3sAhrMNW3giwKugJKKTfYJ6G9sEtw+TOHNdACYyAm4tYJAYMTApYG
hrlDFLWm+SkO7OriqnYZwCnCPmodzpxGpxeUw9DdMvNs0I+MF9cZc6GF/BydpbtR
uJirilA3A4Oxw0VyY6Of+58qEQ1POqVlY+679bFwjYd2sVQzFIpuONINFaAnlJwn
H+fwxGyeJPBL8mHqa+8oO5B3QbojnCuQfbWoaxyi2MY=
-----END CERTIFICATE-----
