Certificate:
    Data:
        Version: 3 (0x2)
        Serial Number: 12798 (0x31fe)
    Signature Algorithm: sha256WithRSAEncryption
        Issuer: C=US, ST=OH, L=Columbus, O=VikingVPN, OU=MyOrganizationalUnit, CN=VikingVPN CA/name=EasyRSA/emailAddress=me@myhost.mydomain
        Validity
            Not Before: Mar 27 16:45:40 2018 GMT
            Not After : Mar 24 16:45:40 2028 GMT
        Subject: CN=Client3244Cert8af3eb
        Subject Public Key Info:
            Public Key Algorithm: rsaEncryption
                Public-Key: (4096 bit)
                Modulus:
                    00:a4:7f:48:c9:a8:37:9e:51:b7:8b:06:5e:70:c2:
                    74:08:ca:c5:b5:a5:38:d6:29:93:b1:dd:fa:15:bd:
                    d7:49:0a:6c:4a:d3:28:65:11:d2:d0:85:ad:93:79:
                    38:12:e6:03:ad:35:0a:88:ac:0c:9e:77:d5:f5:f5:
                    99:29:fa:eb:fb:81:fa:bb:64:1f:f3:7a:6a:fe:c5:
                    43:41:da:b7:08:15:30:0b:fe:e1:5c:57:ac:08:e8:
                    ef:85:16:02:5b:16:5a:4d:15:a6:0b:13:0f:90:d2:
                    51:7f:67:3c:36:ab:d1:0f:05:e5:2f:e3:29:aa:e0:
                    66:34:d3:4e:26:8d:0a:d7:01:84:6e:fc:b3:e0:08:
                    b8:14:46:e0:00:16:12:27:27:35:44:3a:3a:2a:de:
                    54:c5:47:89:c6:3a:f0:73:95:59:ce:71:5d:9d:38:
                    b6:ad:7d:56:9c:1b:93:67:10:ec:9a:65:4a:00:4d:
                    82:b3:77:9f:0f:94:87:53:2e:c5:4a:4e:90:a2:69:
                    c1:a5:96:52:94:52:4a:49:4b:71:8d:c0:4f:62:3d:
                    3f:7a:5c:50:18:c4:cb:60:1a:e1:47:db:ca:dc:15:
                    04:86:4e:1d:cd:54:46:56:9e:ac:9c:06:14:de:a6:
                    a3:5d:dc:f4:8e:ad:46:31:2f:37:2e:00:c7:9c:56:
                    74:25:42:bc:2f:b3:dc:97:1a:ee:31:7e:9c:31:e7:
                    c7:85:d1:cc:01:72:e8:20:f6:de:e5:fa:f7:7c:00:
                    7b:de:b4:e1:65:08:28:15:54:89:9c:a5:7e:04:1a:
                    98:4e:4e:a6:80:71:0e:84:7c:7b:2e:50:65:17:a5:
                    5d:7b:a2:24:f9:4e:f6:4c:63:4d:80:7d:73:c9:fe:
                    2b:b8:c2:e1:c8:35:c3:b6:7c:b6:30:7c:ea:db:c0:
                    8b:23:72:26:1b:5a:b5:3a:aa:5c:63:b2:e1:8a:77:
                    bc:25:3a:5e:90:6a:30:1d:e7:06:eb:24:08:98:c1:
                    d2:36:6a:f0:7a:7f:73:32:5d:5e:dc:21:34:59:16:
                    a1:96:d9:8d:ac:0d:b6:e7:7d:62:5f:76:71:e7:39:
                    c0:32:93:7e:04:3a:18:e8:8f:64:39:5f:c3:f0:2b:
                    56:0c:f6:d1:17:da:41:9f:18:95:31:8b:4b:f1:bc:
                    12:a6:6b:ec:41:d8:34:51:60:27:64:a5:f6:07:61:
                    63:c0:19:6a:ec:33:2e:56:c5:1f:00:5a:fd:de:07:
                    d4:c4:eb:7d:75:39:06:e9:17:68:e6:ff:33:13:de:
                    74:f0:3c:31:ae:19:8b:61:0c:28:e1:ff:85:9f:fa:
                    8b:c8:bf:91:63:05:d6:77:cc:f4:2f:02:08:d7:a3:
                    1e:17:a1
                Exponent: 65537 (0x10001)
        X509v3 extensions:
            X509v3 Basic Constraints: 
                CA:FALSE
            Netscape Comment: 
                Easy-RSA Generated Certificate
            X509v3 Subject Key Identifier: 
                5E:29:8F:26:73:0C:4C:22:41:F2:FF:4E:30:7C:7F:3B:B1:30:24:43
            X509v3 Authority Key Identifier: 
                keyid:12:CD:60:04:D2:A0:80:9E:70:ED:C6:99:B8:7B:2C:C6:52:FD:19:A1
                DirName:/C=US/ST=OH/L=Columbus/O=VikingVPN/OU=MyOrganizationalUnit/CN=VikingVPN CA/name=EasyRSA/emailAddress=me@myhost.mydomain
                serial:CF:35:85:EE:80:BF:2A:3E

            X509v3 Extended Key Usage: 
                TLS Web Client Authentication
            X509v3 Key Usage: 
                Digital Signature
    Signature Algorithm: sha256WithRSAEncryption
         e4:fe:3f:b3:d4:f0:df:47:4a:7c:a5:92:f1:fa:0e:7f:63:18:
         dd:94:25:32:ee:c7:db:40:42:7f:ad:44:e4:0a:1c:3c:f8:3e:
         89:3c:b6:15:15:f4:17:e8:ed:43:83:a7:c3:a9:39:38:64:f5:
         3d:1c:57:5a:de:90:ed:0d:27:ce:22:33:be:0d:e1:85:48:44:
         c7:41:5e:7a:47:9e:0f:33:eb:b7:11:e5:9f:df:12:4f:12:8d:
         46:02:a6:10:30:4a:36:24:7b:7e:5e:33:8f:53:f1:ec:ad:36:
         81:c1:12:21:98:a8:e8:b7:d3:38:3d:89:a7:f9:15:13:fe:8c:
         c9:24:04:23:e9:96:bb:97:7c:a9:32:ce:c3:70:67:b9:a7:e4:
         5e:bd:be:ba:d7:4e:22:65:11:aa:77:e2:6f:04:5d:07:c9:aa:
         96:82:d0:ad:80:18:ec:05:d8:15:fd:be:97:1e:ba:ec:99:c6:
         7b:29:d0:b4:3d:22:ce:9d:a8:6e:b4:b6:34:0a:62:22:8a:26:
         b4:f1:57:63:f7:25:79:46:18:31:e6:11:72:0d:20:c8:ee:6e:
         9f:26:e5:0a:67:3b:f0:12:20:c3:55:fd:6a:7c:29:7c:53:94:
         23:e1:75:26:6d:e7:ad:6e:7f:3d:e0:fb:e3:a7:48:da:ed:18:
         7e:33:62:72:79:9d:59:02:f2:15:ee:db:c4:fe:ee:82:57:b5:
         85:1b:8d:03:8f:ec:81:b4:f1:a2:2f:10:bb:f7:a1:46:8f:2e:
         ff:aa:40:cb:3f:23:6d:54:8d:f8:11:aa:6e:fb:10:85:f9:bb:
         f0:65:b9:4f:25:b9:78:f9:8b:0f:63:e2:c0:66:09:b9:c6:e8:
         ae:f8:9e:b5:21:28:ac:45:29:78:fd:a5:10:63:2f:9b:08:de:
         e2:69:23:56:92:c8:33:65:c1:42:d6:5b:bb:8f:eb:25:7d:c1:
         2e:ab:30:bc:63:a9:4f:db:99:5d:3d:32:57:48:7e:93:b2:39:
         5e:4a:06:45:41:7d:76:96:76:0c:e7:c5:b3:55:b7:9f:fb:91:
         db:15:6c:7f:3d:7a:4d:7e:75:41:ca:1b:54:bf:25:31:eb:a9:
         0a:08:c6:64:87:53:68:9e:d9:e9:a5:43:1c:13:30:30:98:fe:
         ee:2f:e3:4c:d0:42:29:5e:04:d1:14:9e:3b:9d:0d:72:61:53:
         c6:22:da:67:ce:c3:f5:9a:0e:39:fa:76:a7:dd:df:2e:61:36:
         4d:6d:89:65:ef:8f:48:90:66:2d:76:bd:54:70:ce:06:fa:e2:
         d7:4a:e7:b8:68:be:a7:fa:18:f9:3a:c3:ff:39:48:6a:83:db:
         f1:89:8e:b6:97:6a:1c:08
-----BEGIN CERTIFICATE-----
MIIGrTCCBJWgAwIBAgICMf4wDQYJKoZIhvcNAQELBQAwgawxCzAJBgNVBAYTAlVT
MQswCQYDVQQIEwJPSDERMA8GA1UEBxMIQ29sdW1idXMxEjAQBgNVBAoTCVZpa2lu
Z1ZQTjEdMBsGA1UECxMUTXlPcmdhbml6YXRpb25hbFVuaXQxFTATBgNVBAMTDFZp
a2luZ1ZQTiBDQTEQMA4GA1UEKRMHRWFzeVJTQTEhMB8GCSqGSIb3DQEJARYSbWVA
bXlob3N0Lm15ZG9tYWluMB4XDTE4MDMyNzE2NDU0MFoXDTI4MDMyNDE2NDU0MFow
HzEdMBsGA1UEAxMUQ2xpZW50MzI0NENlcnQ4YWYzZWIwggIiMA0GCSqGSIb3DQEB
AQUAA4ICDwAwggIKAoICAQCkf0jJqDeeUbeLBl5wwnQIysW1pTjWKZOx3foVvddJ
CmxK0yhlEdLQha2TeTgS5gOtNQqIrAyed9X19Zkp+uv7gfq7ZB/zemr+xUNB2rcI
FTAL/uFcV6wI6O+FFgJbFlpNFaYLEw+Q0lF/Zzw2q9EPBeUv4ymq4GY0004mjQrX
AYRu/LPgCLgURuAAFhInJzVEOjoq3lTFR4nGOvBzlVnOcV2dOLatfVacG5NnEOya
ZUoATYKzd58PlIdTLsVKTpCiacGlllKUUkpJS3GNwE9iPT96XFAYxMtgGuFH28rc
FQSGTh3NVEZWnqycBhTepqNd3PSOrUYxLzcuAMecVnQlQrwvs9yXGu4xfpwx58eF
0cwBcugg9t7l+vd8AHvetOFlCCgVVImcpX4EGphOTqaAcQ6EfHsuUGUXpV17oiT5
TvZMY02AfXPJ/iu4wuHINcO2fLYwfOrbwIsjciYbWrU6qlxjsuGKd7wlOl6QajAd
5wbrJAiYwdI2avB6f3MyXV7cITRZFqGW2Y2sDbbnfWJfdnHnOcAyk34EOhjoj2Q5
X8PwK1YM9tEX2kGfGJUxi0vxvBKma+xB2DRRYCdkpfYHYWPAGWrsMy5WxR8AWv3e
B9TE6311OQbpF2jm/zMT3nTwPDGuGYthDCjh/4Wf+ovIv5FjBdZ3zPQvAgjXox4X
oQIDAQABo4IBYzCCAV8wCQYDVR0TBAIwADAtBglghkgBhvhCAQ0EIBYeRWFzeS1S
U0EgR2VuZXJhdGVkIENlcnRpZmljYXRlMB0GA1UdDgQWBBReKY8mcwxMIkHy/04w
fH87sTAkQzCB4QYDVR0jBIHZMIHWgBQSzWAE0qCAnnDtxpm4eyzGUv0ZoaGBsqSB
rzCBrDELMAkGA1UEBhMCVVMxCzAJBgNVBAgTAk9IMREwDwYDVQQHEwhDb2x1bWJ1
czESMBAGA1UEChMJVmlraW5nVlBOMR0wGwYDVQQLExRNeU9yZ2FuaXphdGlvbmFs
VW5pdDEVMBMGA1UEAxMMVmlraW5nVlBOIENBMRAwDgYDVQQpEwdFYXN5UlNBMSEw
HwYJKoZIhvcNAQkBFhJtZUBteWhvc3QubXlkb21haW6CCQDPNYXugL8qPjATBgNV
HSUEDDAKBggrBgEFBQcDAjALBgNVHQ8EBAMCB4AwDQYJKoZIhvcNAQELBQADggIB
AOT+P7PU8N9HSnylkvH6Dn9jGN2UJTLux9tAQn+tROQKHDz4Pok8thUV9Bfo7UOD
p8OpOThk9T0cV1rekO0NJ84iM74N4YVIRMdBXnpHng8z67cR5Z/fEk8SjUYCphAw
SjYke35eM49T8eytNoHBEiGYqOi30zg9iaf5FRP+jMkkBCPplruXfKkyzsNwZ7mn
5F69vrrXTiJlEap34m8EXQfJqpaC0K2AGOwF2BX9vpceuuyZxnsp0LQ9Is6dqG60
tjQKYiKKJrTxV2P3JXlGGDHmEXINIMjubp8m5QpnO/ASIMNV/Wp8KXxTlCPhdSZt
561ufz3g++OnSNrtGH4zYnJ5nVkC8hXu28T+7oJXtYUbjQOP7IG08aIvELv3oUaP
Lv+qQMs/I21UjfgRqm77EIX5u/BluU8luXj5iw9j4sBmCbnG6K74nrUhKKxFKXj9
pRBjL5sI3uJpI1aSyDNlwULWW7uP6yV9wS6rMLxjqU/bmV09MldIfpOyOV5KBkVB
fXaWdgznxbNVt5/7kdsVbH89ek1+dUHKG1S/JTHrqQoIxmSHU2ie2emlQxwTMDCY
/u4v40zQQileBNEUnjudDXJhU8Yi2mfOw/WaDjn6dqfd3y5hNk1tiWXvj0iQZi12
vVRwzgb64tdK57hovqf6GPk6w/85SGqD2/GJjraXahwI
-----END CERTIFICATE-----
