Certificate:
    Data:
        Version: 3 (0x2)
        Serial Number: 1494 (0x5d6)
    Signature Algorithm: md5WithRSAEncryption
        Issuer: C=US, ST=OH, L=Columbus, O=VikingVPN, OU=MyOrganizationalUnit, CN=VikingVPN CA/name=EasyRSA/emailAddress=me@myhost.mydomain
        Validity
            Not Before: Apr  6 19:00:57 2014 GMT
            Not After : Apr  3 19:00:57 2024 GMT
        Subject: CN=Client520Cert2f0be1
        Subject Public Key Info:
            Public Key Algorithm: rsaEncryption
                Public-Key: (4096 bit)
                Modulus:
                    00:c2:b4:53:08:7c:c5:20:78:ff:90:73:de:0c:ed:
                    03:6f:19:d4:ce:c7:0b:3a:d1:be:91:0c:a5:b6:cd:
                    96:30:08:bc:a8:fd:27:27:f0:53:35:d4:aa:de:fc:
                    3d:92:8e:88:d5:50:cf:31:e7:f7:77:43:73:61:21:
                    77:7d:6f:85:00:4b:0a:1d:94:bc:84:51:1c:bc:56:
                    73:bc:8e:9e:48:ab:45:97:46:66:ef:09:d1:fc:79:
                    c2:f2:51:47:39:b3:19:64:6b:26:18:b7:af:8f:76:
                    1a:c9:bd:a9:aa:3d:14:fa:1d:78:2c:3a:5a:4b:9f:
                    22:2f:51:2c:66:f7:1a:e8:a4:40:08:57:d2:56:b9:
                    64:a9:8b:e6:94:41:4d:e7:e6:bb:73:13:a4:e6:45:
                    b8:32:dd:9f:d7:5b:90:69:af:e2:c9:03:da:db:ed:
                    8b:6f:07:7c:a1:c7:89:71:d1:cd:10:39:6d:96:83:
                    59:c1:0f:f4:be:88:c8:4f:e2:6b:6f:c5:61:f7:57:
                    ac:9b:09:2d:a1:42:26:64:25:95:0a:39:c4:1d:07:
                    54:d6:b1:97:04:a2:76:68:35:5f:ef:46:8a:03:10:
                    ad:b2:ea:1f:fc:76:64:19:be:5a:79:6a:3a:a5:f7:
                    fb:9a:fa:4a:59:48:4a:1c:42:f0:71:c2:c4:8e:c4:
                    38:ea:64:d7:1a:1d:67:65:32:45:06:9c:60:45:0d:
                    1f:a3:92:70:d6:1d:57:fe:49:d1:0b:f9:b2:d1:52:
                    07:4a:62:70:66:49:a9:f2:67:c8:06:17:0a:c0:bd:
                    b2:96:97:61:ce:cc:71:8c:c2:ad:72:46:bd:47:db:
                    cb:78:e9:21:9b:28:9b:54:1e:5c:c3:92:dd:1a:d7:
                    09:a4:33:5f:10:60:68:e4:ab:e4:3c:32:c7:8b:78:
                    8e:51:9e:f5:80:4e:bd:d9:6c:70:62:d4:0b:0e:78:
                    b6:90:af:9f:75:d6:31:5b:2a:cf:98:2c:a9:32:33:
                    c1:eb:0a:21:3c:4f:1b:c0:7e:59:98:59:2e:4a:d1:
                    3b:6f:f8:65:93:98:4a:21:fa:46:47:bd:f9:8d:de:
                    ed:77:e8:21:55:1a:03:5f:3a:a4:55:92:93:f4:10:
                    bd:f2:21:aa:6f:ac:18:e8:a1:a1:1b:78:d4:2c:8d:
                    a6:1e:5e:c1:19:0b:79:21:f8:d6:28:c7:05:1b:43:
                    73:73:be:7d:f9:7d:95:18:b0:11:c0:4a:be:28:38:
                    bc:c4:4e:1d:74:55:b6:1b:69:64:58:ec:31:bd:4d:
                    7f:fb:49:8e:cb:90:3b:b1:0d:4a:ad:97:95:d6:50:
                    44:4b:ba:ab:62:2c:14:63:ac:5b:04:12:dc:14:45:
                    8d:48:c7
                Exponent: 65537 (0x10001)
        X509v3 extensions:
            X509v3 Basic Constraints: 
                CA:FALSE
            Netscape Comment: 
                Easy-RSA Generated Certificate
            X509v3 Subject Key Identifier: 
                3F:BB:6D:D2:D2:A5:4B:2B:6D:30:EC:08:DE:78:8A:6B:D7:8C:EB:1B
            X509v3 Authority Key Identifier: 
                keyid:12:CD:60:04:D2:A0:80:9E:70:ED:C6:99:B8:7B:2C:C6:52:FD:19:A1
                DirName:/C=US/ST=OH/L=Columbus/O=VikingVPN/OU=MyOrganizationalUnit/CN=VikingVPN CA/name=EasyRSA/emailAddress=me@myhost.mydomain
                serial:CF:35:85:EE:80:BF:2A:3E

            X509v3 Extended Key Usage: 
                TLS Web Client Authentication
            X509v3 Key Usage: 
                Digital Signature
    Signature Algorithm: md5WithRSAEncryption
         d7:07:69:e3:c9:13:5b:51:80:c9:a2:5a:c0:08:3e:68:53:f9:
         fb:c3:ec:da:3d:b6:c9:12:93:d8:ec:58:97:bd:4c:25:74:df:
         d0:fd:b4:11:f1:98:ba:65:86:18:e0:5e:92:8b:87:37:4e:1f:
         d8:68:8a:7e:eb:90:51:83:4a:b7:ad:a1:7b:ad:5c:d9:b8:24:
         6b:49:10:1e:24:0f:1a:01:3d:9c:71:84:2e:e1:43:b3:15:b8:
         b3:c6:11:a3:cd:c5:cd:9d:2c:b6:4f:bc:53:85:9e:00:d9:c5:
         08:5b:3c:d6:f4:f0:63:01:62:74:6f:19:2e:a3:b2:6a:93:0d:
         b6:3e:00:80:d5:bf:65:e7:54:7f:ae:85:55:9c:80:67:ca:7b:
         14:2b:2e:9e:1c:f7:dd:b6:4f:29:2b:0a:6a:ee:39:cb:78:bc:
         95:94:87:54:c8:d5:40:20:6b:34:f8:25:93:2e:01:58:a1:b4:
         cc:43:5f:41:a5:0f:3d:4f:53:8d:87:37:54:ec:65:bf:99:7d:
         83:d5:c5:7f:5a:8d:74:36:72:7e:fb:71:7d:67:cd:1c:72:97:
         14:57:89:0b:a0:d3:66:d1:66:64:0e:06:63:4d:25:36:6d:70:
         d5:87:db:8f:da:d4:30:d7:ce:4b:6b:b1:84:24:23:d4:3e:ba:
         f8:7c:43:5a:f1:17:6e:e5:84:8d:7d:53:8f:e5:ed:0f:d4:a2:
         04:ae:5c:78:b1:49:2b:2e:96:12:31:69:92:92:9c:21:19:c9:
         42:b9:5a:9d:09:31:50:82:e0:1f:6d:b6:34:9d:8a:a3:35:43:
         57:2c:f2:ae:7d:7c:86:69:43:2f:c2:3c:fd:e3:c4:cd:ea:38:
         f3:c5:21:5f:7d:46:53:e3:7f:00:f4:95:54:d5:d5:46:23:c8:
         6f:2e:a7:3b:c8:ab:e0:76:2b:a2:fc:59:c0:32:ca:e0:12:4d:
         4b:76:2f:1b:53:32:78:17:cf:7b:07:ae:55:a9:13:ff:d9:f9:
         31:28:ef:f7:1e:53:89:34:6a:5e:cd:b1:9a:bd:dc:d4:68:a4:
         fa:d6:88:3b:4e:cc:2f:e8:32:f6:68:17:5d:4c:78:9c:b7:af:
         c7:41:41:e9:45:97:00:de:a4:1f:d5:c7:4e:d1:34:1b:a2:ee:
         69:47:1e:ee:84:d6:f0:10:5c:4a:0a:f2:6b:53:03:95:ad:29:
         8e:0e:c0:00:c9:d1:23:ca:68:14:51:d4:6d:1f:bb:db:44:9a:
         6e:b3:de:8b:32:63:8a:07:e6:47:38:92:49:41:4c:7b:37:de:
         4c:95:46:92:a3:5b:10:62:96:01:6b:6b:e1:4e:25:1f:8a:d2:
         7c:e7:be:51:9d:d2:f8:fd
-----BEGIN CERTIFICATE-----
MIIGrDCCBJSgAwIBAgICBdYwDQYJKoZIhvcNAQEEBQAwgawxCzAJBgNVBAYTAlVT
MQswCQYDVQQIEwJPSDERMA8GA1UEBxMIQ29sdW1idXMxEjAQBgNVBAoTCVZpa2lu
Z1ZQTjEdMBsGA1UECxMUTXlPcmdhbml6YXRpb25hbFVuaXQxFTATBgNVBAMTDFZp
a2luZ1ZQTiBDQTEQMA4GA1UEKRMHRWFzeVJTQTEhMB8GCSqGSIb3DQEJARYSbWVA
bXlob3N0Lm15ZG9tYWluMB4XDTE0MDQwNjE5MDA1N1oXDTI0MDQwMzE5MDA1N1ow
HjEcMBoGA1UEAxMTQ2xpZW50NTIwQ2VydDJmMGJlMTCCAiIwDQYJKoZIhvcNAQEB
BQADggIPADCCAgoCggIBAMK0Uwh8xSB4/5Bz3gztA28Z1M7HCzrRvpEMpbbNljAI
vKj9JyfwUzXUqt78PZKOiNVQzzHn93dDc2Ehd31vhQBLCh2UvIRRHLxWc7yOnkir
RZdGZu8J0fx5wvJRRzmzGWRrJhi3r492Gsm9qao9FPodeCw6WkufIi9RLGb3Guik
QAhX0la5ZKmL5pRBTefmu3MTpOZFuDLdn9dbkGmv4skD2tvti28HfKHHiXHRzRA5
bZaDWcEP9L6IyE/ia2/FYfdXrJsJLaFCJmQllQo5xB0HVNaxlwSidmg1X+9GigMQ
rbLqH/x2ZBm+WnlqOqX3+5r6SllIShxC8HHCxI7EOOpk1xodZ2UyRQacYEUNH6OS
cNYdV/5J0Qv5stFSB0picGZJqfJnyAYXCsC9spaXYc7McYzCrXJGvUfby3jpIZso
m1QeXMOS3RrXCaQzXxBgaOSr5Dwyx4t4jlGe9YBOvdlscGLUCw54tpCvn3XWMVsq
z5gsqTIzwesKITxPG8B+WZhZLkrRO2/4ZZOYSiH6Rke9+Y3e7XfoIVUaA186pFWS
k/QQvfIhqm+sGOihoRt41CyNph5ewRkLeSH41ijHBRtDc3O+ffl9lRiwEcBKvig4
vMROHXRVthtpZFjsMb1Nf/tJjsuQO7ENSq2XldZQREu6q2IsFGOsWwQS3BRFjUjH
AgMBAAGjggFjMIIBXzAJBgNVHRMEAjAAMC0GCWCGSAGG+EIBDQQgFh5FYXN5LVJT
QSBHZW5lcmF0ZWQgQ2VydGlmaWNhdGUwHQYDVR0OBBYEFD+7bdLSpUsrbTDsCN54
imvXjOsbMIHhBgNVHSMEgdkwgdaAFBLNYATSoICecO3Gmbh7LMZS/RmhoYGypIGv
MIGsMQswCQYDVQQGEwJVUzELMAkGA1UECBMCT0gxETAPBgNVBAcTCENvbHVtYnVz
MRIwEAYDVQQKEwlWaWtpbmdWUE4xHTAbBgNVBAsTFE15T3JnYW5pemF0aW9uYWxV
bml0MRUwEwYDVQQDEwxWaWtpbmdWUE4gQ0ExEDAOBgNVBCkTB0Vhc3lSU0ExITAf
BgkqhkiG9w0BCQEWEm1lQG15aG9zdC5teWRvbWFpboIJAM81he6Avyo+MBMGA1Ud
JQQMMAoGCCsGAQUFBwMCMAsGA1UdDwQEAwIHgDANBgkqhkiG9w0BAQQFAAOCAgEA
1wdp48kTW1GAyaJawAg+aFP5+8Ps2j22yRKT2OxYl71MJXTf0P20EfGYumWGGOBe
kouHN04f2GiKfuuQUYNKt62he61c2bgka0kQHiQPGgE9nHGELuFDsxW4s8YRo83F
zZ0stk+8U4WeANnFCFs81vTwYwFidG8ZLqOyapMNtj4AgNW/ZedUf66FVZyAZ8p7
FCsunhz33bZPKSsKau45y3i8lZSHVMjVQCBrNPglky4BWKG0zENfQaUPPU9TjYc3
VOxlv5l9g9XFf1qNdDZyfvtxfWfNHHKXFFeJC6DTZtFmZA4GY00lNm1w1Yfbj9rU
MNfOS2uxhCQj1D66+HxDWvEXbuWEjX1Tj+XtD9SiBK5ceLFJKy6WEjFpkpKcIRnJ
QrlanQkxUILgH222NJ2KozVDVyzyrn18hmlDL8I8/ePEzeo488UhX31GU+N/APSV
VNXVRiPIby6nO8ir4HYrovxZwDLK4BJNS3YvG1MyeBfPeweuVakT/9n5MSjv9x5T
iTRqXs2xmr3c1Gik+taIO07ML+gy9mgXXUx4nLevx0FB6UWXAN6kH9XHTtE0G6Lu
aUce7oTW8BBcSgrya1MDla0pjg7AAMnRI8poFFHUbR+720SabrPeizJjigfmRziS
SUFMezfeTJVGkqNbEGKWAWtr4U4lH4rSfOe+UZ3S+P0=
-----END CERTIFICATE-----
