Certificate:
    Data:
        Version: 3 (0x2)
        Serial Number: 8589 (0x218d)
    Signature Algorithm: sha256WithRSAEncryption
        Issuer: C=US, ST=OH, L=Columbus, O=VikingVPN, OU=MyOrganizationalUnit, CN=VikingVPN CA/name=EasyRSA/emailAddress=me@myhost.mydomain
        Validity
            Not Before: Jul 29 09:42:14 2016 GMT
            Not After : Jul 27 09:42:14 2026 GMT
        Subject: CN=Client2225Certaec5e7
        Subject Public Key Info:
            Public Key Algorithm: rsaEncryption
                Public-Key: (4096 bit)
                Modulus:
                    00:bd:74:78:87:7a:4e:c1:f7:41:ea:aa:74:69:4c:
                    c1:dd:c5:ae:a3:64:0f:89:2c:d0:aa:a8:53:f5:7c:
                    97:a1:eb:4a:3f:6d:ed:c2:53:1f:f5:54:08:5a:b0:
                    55:e7:2d:bf:28:5a:be:a7:19:1f:4b:af:85:75:c8:
                    61:2e:78:6f:65:9e:b4:1a:62:b3:33:ee:4f:ad:85:
                    1a:c6:e4:62:3c:11:be:07:0f:05:43:f4:73:9a:09:
                    1a:81:3a:05:0b:2a:df:52:08:de:23:d7:8f:11:11:
                    8e:de:a7:7f:86:eb:0c:6c:d6:39:90:0b:8d:f9:4c:
                    86:0a:3f:52:8a:33:0a:f3:20:78:6b:f9:16:41:b2:
                    73:71:3e:9c:0e:fd:3e:7a:e0:62:0e:47:cb:e2:87:
                    fd:16:0a:03:eb:c2:21:8b:2a:cb:72:0b:ac:1c:68:
                    26:d2:e6:3d:99:ad:a3:13:9a:81:a5:fb:12:e6:e5:
                    0b:5c:80:51:77:72:c6:9c:5b:92:b7:61:2c:c6:a3:
                    e2:96:d6:cc:4d:40:18:8f:a8:19:76:31:f0:1f:e3:
                    5e:c2:29:01:71:a1:9e:53:74:de:7d:46:bf:c0:6a:
                    90:f4:74:1a:21:ed:88:c4:7f:e7:18:94:39:51:43:
                    79:b4:66:d7:12:10:96:0a:e1:6c:6f:1b:6e:35:40:
                    b7:03:45:d5:65:1e:08:0b:79:4d:20:b0:46:86:fd:
                    74:02:63:27:a8:bc:22:1d:49:69:f5:2b:7f:f3:ae:
                    04:36:69:8b:29:f8:b3:3b:0e:37:4d:1f:2b:62:08:
                    56:f8:c0:16:04:a5:97:2f:f5:5b:67:47:6a:75:77:
                    dc:1f:b1:fe:f4:25:0d:28:1e:25:5a:30:d0:ee:2a:
                    89:ab:30:3c:f4:b8:b5:22:84:a9:b8:5b:77:f0:b8:
                    7b:0d:81:e0:c8:12:3d:3c:6d:62:95:95:e1:93:c1:
                    0f:ce:6c:34:ef:15:90:e2:14:1b:b8:5f:8e:3a:5a:
                    f4:e8:c0:9f:f6:d5:b8:2a:9a:3b:45:d2:1f:1c:47:
                    5a:14:bb:71:72:1e:05:41:78:07:3a:5f:34:00:46:
                    aa:8c:7a:27:2c:b1:c0:10:2b:80:66:61:5b:3e:e1:
                    66:ed:31:ba:db:bb:e7:6f:0a:39:9e:b0:7b:51:9d:
                    08:43:25:f4:df:e1:81:a6:54:d3:d5:4e:de:d9:e9:
                    67:fd:9a:26:ee:1e:cf:7b:f0:af:9c:62:04:e0:b0:
                    0e:3d:11:56:48:9a:82:64:88:de:52:e8:11:9f:b9:
                    f4:60:d5:b7:b7:d3:e0:0c:fe:14:d5:f3:73:e8:9c:
                    2d:47:12:fa:05:93:e4:62:d2:12:b2:2a:e1:19:0e:
                    c0:75:9b
                Exponent: 65537 (0x10001)
        X509v3 extensions:
            X509v3 Basic Constraints: 
                CA:FALSE
            Netscape Comment: 
                Easy-RSA Generated Certificate
            X509v3 Subject Key Identifier: 
                A6:CE:A3:58:96:03:FC:75:8D:26:11:27:14:C4:B3:32:E4:3A:52:31
            X509v3 Authority Key Identifier: 
                keyid:12:CD:60:04:D2:A0:80:9E:70:ED:C6:99:B8:7B:2C:C6:52:FD:19:A1
                DirName:/C=US/ST=OH/L=Columbus/O=VikingVPN/OU=MyOrganizationalUnit/CN=VikingVPN CA/name=EasyRSA/emailAddress=me@myhost.mydomain
                serial:CF:35:85:EE:80:BF:2A:3E

            X509v3 Extended Key Usage: 
                TLS Web Client Authentication
            X509v3 Key Usage: 
                Digital Signature
    Signature Algorithm: sha256WithRSAEncryption
         89:97:ee:5a:8f:38:ed:1d:a6:60:6d:39:60:0e:4e:a4:f4:ff:
         19:d4:3f:22:02:bd:36:a4:80:b5:d3:3e:f5:e5:a8:84:78:24:
         11:51:34:10:52:0d:08:64:11:30:22:8e:a5:66:26:7c:9b:9b:
         e0:a5:27:07:27:46:8a:b8:66:bc:95:c9:49:1d:36:b4:25:6b:
         32:ba:2c:ec:47:45:a9:95:89:21:5f:42:58:63:b2:33:e3:b5:
         f3:35:4a:0f:48:3a:9a:88:e9:a4:7c:ae:0b:76:e2:dd:7a:b7:
         92:2a:8f:6c:fd:da:d0:2e:d4:da:19:e9:60:3a:77:5d:1c:84:
         de:4a:34:63:1f:5d:2b:73:cf:f1:4b:37:37:a1:6b:29:72:c5:
         ea:f3:c9:e1:8a:78:6f:3c:64:33:80:9b:b6:7c:a2:e5:b4:86:
         09:e5:b3:7c:b5:fc:5e:f3:fb:2c:c3:c7:96:70:80:5c:85:21:
         e3:00:e9:e9:8e:4b:d1:2f:85:be:28:5e:e9:ce:92:c3:67:b1:
         a8:5d:ee:0b:23:5f:d0:44:2a:99:0b:f8:85:23:0b:2b:4b:6a:
         c3:c1:58:c7:9c:89:e2:9f:83:1c:24:8b:b1:da:33:ab:aa:a8:
         e4:ae:16:6e:47:4d:3c:0f:5b:a5:06:af:2e:75:fc:f4:1f:a7:
         a6:85:9f:bc:64:13:8c:6b:20:67:db:c8:14:65:99:1d:91:8b:
         e2:9d:c1:a9:95:5b:a1:01:21:3f:47:27:35:76:9e:94:14:e8:
         55:f5:bf:3c:c0:42:0b:a8:b2:40:53:59:45:e9:34:88:45:cc:
         eb:64:a4:2e:a7:ac:07:4c:dc:cb:ed:c0:8f:28:87:f5:94:4d:
         6e:00:5e:48:66:22:b6:94:27:62:81:35:4f:41:08:fb:bf:77:
         7d:c8:60:80:e2:e4:ab:c6:8f:cf:6b:c2:83:d7:fa:05:3b:e5:
         31:a6:b9:7b:52:c3:41:68:f5:a2:3a:27:35:f7:32:3b:e4:e1:
         78:0d:a3:79:35:57:87:03:ac:58:bd:cf:68:b9:f5:02:65:30:
         a1:17:95:56:ea:e0:23:8c:6a:68:12:72:5f:1c:a3:e9:6e:15:
         59:6a:50:90:e2:07:17:b5:60:a2:06:41:2d:f0:70:cf:73:09:
         5b:44:23:f9:00:83:96:c8:7a:90:67:23:ea:44:c9:66:90:5f:
         62:f8:19:30:11:c0:86:a2:1f:67:d3:c2:8d:31:32:32:e0:97:
         c4:f7:d9:4b:71:da:6b:f5:17:24:f0:58:23:1d:89:3f:14:d0:
         52:67:2c:7b:c8:b8:e7:5b:ea:de:63:0b:ed:c0:db:3b:cb:36:
         c3:cc:76:11:a0:e3:e7:24
-----BEGIN CERTIFICATE-----
MIIGrTCCBJWgAwIBAgICIY0wDQYJKoZIhvcNAQELBQAwgawxCzAJBgNVBAYTAlVT
MQswCQYDVQQIEwJPSDERMA8GA1UEBxMIQ29sdW1idXMxEjAQBgNVBAoTCVZpa2lu
Z1ZQTjEdMBsGA1UECxMUTXlPcmdhbml6YXRpb25hbFVuaXQxFTATBgNVBAMTDFZp
a2luZ1ZQTiBDQTEQMA4GA1UEKRMHRWFzeVJTQTEhMB8GCSqGSIb3DQEJARYSbWVA
bXlob3N0Lm15ZG9tYWluMB4XDTE2MDcyOTA5NDIxNFoXDTI2MDcyNzA5NDIxNFow
HzEdMBsGA1UEAxMUQ2xpZW50MjIyNUNlcnRhZWM1ZTcwggIiMA0GCSqGSIb3DQEB
AQUAA4ICDwAwggIKAoICAQC9dHiHek7B90HqqnRpTMHdxa6jZA+JLNCqqFP1fJeh
60o/be3CUx/1VAhasFXnLb8oWr6nGR9Lr4V1yGEueG9lnrQaYrMz7k+thRrG5GI8
Eb4HDwVD9HOaCRqBOgULKt9SCN4j148REY7ep3+G6wxs1jmQC435TIYKP1KKMwrz
IHhr+RZBsnNxPpwO/T564GIOR8vih/0WCgPrwiGLKstyC6wcaCbS5j2ZraMTmoGl
+xLm5QtcgFF3csacW5K3YSzGo+KW1sxNQBiPqBl2MfAf417CKQFxoZ5TdN59Rr/A
apD0dBoh7YjEf+cYlDlRQ3m0ZtcSEJYK4WxvG241QLcDRdVlHggLeU0gsEaG/XQC
YyeovCIdSWn1K3/zrgQ2aYsp+LM7DjdNHytiCFb4wBYEpZcv9VtnR2p1d9wfsf70
JQ0oHiVaMNDuKomrMDz0uLUihKm4W3fwuHsNgeDIEj08bWKVleGTwQ/ObDTvFZDi
FBu4X446WvTowJ/21bgqmjtF0h8cR1oUu3FyHgVBeAc6XzQARqqMeicsscAQK4Bm
YVs+4WbtMbrbu+dvCjmesHtRnQhDJfTf4YGmVNPVTt7Z6Wf9mibuHs978K+cYgTg
sA49EVZImoJkiN5S6BGfufRg1be30+AM/hTV83PonC1HEvoFk+Ri0hKyKuEZDsB1
mwIDAQABo4IBYzCCAV8wCQYDVR0TBAIwADAtBglghkgBhvhCAQ0EIBYeRWFzeS1S
U0EgR2VuZXJhdGVkIENlcnRpZmljYXRlMB0GA1UdDgQWBBSmzqNYlgP8dY0mEScU
xLMy5DpSMTCB4QYDVR0jBIHZMIHWgBQSzWAE0qCAnnDtxpm4eyzGUv0ZoaGBsqSB
rzCBrDELMAkGA1UEBhMCVVMxCzAJBgNVBAgTAk9IMREwDwYDVQQHEwhDb2x1bWJ1
czESMBAGA1UEChMJVmlraW5nVlBOMR0wGwYDVQQLExRNeU9yZ2FuaXphdGlvbmFs
VW5pdDEVMBMGA1UEAxMMVmlraW5nVlBOIENBMRAwDgYDVQQpEwdFYXN5UlNBMSEw
HwYJKoZIhvcNAQkBFhJtZUBteWhvc3QubXlkb21haW6CCQDPNYXugL8qPjATBgNV
HSUEDDAKBggrBgEFBQcDAjALBgNVHQ8EBAMCB4AwDQYJKoZIhvcNAQELBQADggIB
AImX7lqPOO0dpmBtOWAOTqT0/xnUPyICvTakgLXTPvXlqIR4JBFRNBBSDQhkETAi
jqVmJnybm+ClJwcnRoq4ZryVyUkdNrQlazK6LOxHRamViSFfQlhjsjPjtfM1Sg9I
OpqI6aR8rgt24t16t5Iqj2z92tAu1NoZ6WA6d10chN5KNGMfXStzz/FLNzehayly
xerzyeGKeG88ZDOAm7Z8ouW0hgnls3y1/F7z+yzDx5ZwgFyFIeMA6emOS9Evhb4o
XunOksNnsahd7gsjX9BEKpkL+IUjCytLasPBWMecieKfgxwki7HaM6uqqOSuFm5H
TTwPW6UGry51/PQfp6aFn7xkE4xrIGfbyBRlmR2Ri+KdwamVW6EBIT9HJzV2npQU
6FX1vzzAQguoskBTWUXpNIhFzOtkpC6nrAdM3MvtwI8oh/WUTW4AXkhmIraUJ2KB
NU9BCPu/d33IYIDi5KvGj89rwoPX+gU75TGmuXtSw0Fo9aI6JzX3Mjvk4XgNo3k1
V4cDrFi9z2i59QJlMKEXlVbq4COMamgScl8co+luFVlqUJDiBxe1YKIGQS3wcM9z
CVtEI/kAg5bIepBnI+pEyWaQX2L4GTARwIaiH2fTwo0xMjLgl8T32Utx2mv1FyTw
WCMdiT8U0FJnLHvIuOdb6t5jC+3A2zvLNsPMdhGg4+ck
-----END CERTIFICATE-----
