Certificate:
    Data:
        Version: 3 (0x2)
        Serial Number: 8518 (0x2146)
    Signature Algorithm: sha256WithRSAEncryption
        Issuer: C=US, ST=OH, L=Columbus, O=VikingVPN, OU=MyOrganizationalUnit, CN=VikingVPN CA/name=EasyRSA/emailAddress=me@myhost.mydomain
        Validity
            Not Before: Jul 19 02:29:28 2016 GMT
            Not After : Jul 17 02:29:28 2026 GMT
        Subject: CN=Client2426Cert989302
        Subject Public Key Info:
            Public Key Algorithm: rsaEncryption
                Public-Key: (4096 bit)
                Modulus:
                    00:d1:ea:fd:ba:a7:85:2b:94:4b:62:99:8f:17:47:
                    20:a8:79:5d:c9:af:6a:db:48:aa:40:0e:e4:e0:b5:
                    a2:de:26:54:cb:51:1f:1c:45:52:dc:ee:5b:62:28:
                    90:c0:02:50:26:3d:8c:c0:f0:ad:20:8c:01:f4:56:
                    30:c6:97:b8:88:74:e1:93:7c:b0:14:3e:42:6a:98:
                    6a:d5:ed:09:a7:69:71:df:83:ad:cb:c3:37:4e:b6:
                    b1:36:a9:ea:10:cd:a1:59:97:13:93:1a:3c:71:ab:
                    64:ac:a7:5b:41:63:df:9d:bf:27:3d:9e:f1:cb:58:
                    8c:ba:3d:3b:35:b3:4d:cd:90:8c:ca:84:6e:6b:6f:
                    b3:06:ca:b2:c7:83:b5:c6:df:66:4e:a1:9b:c7:9d:
                    b5:03:85:08:7c:2a:af:14:7b:7d:aa:74:a1:2b:4e:
                    5d:31:b8:8a:af:25:17:d5:0e:66:34:02:33:70:d0:
                    f1:9c:95:86:eb:4f:24:83:fd:c2:f1:9e:7a:5b:92:
                    a6:7c:56:c7:ac:9b:37:e1:35:0b:be:c0:1f:f1:26:
                    fe:b7:3f:ed:7b:b3:5c:3d:06:0d:24:4e:00:ac:47:
                    cd:72:67:35:22:9b:6c:09:5b:f8:eb:d7:1e:fb:94:
                    ce:53:a6:f0:9a:fd:f9:b1:fd:50:53:68:39:36:60:
                    ee:55:c0:95:a4:31:ea:67:6b:ec:ae:f0:40:6b:39:
                    d2:81:89:df:21:73:76:23:be:75:10:59:f5:95:15:
                    01:65:5e:ea:2a:90:a3:91:af:3f:cd:7e:57:60:11:
                    9a:dc:a6:9f:2c:86:26:6c:24:5b:aa:db:8a:67:f2:
                    34:e4:0d:79:7c:aa:7f:84:26:62:c5:d6:ec:62:04:
                    c3:c0:54:0f:e0:69:4b:cc:09:4f:96:4a:4f:3d:03:
                    8c:5c:5f:99:2c:07:7f:62:67:d0:e7:4b:98:49:bb:
                    4b:3c:8e:5a:13:03:76:da:1c:12:b9:bd:83:ac:b7:
                    68:b9:38:4b:77:5f:ea:22:8d:b4:04:3c:c3:82:4a:
                    dd:34:b0:48:b9:51:ef:cc:59:1d:dc:82:84:85:9d:
                    52:bd:fd:56:72:c4:63:ae:63:7c:85:58:97:b0:b0:
                    be:3f:6e:cf:97:32:c5:ce:d0:4a:d4:48:ac:a6:3a:
                    81:55:a2:12:08:cd:5d:0a:36:03:60:56:55:34:2a:
                    63:ab:0c:f2:91:6d:21:7e:cd:0a:44:ed:00:98:a1:
                    f8:ed:3b:e1:72:b8:1f:15:7d:2b:15:6d:28:88:a7:
                    a6:87:eb:59:41:e9:06:6c:d8:2c:84:cc:90:3d:95:
                    d7:68:a9:a5:27:77:46:ce:f9:b7:5e:b8:3b:ad:14:
                    fb:35:27
                Exponent: 65537 (0x10001)
        X509v3 extensions:
            X509v3 Basic Constraints: 
                CA:FALSE
            Netscape Comment: 
                Easy-RSA Generated Certificate
            X509v3 Subject Key Identifier: 
                5A:E5:2A:8D:EC:49:7B:F5:AD:B3:28:9C:44:94:1D:3F:92:65:F5:02
            X509v3 Authority Key Identifier: 
                keyid:12:CD:60:04:D2:A0:80:9E:70:ED:C6:99:B8:7B:2C:C6:52:FD:19:A1
                DirName:/C=US/ST=OH/L=Columbus/O=VikingVPN/OU=MyOrganizationalUnit/CN=VikingVPN CA/name=EasyRSA/emailAddress=me@myhost.mydomain
                serial:CF:35:85:EE:80:BF:2A:3E

            X509v3 Extended Key Usage: 
                TLS Web Client Authentication
            X509v3 Key Usage: 
                Digital Signature
    Signature Algorithm: sha256WithRSAEncryption
         cb:fe:fb:dd:3d:a7:7b:04:94:cf:91:41:db:a9:3c:ce:13:2f:
         98:4a:f9:4d:cd:23:eb:fd:0f:0a:61:d0:95:53:70:0b:d1:c5:
         ad:64:91:ac:05:15:ab:32:57:f4:8d:a4:d8:a5:42:54:39:b6:
         1e:91:09:65:ed:89:a6:fc:60:d5:42:78:9e:06:6c:7b:d9:4b:
         b6:af:a9:18:6d:80:96:bd:79:68:64:41:47:26:5b:03:f1:34:
         6c:0b:b7:ae:b2:60:13:56:3e:39:a4:e5:32:60:51:a3:d4:f3:
         50:d8:f9:5b:13:66:8f:0e:f1:ea:9b:32:98:94:29:ca:0b:ec:
         ec:10:17:dd:3b:7d:49:d5:0f:80:9e:e0:35:68:d2:19:1f:7c:
         8c:5c:d8:ea:b5:9e:70:69:6a:53:ca:81:b0:83:5c:16:76:30:
         6c:b8:7d:18:8b:43:67:5c:3f:a0:62:0b:03:de:11:74:6c:49:
         79:a5:e7:52:ef:a1:ef:ea:d8:53:e7:e0:d1:8f:24:94:46:e8:
         fe:5f:f3:a0:e7:7d:25:c4:61:ba:6b:86:3d:95:d4:82:77:fc:
         8e:d2:49:1b:6c:1d:e9:9f:89:27:d8:ba:e9:47:74:e9:25:41:
         c4:ab:ad:b6:4f:01:54:b7:de:51:97:48:2b:33:af:82:88:f1:
         ab:de:80:78:86:58:43:cb:a9:d8:6f:7b:04:8c:a0:4e:b4:ca:
         fd:56:b9:9f:02:97:c9:2d:44:34:cb:e1:4b:f3:41:b7:03:7c:
         93:bc:3c:32:2c:f1:d2:b2:56:dd:53:9d:38:28:30:28:12:92:
         8f:47:01:98:c5:54:e4:5e:f6:ac:27:3f:2e:38:09:46:86:53:
         2b:a6:e9:b7:3c:75:1d:b9:4c:5b:4f:af:20:db:06:2b:f4:76:
         90:c5:f5:7e:77:b6:ce:34:16:a5:91:bd:7e:94:d5:80:f9:4d:
         2c:2f:fe:64:53:a3:09:12:d0:66:9b:1f:8b:8c:21:16:c4:d0:
         68:7c:26:7d:36:ef:6e:03:6d:1e:06:52:08:60:3c:66:16:06:
         78:9f:70:5e:30:64:22:80:d5:a9:42:36:2a:06:df:c1:db:54:
         3f:39:24:ea:5e:3a:38:14:a6:47:9e:7c:44:44:ed:19:6b:2d:
         a6:ad:68:63:a5:de:f7:59:68:c6:1c:c1:72:08:0a:85:5b:61:
         4b:01:e1:5d:dd:0d:19:a5:08:e6:49:ed:67:ee:70:e8:ee:8c:
         28:6d:31:b8:3e:2c:6f:93:15:67:1c:4c:c1:e3:78:7b:c2:c5:
         3b:e6:4d:d9:6b:b5:c1:f5:73:a6:ef:01:46:9f:92:14:fa:cc:
         66:d5:6f:c0:7d:24:35:54
-----BEGIN CERTIFICATE-----
MIIGrTCCBJWgAwIBAgICIUYwDQYJKoZIhvcNAQELBQAwgawxCzAJBgNVBAYTAlVT
MQswCQYDVQQIEwJPSDERMA8GA1UEBxMIQ29sdW1idXMxEjAQBgNVBAoTCVZpa2lu
Z1ZQTjEdMBsGA1UECxMUTXlPcmdhbml6YXRpb25hbFVuaXQxFTATBgNVBAMTDFZp
a2luZ1ZQTiBDQTEQMA4GA1UEKRMHRWFzeVJTQTEhMB8GCSqGSIb3DQEJARYSbWVA
bXlob3N0Lm15ZG9tYWluMB4XDTE2MDcxOTAyMjkyOFoXDTI2MDcxNzAyMjkyOFow
HzEdMBsGA1UEAxMUQ2xpZW50MjQyNkNlcnQ5ODkzMDIwggIiMA0GCSqGSIb3DQEB
AQUAA4ICDwAwggIKAoICAQDR6v26p4UrlEtimY8XRyCoeV3Jr2rbSKpADuTgtaLe
JlTLUR8cRVLc7ltiKJDAAlAmPYzA8K0gjAH0VjDGl7iIdOGTfLAUPkJqmGrV7Qmn
aXHfg63LwzdOtrE2qeoQzaFZlxOTGjxxq2Ssp1tBY9+dvyc9nvHLWIy6PTs1s03N
kIzKhG5rb7MGyrLHg7XG32ZOoZvHnbUDhQh8Kq8Ue32qdKErTl0xuIqvJRfVDmY0
AjNw0PGclYbrTySD/cLxnnpbkqZ8VsesmzfhNQu+wB/xJv63P+17s1w9Bg0kTgCs
R81yZzUim2wJW/jr1x77lM5TpvCa/fmx/VBTaDk2YO5VwJWkMepna+yu8EBrOdKB
id8hc3YjvnUQWfWVFQFlXuoqkKORrz/NfldgEZrcpp8shiZsJFuq24pn8jTkDXl8
qn+EJmLF1uxiBMPAVA/gaUvMCU+WSk89A4xcX5ksB39iZ9DnS5hJu0s8jloTA3ba
HBK5vYOst2i5OEt3X+oijbQEPMOCSt00sEi5Ue/MWR3cgoSFnVK9/VZyxGOuY3yF
WJewsL4/bs+XMsXO0ErUSKymOoFVohIIzV0KNgNgVlU0KmOrDPKRbSF+zQpE7QCY
ofjtO+FyuB8VfSsVbSiIp6aH61lB6QZs2CyEzJA9lddoqaUnd0bO+bdeuDutFPs1
JwIDAQABo4IBYzCCAV8wCQYDVR0TBAIwADAtBglghkgBhvhCAQ0EIBYeRWFzeS1S
U0EgR2VuZXJhdGVkIENlcnRpZmljYXRlMB0GA1UdDgQWBBRa5SqN7El79a2zKJxE
lB0/kmX1AjCB4QYDVR0jBIHZMIHWgBQSzWAE0qCAnnDtxpm4eyzGUv0ZoaGBsqSB
rzCBrDELMAkGA1UEBhMCVVMxCzAJBgNVBAgTAk9IMREwDwYDVQQHEwhDb2x1bWJ1
czESMBAGA1UEChMJVmlraW5nVlBOMR0wGwYDVQQLExRNeU9yZ2FuaXphdGlvbmFs
VW5pdDEVMBMGA1UEAxMMVmlraW5nVlBOIENBMRAwDgYDVQQpEwdFYXN5UlNBMSEw
HwYJKoZIhvcNAQkBFhJtZUBteWhvc3QubXlkb21haW6CCQDPNYXugL8qPjATBgNV
HSUEDDAKBggrBgEFBQcDAjALBgNVHQ8EBAMCB4AwDQYJKoZIhvcNAQELBQADggIB
AMv++909p3sElM+RQdupPM4TL5hK+U3NI+v9Dwph0JVTcAvRxa1kkawFFasyV/SN
pNilQlQ5th6RCWXtiab8YNVCeJ4GbHvZS7avqRhtgJa9eWhkQUcmWwPxNGwLt66y
YBNWPjmk5TJgUaPU81DY+VsTZo8O8eqbMpiUKcoL7OwQF907fUnVD4Ce4DVo0hkf
fIxc2Oq1nnBpalPKgbCDXBZ2MGy4fRiLQ2dcP6BiCwPeEXRsSXml51Lvoe/q2FPn
4NGPJJRG6P5f86DnfSXEYbprhj2V1IJ3/I7SSRtsHemfiSfYuulHdOklQcSrrbZP
AVS33lGXSCszr4KI8avegHiGWEPLqdhvewSMoE60yv1WuZ8Cl8ktRDTL4UvzQbcD
fJO8PDIs8dKyVt1TnTgoMCgSko9HAZjFVORe9qwnPy44CUaGUyum6bc8dR25TFtP
ryDbBiv0dpDF9X53ts40FqWRvX6U1YD5TSwv/mRTowkS0GabH4uMIRbE0Gh8Jn02
724DbR4GUghgPGYWBnifcF4wZCKA1alCNioG38HbVD85JOpeOjgUpkeefERE7Rlr
LaataGOl3vdZaMYcwXIICoVbYUsB4V3dDRmlCOZJ7WfucOjujChtMbg+LG+TFWcc
TMHjeHvCxTvmTdlrtcH1c6bvAUafkhT6zGbVb8B9JDVU
-----END CERTIFICATE-----
