Certificate:
    Data:
        Version: 3 (0x2)
        Serial Number: 6832 (0x1ab0)
    Signature Algorithm: md5WithRSAEncryption
        Issuer: C=US, ST=OH, L=Columbus, O=VikingVPN, OU=MyOrganizationalUnit, CN=VikingVPN CA/name=EasyRSA/emailAddress=me@myhost.mydomain
        Validity
            Not Before: Dec  3 07:25:15 2015 GMT
            Not After : Nov 30 07:25:15 2025 GMT
        Subject: CN=Client2090Cert197fe4
        Subject Public Key Info:
            Public Key Algorithm: rsaEncryption
                Public-Key: (4096 bit)
                Modulus:
                    00:b0:50:21:b6:41:bc:e7:c9:a1:4c:d8:1b:13:73:
                    c1:d3:af:06:cc:42:a6:96:d5:dd:d9:a6:66:98:f0:
                    7c:3c:f3:23:0f:05:20:42:d1:76:62:88:06:8b:91:
                    18:4c:b0:aa:e9:67:f5:b6:fc:9e:8b:a1:00:15:b7:
                    1f:ab:33:c0:72:87:46:e2:0c:51:67:53:e6:13:b9:
                    fe:8a:a1:4f:54:ad:e2:37:69:3a:12:26:58:34:dc:
                    8e:f7:fb:00:9b:e1:45:a4:4f:a2:c7:97:5a:db:d1:
                    76:c5:46:86:dd:70:26:c3:15:38:56:02:c4:7d:34:
                    8f:48:5d:1c:72:68:71:f0:bd:99:8f:2d:ed:a5:f7:
                    75:42:d6:c0:fc:8f:16:4e:29:cb:11:9c:86:16:b9:
                    e9:ed:34:2c:72:b1:81:1d:f7:31:32:cb:32:d7:c5:
                    90:d0:28:d3:7e:d6:3e:b1:b8:48:02:14:55:b7:d7:
                    98:3e:2e:55:c9:6a:8f:f6:79:4a:68:7c:82:36:38:
                    ca:9e:5b:b6:94:63:fa:5f:d8:76:3f:0f:80:65:c7:
                    b1:41:d7:80:1e:95:8e:a1:20:70:2f:c4:c2:f1:6e:
                    4b:af:a1:65:a0:c2:43:5b:90:ea:7a:02:f0:7b:da:
                    f6:b2:1f:bd:98:b9:4d:a7:82:90:96:b9:16:6d:c6:
                    37:59:20:7b:ce:3a:8f:bd:32:63:de:6c:a4:44:dc:
                    c8:04:cc:c6:be:a5:ac:cb:37:4c:4b:35:0f:24:15:
                    74:83:9e:34:21:71:fd:79:fe:26:29:c6:fc:84:cf:
                    dc:49:45:e9:93:40:a8:46:f4:7a:b5:c8:c3:c1:b8:
                    2f:49:7e:a1:c9:c1:f7:84:28:9e:44:4f:6c:e7:b5:
                    02:cf:0e:b9:b9:61:38:6a:de:3c:45:d2:24:6b:4a:
                    2d:1b:88:66:f7:b5:e9:12:7b:77:7e:90:88:a4:50:
                    10:d0:80:0d:84:96:72:b8:3e:87:5a:53:3f:01:69:
                    c7:df:fa:01:ce:d2:87:28:22:30:8f:66:df:41:28:
                    a9:c2:b5:e0:41:15:0e:5c:b7:f4:ca:e1:9d:39:3f:
                    76:32:36:90:cf:77:88:43:b3:aa:45:e6:f8:e0:b8:
                    7e:5f:c6:75:4a:14:3c:f7:85:81:16:20:4e:46:ad:
                    8e:03:16:3b:b5:1b:d8:8e:ac:eb:13:22:2e:6b:52:
                    9b:d4:7d:ca:a3:3e:d4:c0:93:e6:f4:12:cb:a0:c1:
                    a3:e3:a9:ee:05:83:3c:61:3e:0b:36:22:e7:f9:c2:
                    9b:c6:2a:b8:d8:df:57:28:62:20:92:39:70:a0:1c:
                    1c:18:45:09:12:af:01:e5:f6:53:6a:0c:bb:71:0c:
                    d4:3e:d3
                Exponent: 65537 (0x10001)
        X509v3 extensions:
            X509v3 Basic Constraints: 
                CA:FALSE
            Netscape Comment: 
                Easy-RSA Generated Certificate
            X509v3 Subject Key Identifier: 
                71:20:85:E4:23:1A:61:3F:2E:F1:90:4D:16:78:20:78:52:62:50:D9
            X509v3 Authority Key Identifier: 
                keyid:12:CD:60:04:D2:A0:80:9E:70:ED:C6:99:B8:7B:2C:C6:52:FD:19:A1
                DirName:/C=US/ST=OH/L=Columbus/O=VikingVPN/OU=MyOrganizationalUnit/CN=VikingVPN CA/name=EasyRSA/emailAddress=me@myhost.mydomain
                serial:CF:35:85:EE:80:BF:2A:3E

            X509v3 Extended Key Usage: 
                TLS Web Client Authentication
            X509v3 Key Usage: 
                Digital Signature
    Signature Algorithm: md5WithRSAEncryption
         e5:d3:6a:c1:62:0f:14:65:a2:88:66:20:ff:35:87:b2:c6:20:
         67:23:fb:6c:71:3f:67:20:40:a8:2f:48:5b:2c:b0:0a:78:b1:
         8e:f1:c9:ae:0c:1b:f4:ff:53:9e:59:eb:a5:e5:f9:c1:52:33:
         bc:20:b6:88:3c:0c:b3:dd:dc:df:d8:2d:d9:a2:90:db:3b:09:
         3a:b1:79:f5:6a:5a:58:e3:43:6a:0c:ce:c7:64:40:48:91:20:
         fa:be:b6:30:a1:62:17:d5:46:5e:19:ee:ac:4b:bd:25:ec:c8:
         06:83:ab:c5:b8:a5:10:53:a9:c8:6e:3f:ab:51:f6:1e:5b:c5:
         77:39:80:7f:f4:7e:53:a1:d9:8d:6a:ed:6d:e5:43:06:8f:54:
         fc:a4:4a:85:44:a4:79:8d:f5:50:14:68:5e:71:38:a8:de:4a:
         51:c6:f7:c8:ac:41:e1:3a:13:71:91:e8:26:45:b2:88:cf:9c:
         32:e7:e7:3c:ae:af:f6:02:16:de:dc:9c:b7:19:9f:da:e9:7b:
         fd:60:d1:a1:50:8c:3a:fa:c7:02:74:10:19:a0:98:d2:3e:76:
         2d:84:61:d0:e2:16:25:14:73:95:17:dc:e2:f6:a6:f6:7c:ab:
         c1:8d:bf:d2:da:6e:74:d4:70:0d:00:44:ea:a6:5d:a4:8d:3f:
         14:8a:f4:d8:72:1b:0b:41:b3:09:86:af:b3:70:50:d9:66:56:
         ef:7c:ac:27:23:92:22:36:7f:b3:f9:3e:ae:33:3f:fb:ad:a9:
         f7:de:2b:2c:67:41:12:21:64:c4:3b:5a:68:4e:c1:50:57:bf:
         76:e6:9b:19:4c:35:ea:fe:53:ab:84:0e:d5:d7:12:a9:f1:25:
         54:00:22:8b:49:e8:4b:07:f9:f5:19:f4:6d:57:ff:6d:41:1a:
         15:31:21:e8:d1:67:56:84:24:8d:85:31:46:c7:c6:f3:3b:c4:
         47:46:9e:a9:73:48:32:15:a9:37:fa:7e:15:bd:8d:4c:70:d1:
         62:6d:e9:17:63:c9:40:f1:4d:83:6c:7e:1a:70:28:e9:09:da:
         b0:22:f8:3c:ad:ca:42:a3:9a:a5:d0:af:2f:5a:52:eb:4c:15:
         9f:40:95:65:17:15:1f:62:66:53:06:45:3e:89:6a:4a:e6:4d:
         9a:ac:50:f7:2f:5f:29:12:2c:59:cc:8d:dd:a9:71:9a:4f:da:
         10:d2:2a:4c:27:3f:19:1f:73:9b:8c:e7:9a:b1:c5:f7:71:8e:
         44:8f:f1:f1:d7:c8:99:db:c6:b8:5c:68:d8:30:b7:95:61:f0:
         ed:41:70:a6:f3:71:da:7b:cc:dc:91:4a:de:8e:cb:ad:c5:05:
         27:f4:ff:36:4d:1f:a3:2b
-----BEGIN CERTIFICATE-----
MIIGrTCCBJWgAwIBAgICGrAwDQYJKoZIhvcNAQEEBQAwgawxCzAJBgNVBAYTAlVT
MQswCQYDVQQIEwJPSDERMA8GA1UEBxMIQ29sdW1idXMxEjAQBgNVBAoTCVZpa2lu
Z1ZQTjEdMBsGA1UECxMUTXlPcmdhbml6YXRpb25hbFVuaXQxFTATBgNVBAMTDFZp
a2luZ1ZQTiBDQTEQMA4GA1UEKRMHRWFzeVJTQTEhMB8GCSqGSIb3DQEJARYSbWVA
bXlob3N0Lm15ZG9tYWluMB4XDTE1MTIwMzA3MjUxNVoXDTI1MTEzMDA3MjUxNVow
HzEdMBsGA1UEAxMUQ2xpZW50MjA5MENlcnQxOTdmZTQwggIiMA0GCSqGSIb3DQEB
AQUAA4ICDwAwggIKAoICAQCwUCG2QbznyaFM2BsTc8HTrwbMQqaW1d3ZpmaY8Hw8
8yMPBSBC0XZiiAaLkRhMsKrpZ/W2/J6LoQAVtx+rM8Byh0biDFFnU+YTuf6KoU9U
reI3aToSJlg03I73+wCb4UWkT6LHl1rb0XbFRobdcCbDFThWAsR9NI9IXRxyaHHw
vZmPLe2l93VC1sD8jxZOKcsRnIYWuentNCxysYEd9zEyyzLXxZDQKNN+1j6xuEgC
FFW315g+LlXJao/2eUpofII2OMqeW7aUY/pf2HY/D4Blx7FB14AelY6hIHAvxMLx
bkuvoWWgwkNbkOp6AvB72vayH72YuU2ngpCWuRZtxjdZIHvOOo+9MmPebKRE3MgE
zMa+pazLN0xLNQ8kFXSDnjQhcf15/iYpxvyEz9xJRemTQKhG9Hq1yMPBuC9JfqHJ
wfeEKJ5ET2zntQLPDrm5YThq3jxF0iRrSi0biGb3tekSe3d+kIikUBDQgA2ElnK4
PodaUz8Bacff+gHO0ocoIjCPZt9BKKnCteBBFQ5ct/TK4Z05P3YyNpDPd4hDs6pF
5vjguH5fxnVKFDz3hYEWIE5GrY4DFju1G9iOrOsTIi5rUpvUfcqjPtTAk+b0Esug
waPjqe4FgzxhPgs2Iuf5wpvGKrjY31coYiCSOXCgHBwYRQkSrwHl9lNqDLtxDNQ+
0wIDAQABo4IBYzCCAV8wCQYDVR0TBAIwADAtBglghkgBhvhCAQ0EIBYeRWFzeS1S
U0EgR2VuZXJhdGVkIENlcnRpZmljYXRlMB0GA1UdDgQWBBRxIIXkIxphPy7xkE0W
eCB4UmJQ2TCB4QYDVR0jBIHZMIHWgBQSzWAE0qCAnnDtxpm4eyzGUv0ZoaGBsqSB
rzCBrDELMAkGA1UEBhMCVVMxCzAJBgNVBAgTAk9IMREwDwYDVQQHEwhDb2x1bWJ1
czESMBAGA1UEChMJVmlraW5nVlBOMR0wGwYDVQQLExRNeU9yZ2FuaXphdGlvbmFs
VW5pdDEVMBMGA1UEAxMMVmlraW5nVlBOIENBMRAwDgYDVQQpEwdFYXN5UlNBMSEw
HwYJKoZIhvcNAQkBFhJtZUBteWhvc3QubXlkb21haW6CCQDPNYXugL8qPjATBgNV
HSUEDDAKBggrBgEFBQcDAjALBgNVHQ8EBAMCB4AwDQYJKoZIhvcNAQEEBQADggIB
AOXTasFiDxRloohmIP81h7LGIGcj+2xxP2cgQKgvSFsssAp4sY7xya4MG/T/U55Z
66Xl+cFSM7wgtog8DLPd3N/YLdmikNs7CTqxefVqWljjQ2oMzsdkQEiRIPq+tjCh
YhfVRl4Z7qxLvSXsyAaDq8W4pRBTqchuP6tR9h5bxXc5gH/0flOh2Y1q7W3lQwaP
VPykSoVEpHmN9VAUaF5xOKjeSlHG98isQeE6E3GR6CZFsojPnDLn5zyur/YCFt7c
nLcZn9rpe/1g0aFQjDr6xwJ0EBmgmNI+di2EYdDiFiUUc5UX3OL2pvZ8q8GNv9La
bnTUcA0AROqmXaSNPxSK9NhyGwtBswmGr7NwUNlmVu98rCcjkiI2f7P5Pq4zP/ut
qffeKyxnQRIhZMQ7WmhOwVBXv3bmmxlMNer+U6uEDtXXEqnxJVQAIotJ6EsH+fUZ
9G1X/21BGhUxIejRZ1aEJI2FMUbHxvM7xEdGnqlzSDIVqTf6fhW9jUxw0WJt6Rdj
yUDxTYNsfhpwKOkJ2rAi+DytykKjmqXQry9aUutMFZ9AlWUXFR9iZlMGRT6Jakrm
TZqsUPcvXykSLFnMjd2pcZpP2hDSKkwnPxkfc5uM55qxxfdxjkSP8fHXyJnbxrhc
aNgwt5Vh8O1BcKbzcdp7zNyRSt6Oy63FBSf0/zZNH6Mr
-----END CERTIFICATE-----
