Certificate:
    Data:
        Version: 3 (0x2)
        Serial Number: 7354 (0x1cba)
    Signature Algorithm: md5WithRSAEncryption
        Issuer: C=US, ST=OH, L=Columbus, O=VikingVPN, OU=MyOrganizationalUnit, CN=VikingVPN CA/name=EasyRSA/emailAddress=me@myhost.mydomain
        Validity
            Not Before: Feb 29 09:55:22 2016 GMT
            Not After : Feb 26 09:55:22 2026 GMT
        Subject: CN=Client1398Certaa44eb
        Subject Public Key Info:
            Public Key Algorithm: rsaEncryption
                Public-Key: (4096 bit)
                Modulus:
                    00:ee:57:54:f4:ae:39:7a:b4:e1:00:f6:c6:d1:c8:
                    d1:a5:42:d8:c4:65:d9:e3:cb:cc:74:4e:d2:64:f8:
                    cd:84:dc:7a:df:a9:97:d4:70:76:b0:62:33:e4:b9:
                    ed:e0:f4:f2:e7:3b:dd:66:a3:00:3b:c0:86:e9:57:
                    c3:fe:5d:62:9d:80:6b:6e:b2:bf:d5:06:a1:ca:99:
                    ed:7f:53:6f:8c:be:85:af:c6:1a:70:96:e4:35:b9:
                    7d:55:ac:7a:bc:c0:ec:c8:c3:b5:9a:52:26:4a:08:
                    0b:77:f3:e3:0c:1b:1b:20:95:e1:1b:cc:5c:e5:64:
                    3e:c3:c1:4a:bb:8b:34:b2:29:d2:74:fc:aa:2b:8f:
                    c5:87:03:3a:e2:fa:45:77:74:20:c7:0a:8e:fe:79:
                    12:b4:be:d9:71:8b:5e:0e:b3:01:86:0f:6a:2e:3e:
                    3a:e8:e8:32:b7:ae:ad:33:7c:f5:17:09:a2:64:88:
                    52:76:e1:65:d2:fd:63:d3:76:90:6d:41:f6:10:3a:
                    73:2a:34:ae:f6:65:a9:e5:4b:99:0d:fa:9e:e2:d5:
                    7a:b3:cd:06:70:a1:32:00:2b:21:e9:59:75:34:43:
                    c3:91:b5:31:7d:5f:75:a1:58:60:12:e9:13:66:3f:
                    3c:2c:30:cd:a0:10:68:05:04:43:5e:3d:25:f0:99:
                    83:63:24:77:5d:a2:02:e3:57:36:1b:04:e0:11:7b:
                    c1:06:90:22:bd:a2:27:1c:c1:98:53:26:3b:90:12:
                    73:1f:b9:a5:38:b2:d2:4f:8c:64:6c:e2:56:27:41:
                    a8:d0:04:0c:37:2b:aa:0e:29:9f:bf:de:92:1c:49:
                    b8:3b:ac:11:3e:e9:3e:31:68:14:9f:db:91:df:51:
                    c6:4c:59:46:bd:ae:f7:f7:39:7f:18:2f:0d:a9:65:
                    ae:71:95:7b:4b:af:82:b3:ad:be:59:94:5a:78:30:
                    0d:55:88:e3:d9:57:8f:bf:68:8a:13:da:7b:a3:17:
                    b8:55:a8:a1:96:be:33:2b:2b:4e:97:db:88:76:d8:
                    2d:a2:47:b9:e9:dd:e5:26:88:95:72:b4:8f:15:58:
                    b3:fd:82:81:40:30:fa:7c:c0:a0:70:ad:52:22:9e:
                    a0:41:d5:ec:71:b4:17:08:2a:f3:cf:45:ba:84:99:
                    25:78:df:0a:95:df:ff:a6:bf:4f:0b:e5:e2:31:b1:
                    02:56:52:9b:92:59:6b:f0:bc:2a:e5:62:c0:2d:4d:
                    33:c0:97:da:c3:a3:44:0b:00:05:ae:7b:e3:1c:36:
                    7b:cc:61:90:4b:cd:6c:9e:63:89:27:4f:9f:da:c0:
                    f7:b0:51:a4:a5:fa:cd:f1:ee:e9:32:3b:4a:a4:54:
                    cc:96:53
                Exponent: 65537 (0x10001)
        X509v3 extensions:
            X509v3 Basic Constraints: 
                CA:FALSE
            Netscape Comment: 
                Easy-RSA Generated Certificate
            X509v3 Subject Key Identifier: 
                55:68:F4:9F:11:A1:EB:24:C0:38:C5:03:AD:6E:8F:1A:77:F4:D9:B1
            X509v3 Authority Key Identifier: 
                keyid:12:CD:60:04:D2:A0:80:9E:70:ED:C6:99:B8:7B:2C:C6:52:FD:19:A1
                DirName:/C=US/ST=OH/L=Columbus/O=VikingVPN/OU=MyOrganizationalUnit/CN=VikingVPN CA/name=EasyRSA/emailAddress=me@myhost.mydomain
                serial:CF:35:85:EE:80:BF:2A:3E

            X509v3 Extended Key Usage: 
                TLS Web Client Authentication
            X509v3 Key Usage: 
                Digital Signature
    Signature Algorithm: md5WithRSAEncryption
         bf:18:f1:b1:e8:fd:bd:23:b0:d4:56:09:68:63:17:de:16:30:
         59:05:7d:7e:c6:a5:20:a4:84:57:a1:f6:7e:ce:c0:d6:cc:97:
         84:4d:bb:d9:91:b9:57:47:11:ea:6d:a7:92:a1:db:8d:d3:b3:
         b7:61:61:05:fd:0f:0c:c1:07:7a:ac:43:22:e0:1c:5e:42:b1:
         5a:83:a7:9a:7d:0d:83:c4:18:3f:6e:af:7d:93:1e:a6:87:09:
         fb:25:59:ba:a2:48:bc:de:fa:d9:a7:ed:35:98:6a:5b:3d:77:
         2c:73:68:ee:5e:5a:a1:89:b1:98:01:05:41:b2:d3:a4:a5:89:
         72:4b:e7:e8:83:dc:02:17:5d:ef:a7:5b:85:be:0a:0e:1a:5d:
         4e:ce:3a:1f:af:39:fc:7a:36:39:90:fb:2e:0a:e7:59:28:8c:
         4c:d2:31:aa:70:11:88:98:8a:53:5f:13:8e:58:2e:b5:38:7c:
         97:e7:5e:05:8d:a8:0a:dd:81:ab:c4:fc:bc:48:1e:6f:70:a6:
         57:f1:11:25:5a:41:c1:51:99:7d:62:49:51:9b:dc:31:85:2e:
         b4:7e:c1:1e:5a:5a:33:bd:8b:ee:0d:70:40:3b:40:ed:02:28:
         52:d6:f6:7c:f1:aa:12:3b:b5:b8:a8:47:62:f4:1c:f9:a7:c5:
         ef:57:5c:fd:dc:61:e7:db:61:3d:e6:0c:66:fc:f7:e7:9b:14:
         9d:7c:2c:37:24:d0:e2:fd:31:44:5f:55:b1:2b:6f:a3:a1:03:
         02:f6:d5:2a:f1:ed:f9:6a:d6:87:49:b5:90:95:3b:b0:1d:dc:
         cd:d6:8a:82:39:22:60:a2:c7:9a:c9:c3:f0:eb:64:0b:ae:34:
         fe:d4:73:c1:7f:46:83:a1:0f:07:72:6a:d2:fb:d6:8c:e8:1e:
         b8:3a:f7:d2:37:06:8f:0e:67:b2:16:f0:3a:d6:5c:b9:00:b1:
         68:c8:6a:94:ee:9d:21:9e:b4:40:9c:b2:78:7f:f6:b9:ca:c4:
         46:1a:73:a0:b2:dc:d1:5a:30:ad:0e:5c:a1:fb:11:de:7b:c4:
         2c:ec:79:9b:5f:37:e3:60:06:3b:8c:c3:58:c5:80:6a:a4:69:
         82:cc:26:fe:64:d4:ec:a5:0b:00:44:03:a9:47:5f:1b:89:26:
         41:c7:24:2d:00:48:86:8e:85:4f:29:50:e8:ed:74:fa:60:96:
         af:64:99:60:3d:da:7d:92:2c:9e:0d:ec:f1:30:b8:1a:66:d4:
         47:75:06:7d:9f:fa:00:a3:86:1c:83:0d:06:ab:8b:a9:e4:ea:
         45:9d:76:61:5f:5d:05:82:3f:72:83:fe:4a:c0:b3:fe:28:23:
         14:d8:2e:e3:f0:ee:2e:bb
-----BEGIN CERTIFICATE-----
MIIGrTCCBJWgAwIBAgICHLowDQYJKoZIhvcNAQEEBQAwgawxCzAJBgNVBAYTAlVT
MQswCQYDVQQIEwJPSDERMA8GA1UEBxMIQ29sdW1idXMxEjAQBgNVBAoTCVZpa2lu
Z1ZQTjEdMBsGA1UECxMUTXlPcmdhbml6YXRpb25hbFVuaXQxFTATBgNVBAMTDFZp
a2luZ1ZQTiBDQTEQMA4GA1UEKRMHRWFzeVJTQTEhMB8GCSqGSIb3DQEJARYSbWVA
bXlob3N0Lm15ZG9tYWluMB4XDTE2MDIyOTA5NTUyMloXDTI2MDIyNjA5NTUyMlow
HzEdMBsGA1UEAxMUQ2xpZW50MTM5OENlcnRhYTQ0ZWIwggIiMA0GCSqGSIb3DQEB
AQUAA4ICDwAwggIKAoICAQDuV1T0rjl6tOEA9sbRyNGlQtjEZdnjy8x0TtJk+M2E
3HrfqZfUcHawYjPkue3g9PLnO91mowA7wIbpV8P+XWKdgGtusr/VBqHKme1/U2+M
voWvxhpwluQ1uX1VrHq8wOzIw7WaUiZKCAt38+MMGxsgleEbzFzlZD7DwUq7izSy
KdJ0/Korj8WHAzri+kV3dCDHCo7+eRK0vtlxi14OswGGD2ouPjro6DK3rq0zfPUX
CaJkiFJ24WXS/WPTdpBtQfYQOnMqNK72ZanlS5kN+p7i1XqzzQZwoTIAKyHpWXU0
Q8ORtTF9X3WhWGAS6RNmPzwsMM2gEGgFBENePSXwmYNjJHddogLjVzYbBOARe8EG
kCK9oiccwZhTJjuQEnMfuaU4stJPjGRs4lYnQajQBAw3K6oOKZ+/3pIcSbg7rBE+
6T4xaBSf25HfUcZMWUa9rvf3OX8YLw2pZa5xlXtLr4Kzrb5ZlFp4MA1ViOPZV4+/
aIoT2nujF7hVqKGWvjMrK06X24h22C2iR7np3eUmiJVytI8VWLP9goFAMPp8wKBw
rVIinqBB1exxtBcIKvPPRbqEmSV43wqV3/+mv08L5eIxsQJWUpuSWWvwvCrlYsAt
TTPAl9rDo0QLAAWue+McNnvMYZBLzWyeY4knT5/awPewUaSl+s3x7ukyO0qkVMyW
UwIDAQABo4IBYzCCAV8wCQYDVR0TBAIwADAtBglghkgBhvhCAQ0EIBYeRWFzeS1S
U0EgR2VuZXJhdGVkIENlcnRpZmljYXRlMB0GA1UdDgQWBBRVaPSfEaHrJMA4xQOt
bo8ad/TZsTCB4QYDVR0jBIHZMIHWgBQSzWAE0qCAnnDtxpm4eyzGUv0ZoaGBsqSB
rzCBrDELMAkGA1UEBhMCVVMxCzAJBgNVBAgTAk9IMREwDwYDVQQHEwhDb2x1bWJ1
czESMBAGA1UEChMJVmlraW5nVlBOMR0wGwYDVQQLExRNeU9yZ2FuaXphdGlvbmFs
VW5pdDEVMBMGA1UEAxMMVmlraW5nVlBOIENBMRAwDgYDVQQpEwdFYXN5UlNBMSEw
HwYJKoZIhvcNAQkBFhJtZUBteWhvc3QubXlkb21haW6CCQDPNYXugL8qPjATBgNV
HSUEDDAKBggrBgEFBQcDAjALBgNVHQ8EBAMCB4AwDQYJKoZIhvcNAQEEBQADggIB
AL8Y8bHo/b0jsNRWCWhjF94WMFkFfX7GpSCkhFeh9n7OwNbMl4RNu9mRuVdHEept
p5Kh243Ts7dhYQX9DwzBB3qsQyLgHF5CsVqDp5p9DYPEGD9ur32THqaHCfslWbqi
SLze+tmn7TWYals9dyxzaO5eWqGJsZgBBUGy06SliXJL5+iD3AIXXe+nW4W+Cg4a
XU7OOh+vOfx6NjmQ+y4K51kojEzSMapwEYiYilNfE45YLrU4fJfnXgWNqArdgavE
/LxIHm9wplfxESVaQcFRmX1iSVGb3DGFLrR+wR5aWjO9i+4NcEA7QO0CKFLW9nzx
qhI7tbioR2L0HPmnxe9XXP3cYefbYT3mDGb89+ebFJ18LDck0OL9MURfVbErb6Oh
AwL21Srx7flq1odJtZCVO7Ad3M3WioI5ImCix5rJw/DrZAuuNP7Uc8F/RoOhDwdy
atL71ozoHrg699I3Bo8OZ7IW8DrWXLkAsWjIapTunSGetECcsnh/9rnKxEYac6Cy
3NFaMK0OXKH7Ed57xCzseZtfN+NgBjuMw1jFgGqkaYLMJv5k1OylCwBEA6lHXxuJ
JkHHJC0ASIaOhU8pUOjtdPpglq9kmWA92n2SLJ4N7PEwuBpm1Ed1Bn2f+gCjhhyD
DQari6nk6kWddmFfXQWCP3KD/krAs/4oIxTYLuPw7i67
-----END CERTIFICATE-----
