Certificate:
    Data:
        Version: 3 (0x2)
        Serial Number: 3976 (0xf88)
    Signature Algorithm: md5WithRSAEncryption
        Issuer: C=US, ST=OH, L=Columbus, O=VikingVPN, OU=MyOrganizationalUnit, CN=VikingVPN CA/name=EasyRSA/emailAddress=me@myhost.mydomain
        Validity
            Not Before: Jan  2 21:21:44 2015 GMT
            Not After : Dec 30 21:21:44 2024 GMT
        Subject: CN=Client1324Certeb9ef2
        Subject Public Key Info:
            Public Key Algorithm: rsaEncryption
                Public-Key: (4096 bit)
                Modulus:
                    00:e8:29:2e:a4:af:34:d1:f0:f7:35:97:5f:eb:98:
                    dc:0e:72:93:52:26:9c:07:bd:8f:66:78:6c:8b:e1:
                    41:c2:34:46:a3:83:d4:3c:39:0f:af:b5:d2:25:5b:
                    2d:1f:15:34:cb:81:41:40:e2:24:fc:6f:e2:de:11:
                    d0:30:99:4c:04:9f:d4:07:bc:f6:97:25:35:3c:c4:
                    8d:dd:3a:0a:dc:fd:07:24:4e:2d:a7:77:95:ba:a9:
                    70:08:02:ba:16:69:7a:e2:a1:14:a2:a2:c7:06:c4:
                    4d:65:c0:15:9b:1a:7e:2c:bb:b6:64:a4:8c:95:40:
                    37:f5:30:c5:63:32:35:4a:ea:c3:87:3a:0f:cf:6a:
                    bf:b5:4e:7c:2d:4f:8c:ee:c6:a2:df:1b:c8:d5:6e:
                    5e:26:96:58:98:e2:31:a5:56:30:04:50:b6:98:d7:
                    db:df:d2:34:cd:98:23:ad:fa:de:3e:b5:0e:94:fc:
                    c8:e2:92:02:f5:07:5d:4f:da:62:fe:c4:04:29:00:
                    f5:58:51:15:13:e7:11:a1:bb:4d:cd:41:24:1b:63:
                    d8:b5:87:8c:80:39:8a:f5:c5:3d:d0:8e:d0:0e:e4:
                    13:6b:1b:5a:52:7e:fd:40:7a:33:82:f5:12:8c:26:
                    a5:07:f2:a7:59:db:67:65:0f:37:e5:3b:73:ed:4f:
                    f6:87:7c:b6:f8:c4:47:34:73:a0:d7:7a:52:a5:db:
                    eb:84:98:31:d3:57:71:5a:a4:79:de:67:b8:e8:a7:
                    ec:02:83:1c:64:4e:bc:b7:93:bf:a1:dc:b0:a6:07:
                    60:c2:f5:3a:50:7c:45:41:24:23:36:16:1d:69:b6:
                    65:72:c8:bd:57:ed:86:d1:42:8d:84:9f:ab:53:4c:
                    c6:f1:ff:24:ea:30:7c:51:9a:dc:af:9b:e0:4b:73:
                    72:c0:8f:f7:f3:3c:00:20:f7:d6:ad:42:bb:d1:08:
                    a8:d2:01:ba:56:78:2a:2b:43:12:ad:73:a5:2c:cf:
                    3f:77:da:60:b1:18:cb:83:1b:fc:00:94:a5:35:96:
                    fa:19:1d:1c:a4:1d:29:9d:f0:9f:00:96:6c:66:fb:
                    57:4c:1a:56:00:8f:15:05:f1:b1:74:53:4f:33:f6:
                    a8:3b:72:cd:b5:39:dd:23:6e:7e:c4:d9:54:64:ef:
                    d0:88:78:34:d7:bd:9e:fe:1b:38:b1:51:46:42:05:
                    e0:21:dd:4b:a5:ab:b3:1d:ac:34:6c:ee:e9:65:73:
                    ff:a5:4e:d5:59:00:51:7b:06:b5:33:38:48:b2:50:
                    d0:66:8e:f4:4f:c8:1d:9c:a7:08:16:03:5e:2d:86:
                    c6:17:5c:34:89:7d:77:00:c4:72:7b:11:7e:4c:81:
                    b4:00:9f
                Exponent: 65537 (0x10001)
        X509v3 extensions:
            X509v3 Basic Constraints: 
                CA:FALSE
            Netscape Comment: 
                Easy-RSA Generated Certificate
            X509v3 Subject Key Identifier: 
                32:4C:4B:D9:E5:84:1C:FD:A7:DF:7B:B7:87:A9:81:93:34:06:DB:FA
            X509v3 Authority Key Identifier: 
                keyid:12:CD:60:04:D2:A0:80:9E:70:ED:C6:99:B8:7B:2C:C6:52:FD:19:A1
                DirName:/C=US/ST=OH/L=Columbus/O=VikingVPN/OU=MyOrganizationalUnit/CN=VikingVPN CA/name=EasyRSA/emailAddress=me@myhost.mydomain
                serial:CF:35:85:EE:80:BF:2A:3E

            X509v3 Extended Key Usage: 
                TLS Web Client Authentication
            X509v3 Key Usage: 
                Digital Signature
    Signature Algorithm: md5WithRSAEncryption
         7c:84:88:ed:de:67:0f:e3:46:a0:3b:9d:40:89:06:cf:27:74:
         9a:b5:c2:0b:2b:03:0b:10:f0:cf:c8:ab:a0:4e:b4:a1:c0:03:
         ec:70:f8:8f:ac:43:cc:69:36:36:59:55:ab:14:f3:58:db:2f:
         86:57:a2:41:a8:2b:95:d7:42:52:12:04:61:fb:c1:57:3b:5c:
         aa:48:b5:88:06:79:fb:8a:64:97:ec:da:f1:7d:1b:f9:e4:37:
         7e:dc:56:a9:40:37:03:ba:03:8e:e5:a4:52:49:03:9e:a4:7c:
         d1:cd:6f:0c:fe:dd:44:54:aa:95:35:bd:02:a1:92:29:34:9f:
         24:9b:6c:5f:b1:14:e9:65:43:f6:ca:21:33:34:ba:9c:6b:3d:
         b6:2d:5f:b3:05:87:15:cb:29:92:7f:5f:6b:83:3f:c7:fa:1f:
         49:91:d7:58:a0:0b:7a:e0:ab:6d:a2:b0:47:2d:bf:f6:74:7b:
         54:6f:97:42:c2:3c:44:2d:88:52:1f:0a:35:a5:cb:a0:0b:1b:
         e0:b6:c0:c6:1b:8a:f2:12:2b:8a:62:d0:d6:18:f8:50:4a:22:
         9f:24:fa:64:63:df:6e:ad:7b:98:75:69:73:75:10:d8:57:df:
         6b:e5:89:85:64:21:67:8f:e5:68:77:d7:f3:e2:5b:0b:cb:09:
         5d:35:bc:2c:af:80:59:f3:86:83:6e:e5:37:b2:8d:ba:16:4a:
         04:02:d7:e9:5e:af:8d:0b:e8:f4:43:a3:c6:ae:07:fe:c3:54:
         01:85:9a:6e:d7:75:33:a5:6d:26:f0:90:44:63:23:b2:f8:58:
         38:d3:f5:ab:58:e6:10:dd:78:a0:bb:6b:da:3f:79:6a:a7:25:
         1f:dd:3f:ef:dd:ae:aa:79:06:29:4e:23:9c:2a:a7:8a:97:33:
         d8:ad:06:ca:58:89:48:a0:50:4a:9c:0a:78:f4:6b:3b:57:21:
         ce:65:e9:4d:24:10:91:21:dc:50:9e:82:4c:52:d2:b3:71:ae:
         b4:40:76:af:f7:01:57:92:c8:4e:f1:62:0a:de:3b:94:6c:0b:
         38:00:24:6b:2e:f0:c5:b3:8f:01:ad:4a:d7:53:2b:c1:56:f3:
         62:a4:e3:6d:06:21:6e:ed:3d:2a:a9:1d:30:2f:a3:ba:58:fb:
         fa:78:f7:49:73:5d:9c:df:31:ee:87:0c:65:b3:c9:7f:30:08:
         be:77:53:93:98:a7:ba:e5:25:80:8f:9f:dc:72:09:33:f2:ff:
         4b:c7:c8:9a:51:e9:1d:12:99:ef:e2:41:05:d6:4d:cd:d9:6d:
         b5:81:08:5c:ea:01:2a:d6:45:01:1d:4d:9a:1c:dc:24:36:a1:
         c1:a8:ea:5a:5d:3d:2d:21
-----BEGIN CERTIFICATE-----
MIIGrTCCBJWgAwIBAgICD4gwDQYJKoZIhvcNAQEEBQAwgawxCzAJBgNVBAYTAlVT
MQswCQYDVQQIEwJPSDERMA8GA1UEBxMIQ29sdW1idXMxEjAQBgNVBAoTCVZpa2lu
Z1ZQTjEdMBsGA1UECxMUTXlPcmdhbml6YXRpb25hbFVuaXQxFTATBgNVBAMTDFZp
a2luZ1ZQTiBDQTEQMA4GA1UEKRMHRWFzeVJTQTEhMB8GCSqGSIb3DQEJARYSbWVA
bXlob3N0Lm15ZG9tYWluMB4XDTE1MDEwMjIxMjE0NFoXDTI0MTIzMDIxMjE0NFow
HzEdMBsGA1UEAxMUQ2xpZW50MTMyNENlcnRlYjllZjIwggIiMA0GCSqGSIb3DQEB
AQUAA4ICDwAwggIKAoICAQDoKS6krzTR8Pc1l1/rmNwOcpNSJpwHvY9meGyL4UHC
NEajg9Q8OQ+vtdIlWy0fFTTLgUFA4iT8b+LeEdAwmUwEn9QHvPaXJTU8xI3dOgrc
/QckTi2nd5W6qXAIAroWaXrioRSioscGxE1lwBWbGn4su7ZkpIyVQDf1MMVjMjVK
6sOHOg/Par+1TnwtT4zuxqLfG8jVbl4mlliY4jGlVjAEULaY19vf0jTNmCOt+t4+
tQ6U/MjikgL1B11P2mL+xAQpAPVYURUT5xGhu03NQSQbY9i1h4yAOYr1xT3QjtAO
5BNrG1pSfv1AejOC9RKMJqUH8qdZ22dlDzflO3PtT/aHfLb4xEc0c6DXelKl2+uE
mDHTV3FapHneZ7jop+wCgxxkTry3k7+h3LCmB2DC9TpQfEVBJCM2Fh1ptmVyyL1X
7YbRQo2En6tTTMbx/yTqMHxRmtyvm+BLc3LAj/fzPAAg99atQrvRCKjSAbpWeCor
QxKtc6Uszz932mCxGMuDG/wAlKU1lvoZHRykHSmd8J8Almxm+1dMGlYAjxUF8bF0
U08z9qg7cs21Od0jbn7E2VRk79CIeDTXvZ7+GzixUUZCBeAh3Uulq7MdrDRs7ull
c/+lTtVZAFF7BrUzOEiyUNBmjvRPyB2cpwgWA14thsYXXDSJfXcAxHJ7EX5MgbQA
nwIDAQABo4IBYzCCAV8wCQYDVR0TBAIwADAtBglghkgBhvhCAQ0EIBYeRWFzeS1S
U0EgR2VuZXJhdGVkIENlcnRpZmljYXRlMB0GA1UdDgQWBBQyTEvZ5YQc/affe7eH
qYGTNAbb+jCB4QYDVR0jBIHZMIHWgBQSzWAE0qCAnnDtxpm4eyzGUv0ZoaGBsqSB
rzCBrDELMAkGA1UEBhMCVVMxCzAJBgNVBAgTAk9IMREwDwYDVQQHEwhDb2x1bWJ1
czESMBAGA1UEChMJVmlraW5nVlBOMR0wGwYDVQQLExRNeU9yZ2FuaXphdGlvbmFs
VW5pdDEVMBMGA1UEAxMMVmlraW5nVlBOIENBMRAwDgYDVQQpEwdFYXN5UlNBMSEw
HwYJKoZIhvcNAQkBFhJtZUBteWhvc3QubXlkb21haW6CCQDPNYXugL8qPjATBgNV
HSUEDDAKBggrBgEFBQcDAjALBgNVHQ8EBAMCB4AwDQYJKoZIhvcNAQEEBQADggIB
AHyEiO3eZw/jRqA7nUCJBs8ndJq1wgsrAwsQ8M/Iq6BOtKHAA+xw+I+sQ8xpNjZZ
VasU81jbL4ZXokGoK5XXQlISBGH7wVc7XKpItYgGefuKZJfs2vF9G/nkN37cVqlA
NwO6A47lpFJJA56kfNHNbwz+3URUqpU1vQKhkik0nySbbF+xFOllQ/bKITM0upxr
PbYtX7MFhxXLKZJ/X2uDP8f6H0mR11igC3rgq22isEctv/Z0e1Rvl0LCPEQtiFIf
CjWly6ALG+C2wMYbivISK4pi0NYY+FBKIp8k+mRj326te5h1aXN1ENhX32vliYVk
IWeP5Wh31/PiWwvLCV01vCyvgFnzhoNu5TeyjboWSgQC1+ler40L6PRDo8auB/7D
VAGFmm7XdTOlbSbwkERjI7L4WDjT9atY5hDdeKC7a9o/eWqnJR/dP+/drqp5BilO
I5wqp4qXM9itBspYiUigUEqcCnj0aztXIc5l6U0kEJEh3FCegkxS0rNxrrRAdq/3
AVeSyE7xYgreO5RsCzgAJGsu8MWzjwGtStdTK8FW82Kk420GIW7tPSqpHTAvo7pY
+/p490lzXZzfMe6HDGWzyX8wCL53U5OYp7rlJYCPn9xyCTPy/0vHyJpR6R0Sme/i
QQXWTc3ZbbWBCFzqASrWRQEdTZoc3CQ2ocGo6lpdPS0h
-----END CERTIFICATE-----
