Certificate:
    Data:
        Version: 3 (0x2)
        Serial Number: 5332 (0x14d4)
    Signature Algorithm: md5WithRSAEncryption
        Issuer: C=US, ST=OH, L=Columbus, O=VikingVPN, OU=MyOrganizationalUnit, CN=VikingVPN CA/name=EasyRSA/emailAddress=me@myhost.mydomain
        Validity
            Not Before: May 19 10:50:45 2015 GMT
            Not After : May 16 10:50:45 2025 GMT
        Subject: CN=Client1702Cert45532b
        Subject Public Key Info:
            Public Key Algorithm: rsaEncryption
                Public-Key: (4096 bit)
                Modulus:
                    00:b6:cf:cf:f7:8b:39:82:15:48:69:30:ae:42:15:
                    49:72:20:76:ef:70:f8:74:7a:0d:4f:d1:12:45:24:
                    08:1c:fd:09:d0:92:8e:2a:f2:63:6a:65:d4:23:72:
                    39:7b:86:67:ac:0a:4e:6b:09:2b:e5:cc:ef:ad:53:
                    fd:cd:4b:35:b5:f8:1f:58:01:28:01:35:39:1c:3c:
                    c0:fe:10:72:90:dd:42:ee:59:8f:1e:30:a0:f8:e9:
                    4e:32:7e:9c:c1:81:f3:71:71:e3:ba:50:d1:25:5e:
                    a9:19:e5:c5:c0:38:e5:4a:e4:a5:74:aa:7b:d4:a5:
                    05:15:b7:cc:76:2c:f3:8b:82:d5:95:27:f0:b7:ea:
                    25:b1:b1:60:15:a1:8f:60:17:e5:ad:f7:1d:15:8a:
                    12:8e:6c:53:cf:c7:90:19:35:52:14:3d:e7:98:1b:
                    6a:7f:87:9f:ad:8a:f0:8a:9e:5f:48:46:de:4d:d8:
                    3c:e0:9d:ff:50:76:7e:3c:00:68:ce:1b:17:97:c8:
                    79:ba:d9:f7:56:b7:5a:8f:d2:ec:f0:93:05:22:b6:
                    13:16:21:30:4a:72:36:76:50:1c:31:63:26:fe:99:
                    4b:aa:5b:32:cd:b0:9f:e0:a2:61:46:09:df:76:09:
                    54:a6:75:a9:00:24:ee:7f:51:54:22:ad:da:ca:c7:
                    21:a8:c0:ef:a9:2a:3b:8a:2c:98:74:85:72:59:e8:
                    0d:d0:4c:62:01:22:20:86:e9:79:24:29:43:fc:08:
                    40:86:88:25:37:61:fb:d5:09:2f:56:c7:0a:42:77:
                    1b:33:0e:a0:4d:72:e8:25:2e:1b:3b:40:2e:b5:14:
                    e1:42:c1:11:e1:4b:cd:6e:ae:5a:00:78:ea:9c:1d:
                    95:a6:f5:12:16:1e:ce:4d:3d:24:2b:a0:84:e3:fa:
                    a3:50:6a:72:8b:f6:08:e5:b4:5c:a5:53:b0:82:64:
                    98:a7:06:8e:c0:e5:a9:9f:b9:9a:76:a1:18:f1:9f:
                    66:03:d2:fa:53:65:52:80:e7:9d:ce:f3:7d:cb:a7:
                    a4:cf:9d:4c:73:98:78:03:82:bc:a7:c6:bc:b6:8c:
                    96:84:80:2c:ab:f5:f8:a7:07:ef:1b:e4:51:18:57:
                    1f:b9:02:ef:5a:e4:00:aa:15:1b:82:32:5d:ce:49:
                    12:5a:ba:60:56:08:ad:bf:59:0e:b5:a5:d6:47:ad:
                    c3:a0:b8:86:df:a4:70:b2:24:66:92:13:d6:58:c3:
                    11:99:fb:9d:cc:70:25:75:ad:3b:87:16:49:9a:42:
                    35:8e:20:af:69:45:fc:e1:ab:9d:d6:d9:47:e6:d1:
                    89:7e:3d:74:18:23:05:b2:3b:bf:cd:df:e2:d9:c8:
                    08:39:83
                Exponent: 65537 (0x10001)
        X509v3 extensions:
            X509v3 Basic Constraints: 
                CA:FALSE
            Netscape Comment: 
                Easy-RSA Generated Certificate
            X509v3 Subject Key Identifier: 
                A3:BF:7F:C9:8C:0B:57:B5:99:E2:5E:C1:AF:D7:20:0A:A2:FA:02:A5
            X509v3 Authority Key Identifier: 
                keyid:12:CD:60:04:D2:A0:80:9E:70:ED:C6:99:B8:7B:2C:C6:52:FD:19:A1
                DirName:/C=US/ST=OH/L=Columbus/O=VikingVPN/OU=MyOrganizationalUnit/CN=VikingVPN CA/name=EasyRSA/emailAddress=me@myhost.mydomain
                serial:CF:35:85:EE:80:BF:2A:3E

            X509v3 Extended Key Usage: 
                TLS Web Client Authentication
            X509v3 Key Usage: 
                Digital Signature
    Signature Algorithm: md5WithRSAEncryption
         32:31:36:8e:f7:01:fe:a7:63:af:df:1e:48:6b:38:7c:6c:ad:
         33:f0:8b:31:b8:51:b3:45:8a:ff:0f:30:8b:b2:c8:62:83:60:
         71:52:fe:3b:28:76:a8:be:8d:74:18:1c:b5:43:37:67:0a:1f:
         50:e8:4c:17:0f:01:fe:1b:1d:35:e7:fa:0a:b1:d4:ab:82:df:
         5c:6d:08:9e:96:22:32:8f:9e:bd:16:98:b1:a6:44:cc:64:94:
         03:63:41:5d:4e:85:38:c6:84:c0:96:78:29:2e:de:db:10:75:
         c7:90:11:3a:97:3a:59:03:de:96:d1:a0:6e:9c:9d:63:66:e7:
         f9:3e:69:75:31:29:d3:4e:f0:69:0c:20:cd:51:c9:7f:9c:4c:
         a6:54:bf:06:3d:9e:39:a4:52:f2:44:87:c1:b0:08:18:a9:75:
         cf:87:9a:6f:6f:9f:85:88:3e:71:ef:4c:d0:03:17:ea:a0:85:
         71:ee:80:ad:9f:83:22:70:e7:1e:15:8e:3f:fe:bd:46:ad:02:
         b3:e8:e4:af:ea:6f:c1:96:51:4c:d5:52:1c:de:d5:07:22:c5:
         a1:4f:36:d3:b2:b1:c0:47:4d:9a:17:e6:ce:8b:31:c1:df:72:
         9c:39:91:02:a8:78:16:7a:dc:21:c0:a2:5e:e1:d0:38:91:c5:
         56:da:4b:5f:77:f7:cd:df:a0:25:6d:e4:5b:4b:55:ba:ff:8e:
         8e:56:56:05:af:30:b5:99:1d:34:61:3a:f0:4e:04:fc:20:87:
         9d:ed:f1:b5:69:5a:e8:32:b6:8d:ba:f9:b1:36:9d:b9:13:ba:
         0c:7d:8d:04:d7:b4:62:3d:4c:76:8b:4f:1b:21:8b:e7:7a:fe:
         f1:fd:a6:f4:ee:53:7e:1c:5e:ba:73:96:67:e0:b7:29:6a:67:
         c0:0a:31:e5:ab:19:55:16:f3:df:f1:83:ab:82:1a:e3:9c:40:
         cb:7a:80:9a:d7:76:71:3d:e1:0b:75:ae:45:a8:3a:b4:3b:f9:
         e3:27:29:1c:cc:ef:ff:fe:24:7a:ee:f6:82:28:b5:e6:e8:3b:
         d8:d6:43:1e:f2:b2:97:6c:7b:d9:f9:4e:ed:87:a4:d7:95:5f:
         61:6a:53:a4:51:cc:11:24:5a:42:06:4b:53:d0:92:23:ab:87:
         e5:6f:59:a6:7b:76:27:5f:32:76:2c:dd:70:bc:79:85:16:31:
         6a:20:9a:51:7e:13:4c:79:31:dd:9f:2d:fb:30:21:8d:04:fa:
         96:de:c1:b2:8f:2e:24:61:8c:cf:d9:10:77:68:bc:e2:6f:2a:
         06:89:83:f8:09:f3:c6:9e:eb:e7:cf:7a:bc:b5:05:31:5b:c1:
         ec:3a:0f:9b:c5:67:36:d2
-----BEGIN CERTIFICATE-----
MIIGrTCCBJWgAwIBAgICFNQwDQYJKoZIhvcNAQEEBQAwgawxCzAJBgNVBAYTAlVT
MQswCQYDVQQIEwJPSDERMA8GA1UEBxMIQ29sdW1idXMxEjAQBgNVBAoTCVZpa2lu
Z1ZQTjEdMBsGA1UECxMUTXlPcmdhbml6YXRpb25hbFVuaXQxFTATBgNVBAMTDFZp
a2luZ1ZQTiBDQTEQMA4GA1UEKRMHRWFzeVJTQTEhMB8GCSqGSIb3DQEJARYSbWVA
bXlob3N0Lm15ZG9tYWluMB4XDTE1MDUxOTEwNTA0NVoXDTI1MDUxNjEwNTA0NVow
HzEdMBsGA1UEAxMUQ2xpZW50MTcwMkNlcnQ0NTUzMmIwggIiMA0GCSqGSIb3DQEB
AQUAA4ICDwAwggIKAoICAQC2z8/3izmCFUhpMK5CFUlyIHbvcPh0eg1P0RJFJAgc
/QnQko4q8mNqZdQjcjl7hmesCk5rCSvlzO+tU/3NSzW1+B9YASgBNTkcPMD+EHKQ
3ULuWY8eMKD46U4yfpzBgfNxceO6UNElXqkZ5cXAOOVK5KV0qnvUpQUVt8x2LPOL
gtWVJ/C36iWxsWAVoY9gF+Wt9x0VihKObFPPx5AZNVIUPeeYG2p/h5+tivCKnl9I
Rt5N2Dzgnf9Qdn48AGjOGxeXyHm62fdWt1qP0uzwkwUithMWITBKcjZ2UBwxYyb+
mUuqWzLNsJ/gomFGCd92CVSmdakAJO5/UVQirdrKxyGowO+pKjuKLJh0hXJZ6A3Q
TGIBIiCG6XkkKUP8CECGiCU3YfvVCS9WxwpCdxszDqBNcuglLhs7QC61FOFCwRHh
S81urloAeOqcHZWm9RIWHs5NPSQroITj+qNQanKL9gjltFylU7CCZJinBo7A5amf
uZp2oRjxn2YD0vpTZVKA553O833Lp6TPnUxzmHgDgrynxry2jJaEgCyr9finB+8b
5FEYVx+5Au9a5ACqFRuCMl3OSRJaumBWCK2/WQ61pdZHrcOguIbfpHCyJGaSE9ZY
wxGZ+53McCV1rTuHFkmaQjWOIK9pRfzhq53W2Ufm0Yl+PXQYIwWyO7/N3+LZyAg5
gwIDAQABo4IBYzCCAV8wCQYDVR0TBAIwADAtBglghkgBhvhCAQ0EIBYeRWFzeS1S
U0EgR2VuZXJhdGVkIENlcnRpZmljYXRlMB0GA1UdDgQWBBSjv3/JjAtXtZniXsGv
1yAKovoCpTCB4QYDVR0jBIHZMIHWgBQSzWAE0qCAnnDtxpm4eyzGUv0ZoaGBsqSB
rzCBrDELMAkGA1UEBhMCVVMxCzAJBgNVBAgTAk9IMREwDwYDVQQHEwhDb2x1bWJ1
czESMBAGA1UEChMJVmlraW5nVlBOMR0wGwYDVQQLExRNeU9yZ2FuaXphdGlvbmFs
VW5pdDEVMBMGA1UEAxMMVmlraW5nVlBOIENBMRAwDgYDVQQpEwdFYXN5UlNBMSEw
HwYJKoZIhvcNAQkBFhJtZUBteWhvc3QubXlkb21haW6CCQDPNYXugL8qPjATBgNV
HSUEDDAKBggrBgEFBQcDAjALBgNVHQ8EBAMCB4AwDQYJKoZIhvcNAQEEBQADggIB
ADIxNo73Af6nY6/fHkhrOHxsrTPwizG4UbNFiv8PMIuyyGKDYHFS/jsodqi+jXQY
HLVDN2cKH1DoTBcPAf4bHTXn+gqx1KuC31xtCJ6WIjKPnr0WmLGmRMxklANjQV1O
hTjGhMCWeCku3tsQdceQETqXOlkD3pbRoG6cnWNm5/k+aXUxKdNO8GkMIM1RyX+c
TKZUvwY9njmkUvJEh8GwCBipdc+Hmm9vn4WIPnHvTNADF+qghXHugK2fgyJw5x4V
jj/+vUatArPo5K/qb8GWUUzVUhze1QcixaFPNtOyscBHTZoX5s6LMcHfcpw5kQKo
eBZ63CHAol7h0DiRxVbaS193983foCVt5FtLVbr/jo5WVgWvMLWZHTRhOvBOBPwg
h53t8bVpWugyto26+bE2nbkTugx9jQTXtGI9THaLTxshi+d6/vH9pvTuU34cXrpz
lmfgtylqZ8AKMeWrGVUW89/xg6uCGuOcQMt6gJrXdnE94Qt1rkWoOrQ7+eMnKRzM
7//+JHru9oIoteboO9jWQx7yspdse9n5Tu2HpNeVX2FqU6RRzBEkWkIGS1PQkiOr
h+VvWaZ7didfMnYs3XC8eYUWMWogmlF+E0x5Md2fLfswIY0E+pbewbKPLiRhjM/Z
EHdovOJvKgaJg/gJ88ae6+fPery1BTFbwew6D5vFZzbS
-----END CERTIFICATE-----
