Certificate:
    Data:
        Version: 3 (0x2)
        Serial Number: 12463 (0x30af)
    Signature Algorithm: sha256WithRSAEncryption
        Issuer: C=US, ST=OH, L=Columbus, O=VikingVPN, OU=MyOrganizationalUnit, CN=VikingVPN CA/name=EasyRSA/emailAddress=me@myhost.mydomain
        Validity
            Not Before: Jan 22 22:36:00 2018 GMT
            Not After : Jan 20 22:36:00 2028 GMT
        Subject: CN=Client3164Cert6fd2b6
        Subject Public Key Info:
            Public Key Algorithm: rsaEncryption
                Public-Key: (4096 bit)
                Modulus:
                    00:ce:b8:f9:2e:15:84:27:b2:29:ff:46:d6:61:9a:
                    80:31:7b:83:ac:7f:cf:82:38:34:9e:07:59:d3:e2:
                    ec:35:5f:1a:ab:2b:53:49:30:b0:9d:3a:0e:cc:ea:
                    14:07:17:9c:3a:17:38:18:ba:61:fb:a2:14:45:8b:
                    c5:0e:24:46:f8:38:9c:bb:f5:a5:5f:ae:c8:02:5d:
                    fa:66:31:d9:87:93:92:13:6d:3e:c1:a2:85:d9:b4:
                    1c:88:7b:0c:49:2b:a7:c1:58:00:f8:2f:67:b8:67:
                    95:f9:81:45:b1:ff:5b:48:d7:0c:77:15:86:ad:d3:
                    58:85:48:a4:85:ef:3f:66:b9:e0:ca:ae:e1:3a:74:
                    64:e1:4b:91:ce:02:8f:49:98:ac:5b:eb:0c:e0:b8:
                    e0:11:2a:79:61:ef:fb:96:27:4d:c4:a9:6c:f8:34:
                    27:4c:bb:75:6f:72:c7:2e:29:b0:3a:b8:3b:71:47:
                    7e:4b:30:93:95:46:11:0a:5c:91:95:ae:38:ee:67:
                    d5:18:a8:24:b6:06:5b:c8:f1:d0:42:dc:3f:48:e4:
                    0c:27:9b:a5:61:12:cd:4e:b0:77:70:81:1e:d6:e9:
                    68:01:f7:89:66:e2:54:59:3c:84:a8:15:c8:84:49:
                    5a:22:da:2f:d4:9b:7a:cc:b5:7b:90:87:01:05:2d:
                    3f:d0:a2:4f:0a:7a:bf:2b:0f:69:3f:03:fa:29:f5:
                    b4:14:3b:d2:bf:a7:de:6d:f6:0e:dd:51:ed:48:5c:
                    b2:53:88:56:43:5f:23:41:af:61:0d:03:4b:9c:d2:
                    10:d1:ce:1e:e6:9f:a5:6b:72:f7:57:e0:48:d4:4f:
                    54:51:2d:b1:03:d1:75:1d:99:38:1d:bd:64:c1:90:
                    1f:ec:be:98:c9:6f:0b:1f:27:3d:2b:d2:2d:b8:4b:
                    c7:87:21:b8:29:c6:b3:73:50:5a:95:4f:1d:21:06:
                    43:46:c0:93:6c:3d:de:45:6f:af:ab:fa:df:b7:02:
                    25:e6:13:3d:92:26:25:0b:2f:ac:a3:ac:c1:2b:18:
                    ae:89:43:bc:c7:2f:18:72:56:61:03:69:c6:f6:12:
                    26:00:ca:85:1b:e4:50:e8:63:7d:ba:06:cc:f2:f2:
                    1f:9d:fd:e1:ef:43:19:85:ff:d9:41:c7:70:9d:50:
                    82:37:df:49:62:af:f0:5b:22:2f:3e:6e:1f:0f:c2:
                    ee:0f:54:29:ff:e4:31:03:a6:56:da:ee:49:fb:01:
                    07:32:7c:e5:2d:44:9e:86:9f:3c:ff:87:dd:f3:1a:
                    70:8c:18:13:b1:c1:69:80:48:66:28:7e:f9:d3:8d:
                    2c:6e:0e:bb:1f:13:cc:4f:d7:d4:22:de:93:8c:27:
                    21:76:79
                Exponent: 65537 (0x10001)
        X509v3 extensions:
            X509v3 Basic Constraints: 
                CA:FALSE
            Netscape Comment: 
                Easy-RSA Generated Certificate
            X509v3 Subject Key Identifier: 
                27:90:1B:08:FB:8F:CC:4D:35:0A:91:35:A7:17:5F:6A:A1:6A:9F:0E
            X509v3 Authority Key Identifier: 
                keyid:12:CD:60:04:D2:A0:80:9E:70:ED:C6:99:B8:7B:2C:C6:52:FD:19:A1
                DirName:/C=US/ST=OH/L=Columbus/O=VikingVPN/OU=MyOrganizationalUnit/CN=VikingVPN CA/name=EasyRSA/emailAddress=me@myhost.mydomain
                serial:CF:35:85:EE:80:BF:2A:3E

            X509v3 Extended Key Usage: 
                TLS Web Client Authentication
            X509v3 Key Usage: 
                Digital Signature
    Signature Algorithm: sha256WithRSAEncryption
         31:99:0f:4a:10:d8:1f:f7:e3:b2:14:c9:f8:bb:de:2c:86:1c:
         a9:7e:12:5b:46:29:3f:6d:82:1b:b0:b8:ab:db:26:da:a8:84:
         7b:12:10:84:8b:d6:eb:7c:e5:c0:f1:a8:59:94:f6:3b:c0:77:
         c1:17:29:d0:06:14:36:a0:b6:e2:65:76:3d:ae:be:e1:db:cb:
         d9:f6:f9:b4:22:c9:c1:83:a7:32:7c:8d:86:f8:a4:cd:c1:e1:
         6f:96:3a:37:ee:7d:ef:6a:23:83:19:8b:f8:eb:f3:f7:9f:23:
         e6:be:7b:9a:89:6e:c4:44:c2:62:bd:2a:ae:d8:5a:36:a8:f2:
         f2:3a:65:fa:19:d3:0b:f4:a5:e7:a6:7c:41:56:69:f3:95:35:
         81:38:6d:45:e6:96:ac:12:60:24:98:49:f5:90:07:0c:cf:70:
         98:76:fe:68:c9:74:5c:f4:49:1b:ce:f9:f4:47:ce:b3:34:5b:
         41:ba:4a:da:d6:5d:88:4b:37:ed:65:7f:09:53:1a:0d:bd:52:
         f6:0f:88:fa:8a:4c:74:2b:c9:f4:02:74:5d:c6:91:51:9e:c8:
         26:e4:d6:b8:b2:45:4e:86:7f:50:b0:4a:03:55:d6:f0:2c:0b:
         ef:d5:08:50:f8:ab:1b:74:f0:e9:9b:55:78:6c:ce:c3:67:33:
         b0:03:02:03:5c:19:be:f2:16:70:9e:9d:d3:01:2f:24:39:24:
         5c:e8:11:b7:33:19:84:28:7b:91:c7:10:81:c7:ef:5d:23:69:
         04:01:12:f3:8f:fd:15:88:ae:83:f7:e6:34:e2:a3:c9:6b:c1:
         64:b9:62:d9:09:62:e6:ed:17:a6:0d:04:61:fe:32:8e:1d:37:
         ea:81:de:f1:75:a6:7b:b6:f6:a5:d1:b5:7f:4a:40:32:fc:63:
         0a:20:97:f4:25:08:b1:55:61:f5:8f:57:78:99:b0:59:bc:30:
         d2:12:03:be:3e:d3:b2:b3:d5:77:96:ac:62:ca:f0:7a:34:9a:
         70:49:a9:99:86:01:34:7f:1d:c7:e9:cd:6d:b5:f5:81:a4:74:
         66:b1:72:5b:14:ae:5a:61:a2:82:35:89:9a:78:39:ad:9c:83:
         5c:50:25:cb:00:46:49:70:55:31:24:62:40:d1:29:4e:a2:de:
         bc:69:c1:f1:f6:86:d0:e6:72:52:7f:38:d6:0c:80:0a:d8:f1:
         e1:ec:18:cf:ad:51:5a:75:0d:e6:e0:a5:75:46:93:8d:a1:22:
         12:a0:59:55:0c:07:38:74:59:9c:d5:01:64:8a:7a:c2:ab:24:
         16:a4:77:28:2f:11:a8:2a:2a:1d:12:ac:ba:f8:c1:1b:a4:6b:
         97:b8:56:cb:b2:71:b0:87
-----BEGIN CERTIFICATE-----
MIIGrTCCBJWgAwIBAgICMK8wDQYJKoZIhvcNAQELBQAwgawxCzAJBgNVBAYTAlVT
MQswCQYDVQQIEwJPSDERMA8GA1UEBxMIQ29sdW1idXMxEjAQBgNVBAoTCVZpa2lu
Z1ZQTjEdMBsGA1UECxMUTXlPcmdhbml6YXRpb25hbFVuaXQxFTATBgNVBAMTDFZp
a2luZ1ZQTiBDQTEQMA4GA1UEKRMHRWFzeVJTQTEhMB8GCSqGSIb3DQEJARYSbWVA
bXlob3N0Lm15ZG9tYWluMB4XDTE4MDEyMjIyMzYwMFoXDTI4MDEyMDIyMzYwMFow
HzEdMBsGA1UEAxMUQ2xpZW50MzE2NENlcnQ2ZmQyYjYwggIiMA0GCSqGSIb3DQEB
AQUAA4ICDwAwggIKAoICAQDOuPkuFYQnsin/RtZhmoAxe4Osf8+CODSeB1nT4uw1
XxqrK1NJMLCdOg7M6hQHF5w6FzgYumH7ohRFi8UOJEb4OJy79aVfrsgCXfpmMdmH
k5ITbT7BooXZtByIewxJK6fBWAD4L2e4Z5X5gUWx/1tI1wx3FYat01iFSKSF7z9m
ueDKruE6dGThS5HOAo9JmKxb6wzguOARKnlh7/uWJ03EqWz4NCdMu3VvcscuKbA6
uDtxR35LMJOVRhEKXJGVrjjuZ9UYqCS2BlvI8dBC3D9I5Awnm6VhEs1OsHdwgR7W
6WgB94lm4lRZPISoFciESVoi2i/Um3rMtXuQhwEFLT/Qok8Ker8rD2k/A/op9bQU
O9K/p95t9g7dUe1IXLJTiFZDXyNBr2ENA0uc0hDRzh7mn6VrcvdX4EjUT1RRLbED
0XUdmTgdvWTBkB/svpjJbwsfJz0r0i24S8eHIbgpxrNzUFqVTx0hBkNGwJNsPd5F
b6+r+t+3AiXmEz2SJiULL6yjrMErGK6JQ7zHLxhyVmEDacb2EiYAyoUb5FDoY326
Bszy8h+d/eHvQxmF/9lBx3CdUII330lir/BbIi8+bh8Pwu4PVCn/5DEDplba7kn7
AQcyfOUtRJ6Gnzz/h93zGnCMGBOxwWmASGYofvnTjSxuDrsfE8xP19Qi3pOMJyF2
eQIDAQABo4IBYzCCAV8wCQYDVR0TBAIwADAtBglghkgBhvhCAQ0EIBYeRWFzeS1S
U0EgR2VuZXJhdGVkIENlcnRpZmljYXRlMB0GA1UdDgQWBBQnkBsI+4/MTTUKkTWn
F19qoWqfDjCB4QYDVR0jBIHZMIHWgBQSzWAE0qCAnnDtxpm4eyzGUv0ZoaGBsqSB
rzCBrDELMAkGA1UEBhMCVVMxCzAJBgNVBAgTAk9IMREwDwYDVQQHEwhDb2x1bWJ1
czESMBAGA1UEChMJVmlraW5nVlBOMR0wGwYDVQQLExRNeU9yZ2FuaXphdGlvbmFs
VW5pdDEVMBMGA1UEAxMMVmlraW5nVlBOIENBMRAwDgYDVQQpEwdFYXN5UlNBMSEw
HwYJKoZIhvcNAQkBFhJtZUBteWhvc3QubXlkb21haW6CCQDPNYXugL8qPjATBgNV
HSUEDDAKBggrBgEFBQcDAjALBgNVHQ8EBAMCB4AwDQYJKoZIhvcNAQELBQADggIB
ADGZD0oQ2B/347IUyfi73iyGHKl+EltGKT9tghuwuKvbJtqohHsSEISL1ut85cDx
qFmU9jvAd8EXKdAGFDagtuJldj2uvuHby9n2+bQiycGDpzJ8jYb4pM3B4W+WOjfu
fe9qI4MZi/jr8/efI+a+e5qJbsREwmK9Kq7YWjao8vI6ZfoZ0wv0peemfEFWafOV
NYE4bUXmlqwSYCSYSfWQBwzPcJh2/mjJdFz0SRvO+fRHzrM0W0G6StrWXYhLN+1l
fwlTGg29UvYPiPqKTHQryfQCdF3GkVGeyCbk1riyRU6Gf1CwSgNV1vAsC+/VCFD4
qxt08OmbVXhszsNnM7ADAgNcGb7yFnCendMBLyQ5JFzoEbczGYQoe5HHEIHH710j
aQQBEvOP/RWIroP35jTio8lrwWS5YtkJYubtF6YNBGH+Mo4dN+qB3vF1pnu29qXR
tX9KQDL8Ywogl/QlCLFVYfWPV3iZsFm8MNISA74+07Kz1XeWrGLK8Ho0mnBJqZmG
ATR/HcfpzW219YGkdGaxclsUrlphooI1iZp4Oa2cg1xQJcsARklwVTEkYkDRKU6i
3rxpwfH2htDmclJ/ONYMgArY8eHsGM+tUVp1DebgpXVGk42hIhKgWVUMBzh0WZzV
AWSKesKrJBakdygvEagqKh0SrLr4wRuka5e4VsuycbCH
-----END CERTIFICATE-----
