Certificate:
    Data:
        Version: 3 (0x2)
        Serial Number: 11129 (0x2b79)
    Signature Algorithm: sha256WithRSAEncryption
        Issuer: C=US, ST=OH, L=Columbus, O=VikingVPN, OU=MyOrganizationalUnit, CN=VikingVPN CA/name=EasyRSA/emailAddress=me@myhost.mydomain
        Validity
            Not Before: Jun 15 21:52:11 2017 GMT
            Not After : Jun 13 21:52:11 2027 GMT
        Subject: CN=Client2925Cert4f1666
        Subject Public Key Info:
            Public Key Algorithm: rsaEncryption
                Public-Key: (4096 bit)
                Modulus:
                    00:a8:a9:1e:e8:53:11:7e:49:b0:28:ef:1f:8e:cc:
                    2c:bb:46:b8:2a:33:f5:41:a1:ff:52:ab:60:ee:64:
                    30:fa:ef:53:29:69:59:af:98:81:58:40:8d:0a:54:
                    0a:82:e8:39:48:08:bd:8f:96:9f:e6:42:cf:c1:1b:
                    03:d9:9d:f3:33:61:4b:e5:6c:dc:c6:5f:c9:a1:19:
                    da:ab:4d:f3:09:6c:c4:ad:87:32:37:65:de:9b:5f:
                    b9:9f:9c:25:a3:3e:72:b5:97:6c:47:0a:cb:7f:a2:
                    65:47:a3:8d:f9:14:13:31:b7:11:2d:6a:0f:6b:50:
                    59:b8:21:bd:20:eb:13:7f:b6:f6:ae:ae:a1:9a:7a:
                    9f:ee:9a:02:57:00:ca:39:ce:bb:f7:0d:df:93:ff:
                    35:1c:72:7b:64:18:ca:60:10:2a:e4:0c:be:c4:c4:
                    58:9c:8e:a8:73:b7:e2:07:ba:e9:c4:1d:83:de:17:
                    e2:77:36:45:4b:02:20:b6:b9:40:39:89:12:a2:c8:
                    23:cb:a9:f8:88:ec:d9:4d:86:1c:b7:61:26:d0:0b:
                    44:2a:fb:70:1d:74:a5:54:d7:e3:1e:da:69:c6:4e:
                    61:f0:eb:5a:17:66:c9:b7:9f:95:f8:c3:2d:a0:1f:
                    5a:ef:12:a3:02:a7:cb:0e:b7:f3:64:b0:77:80:83:
                    e5:b4:db:ee:d6:74:84:9a:a7:26:15:ca:68:18:36:
                    15:c7:7d:c6:56:46:58:35:45:e0:17:48:0b:2d:fb:
                    0d:13:94:7f:60:55:37:dc:97:26:12:79:b7:68:74:
                    ef:93:1b:01:d5:ab:d0:5f:34:8d:7a:b2:de:75:25:
                    7b:e3:d6:93:4e:5e:a1:3d:2b:9d:cd:67:d8:7e:a0:
                    bf:73:74:cb:a3:bf:c5:64:d0:e1:63:44:01:30:56:
                    97:91:57:d9:74:c3:52:96:09:76:e0:bb:c0:88:3e:
                    59:40:28:93:9b:73:26:5c:40:a2:3f:42:bd:b4:7b:
                    d7:8c:ef:da:e7:e2:c7:a5:d0:ae:b0:77:9d:3d:8a:
                    5b:dc:40:a7:46:4e:05:88:b9:ed:d5:ca:0a:1b:a7:
                    71:14:c5:ed:02:73:0e:a6:1e:df:d7:23:63:f2:9b:
                    4e:e1:f5:e1:32:ac:ce:ea:0f:0c:82:31:6d:91:40:
                    17:ad:e4:7a:91:c5:1d:85:57:db:df:b1:21:df:e8:
                    21:5d:1d:dd:bc:3b:0a:68:d7:25:43:6b:7d:d9:e5:
                    a6:81:87:8c:fe:6a:4d:57:10:e6:30:9c:81:26:e2:
                    20:87:96:b5:d7:a0:0f:e3:26:05:15:70:dd:01:a9:
                    40:79:ee:c5:f3:8b:98:9a:d1:88:0d:7e:b0:29:bf:
                    37:a4:3d
                Exponent: 65537 (0x10001)
        X509v3 extensions:
            X509v3 Basic Constraints: 
                CA:FALSE
            Netscape Comment: 
                Easy-RSA Generated Certificate
            X509v3 Subject Key Identifier: 
                B2:15:D3:F0:2A:78:EA:0D:9D:41:50:CC:42:7D:02:6B:FA:BA:94:00
            X509v3 Authority Key Identifier: 
                keyid:12:CD:60:04:D2:A0:80:9E:70:ED:C6:99:B8:7B:2C:C6:52:FD:19:A1
                DirName:/C=US/ST=OH/L=Columbus/O=VikingVPN/OU=MyOrganizationalUnit/CN=VikingVPN CA/name=EasyRSA/emailAddress=me@myhost.mydomain
                serial:CF:35:85:EE:80:BF:2A:3E

            X509v3 Extended Key Usage: 
                TLS Web Client Authentication
            X509v3 Key Usage: 
                Digital Signature
    Signature Algorithm: sha256WithRSAEncryption
         ae:83:29:41:d7:73:15:91:5f:02:47:e2:6f:fa:69:32:b5:5d:
         47:3f:57:79:2b:a8:6f:ed:d6:b1:bb:ce:03:bc:16:f0:b4:7e:
         5e:e1:12:9b:fe:6b:9f:60:96:b0:1b:55:34:01:a2:e0:2e:9b:
         10:5a:19:19:08:6b:05:3c:fa:80:4b:9d:76:74:b1:2e:8f:d4:
         59:f3:b6:19:b2:02:c5:e1:2b:ee:38:c0:10:3f:1e:3d:26:f0:
         01:d0:5f:8c:79:55:88:0c:50:d6:5b:2a:19:f2:6d:49:92:6d:
         7a:2e:67:da:ad:7e:93:8c:fa:a3:dc:72:38:e2:24:76:fc:44:
         83:a0:02:60:22:7e:85:1e:10:71:83:e5:ef:b5:21:2a:5f:5e:
         c1:8d:93:95:58:e3:55:8a:14:b2:4d:13:53:d1:58:99:ea:70:
         85:f5:be:22:4e:a0:79:f8:ef:6d:76:2d:c2:2e:a7:7a:7a:70:
         cf:68:7c:1d:a6:71:df:0e:5b:48:c1:7f:30:e1:a3:2b:fa:29:
         c2:db:5a:70:09:7a:1f:35:fb:87:db:b0:f5:93:be:0a:1c:89:
         c6:7a:9c:d5:45:0d:e6:e9:e2:84:47:a5:4e:9a:27:b3:06:4a:
         0b:0b:0d:f2:75:0f:22:de:04:0c:d9:c3:a9:77:c3:fe:f5:ef:
         29:9c:6b:99:9c:99:e5:49:2d:ed:c0:28:cb:c4:fd:2d:6a:6a:
         af:0c:20:94:33:16:44:4c:12:cc:25:b0:a4:65:1d:bb:cb:7e:
         04:3c:f3:f8:2d:d4:64:96:52:8c:80:c9:02:82:dc:61:3b:83:
         f2:e3:3e:9c:f6:ab:8b:75:84:ca:ad:7f:45:ca:78:4b:d0:f1:
         71:ae:68:af:fe:dc:97:6d:63:ea:ef:60:77:0c:38:88:df:c3:
         ad:0a:3f:76:e6:0b:47:f0:73:d0:2d:8e:bf:a2:d4:6c:59:0a:
         a7:cd:0f:7c:01:a3:de:05:f7:5e:4b:5f:55:e1:e1:26:39:d9:
         1a:9d:75:4f:13:95:51:5f:ae:f1:67:9c:d6:97:4a:8d:1d:54:
         91:ae:f2:00:3c:44:1d:3c:65:6f:8f:cb:d9:ef:e2:be:e9:66:
         93:39:c8:0e:bc:3f:f4:cf:3a:30:d5:1e:a4:dd:27:5a:b9:c1:
         eb:f5:bc:6d:d9:bf:c3:ad:bb:33:69:11:c8:9b:ce:d4:ca:c0:
         65:b0:36:2d:1f:4d:ac:f4:d8:e3:9b:1e:12:60:58:ca:97:f4:
         cf:0b:34:95:d3:9b:b6:2f:1b:4b:97:de:bf:ba:6e:5a:b3:d8:
         fe:7a:48:eb:c3:43:8b:d0:83:68:49:6a:2c:74:e5:14:d1:80:
         2d:12:07:78:cc:47:4a:b0
-----BEGIN CERTIFICATE-----
MIIGrTCCBJWgAwIBAgICK3kwDQYJKoZIhvcNAQELBQAwgawxCzAJBgNVBAYTAlVT
MQswCQYDVQQIEwJPSDERMA8GA1UEBxMIQ29sdW1idXMxEjAQBgNVBAoTCVZpa2lu
Z1ZQTjEdMBsGA1UECxMUTXlPcmdhbml6YXRpb25hbFVuaXQxFTATBgNVBAMTDFZp
a2luZ1ZQTiBDQTEQMA4GA1UEKRMHRWFzeVJTQTEhMB8GCSqGSIb3DQEJARYSbWVA
bXlob3N0Lm15ZG9tYWluMB4XDTE3MDYxNTIxNTIxMVoXDTI3MDYxMzIxNTIxMVow
HzEdMBsGA1UEAxMUQ2xpZW50MjkyNUNlcnQ0ZjE2NjYwggIiMA0GCSqGSIb3DQEB
AQUAA4ICDwAwggIKAoICAQCoqR7oUxF+SbAo7x+OzCy7RrgqM/VBof9Sq2DuZDD6
71MpaVmvmIFYQI0KVAqC6DlICL2Plp/mQs/BGwPZnfMzYUvlbNzGX8mhGdqrTfMJ
bMSthzI3Zd6bX7mfnCWjPnK1l2xHCst/omVHo435FBMxtxEtag9rUFm4Ib0g6xN/
tvaurqGaep/umgJXAMo5zrv3Dd+T/zUccntkGMpgECrkDL7ExFicjqhzt+IHuunE
HYPeF+J3NkVLAiC2uUA5iRKiyCPLqfiI7NlNhhy3YSbQC0Qq+3AddKVU1+Me2mnG
TmHw61oXZsm3n5X4wy2gH1rvEqMCp8sOt/NksHeAg+W02+7WdISapyYVymgYNhXH
fcZWRlg1ReAXSAst+w0TlH9gVTfclyYSebdodO+TGwHVq9BfNI16st51JXvj1pNO
XqE9K53NZ9h+oL9zdMujv8Vk0OFjRAEwVpeRV9l0w1KWCXbgu8CIPllAKJObcyZc
QKI/Qr20e9eM79rn4sel0K6wd509ilvcQKdGTgWIue3Vygobp3EUxe0Ccw6mHt/X
I2Pym07h9eEyrM7qDwyCMW2RQBet5HqRxR2FV9vfsSHf6CFdHd28Owpo1yVDa33Z
5aaBh4z+ak1XEOYwnIEm4iCHlrXXoA/jJgUVcN0BqUB57sXzi5ia0YgNfrApvzek
PQIDAQABo4IBYzCCAV8wCQYDVR0TBAIwADAtBglghkgBhvhCAQ0EIBYeRWFzeS1S
U0EgR2VuZXJhdGVkIENlcnRpZmljYXRlMB0GA1UdDgQWBBSyFdPwKnjqDZ1BUMxC
fQJr+rqUADCB4QYDVR0jBIHZMIHWgBQSzWAE0qCAnnDtxpm4eyzGUv0ZoaGBsqSB
rzCBrDELMAkGA1UEBhMCVVMxCzAJBgNVBAgTAk9IMREwDwYDVQQHEwhDb2x1bWJ1
czESMBAGA1UEChMJVmlraW5nVlBOMR0wGwYDVQQLExRNeU9yZ2FuaXphdGlvbmFs
VW5pdDEVMBMGA1UEAxMMVmlraW5nVlBOIENBMRAwDgYDVQQpEwdFYXN5UlNBMSEw
HwYJKoZIhvcNAQkBFhJtZUBteWhvc3QubXlkb21haW6CCQDPNYXugL8qPjATBgNV
HSUEDDAKBggrBgEFBQcDAjALBgNVHQ8EBAMCB4AwDQYJKoZIhvcNAQELBQADggIB
AK6DKUHXcxWRXwJH4m/6aTK1XUc/V3krqG/t1rG7zgO8FvC0fl7hEpv+a59glrAb
VTQBouAumxBaGRkIawU8+oBLnXZ0sS6P1FnzthmyAsXhK+44wBA/Hj0m8AHQX4x5
VYgMUNZbKhnybUmSbXouZ9qtfpOM+qPccjjiJHb8RIOgAmAifoUeEHGD5e+1ISpf
XsGNk5VY41WKFLJNE1PRWJnqcIX1viJOoHn47212LcIup3p6cM9ofB2mcd8OW0jB
fzDhoyv6KcLbWnAJeh81+4fbsPWTvgocicZ6nNVFDebp4oRHpU6aJ7MGSgsLDfJ1
DyLeBAzZw6l3w/717ymca5mcmeVJLe3AKMvE/S1qaq8MIJQzFkRMEswlsKRlHbvL
fgQ88/gt1GSWUoyAyQKC3GE7g/LjPpz2q4t1hMqtf0XKeEvQ8XGuaK/+3JdtY+rv
YHcMOIjfw60KP3bmC0fwc9Atjr+i1GxZCqfND3wBo94F915LX1Xh4SY52RqddU8T
lVFfrvFnnNaXSo0dVJGu8gA8RB08ZW+Py9nv4r7pZpM5yA68P/TPOjDVHqTdJ1q5
wev1vG3Zv8OtuzNpEcibztTKwGWwNi0fTaz02OObHhJgWMqX9M8LNJXTm7YvG0uX
3r+6blqz2P56SOvDQ4vQg2hJaix05RTRgC0SB3jMR0qw
-----END CERTIFICATE-----
