Certificate:
    Data:
        Version: 3 (0x2)
        Serial Number: 1009 (0x3f1)
    Signature Algorithm: md5WithRSAEncryption
        Issuer: C=US, ST=OH, L=Columbus, O=VikingVPN, OU=MyOrganizationalUnit, CN=VikingVPN CA/name=EasyRSA/emailAddress=me@myhost.mydomain
        Validity
            Not Before: Feb 11 01:02:41 2014 GMT
            Not After : Feb  9 01:02:41 2024 GMT
        Subject: CN=Client49Cert71873d
        Subject Public Key Info:
            Public Key Algorithm: rsaEncryption
                Public-Key: (4096 bit)
                Modulus:
                    00:bf:15:c3:63:a7:76:83:d5:d4:c2:84:5f:26:53:
                    90:fe:b5:e6:50:df:72:cc:97:09:2b:28:f9:78:fc:
                    cc:5d:33:de:d3:18:29:84:00:c7:37:c7:91:e5:91:
                    ca:b3:00:77:4a:75:82:49:43:3c:34:99:60:7e:ed:
                    dc:63:b6:a9:7e:fc:06:f0:7d:fa:8e:d0:2b:61:de:
                    e7:17:74:d1:2f:3f:66:92:ce:66:6b:16:40:fc:05:
                    73:01:e9:14:98:d9:63:54:71:c9:ab:ea:e0:f9:ae:
                    2d:8d:1e:c6:0d:ca:19:1b:64:2d:d3:f2:62:45:3b:
                    12:52:9a:9c:df:85:36:f7:63:e3:03:4b:a2:69:04:
                    53:00:54:69:50:11:d6:f6:77:6f:3e:9b:92:38:d5:
                    df:34:0e:84:97:79:34:c2:b8:00:f4:9f:0b:d5:70:
                    30:6a:90:df:21:ea:d4:46:ae:66:34:fa:66:01:ce:
                    d5:3f:53:67:11:c4:07:07:dc:71:79:ae:e7:3c:c0:
                    ce:54:ef:c6:4e:14:4f:03:d8:0f:be:01:95:9b:2d:
                    75:57:7f:e3:7b:23:62:4d:47:09:41:b0:68:5b:6c:
                    e6:ec:4e:3d:c0:9a:09:78:fb:2c:59:2a:46:74:58:
                    35:62:c1:4d:bc:ab:2f:fb:93:ee:0c:50:88:98:b5:
                    d4:7f:c3:b1:7f:5c:85:d5:f2:89:b4:40:60:b0:06:
                    31:d5:75:3f:ee:3a:9f:59:87:c4:5f:54:b9:22:54:
                    27:da:c7:e2:df:47:95:29:d4:ee:ce:91:05:88:c3:
                    00:95:d1:67:f7:65:71:20:6e:12:68:df:22:73:76:
                    22:dd:df:5f:07:dc:c3:93:6a:26:86:60:65:19:6b:
                    5d:c8:6b:eb:f2:e6:89:82:de:a1:78:fb:50:03:7b:
                    fd:40:54:cc:a1:e3:42:27:68:17:57:8f:38:96:6b:
                    7a:c2:c6:74:01:98:47:46:0a:f0:ce:44:ec:ec:06:
                    60:e4:5e:7c:0b:a0:6a:6a:02:cb:a3:26:48:01:b0:
                    d8:f2:7a:48:10:b1:35:63:00:12:ca:1d:04:fa:36:
                    4a:93:ec:dc:ac:9a:a1:22:0a:1e:95:cc:04:2c:35:
                    ce:f3:77:fb:f8:ee:5f:c7:39:a1:be:e0:90:a2:31:
                    f5:55:ce:1c:2f:f2:27:2b:11:38:b3:8e:32:dd:8d:
                    3f:14:a9:07:1a:fb:6b:59:b0:65:90:29:00:34:c2:
                    33:5a:21:5d:ed:5d:b4:fd:e8:af:62:e3:39:70:0e:
                    54:1b:87:7b:92:3b:b7:6b:bf:1e:b3:1b:a6:1b:de:
                    9b:6f:1b:64:2b:c8:b2:e4:97:53:a1:14:dd:56:a4:
                    78:9a:0f
                Exponent: 65537 (0x10001)
        X509v3 extensions:
            X509v3 Basic Constraints: 
                CA:FALSE
            Netscape Comment: 
                Easy-RSA Generated Certificate
            X509v3 Subject Key Identifier: 
                EB:BD:AF:31:B5:4B:04:03:E6:D1:43:A2:7A:0A:F3:88:6D:FB:FB:10
            X509v3 Authority Key Identifier: 
                keyid:12:CD:60:04:D2:A0:80:9E:70:ED:C6:99:B8:7B:2C:C6:52:FD:19:A1
                DirName:/C=US/ST=OH/L=Columbus/O=VikingVPN/OU=MyOrganizationalUnit/CN=VikingVPN CA/name=EasyRSA/emailAddress=me@myhost.mydomain
                serial:CF:35:85:EE:80:BF:2A:3E

            X509v3 Extended Key Usage: 
                TLS Web Client Authentication
            X509v3 Key Usage: 
                Digital Signature
    Signature Algorithm: md5WithRSAEncryption
         12:61:b0:63:47:cf:58:ca:94:90:24:86:bd:fe:53:ac:a1:5a:
         79:b7:86:08:33:00:7d:a1:73:4f:ff:25:ef:0c:32:34:68:1b:
         16:41:65:f4:e6:4b:54:ff:0a:a2:b5:c9:45:28:11:03:aa:1b:
         89:49:0e:7f:ff:6b:76:ff:dd:b7:05:d6:2e:4a:26:45:1d:d6:
         a7:98:b5:95:03:26:cd:ec:c8:af:0c:c8:19:0d:c1:be:9c:bb:
         64:1b:57:cc:c4:de:0a:73:ab:5f:7c:11:b1:ca:9b:71:86:2c:
         66:df:85:97:b6:30:a3:bb:5a:14:cc:12:55:33:a7:4e:0d:17:
         56:f6:6a:91:65:7c:27:68:94:72:28:1c:93:42:16:f6:53:2c:
         17:f6:f0:60:b4:2f:06:ad:d5:56:c2:a0:d1:62:43:ea:f4:f8:
         05:be:c7:6c:d5:5c:5a:77:ae:39:0f:8b:fc:82:d1:9c:10:f0:
         5e:4b:4b:47:de:77:21:4f:b3:58:5e:9c:20:8f:08:c8:d3:71:
         0a:46:6c:25:6e:b1:26:40:c4:8c:cc:1d:5c:33:75:89:cc:99:
         3d:d1:78:20:1d:80:f9:17:bd:42:08:f3:c7:4c:2a:31:28:73:
         93:30:c9:fa:7f:e9:85:96:8a:55:e9:cb:a2:7f:c0:48:91:50:
         70:ea:e1:c5:5c:f5:07:7a:df:2a:d8:27:3a:37:a3:8f:d5:70:
         d1:eb:ed:85:27:d8:6e:8b:14:55:97:6f:30:b3:6d:34:dc:52:
         4f:55:d6:4b:01:a1:cc:2c:36:4b:a2:34:0b:6a:6d:ad:33:4a:
         74:9d:4b:cb:91:84:ab:59:c9:dd:f8:fc:f3:bf:23:42:dc:ee:
         b4:8c:78:8f:d1:bd:01:e4:87:30:0d:87:6a:11:9f:4b:e5:9d:
         e1:6d:4f:57:8b:d9:81:de:a7:a7:1b:53:82:14:db:c3:b9:00:
         6d:d1:7f:c6:f0:3f:85:b4:a3:9d:21:1d:0c:83:d2:fd:b6:8b:
         26:2f:34:f0:53:2a:da:ba:30:40:eb:2e:c2:69:46:ec:66:ef:
         5e:5d:d6:0c:63:76:45:b2:f5:37:1e:a3:6a:e3:82:ae:58:9e:
         59:1d:03:87:42:29:2b:a5:71:bf:7e:af:0a:ca:b4:86:c2:4d:
         fb:68:f7:31:85:1f:6a:b2:4e:66:e4:f2:9c:ac:ef:08:2f:95:
         9e:1d:f9:dd:46:9e:8d:6d:a0:bc:4c:07:f0:dc:45:77:42:9c:
         cc:80:65:62:66:31:2d:a1:ee:e9:2f:cc:fe:f4:c1:12:70:65:
         ac:3c:8c:82:de:d9:ea:67:b7:ae:3a:45:a1:b8:2f:e4:35:dc:
         49:47:4b:29:b1:8b:9d:af
-----BEGIN CERTIFICATE-----
MIIGqzCCBJOgAwIBAgICA/EwDQYJKoZIhvcNAQEEBQAwgawxCzAJBgNVBAYTAlVT
MQswCQYDVQQIEwJPSDERMA8GA1UEBxMIQ29sdW1idXMxEjAQBgNVBAoTCVZpa2lu
Z1ZQTjEdMBsGA1UECxMUTXlPcmdhbml6YXRpb25hbFVuaXQxFTATBgNVBAMTDFZp
a2luZ1ZQTiBDQTEQMA4GA1UEKRMHRWFzeVJTQTEhMB8GCSqGSIb3DQEJARYSbWVA
bXlob3N0Lm15ZG9tYWluMB4XDTE0MDIxMTAxMDI0MVoXDTI0MDIwOTAxMDI0MVow
HTEbMBkGA1UEAxMSQ2xpZW50NDlDZXJ0NzE4NzNkMIICIjANBgkqhkiG9w0BAQEF
AAOCAg8AMIICCgKCAgEAvxXDY6d2g9XUwoRfJlOQ/rXmUN9yzJcJKyj5ePzMXTPe
0xgphADHN8eR5ZHKswB3SnWCSUM8NJlgfu3cY7apfvwG8H36jtArYd7nF3TRLz9m
ks5maxZA/AVzAekUmNljVHHJq+rg+a4tjR7GDcoZG2Qt0/JiRTsSUpqc34U292Pj
A0uiaQRTAFRpUBHW9ndvPpuSONXfNA6El3k0wrgA9J8L1XAwapDfIerURq5mNPpm
Ac7VP1NnEcQHB9xxea7nPMDOVO/GThRPA9gPvgGVmy11V3/jeyNiTUcJQbBoW2zm
7E49wJoJePssWSpGdFg1YsFNvKsv+5PuDFCImLXUf8Oxf1yF1fKJtEBgsAYx1XU/
7jqfWYfEX1S5IlQn2sfi30eVKdTuzpEFiMMAldFn92VxIG4SaN8ic3Yi3d9fB9zD
k2omhmBlGWtdyGvr8uaJgt6hePtQA3v9QFTMoeNCJ2gXV484lmt6wsZ0AZhHRgrw
zkTs7AZg5F58C6BqagLLoyZIAbDY8npIELE1YwASyh0E+jZKk+zcrJqhIgoelcwE
LDXO83f7+O5fxzmhvuCQojH1Vc4cL/InKxE4s44y3Y0/FKkHGvtrWbBlkCkANMIz
WiFd7V20/eivYuM5cA5UG4d7kju3a78esxumG96bbxtkK8iy5JdToRTdVqR4mg8C
AwEAAaOCAWMwggFfMAkGA1UdEwQCMAAwLQYJYIZIAYb4QgENBCAWHkVhc3ktUlNB
IEdlbmVyYXRlZCBDZXJ0aWZpY2F0ZTAdBgNVHQ4EFgQU672vMbVLBAPm0UOiegrz
iG37+xAwgeEGA1UdIwSB2TCB1oAUEs1gBNKggJ5w7caZuHssxlL9GaGhgbKkga8w
gawxCzAJBgNVBAYTAlVTMQswCQYDVQQIEwJPSDERMA8GA1UEBxMIQ29sdW1idXMx
EjAQBgNVBAoTCVZpa2luZ1ZQTjEdMBsGA1UECxMUTXlPcmdhbml6YXRpb25hbFVu
aXQxFTATBgNVBAMTDFZpa2luZ1ZQTiBDQTEQMA4GA1UEKRMHRWFzeVJTQTEhMB8G
CSqGSIb3DQEJARYSbWVAbXlob3N0Lm15ZG9tYWluggkAzzWF7oC/Kj4wEwYDVR0l
BAwwCgYIKwYBBQUHAwIwCwYDVR0PBAQDAgeAMA0GCSqGSIb3DQEBBAUAA4ICAQAS
YbBjR89YypSQJIa9/lOsoVp5t4YIMwB9oXNP/yXvDDI0aBsWQWX05ktU/wqitclF
KBEDqhuJSQ5//2t2/923BdYuSiZFHdanmLWVAybN7MivDMgZDcG+nLtkG1fMxN4K
c6tffBGxyptxhixm34WXtjCju1oUzBJVM6dODRdW9mqRZXwnaJRyKByTQhb2UywX
9vBgtC8GrdVWwqDRYkPq9PgFvsds1Vxad645D4v8gtGcEPBeS0tH3nchT7NYXpwg
jwjI03EKRmwlbrEmQMSMzB1cM3WJzJk90XggHYD5F71CCPPHTCoxKHOTMMn6f+mF
lopV6cuif8BIkVBw6uHFXPUHet8q2Cc6N6OP1XDR6+2FJ9huixRVl28ws2003FJP
VdZLAaHMLDZLojQLam2tM0p0nUvLkYSrWcnd+PzzvyNC3O60jHiP0b0B5IcwDYdq
EZ9L5Z3hbU9Xi9mB3qenG1OCFNvDuQBt0X/G8D+FtKOdIR0Mg9L9tosmLzTwUyra
ujBA6y7CaUbsZu9eXdYMY3ZFsvU3HqNq44KuWJ5ZHQOHQikrpXG/fq8KyrSGwk37
aPcxhR9qsk5m5PKcrO8IL5WeHfndRp6NbaC8TAfw3EV3QpzMgGViZjEtoe7pL8z+
9MEScGWsPIyC3tnqZ7euOkWhuC/kNdxJR0spsYudrw==
-----END CERTIFICATE-----
