Certificate:
    Data:
        Version: 3 (0x2)
        Serial Number: 6965 (0x1b35)
    Signature Algorithm: md5WithRSAEncryption
        Issuer: C=US, ST=OH, L=Columbus, O=VikingVPN, OU=MyOrganizationalUnit, CN=VikingVPN CA/name=EasyRSA/emailAddress=me@myhost.mydomain
        Validity
            Not Before: Dec 28 23:37:17 2015 GMT
            Not After : Dec 25 23:37:17 2025 GMT
        Subject: CN=Client2120Cert3df2b9
        Subject Public Key Info:
            Public Key Algorithm: rsaEncryption
                Public-Key: (4096 bit)
                Modulus:
                    00:df:2e:1a:cc:d9:f8:43:4d:30:c8:57:d0:58:0c:
                    c5:b2:88:36:3a:e6:1b:86:2c:d0:91:2e:33:4e:c1:
                    76:23:9b:2e:99:cb:0d:a4:3c:9c:67:dd:f6:70:07:
                    61:64:21:03:18:0a:47:f9:15:13:47:8f:73:b0:a5:
                    15:3a:10:3b:0c:26:9f:42:b3:d4:fa:61:1c:4d:ad:
                    57:6f:5b:b5:36:95:b3:d4:3d:86:62:29:01:d2:c9:
                    8f:90:29:03:6c:bb:2e:e5:2f:3f:43:69:96:03:04:
                    09:25:90:6b:5b:d0:b1:4c:05:e2:a3:c0:40:77:8b:
                    84:58:ab:ae:ad:7d:18:11:22:d5:a8:ae:ca:86:5d:
                    72:6f:1b:5a:cd:c4:f3:24:e3:e2:17:3e:55:fa:5a:
                    20:f1:86:48:17:e6:1d:68:4a:8e:3e:e2:a6:41:ef:
                    e5:d5:fa:8c:b4:90:bf:e6:64:a4:6a:99:c7:63:1b:
                    6e:ea:12:b9:a3:f3:78:84:3e:af:c5:6d:19:40:d8:
                    11:0d:47:0b:cd:91:ab:f6:c3:9b:2d:2c:ef:ae:ae:
                    1f:87:4c:88:74:72:f6:8d:79:ec:f7:ad:c3:6e:44:
                    73:c9:9d:8c:36:dd:ef:26:07:00:04:fb:08:56:22:
                    0a:02:2d:58:83:e4:6d:4b:fc:ba:ec:84:bb:35:4a:
                    1a:14:ea:6a:3e:e3:61:d7:db:13:16:d8:19:42:6f:
                    e6:d1:89:c3:ef:b2:d7:3e:54:22:7a:61:ac:4f:03:
                    f1:bd:ab:76:cf:17:3d:30:c8:c6:2b:89:54:7b:6e:
                    77:f2:73:cb:78:11:18:c8:e0:71:64:6e:e3:34:0b:
                    dd:60:da:86:e9:0d:d6:e4:c8:8f:c3:03:5c:b3:16:
                    1c:6a:92:f1:1e:8f:d0:3c:31:ec:6d:1a:65:f7:34:
                    1a:d3:5e:0c:00:f4:a5:9f:0a:3c:01:11:94:89:4a:
                    82:cc:ba:44:92:d6:8d:0b:67:4c:3c:d3:9a:e4:41:
                    80:90:12:ce:99:fc:5c:cd:7c:94:f6:b0:52:5c:14:
                    53:df:ec:ae:dc:03:76:f4:12:bf:dd:ad:85:9a:e4:
                    8f:df:ee:1e:bf:8a:b4:7d:7f:92:f1:65:36:8e:1a:
                    0e:8b:de:39:03:78:c8:4b:ea:6d:11:6e:77:10:9b:
                    65:0b:8d:5b:0b:78:98:c9:46:d5:0a:34:a2:be:30:
                    f0:f9:c6:ce:17:1a:e4:bf:c2:85:36:a4:2a:74:7e:
                    b8:fb:6b:f3:c4:95:5a:4f:0c:1e:54:91:f1:fb:e7:
                    74:73:7b:a1:71:21:e2:97:d0:12:83:66:6c:06:62:
                    90:87:1b:ed:19:4e:8d:55:4a:11:d2:da:dd:39:b6:
                    25:1e:15
                Exponent: 65537 (0x10001)
        X509v3 extensions:
            X509v3 Basic Constraints: 
                CA:FALSE
            Netscape Comment: 
                Easy-RSA Generated Certificate
            X509v3 Subject Key Identifier: 
                00:2F:5B:B5:72:9E:D6:AB:72:08:4E:D6:69:C2:CC:49:98:7F:53:37
            X509v3 Authority Key Identifier: 
                keyid:12:CD:60:04:D2:A0:80:9E:70:ED:C6:99:B8:7B:2C:C6:52:FD:19:A1
                DirName:/C=US/ST=OH/L=Columbus/O=VikingVPN/OU=MyOrganizationalUnit/CN=VikingVPN CA/name=EasyRSA/emailAddress=me@myhost.mydomain
                serial:CF:35:85:EE:80:BF:2A:3E

            X509v3 Extended Key Usage: 
                TLS Web Client Authentication
            X509v3 Key Usage: 
                Digital Signature
    Signature Algorithm: md5WithRSAEncryption
         cb:b0:eb:c8:59:55:b6:16:5c:28:73:f4:2f:a9:29:b3:dd:f5:
         d1:b1:93:e6:a8:b8:49:c4:4d:05:10:e5:5c:a7:a3:81:8d:94:
         c1:4b:10:fe:89:0f:e7:23:9c:17:4f:53:8e:68:be:9a:37:f3:
         71:f3:a0:33:bc:72:24:bd:b1:c0:f4:3c:48:7c:e7:7a:58:11:
         46:a4:b0:dd:72:93:72:ae:08:73:60:0a:a8:c5:cf:14:e3:87:
         c8:55:6f:a7:69:84:0c:2c:28:46:60:59:8d:ea:b3:b2:2d:b0:
         87:87:c0:e9:16:57:7b:15:c5:21:34:59:a6:a1:5f:a5:40:71:
         c5:b1:b6:86:ae:4a:1b:36:7d:aa:52:15:31:b3:94:cb:83:2a:
         fa:8e:29:9a:70:25:90:24:b7:f9:8e:4d:83:89:4a:d6:12:61:
         cd:6f:b0:83:96:fa:2a:e3:00:8d:94:c8:05:f1:b0:9b:2e:9e:
         23:5a:57:37:d3:38:7d:b4:fd:98:3b:27:c5:29:d8:3a:f0:aa:
         ea:a8:a0:1a:b5:61:8a:f3:c7:14:87:c9:0b:93:b6:bc:9d:a4:
         cb:cd:02:2b:81:f1:62:2d:31:45:8d:ed:ce:0c:48:70:1a:00:
         ff:68:fc:1d:e1:1d:0d:98:75:5f:2e:6b:92:8a:db:87:5d:8a:
         32:0f:ac:18:85:12:fd:79:17:4c:fb:dd:1c:39:b8:65:7c:5f:
         d3:23:66:68:b0:34:f8:da:87:c6:bf:4e:32:13:75:b9:4c:fa:
         f5:a7:64:0d:52:6d:fd:e6:aa:3c:1d:17:d5:bd:66:b1:3a:19:
         1c:fc:91:55:c5:1c:b0:81:4b:86:c8:27:8b:67:fe:d9:b9:a9:
         8e:4d:8a:f8:f9:4c:87:99:87:7f:fd:02:9c:d3:e2:78:b3:d9:
         ef:c4:41:cc:74:c4:5e:b4:f7:e5:32:b0:44:d5:f7:bc:a3:d5:
         ab:da:c5:42:f9:57:44:82:97:15:70:80:03:81:24:69:fe:ef:
         27:5e:f2:72:07:e1:3e:c0:49:d7:6f:93:22:0a:f6:fb:ba:61:
         a0:a1:3d:c8:b5:de:04:33:5c:08:d9:bf:97:cd:5c:39:5c:2d:
         51:62:b5:10:8c:e5:3e:91:90:9b:c3:83:c8:01:18:08:13:5e:
         fa:dd:f3:d3:69:04:8f:16:a8:b7:be:d0:8d:b4:6b:f2:8a:ac:
         0d:cb:e4:2c:c1:de:22:bd:62:c3:1c:50:8e:59:f5:70:b1:86:
         29:4f:72:db:ec:e0:e7:e3:81:76:11:03:8e:41:78:24:20:ac:
         01:0d:58:c9:8d:16:28:2a:ce:27:3e:d3:35:0c:bc:4b:c2:49:
         43:60:9b:e1:c3:0a:65:49
-----BEGIN CERTIFICATE-----
MIIGrTCCBJWgAwIBAgICGzUwDQYJKoZIhvcNAQEEBQAwgawxCzAJBgNVBAYTAlVT
MQswCQYDVQQIEwJPSDERMA8GA1UEBxMIQ29sdW1idXMxEjAQBgNVBAoTCVZpa2lu
Z1ZQTjEdMBsGA1UECxMUTXlPcmdhbml6YXRpb25hbFVuaXQxFTATBgNVBAMTDFZp
a2luZ1ZQTiBDQTEQMA4GA1UEKRMHRWFzeVJTQTEhMB8GCSqGSIb3DQEJARYSbWVA
bXlob3N0Lm15ZG9tYWluMB4XDTE1MTIyODIzMzcxN1oXDTI1MTIyNTIzMzcxN1ow
HzEdMBsGA1UEAxMUQ2xpZW50MjEyMENlcnQzZGYyYjkwggIiMA0GCSqGSIb3DQEB
AQUAA4ICDwAwggIKAoICAQDfLhrM2fhDTTDIV9BYDMWyiDY65huGLNCRLjNOwXYj
my6Zyw2kPJxn3fZwB2FkIQMYCkf5FRNHj3OwpRU6EDsMJp9Cs9T6YRxNrVdvW7U2
lbPUPYZiKQHSyY+QKQNsuy7lLz9DaZYDBAklkGtb0LFMBeKjwEB3i4RYq66tfRgR
ItWorsqGXXJvG1rNxPMk4+IXPlX6WiDxhkgX5h1oSo4+4qZB7+XV+oy0kL/mZKRq
mcdjG27qErmj83iEPq/FbRlA2BENRwvNkav2w5stLO+urh+HTIh0cvaNeez3rcNu
RHPJnYw23e8mBwAE+whWIgoCLViD5G1L/LrshLs1ShoU6mo+42HX2xMW2BlCb+bR
icPvstc+VCJ6YaxPA/G9q3bPFz0wyMYriVR7bnfyc8t4ERjI4HFkbuM0C91g2obp
DdbkyI/DA1yzFhxqkvEej9A8MextGmX3NBrTXgwA9KWfCjwBEZSJSoLMukSS1o0L
Z0w805rkQYCQEs6Z/FzNfJT2sFJcFFPf7K7cA3b0Er/drYWa5I/f7h6/irR9f5Lx
ZTaOGg6L3jkDeMhL6m0RbncQm2ULjVsLeJjJRtUKNKK+MPD5xs4XGuS/woU2pCp0
frj7a/PElVpPDB5UkfH753Rze6FxIeKX0BKDZmwGYpCHG+0ZTo1VShHS2t05tiUe
FQIDAQABo4IBYzCCAV8wCQYDVR0TBAIwADAtBglghkgBhvhCAQ0EIBYeRWFzeS1S
U0EgR2VuZXJhdGVkIENlcnRpZmljYXRlMB0GA1UdDgQWBBQAL1u1cp7Wq3IITtZp
wsxJmH9TNzCB4QYDVR0jBIHZMIHWgBQSzWAE0qCAnnDtxpm4eyzGUv0ZoaGBsqSB
rzCBrDELMAkGA1UEBhMCVVMxCzAJBgNVBAgTAk9IMREwDwYDVQQHEwhDb2x1bWJ1
czESMBAGA1UEChMJVmlraW5nVlBOMR0wGwYDVQQLExRNeU9yZ2FuaXphdGlvbmFs
VW5pdDEVMBMGA1UEAxMMVmlraW5nVlBOIENBMRAwDgYDVQQpEwdFYXN5UlNBMSEw
HwYJKoZIhvcNAQkBFhJtZUBteWhvc3QubXlkb21haW6CCQDPNYXugL8qPjATBgNV
HSUEDDAKBggrBgEFBQcDAjALBgNVHQ8EBAMCB4AwDQYJKoZIhvcNAQEEBQADggIB
AMuw68hZVbYWXChz9C+pKbPd9dGxk+aouEnETQUQ5Vyno4GNlMFLEP6JD+cjnBdP
U45ovpo383HzoDO8ciS9scD0PEh853pYEUaksN1yk3KuCHNgCqjFzxTjh8hVb6dp
hAwsKEZgWY3qs7ItsIeHwOkWV3sVxSE0WaahX6VAccWxtoauShs2fapSFTGzlMuD
KvqOKZpwJZAkt/mOTYOJStYSYc1vsIOW+irjAI2UyAXxsJsuniNaVzfTOH20/Zg7
J8Up2DrwquqooBq1YYrzxxSHyQuTtrydpMvNAiuB8WItMUWN7c4MSHAaAP9o/B3h
HQ2YdV8ua5KK24ddijIPrBiFEv15F0z73Rw5uGV8X9MjZmiwNPjah8a/TjITdblM
+vWnZA1Sbf3mqjwdF9W9ZrE6GRz8kVXFHLCBS4bIJ4tn/tm5qY5Nivj5TIeZh3/9
ApzT4niz2e/EQcx0xF609+UysETV97yj1avaxUL5V0SClxVwgAOBJGn+7yde8nIH
4T7ASddvkyIK9vu6YaChPci13gQzXAjZv5fNXDlcLVFitRCM5T6RkJvDg8gBGAgT
Xvrd89NpBI8WqLe+0I20a/KKrA3L5CzB3iK9YsMcUI5Z9XCxhilPctvs4OfjgXYR
A45BeCQgrAENWMmNFigqzic+0zUMvEvCSUNgm+HDCmVJ
-----END CERTIFICATE-----
