Certificate:
    Data:
        Version: 3 (0x2)
        Serial Number: 5707 (0x164b)
    Signature Algorithm: md5WithRSAEncryption
        Issuer: C=US, ST=OH, L=Columbus, O=VikingVPN, OU=MyOrganizationalUnit, CN=VikingVPN CA/name=EasyRSA/emailAddress=me@myhost.mydomain
        Validity
            Not Before: Jul  5 00:51:42 2015 GMT
            Not After : Jul  2 00:51:42 2025 GMT
        Subject: CN=Client1701Certe3f8db
        Subject Public Key Info:
            Public Key Algorithm: rsaEncryption
                Public-Key: (4096 bit)
                Modulus:
                    00:a1:57:27:fa:e1:4a:e5:6a:36:de:03:b7:8d:ca:
                    a9:55:c8:4f:60:dc:fe:16:9a:06:05:7b:a3:81:3a:
                    03:91:b0:ce:9b:38:de:42:26:ac:2a:68:24:b9:d1:
                    8d:91:46:b7:37:60:a5:13:56:c0:55:1c:9a:6f:ca:
                    5c:a3:ab:76:22:8c:f8:d3:bb:1b:9b:ce:5e:ad:42:
                    92:71:db:2d:6e:18:ae:b3:7d:f6:b2:a6:85:38:1b:
                    ee:22:e9:68:8f:60:5e:00:79:3d:35:86:52:bf:12:
                    cd:e9:d8:c2:bd:27:40:ce:3f:a3:9c:42:49:5e:0b:
                    5f:f0:27:a4:c3:c0:fe:c9:fd:90:95:52:fa:64:19:
                    b5:a9:ec:14:d9:6e:1f:75:d2:01:4a:a3:8a:0e:a3:
                    e2:dd:43:3e:e1:75:c2:67:cb:06:9e:7a:89:d7:9e:
                    08:6d:a4:8f:6a:b2:74:e6:aa:33:1b:0f:26:a8:e9:
                    74:09:5b:4a:20:b0:0d:04:17:18:1a:bb:80:2a:62:
                    ee:42:cd:14:cd:da:3a:cf:64:d7:a4:bf:a2:cc:f1:
                    7a:d8:df:d5:10:94:75:e2:86:95:07:d8:c0:cc:61:
                    93:2c:a8:df:a7:73:32:b5:1c:dd:42:d4:9b:0d:4f:
                    36:c4:cf:9e:f6:0b:a0:ba:40:d2:d5:49:b4:05:d0:
                    18:99:fd:42:70:e3:86:64:54:1d:25:64:49:22:bc:
                    ef:2d:e7:43:dc:a1:46:6b:57:33:56:84:15:c0:7a:
                    40:cb:61:3e:51:ed:dd:d0:fb:4d:8f:7b:aa:0d:aa:
                    1d:82:12:e5:4d:e2:76:62:d9:2a:08:3b:28:91:4a:
                    bd:49:06:e2:0d:18:f5:c2:8a:28:7f:95:27:7d:a0:
                    ce:d0:2f:02:a7:1c:a3:8a:9b:a2:57:df:ea:da:56:
                    c8:eb:f1:fd:b2:4f:85:ed:a5:7d:ba:d5:66:bf:8a:
                    07:b1:41:c3:1e:15:a4:d1:d0:b4:ca:e7:22:a6:1f:
                    4a:df:53:dd:8b:11:f2:8a:17:61:75:b7:70:71:09:
                    e1:48:40:24:2c:14:ce:af:a8:f5:5d:d4:0c:76:81:
                    10:a1:b0:6f:1f:e7:69:5d:a2:d7:5f:e8:71:8c:5d:
                    b0:0a:ff:43:66:c4:a3:05:37:f2:77:e7:7e:be:10:
                    bb:26:f9:81:ba:e4:33:81:dc:83:14:44:1f:0f:b5:
                    c1:ff:f5:b2:6f:41:cb:91:1a:78:04:64:a8:50:ab:
                    00:71:eb:46:99:c6:2f:ff:0b:98:2f:87:c2:b4:b2:
                    52:6e:4a:c9:2f:09:2a:12:40:00:b2:d6:b3:9d:d6:
                    62:f9:29:d6:1c:a6:68:ee:cd:aa:ed:5d:88:25:6f:
                    ba:aa:ef
                Exponent: 65537 (0x10001)
        X509v3 extensions:
            X509v3 Basic Constraints: 
                CA:FALSE
            Netscape Comment: 
                Easy-RSA Generated Certificate
            X509v3 Subject Key Identifier: 
                D9:6C:BF:B7:7D:54:CD:BA:14:BD:93:EC:EB:41:85:8B:8B:2C:26:98
            X509v3 Authority Key Identifier: 
                keyid:12:CD:60:04:D2:A0:80:9E:70:ED:C6:99:B8:7B:2C:C6:52:FD:19:A1
                DirName:/C=US/ST=OH/L=Columbus/O=VikingVPN/OU=MyOrganizationalUnit/CN=VikingVPN CA/name=EasyRSA/emailAddress=me@myhost.mydomain
                serial:CF:35:85:EE:80:BF:2A:3E

            X509v3 Extended Key Usage: 
                TLS Web Client Authentication
            X509v3 Key Usage: 
                Digital Signature
    Signature Algorithm: md5WithRSAEncryption
         02:7f:08:2f:c1:1f:55:db:f9:a9:4a:a7:4f:4f:c2:90:0f:67:
         a7:ee:b3:7c:3c:00:72:0e:d9:4c:c7:b1:cb:56:67:44:68:b0:
         b2:f2:89:5e:8e:be:22:a3:62:f3:93:b0:ec:58:f7:2b:d5:b4:
         c5:89:71:53:97:1b:01:91:dc:33:fe:ec:52:8a:e0:00:cd:b2:
         3e:a3:9d:b2:7e:07:7d:81:c6:a6:b1:17:7c:2e:87:4d:d5:5f:
         86:e0:6c:13:95:a6:29:72:7a:5d:ab:23:0a:22:06:a8:32:07:
         7a:e2:ff:c8:4c:e3:af:f6:14:bf:36:ed:2d:66:f6:92:98:0c:
         40:a1:0c:2b:61:a4:61:c2:8c:8c:6c:b6:8c:7d:61:81:42:bd:
         7f:99:16:3d:ef:e2:e4:85:37:2b:b9:3c:5c:4e:1a:9c:12:0b:
         7a:fe:d3:97:f5:68:18:25:a7:ff:31:80:a9:4b:83:50:23:18:
         29:e4:94:7f:f2:c0:38:a0:d2:62:eb:c0:c2:d1:60:84:90:37:
         b5:7c:f1:e2:49:28:80:7b:d2:43:66:83:de:af:eb:49:46:46:
         d6:03:25:11:f4:1b:30:1f:cf:86:85:e6:1c:bf:e3:b0:54:48:
         b7:1f:3e:47:36:e9:80:44:02:4c:5d:25:ec:f3:3b:51:3a:03:
         3b:24:67:d5:17:d5:80:86:33:3b:44:c8:92:e9:c7:b9:6d:ab:
         08:58:62:30:56:10:e0:16:77:78:84:6f:81:9f:a7:2e:1b:ec:
         6d:74:33:8b:f6:27:09:9a:ba:95:20:f7:9e:92:2b:bd:cd:5e:
         4a:9c:70:75:ad:14:fd:df:8a:e1:63:fd:8f:5f:4b:53:d7:fd:
         f8:d4:72:61:7b:9e:0d:e9:76:c1:9b:4e:7b:5b:45:84:62:28:
         3a:ec:48:35:b5:a9:61:72:81:b1:11:20:97:31:26:0b:c9:c9:
         b2:3c:e5:7a:d8:e8:f5:f5:72:8f:84:90:6d:d8:ee:65:3e:3f:
         82:77:8e:d1:f7:62:52:54:81:b6:2d:80:dd:40:33:9b:fe:58:
         b0:6a:2d:9f:a0:30:3f:92:9d:ef:98:d3:50:c3:f4:98:db:bd:
         0b:69:5e:77:5c:9e:6b:3e:4c:da:1f:6b:0e:f8:a8:74:e5:4b:
         b8:62:e8:51:1a:37:31:69:d0:15:30:e0:01:1a:5a:66:c6:7b:
         37:8f:93:c5:8d:3d:01:23:fe:f3:38:03:b8:54:ec:3c:70:f0:
         bf:91:fd:65:01:54:da:44:80:eb:6a:78:fd:3f:37:0a:38:6a:
         d0:c0:5a:0a:a3:eb:d4:c2:3f:c7:bc:be:f2:6a:46:c5:e2:4c:
         13:39:86:ab:b0:42:81:74
-----BEGIN CERTIFICATE-----
MIIGrTCCBJWgAwIBAgICFkswDQYJKoZIhvcNAQEEBQAwgawxCzAJBgNVBAYTAlVT
MQswCQYDVQQIEwJPSDERMA8GA1UEBxMIQ29sdW1idXMxEjAQBgNVBAoTCVZpa2lu
Z1ZQTjEdMBsGA1UECxMUTXlPcmdhbml6YXRpb25hbFVuaXQxFTATBgNVBAMTDFZp
a2luZ1ZQTiBDQTEQMA4GA1UEKRMHRWFzeVJTQTEhMB8GCSqGSIb3DQEJARYSbWVA
bXlob3N0Lm15ZG9tYWluMB4XDTE1MDcwNTAwNTE0MloXDTI1MDcwMjAwNTE0Mlow
HzEdMBsGA1UEAxMUQ2xpZW50MTcwMUNlcnRlM2Y4ZGIwggIiMA0GCSqGSIb3DQEB
AQUAA4ICDwAwggIKAoICAQChVyf64UrlajbeA7eNyqlVyE9g3P4WmgYFe6OBOgOR
sM6bON5CJqwqaCS50Y2RRrc3YKUTVsBVHJpvylyjq3YijPjTuxubzl6tQpJx2y1u
GK6zffaypoU4G+4i6WiPYF4AeT01hlK/Es3p2MK9J0DOP6OcQkleC1/wJ6TDwP7J
/ZCVUvpkGbWp7BTZbh910gFKo4oOo+LdQz7hdcJnywaeeonXnghtpI9qsnTmqjMb
Dyao6XQJW0ogsA0EFxgau4AqYu5CzRTN2jrPZNekv6LM8XrY39UQlHXihpUH2MDM
YZMsqN+nczK1HN1C1JsNTzbEz572C6C6QNLVSbQF0BiZ/UJw44ZkVB0lZEkivO8t
50PcoUZrVzNWhBXAekDLYT5R7d3Q+02Pe6oNqh2CEuVN4nZi2SoIOyiRSr1JBuIN
GPXCiih/lSd9oM7QLwKnHKOKm6JX3+raVsjr8f2yT4XtpX261Wa/igexQcMeFaTR
0LTK5yKmH0rfU92LEfKKF2F1t3BxCeFIQCQsFM6vqPVd1Ax2gRChsG8f52ldotdf
6HGMXbAK/0NmxKMFN/J3536+ELsm+YG65DOB3IMURB8PtcH/9bJvQcuRGngEZKhQ
qwBx60aZxi//C5gvh8K0slJuSskvCSoSQACy1rOd1mL5KdYcpmjuzartXYglb7qq
7wIDAQABo4IBYzCCAV8wCQYDVR0TBAIwADAtBglghkgBhvhCAQ0EIBYeRWFzeS1S
U0EgR2VuZXJhdGVkIENlcnRpZmljYXRlMB0GA1UdDgQWBBTZbL+3fVTNuhS9k+zr
QYWLiywmmDCB4QYDVR0jBIHZMIHWgBQSzWAE0qCAnnDtxpm4eyzGUv0ZoaGBsqSB
rzCBrDELMAkGA1UEBhMCVVMxCzAJBgNVBAgTAk9IMREwDwYDVQQHEwhDb2x1bWJ1
czESMBAGA1UEChMJVmlraW5nVlBOMR0wGwYDVQQLExRNeU9yZ2FuaXphdGlvbmFs
VW5pdDEVMBMGA1UEAxMMVmlraW5nVlBOIENBMRAwDgYDVQQpEwdFYXN5UlNBMSEw
HwYJKoZIhvcNAQkBFhJtZUBteWhvc3QubXlkb21haW6CCQDPNYXugL8qPjATBgNV
HSUEDDAKBggrBgEFBQcDAjALBgNVHQ8EBAMCB4AwDQYJKoZIhvcNAQEEBQADggIB
AAJ/CC/BH1Xb+alKp09PwpAPZ6fus3w8AHIO2UzHsctWZ0RosLLyiV6OviKjYvOT
sOxY9yvVtMWJcVOXGwGR3DP+7FKK4ADNsj6jnbJ+B32BxqaxF3wuh03VX4bgbBOV
pilyel2rIwoiBqgyB3ri/8hM46/2FL827S1m9pKYDEChDCthpGHCjIxstox9YYFC
vX+ZFj3v4uSFNyu5PFxOGpwSC3r+05f1aBglp/8xgKlLg1AjGCnklH/ywDig0mLr
wMLRYISQN7V88eJJKIB70kNmg96v60lGRtYDJRH0GzAfz4aF5hy/47BUSLcfPkc2
6YBEAkxdJezzO1E6AzskZ9UX1YCGMztEyJLpx7ltqwhYYjBWEOAWd3iEb4Gfpy4b
7G10M4v2JwmaupUg956SK73NXkqccHWtFP3fiuFj/Y9fS1PX/fjUcmF7ng3pdsGb
TntbRYRiKDrsSDW1qWFygbERIJcxJgvJybI85XrY6PX1co+EkG3Y7mU+P4J3jtH3
YlJUgbYtgN1AM5v+WLBqLZ+gMD+Sne+Y01DD9JjbvQtpXndcnms+TNofaw74qHTl
S7hi6FEaNzFp0BUw4AEaWmbGezePk8WNPQEj/vM4A7hU7Dxw8L+R/WUBVNpEgOtq
eP0/Nwo4atDAWgqj69TCP8e8vvJqRsXiTBM5hquwQoF0
-----END CERTIFICATE-----
