Certificate:
    Data:
        Version: 3 (0x2)
        Serial Number: 7527 (0x1d67)
    Signature Algorithm: md5WithRSAEncryption
        Issuer: C=US, ST=OH, L=Columbus, O=VikingVPN, OU=MyOrganizationalUnit, CN=VikingVPN CA/name=EasyRSA/emailAddress=me@myhost.mydomain
        Validity
            Not Before: Mar 17 02:39:06 2016 GMT
            Not After : Mar 15 02:39:06 2026 GMT
        Subject: CN=Client2022Certf7cf72
        Subject Public Key Info:
            Public Key Algorithm: rsaEncryption
                Public-Key: (4096 bit)
                Modulus:
                    00:9f:dc:62:62:eb:bf:bd:ab:61:99:51:04:06:88:
                    51:e2:cf:d3:ac:c5:d8:38:8c:aa:29:d5:18:25:69:
                    19:11:4b:0e:98:5d:51:e4:28:05:2e:97:ce:20:a4:
                    f8:c5:ba:d9:15:3d:58:3a:90:9d:9a:76:9b:f2:4a:
                    8d:f1:f2:d8:fb:e9:f6:59:45:0b:c2:08:1d:99:84:
                    14:0b:5f:fb:2c:8c:4e:58:3c:05:7e:44:92:d5:ba:
                    31:8b:13:9a:ae:3e:a0:d3:6c:5c:78:39:ae:11:eb:
                    53:8a:f2:71:31:44:66:ba:5c:b2:8e:39:ef:58:bc:
                    4f:2f:1e:b1:01:49:7d:e0:0d:53:78:cb:f7:6a:92:
                    fc:ed:1f:a5:77:d5:0a:78:d2:b3:88:d2:cf:45:2f:
                    54:05:92:fa:d7:6e:10:8f:ee:18:4f:7e:54:53:ec:
                    e3:54:e7:b7:5f:69:ee:26:01:2e:3e:13:50:b2:7b:
                    10:e2:57:82:31:e9:50:b0:c7:60:21:85:4a:5a:bc:
                    53:05:ff:ef:cf:24:f2:ed:ae:9d:37:78:dd:6e:99:
                    6c:ca:7f:a0:93:fa:ae:70:59:77:ef:24:e9:1f:db:
                    45:71:de:4e:b0:ee:b0:5a:f7:dd:14:cf:c8:89:3a:
                    27:e8:7d:e2:d8:50:8b:ad:6e:16:5d:99:64:d6:75:
                    d5:1f:92:f3:97:b2:ff:59:86:b8:69:9a:d2:e0:81:
                    3a:9a:8c:64:12:21:98:30:d4:5d:fe:59:cc:e5:d2:
                    ea:fc:28:43:1c:02:2c:1e:cc:37:57:18:e0:63:aa:
                    33:f4:b7:da:f5:e6:15:36:dd:d4:88:02:69:41:71:
                    62:97:eb:91:b2:b5:81:f2:70:9e:aa:72:71:9a:cb:
                    e5:c2:92:75:d2:00:be:11:49:18:05:ca:fe:65:0e:
                    ff:7c:31:30:f2:ee:fb:91:88:d1:30:0d:64:00:d8:
                    0b:94:c5:55:e4:da:fe:c0:a4:e9:d6:4c:e2:71:6c:
                    df:e3:90:ea:11:37:80:70:cb:0f:84:f2:8f:fd:61:
                    af:d5:9c:d4:d0:6b:d4:87:82:2d:7a:92:68:43:dd:
                    5b:52:49:7b:0f:fd:53:4d:0e:ed:7a:e9:ef:22:52:
                    46:80:7b:59:df:e4:05:73:55:65:ee:57:56:0e:9c:
                    a3:13:64:10:6b:bb:9f:26:09:5a:b8:d7:92:b5:7f:
                    f6:4f:fe:8d:4b:10:4a:ce:8e:64:fd:22:fd:a5:83:
                    13:69:ac:37:a0:73:e3:38:96:48:51:56:75:f1:2f:
                    95:e8:9c:0a:7a:21:82:88:05:53:4b:bf:d8:ed:9e:
                    9f:91:c1:cd:74:43:d9:b2:c9:cf:51:53:e0:ac:dd:
                    11:55:fd
                Exponent: 65537 (0x10001)
        X509v3 extensions:
            X509v3 Basic Constraints: 
                CA:FALSE
            Netscape Comment: 
                Easy-RSA Generated Certificate
            X509v3 Subject Key Identifier: 
                40:93:F7:AA:AE:47:14:E0:90:92:20:88:91:CE:16:31:5B:FF:F9:B1
            X509v3 Authority Key Identifier: 
                keyid:12:CD:60:04:D2:A0:80:9E:70:ED:C6:99:B8:7B:2C:C6:52:FD:19:A1
                DirName:/C=US/ST=OH/L=Columbus/O=VikingVPN/OU=MyOrganizationalUnit/CN=VikingVPN CA/name=EasyRSA/emailAddress=me@myhost.mydomain
                serial:CF:35:85:EE:80:BF:2A:3E

            X509v3 Extended Key Usage: 
                TLS Web Client Authentication
            X509v3 Key Usage: 
                Digital Signature
    Signature Algorithm: md5WithRSAEncryption
         12:c6:8d:a1:65:82:02:8c:cb:a8:7d:73:4f:36:b0:e0:99:7e:
         b8:47:f4:d8:0a:36:2b:ae:9d:a2:bf:74:b5:e5:02:23:03:6d:
         e9:e9:a7:90:3b:20:3d:d2:d3:b7:81:f2:93:4e:b3:14:b6:a9:
         b0:6e:0d:68:0e:8e:72:b4:cc:a7:c9:e2:c8:25:31:90:d6:3b:
         10:89:15:99:74:90:f7:da:06:bd:a0:28:96:64:f3:e5:10:99:
         2e:c5:5b:e9:d6:e6:84:58:ee:87:23:69:68:41:00:d9:cc:ed:
         78:10:71:dc:1f:7f:9c:4d:8a:a4:75:bc:9d:59:80:6f:67:34:
         8d:2e:3b:06:cd:9b:0a:22:af:1d:a2:4d:a4:05:ee:59:0f:23:
         69:cb:86:58:a0:fb:93:dd:dc:2d:d8:0a:64:e6:56:83:16:78:
         09:5a:e7:81:57:83:f4:de:2c:3e:ea:40:4d:bc:28:77:e1:c9:
         4a:12:8f:31:49:eb:ff:87:4d:f8:5a:ac:95:b3:e2:aa:20:c3:
         bd:68:d9:23:45:da:91:9a:8e:f5:01:2b:63:f6:1f:34:0c:13:
         67:fa:43:fc:59:5b:93:54:cb:a9:bc:7b:af:4e:06:c8:ed:a7:
         eb:2b:45:80:21:bd:13:84:58:02:32:07:f4:d2:6e:79:19:bf:
         66:08:15:20:bf:0f:64:19:bb:cf:bd:95:07:98:17:29:1a:0c:
         c2:8c:49:6a:a6:c1:30:40:b7:2e:10:97:1c:c0:c6:c5:1b:5b:
         51:40:ac:d7:b4:4b:17:13:fa:b1:07:e7:b0:61:14:5f:67:a4:
         4f:ff:3d:b2:9a:21:78:a4:3d:b6:2d:d5:4f:6e:61:69:17:b3:
         ad:e6:73:08:04:db:73:05:24:0e:85:94:fa:2e:6a:3b:80:b0:
         b6:59:d5:7d:ef:21:54:86:5d:6a:e9:09:e2:0e:08:74:a8:64:
         9c:fc:38:23:c5:d4:b8:c7:7c:c3:9b:aa:91:09:0a:eb:c6:37:
         b6:cf:4e:0a:93:5d:19:31:50:7f:82:64:a6:d7:6e:02:f1:6a:
         fe:77:da:f0:71:bd:bd:62:6c:82:4f:45:a1:22:81:31:8d:3b:
         39:db:b3:33:0b:8f:ba:a8:28:21:ff:f8:20:39:c2:72:8a:78:
         c3:09:5d:72:b1:e3:d2:f9:36:a6:44:30:33:d7:2a:c6:68:cd:
         a3:8f:20:3a:ee:ea:a3:2c:ae:de:30:b7:6d:64:d5:34:0f:b2:
         c9:f0:6e:bc:e9:80:69:01:43:d0:f8:58:8e:0e:75:32:32:65:
         e1:e8:71:6e:11:31:0a:f3:7b:49:fc:3b:0e:71:a1:61:54:4d:
         8d:75:e3:7e:38:1f:6e:ba
-----BEGIN CERTIFICATE-----
MIIGrTCCBJWgAwIBAgICHWcwDQYJKoZIhvcNAQEEBQAwgawxCzAJBgNVBAYTAlVT
MQswCQYDVQQIEwJPSDERMA8GA1UEBxMIQ29sdW1idXMxEjAQBgNVBAoTCVZpa2lu
Z1ZQTjEdMBsGA1UECxMUTXlPcmdhbml6YXRpb25hbFVuaXQxFTATBgNVBAMTDFZp
a2luZ1ZQTiBDQTEQMA4GA1UEKRMHRWFzeVJTQTEhMB8GCSqGSIb3DQEJARYSbWVA
bXlob3N0Lm15ZG9tYWluMB4XDTE2MDMxNzAyMzkwNloXDTI2MDMxNTAyMzkwNlow
HzEdMBsGA1UEAxMUQ2xpZW50MjAyMkNlcnRmN2NmNzIwggIiMA0GCSqGSIb3DQEB
AQUAA4ICDwAwggIKAoICAQCf3GJi67+9q2GZUQQGiFHiz9Osxdg4jKop1RglaRkR
Sw6YXVHkKAUul84gpPjFutkVPVg6kJ2adpvySo3x8tj76fZZRQvCCB2ZhBQLX/ss
jE5YPAV+RJLVujGLE5quPqDTbFx4Oa4R61OK8nExRGa6XLKOOe9YvE8vHrEBSX3g
DVN4y/dqkvztH6V31Qp40rOI0s9FL1QFkvrXbhCP7hhPflRT7ONU57dfae4mAS4+
E1CyexDiV4Ix6VCwx2AhhUpavFMF/+/PJPLtrp03eN1umWzKf6CT+q5wWXfvJOkf
20Vx3k6w7rBa990Uz8iJOifofeLYUIutbhZdmWTWddUfkvOXsv9ZhrhpmtLggTqa
jGQSIZgw1F3+Wczl0ur8KEMcAiwezDdXGOBjqjP0t9r15hU23dSIAmlBcWKX65Gy
tYHycJ6qcnGay+XCknXSAL4RSRgFyv5lDv98MTDy7vuRiNEwDWQA2AuUxVXk2v7A
pOnWTOJxbN/jkOoRN4Bwyw+E8o/9Ya/VnNTQa9SHgi16kmhD3VtSSXsP/VNNDu16
6e8iUkaAe1nf5AVzVWXuV1YOnKMTZBBru58mCVq415K1f/ZP/o1LEErOjmT9Iv2l
gxNprDegc+M4lkhRVnXxL5XonAp6IYKIBVNLv9jtnp+Rwc10Q9myyc9RU+Cs3RFV
/QIDAQABo4IBYzCCAV8wCQYDVR0TBAIwADAtBglghkgBhvhCAQ0EIBYeRWFzeS1S
U0EgR2VuZXJhdGVkIENlcnRpZmljYXRlMB0GA1UdDgQWBBRAk/eqrkcU4JCSIIiR
zhYxW//5sTCB4QYDVR0jBIHZMIHWgBQSzWAE0qCAnnDtxpm4eyzGUv0ZoaGBsqSB
rzCBrDELMAkGA1UEBhMCVVMxCzAJBgNVBAgTAk9IMREwDwYDVQQHEwhDb2x1bWJ1
czESMBAGA1UEChMJVmlraW5nVlBOMR0wGwYDVQQLExRNeU9yZ2FuaXphdGlvbmFs
VW5pdDEVMBMGA1UEAxMMVmlraW5nVlBOIENBMRAwDgYDVQQpEwdFYXN5UlNBMSEw
HwYJKoZIhvcNAQkBFhJtZUBteWhvc3QubXlkb21haW6CCQDPNYXugL8qPjATBgNV
HSUEDDAKBggrBgEFBQcDAjALBgNVHQ8EBAMCB4AwDQYJKoZIhvcNAQEEBQADggIB
ABLGjaFlggKMy6h9c082sOCZfrhH9NgKNiuunaK/dLXlAiMDbenpp5A7ID3S07eB
8pNOsxS2qbBuDWgOjnK0zKfJ4sglMZDWOxCJFZl0kPfaBr2gKJZk8+UQmS7FW+nW
5oRY7ocjaWhBANnM7XgQcdwff5xNiqR1vJ1ZgG9nNI0uOwbNmwoirx2iTaQF7lkP
I2nLhlig+5Pd3C3YCmTmVoMWeAla54FXg/TeLD7qQE28KHfhyUoSjzFJ6/+HTfha
rJWz4qogw71o2SNF2pGajvUBK2P2HzQME2f6Q/xZW5NUy6m8e69OBsjtp+srRYAh
vROEWAIyB/TSbnkZv2YIFSC/D2QZu8+9lQeYFykaDMKMSWqmwTBAty4QlxzAxsUb
W1FArNe0SxcT+rEH57BhFF9npE//PbKaIXikPbYt1U9uYWkXs63mcwgE23MFJA6F
lPouajuAsLZZ1X3vIVSGXWrpCeIOCHSoZJz8OCPF1LjHfMObqpEJCuvGN7bPTgqT
XRkxUH+CZKbXbgLxav532vBxvb1ibIJPRaEigTGNOznbszMLj7qoKCH/+CA5wnKK
eMMJXXKx49L5NqZEMDPXKsZozaOPIDru6qMsrt4wt21k1TQPssnwbrzpgGkBQ9D4
WI4OdTIyZeHocW4RMQrze0n8Ow5xoWFUTY114344H266
-----END CERTIFICATE-----
