Certificate:
    Data:
        Version: 3 (0x2)
        Serial Number: 7436 (0x1d0c)
    Signature Algorithm: md5WithRSAEncryption
        Issuer: C=US, ST=OH, L=Columbus, O=VikingVPN, OU=MyOrganizationalUnit, CN=VikingVPN CA/name=EasyRSA/emailAddress=me@myhost.mydomain
        Validity
            Not Before: Mar  7 14:59:48 2016 GMT
            Not After : Mar  5 14:59:48 2026 GMT
        Subject: CN=Client2215Cert542d50
        Subject Public Key Info:
            Public Key Algorithm: rsaEncryption
                Public-Key: (4096 bit)
                Modulus:
                    00:e4:a3:49:1b:aa:5d:a1:ad:d4:3f:41:3b:9d:5a:
                    79:8f:09:2e:30:43:dd:26:03:38:9f:dd:d2:64:72:
                    9f:f4:65:e4:86:65:90:f9:65:0d:0d:68:2a:0a:0a:
                    cd:3b:27:f3:ec:e9:6f:0b:54:d2:1d:c9:50:ca:e6:
                    44:71:2c:73:12:6e:d5:90:30:5b:4e:66:28:ae:f2:
                    62:c9:f7:97:c6:96:48:80:33:48:d7:84:fd:09:c7:
                    21:e6:4f:62:8c:25:7e:57:f4:e1:b6:35:c3:77:95:
                    c4:0e:ed:d7:88:5a:22:2b:4d:c1:c3:b4:93:e9:f4:
                    f4:21:81:b3:9c:a5:5b:e0:6a:29:96:85:5e:d7:06:
                    62:d1:37:dc:fd:ab:38:6e:b7:7f:25:08:03:22:74:
                    7c:9d:e0:06:b0:56:b4:b6:45:a6:46:f6:2c:58:3d:
                    85:4d:94:6d:ce:10:f5:3d:e3:b1:01:0e:a0:57:d3:
                    61:7c:91:df:9e:9d:a2:f5:81:d9:0f:ef:69:d2:e2:
                    03:57:4a:3b:80:40:53:d6:63:a0:b3:19:fe:3f:73:
                    b1:fe:bc:7c:7c:61:0a:ae:b2:9e:7c:9a:6b:e1:3e:
                    99:25:31:9e:51:78:37:99:a5:f2:07:13:9b:1d:1e:
                    7b:85:35:91:cf:cb:61:19:15:19:ba:67:32:8a:f3:
                    49:eb:0f:51:d2:2c:8a:fe:0f:0d:64:f4:af:62:9d:
                    c7:ac:d5:c1:10:f0:e4:de:b7:b4:ac:b4:ca:18:5d:
                    6d:af:ea:07:45:81:fc:53:90:04:ba:41:ec:56:21:
                    89:6b:21:58:98:ee:bd:c9:85:67:26:09:ac:fb:4c:
                    aa:25:7b:ac:c3:5a:b3:82:dc:5f:68:33:f2:d0:26:
                    c4:c7:92:e9:52:b2:b3:90:f2:51:14:7f:9a:39:f3:
                    e9:70:0a:84:a3:a9:d7:f2:a1:a0:24:d1:ca:99:a0:
                    19:e6:4b:f9:ff:de:8e:83:07:a8:72:73:61:54:fe:
                    ed:fe:64:aa:0c:3f:93:4c:d0:bf:03:12:ed:f0:f1:
                    fe:77:06:be:8e:09:0e:2b:0e:ac:af:bb:e3:41:86:
                    af:46:d0:69:3e:4f:21:e6:d5:f9:88:4c:ba:d9:e0:
                    fb:11:91:a8:2e:fa:5f:72:e7:65:65:e9:52:88:4e:
                    89:ec:19:ea:8a:2d:d5:89:7c:3b:5b:6a:80:f2:32:
                    e0:23:e9:9b:aa:02:44:14:fd:5e:43:4b:25:35:89:
                    02:2d:52:0a:43:00:ef:7d:11:3a:7d:c8:ce:75:c1:
                    ca:bd:0b:ee:84:82:89:0f:fa:e5:26:43:f5:92:d5:
                    c0:cd:13:49:fa:b0:5f:d3:f7:c1:15:fe:55:ea:80:
                    ae:83:e1
                Exponent: 65537 (0x10001)
        X509v3 extensions:
            X509v3 Basic Constraints: 
                CA:FALSE
            Netscape Comment: 
                Easy-RSA Generated Certificate
            X509v3 Subject Key Identifier: 
                32:51:6A:4C:C6:9E:12:10:E7:D2:57:DB:DB:21:F0:11:66:AA:3D:EF
            X509v3 Authority Key Identifier: 
                keyid:12:CD:60:04:D2:A0:80:9E:70:ED:C6:99:B8:7B:2C:C6:52:FD:19:A1
                DirName:/C=US/ST=OH/L=Columbus/O=VikingVPN/OU=MyOrganizationalUnit/CN=VikingVPN CA/name=EasyRSA/emailAddress=me@myhost.mydomain
                serial:CF:35:85:EE:80:BF:2A:3E

            X509v3 Extended Key Usage: 
                TLS Web Client Authentication
            X509v3 Key Usage: 
                Digital Signature
    Signature Algorithm: md5WithRSAEncryption
         97:ab:d5:42:cd:33:6f:85:5f:b8:59:fc:50:2d:24:a5:4f:c6:
         e8:20:8e:4c:82:4e:a7:45:60:a9:00:a8:27:0b:51:a8:62:03:
         b9:14:58:ca:6c:5a:0c:6a:a0:a7:a4:16:c6:75:71:8c:20:37:
         38:51:db:a8:5b:19:d6:08:86:f8:8e:ef:bc:0e:72:9b:fd:c6:
         74:8d:94:6b:0e:8c:56:c1:4f:55:cd:07:90:5b:75:4d:90:80:
         2b:32:fa:1a:a1:b6:3a:f4:2e:da:12:b0:a0:34:d2:c6:b2:74:
         b8:cf:72:c3:d5:8d:cc:58:f0:0a:7d:f2:3a:93:f5:b2:65:6a:
         1b:01:e3:78:be:b6:b6:71:91:45:0c:b5:f7:fc:ac:a6:f4:70:
         ab:20:31:02:54:71:98:17:96:e8:89:70:0f:6b:10:2a:ac:48:
         60:85:72:e6:d4:a6:da:87:05:68:6c:c3:0d:a2:55:67:a8:28:
         9b:d9:53:e4:4b:42:92:1f:8d:40:ae:07:7c:e9:80:bb:37:d3:
         b4:b6:25:a6:db:5e:b4:20:d8:05:45:88:6f:cc:22:5e:7f:fa:
         e7:bb:df:03:d6:84:05:88:17:ec:cf:de:4e:1e:9f:c4:33:1b:
         12:53:1f:55:59:94:f7:da:98:c6:36:b6:11:f3:c5:93:f7:ea:
         aa:b5:a9:8e:d4:d5:b1:f3:46:9c:5f:38:3e:fe:a1:f6:3d:e7:
         24:eb:31:f2:f4:72:98:57:79:3e:da:70:2b:3a:f6:d9:11:a6:
         c6:7b:df:43:35:94:d9:b3:46:58:ba:33:15:0a:5d:c6:f0:c2:
         ab:2e:1b:e1:79:5d:ce:5a:4f:83:20:f3:f7:55:33:ff:40:f9:
         65:63:33:16:8e:29:72:e6:35:e6:81:ff:20:e1:30:f3:16:0f:
         e8:36:ba:41:3f:72:d4:42:75:d1:d0:36:f8:a7:be:3e:a6:85:
         38:96:e2:d1:41:ab:4c:75:df:88:cc:bf:6c:62:7a:58:c1:9e:
         05:a5:cb:84:48:c7:2a:a2:35:e3:d1:7a:ca:ac:e1:37:91:6b:
         5c:5c:a8:97:6e:fe:c8:3f:92:72:7b:38:24:2c:8b:d1:91:93:
         0c:65:c1:f8:3c:44:54:c9:6f:03:e6:e5:3b:8f:99:67:2f:55:
         fc:94:7e:fa:dc:6b:20:d9:b7:be:7a:2e:2b:b7:97:18:8e:05:
         8b:22:fc:31:34:22:fa:5e:94:e0:bb:dd:b9:d9:af:7a:87:ef:
         45:d5:98:2a:e2:6f:70:e8:74:69:34:40:74:63:30:bc:4d:7b:
         49:cc:07:7b:be:e7:90:13:84:fd:52:c6:28:ad:67:bf:08:4a:
         03:4b:bd:17:62:6a:86:7a
-----BEGIN CERTIFICATE-----
MIIGrTCCBJWgAwIBAgICHQwwDQYJKoZIhvcNAQEEBQAwgawxCzAJBgNVBAYTAlVT
MQswCQYDVQQIEwJPSDERMA8GA1UEBxMIQ29sdW1idXMxEjAQBgNVBAoTCVZpa2lu
Z1ZQTjEdMBsGA1UECxMUTXlPcmdhbml6YXRpb25hbFVuaXQxFTATBgNVBAMTDFZp
a2luZ1ZQTiBDQTEQMA4GA1UEKRMHRWFzeVJTQTEhMB8GCSqGSIb3DQEJARYSbWVA
bXlob3N0Lm15ZG9tYWluMB4XDTE2MDMwNzE0NTk0OFoXDTI2MDMwNTE0NTk0OFow
HzEdMBsGA1UEAxMUQ2xpZW50MjIxNUNlcnQ1NDJkNTAwggIiMA0GCSqGSIb3DQEB
AQUAA4ICDwAwggIKAoICAQDko0kbql2hrdQ/QTudWnmPCS4wQ90mAzif3dJkcp/0
ZeSGZZD5ZQ0NaCoKCs07J/Ps6W8LVNIdyVDK5kRxLHMSbtWQMFtOZiiu8mLJ95fG
lkiAM0jXhP0JxyHmT2KMJX5X9OG2NcN3lcQO7deIWiIrTcHDtJPp9PQhgbOcpVvg
aimWhV7XBmLRN9z9qzhut38lCAMidHyd4AawVrS2RaZG9ixYPYVNlG3OEPU947EB
DqBX02F8kd+enaL1gdkP72nS4gNXSjuAQFPWY6CzGf4/c7H+vHx8YQqusp58mmvh
PpklMZ5ReDeZpfIHE5sdHnuFNZHPy2EZFRm6ZzKK80nrD1HSLIr+Dw1k9K9inces
1cEQ8OTet7SstMoYXW2v6gdFgfxTkAS6QexWIYlrIViY7r3JhWcmCaz7TKole6zD
WrOC3F9oM/LQJsTHkulSsrOQ8lEUf5o58+lwCoSjqdfyoaAk0cqZoBnmS/n/3o6D
B6hyc2FU/u3+ZKoMP5NM0L8DEu3w8f53Br6OCQ4rDqyvu+NBhq9G0Gk+TyHm1fmI
TLrZ4PsRkagu+l9y52Vl6VKITonsGeqKLdWJfDtbaoDyMuAj6ZuqAkQU/V5DSyU1
iQItUgpDAO99ETp9yM51wcq9C+6EgokP+uUmQ/WS1cDNE0n6sF/T98EV/lXqgK6D
4QIDAQABo4IBYzCCAV8wCQYDVR0TBAIwADAtBglghkgBhvhCAQ0EIBYeRWFzeS1S
U0EgR2VuZXJhdGVkIENlcnRpZmljYXRlMB0GA1UdDgQWBBQyUWpMxp4SEOfSV9vb
IfARZqo97zCB4QYDVR0jBIHZMIHWgBQSzWAE0qCAnnDtxpm4eyzGUv0ZoaGBsqSB
rzCBrDELMAkGA1UEBhMCVVMxCzAJBgNVBAgTAk9IMREwDwYDVQQHEwhDb2x1bWJ1
czESMBAGA1UEChMJVmlraW5nVlBOMR0wGwYDVQQLExRNeU9yZ2FuaXphdGlvbmFs
VW5pdDEVMBMGA1UEAxMMVmlraW5nVlBOIENBMRAwDgYDVQQpEwdFYXN5UlNBMSEw
HwYJKoZIhvcNAQkBFhJtZUBteWhvc3QubXlkb21haW6CCQDPNYXugL8qPjATBgNV
HSUEDDAKBggrBgEFBQcDAjALBgNVHQ8EBAMCB4AwDQYJKoZIhvcNAQEEBQADggIB
AJer1ULNM2+FX7hZ/FAtJKVPxuggjkyCTqdFYKkAqCcLUahiA7kUWMpsWgxqoKek
FsZ1cYwgNzhR26hbGdYIhviO77wOcpv9xnSNlGsOjFbBT1XNB5BbdU2QgCsy+hqh
tjr0LtoSsKA00saydLjPcsPVjcxY8Ap98jqT9bJlahsB43i+trZxkUUMtff8rKb0
cKsgMQJUcZgXluiJcA9rECqsSGCFcubUptqHBWhsww2iVWeoKJvZU+RLQpIfjUCu
B3zpgLs307S2JabbXrQg2AVFiG/MIl5/+ue73wPWhAWIF+zP3k4en8QzGxJTH1VZ
lPfamMY2thHzxZP36qq1qY7U1bHzRpxfOD7+ofY95yTrMfL0cphXeT7acCs69tkR
psZ730M1lNmzRli6MxUKXcbwwqsuG+F5Xc5aT4Mg8/dVM/9A+WVjMxaOKXLmNeaB
/yDhMPMWD+g2ukE/ctRCddHQNvinvj6mhTiW4tFBq0x134jMv2xieljBngWly4RI
xyqiNePResqs4TeRa1xcqJdu/sg/knJ7OCQsi9GRkwxlwfg8RFTJbwPm5TuPmWcv
VfyUfvrcayDZt756Liu3lxiOBYsi/DE0IvpelOC73bnZr3qH70XVmCrib3DodGk0
QHRjMLxNe0nMB3u+55AThP1SxiitZ78ISgNLvRdiaoZ6
-----END CERTIFICATE-----
