Certificate:
    Data:
        Version: 3 (0x2)
        Serial Number: 9776 (0x2630)
    Signature Algorithm: sha256WithRSAEncryption
        Issuer: C=US, ST=OH, L=Columbus, O=VikingVPN, OU=MyOrganizationalUnit, CN=VikingVPN CA/name=EasyRSA/emailAddress=me@myhost.mydomain
        Validity
            Not Before: Dec 28 19:29:49 2016 GMT
            Not After : Dec 26 19:29:49 2026 GMT
        Subject: CN=Client1919Cert37e694
        Subject Public Key Info:
            Public Key Algorithm: rsaEncryption
                Public-Key: (4096 bit)
                Modulus:
                    00:eb:04:a3:62:ee:4e:11:e4:7a:9b:64:b0:9f:b2:
                    a3:65:a8:b9:1b:00:58:c5:88:58:5a:bb:37:de:0c:
                    ef:8d:1d:f0:00:33:81:da:da:c4:96:be:93:b0:cc:
                    56:00:8a:8e:40:19:99:62:c1:4c:0c:b1:90:c1:a7:
                    3a:f1:e5:22:e6:1e:53:89:b0:e6:68:7e:44:87:c8:
                    c1:8a:9e:f2:31:2b:ba:34:94:3d:11:28:73:b4:89:
                    25:ea:46:78:6c:1d:38:0b:bd:4e:83:ea:2c:e4:06:
                    03:66:55:ba:ad:a3:46:8a:b1:c1:01:29:60:5b:c1:
                    88:f6:aa:58:ee:bd:80:f2:21:4e:6e:e8:34:09:b2:
                    98:17:89:3d:c6:4b:78:6f:54:a4:97:3b:2f:cb:7a:
                    b8:97:02:3c:d0:9d:ec:fb:c1:0d:10:7c:1e:7e:a7:
                    e6:0a:e7:5a:96:ac:d9:d6:ce:fe:cc:46:f5:8d:78:
                    42:3b:4b:ae:19:b3:10:52:84:91:6a:82:80:84:31:
                    19:76:95:e1:04:51:8a:1f:24:ae:f1:93:ec:3c:3d:
                    91:79:d4:35:b8:bd:f7:e6:3d:80:d3:bb:b9:15:8a:
                    3e:46:76:b9:ae:95:75:b5:5b:d1:16:fb:b5:b5:31:
                    5d:80:da:d5:12:a1:db:49:ad:44:21:18:33:1d:2d:
                    94:70:7c:9d:4d:bd:a3:30:8d:d9:f1:bb:91:3e:64:
                    79:06:97:43:a9:cb:27:75:6d:da:4e:54:cb:ad:f9:
                    88:e7:b3:b3:5c:b5:b7:d5:14:70:38:0d:a9:f5:94:
                    ec:07:67:0c:35:8f:ff:18:cf:f1:9f:7c:e9:12:87:
                    da:cc:f7:d4:56:4c:aa:ea:80:ea:06:47:f2:85:39:
                    3b:b1:41:27:76:89:3e:17:19:2f:a6:fd:a0:4a:3c:
                    5d:f5:14:bd:0c:d2:02:ee:03:e4:b5:7b:4a:c5:1b:
                    20:cc:e5:41:46:a3:61:72:02:b5:eb:28:18:da:17:
                    30:41:79:27:d7:95:80:b3:c5:8b:3b:ef:40:df:99:
                    33:58:7a:3c:3d:91:c2:6d:f7:55:cb:8b:49:e2:ca:
                    76:dc:48:52:c1:68:b0:c8:ac:59:85:a9:79:f0:b8:
                    11:85:b4:fc:ff:ae:fe:59:84:41:52:7f:55:e4:a8:
                    98:40:00:45:2f:2f:f6:35:a4:54:c3:7e:01:8a:f6:
                    84:86:92:2b:34:f6:3d:b7:ee:78:73:bb:3f:8a:16:
                    75:f1:cf:0c:04:c4:81:f1:e2:4c:2f:10:02:e5:cb:
                    f2:53:f1:73:4d:c3:e9:28:44:c8:7e:c4:e7:cb:8f:
                    17:5c:b5:3d:36:2f:66:43:31:a6:07:1d:be:76:91:
                    9a:d6:95
                Exponent: 65537 (0x10001)
        X509v3 extensions:
            X509v3 Basic Constraints: 
                CA:FALSE
            Netscape Comment: 
                Easy-RSA Generated Certificate
            X509v3 Subject Key Identifier: 
                7B:AB:A0:BB:78:76:6E:7E:FE:51:3A:AD:84:C3:7D:A1:BC:98:35:52
            X509v3 Authority Key Identifier: 
                keyid:12:CD:60:04:D2:A0:80:9E:70:ED:C6:99:B8:7B:2C:C6:52:FD:19:A1
                DirName:/C=US/ST=OH/L=Columbus/O=VikingVPN/OU=MyOrganizationalUnit/CN=VikingVPN CA/name=EasyRSA/emailAddress=me@myhost.mydomain
                serial:CF:35:85:EE:80:BF:2A:3E

            X509v3 Extended Key Usage: 
                TLS Web Client Authentication
            X509v3 Key Usage: 
                Digital Signature
    Signature Algorithm: sha256WithRSAEncryption
         c2:44:fa:9b:07:bd:4d:65:07:1a:5d:64:17:b5:d4:e5:9b:5a:
         a2:d1:dd:4b:79:eb:ba:bb:cc:1d:7b:da:33:2c:da:b5:86:97:
         bb:9a:bb:65:73:27:5d:cc:e4:90:cc:ad:9e:33:3e:7a:c0:be:
         fa:51:d2:27:19:cb:cf:2f:52:4d:7a:eb:31:39:da:eb:93:56:
         04:d5:36:d9:a1:52:cc:59:14:5d:38:5d:33:36:bf:54:e9:4c:
         4a:27:62:e6:08:dd:f6:17:86:b4:c9:8b:58:98:0c:f5:f6:bd:
         a4:8a:25:c6:29:da:a4:23:25:b1:9d:6d:6f:9a:b4:68:96:56:
         4a:cf:10:45:6c:66:b8:74:f0:7c:3f:3a:56:6d:30:65:d0:ee:
         2f:a4:7e:26:51:a2:75:ff:b9:43:79:8e:8e:ca:f9:89:bb:3b:
         58:1f:b7:36:44:9e:7d:76:13:a9:68:1d:65:7d:05:88:f2:58:
         40:95:cc:26:48:5d:50:f8:60:3e:b2:b0:85:eb:fa:97:09:b3:
         cc:f6:62:98:19:46:d6:e2:f5:64:2d:2f:59:37:0a:51:2c:ab:
         4b:6c:0e:b4:a2:d3:88:73:a8:f6:06:2e:1d:6b:80:8a:ce:8d:
         b6:3c:d0:f6:c6:5f:18:b9:ec:01:8d:f6:ef:63:81:04:98:de:
         d1:9b:40:c0:09:ec:04:ec:74:ae:f9:71:d1:c5:b5:24:d6:e7:
         f5:93:68:24:38:8f:6b:37:da:da:41:3f:1e:db:92:7d:29:27:
         f2:51:ea:35:18:b8:b8:38:e1:ee:bf:a4:dd:d0:62:b0:ec:3c:
         79:da:ad:eb:dd:61:b1:fe:b7:1a:73:81:18:e6:34:3d:d0:69:
         d9:c4:01:f0:f3:15:d2:56:e9:2c:b1:48:05:4c:26:0b:0e:60:
         b4:9b:cb:3f:5b:6f:53:5a:1a:65:b2:05:2e:cf:d5:24:4b:37:
         82:14:92:1f:46:04:a4:35:77:ba:f7:8b:98:6e:3f:ed:1d:e7:
         8f:b4:96:3c:35:eb:e9:8e:2f:4a:7a:a6:22:8a:27:39:d1:2d:
         d4:ad:b1:3e:94:39:e0:15:32:a3:2f:f8:84:6e:2a:0e:12:b1:
         c2:66:49:e0:59:ef:9a:6d:12:9c:8b:49:99:6e:71:78:3e:0e:
         39:50:f2:c8:a8:dc:f2:cc:f4:bd:65:52:9a:3f:e2:2e:1a:6b:
         77:40:66:a2:5f:54:bf:8e:c0:6f:2d:2b:b2:78:70:f2:b3:0a:
         8a:cf:46:f9:70:f0:af:d6:c7:b9:92:d9:da:da:47:ff:a1:a4:
         ff:25:40:43:36:50:de:b3:f1:ea:0e:6a:32:c7:3b:37:9f:94:
         30:48:d1:6f:48:40:22:82
-----BEGIN CERTIFICATE-----
MIIGrTCCBJWgAwIBAgICJjAwDQYJKoZIhvcNAQELBQAwgawxCzAJBgNVBAYTAlVT
MQswCQYDVQQIEwJPSDERMA8GA1UEBxMIQ29sdW1idXMxEjAQBgNVBAoTCVZpa2lu
Z1ZQTjEdMBsGA1UECxMUTXlPcmdhbml6YXRpb25hbFVuaXQxFTATBgNVBAMTDFZp
a2luZ1ZQTiBDQTEQMA4GA1UEKRMHRWFzeVJTQTEhMB8GCSqGSIb3DQEJARYSbWVA
bXlob3N0Lm15ZG9tYWluMB4XDTE2MTIyODE5Mjk0OVoXDTI2MTIyNjE5Mjk0OVow
HzEdMBsGA1UEAxMUQ2xpZW50MTkxOUNlcnQzN2U2OTQwggIiMA0GCSqGSIb3DQEB
AQUAA4ICDwAwggIKAoICAQDrBKNi7k4R5HqbZLCfsqNlqLkbAFjFiFhauzfeDO+N
HfAAM4Ha2sSWvpOwzFYAio5AGZliwUwMsZDBpzrx5SLmHlOJsOZofkSHyMGKnvIx
K7o0lD0RKHO0iSXqRnhsHTgLvU6D6izkBgNmVbqto0aKscEBKWBbwYj2qljuvYDy
IU5u6DQJspgXiT3GS3hvVKSXOy/LeriXAjzQnez7wQ0QfB5+p+YK51qWrNnWzv7M
RvWNeEI7S64ZsxBShJFqgoCEMRl2leEEUYofJK7xk+w8PZF51DW4vffmPYDTu7kV
ij5GdrmulXW1W9EW+7W1MV2A2tUSodtJrUQhGDMdLZRwfJ1NvaMwjdnxu5E+ZHkG
l0Opyyd1bdpOVMut+Yjns7NctbfVFHA4Dan1lOwHZww1j/8Yz/GffOkSh9rM99RW
TKrqgOoGR/KFOTuxQSd2iT4XGS+m/aBKPF31FL0M0gLuA+S1e0rFGyDM5UFGo2Fy
ArXrKBjaFzBBeSfXlYCzxYs770DfmTNYejw9kcJt91XLi0niynbcSFLBaLDIrFmF
qXnwuBGFtPz/rv5ZhEFSf1XkqJhAAEUvL/Y1pFTDfgGK9oSGkis09j237nhzuz+K
FnXxzwwExIHx4kwvEALly/JT8XNNw+koRMh+xOfLjxdctT02L2ZDMaYHHb52kZrW
lQIDAQABo4IBYzCCAV8wCQYDVR0TBAIwADAtBglghkgBhvhCAQ0EIBYeRWFzeS1S
U0EgR2VuZXJhdGVkIENlcnRpZmljYXRlMB0GA1UdDgQWBBR7q6C7eHZufv5ROq2E
w32hvJg1UjCB4QYDVR0jBIHZMIHWgBQSzWAE0qCAnnDtxpm4eyzGUv0ZoaGBsqSB
rzCBrDELMAkGA1UEBhMCVVMxCzAJBgNVBAgTAk9IMREwDwYDVQQHEwhDb2x1bWJ1
czESMBAGA1UEChMJVmlraW5nVlBOMR0wGwYDVQQLExRNeU9yZ2FuaXphdGlvbmFs
VW5pdDEVMBMGA1UEAxMMVmlraW5nVlBOIENBMRAwDgYDVQQpEwdFYXN5UlNBMSEw
HwYJKoZIhvcNAQkBFhJtZUBteWhvc3QubXlkb21haW6CCQDPNYXugL8qPjATBgNV
HSUEDDAKBggrBgEFBQcDAjALBgNVHQ8EBAMCB4AwDQYJKoZIhvcNAQELBQADggIB
AMJE+psHvU1lBxpdZBe11OWbWqLR3Ut567q7zB172jMs2rWGl7uau2VzJ13M5JDM
rZ4zPnrAvvpR0icZy88vUk166zE52uuTVgTVNtmhUsxZFF04XTM2v1TpTEonYuYI
3fYXhrTJi1iYDPX2vaSKJcYp2qQjJbGdbW+atGiWVkrPEEVsZrh08Hw/OlZtMGXQ
7i+kfiZRonX/uUN5jo7K+Ym7O1gftzZEnn12E6loHWV9BYjyWECVzCZIXVD4YD6y
sIXr+pcJs8z2YpgZRtbi9WQtL1k3ClEsq0tsDrSi04hzqPYGLh1rgIrOjbY80PbG
Xxi57AGN9u9jgQSY3tGbQMAJ7ATsdK75cdHFtSTW5/WTaCQ4j2s32tpBPx7bkn0p
J/JR6jUYuLg44e6/pN3QYrDsPHnarevdYbH+txpzgRjmND3QadnEAfDzFdJW6Syx
SAVMJgsOYLSbyz9bb1NaGmWyBS7P1SRLN4IUkh9GBKQ1d7r3i5huP+0d54+0ljw1
6+mOL0p6piKKJznRLdStsT6UOeAVMqMv+IRuKg4SscJmSeBZ75ptEpyLSZlucXg+
DjlQ8sio3PLM9L1lUpo/4i4aa3dAZqJfVL+OwG8tK7J4cPKzCorPRvlw8K/Wx7mS
2draR/+hpP8lQEM2UN6z8eoOajLHOzeflDBI0W9IQCKC
-----END CERTIFICATE-----
