Certificate:
    Data:
        Version: 3 (0x2)
        Serial Number: 12585 (0x3129)
    Signature Algorithm: sha256WithRSAEncryption
        Issuer: C=US, ST=OH, L=Columbus, O=VikingVPN, OU=MyOrganizationalUnit, CN=VikingVPN CA/name=EasyRSA/emailAddress=me@myhost.mydomain
        Validity
            Not Before: Feb 19 23:00:18 2018 GMT
            Not After : Feb 17 23:00:18 2028 GMT
        Subject: CN=Client2708Cert72f04a
        Subject Public Key Info:
            Public Key Algorithm: rsaEncryption
                Public-Key: (4096 bit)
                Modulus:
                    00:c7:5b:34:4d:b0:b9:8f:2c:35:b2:17:16:71:48:
                    09:8c:06:6f:e0:e7:ee:a9:e7:af:30:ad:73:46:fc:
                    9e:4b:9d:57:c3:c3:e9:54:a6:78:6f:fa:ec:b1:c8:
                    30:a0:8b:7a:79:b0:f8:9e:ad:34:2f:f8:9e:c8:c1:
                    09:d1:f0:35:81:69:6e:c4:ff:09:aa:3d:f6:24:a0:
                    3e:0f:77:08:dd:ae:b5:e4:db:20:80:c7:ce:9a:27:
                    54:c7:c5:0a:d8:06:ff:08:ec:e5:5f:7a:3d:7c:c0:
                    d3:f2:d5:7e:70:f2:99:80:6f:f0:1f:4f:da:de:54:
                    15:75:65:c1:4a:d1:a9:cb:49:56:dc:8a:a8:87:4d:
                    8c:6a:df:c7:62:38:2f:69:98:dc:de:c2:94:1d:a7:
                    b6:88:0c:bd:42:81:60:56:cf:f0:c6:9d:44:32:04:
                    fa:07:7d:5e:08:7a:e7:2b:bb:06:fb:29:80:5c:b7:
                    92:27:5c:b9:b5:33:08:47:59:8e:d1:47:b0:0e:3f:
                    24:cd:b6:57:62:6d:d3:20:37:5d:b4:cf:a4:83:d0:
                    e8:2b:c1:28:b9:62:05:d7:c1:ae:07:35:84:fc:33:
                    ba:34:5e:09:f3:79:8d:9a:ed:ff:ed:f4:81:9e:92:
                    97:db:c0:15:33:5d:4f:c4:26:db:87:7c:af:54:d0:
                    91:78:e1:07:62:e1:68:ba:d8:47:79:ad:9b:d0:63:
                    f0:45:73:09:83:67:05:cc:3f:bb:04:0e:e6:34:de:
                    02:4b:22:cb:c3:db:0a:21:75:f0:1e:b3:70:75:bb:
                    12:a1:09:e8:61:57:bd:81:4d:2c:0a:96:54:0c:20:
                    a6:b2:cf:b1:0c:62:e3:24:05:f9:db:d8:95:22:8f:
                    46:a7:ad:4b:8f:2e:c2:03:4a:a1:ef:ce:ed:3f:f1:
                    a4:76:ff:e4:af:91:e2:2d:fc:d3:10:f9:9f:9d:bb:
                    8f:ed:02:89:fa:5d:90:15:5f:c4:dc:10:da:7c:4b:
                    96:77:12:78:ff:8d:77:41:b9:83:62:7f:56:d8:69:
                    a1:5f:c1:24:3d:26:14:96:dd:c0:b6:00:f4:dd:7c:
                    9f:d6:59:5a:e6:b3:78:c0:49:db:b8:4c:ab:64:e0:
                    a5:a2:2f:25:b9:25:21:74:cd:98:6d:7b:32:3d:17:
                    91:8d:42:c5:94:7e:76:0f:87:34:3f:fe:53:65:47:
                    28:78:26:f4:cf:5d:c2:3d:2a:c5:67:e2:94:6a:bf:
                    2d:09:f1:48:d9:94:ee:16:17:41:6a:58:b6:52:d6:
                    65:e7:93:88:12:99:50:25:f6:ab:49:5e:df:49:92:
                    7a:af:32:c8:f2:e9:6d:74:75:08:dd:e8:cd:9a:26:
                    38:2b:ff
                Exponent: 65537 (0x10001)
        X509v3 extensions:
            X509v3 Basic Constraints: 
                CA:FALSE
            Netscape Comment: 
                Easy-RSA Generated Certificate
            X509v3 Subject Key Identifier: 
                F3:C0:2B:73:4A:3D:11:6B:AE:8E:2E:5E:82:53:95:C4:57:2A:98:B9
            X509v3 Authority Key Identifier: 
                keyid:12:CD:60:04:D2:A0:80:9E:70:ED:C6:99:B8:7B:2C:C6:52:FD:19:A1
                DirName:/C=US/ST=OH/L=Columbus/O=VikingVPN/OU=MyOrganizationalUnit/CN=VikingVPN CA/name=EasyRSA/emailAddress=me@myhost.mydomain
                serial:CF:35:85:EE:80:BF:2A:3E

            X509v3 Extended Key Usage: 
                TLS Web Client Authentication
            X509v3 Key Usage: 
                Digital Signature
    Signature Algorithm: sha256WithRSAEncryption
         61:1d:dc:2f:e5:68:28:1b:32:0e:35:e8:e8:76:cf:60:87:d2:
         86:bb:44:07:7e:87:ed:d1:56:1b:fd:33:40:63:f9:08:19:44:
         d9:0a:06:0a:56:1e:0c:f5:d8:e0:0d:52:e5:c8:89:1e:2a:34:
         46:fc:1a:ff:d3:fd:2c:5f:0d:0f:6b:89:aa:4c:45:10:ea:f6:
         1c:b2:97:75:0d:98:71:06:73:17:1b:26:ce:64:bb:29:34:bf:
         72:9c:aa:9e:25:b1:bc:4e:e9:2d:22:7e:8c:fe:92:e0:90:d3:
         e4:5c:95:43:3a:13:c9:40:c2:49:9a:a8:af:c1:bd:4f:9c:34:
         bd:6e:c8:b8:fa:1a:3d:59:9a:af:73:95:ae:60:69:b1:4e:59:
         e3:bf:a8:bf:7b:c8:1c:a5:ac:42:c5:be:4b:c1:09:19:f2:92:
         77:33:c8:73:eb:3e:3b:9d:0a:71:79:40:b1:6d:6e:43:be:08:
         58:31:5f:71:b8:a2:8b:43:55:91:56:32:67:41:77:14:91:92:
         fc:37:c4:02:07:2a:0a:96:ac:5b:d4:48:c4:f8:4b:15:e4:4d:
         87:02:4c:b0:9f:ed:de:33:a3:c5:f8:1e:be:f4:77:d9:f3:e1:
         00:e4:20:f5:42:d8:5c:47:78:69:25:63:89:71:32:c8:bf:55:
         04:52:08:e7:5d:a9:67:e7:47:54:29:94:53:44:29:aa:9d:23:
         19:a2:43:a9:8c:a9:85:99:cb:5f:ff:e6:b0:70:3f:63:23:b4:
         ab:75:c8:6f:83:6e:da:b5:21:e3:3b:b5:b7:c5:2c:47:50:b2:
         5f:44:5b:dd:9b:54:c7:40:7f:63:fe:38:48:90:18:ee:be:44:
         83:11:79:4a:da:d5:93:24:3c:2a:5c:8a:37:c4:60:d5:0c:ca:
         b7:0c:8b:c5:4d:c6:1b:55:0a:8f:9b:30:16:26:12:a4:7c:77:
         2f:dc:cb:1d:8a:da:68:1d:89:db:5c:36:4f:a2:9a:84:35:44:
         c9:3c:4c:e7:34:50:16:90:d1:70:2d:0a:47:87:3d:e1:24:f1:
         27:4d:7b:0d:f2:c6:14:19:f7:8a:08:5a:e8:20:5c:a6:aa:4e:
         75:d9:23:03:f8:29:44:8c:ec:68:4f:fa:fa:86:5b:67:dd:73:
         83:5a:95:a7:7e:c7:d5:2f:31:91:3c:bb:20:a7:d4:9a:fd:eb:
         d8:d3:0c:54:a9:6d:f9:b7:14:7e:aa:60:91:be:e5:92:bd:61:
         c3:5b:27:23:af:79:a9:64:da:c2:58:c6:fe:f1:ef:37:cc:71:
         42:97:53:30:b0:85:10:9c:a0:34:58:4b:a2:27:7d:f7:09:70:
         3b:65:82:89:83:82:4b:5d
-----BEGIN CERTIFICATE-----
MIIGrTCCBJWgAwIBAgICMSkwDQYJKoZIhvcNAQELBQAwgawxCzAJBgNVBAYTAlVT
MQswCQYDVQQIEwJPSDERMA8GA1UEBxMIQ29sdW1idXMxEjAQBgNVBAoTCVZpa2lu
Z1ZQTjEdMBsGA1UECxMUTXlPcmdhbml6YXRpb25hbFVuaXQxFTATBgNVBAMTDFZp
a2luZ1ZQTiBDQTEQMA4GA1UEKRMHRWFzeVJTQTEhMB8GCSqGSIb3DQEJARYSbWVA
bXlob3N0Lm15ZG9tYWluMB4XDTE4MDIxOTIzMDAxOFoXDTI4MDIxNzIzMDAxOFow
HzEdMBsGA1UEAxMUQ2xpZW50MjcwOENlcnQ3MmYwNGEwggIiMA0GCSqGSIb3DQEB
AQUAA4ICDwAwggIKAoICAQDHWzRNsLmPLDWyFxZxSAmMBm/g5+6p568wrXNG/J5L
nVfDw+lUpnhv+uyxyDCgi3p5sPierTQv+J7IwQnR8DWBaW7E/wmqPfYkoD4Pdwjd
rrXk2yCAx86aJ1THxQrYBv8I7OVfej18wNPy1X5w8pmAb/AfT9reVBV1ZcFK0anL
SVbciqiHTYxq38diOC9pmNzewpQdp7aIDL1CgWBWz/DGnUQyBPoHfV4Ieucruwb7
KYBct5InXLm1MwhHWY7RR7AOPyTNtldibdMgN120z6SD0OgrwSi5YgXXwa4HNYT8
M7o0XgnzeY2a7f/t9IGekpfbwBUzXU/EJtuHfK9U0JF44Qdi4Wi62Ed5rZvQY/BF
cwmDZwXMP7sEDuY03gJLIsvD2wohdfAes3B1uxKhCehhV72BTSwKllQMIKayz7EM
YuMkBfnb2JUij0anrUuPLsIDSqHvzu0/8aR2/+SvkeIt/NMQ+Z+du4/tAon6XZAV
X8TcENp8S5Z3Enj/jXdBuYNif1bYaaFfwSQ9JhSW3cC2APTdfJ/WWVrms3jASdu4
TKtk4KWiLyW5JSF0zZhtezI9F5GNQsWUfnYPhzQ//lNlRyh4JvTPXcI9KsVn4pRq
vy0J8UjZlO4WF0FqWLZS1mXnk4gSmVAl9qtJXt9JknqvMsjy6W10dQjd6M2aJjgr
/wIDAQABo4IBYzCCAV8wCQYDVR0TBAIwADAtBglghkgBhvhCAQ0EIBYeRWFzeS1S
U0EgR2VuZXJhdGVkIENlcnRpZmljYXRlMB0GA1UdDgQWBBTzwCtzSj0Ra66OLl6C
U5XEVyqYuTCB4QYDVR0jBIHZMIHWgBQSzWAE0qCAnnDtxpm4eyzGUv0ZoaGBsqSB
rzCBrDELMAkGA1UEBhMCVVMxCzAJBgNVBAgTAk9IMREwDwYDVQQHEwhDb2x1bWJ1
czESMBAGA1UEChMJVmlraW5nVlBOMR0wGwYDVQQLExRNeU9yZ2FuaXphdGlvbmFs
VW5pdDEVMBMGA1UEAxMMVmlraW5nVlBOIENBMRAwDgYDVQQpEwdFYXN5UlNBMSEw
HwYJKoZIhvcNAQkBFhJtZUBteWhvc3QubXlkb21haW6CCQDPNYXugL8qPjATBgNV
HSUEDDAKBggrBgEFBQcDAjALBgNVHQ8EBAMCB4AwDQYJKoZIhvcNAQELBQADggIB
AGEd3C/laCgbMg416Oh2z2CH0oa7RAd+h+3RVhv9M0Bj+QgZRNkKBgpWHgz12OAN
UuXIiR4qNEb8Gv/T/SxfDQ9riapMRRDq9hyyl3UNmHEGcxcbJs5kuyk0v3Kcqp4l
sbxO6S0ifoz+kuCQ0+RclUM6E8lAwkmaqK/BvU+cNL1uyLj6Gj1Zmq9zla5gabFO
WeO/qL97yBylrELFvkvBCRnyknczyHPrPjudCnF5QLFtbkO+CFgxX3G4ootDVZFW
MmdBdxSRkvw3xAIHKgqWrFvUSMT4SxXkTYcCTLCf7d4zo8X4Hr70d9nz4QDkIPVC
2FxHeGklY4lxMsi/VQRSCOddqWfnR1QplFNEKaqdIxmiQ6mMqYWZy1//5rBwP2Mj
tKt1yG+Dbtq1IeM7tbfFLEdQsl9EW92bVMdAf2P+OEiQGO6+RIMReUra1ZMkPCpc
ijfEYNUMyrcMi8VNxhtVCo+bMBYmEqR8dy/cyx2K2mgdidtcNk+imoQ1RMk8TOc0
UBaQ0XAtCkeHPeEk8SdNew3yxhQZ94oIWuggXKaqTnXZIwP4KUSM7GhP+vqGW2fd
c4Nalad+x9UvMZE8uyCn1Jr969jTDFSpbfm3FH6qYJG+5ZK9YcNbJyOvealk2sJY
xv7x7zfMcUKXUzCwhRCcoDRYS6InffcJcDtlgomDgktd
-----END CERTIFICATE-----
