Certificate:
    Data:
        Version: 3 (0x2)
        Serial Number: 8785 (0x2251)
    Signature Algorithm: sha256WithRSAEncryption
        Issuer: C=US, ST=OH, L=Columbus, O=VikingVPN, OU=MyOrganizationalUnit, CN=VikingVPN CA/name=EasyRSA/emailAddress=me@myhost.mydomain
        Validity
            Not Before: Aug 15 14:11:11 2016 GMT
            Not After : Aug 13 14:11:11 2026 GMT
        Subject: CN=Client2225Cert627509
        Subject Public Key Info:
            Public Key Algorithm: rsaEncryption
                Public-Key: (4096 bit)
                Modulus:
                    00:db:d6:84:88:c7:f9:82:5a:0b:de:97:00:d2:b3:
                    03:7b:b2:c4:d8:e9:b0:c3:a6:53:7b:59:45:21:33:
                    7b:38:e2:92:43:38:fb:c4:b4:26:3c:cb:c9:e5:86:
                    a6:cb:01:52:2c:2d:83:4c:47:11:6e:e9:d4:99:8e:
                    e0:9b:a9:25:9b:77:c2:ca:8a:6d:0b:9d:11:ea:5f:
                    17:ac:f0:37:b2:69:0b:b1:98:7d:f3:21:18:ab:34:
                    18:2a:56:8c:ee:41:ee:ea:3e:b2:fb:c4:a3:4a:ff:
                    45:ff:8b:45:1d:5e:9c:7e:6f:d2:d2:84:bc:89:69:
                    1a:61:33:80:96:b1:2f:f6:7d:b8:2a:c2:b9:31:7f:
                    ff:89:d0:fb:7e:fe:77:2e:be:7e:a1:99:0a:13:7e:
                    58:9d:b8:29:d8:1d:92:d8:e2:a1:8f:0e:b0:ba:de:
                    c8:49:21:bd:9c:7d:4e:b5:4a:3f:ae:9d:6c:f6:23:
                    46:be:c1:69:58:95:14:a1:a8:2e:ca:66:c9:21:91:
                    96:38:dc:ec:9b:80:01:e3:7c:06:7a:3d:79:3c:a7:
                    ec:8d:ca:c1:7a:9f:19:11:86:3c:18:0f:17:99:57:
                    cb:cd:77:25:d2:72:c3:2a:88:fa:e6:5e:fc:16:1e:
                    17:5c:0a:a1:03:23:f0:76:ac:ac:be:63:0c:d3:34:
                    e3:5f:08:67:a2:47:8a:c3:3a:73:a8:36:f7:a8:43:
                    f8:dd:81:d3:44:e7:60:ff:ab:9d:1a:85:51:fe:73:
                    eb:6f:e2:ea:8f:16:7f:bd:ba:a9:5c:99:3d:21:f6:
                    18:6a:17:9e:25:89:54:8e:73:2e:f2:d0:4e:6a:1c:
                    73:21:b7:e8:67:57:cf:19:3c:e2:12:63:e3:22:21:
                    30:e2:ba:b6:3f:a7:6b:64:bf:57:33:71:dc:5b:13:
                    53:33:12:df:52:b2:2d:4f:fb:7f:f0:8c:4c:e9:ab:
                    85:8c:9a:ce:1c:ff:8f:ad:f9:5a:de:a3:5c:9c:b8:
                    2a:4a:82:f2:b5:8a:c2:8d:37:65:55:07:24:67:ff:
                    4a:15:87:12:51:38:0a:b1:e2:02:77:83:f3:42:5c:
                    af:c1:97:38:22:3e:71:9e:c4:5b:76:70:55:8d:6d:
                    ab:d8:84:f5:ed:a6:35:3d:1f:c5:5b:8e:45:3a:22:
                    26:eb:ac:19:8f:fa:53:28:2f:e1:ff:9e:19:20:03:
                    56:a2:0c:2f:49:9d:0e:0d:30:80:05:bb:5a:79:77:
                    0f:ba:6e:09:da:8d:01:8e:1f:9b:c3:87:8f:71:a3:
                    84:83:f6:12:f7:a7:21:42:6e:1d:08:0a:30:b0:09:
                    07:c3:0e:dd:a9:df:37:ca:e3:6d:dd:92:d1:70:25:
                    1e:e3:af
                Exponent: 65537 (0x10001)
        X509v3 extensions:
            X509v3 Basic Constraints: 
                CA:FALSE
            Netscape Comment: 
                Easy-RSA Generated Certificate
            X509v3 Subject Key Identifier: 
                39:33:74:70:5F:0F:EA:FA:28:36:86:CF:9B:7A:13:48:A4:BD:97:E3
            X509v3 Authority Key Identifier: 
                keyid:12:CD:60:04:D2:A0:80:9E:70:ED:C6:99:B8:7B:2C:C6:52:FD:19:A1
                DirName:/C=US/ST=OH/L=Columbus/O=VikingVPN/OU=MyOrganizationalUnit/CN=VikingVPN CA/name=EasyRSA/emailAddress=me@myhost.mydomain
                serial:CF:35:85:EE:80:BF:2A:3E

            X509v3 Extended Key Usage: 
                TLS Web Client Authentication
            X509v3 Key Usage: 
                Digital Signature
    Signature Algorithm: sha256WithRSAEncryption
         d5:93:58:25:52:cc:f5:1f:b7:a7:a3:d7:d0:19:a5:c9:50:39:
         63:3d:b6:92:c3:d2:d5:57:c2:61:64:80:e5:57:77:24:c4:0f:
         71:a1:3d:93:fb:ac:c4:9d:af:f0:54:b8:33:a1:d0:7d:4d:03:
         e3:4e:98:3f:ff:b8:97:67:9c:2e:79:1f:f4:ff:e0:7e:55:31:
         7a:f5:4e:4b:e3:5c:dc:a2:52:8b:86:c4:e5:b7:4d:69:85:e6:
         5f:f2:e2:b9:63:4d:7f:a3:2c:13:3f:8a:b9:2e:ac:54:f3:10:
         bb:f1:8f:30:f6:f2:84:84:05:ce:22:41:f1:0b:fe:91:e1:ed:
         0f:58:c0:06:f0:e5:7f:5c:f6:52:33:d2:25:ee:52:f7:4d:30:
         f7:c6:8c:d2:3e:cb:71:82:2b:7a:89:07:c5:c5:30:60:d3:0c:
         85:35:1e:25:bb:1a:b0:58:2b:3c:bc:1e:38:a6:35:47:48:06:
         45:ed:9f:96:80:2c:8d:69:16:51:3e:13:a2:44:d6:b5:62:e4:
         e2:ad:32:22:06:16:08:02:b6:f3:56:54:3b:d2:23:c1:94:db:
         9f:b4:53:37:bb:a0:76:76:ec:1d:5e:a1:92:dd:fb:68:93:ff:
         c0:04:35:87:65:30:1d:4f:7e:b4:a8:20:41:27:4e:fb:79:5b:
         2b:96:2b:5f:41:e4:ba:cb:68:da:e2:d3:92:4d:ef:7c:39:05:
         00:ba:0a:f0:81:57:62:8f:35:3f:58:8e:d6:f9:ed:13:94:89:
         ad:0b:9a:7a:05:0a:20:ea:dd:04:61:26:b6:0d:f2:2c:d3:12:
         3c:3f:ab:d0:06:ac:53:a3:f5:bb:a5:16:c5:31:4b:7f:e2:83:
         a5:bb:55:d5:13:6f:b0:fc:b4:5d:85:9f:de:e6:18:01:f2:21:
         8f:6e:1a:92:ae:52:48:0e:75:a4:f6:f2:36:1d:17:48:86:78:
         80:f8:52:ef:83:98:ec:a9:ea:95:ae:f5:1e:27:04:c9:d8:83:
         40:da:60:b4:ff:82:04:fe:7b:85:7a:4c:86:9f:48:8c:9e:66:
         5b:c2:80:6e:b3:64:ed:74:a7:eb:4c:42:fe:dc:44:40:9e:5f:
         c9:0a:fe:4c:b1:0c:d9:24:12:b3:a5:72:3e:b2:74:90:53:0a:
         60:a2:7e:0a:2d:b1:28:0a:6a:f0:ea:ab:8a:26:0d:c9:5a:cf:
         86:54:48:76:6a:5b:9d:86:cb:f7:06:33:da:6d:6f:07:d2:b3:
         40:b7:04:62:28:1c:e6:ab:32:3d:0b:0a:7c:1b:dc:ce:2b:5e:
         56:bc:20:bd:12:0e:2f:f2:f1:b2:97:0c:04:16:fa:d0:c5:18:
         24:17:f5:5f:d7:4e:6f:0f
-----BEGIN CERTIFICATE-----
MIIGrTCCBJWgAwIBAgICIlEwDQYJKoZIhvcNAQELBQAwgawxCzAJBgNVBAYTAlVT
MQswCQYDVQQIEwJPSDERMA8GA1UEBxMIQ29sdW1idXMxEjAQBgNVBAoTCVZpa2lu
Z1ZQTjEdMBsGA1UECxMUTXlPcmdhbml6YXRpb25hbFVuaXQxFTATBgNVBAMTDFZp
a2luZ1ZQTiBDQTEQMA4GA1UEKRMHRWFzeVJTQTEhMB8GCSqGSIb3DQEJARYSbWVA
bXlob3N0Lm15ZG9tYWluMB4XDTE2MDgxNTE0MTExMVoXDTI2MDgxMzE0MTExMVow
HzEdMBsGA1UEAxMUQ2xpZW50MjIyNUNlcnQ2Mjc1MDkwggIiMA0GCSqGSIb3DQEB
AQUAA4ICDwAwggIKAoICAQDb1oSIx/mCWgvelwDSswN7ssTY6bDDplN7WUUhM3s4
4pJDOPvEtCY8y8nlhqbLAVIsLYNMRxFu6dSZjuCbqSWbd8LKim0LnRHqXxes8Dey
aQuxmH3zIRirNBgqVozuQe7qPrL7xKNK/0X/i0UdXpx+b9LShLyJaRphM4CWsS/2
fbgqwrkxf/+J0Pt+/ncuvn6hmQoTfliduCnYHZLY4qGPDrC63shJIb2cfU61Sj+u
nWz2I0a+wWlYlRShqC7KZskhkZY43OybgAHjfAZ6PXk8p+yNysF6nxkRhjwYDxeZ
V8vNdyXScsMqiPrmXvwWHhdcCqEDI/B2rKy+YwzTNONfCGeiR4rDOnOoNveoQ/jd
gdNE52D/q50ahVH+c+tv4uqPFn+9uqlcmT0h9hhqF54liVSOcy7y0E5qHHMht+hn
V88ZPOISY+MiITDiurY/p2tkv1czcdxbE1MzEt9Ssi1P+3/wjEzpq4WMms4c/4+t
+Vreo1ycuCpKgvK1isKNN2VVByRn/0oVhxJROAqx4gJ3g/NCXK/BlzgiPnGexFt2
cFWNbavYhPXtpjU9H8VbjkU6IibrrBmP+lMoL+H/nhkgA1aiDC9JnQ4NMIAFu1p5
dw+6bgnajQGOH5vDh49xo4SD9hL3pyFCbh0ICjCwCQfDDt2p3zfK423dktFwJR7j
rwIDAQABo4IBYzCCAV8wCQYDVR0TBAIwADAtBglghkgBhvhCAQ0EIBYeRWFzeS1S
U0EgR2VuZXJhdGVkIENlcnRpZmljYXRlMB0GA1UdDgQWBBQ5M3RwXw/q+ig2hs+b
ehNIpL2X4zCB4QYDVR0jBIHZMIHWgBQSzWAE0qCAnnDtxpm4eyzGUv0ZoaGBsqSB
rzCBrDELMAkGA1UEBhMCVVMxCzAJBgNVBAgTAk9IMREwDwYDVQQHEwhDb2x1bWJ1
czESMBAGA1UEChMJVmlraW5nVlBOMR0wGwYDVQQLExRNeU9yZ2FuaXphdGlvbmFs
VW5pdDEVMBMGA1UEAxMMVmlraW5nVlBOIENBMRAwDgYDVQQpEwdFYXN5UlNBMSEw
HwYJKoZIhvcNAQkBFhJtZUBteWhvc3QubXlkb21haW6CCQDPNYXugL8qPjATBgNV
HSUEDDAKBggrBgEFBQcDAjALBgNVHQ8EBAMCB4AwDQYJKoZIhvcNAQELBQADggIB
ANWTWCVSzPUft6ej19AZpclQOWM9tpLD0tVXwmFkgOVXdyTED3GhPZP7rMSdr/BU
uDOh0H1NA+NOmD//uJdnnC55H/T/4H5VMXr1TkvjXNyiUouGxOW3TWmF5l/y4rlj
TX+jLBM/irkurFTzELvxjzD28oSEBc4iQfEL/pHh7Q9YwAbw5X9c9lIz0iXuUvdN
MPfGjNI+y3GCK3qJB8XFMGDTDIU1HiW7GrBYKzy8HjimNUdIBkXtn5aALI1pFlE+
E6JE1rVi5OKtMiIGFggCtvNWVDvSI8GU25+0Uze7oHZ27B1eoZLd+2iT/8AENYdl
MB1PfrSoIEEnTvt5WyuWK19B5LrLaNri05JN73w5BQC6CvCBV2KPNT9Yjtb57ROU
ia0LmnoFCiDq3QRhJrYN8izTEjw/q9AGrFOj9bulFsUxS3/ig6W7VdUTb7D8tF2F
n97mGAHyIY9uGpKuUkgOdaT28jYdF0iGeID4Uu+DmOyp6pWu9R4nBMnYg0DaYLT/
ggT+e4V6TIafSIyeZlvCgG6zZO10p+tMQv7cRECeX8kK/kyxDNkkErOlcj6ydJBT
CmCifgotsSgKavDqq4omDclaz4ZUSHZqW52Gy/cGM9ptbwfSs0C3BGIoHOarMj0L
Cnwb3M4rXla8IL0SDi/y8bKXDAQW+tDFGCQX9V/XTm8P
-----END CERTIFICATE-----
