Certificate:
    Data:
        Version: 3 (0x2)
        Serial Number: 5479 (0x1567)
    Signature Algorithm: md5WithRSAEncryption
        Issuer: C=US, ST=OH, L=Columbus, O=VikingVPN, OU=MyOrganizationalUnit, CN=VikingVPN CA/name=EasyRSA/emailAddress=me@myhost.mydomain
        Validity
            Not Before: Jun  3 23:25:05 2015 GMT
            Not After : May 31 23:25:05 2025 GMT
        Subject: CN=Client1703Cert9e45fc
        Subject Public Key Info:
            Public Key Algorithm: rsaEncryption
                Public-Key: (4096 bit)
                Modulus:
                    00:a0:a4:58:e0:27:5a:d6:6f:3a:82:8d:33:e0:d1:
                    de:b3:13:43:0b:35:c7:3b:64:4b:65:a2:a9:88:83:
                    05:8f:e4:11:36:85:53:8a:b1:ea:0f:22:cb:62:b7:
                    13:45:39:18:27:98:cb:a0:67:f9:bf:a5:74:10:55:
                    58:bc:3a:92:45:75:f0:56:95:28:07:76:ae:b3:49:
                    49:f9:8a:7a:1a:a9:48:75:58:f6:87:61:8d:d8:8b:
                    3b:78:e4:86:23:7b:bc:ed:13:71:9c:16:21:8b:54:
                    c2:04:00:22:47:e4:c8:12:f0:4d:b6:59:dc:3d:b8:
                    5f:fd:95:9e:43:ea:a3:b6:c0:7e:b2:9c:ff:a7:6e:
                    40:2d:cf:d8:d4:e4:5a:34:1b:38:9b:e1:5b:66:66:
                    9c:4f:40:37:2c:00:e3:1e:56:d7:41:57:77:bf:aa:
                    9f:b0:27:89:c5:1a:24:e0:20:48:f4:da:56:6c:93:
                    dd:4c:35:66:75:24:29:d5:41:ab:9c:8c:a1:83:55:
                    e6:7d:e9:69:5b:87:be:ff:3a:80:5d:77:4d:ec:17:
                    a3:48:0e:2e:d0:83:ad:2b:05:58:7e:96:e6:63:c3:
                    81:88:b7:03:28:8d:79:a9:ec:aa:4d:31:68:77:b9:
                    d0:72:42:55:9a:71:d9:ac:9b:0c:13:2f:45:45:bb:
                    22:e0:21:87:45:5b:84:b3:ef:4d:32:da:cd:55:0a:
                    37:ba:41:26:b6:b7:d1:2e:85:a6:3a:19:38:97:87:
                    bb:fd:5d:cc:09:33:19:ce:3f:4c:a0:a1:d1:e8:95:
                    99:a1:e6:8c:80:af:e6:64:0e:85:98:d7:3c:6d:82:
                    97:84:f0:4c:75:18:9d:a2:10:e5:cb:e8:12:03:5d:
                    25:da:2b:07:65:46:88:f1:cc:c7:79:b5:27:87:ee:
                    08:5a:26:ec:3e:26:68:b8:62:2f:ca:bd:d5:48:d6:
                    35:91:b4:5b:dc:31:9e:0b:53:10:5b:25:74:df:8f:
                    b8:50:61:a0:dd:0c:0a:f6:6a:8a:2f:3a:03:43:62:
                    26:74:4f:68:79:ad:f4:06:68:aa:bd:20:e2:9e:9c:
                    25:ca:85:50:08:05:93:33:32:50:02:82:e7:da:7d:
                    86:d6:94:c2:4e:7b:ba:2f:da:5e:8b:84:0d:27:46:
                    e0:78:84:d4:c5:6e:11:ba:95:e8:01:20:c8:b3:35:
                    fa:31:61:a4:a6:34:c1:e5:46:2d:68:94:c6:8a:12:
                    4a:0f:9f:48:8a:83:cb:86:17:d0:9f:ed:b8:90:9e:
                    19:88:cf:12:e8:55:58:33:73:63:82:f2:9d:d5:5c:
                    e5:0b:3d:a7:9f:7d:bf:61:0e:36:c0:1b:a8:df:fb:
                    f3:cf:1d
                Exponent: 65537 (0x10001)
        X509v3 extensions:
            X509v3 Basic Constraints: 
                CA:FALSE
            Netscape Comment: 
                Easy-RSA Generated Certificate
            X509v3 Subject Key Identifier: 
                37:D9:46:40:89:B4:3B:04:BA:E0:58:B7:C8:82:23:E6:5F:10:B3:39
            X509v3 Authority Key Identifier: 
                keyid:12:CD:60:04:D2:A0:80:9E:70:ED:C6:99:B8:7B:2C:C6:52:FD:19:A1
                DirName:/C=US/ST=OH/L=Columbus/O=VikingVPN/OU=MyOrganizationalUnit/CN=VikingVPN CA/name=EasyRSA/emailAddress=me@myhost.mydomain
                serial:CF:35:85:EE:80:BF:2A:3E

            X509v3 Extended Key Usage: 
                TLS Web Client Authentication
            X509v3 Key Usage: 
                Digital Signature
    Signature Algorithm: md5WithRSAEncryption
         50:af:f0:e0:ba:54:ae:f1:fc:8b:aa:cf:71:51:fb:5a:ea:7e:
         cf:22:61:07:c7:b0:6d:72:2b:20:cb:20:a9:48:10:e6:01:c4:
         5a:ca:b4:4d:1d:68:1e:c0:66:b0:97:22:af:a8:8e:8b:b6:77:
         5a:ce:f7:c4:bc:96:22:cd:8f:bf:c3:30:78:bb:fa:ac:9b:4e:
         d9:71:7a:62:fd:62:e1:cc:51:c3:f6:63:56:4f:67:d3:22:c2:
         20:f5:64:9d:45:5c:66:30:79:6d:82:96:70:38:88:d0:43:d3:
         71:dd:04:07:91:3b:ea:19:5d:6a:44:c7:14:ea:87:aa:e8:b7:
         ce:9a:11:09:19:50:f5:a1:d9:d7:97:f4:3f:86:6f:3d:94:bf:
         d4:a6:ec:27:ce:9d:83:34:59:a1:6e:05:da:47:1d:f2:53:91:
         3f:90:a3:40:62:c1:dc:07:6d:a3:49:aa:60:71:1c:c8:25:06:
         c7:86:61:c4:2c:1a:a6:01:74:13:97:df:e0:51:e3:05:20:8a:
         31:0b:7e:b7:c4:ba:fb:fd:74:19:96:a5:e8:93:bf:18:96:63:
         4c:9f:10:a9:d2:ee:4e:f7:2a:c9:3c:18:0e:02:fe:06:e3:6a:
         5d:55:01:3d:5e:c4:6e:e4:8c:56:39:c0:a3:50:fe:42:32:b0:
         2f:ef:97:9c:c7:79:1f:bb:c5:09:55:8f:aa:1f:4c:7c:bc:11:
         2d:de:87:17:e3:f4:6f:6d:5c:f9:99:4b:b9:8b:10:cd:30:42:
         3b:0c:30:53:cb:e4:57:08:96:74:e0:44:2d:72:60:c8:5d:b9:
         53:6d:bf:38:35:ee:5d:52:d6:3c:5e:ff:c4:85:5b:40:f4:18:
         17:63:97:ff:a8:ec:d8:ba:e6:63:f9:0e:72:76:fa:2c:e7:4d:
         fb:d1:af:09:85:1f:4a:85:af:05:cb:f3:74:88:35:ce:02:40:
         ad:af:a1:b7:fd:bb:34:e8:88:3d:2d:f9:53:bb:5f:d4:ce:1f:
         d0:d0:ca:de:6e:5b:3f:7b:df:a5:d4:ed:25:fe:7d:42:17:d1:
         35:31:f0:e3:43:83:fd:2b:b3:13:e6:55:21:e4:88:a2:3c:01:
         9f:fe:d0:44:88:b9:09:55:23:bb:2f:e5:6d:79:25:33:8b:1a:
         f4:ae:e3:70:d7:3f:26:1c:a8:49:80:27:e7:d5:49:2a:a1:7c:
         29:e7:af:5c:f0:7b:47:70:78:4c:14:ed:3b:01:8b:bf:ec:7a:
         4d:d8:c6:2e:12:fa:26:a5:05:e2:e5:f9:51:4e:16:7e:3e:f0:
         44:6a:29:8b:e8:0a:58:3b:8b:b4:b8:52:0e:ea:9b:d6:d4:d0:
         26:3a:96:dd:bf:de:bc:bb
-----BEGIN CERTIFICATE-----
MIIGrTCCBJWgAwIBAgICFWcwDQYJKoZIhvcNAQEEBQAwgawxCzAJBgNVBAYTAlVT
MQswCQYDVQQIEwJPSDERMA8GA1UEBxMIQ29sdW1idXMxEjAQBgNVBAoTCVZpa2lu
Z1ZQTjEdMBsGA1UECxMUTXlPcmdhbml6YXRpb25hbFVuaXQxFTATBgNVBAMTDFZp
a2luZ1ZQTiBDQTEQMA4GA1UEKRMHRWFzeVJTQTEhMB8GCSqGSIb3DQEJARYSbWVA
bXlob3N0Lm15ZG9tYWluMB4XDTE1MDYwMzIzMjUwNVoXDTI1MDUzMTIzMjUwNVow
HzEdMBsGA1UEAxMUQ2xpZW50MTcwM0NlcnQ5ZTQ1ZmMwggIiMA0GCSqGSIb3DQEB
AQUAA4ICDwAwggIKAoICAQCgpFjgJ1rWbzqCjTPg0d6zE0MLNcc7ZEtloqmIgwWP
5BE2hVOKseoPIstitxNFORgnmMugZ/m/pXQQVVi8OpJFdfBWlSgHdq6zSUn5inoa
qUh1WPaHYY3Yizt45IYje7ztE3GcFiGLVMIEACJH5MgS8E22Wdw9uF/9lZ5D6qO2
wH6ynP+nbkAtz9jU5Fo0Gzib4VtmZpxPQDcsAOMeVtdBV3e/qp+wJ4nFGiTgIEj0
2lZsk91MNWZ1JCnVQaucjKGDVeZ96Wlbh77/OoBdd03sF6NIDi7Qg60rBVh+luZj
w4GItwMojXmp7KpNMWh3udByQlWacdmsmwwTL0VFuyLgIYdFW4Sz700y2s1VCje6
QSa2t9EuhaY6GTiXh7v9XcwJMxnOP0ygodHolZmh5oyAr+ZkDoWY1zxtgpeE8Ex1
GJ2iEOXL6BIDXSXaKwdlRojxzMd5tSeH7ghaJuw+Jmi4Yi/KvdVI1jWRtFvcMZ4L
UxBbJXTfj7hQYaDdDAr2aoovOgNDYiZ0T2h5rfQGaKq9IOKenCXKhVAIBZMzMlAC
gufafYbWlMJOe7ov2l6LhA0nRuB4hNTFbhG6legBIMizNfoxYaSmNMHlRi1olMaK
EkoPn0iKg8uGF9Cf7biQnhmIzxLoVVgzc2OC8p3VXOULPaeffb9hDjbAG6jf+/PP
HQIDAQABo4IBYzCCAV8wCQYDVR0TBAIwADAtBglghkgBhvhCAQ0EIBYeRWFzeS1S
U0EgR2VuZXJhdGVkIENlcnRpZmljYXRlMB0GA1UdDgQWBBQ32UZAibQ7BLrgWLfI
giPmXxCzOTCB4QYDVR0jBIHZMIHWgBQSzWAE0qCAnnDtxpm4eyzGUv0ZoaGBsqSB
rzCBrDELMAkGA1UEBhMCVVMxCzAJBgNVBAgTAk9IMREwDwYDVQQHEwhDb2x1bWJ1
czESMBAGA1UEChMJVmlraW5nVlBOMR0wGwYDVQQLExRNeU9yZ2FuaXphdGlvbmFs
VW5pdDEVMBMGA1UEAxMMVmlraW5nVlBOIENBMRAwDgYDVQQpEwdFYXN5UlNBMSEw
HwYJKoZIhvcNAQkBFhJtZUBteWhvc3QubXlkb21haW6CCQDPNYXugL8qPjATBgNV
HSUEDDAKBggrBgEFBQcDAjALBgNVHQ8EBAMCB4AwDQYJKoZIhvcNAQEEBQADggIB
AFCv8OC6VK7x/Iuqz3FR+1rqfs8iYQfHsG1yKyDLIKlIEOYBxFrKtE0daB7AZrCX
Iq+ojou2d1rO98S8liLNj7/DMHi7+qybTtlxemL9YuHMUcP2Y1ZPZ9MiwiD1ZJ1F
XGYweW2ClnA4iNBD03HdBAeRO+oZXWpExxTqh6rot86aEQkZUPWh2deX9D+Gbz2U
v9Sm7CfOnYM0WaFuBdpHHfJTkT+Qo0BiwdwHbaNJqmBxHMglBseGYcQsGqYBdBOX
3+BR4wUgijELfrfEuvv9dBmWpeiTvxiWY0yfEKnS7k73Ksk8GA4C/gbjal1VAT1e
xG7kjFY5wKNQ/kIysC/vl5zHeR+7xQlVj6ofTHy8ES3ehxfj9G9tXPmZS7mLEM0w
QjsMMFPL5FcIlnTgRC1yYMhduVNtvzg17l1S1jxe/8SFW0D0GBdjl/+o7Ni65mP5
DnJ2+iznTfvRrwmFH0qFrwXL83SINc4CQK2vobf9uzToiD0t+VO7X9TOH9DQyt5u
Wz9736XU7SX+fUIX0TUx8ONDg/0rsxPmVSHkiKI8AZ/+0ESIuQlVI7sv5W15JTOL
GvSu43DXPyYcqEmAJ+fVSSqhfCnnr1zwe0dweEwU7TsBi7/sek3Yxi4S+ialBeLl
+VFOFn4+8ERqKYvoClg7i7S4Ug7qm9bU0CY6lt2/3ry7
-----END CERTIFICATE-----
