Certificate:
    Data:
        Version: 3 (0x2)
        Serial Number: 274 (0x112)
    Signature Algorithm: md5WithRSAEncryption
        Issuer: C=US, ST=OH, L=Columbus, O=VikingVPN, OU=MyOrganizationalUnit, CN=VikingVPN CA/name=EasyRSA/emailAddress=me@myhost.mydomain
        Validity
            Not Before: Oct  8 02:04:34 2013 GMT
            Not After : Oct  6 02:04:34 2023 GMT
        Subject: CN=Client133Cert48f452
        Subject Public Key Info:
            Public Key Algorithm: rsaEncryption
                Public-Key: (4096 bit)
                Modulus:
                    00:b3:09:3a:e1:bb:f2:7a:03:e3:b0:43:ff:1b:5d:
                    5f:10:7b:50:c1:21:25:4d:ed:9c:9a:fc:2d:d3:03:
                    54:08:47:73:10:2b:d7:49:ab:b7:5c:ce:d2:1a:dd:
                    01:77:35:da:d4:3c:da:57:01:8f:5f:29:13:46:b8:
                    0c:d3:4e:26:cd:33:a8:63:59:f3:9c:5a:91:b0:62:
                    b9:54:c0:01:7f:65:c9:9c:56:12:3f:6c:d8:ab:fd:
                    f7:2b:fc:93:39:4b:6f:18:0a:1d:0d:53:29:a2:e2:
                    23:5b:c2:c3:37:d5:c3:1b:5c:47:02:6e:b3:2f:ce:
                    7b:6c:b8:ae:c7:2f:24:1a:9a:3b:78:10:00:69:8e:
                    c8:23:63:c2:a3:9b:0c:9f:c8:ad:13:c4:b8:e8:b2:
                    34:ee:ac:37:1c:1b:56:f7:19:de:02:49:f7:4f:23:
                    bf:03:28:42:aa:a2:7b:06:24:3c:f1:06:a4:fc:b1:
                    4c:0e:81:d8:67:ae:c4:f7:77:92:c4:a7:4a:c9:ed:
                    63:92:73:8f:6c:57:0f:2e:18:27:8f:2e:a1:7b:15:
                    d8:6d:55:6a:11:93:7b:f3:b9:27:9b:40:21:f3:53:
                    12:c7:3e:bb:fe:f7:40:77:cb:d1:b2:15:6f:0a:10:
                    e6:5a:46:fe:5a:ac:74:49:0d:08:7b:39:c6:66:ec:
                    96:a1:20:04:f9:fb:d5:79:de:69:09:da:42:fc:e6:
                    38:6a:79:a0:cb:84:32:cb:7e:fd:4a:ef:ea:a8:f9:
                    a1:16:c7:95:ba:ba:9a:24:58:b8:34:30:e2:38:ee:
                    2c:9d:9e:cb:b4:cf:91:28:c9:1e:f6:28:c1:4d:57:
                    d9:f6:e4:ba:b3:d3:87:70:b8:67:d7:ff:0a:ef:e3:
                    88:15:90:f8:6b:22:f5:7e:9b:79:51:0f:f6:a8:9f:
                    33:26:b6:d1:a5:68:28:e1:4c:a4:89:20:53:2c:49:
                    03:e2:30:fd:88:2e:f8:a6:85:0d:ae:e9:d0:a0:18:
                    75:88:97:bd:2f:8b:41:2a:06:96:54:ad:22:1f:d8:
                    2e:86:4d:79:94:18:8b:62:fe:0b:87:3c:68:5b:5a:
                    63:31:4a:27:6f:dd:d3:82:e6:34:88:64:e7:cf:09:
                    a6:25:73:03:67:4c:2b:86:16:19:00:12:36:7d:21:
                    97:85:55:5e:25:22:c9:d9:a1:e9:f2:92:3c:cb:3d:
                    39:7d:6b:6c:d9:79:13:bd:32:40:87:73:c2:88:1d:
                    7e:b2:f4:86:08:94:2f:ba:63:d7:28:e0:20:39:3c:
                    c4:81:fd:1f:eb:54:cb:67:2e:6a:f4:54:7a:e5:70:
                    09:cc:0e:90:17:7f:4c:f1:6a:a4:ee:1c:95:be:63:
                    a6:22:55
                Exponent: 65537 (0x10001)
        X509v3 extensions:
            X509v3 Basic Constraints: 
                CA:FALSE
            Netscape Comment: 
                Easy-RSA Generated Certificate
            X509v3 Subject Key Identifier: 
                C3:96:10:5A:1F:22:BD:51:12:E5:13:34:03:6A:B8:CC:FB:AD:FE:AD
            X509v3 Authority Key Identifier: 
                keyid:12:CD:60:04:D2:A0:80:9E:70:ED:C6:99:B8:7B:2C:C6:52:FD:19:A1
                DirName:/C=US/ST=OH/L=Columbus/O=VikingVPN/OU=MyOrganizationalUnit/CN=VikingVPN CA/name=EasyRSA/emailAddress=me@myhost.mydomain
                serial:CF:35:85:EE:80:BF:2A:3E

            X509v3 Extended Key Usage: 
                TLS Web Client Authentication
            X509v3 Key Usage: 
                Digital Signature
    Signature Algorithm: md5WithRSAEncryption
         ca:a5:e0:7a:04:7b:86:40:a0:bf:68:82:e5:6c:41:e4:78:98:
         46:20:05:f8:c2:12:c0:e8:42:1c:31:2d:4e:19:d1:fe:a1:b1:
         fb:81:a9:cb:04:49:09:91:94:44:33:1d:a7:76:d1:21:d7:9e:
         d1:9f:a2:c8:23:1c:a0:ef:ca:72:cf:a0:05:a5:72:19:47:cc:
         19:79:f2:30:35:e1:08:84:27:8f:e3:d3:a2:a6:46:e7:7f:f2:
         43:8d:de:76:d7:78:f5:2b:b8:7a:9e:07:ff:82:ee:5b:d6:62:
         2b:da:71:c3:fd:b7:d9:58:fc:f2:39:38:3c:ca:74:ce:92:c0:
         40:ec:fe:d0:d4:20:2d:41:54:18:21:8f:de:4a:43:35:77:c0:
         28:dd:82:89:24:ba:9e:40:44:2a:6d:3e:17:05:4b:d3:e6:79:
         b5:3b:0a:e3:2d:79:ef:5c:97:c9:e7:f5:24:2d:6a:0a:21:00:
         b7:51:5a:4c:3e:3a:35:33:73:a5:67:b8:7b:50:d4:bf:e6:d0:
         73:7e:75:1b:cc:d5:9e:42:76:7d:c8:ed:95:a4:f5:7b:a5:b2:
         26:3f:52:8a:b3:38:0e:d2:49:91:36:31:ef:cc:b8:c1:57:e2:
         fe:7e:20:bf:fc:a2:83:a8:3e:a5:53:51:62:b6:07:a7:5d:74:
         47:f8:1c:78:ac:10:5f:22:2f:84:7b:cb:e4:72:6f:01:2e:f0:
         ff:be:3b:9e:34:27:fe:24:9a:aa:00:b6:f5:e0:a2:26:f7:5b:
         dd:30:0b:b4:ef:f5:c7:74:6e:8e:58:83:36:66:6f:53:26:1c:
         a4:c3:30:68:7d:01:a9:79:5e:2d:2e:ad:b0:44:22:7a:3a:46:
         ed:9a:21:7c:1a:48:ad:e1:67:06:19:0e:75:5d:ae:80:72:50:
         6b:cf:29:c8:88:e6:92:69:d5:7f:e9:5c:48:df:05:dc:89:12:
         e0:a7:8b:a9:70:c7:05:04:78:cb:6a:2a:eb:b1:7c:2d:39:22:
         a2:2c:7d:f3:80:1e:80:97:40:2d:4f:1f:11:ae:6a:6b:66:a8:
         2b:6c:cd:c0:8a:fd:2b:a7:2c:c1:75:cc:36:2e:51:c6:81:c5:
         7c:6d:e6:67:8d:58:97:c6:0f:8c:eb:36:ac:de:4d:6f:cd:af:
         b2:55:a3:05:78:bc:71:8c:90:e0:8a:83:86:21:bb:f5:ae:f1:
         4a:64:1d:b4:7a:0b:8e:fc:27:71:a5:8f:b1:8c:37:92:d4:6a:
         7f:27:2d:24:e1:0c:29:8e:5b:e6:3f:32:2b:c4:a6:5e:36:f1:
         89:d6:59:3c:61:17:4e:98:62:e4:21:c0:2b:f0:b2:4f:9c:3e:
         13:6e:45:21:1b:2f:e8:9d
-----BEGIN CERTIFICATE-----
MIIGrDCCBJSgAwIBAgICARIwDQYJKoZIhvcNAQEEBQAwgawxCzAJBgNVBAYTAlVT
MQswCQYDVQQIEwJPSDERMA8GA1UEBxMIQ29sdW1idXMxEjAQBgNVBAoTCVZpa2lu
Z1ZQTjEdMBsGA1UECxMUTXlPcmdhbml6YXRpb25hbFVuaXQxFTATBgNVBAMTDFZp
a2luZ1ZQTiBDQTEQMA4GA1UEKRMHRWFzeVJTQTEhMB8GCSqGSIb3DQEJARYSbWVA
bXlob3N0Lm15ZG9tYWluMB4XDTEzMTAwODAyMDQzNFoXDTIzMTAwNjAyMDQzNFow
HjEcMBoGA1UEAxMTQ2xpZW50MTMzQ2VydDQ4ZjQ1MjCCAiIwDQYJKoZIhvcNAQEB
BQADggIPADCCAgoCggIBALMJOuG78noD47BD/xtdXxB7UMEhJU3tnJr8LdMDVAhH
cxAr10mrt1zO0hrdAXc12tQ82lcBj18pE0a4DNNOJs0zqGNZ85xakbBiuVTAAX9l
yZxWEj9s2Kv99yv8kzlLbxgKHQ1TKaLiI1vCwzfVwxtcRwJusy/Oe2y4rscvJBqa
O3gQAGmOyCNjwqObDJ/IrRPEuOiyNO6sNxwbVvcZ3gJJ908jvwMoQqqiewYkPPEG
pPyxTA6B2GeuxPd3ksSnSsntY5Jzj2xXDy4YJ48uoXsV2G1VahGTe/O5J5tAIfNT
Esc+u/73QHfL0bIVbwoQ5lpG/lqsdEkNCHs5xmbslqEgBPn71XneaQnaQvzmOGp5
oMuEMst+/Urv6qj5oRbHlbq6miRYuDQw4jjuLJ2ey7TPkSjJHvYowU1X2fbkurPT
h3C4Z9f/Cu/jiBWQ+Gsi9X6beVEP9qifMya20aVoKOFMpIkgUyxJA+Iw/Ygu+KaF
Da7p0KAYdYiXvS+LQSoGllStIh/YLoZNeZQYi2L+C4c8aFtaYzFKJ2/d04LmNIhk
588JpiVzA2dMK4YWGQASNn0hl4VVXiUiydmh6fKSPMs9OX1rbNl5E70yQIdzwogd
frL0hgiUL7pj1yjgIDk8xIH9H+tUy2cuavRUeuVwCcwOkBd/TPFqpO4clb5jpiJV
AgMBAAGjggFjMIIBXzAJBgNVHRMEAjAAMC0GCWCGSAGG+EIBDQQgFh5FYXN5LVJT
QSBHZW5lcmF0ZWQgQ2VydGlmaWNhdGUwHQYDVR0OBBYEFMOWEFofIr1REuUTNANq
uMz7rf6tMIHhBgNVHSMEgdkwgdaAFBLNYATSoICecO3Gmbh7LMZS/RmhoYGypIGv
MIGsMQswCQYDVQQGEwJVUzELMAkGA1UECBMCT0gxETAPBgNVBAcTCENvbHVtYnVz
MRIwEAYDVQQKEwlWaWtpbmdWUE4xHTAbBgNVBAsTFE15T3JnYW5pemF0aW9uYWxV
bml0MRUwEwYDVQQDEwxWaWtpbmdWUE4gQ0ExEDAOBgNVBCkTB0Vhc3lSU0ExITAf
BgkqhkiG9w0BCQEWEm1lQG15aG9zdC5teWRvbWFpboIJAM81he6Avyo+MBMGA1Ud
JQQMMAoGCCsGAQUFBwMCMAsGA1UdDwQEAwIHgDANBgkqhkiG9w0BAQQFAAOCAgEA
yqXgegR7hkCgv2iC5WxB5HiYRiAF+MISwOhCHDEtThnR/qGx+4GpywRJCZGURDMd
p3bRIdee0Z+iyCMcoO/Kcs+gBaVyGUfMGXnyMDXhCIQnj+PToqZG53/yQ43edtd4
9Su4ep4H/4LuW9ZiK9pxw/232Vj88jk4PMp0zpLAQOz+0NQgLUFUGCGP3kpDNXfA
KN2CiSS6nkBEKm0+FwVL0+Z5tTsK4y1571yXyef1JC1qCiEAt1FaTD46NTNzpWe4
e1DUv+bQc351G8zVnkJ2fcjtlaT1e6WyJj9SirM4DtJJkTYx78y4wVfi/n4gv/yi
g6g+pVNRYrYHp110R/gceKwQXyIvhHvL5HJvAS7w/747njQn/iSaqgC29eCiJvdb
3TALtO/1x3RujliDNmZvUyYcpMMwaH0BqXleLS6tsEQiejpG7ZohfBpIreFnBhkO
dV2ugHJQa88pyIjmkmnVf+lcSN8F3IkS4KeLqXDHBQR4y2oq67F8LTkioix984Ae
gJdALU8fEa5qa2aoK2zNwIr9K6cswXXMNi5RxoHFfG3mZ41Yl8YPjOs2rN5Nb82v
slWjBXi8cYyQ4IqDhiG79a7xSmQdtHoLjvwncaWPsYw3ktRqfyctJOEMKY5b5j8y
K8SmXjbxidZZPGEXTphi5CHAK/CyT5w+E25FIRsv6J0=
-----END CERTIFICATE-----
