Certificate:
    Data:
        Version: 3 (0x2)
        Serial Number: 13045 (0x32f5)
    Signature Algorithm: sha256WithRSAEncryption
        Issuer: C=US, ST=OH, L=Columbus, O=VikingVPN, OU=MyOrganizationalUnit, CN=VikingVPN CA/name=EasyRSA/emailAddress=me@myhost.mydomain
        Validity
            Not Before: Apr 28 02:31:27 2018 GMT
            Not After : Apr 25 02:31:27 2028 GMT
        Subject: CN=Client2726Cert1a2f06
        Subject Public Key Info:
            Public Key Algorithm: rsaEncryption
                Public-Key: (4096 bit)
                Modulus:
                    00:b8:71:08:59:ef:c3:bc:b1:97:f2:5b:ad:d7:0c:
                    d7:df:0d:aa:a0:df:92:80:ed:78:c5:61:78:ab:c1:
                    0d:25:7d:d0:32:4d:15:e7:3c:88:21:e7:0d:8d:d7:
                    fa:a3:af:40:dc:7d:aa:eb:34:20:63:64:70:b1:e6:
                    60:1a:30:25:14:f2:ca:19:ad:16:c0:51:1d:e7:f6:
                    0f:d3:8b:0b:71:db:c0:f2:2e:41:e0:82:93:bf:b0:
                    86:13:11:24:65:3d:d5:a5:6c:f2:a9:39:12:22:22:
                    e1:fa:a6:1b:0f:8c:18:c6:73:c0:e9:5b:54:45:e9:
                    24:fd:55:e5:8b:0d:a2:5a:c7:e5:85:e9:8b:0b:2d:
                    4e:f2:1c:f8:d0:29:c5:0c:b8:47:c3:64:05:1e:a8:
                    54:93:34:41:bf:7e:2e:10:a4:33:cb:15:15:2e:26:
                    75:ae:a8:aa:3b:d9:59:f1:22:0c:b8:82:81:95:aa:
                    cd:03:20:42:c8:21:7f:3f:a7:1a:ee:dd:89:8e:74:
                    05:e2:60:49:05:48:0d:4b:34:1c:04:de:21:4b:05:
                    33:08:13:d8:a1:91:16:85:ce:a1:6f:89:bf:6b:cf:
                    8c:3f:81:6a:39:d8:d5:92:e7:96:bd:af:cd:06:04:
                    7b:4a:e1:3e:7a:a7:68:eb:cf:03:0a:20:ae:12:6a:
                    df:39:aa:50:8f:6d:da:bd:c3:a0:2c:18:dc:eb:95:
                    37:42:fb:01:05:85:82:16:62:45:07:9e:de:7e:7f:
                    86:13:46:aa:aa:a6:b9:40:8d:a9:02:c1:37:76:4e:
                    3f:0c:57:44:4c:6c:be:63:42:ca:84:9a:1b:ec:56:
                    37:3e:48:a5:34:f2:1d:ee:8f:d2:db:ed:ee:3e:f1:
                    b6:da:a1:83:1a:64:fb:ef:bd:76:a6:8d:d2:fe:cc:
                    28:62:0c:e9:60:39:d6:15:9a:16:b3:3d:d8:0c:d6:
                    2c:dc:43:20:fc:30:9f:85:b2:ae:a6:7f:5f:1b:fe:
                    30:4a:e9:e4:89:74:47:69:8c:12:5b:49:97:13:d7:
                    2c:df:41:42:ad:53:1e:cd:aa:d4:ca:53:b0:61:4f:
                    a7:de:af:63:e6:64:d3:2e:fb:26:53:76:6c:05:03:
                    68:8b:6e:c6:0e:0d:ea:a5:b6:64:92:b9:06:47:ee:
                    3b:bb:06:21:86:54:91:77:7b:25:31:28:e0:71:c0:
                    98:6a:38:08:32:6b:fa:20:bb:de:62:09:e3:30:87:
                    0a:c6:f7:45:0c:4e:66:d7:0e:66:80:7a:8d:89:7c:
                    8e:08:74:a3:5a:88:77:4f:12:28:29:ef:40:d1:f8:
                    e4:3a:39:ff:e6:78:a1:31:52:14:29:ac:8a:06:e0:
                    d4:7c:05
                Exponent: 65537 (0x10001)
        X509v3 extensions:
            X509v3 Basic Constraints: 
                CA:FALSE
            Netscape Comment: 
                Easy-RSA Generated Certificate
            X509v3 Subject Key Identifier: 
                A2:46:30:75:E1:39:01:81:80:9C:26:FB:A8:52:43:33:E4:78:8F:6C
            X509v3 Authority Key Identifier: 
                keyid:12:CD:60:04:D2:A0:80:9E:70:ED:C6:99:B8:7B:2C:C6:52:FD:19:A1
                DirName:/C=US/ST=OH/L=Columbus/O=VikingVPN/OU=MyOrganizationalUnit/CN=VikingVPN CA/name=EasyRSA/emailAddress=me@myhost.mydomain
                serial:CF:35:85:EE:80:BF:2A:3E

            X509v3 Extended Key Usage: 
                TLS Web Client Authentication
            X509v3 Key Usage: 
                Digital Signature
    Signature Algorithm: sha256WithRSAEncryption
         c1:00:00:1d:ae:f2:e7:b7:2e:d6:02:f2:60:25:76:4e:62:a6:
         53:47:5f:38:46:2e:14:8d:0e:e1:a3:b1:13:a7:1f:93:74:48:
         49:95:3e:d9:ce:35:d1:fd:c8:30:b9:33:4b:a9:46:d5:3f:f7:
         b6:8c:bc:12:39:2c:54:f6:5c:f5:d8:8a:c9:fa:a6:7f:0e:db:
         35:d0:f3:f3:72:8d:c7:c1:8b:05:e4:e1:2a:57:58:06:52:56:
         ad:86:30:8c:c6:3b:d3:35:d3:6a:98:b7:7b:1b:07:60:48:f4:
         48:20:38:f3:50:57:c2:b9:a5:96:5f:28:ca:a2:4f:9c:c6:55:
         e5:70:99:8f:63:ec:89:3d:54:42:6d:eb:97:ef:42:fb:fc:7a:
         b2:02:eb:83:1e:78:40:c1:35:9c:fb:06:b1:22:3e:0f:67:e8:
         9a:3e:74:4b:ba:21:3b:8c:5b:f7:f7:4c:d9:90:99:47:e6:2d:
         a2:6d:83:4d:24:2d:5c:84:ed:82:2c:74:01:7d:8c:a2:d4:dd:
         60:b2:3b:2d:df:88:d1:0c:37:fc:b8:df:11:56:f2:bc:a3:e4:
         ec:52:e6:ef:28:4d:20:cc:73:9b:be:7d:6d:7d:75:af:92:5a:
         26:fb:7a:40:e0:46:2d:6d:b7:2e:8e:d5:68:92:80:8e:86:7f:
         36:88:20:f0:9e:32:dd:28:67:a0:cc:7a:96:c8:b4:c7:d8:fc:
         86:98:66:04:1b:3f:10:f5:aa:ce:6f:e1:44:0a:94:93:ef:e1:
         a6:a1:9b:d9:e1:e5:4c:fc:e9:f0:6b:de:28:06:f8:15:2d:0b:
         dc:f7:71:7e:a0:00:24:4f:9e:e1:8a:85:76:a6:b2:7b:cd:bc:
         f6:80:4d:ee:7e:ee:67:51:36:4c:9c:09:2d:45:34:91:6b:43:
         0f:8a:a5:23:95:8e:73:02:c4:c1:4f:85:1b:70:1d:a7:fa:cd:
         e6:0d:3a:36:bb:9f:e6:1d:da:9d:37:af:52:60:3e:92:06:7c:
         d4:40:02:f3:16:30:84:b5:5e:c7:3f:c9:ba:8f:f6:2e:f7:fc:
         ad:42:bb:21:58:21:39:31:33:16:ab:f9:4a:a8:99:1f:97:be:
         e5:ae:6b:19:56:8a:57:f2:2c:f2:14:a9:2f:f9:42:4c:26:8d:
         49:05:a7:b9:7c:55:89:46:50:5e:12:f9:16:e1:46:96:75:50:
         d4:90:56:bc:75:db:ed:5d:3f:76:79:eb:85:72:30:2b:dd:67:
         30:b8:be:b6:71:b3:94:90:c4:5f:6b:44:35:4e:5c:5a:c9:c3:
         7a:cf:81:c8:95:4f:21:de:26:fe:07:64:61:59:82:91:b3:19:
         13:fe:79:1c:37:25:be:c5
-----BEGIN CERTIFICATE-----
MIIGrTCCBJWgAwIBAgICMvUwDQYJKoZIhvcNAQELBQAwgawxCzAJBgNVBAYTAlVT
MQswCQYDVQQIEwJPSDERMA8GA1UEBxMIQ29sdW1idXMxEjAQBgNVBAoTCVZpa2lu
Z1ZQTjEdMBsGA1UECxMUTXlPcmdhbml6YXRpb25hbFVuaXQxFTATBgNVBAMTDFZp
a2luZ1ZQTiBDQTEQMA4GA1UEKRMHRWFzeVJTQTEhMB8GCSqGSIb3DQEJARYSbWVA
bXlob3N0Lm15ZG9tYWluMB4XDTE4MDQyODAyMzEyN1oXDTI4MDQyNTAyMzEyN1ow
HzEdMBsGA1UEAxMUQ2xpZW50MjcyNkNlcnQxYTJmMDYwggIiMA0GCSqGSIb3DQEB
AQUAA4ICDwAwggIKAoICAQC4cQhZ78O8sZfyW63XDNffDaqg35KA7XjFYXirwQ0l
fdAyTRXnPIgh5w2N1/qjr0DcfarrNCBjZHCx5mAaMCUU8soZrRbAUR3n9g/Tiwtx
28DyLkHggpO/sIYTESRlPdWlbPKpORIiIuH6phsPjBjGc8DpW1RF6ST9VeWLDaJa
x+WF6YsLLU7yHPjQKcUMuEfDZAUeqFSTNEG/fi4QpDPLFRUuJnWuqKo72VnxIgy4
goGVqs0DIELIIX8/pxru3YmOdAXiYEkFSA1LNBwE3iFLBTMIE9ihkRaFzqFvib9r
z4w/gWo52NWS55a9r80GBHtK4T56p2jrzwMKIK4Sat85qlCPbdq9w6AsGNzrlTdC
+wEFhYIWYkUHnt5+f4YTRqqqprlAjakCwTd2Tj8MV0RMbL5jQsqEmhvsVjc+SKU0
8h3uj9Lb7e4+8bbaoYMaZPvvvXamjdL+zChiDOlgOdYVmhazPdgM1izcQyD8MJ+F
sq6mf18b/jBK6eSJdEdpjBJbSZcT1yzfQUKtUx7NqtTKU7BhT6fer2PmZNMu+yZT
dmwFA2iLbsYODeqltmSSuQZH7ju7BiGGVJF3eyUxKOBxwJhqOAgya/ogu95iCeMw
hwrG90UMTmbXDmaAeo2JfI4IdKNaiHdPEigp70DR+OQ6Of/meKExUhQprIoG4NR8
BQIDAQABo4IBYzCCAV8wCQYDVR0TBAIwADAtBglghkgBhvhCAQ0EIBYeRWFzeS1S
U0EgR2VuZXJhdGVkIENlcnRpZmljYXRlMB0GA1UdDgQWBBSiRjB14TkBgYCcJvuo
UkMz5HiPbDCB4QYDVR0jBIHZMIHWgBQSzWAE0qCAnnDtxpm4eyzGUv0ZoaGBsqSB
rzCBrDELMAkGA1UEBhMCVVMxCzAJBgNVBAgTAk9IMREwDwYDVQQHEwhDb2x1bWJ1
czESMBAGA1UEChMJVmlraW5nVlBOMR0wGwYDVQQLExRNeU9yZ2FuaXphdGlvbmFs
VW5pdDEVMBMGA1UEAxMMVmlraW5nVlBOIENBMRAwDgYDVQQpEwdFYXN5UlNBMSEw
HwYJKoZIhvcNAQkBFhJtZUBteWhvc3QubXlkb21haW6CCQDPNYXugL8qPjATBgNV
HSUEDDAKBggrBgEFBQcDAjALBgNVHQ8EBAMCB4AwDQYJKoZIhvcNAQELBQADggIB
AMEAAB2u8ue3LtYC8mAldk5iplNHXzhGLhSNDuGjsROnH5N0SEmVPtnONdH9yDC5
M0upRtU/97aMvBI5LFT2XPXYisn6pn8O2zXQ8/NyjcfBiwXk4SpXWAZSVq2GMIzG
O9M102qYt3sbB2BI9EggOPNQV8K5pZZfKMqiT5zGVeVwmY9j7Ik9VEJt65fvQvv8
erIC64MeeEDBNZz7BrEiPg9n6Jo+dEu6ITuMW/f3TNmQmUfmLaJtg00kLVyE7YIs
dAF9jKLU3WCyOy3fiNEMN/y43xFW8ryj5OxS5u8oTSDMc5u+fW19da+SWib7ekDg
Ri1tty6O1WiSgI6GfzaIIPCeMt0oZ6DMepbItMfY/IaYZgQbPxD1qs5v4UQKlJPv
4aahm9nh5Uz86fBr3igG+BUtC9z3cX6gACRPnuGKhXamsnvNvPaATe5+7mdRNkyc
CS1FNJFrQw+KpSOVjnMCxMFPhRtwHaf6zeYNOja7n+Yd2p03r1JgPpIGfNRAAvMW
MIS1Xsc/ybqP9i73/K1CuyFYITkxMxar+UqomR+XvuWuaxlWilfyLPIUqS/5Qkwm
jUkFp7l8VYlGUF4S+RbhRpZ1UNSQVrx12+1dP3Z564VyMCvdZzC4vrZxs5SQxF9r
RDVOXFrJw3rPgciVTyHeJv4HZGFZgpGzGRP+eRw3Jb7F
-----END CERTIFICATE-----
