Certificate:
    Data:
        Version: 3 (0x2)
        Serial Number: 5523 (0x1593)
    Signature Algorithm: md5WithRSAEncryption
        Issuer: C=US, ST=OH, L=Columbus, O=VikingVPN, OU=MyOrganizationalUnit, CN=VikingVPN CA/name=EasyRSA/emailAddress=me@myhost.mydomain
        Validity
            Not Before: Jun 11 10:36:04 2015 GMT
            Not After : Jun  8 10:36:04 2025 GMT
        Subject: CN=Client1749Cert126a28
        Subject Public Key Info:
            Public Key Algorithm: rsaEncryption
                Public-Key: (4096 bit)
                Modulus:
                    00:b2:af:3d:13:f4:d6:95:b2:eb:7f:cc:72:5b:ef:
                    f0:7e:a7:94:ff:b4:c9:f8:de:c7:e0:5d:cd:99:5b:
                    3b:e7:80:3e:03:39:8b:e3:7b:b0:b3:f5:64:51:c2:
                    fc:fa:17:44:d2:83:17:a0:01:fd:90:e0:10:31:ad:
                    18:40:bd:0d:e7:4b:69:3a:76:40:2a:60:e9:af:a4:
                    1e:0c:65:14:a7:16:06:05:c5:ec:87:f9:a4:5a:7a:
                    ca:8b:39:95:24:e2:2c:82:fb:fe:23:ae:3c:39:15:
                    e5:c7:20:e6:c8:d2:12:8a:74:13:e3:11:d1:fe:d7:
                    5f:55:40:4a:6a:62:a5:91:4f:8b:60:93:7d:f5:43:
                    98:31:c3:1a:ac:0a:1d:31:1e:10:74:34:17:78:fb:
                    a0:48:39:ed:8f:fe:d7:7c:81:ec:34:41:29:71:18:
                    d8:ff:b4:48:f0:17:12:3c:b4:67:f2:94:23:bf:ac:
                    98:89:1d:26:f9:99:29:7c:d2:d5:74:bf:b8:20:b8:
                    58:db:97:f5:72:5e:78:7f:67:ab:4b:57:91:63:65:
                    ed:b8:b9:69:c5:81:0a:f0:27:11:f5:c1:4e:99:2a:
                    46:ed:e3:f8:a9:48:bc:d9:9b:23:11:a7:f1:c8:bd:
                    56:b1:bf:f8:e8:a2:c4:2e:43:5d:52:fd:a4:86:b1:
                    02:93:56:85:1d:d7:65:04:79:46:4c:21:c9:a1:29:
                    80:69:71:58:16:16:4c:7a:38:bd:a9:a7:53:a7:67:
                    5f:d8:4b:a4:37:03:39:98:fb:51:25:be:61:0f:2f:
                    a4:2c:58:71:7a:b7:b1:09:56:ee:5b:0b:d4:5e:a3:
                    0b:3a:72:55:33:10:65:8e:2f:93:73:ff:ce:56:5a:
                    ce:7c:47:3d:cf:36:bb:5e:91:d4:14:83:ca:32:89:
                    a6:7e:d5:9b:ad:a4:75:33:95:5f:31:6f:eb:0b:70:
                    2f:fd:63:a0:32:2f:c0:59:98:9b:86:61:31:cf:6c:
                    91:97:af:9d:ee:35:0c:3d:77:6c:12:09:7f:12:e1:
                    4d:17:1d:53:7a:24:60:52:0b:54:db:50:9f:01:5a:
                    31:60:fb:e8:a2:c9:c9:7f:a9:87:94:9d:61:72:ba:
                    69:4b:5d:32:6a:60:fe:58:b0:6b:46:29:00:84:b4:
                    b0:be:6b:96:e6:5e:b1:5c:83:5a:d5:16:62:44:0f:
                    04:2f:94:40:4b:7c:93:32:3f:d9:f5:16:c6:25:cc:
                    21:77:ce:83:04:13:ed:be:8a:0e:6d:10:d5:d9:48:
                    29:37:82:56:00:30:5c:eb:a4:62:36:a3:d3:d4:25:
                    f4:11:10:91:e9:ae:94:ce:27:eb:72:05:aa:54:ca:
                    5f:99:0d
                Exponent: 65537 (0x10001)
        X509v3 extensions:
            X509v3 Basic Constraints: 
                CA:FALSE
            Netscape Comment: 
                Easy-RSA Generated Certificate
            X509v3 Subject Key Identifier: 
                11:18:81:B7:0A:88:00:EC:DA:FA:04:3C:FA:BD:5B:91:F4:58:66:57
            X509v3 Authority Key Identifier: 
                keyid:12:CD:60:04:D2:A0:80:9E:70:ED:C6:99:B8:7B:2C:C6:52:FD:19:A1
                DirName:/C=US/ST=OH/L=Columbus/O=VikingVPN/OU=MyOrganizationalUnit/CN=VikingVPN CA/name=EasyRSA/emailAddress=me@myhost.mydomain
                serial:CF:35:85:EE:80:BF:2A:3E

            X509v3 Extended Key Usage: 
                TLS Web Client Authentication
            X509v3 Key Usage: 
                Digital Signature
    Signature Algorithm: md5WithRSAEncryption
         4e:69:32:c4:d8:db:81:b1:6b:e8:20:fd:6b:f5:9c:db:4d:86:
         69:8b:8f:e5:ba:9c:f6:66:5c:e7:6c:1f:cc:be:08:9d:17:a3:
         2a:79:4a:63:25:74:d7:6e:67:20:97:f9:22:f4:b8:1d:d3:b9:
         1e:a3:a8:6b:89:bf:df:33:90:f6:67:94:06:8a:ed:ff:f5:23:
         a3:79:12:29:15:6f:13:b4:9d:a2:4a:15:e6:69:18:f9:fb:d4:
         d5:77:20:be:92:a1:c6:59:ac:a1:b4:05:92:3b:41:6f:92:5c:
         03:83:e2:1b:67:31:58:5f:0e:98:d5:6a:70:29:ec:79:84:66:
         ff:6f:da:c1:78:f2:56:d2:c8:61:b7:85:41:2b:77:7b:31:eb:
         cd:df:ab:a2:1e:0e:c4:ce:05:52:9f:97:01:b5:4a:db:4e:98:
         04:fc:e2:6d:9b:fa:5b:cd:05:ee:4c:48:a3:23:c4:20:eb:81:
         9c:1e:1d:39:66:45:de:46:60:08:38:91:c1:d7:ec:9e:3c:4d:
         57:82:c1:db:8f:61:57:ef:93:b6:73:78:6e:bb:a7:9f:c1:05:
         0d:0c:2f:1d:d3:3e:24:03:76:dd:b3:8d:5c:6e:fb:0e:86:2e:
         78:7a:4b:ff:7f:a0:1c:b4:95:13:d0:f2:50:da:f5:51:fd:86:
         39:70:19:e9:06:64:5e:4d:6b:49:35:31:e1:8f:05:33:f2:24:
         47:97:0a:d0:ea:c4:10:56:be:38:0e:2e:d5:89:b1:38:ae:f7:
         c6:66:a7:3f:bc:90:29:e1:5f:2f:e2:fb:e7:29:27:08:f1:02:
         6b:d3:9f:03:41:2f:bf:84:0a:fa:be:e0:95:23:cd:32:31:45:
         0a:91:e3:9f:f3:0a:89:a6:df:7c:4f:49:07:db:7c:9e:99:d3:
         60:0a:c5:15:b7:e0:b5:6b:a3:cf:68:c8:55:35:97:2e:23:88:
         35:9f:16:9f:37:f5:38:ab:08:6c:d9:b1:3a:c6:21:d7:42:36:
         76:a2:83:4a:5e:a5:ce:3f:31:ed:ca:d8:89:02:72:45:c0:de:
         db:ba:67:45:42:50:9c:80:fe:c3:7d:34:8c:e8:bb:5c:97:d6:
         61:8b:1e:ae:d1:67:b3:b0:b5:50:e6:56:bb:60:6e:d6:91:54:
         08:0a:17:ba:65:a4:a7:0a:1b:28:e1:a2:19:12:72:72:c3:80:
         fe:e5:e2:14:ad:bf:8e:28:f8:f1:4c:91:b5:bc:b6:1c:94:15:
         2f:e2:e6:23:4a:36:e8:08:4d:86:78:eb:40:10:27:4b:ce:15:
         2a:6a:26:98:56:09:d7:c0:ec:90:a7:e6:94:4f:b5:f6:2b:b3:
         4a:5e:cb:7e:59:d6:c3:64
-----BEGIN CERTIFICATE-----
MIIGrTCCBJWgAwIBAgICFZMwDQYJKoZIhvcNAQEEBQAwgawxCzAJBgNVBAYTAlVT
MQswCQYDVQQIEwJPSDERMA8GA1UEBxMIQ29sdW1idXMxEjAQBgNVBAoTCVZpa2lu
Z1ZQTjEdMBsGA1UECxMUTXlPcmdhbml6YXRpb25hbFVuaXQxFTATBgNVBAMTDFZp
a2luZ1ZQTiBDQTEQMA4GA1UEKRMHRWFzeVJTQTEhMB8GCSqGSIb3DQEJARYSbWVA
bXlob3N0Lm15ZG9tYWluMB4XDTE1MDYxMTEwMzYwNFoXDTI1MDYwODEwMzYwNFow
HzEdMBsGA1UEAxMUQ2xpZW50MTc0OUNlcnQxMjZhMjgwggIiMA0GCSqGSIb3DQEB
AQUAA4ICDwAwggIKAoICAQCyrz0T9NaVsut/zHJb7/B+p5T/tMn43sfgXc2ZWzvn
gD4DOYvje7Cz9WRRwvz6F0TSgxegAf2Q4BAxrRhAvQ3nS2k6dkAqYOmvpB4MZRSn
FgYFxeyH+aRaesqLOZUk4iyC+/4jrjw5FeXHIObI0hKKdBPjEdH+119VQEpqYqWR
T4tgk331Q5gxwxqsCh0xHhB0NBd4+6BIOe2P/td8gew0QSlxGNj/tEjwFxI8tGfy
lCO/rJiJHSb5mSl80tV0v7gguFjbl/VyXnh/Z6tLV5FjZe24uWnFgQrwJxH1wU6Z
Kkbt4/ipSLzZmyMRp/HIvVaxv/joosQuQ11S/aSGsQKTVoUd12UEeUZMIcmhKYBp
cVgWFkx6OL2pp1OnZ1/YS6Q3AzmY+1ElvmEPL6QsWHF6t7EJVu5bC9Reows6clUz
EGWOL5Nz/85WWs58Rz3PNrtekdQUg8oyiaZ+1ZutpHUzlV8xb+sLcC/9Y6AyL8BZ
mJuGYTHPbJGXr53uNQw9d2wSCX8S4U0XHVN6JGBSC1TbUJ8BWjFg++iiycl/qYeU
nWFyumlLXTJqYP5YsGtGKQCEtLC+a5bmXrFcg1rVFmJEDwQvlEBLfJMyP9n1FsYl
zCF3zoMEE+2+ig5tENXZSCk3glYAMFzrpGI2o9PUJfQREJHprpTOJ+tyBapUyl+Z
DQIDAQABo4IBYzCCAV8wCQYDVR0TBAIwADAtBglghkgBhvhCAQ0EIBYeRWFzeS1S
U0EgR2VuZXJhdGVkIENlcnRpZmljYXRlMB0GA1UdDgQWBBQRGIG3CogA7Nr6BDz6
vVuR9FhmVzCB4QYDVR0jBIHZMIHWgBQSzWAE0qCAnnDtxpm4eyzGUv0ZoaGBsqSB
rzCBrDELMAkGA1UEBhMCVVMxCzAJBgNVBAgTAk9IMREwDwYDVQQHEwhDb2x1bWJ1
czESMBAGA1UEChMJVmlraW5nVlBOMR0wGwYDVQQLExRNeU9yZ2FuaXphdGlvbmFs
VW5pdDEVMBMGA1UEAxMMVmlraW5nVlBOIENBMRAwDgYDVQQpEwdFYXN5UlNBMSEw
HwYJKoZIhvcNAQkBFhJtZUBteWhvc3QubXlkb21haW6CCQDPNYXugL8qPjATBgNV
HSUEDDAKBggrBgEFBQcDAjALBgNVHQ8EBAMCB4AwDQYJKoZIhvcNAQEEBQADggIB
AE5pMsTY24Gxa+gg/Wv1nNtNhmmLj+W6nPZmXOdsH8y+CJ0Xoyp5SmMldNduZyCX
+SL0uB3TuR6jqGuJv98zkPZnlAaK7f/1I6N5EikVbxO0naJKFeZpGPn71NV3IL6S
ocZZrKG0BZI7QW+SXAOD4htnMVhfDpjVanAp7HmEZv9v2sF48lbSyGG3hUErd3sx
683fq6IeDsTOBVKflwG1SttOmAT84m2b+lvNBe5MSKMjxCDrgZweHTlmRd5GYAg4
kcHX7J48TVeCwduPYVfvk7ZzeG67p5/BBQ0MLx3TPiQDdt2zjVxu+w6GLnh6S/9/
oBy0lRPQ8lDa9VH9hjlwGekGZF5Na0k1MeGPBTPyJEeXCtDqxBBWvjgOLtWJsTiu
98Zmpz+8kCnhXy/i++cpJwjxAmvTnwNBL7+ECvq+4JUjzTIxRQqR45/zComm33xP
SQfbfJ6Z02AKxRW34LVro89oyFU1ly4jiDWfFp839TirCGzZsTrGIddCNnaig0pe
pc4/Me3K2IkCckXA3tu6Z0VCUJyA/sN9NIzou1yX1mGLHq7RZ7OwtVDmVrtgbtaR
VAgKF7plpKcKGyjhohkScnLDgP7l4hStv44o+PFMkbW8thyUFS/i5iNKNugITYZ4
60AQJ0vOFSpqJphWCdfA7JCn5pRPtfYrs0pey35Z1sNk
-----END CERTIFICATE-----
