Certificate:
    Data:
        Version: 3 (0x2)
        Serial Number: 7834 (0x1e9a)
    Signature Algorithm: md5WithRSAEncryption
        Issuer: C=US, ST=OH, L=Columbus, O=VikingVPN, OU=MyOrganizationalUnit, CN=VikingVPN CA/name=EasyRSA/emailAddress=me@myhost.mydomain
        Validity
            Not Before: Apr 24 17:15:39 2016 GMT
            Not After : Apr 22 17:15:39 2026 GMT
        Subject: CN=Client383Certcad0af
        Subject Public Key Info:
            Public Key Algorithm: rsaEncryption
                Public-Key: (4096 bit)
                Modulus:
                    00:a3:54:d3:bb:99:3d:a6:6f:cb:20:f4:58:35:c4:
                    e5:8b:6b:c4:09:bd:35:c5:da:1a:f8:e9:a8:65:61:
                    7c:01:55:27:4a:11:17:57:26:15:a3:96:3d:de:d5:
                    3e:17:70:4b:6f:c1:3f:95:d1:25:15:98:04:76:b5:
                    9b:69:80:6b:00:35:79:c2:b8:c3:8d:19:db:ee:c2:
                    a3:70:62:d9:fe:bd:e8:6a:89:49:d0:ba:9c:a5:15:
                    30:b9:95:0e:ea:7f:01:f9:ab:46:ee:02:b4:5b:97:
                    f9:36:5c:f4:e7:fd:c7:ff:73:03:77:52:18:54:28:
                    f0:12:08:bd:fa:22:54:df:aa:96:b6:bd:b5:67:31:
                    f6:54:f7:77:41:ca:54:c6:5c:50:86:81:e1:be:15:
                    88:34:3c:50:a7:e2:97:ef:1b:1e:3a:7f:06:70:d9:
                    18:1b:da:bc:1c:0c:d3:91:d2:4f:53:30:0d:24:11:
                    3a:40:47:64:39:9f:61:d8:d5:b0:68:e5:b1:26:cc:
                    d8:9e:bb:82:be:28:f8:84:e1:a6:ad:26:44:91:22:
                    27:17:58:ae:d4:cf:74:97:0b:17:00:92:d0:24:7c:
                    2f:ff:05:ad:e8:d0:0a:96:d0:66:76:fc:00:3b:b8:
                    5b:23:15:7b:03:47:15:32:b0:eb:b5:93:32:3c:a8:
                    39:64:63:42:87:0a:c2:ac:d6:52:35:b5:e7:b8:d3:
                    1a:df:33:fb:08:b4:00:b0:64:7f:c6:e8:85:86:86:
                    9f:93:0a:53:93:5e:a4:51:af:b7:ef:1a:4a:75:c0:
                    9d:01:53:ba:52:57:2d:41:87:25:ef:54:37:c2:d0:
                    0b:f0:87:6a:de:27:67:05:e5:31:f5:14:ce:97:e7:
                    ed:40:13:f6:15:eb:02:5a:46:3a:2e:fc:d2:5e:28:
                    e9:31:03:10:8b:ca:cd:eb:2d:b1:6a:67:8d:b5:ab:
                    06:9a:3b:14:58:70:29:6b:06:95:33:55:68:92:84:
                    8c:be:74:3d:0b:04:84:93:43:8c:39:fb:16:4a:81:
                    c2:48:d3:dc:7a:f8:dd:b0:59:58:3f:7a:f5:49:33:
                    84:22:e8:0c:6e:ca:f6:7a:35:2d:9c:41:e2:8b:3e:
                    9f:3e:4e:37:12:5d:75:43:b5:32:89:66:d4:34:aa:
                    65:0c:82:e4:b9:08:e7:38:48:75:f3:f3:f9:52:3f:
                    68:72:5b:2c:e3:68:44:54:3e:b0:51:36:40:9d:a8:
                    c2:cc:bb:52:f0:5a:4d:16:76:28:0b:0e:67:4e:0e:
                    08:d0:bb:44:f5:c8:4b:f8:92:3a:e6:5b:ca:73:57:
                    3c:64:f1:f4:55:15:48:c7:3a:d0:2b:41:42:6e:95:
                    ca:59:e3
                Exponent: 65537 (0x10001)
        X509v3 extensions:
            X509v3 Basic Constraints: 
                CA:FALSE
            Netscape Comment: 
                Easy-RSA Generated Certificate
            X509v3 Subject Key Identifier: 
                B2:02:64:84:47:2D:DB:57:65:19:72:D7:45:C4:9F:90:42:53:13:4B
            X509v3 Authority Key Identifier: 
                keyid:12:CD:60:04:D2:A0:80:9E:70:ED:C6:99:B8:7B:2C:C6:52:FD:19:A1
                DirName:/C=US/ST=OH/L=Columbus/O=VikingVPN/OU=MyOrganizationalUnit/CN=VikingVPN CA/name=EasyRSA/emailAddress=me@myhost.mydomain
                serial:CF:35:85:EE:80:BF:2A:3E

            X509v3 Extended Key Usage: 
                TLS Web Client Authentication
            X509v3 Key Usage: 
                Digital Signature
    Signature Algorithm: md5WithRSAEncryption
         13:b3:ca:23:06:af:6b:4e:e9:21:2f:a9:09:35:e0:f3:ef:fd:
         43:82:31:20:35:b2:85:1c:45:40:92:34:5e:fb:e3:17:83:e2:
         2a:8d:5b:6f:ed:50:eb:61:4e:b0:78:89:d1:72:20:94:7e:3f:
         f5:69:5b:db:a9:7e:74:01:48:75:18:2b:50:f4:8a:aa:2b:66:
         a0:33:df:8d:38:ab:55:7c:6c:a9:70:38:f1:3f:55:35:f9:f3:
         fd:e2:c5:0d:85:79:92:5f:ef:1d:d4:db:9f:48:66:87:8c:e8:
         b6:e5:8f:09:08:36:de:f1:3b:48:44:8b:3d:32:f7:b1:d6:be:
         46:c2:b9:98:44:f5:c0:ec:72:8e:41:70:56:70:05:9a:f0:0c:
         6f:aa:07:f6:60:fa:43:05:43:05:01:4d:a9:f9:ef:a3:04:dd:
         fd:b6:a7:f4:da:83:87:dc:af:b3:48:c0:14:67:8f:28:53:76:
         f8:1b:a5:8f:73:77:3c:a5:33:6d:ef:17:2e:e9:59:25:da:29:
         84:4e:ab:a0:39:73:8b:6a:6b:0b:c4:01:11:f2:d6:d1:1e:2b:
         58:76:51:eb:10:0b:e2:c4:4d:a3:39:eb:cc:53:d9:58:a7:8e:
         ec:54:c0:bc:2d:85:8e:8d:aa:88:74:c2:fc:c9:b5:1a:ed:1e:
         05:c2:3c:06:e8:c6:4e:0c:e1:31:ce:f5:a7:83:92:9d:8e:de:
         86:d1:07:10:ab:3a:b6:30:ad:5e:7e:1e:06:cf:39:92:6e:61:
         01:d0:ec:a6:32:66:1c:94:81:b2:c9:27:81:66:0e:07:86:e0:
         00:ff:a4:ee:36:bd:67:37:60:21:12:14:b2:f5:92:70:e9:60:
         81:f2:49:2b:26:88:31:69:ec:73:16:ac:49:43:8e:46:51:46:
         f8:72:32:c2:b5:30:fc:1d:a8:93:d8:8c:44:2f:94:90:4b:49:
         f6:ac:ad:cb:d7:e2:51:d3:0b:47:18:bb:d9:55:f5:e1:f0:43:
         f5:25:7b:3c:7b:a0:25:18:10:ac:9d:76:18:03:f2:07:e8:36:
         b5:df:87:fe:62:9f:80:24:8a:1c:1a:ea:d0:81:ca:b4:f5:e8:
         7b:98:fb:68:69:b7:d9:aa:0e:37:e6:a9:e2:bd:da:27:87:f6:
         7b:64:e5:dd:ea:ae:e6:15:3f:ed:9c:e8:77:47:3a:8c:c4:14:
         96:6d:d1:53:88:94:a5:ea:8b:3d:e6:a3:8c:28:90:48:73:16:
         34:ee:86:41:f5:32:f0:c5:c7:b9:63:df:52:0f:62:11:5e:05:
         22:8c:f8:a4:d1:39:f3:72:1a:68:b7:b3:82:a8:e7:a3:00:3f:
         1d:c2:e1:ba:03:ab:f1:a3
-----BEGIN CERTIFICATE-----
MIIGrDCCBJSgAwIBAgICHpowDQYJKoZIhvcNAQEEBQAwgawxCzAJBgNVBAYTAlVT
MQswCQYDVQQIEwJPSDERMA8GA1UEBxMIQ29sdW1idXMxEjAQBgNVBAoTCVZpa2lu
Z1ZQTjEdMBsGA1UECxMUTXlPcmdhbml6YXRpb25hbFVuaXQxFTATBgNVBAMTDFZp
a2luZ1ZQTiBDQTEQMA4GA1UEKRMHRWFzeVJTQTEhMB8GCSqGSIb3DQEJARYSbWVA
bXlob3N0Lm15ZG9tYWluMB4XDTE2MDQyNDE3MTUzOVoXDTI2MDQyMjE3MTUzOVow
HjEcMBoGA1UEAxMTQ2xpZW50MzgzQ2VydGNhZDBhZjCCAiIwDQYJKoZIhvcNAQEB
BQADggIPADCCAgoCggIBAKNU07uZPaZvyyD0WDXE5YtrxAm9NcXaGvjpqGVhfAFV
J0oRF1cmFaOWPd7VPhdwS2/BP5XRJRWYBHa1m2mAawA1ecK4w40Z2+7Co3Bi2f69
6GqJSdC6nKUVMLmVDup/AfmrRu4CtFuX+TZc9Of9x/9zA3dSGFQo8BIIvfoiVN+q
lra9tWcx9lT3d0HKVMZcUIaB4b4ViDQ8UKfil+8bHjp/BnDZGBvavBwM05HST1Mw
DSQROkBHZDmfYdjVsGjlsSbM2J67gr4o+IThpq0mRJEiJxdYrtTPdJcLFwCS0CR8
L/8FrejQCpbQZnb8ADu4WyMVewNHFTKw67WTMjyoOWRjQocKwqzWUjW157jTGt8z
+wi0ALBkf8bohYaGn5MKU5NepFGvt+8aSnXAnQFTulJXLUGHJe9UN8LQC/CHat4n
ZwXlMfUUzpfn7UAT9hXrAlpGOi780l4o6TEDEIvKzestsWpnjbWrBpo7FFhwKWsG
lTNVaJKEjL50PQsEhJNDjDn7FkqBwkjT3Hr43bBZWD969UkzhCLoDG7K9no1LZxB
4os+nz5ONxJddUO1Molm1DSqZQyC5LkI5zhIdfPz+VI/aHJbLONoRFQ+sFE2QJ2o
wsy7UvBaTRZ2KAsOZ04OCNC7RPXIS/iSOuZbynNXPGTx9FUVSMc60CtBQm6Vylnj
AgMBAAGjggFjMIIBXzAJBgNVHRMEAjAAMC0GCWCGSAGG+EIBDQQgFh5FYXN5LVJT
QSBHZW5lcmF0ZWQgQ2VydGlmaWNhdGUwHQYDVR0OBBYEFLICZIRHLdtXZRly10XE
n5BCUxNLMIHhBgNVHSMEgdkwgdaAFBLNYATSoICecO3Gmbh7LMZS/RmhoYGypIGv
MIGsMQswCQYDVQQGEwJVUzELMAkGA1UECBMCT0gxETAPBgNVBAcTCENvbHVtYnVz
MRIwEAYDVQQKEwlWaWtpbmdWUE4xHTAbBgNVBAsTFE15T3JnYW5pemF0aW9uYWxV
bml0MRUwEwYDVQQDEwxWaWtpbmdWUE4gQ0ExEDAOBgNVBCkTB0Vhc3lSU0ExITAf
BgkqhkiG9w0BCQEWEm1lQG15aG9zdC5teWRvbWFpboIJAM81he6Avyo+MBMGA1Ud
JQQMMAoGCCsGAQUFBwMCMAsGA1UdDwQEAwIHgDANBgkqhkiG9w0BAQQFAAOCAgEA
E7PKIwava07pIS+pCTXg8+/9Q4IxIDWyhRxFQJI0XvvjF4PiKo1bb+1Q62FOsHiJ
0XIglH4/9Wlb26l+dAFIdRgrUPSKqitmoDPfjTirVXxsqXA48T9VNfnz/eLFDYV5
kl/vHdTbn0hmh4zotuWPCQg23vE7SESLPTL3sda+RsK5mET1wOxyjkFwVnAFmvAM
b6oH9mD6QwVDBQFNqfnvowTd/ban9NqDh9yvs0jAFGePKFN2+Bulj3N3PKUzbe8X
LulZJdophE6roDlzi2prC8QBEfLW0R4rWHZR6xAL4sRNoznrzFPZWKeO7FTAvC2F
jo2qiHTC/Mm1Gu0eBcI8BujGTgzhMc71p4OSnY7ehtEHEKs6tjCtXn4eBs85km5h
AdDspjJmHJSBsskngWYOB4bgAP+k7ja9ZzdgIRIUsvWScOlggfJJKyaIMWnscxas
SUOORlFG+HIywrUw/B2ok9iMRC+UkEtJ9qyty9fiUdMLRxi72VX14fBD9SV7PHug
JRgQrJ12GAPyB+g2td+H/mKfgCSKHBrq0IHKtPXoe5j7aGm32aoON+ap4r3aJ4f2
e2Tl3equ5hU/7Zzod0c6jMQUlm3RU4iUpeqLPeajjCiQSHMWNO6GQfUy8MXHuWPf
Ug9iEV4FIoz4pNE583IaaLezgqjnowA/HcLhugOr8aM=
-----END CERTIFICATE-----
