Certificate:
    Data:
        Version: 3 (0x2)
        Serial Number: 7782 (0x1e66)
    Signature Algorithm: md5WithRSAEncryption
        Issuer: C=US, ST=OH, L=Columbus, O=VikingVPN, OU=MyOrganizationalUnit, CN=VikingVPN CA/name=EasyRSA/emailAddress=me@myhost.mydomain
        Validity
            Not Before: Apr 18 23:50:28 2016 GMT
            Not After : Apr 16 23:50:28 2026 GMT
        Subject: CN=Client2261Certb53d79
        Subject Public Key Info:
            Public Key Algorithm: rsaEncryption
                Public-Key: (4096 bit)
                Modulus:
                    00:d2:7b:f5:b2:5b:ee:ed:6b:4e:29:96:db:b4:e1:
                    b1:be:04:c3:9d:d2:ac:2d:07:4f:a7:a8:38:58:30:
                    7e:fa:b1:da:9d:4f:30:e9:f8:14:1d:a3:7c:19:d1:
                    96:96:24:7b:83:8f:0c:45:1e:25:37:b1:e0:6c:33:
                    03:70:d7:e5:d9:98:8c:c4:1b:93:40:32:08:1f:63:
                    49:95:1e:2b:aa:72:8b:95:ca:c3:57:c9:65:d0:8a:
                    a7:31:1f:39:54:40:5e:72:7f:ec:9c:83:c6:3d:1d:
                    3d:00:c2:b0:29:06:c8:14:35:46:14:fe:47:86:d6:
                    1c:9f:26:ce:af:4e:24:b1:0e:31:ca:a5:f7:6f:0c:
                    18:b5:00:75:9b:2d:1d:5a:94:e0:3f:e4:26:2b:a8:
                    94:1d:11:09:1d:1e:86:56:6d:6e:00:ee:3a:17:c6:
                    08:cf:47:13:10:c2:90:96:f5:68:f7:09:ad:35:e2:
                    ba:bc:b2:c9:38:2e:83:89:36:56:4a:9d:1c:3d:a3:
                    43:83:73:90:4b:fe:d1:6c:1f:55:b0:39:03:b1:b9:
                    84:4e:e2:61:85:ec:94:c3:b4:6e:13:db:01:e4:cf:
                    ff:da:ec:fc:a1:18:d6:c2:24:63:36:bd:76:3d:80:
                    d3:78:64:54:af:4f:13:82:a4:71:60:ee:77:84:b1:
                    12:48:ec:5c:fc:48:af:6a:99:58:84:f1:dc:7f:dc:
                    aa:97:ee:7d:e3:a7:bf:f7:3e:61:de:df:41:f4:92:
                    7e:4d:72:d1:09:cb:32:55:fd:ad:37:7f:bb:3f:ea:
                    c6:f0:51:0d:3d:f8:60:37:d9:f7:ec:07:16:ab:b9:
                    39:5a:0c:91:32:80:5d:c9:a6:4a:4b:a7:90:20:db:
                    ec:dc:6d:33:e9:0c:7c:4b:59:02:26:fb:4c:eb:89:
                    f5:92:a8:a3:ad:f2:b8:eb:49:7c:3b:ce:6d:b7:3a:
                    e8:93:99:87:e8:e8:59:e4:c2:99:98:f8:d1:2c:91:
                    4b:ae:c4:2f:20:9c:08:9a:b7:af:0e:32:51:c2:52:
                    7c:3c:01:6f:e8:47:6d:01:2f:b3:90:75:69:62:f5:
                    aa:30:5a:70:bd:0c:83:bb:ac:c8:47:a3:13:1d:8b:
                    65:95:f3:6f:75:ab:a6:35:eb:e5:1e:20:4b:1c:f6:
                    a8:a7:59:e8:64:19:70:f3:52:8f:e4:5b:ca:83:85:
                    34:4f:93:4d:e6:37:90:be:9f:fb:b6:68:4b:74:de:
                    87:e1:f6:9a:99:e2:20:d0:54:2e:24:23:c7:c1:e2:
                    73:e5:cc:69:20:0c:9f:30:73:2c:c4:23:32:1b:aa:
                    4a:e7:0d:b8:0e:88:77:e1:fd:1f:7b:a7:1a:6a:cf:
                    27:fa:a9
                Exponent: 65537 (0x10001)
        X509v3 extensions:
            X509v3 Basic Constraints: 
                CA:FALSE
            Netscape Comment: 
                Easy-RSA Generated Certificate
            X509v3 Subject Key Identifier: 
                DE:85:9B:10:EF:AA:48:34:C2:14:7F:C3:6C:FA:7D:72:4B:26:FE:AA
            X509v3 Authority Key Identifier: 
                keyid:12:CD:60:04:D2:A0:80:9E:70:ED:C6:99:B8:7B:2C:C6:52:FD:19:A1
                DirName:/C=US/ST=OH/L=Columbus/O=VikingVPN/OU=MyOrganizationalUnit/CN=VikingVPN CA/name=EasyRSA/emailAddress=me@myhost.mydomain
                serial:CF:35:85:EE:80:BF:2A:3E

            X509v3 Extended Key Usage: 
                TLS Web Client Authentication
            X509v3 Key Usage: 
                Digital Signature
    Signature Algorithm: md5WithRSAEncryption
         a3:17:4d:e7:31:61:67:ad:d7:73:e4:cb:13:3c:ab:79:b6:0d:
         dd:f7:ba:7f:29:7a:f1:f3:ba:f2:aa:5c:f4:0c:ec:d8:9c:67:
         b7:93:b6:ee:7a:62:75:52:af:7b:7a:6b:0f:d6:ae:51:37:b3:
         53:dd:34:11:4f:e7:d3:e8:ff:53:d2:8a:9d:e6:0b:8b:f8:1c:
         e7:13:f4:6c:3c:76:05:95:b1:26:83:27:83:dd:8a:7f:e0:ff:
         29:75:ed:5b:7e:9f:b7:af:a9:f7:aa:bf:6e:a1:d1:e4:58:a4:
         76:4b:a3:b1:60:3b:ec:71:90:f6:e1:fd:44:42:01:8b:6f:8a:
         56:57:76:0e:8a:64:98:88:66:a8:ad:42:a8:1f:46:2e:a0:44:
         db:ad:bb:18:36:8e:15:a7:ea:ac:34:7f:52:ec:2f:ed:0a:63:
         d3:c3:c9:74:f0:bb:dd:24:22:4b:fc:71:1e:32:12:b4:53:1c:
         0c:90:56:f6:9c:c8:0d:f1:75:8c:f2:45:52:25:f6:82:95:5e:
         02:05:aa:7a:f3:6f:a1:41:a1:e1:a1:63:b1:2f:ac:43:84:c1:
         39:58:f5:ad:f1:a6:5e:92:db:f1:c6:3b:6b:a7:33:12:c8:06:
         76:a5:5c:8d:76:68:82:c7:de:88:4c:73:bd:90:d1:bd:39:45:
         11:5b:4e:5e:b6:03:87:a1:1c:76:bd:3f:00:36:ea:0b:67:dd:
         fd:9f:25:21:a2:1b:25:82:07:68:e7:54:b0:9f:7c:00:5d:53:
         1a:0e:5e:66:9b:11:bc:9d:87:7d:df:9d:ff:fc:77:65:ca:34:
         71:a2:55:2f:84:ce:1b:7f:06:be:59:6b:db:0c:44:6a:23:b3:
         57:ef:26:cf:d3:8a:09:75:99:64:c3:2a:6a:af:c6:03:25:8c:
         70:d1:71:ee:a5:a4:8d:6d:2d:29:08:0f:a4:e8:0c:47:e6:8b:
         11:83:de:68:92:9a:39:f0:b9:dd:80:42:f8:5f:19:cb:cf:16:
         ab:81:2f:1e:fa:ea:d8:19:0a:a8:99:63:bb:f0:e6:3c:b1:0d:
         44:43:0b:6a:a4:0f:83:9f:3b:81:6f:97:5d:c6:22:4b:6b:5f:
         54:aa:dc:3b:4e:5b:29:4d:e1:69:ae:4b:72:c8:72:d6:77:ed:
         53:45:00:4c:61:42:8f:86:42:4a:7f:cc:34:3a:1d:7b:49:df:
         80:78:6e:12:84:6d:d5:0e:03:ab:25:17:e1:0c:b9:af:3a:ea:
         3a:2a:f9:d1:ee:3f:b8:8f:3e:fb:11:5f:07:29:88:82:80:71:
         28:f4:ce:94:7e:3a:41:7e:51:86:01:d3:6d:e3:95:fb:e3:09:
         e3:68:73:a6:16:1c:fa:d3
-----BEGIN CERTIFICATE-----
MIIGrTCCBJWgAwIBAgICHmYwDQYJKoZIhvcNAQEEBQAwgawxCzAJBgNVBAYTAlVT
MQswCQYDVQQIEwJPSDERMA8GA1UEBxMIQ29sdW1idXMxEjAQBgNVBAoTCVZpa2lu
Z1ZQTjEdMBsGA1UECxMUTXlPcmdhbml6YXRpb25hbFVuaXQxFTATBgNVBAMTDFZp
a2luZ1ZQTiBDQTEQMA4GA1UEKRMHRWFzeVJTQTEhMB8GCSqGSIb3DQEJARYSbWVA
bXlob3N0Lm15ZG9tYWluMB4XDTE2MDQxODIzNTAyOFoXDTI2MDQxNjIzNTAyOFow
HzEdMBsGA1UEAxMUQ2xpZW50MjI2MUNlcnRiNTNkNzkwggIiMA0GCSqGSIb3DQEB
AQUAA4ICDwAwggIKAoICAQDSe/WyW+7ta04pltu04bG+BMOd0qwtB0+nqDhYMH76
sdqdTzDp+BQdo3wZ0ZaWJHuDjwxFHiU3seBsMwNw1+XZmIzEG5NAMggfY0mVHiuq
couVysNXyWXQiqcxHzlUQF5yf+ycg8Y9HT0AwrApBsgUNUYU/keG1hyfJs6vTiSx
DjHKpfdvDBi1AHWbLR1alOA/5CYrqJQdEQkdHoZWbW4A7joXxgjPRxMQwpCW9Wj3
Ca014rq8ssk4LoOJNlZKnRw9o0ODc5BL/tFsH1WwOQOxuYRO4mGF7JTDtG4T2wHk
z//a7PyhGNbCJGM2vXY9gNN4ZFSvTxOCpHFg7neEsRJI7Fz8SK9qmViE8dx/3KqX
7n3jp7/3PmHe30H0kn5NctEJyzJV/a03f7s/6sbwUQ09+GA32ffsBxaruTlaDJEy
gF3JpkpLp5Ag2+zcbTPpDHxLWQIm+0zrifWSqKOt8rjrSXw7zm23OuiTmYfo6Fnk
wpmY+NEskUuuxC8gnAiat68OMlHCUnw8AW/oR20BL7OQdWli9aowWnC9DIO7rMhH
oxMdi2WV8291q6Y16+UeIEsc9qinWehkGXDzUo/kW8qDhTRPk03mN5C+n/u2aEt0
3ofh9pqZ4iDQVC4kI8fB4nPlzGkgDJ8wcyzEIzIbqkrnDbgOiHfh/R97pxpqzyf6
qQIDAQABo4IBYzCCAV8wCQYDVR0TBAIwADAtBglghkgBhvhCAQ0EIBYeRWFzeS1S
U0EgR2VuZXJhdGVkIENlcnRpZmljYXRlMB0GA1UdDgQWBBTehZsQ76pINMIUf8Ns
+n1ySyb+qjCB4QYDVR0jBIHZMIHWgBQSzWAE0qCAnnDtxpm4eyzGUv0ZoaGBsqSB
rzCBrDELMAkGA1UEBhMCVVMxCzAJBgNVBAgTAk9IMREwDwYDVQQHEwhDb2x1bWJ1
czESMBAGA1UEChMJVmlraW5nVlBOMR0wGwYDVQQLExRNeU9yZ2FuaXphdGlvbmFs
VW5pdDEVMBMGA1UEAxMMVmlraW5nVlBOIENBMRAwDgYDVQQpEwdFYXN5UlNBMSEw
HwYJKoZIhvcNAQkBFhJtZUBteWhvc3QubXlkb21haW6CCQDPNYXugL8qPjATBgNV
HSUEDDAKBggrBgEFBQcDAjALBgNVHQ8EBAMCB4AwDQYJKoZIhvcNAQEEBQADggIB
AKMXTecxYWet13PkyxM8q3m2Dd33un8pevHzuvKqXPQM7NicZ7eTtu56YnVSr3t6
aw/WrlE3s1PdNBFP59Po/1PSip3mC4v4HOcT9Gw8dgWVsSaDJ4Pdin/g/yl17Vt+
n7evqfeqv26h0eRYpHZLo7FgO+xxkPbh/URCAYtvilZXdg6KZJiIZqitQqgfRi6g
RNutuxg2jhWn6qw0f1LsL+0KY9PDyXTwu90kIkv8cR4yErRTHAyQVvacyA3xdYzy
RVIl9oKVXgIFqnrzb6FBoeGhY7EvrEOEwTlY9a3xpl6S2/HGO2unMxLIBnalXI12
aILH3ohMc72Q0b05RRFbTl62A4ehHHa9PwA26gtn3f2fJSGiGyWCB2jnVLCffABd
UxoOXmabEbydh33fnf/8d2XKNHGiVS+Ezht/Br5Za9sMRGojs1fvJs/Tigl1mWTD
KmqvxgMljHDRce6lpI1tLSkID6ToDEfmixGD3miSmjnwud2AQvhfGcvPFquBLx76
6tgZCqiZY7vw5jyxDURDC2qkD4OfO4Fvl13GIktrX1Sq3DtOWylN4WmuS3LIctZ3
7VNFAExhQo+GQkp/zDQ6HXtJ34B4bhKEbdUOA6slF+EMua866joq+dHuP7iPPvsR
XwcpiIKAcSj0zpR+OkF+UYYB023jlfvjCeNoc6YWHPrT
-----END CERTIFICATE-----
