Certificate:
    Data:
        Version: 3 (0x2)
        Serial Number: 9973 (0x26f5)
    Signature Algorithm: sha256WithRSAEncryption
        Issuer: C=US, ST=OH, L=Columbus, O=VikingVPN, OU=MyOrganizationalUnit, CN=VikingVPN CA/name=EasyRSA/emailAddress=me@myhost.mydomain
        Validity
            Not Before: Jan 25 00:22:21 2017 GMT
            Not After : Jan 23 00:22:21 2027 GMT
        Subject: CN=Client2286Certcfa4bd
        Subject Public Key Info:
            Public Key Algorithm: rsaEncryption
                Public-Key: (4096 bit)
                Modulus:
                    00:e3:46:dd:9a:9b:60:02:c5:b5:db:40:59:cc:2c:
                    d9:a8:84:25:7c:01:0c:d3:cd:44:8e:c0:52:c5:17:
                    ea:37:b1:15:84:61:e5:3c:0d:f4:c8:49:49:7e:b4:
                    4c:c0:a4:96:22:76:84:19:b2:c6:ba:2c:b3:8d:a5:
                    45:d1:fa:81:e5:5c:2b:ab:c8:d7:17:60:f8:22:5e:
                    77:d6:27:36:fb:3e:5b:01:35:66:29:92:5e:a8:ba:
                    eb:15:1b:28:0e:43:0b:7c:c4:5a:5a:b9:47:ef:0f:
                    e8:4f:35:c5:90:8e:e9:fa:19:fd:ad:d6:7a:b5:5f:
                    4b:46:f1:8a:67:84:39:4f:59:34:be:25:fd:dd:06:
                    63:89:46:9c:bf:7d:18:a3:c9:d3:d6:b8:26:3d:c5:
                    34:17:4c:2e:34:1f:89:a7:92:9c:28:44:62:be:1f:
                    15:8d:6f:df:5f:20:58:1f:f4:66:a6:22:73:d2:10:
                    34:df:83:24:b0:1b:56:da:12:b4:0c:1d:90:85:63:
                    f3:17:08:b5:a3:a9:66:36:57:2b:7b:2a:e7:c6:71:
                    a9:9a:17:23:75:6c:29:c2:a4:53:5a:e9:ec:e8:fa:
                    5b:c8:ea:05:10:0b:0f:67:fa:26:38:d9:1b:5a:e0:
                    31:f0:0a:3c:79:3c:fa:62:95:26:06:a8:05:3a:e4:
                    c3:00:fb:34:23:e9:99:12:d1:50:f8:52:e6:7b:d1:
                    ab:7e:fd:4a:07:18:5b:77:e2:5c:58:bf:0b:e7:01:
                    e7:0f:e0:cb:3d:29:c8:42:9e:9c:aa:20:2b:ba:1b:
                    2e:69:bc:17:ed:55:4d:64:20:9f:7a:8d:f5:17:46:
                    be:a8:0d:ec:05:9c:a4:72:5c:8c:e4:04:b2:3b:2b:
                    7a:81:87:f7:ff:04:e3:8d:7f:8c:af:2b:98:58:16:
                    94:e2:4c:26:9f:60:5e:e8:20:98:87:39:66:fd:1e:
                    c5:62:8a:db:f2:58:11:4f:a2:df:0b:4c:4f:5f:4d:
                    87:8e:49:75:8c:39:04:9c:65:a0:c9:08:f4:72:01:
                    6a:6c:a6:18:20:0c:59:0a:0e:e9:85:d1:e0:92:62:
                    dd:63:79:7e:df:7c:0f:f6:44:0e:68:ef:66:35:97:
                    85:c1:31:b9:2b:e8:f6:e8:ae:f7:e3:82:de:33:91:
                    a1:8f:19:9e:6a:92:28:23:56:c6:25:d5:35:23:2c:
                    02:93:7f:2a:8a:d8:d0:ef:6a:d2:53:b3:27:47:a9:
                    53:76:6c:53:d7:a1:8b:51:16:f8:17:08:91:51:4b:
                    3c:16:10:75:99:00:8d:a6:f3:40:fd:3b:a7:df:15:
                    5f:6b:c9:57:83:11:31:3d:4b:7b:4b:f0:d2:61:ce:
                    9d:c4:77
                Exponent: 65537 (0x10001)
        X509v3 extensions:
            X509v3 Basic Constraints: 
                CA:FALSE
            Netscape Comment: 
                Easy-RSA Generated Certificate
            X509v3 Subject Key Identifier: 
                B4:A8:E7:2C:EE:16:2C:43:A9:DA:42:3D:27:F9:9F:E1:8B:66:F7:01
            X509v3 Authority Key Identifier: 
                keyid:12:CD:60:04:D2:A0:80:9E:70:ED:C6:99:B8:7B:2C:C6:52:FD:19:A1
                DirName:/C=US/ST=OH/L=Columbus/O=VikingVPN/OU=MyOrganizationalUnit/CN=VikingVPN CA/name=EasyRSA/emailAddress=me@myhost.mydomain
                serial:CF:35:85:EE:80:BF:2A:3E

            X509v3 Extended Key Usage: 
                TLS Web Client Authentication
            X509v3 Key Usage: 
                Digital Signature
    Signature Algorithm: sha256WithRSAEncryption
         6a:d6:52:19:59:4d:1b:d1:0f:24:0c:72:e3:c6:84:13:6a:37:
         27:f6:f1:0b:08:6d:11:ec:c3:1b:20:44:7a:8f:1c:7d:80:7f:
         ae:03:d3:fb:f2:15:ef:8e:fd:b9:04:01:24:f9:4a:d6:1d:22:
         da:2b:c0:ac:74:17:51:18:9a:ca:87:54:8d:8c:99:b0:2a:3d:
         74:f0:e7:2e:61:5e:76:03:5e:53:af:d4:f0:53:a7:e2:f2:f6:
         d9:72:1f:61:74:e7:a8:ec:4e:b9:f3:a4:a9:2e:80:da:40:4b:
         ef:75:9c:51:17:79:e8:3c:f5:e5:19:33:69:eb:23:a5:b7:44:
         b7:39:fe:19:c0:fb:f6:9f:7d:51:95:38:03:0e:ee:c2:ad:43:
         6d:c5:57:b1:30:6d:25:77:dc:51:e0:6b:6a:f9:ea:9b:51:b5:
         7a:d9:1c:d6:b1:f9:38:01:7c:96:93:4f:3e:9a:79:ec:0d:96:
         1a:dc:51:8c:12:ca:c1:0a:83:e1:ea:20:a2:0e:cd:a8:10:ee:
         a1:56:02:ab:c5:d6:1a:a7:2f:1f:aa:1e:78:31:83:b4:8b:bf:
         82:cb:65:eb:19:07:6b:c8:e1:33:13:30:67:8a:62:75:10:0e:
         6a:a5:81:88:52:f3:6d:d7:2c:1b:62:b3:f3:27:52:42:54:cf:
         b7:f3:1b:fa:8f:b7:1c:cb:e0:56:32:e5:f1:fc:a0:30:ee:25:
         eb:c3:89:42:05:21:53:b0:76:95:ba:94:c7:ad:cc:cb:e5:43:
         06:ec:8d:02:69:5c:c6:5b:f0:04:0f:db:01:a7:57:ef:4f:48:
         d9:bd:48:63:df:c3:26:b4:d6:0e:9e:80:d7:e2:db:9d:1e:3b:
         35:30:61:97:66:ca:9b:99:1c:da:03:e9:a6:60:be:2f:fd:aa:
         3b:a3:84:29:5a:d6:ec:97:9b:c9:54:6a:0d:d4:e1:37:ba:d6:
         9e:d9:a6:2d:14:a8:0b:9e:eb:6d:b9:85:bf:2f:f0:3e:f1:42:
         5a:07:ce:39:c4:d1:46:4b:39:ec:79:62:f0:0e:d9:4c:10:74:
         8a:0a:e3:be:33:9e:40:af:5b:3b:50:49:0d:52:eb:8f:b7:f0:
         0b:fd:2a:97:33:47:50:84:8c:96:c4:2c:d0:3a:b7:b5:41:b4:
         5c:53:f8:82:bf:c8:48:a9:96:9d:71:55:c9:b9:d5:c9:a3:6a:
         bb:be:3d:e1:5e:fe:7c:9a:d7:df:b9:0e:be:7d:a6:20:02:08:
         5b:cb:5c:12:ab:7a:e0:15:d7:c2:59:e8:ef:ad:fa:29:ae:20:
         2f:0b:9e:f5:ed:86:7d:44:bc:fd:13:f8:1f:3e:81:67:8c:98:
         7b:49:19:74:ad:cd:9b:0d
-----BEGIN CERTIFICATE-----
MIIGrTCCBJWgAwIBAgICJvUwDQYJKoZIhvcNAQELBQAwgawxCzAJBgNVBAYTAlVT
MQswCQYDVQQIEwJPSDERMA8GA1UEBxMIQ29sdW1idXMxEjAQBgNVBAoTCVZpa2lu
Z1ZQTjEdMBsGA1UECxMUTXlPcmdhbml6YXRpb25hbFVuaXQxFTATBgNVBAMTDFZp
a2luZ1ZQTiBDQTEQMA4GA1UEKRMHRWFzeVJTQTEhMB8GCSqGSIb3DQEJARYSbWVA
bXlob3N0Lm15ZG9tYWluMB4XDTE3MDEyNTAwMjIyMVoXDTI3MDEyMzAwMjIyMVow
HzEdMBsGA1UEAxMUQ2xpZW50MjI4NkNlcnRjZmE0YmQwggIiMA0GCSqGSIb3DQEB
AQUAA4ICDwAwggIKAoICAQDjRt2am2ACxbXbQFnMLNmohCV8AQzTzUSOwFLFF+o3
sRWEYeU8DfTISUl+tEzApJYidoQZssa6LLONpUXR+oHlXCuryNcXYPgiXnfWJzb7
PlsBNWYpkl6ouusVGygOQwt8xFpauUfvD+hPNcWQjun6Gf2t1nq1X0tG8YpnhDlP
WTS+Jf3dBmOJRpy/fRijydPWuCY9xTQXTC40H4mnkpwoRGK+HxWNb99fIFgf9Gam
InPSEDTfgySwG1baErQMHZCFY/MXCLWjqWY2Vyt7KufGcamaFyN1bCnCpFNa6ezo
+lvI6gUQCw9n+iY42Rta4DHwCjx5PPpilSYGqAU65MMA+zQj6ZkS0VD4UuZ70at+
/UoHGFt34lxYvwvnAecP4Ms9KchCnpyqICu6Gy5pvBftVU1kIJ96jfUXRr6oDewF
nKRyXIzkBLI7K3qBh/f/BOONf4yvK5hYFpTiTCafYF7oIJiHOWb9HsViitvyWBFP
ot8LTE9fTYeOSXWMOQScZaDJCPRyAWpsphggDFkKDumF0eCSYt1jeX7ffA/2RA5o
72Y1l4XBMbkr6Pborvfjgt4zkaGPGZ5qkigjVsYl1TUjLAKTfyqK2NDvatJTsydH
qVN2bFPXoYtRFvgXCJFRSzwWEHWZAI2m80D9O6ffFV9ryVeDETE9S3tL8NJhzp3E
dwIDAQABo4IBYzCCAV8wCQYDVR0TBAIwADAtBglghkgBhvhCAQ0EIBYeRWFzeS1S
U0EgR2VuZXJhdGVkIENlcnRpZmljYXRlMB0GA1UdDgQWBBS0qOcs7hYsQ6naQj0n
+Z/hi2b3ATCB4QYDVR0jBIHZMIHWgBQSzWAE0qCAnnDtxpm4eyzGUv0ZoaGBsqSB
rzCBrDELMAkGA1UEBhMCVVMxCzAJBgNVBAgTAk9IMREwDwYDVQQHEwhDb2x1bWJ1
czESMBAGA1UEChMJVmlraW5nVlBOMR0wGwYDVQQLExRNeU9yZ2FuaXphdGlvbmFs
VW5pdDEVMBMGA1UEAxMMVmlraW5nVlBOIENBMRAwDgYDVQQpEwdFYXN5UlNBMSEw
HwYJKoZIhvcNAQkBFhJtZUBteWhvc3QubXlkb21haW6CCQDPNYXugL8qPjATBgNV
HSUEDDAKBggrBgEFBQcDAjALBgNVHQ8EBAMCB4AwDQYJKoZIhvcNAQELBQADggIB
AGrWUhlZTRvRDyQMcuPGhBNqNyf28QsIbRHswxsgRHqPHH2Af64D0/vyFe+O/bkE
AST5StYdItorwKx0F1EYmsqHVI2MmbAqPXTw5y5hXnYDXlOv1PBTp+Ly9tlyH2F0
56jsTrnzpKkugNpAS+91nFEXeeg89eUZM2nrI6W3RLc5/hnA+/affVGVOAMO7sKt
Q23FV7EwbSV33FHga2r56ptRtXrZHNax+TgBfJaTTz6aeewNlhrcUYwSysEKg+Hq
IKIOzagQ7qFWAqvF1hqnLx+qHngxg7SLv4LLZesZB2vI4TMTMGeKYnUQDmqlgYhS
823XLBtis/MnUkJUz7fzG/qPtxzL4FYy5fH8oDDuJevDiUIFIVOwdpW6lMetzMvl
QwbsjQJpXMZb8AQP2wGnV+9PSNm9SGPfwya01g6egNfi250eOzUwYZdmypuZHNoD
6aZgvi/9qjujhCla1uyXm8lUag3U4Te61p7Zpi0UqAue6225hb8v8D7xQloHzjnE
0UZLOex5YvAO2UwQdIoK474znkCvWztQSQ1S64+38Av9KpczR1CEjJbELNA6t7VB
tFxT+IK/yEiplp1xVcm51cmjaru+PeFe/nya19+5Dr59piACCFvLXBKreuAV18JZ
6O+t+imuIC8LnvXthn1EvP0T+B8+gWeMmHtJGXStzZsN
-----END CERTIFICATE-----
