Certificate:
    Data:
        Version: 3 (0x2)
        Serial Number: 1612 (0x64c)
    Signature Algorithm: md5WithRSAEncryption
        Issuer: C=US, ST=OH, L=Columbus, O=VikingVPN, OU=MyOrganizationalUnit, CN=VikingVPN CA/name=EasyRSA/emailAddress=me@myhost.mydomain
        Validity
            Not Before: Apr 15 03:35:33 2014 GMT
            Not After : Apr 12 03:35:33 2024 GMT
        Subject: CN=Client583Cert876d11
        Subject Public Key Info:
            Public Key Algorithm: rsaEncryption
                Public-Key: (4096 bit)
                Modulus:
                    00:a8:a1:85:22:11:ef:12:c5:24:42:91:1a:55:4e:
                    b8:7f:ea:b5:b0:0d:e4:b6:1c:3f:fc:95:ab:2f:1c:
                    f8:9b:d8:c6:66:ef:40:51:5f:43:5c:ff:e3:c1:cf:
                    d8:94:0d:5e:ef:e2:5c:3c:1b:1b:03:62:4a:c3:ae:
                    b5:17:67:d2:46:cd:90:ea:1f:5f:04:16:d2:09:97:
                    3b:43:99:39:65:84:6f:59:c0:ab:63:97:b3:51:ff:
                    5f:c0:e4:46:70:15:05:8a:20:d9:37:ec:78:ca:fe:
                    6f:26:84:9b:c1:5c:26:e6:c6:de:45:fa:01:4d:17:
                    d8:5d:c6:bb:84:35:90:47:09:d7:c9:4a:81:5b:79:
                    dc:9f:e5:e5:ad:5d:bb:9e:43:85:d4:26:44:d8:33:
                    e5:85:9a:7c:bc:5c:be:9b:6f:01:e1:ae:9f:b0:01:
                    14:39:21:c9:fd:37:cc:30:48:97:e7:c9:ad:d1:7a:
                    43:ba:f5:f2:1e:8f:7c:f5:1a:41:ec:af:4a:91:99:
                    35:f6:ae:ca:48:9e:49:ef:3f:e0:86:82:2f:e5:c4:
                    15:69:4d:4e:f1:49:78:e1:f1:f4:0d:b7:30:b0:89:
                    f2:42:2d:53:f3:07:6e:d2:f4:79:72:24:c1:b3:fc:
                    1e:9e:c2:a9:3e:c3:f6:4e:e1:51:43:d0:62:4b:70:
                    80:a4:f6:f0:5f:de:e1:61:54:13:e1:f5:7d:99:55:
                    77:84:2d:bd:b4:e3:49:9d:8c:00:72:0a:53:e4:6c:
                    a7:b4:c3:66:75:f3:9a:41:bc:6c:ad:b8:8c:69:de:
                    fd:a6:44:33:3d:82:d9:3a:8a:f7:ba:b0:ef:d3:ee:
                    9f:de:f2:65:5f:40:9a:9c:38:1c:47:90:04:9b:7c:
                    1a:05:af:62:62:4b:1d:5d:8d:77:a6:cc:be:ea:7e:
                    31:8c:da:92:c1:51:13:33:8b:fb:b8:56:dc:0d:d2:
                    1e:b5:12:4a:f5:3e:de:b3:2e:d4:99:dd:7b:2c:32:
                    67:ef:b8:4b:b4:22:6b:11:e3:2e:53:64:04:e6:63:
                    36:bd:48:87:8d:74:e9:d3:e9:7a:36:fd:09:aa:d7:
                    a9:10:6c:b9:c4:f8:cf:80:cd:94:c2:cc:d8:eb:59:
                    f8:17:10:3b:22:0f:8e:fc:22:56:db:59:51:48:5f:
                    ba:b4:ea:48:a4:b2:ab:9b:5e:ae:44:41:c2:8a:63:
                    cf:18:d6:00:e7:2d:5d:ba:24:e1:b4:3a:63:20:5e:
                    99:ed:f6:3b:33:df:1a:96:16:65:57:4b:64:cf:70:
                    36:35:c9:d5:eb:9d:82:4f:1b:6e:51:cf:d6:79:87:
                    cb:77:bc:ba:34:5e:59:f7:52:56:5a:7a:49:b8:05:
                    db:b0:39
                Exponent: 65537 (0x10001)
        X509v3 extensions:
            X509v3 Basic Constraints: 
                CA:FALSE
            Netscape Comment: 
                Easy-RSA Generated Certificate
            X509v3 Subject Key Identifier: 
                10:05:2C:AA:65:02:EF:70:35:E3:5C:B0:0E:2F:F3:FB:8B:66:30:80
            X509v3 Authority Key Identifier: 
                keyid:12:CD:60:04:D2:A0:80:9E:70:ED:C6:99:B8:7B:2C:C6:52:FD:19:A1
                DirName:/C=US/ST=OH/L=Columbus/O=VikingVPN/OU=MyOrganizationalUnit/CN=VikingVPN CA/name=EasyRSA/emailAddress=me@myhost.mydomain
                serial:CF:35:85:EE:80:BF:2A:3E

            X509v3 Extended Key Usage: 
                TLS Web Client Authentication
            X509v3 Key Usage: 
                Digital Signature
    Signature Algorithm: md5WithRSAEncryption
         91:61:86:89:dd:41:28:37:0d:7b:b9:42:ee:f6:5d:47:25:68:
         4c:bd:d1:e5:5e:2a:9f:ae:79:cf:58:4a:1e:dc:f3:3b:e1:cf:
         c7:62:3e:cf:05:2b:1f:21:40:23:02:11:de:92:3d:d2:f0:39:
         07:25:ea:b3:21:df:fb:3d:ea:0e:ed:5a:ea:55:83:5c:1c:05:
         5e:2e:da:8e:b7:8d:68:d9:39:2f:5a:01:53:ee:c7:a9:06:08:
         ea:5d:e8:88:61:2f:6e:61:67:67:23:35:14:4c:f7:14:bd:2c:
         eb:b2:9e:e0:ad:e0:f1:34:85:07:95:4a:d5:17:30:38:cf:c5:
         6e:fc:e4:6e:c6:6f:72:ba:43:e5:17:b6:ca:c7:a7:c7:26:b3:
         ad:e3:45:96:3c:5f:d1:19:a2:2d:58:da:12:76:b2:0b:66:35:
         e0:e9:3e:d8:96:23:08:8a:a7:d4:08:95:3a:2a:af:d5:45:09:
         88:eb:7a:51:af:46:01:55:01:50:9f:c0:28:54:8e:78:91:92:
         d4:e4:70:11:94:ac:00:93:bc:9a:8a:14:d4:d2:f5:33:ae:7e:
         69:c6:e0:0e:23:9b:a1:7d:46:78:fd:f4:9a:02:47:a7:7d:6c:
         b0:6a:c7:a2:f7:4f:33:56:96:a0:d5:25:fa:2e:2b:db:4d:2e:
         d4:56:4f:6f:ae:c2:77:1e:19:3e:0f:a6:78:02:a4:7f:3e:4e:
         14:61:bf:04:8b:fe:6d:06:e9:4f:f5:a4:e2:c0:24:12:c2:a7:
         24:4f:d6:1e:f3:c4:b0:da:f9:c4:d1:27:63:f9:9c:ff:48:93:
         7c:4e:ed:c8:a1:2d:7f:4e:ff:33:c2:66:c5:56:f6:63:c0:98:
         89:5e:46:ea:de:ae:cb:17:23:23:29:5d:0d:cc:34:aa:31:06:
         61:61:a1:36:c5:ff:69:0f:45:55:f3:1d:b9:81:85:51:3c:5a:
         64:29:88:d2:ad:53:8c:fe:e3:ef:7f:25:cb:0e:1a:01:04:12:
         84:c9:6f:51:07:60:15:7a:aa:f1:e3:b7:43:95:3d:26:08:60:
         49:ec:43:e6:e9:9a:f3:04:87:f9:a9:22:f0:9e:13:10:04:5b:
         c3:2f:58:8f:3d:5a:cc:05:ff:b3:3f:77:8f:ad:b1:a3:38:4a:
         c0:00:39:27:f1:11:e4:1d:fb:c5:19:a4:2d:c1:58:86:c6:0d:
         84:c6:ed:45:3c:46:1f:21:96:b8:f2:ad:d3:8a:39:fa:ab:90:
         3d:bc:63:f3:8e:ab:fd:04:10:32:ec:17:c5:0d:57:14:60:2b:
         d6:75:a1:2c:5c:d2:52:6a:84:35:46:e7:cb:bd:53:56:6b:81:
         a1:2f:ab:71:2f:6b:8a:f6
-----BEGIN CERTIFICATE-----
MIIGrDCCBJSgAwIBAgICBkwwDQYJKoZIhvcNAQEEBQAwgawxCzAJBgNVBAYTAlVT
MQswCQYDVQQIEwJPSDERMA8GA1UEBxMIQ29sdW1idXMxEjAQBgNVBAoTCVZpa2lu
Z1ZQTjEdMBsGA1UECxMUTXlPcmdhbml6YXRpb25hbFVuaXQxFTATBgNVBAMTDFZp
a2luZ1ZQTiBDQTEQMA4GA1UEKRMHRWFzeVJTQTEhMB8GCSqGSIb3DQEJARYSbWVA
bXlob3N0Lm15ZG9tYWluMB4XDTE0MDQxNTAzMzUzM1oXDTI0MDQxMjAzMzUzM1ow
HjEcMBoGA1UEAxMTQ2xpZW50NTgzQ2VydDg3NmQxMTCCAiIwDQYJKoZIhvcNAQEB
BQADggIPADCCAgoCggIBAKihhSIR7xLFJEKRGlVOuH/qtbAN5LYcP/yVqy8c+JvY
xmbvQFFfQ1z/48HP2JQNXu/iXDwbGwNiSsOutRdn0kbNkOofXwQW0gmXO0OZOWWE
b1nAq2OXs1H/X8DkRnAVBYog2TfseMr+byaEm8FcJubG3kX6AU0X2F3Gu4Q1kEcJ
18lKgVt53J/l5a1du55DhdQmRNgz5YWafLxcvptvAeGun7ABFDkhyf03zDBIl+fJ
rdF6Q7r18h6PfPUaQeyvSpGZNfauykieSe8/4IaCL+XEFWlNTvFJeOHx9A23MLCJ
8kItU/MHbtL0eXIkwbP8Hp7CqT7D9k7hUUPQYktwgKT28F/e4WFUE+H1fZlVd4Qt
vbTjSZ2MAHIKU+Rsp7TDZnXzmkG8bK24jGne/aZEMz2C2TqK97qw79Pun97yZV9A
mpw4HEeQBJt8GgWvYmJLHV2Nd6bMvup+MYzaksFREzOL+7hW3A3SHrUSSvU+3rMu
1JndeywyZ++4S7QiaxHjLlNkBOZjNr1Ih4106dPpejb9CarXqRBsucT4z4DNlMLM
2OtZ+BcQOyIPjvwiVttZUUhfurTqSKSyq5terkRBwopjzxjWAOctXbok4bQ6YyBe
me32OzPfGpYWZVdLZM9wNjXJ1eudgk8bblHP1nmHy3e8ujReWfdSVlp6SbgF27A5
AgMBAAGjggFjMIIBXzAJBgNVHRMEAjAAMC0GCWCGSAGG+EIBDQQgFh5FYXN5LVJT
QSBHZW5lcmF0ZWQgQ2VydGlmaWNhdGUwHQYDVR0OBBYEFBAFLKplAu9wNeNcsA4v
8/uLZjCAMIHhBgNVHSMEgdkwgdaAFBLNYATSoICecO3Gmbh7LMZS/RmhoYGypIGv
MIGsMQswCQYDVQQGEwJVUzELMAkGA1UECBMCT0gxETAPBgNVBAcTCENvbHVtYnVz
MRIwEAYDVQQKEwlWaWtpbmdWUE4xHTAbBgNVBAsTFE15T3JnYW5pemF0aW9uYWxV
bml0MRUwEwYDVQQDEwxWaWtpbmdWUE4gQ0ExEDAOBgNVBCkTB0Vhc3lSU0ExITAf
BgkqhkiG9w0BCQEWEm1lQG15aG9zdC5teWRvbWFpboIJAM81he6Avyo+MBMGA1Ud
JQQMMAoGCCsGAQUFBwMCMAsGA1UdDwQEAwIHgDANBgkqhkiG9w0BAQQFAAOCAgEA
kWGGid1BKDcNe7lC7vZdRyVoTL3R5V4qn655z1hKHtzzO+HPx2I+zwUrHyFAIwIR
3pI90vA5ByXqsyHf+z3qDu1a6lWDXBwFXi7ajreNaNk5L1oBU+7HqQYI6l3oiGEv
bmFnZyM1FEz3FL0s67Ke4K3g8TSFB5VK1RcwOM/FbvzkbsZvcrpD5Re2ysenxyaz
reNFljxf0RmiLVjaEnayC2Y14Ok+2JYjCIqn1AiVOiqv1UUJiOt6Ua9GAVUBUJ/A
KFSOeJGS1ORwEZSsAJO8mooU1NL1M65+acbgDiOboX1GeP30mgJHp31ssGrHovdP
M1aWoNUl+i4r200u1FZPb67Cdx4ZPg+meAKkfz5OFGG/BIv+bQbpT/Wk4sAkEsKn
JE/WHvPEsNr5xNEnY/mc/0iTfE7tyKEtf07/M8JmxVb2Y8CYiV5G6t6uyxcjIyld
Dcw0qjEGYWGhNsX/aQ9FVfMduYGFUTxaZCmI0q1TjP7j738lyw4aAQQShMlvUQdg
FXqq8eO3Q5U9JghgSexD5uma8wSH+aki8J4TEARbwy9Yjz1azAX/sz93j62xozhK
wAA5J/ER5B37xRmkLcFYhsYNhMbtRTxGHyGWuPKt04o5+quQPbxj846r/QQQMuwX
xQ1XFGAr1nWhLFzSUmqENUbny71TVmuBoS+rcS9rivY=
-----END CERTIFICATE-----
