Certificate:
    Data:
        Version: 3 (0x2)
        Serial Number: 1763 (0x6e3)
    Signature Algorithm: md5WithRSAEncryption
        Issuer: C=US, ST=OH, L=Columbus, O=VikingVPN, OU=MyOrganizationalUnit, CN=VikingVPN CA/name=EasyRSA/emailAddress=me@myhost.mydomain
        Validity
            Not Before: Apr 29 08:01:47 2014 GMT
            Not After : Apr 26 08:01:47 2024 GMT
        Subject: CN=Client619Cert762d07
        Subject Public Key Info:
            Public Key Algorithm: rsaEncryption
                Public-Key: (4096 bit)
                Modulus:
                    00:e1:6e:4e:c8:3d:67:87:5e:11:fa:cf:f1:d9:6c:
                    17:b8:c6:46:7b:49:a5:6f:8d:a4:8a:33:75:f1:35:
                    b7:f8:49:e1:33:0b:75:e0:13:14:11:68:91:86:fc:
                    55:f3:a5:0d:5d:0f:49:84:ac:75:10:45:f7:49:34:
                    e7:5d:55:11:62:a3:69:7b:8a:c2:98:2e:4e:af:d3:
                    56:aa:e8:74:3e:ac:2b:e5:8e:89:80:02:23:ff:17:
                    21:49:8f:e3:e5:3c:15:5c:eb:75:71:cf:8a:19:79:
                    ca:13:b9:30:a8:7c:04:7d:d7:43:f8:a9:f3:74:64:
                    1f:8c:0d:e4:f7:b9:b5:dd:1d:b1:6c:60:4f:a5:78:
                    fc:5f:36:da:9d:03:e4:ef:ed:43:73:01:63:a3:05:
                    95:77:07:fa:72:ad:bc:cd:d0:19:74:ff:d8:e2:c8:
                    71:31:13:f2:63:f8:72:a7:38:5b:5a:59:34:02:e8:
                    19:97:3f:63:41:1b:ae:3a:bd:2d:3e:a9:37:79:4b:
                    c2:29:6c:7d:9b:15:60:94:e9:32:de:38:27:a3:54:
                    c8:96:61:13:be:77:e6:bd:67:a9:1f:12:fe:3c:58:
                    db:a5:e1:d6:fa:dd:76:b2:8b:c1:2b:b8:74:9f:c3:
                    de:de:5c:5c:fb:be:dd:a3:08:37:10:97:d4:4f:31:
                    c1:40:83:a9:94:a5:a7:d5:69:17:23:d4:82:4d:5e:
                    01:ba:b9:e6:8f:b6:03:fd:6e:53:31:6b:9b:74:4b:
                    75:82:a8:7d:f1:cd:e6:02:5b:c3:bb:97:55:be:01:
                    f8:43:54:3d:8a:d8:b9:11:cd:14:42:49:ad:4e:27:
                    a8:19:54:c4:c5:2e:90:ba:85:92:72:20:e2:e3:03:
                    67:07:1f:f3:91:66:bf:a9:1b:a6:67:23:db:43:9c:
                    64:b9:f9:ac:4a:3a:ed:64:77:ea:d9:34:83:4d:23:
                    fe:26:09:32:54:be:cc:cc:fa:97:df:bb:67:79:0d:
                    fc:6a:99:5c:7a:c1:e6:e3:0b:4b:c6:28:97:57:45:
                    56:46:57:94:61:d5:20:66:88:a3:e2:15:da:cb:4c:
                    5b:28:42:46:48:d0:ff:97:0f:18:da:34:34:f4:6d:
                    29:7e:12:7f:48:5f:09:90:a6:9d:62:16:2e:29:7b:
                    d7:db:d4:b4:19:a1:42:01:5d:c6:f9:a6:4d:ec:e1:
                    db:c1:88:9f:d2:96:19:cf:d8:fc:41:be:a1:fa:83:
                    4a:81:6e:ca:64:9c:5b:75:58:7e:f7:76:28:fd:e6:
                    e0:a9:7d:27:2b:a8:0a:89:16:81:7a:bd:91:7f:a4:
                    81:34:94:15:b2:c4:1a:ca:e6:13:6d:29:95:b5:69:
                    5c:87:73
                Exponent: 65537 (0x10001)
        X509v3 extensions:
            X509v3 Basic Constraints: 
                CA:FALSE
            Netscape Comment: 
                Easy-RSA Generated Certificate
            X509v3 Subject Key Identifier: 
                4C:95:7C:F8:1F:5D:F0:5E:FB:66:44:CE:4C:5F:4F:CE:D1:A9:04:A0
            X509v3 Authority Key Identifier: 
                keyid:12:CD:60:04:D2:A0:80:9E:70:ED:C6:99:B8:7B:2C:C6:52:FD:19:A1
                DirName:/C=US/ST=OH/L=Columbus/O=VikingVPN/OU=MyOrganizationalUnit/CN=VikingVPN CA/name=EasyRSA/emailAddress=me@myhost.mydomain
                serial:CF:35:85:EE:80:BF:2A:3E

            X509v3 Extended Key Usage: 
                TLS Web Client Authentication
            X509v3 Key Usage: 
                Digital Signature
    Signature Algorithm: md5WithRSAEncryption
         80:9a:56:c3:a8:56:33:c7:f4:48:3d:db:f1:be:c1:3e:68:53:
         30:68:72:17:9d:a3:19:04:fe:06:05:74:39:c4:9d:cd:43:fe:
         98:40:bc:df:50:ef:ad:b1:03:33:26:1e:4a:02:6d:59:e2:19:
         83:95:25:de:70:89:cb:5a:7e:a3:20:ba:ac:20:9c:28:89:50:
         66:8e:41:b2:68:65:a1:89:ca:ff:bf:27:5a:df:cd:4e:35:e6:
         0b:95:cc:24:fc:27:44:38:09:dd:50:df:29:67:4f:a6:a3:ab:
         6c:7f:3c:9c:2b:f5:e7:48:a7:46:ab:de:58:48:8b:28:28:5e:
         aa:1c:15:ce:fa:a1:3a:b2:fd:6e:9d:9c:d4:5a:cc:10:f7:a1:
         4d:f7:15:54:8c:81:bc:39:f1:83:44:c0:5c:42:01:d5:0a:fb:
         b3:02:a6:e3:e5:ac:a6:d5:bb:70:98:3f:99:2c:9a:45:84:22:
         5c:4b:87:79:88:83:9a:d4:8c:23:f9:87:3b:a3:cf:88:9d:4e:
         76:6d:23:2e:46:9e:84:5c:8a:e5:fe:a0:db:3d:e5:60:49:d8:
         9d:2d:1c:ce:bd:ed:72:ac:74:1c:63:dc:bd:3a:e0:2e:f0:d6:
         8e:60:21:95:f5:a0:24:55:57:3a:01:56:e0:b9:b2:06:27:9c:
         ab:06:68:d4:e7:d6:6f:5e:6c:24:f8:c9:b9:6c:44:f6:4f:3c:
         b6:e6:2a:4e:fd:be:1d:2b:31:9f:1f:e7:8e:0f:4c:f6:13:61:
         83:a1:84:04:24:d8:70:51:a2:2a:e4:d6:53:2c:2d:91:fe:83:
         aa:3e:e6:46:71:d1:d6:0f:1c:01:59:63:f1:d2:c0:99:19:b5:
         5f:91:90:14:44:13:78:2d:94:d4:4e:47:f8:4f:2f:fd:cf:1e:
         2b:17:6d:b0:a2:1a:c6:b0:c0:9f:4c:b7:cc:9d:1b:b1:e0:66:
         cb:ea:04:1a:10:8c:10:4e:17:b1:2d:b8:e1:45:01:0b:8d:a1:
         5d:1a:77:93:aa:2c:11:74:c2:a7:e6:e4:8e:b4:7b:c6:65:1b:
         82:82:ad:c4:6d:71:2e:01:b1:3d:78:b6:d3:e2:88:48:3a:81:
         28:4a:a4:e5:82:58:59:2f:65:5d:57:f5:c0:ee:20:8b:25:63:
         bb:ee:c6:0a:2f:12:b0:dc:ff:76:c0:86:91:2b:d7:da:19:77:
         9c:bb:27:c6:1f:ca:2c:26:ed:3e:15:cf:b6:43:5a:cf:4e:9f:
         b5:9a:24:c6:d2:38:07:d0:e8:a4:e9:6f:bc:45:1c:c7:b5:39:
         31:4c:9a:fb:d7:c8:51:3c:bc:f0:2d:64:18:0d:ec:1e:c0:0a:
         5c:03:14:cd:80:a0:2c:4f
-----BEGIN CERTIFICATE-----
MIIGrDCCBJSgAwIBAgICBuMwDQYJKoZIhvcNAQEEBQAwgawxCzAJBgNVBAYTAlVT
MQswCQYDVQQIEwJPSDERMA8GA1UEBxMIQ29sdW1idXMxEjAQBgNVBAoTCVZpa2lu
Z1ZQTjEdMBsGA1UECxMUTXlPcmdhbml6YXRpb25hbFVuaXQxFTATBgNVBAMTDFZp
a2luZ1ZQTiBDQTEQMA4GA1UEKRMHRWFzeVJTQTEhMB8GCSqGSIb3DQEJARYSbWVA
bXlob3N0Lm15ZG9tYWluMB4XDTE0MDQyOTA4MDE0N1oXDTI0MDQyNjA4MDE0N1ow
HjEcMBoGA1UEAxMTQ2xpZW50NjE5Q2VydDc2MmQwNzCCAiIwDQYJKoZIhvcNAQEB
BQADggIPADCCAgoCggIBAOFuTsg9Z4deEfrP8dlsF7jGRntJpW+NpIozdfE1t/hJ
4TMLdeATFBFokYb8VfOlDV0PSYSsdRBF90k0511VEWKjaXuKwpguTq/TVqrodD6s
K+WOiYACI/8XIUmP4+U8FVzrdXHPihl5yhO5MKh8BH3XQ/ip83RkH4wN5Pe5td0d
sWxgT6V4/F822p0D5O/tQ3MBY6MFlXcH+nKtvM3QGXT/2OLIcTET8mP4cqc4W1pZ
NALoGZc/Y0Ebrjq9LT6pN3lLwilsfZsVYJTpMt44J6NUyJZhE7535r1nqR8S/jxY
26Xh1vrddrKLwSu4dJ/D3t5cXPu+3aMINxCX1E8xwUCDqZSlp9VpFyPUgk1eAbq5
5o+2A/1uUzFrm3RLdYKoffHN5gJbw7uXVb4B+ENUPYrYuRHNFEJJrU4nqBlUxMUu
kLqFknIg4uMDZwcf85Fmv6kbpmcj20OcZLn5rEo67WR36tk0g00j/iYJMlS+zMz6
l9+7Z3kN/GqZXHrB5uMLS8Yol1dFVkZXlGHVIGaIo+IV2stMWyhCRkjQ/5cPGNo0
NPRtKX4Sf0hfCZCmnWIWLil719vUtBmhQgFdxvmmTezh28GIn9KWGc/Y/EG+ofqD
SoFuymScW3VYfvd2KP3m4Kl9JyuoCokWgXq9kX+kgTSUFbLEGsrmE20plbVpXIdz
AgMBAAGjggFjMIIBXzAJBgNVHRMEAjAAMC0GCWCGSAGG+EIBDQQgFh5FYXN5LVJT
QSBHZW5lcmF0ZWQgQ2VydGlmaWNhdGUwHQYDVR0OBBYEFEyVfPgfXfBe+2ZEzkxf
T87RqQSgMIHhBgNVHSMEgdkwgdaAFBLNYATSoICecO3Gmbh7LMZS/RmhoYGypIGv
MIGsMQswCQYDVQQGEwJVUzELMAkGA1UECBMCT0gxETAPBgNVBAcTCENvbHVtYnVz
MRIwEAYDVQQKEwlWaWtpbmdWUE4xHTAbBgNVBAsTFE15T3JnYW5pemF0aW9uYWxV
bml0MRUwEwYDVQQDEwxWaWtpbmdWUE4gQ0ExEDAOBgNVBCkTB0Vhc3lSU0ExITAf
BgkqhkiG9w0BCQEWEm1lQG15aG9zdC5teWRvbWFpboIJAM81he6Avyo+MBMGA1Ud
JQQMMAoGCCsGAQUFBwMCMAsGA1UdDwQEAwIHgDANBgkqhkiG9w0BAQQFAAOCAgEA
gJpWw6hWM8f0SD3b8b7BPmhTMGhyF52jGQT+BgV0OcSdzUP+mEC831DvrbEDMyYe
SgJtWeIZg5Ul3nCJy1p+oyC6rCCcKIlQZo5BsmhloYnK/78nWt/NTjXmC5XMJPwn
RDgJ3VDfKWdPpqOrbH88nCv150inRqveWEiLKCheqhwVzvqhOrL9bp2c1FrMEPeh
TfcVVIyBvDnxg0TAXEIB1Qr7swKm4+WsptW7cJg/mSyaRYQiXEuHeYiDmtSMI/mH
O6PPiJ1Odm0jLkaehFyK5f6g2z3lYEnYnS0czr3tcqx0HGPcvTrgLvDWjmAhlfWg
JFVXOgFW4LmyBiecqwZo1OfWb15sJPjJuWxE9k88tuYqTv2+HSsxnx/njg9M9hNh
g6GEBCTYcFGiKuTWUywtkf6Dqj7mRnHR1g8cAVlj8dLAmRm1X5GQFEQTeC2U1E5H
+E8v/c8eKxdtsKIaxrDAn0y3zJ0bseBmy+oEGhCMEE4XsS244UUBC42hXRp3k6os
EXTCp+bkjrR7xmUbgoKtxG1xLgGxPXi20+KISDqBKEqk5YJYWS9lXVf1wO4giyVj
u+7GCi8SsNz/dsCGkSvX2hl3nLsnxh/KLCbtPhXPtkNaz06ftZokxtI4B9DopOlv
vEUcx7U5MUya+9fIUTy88C1kGA3sHsAKXAMUzYCgLE8=
-----END CERTIFICATE-----
