Certificate:
    Data:
        Version: 3 (0x2)
        Serial Number: 9299 (0x2453)
    Signature Algorithm: sha256WithRSAEncryption
        Issuer: C=US, ST=OH, L=Columbus, O=VikingVPN, OU=MyOrganizationalUnit, CN=VikingVPN CA/name=EasyRSA/emailAddress=me@myhost.mydomain
        Validity
            Not Before: Oct 22 19:26:02 2016 GMT
            Not After : Oct 20 19:26:02 2026 GMT
        Subject: CN=Client2547Cert32bbd6
        Subject Public Key Info:
            Public Key Algorithm: rsaEncryption
                Public-Key: (4096 bit)
                Modulus:
                    00:b1:14:4a:ae:26:3c:0a:1a:8d:e8:bc:b5:29:da:
                    aa:b6:7f:ae:01:48:7e:92:cf:04:7f:40:a6:1b:4b:
                    15:31:93:a8:41:bd:e7:3a:81:17:ef:ca:63:68:1b:
                    f6:73:6e:b2:08:14:27:d0:84:ed:95:92:a4:54:bd:
                    ea:26:16:1d:5e:cd:53:56:82:62:2e:fc:d0:09:ae:
                    68:3f:99:7c:ac:8a:4e:84:51:19:e9:70:a9:92:b2:
                    4a:46:c8:01:23:d7:bb:d2:f1:ba:e0:f1:ed:78:a1:
                    b9:07:f3:24:a2:fd:03:f0:f4:88:32:f9:93:d6:ad:
                    2f:95:e8:d1:e7:2c:35:52:02:ec:af:aa:d4:d9:2e:
                    5e:db:84:e1:07:95:52:5a:d2:8a:f2:87:e6:3e:33:
                    9d:d8:aa:5c:05:a7:2d:a3:84:9e:16:e4:94:f9:30:
                    ac:c7:f3:0b:ef:9d:ab:33:86:bf:13:91:68:6d:3a:
                    05:e1:c1:ce:29:9d:6a:e6:2f:c0:e0:d3:52:52:28:
                    f5:79:ca:f7:af:0f:f5:a8:13:a0:88:fc:8d:54:02:
                    b9:7d:41:8a:9a:8f:da:2a:79:2a:4a:0d:c6:1c:41:
                    df:8a:81:c0:d7:58:10:b2:1c:6e:40:b1:fd:a3:b8:
                    99:4a:10:a1:54:62:dd:0f:a5:3c:c8:f8:e4:84:ec:
                    bc:69:b8:f0:dd:3b:eb:39:3c:38:6d:c8:71:2c:c5:
                    24:67:eb:7e:75:f0:1b:c0:67:2d:ef:c3:a0:5b:13:
                    78:77:de:79:6f:b9:7d:1e:63:aa:b9:9f:b4:ad:4b:
                    0d:e0:89:d0:c2:02:e0:1c:cd:a6:a7:dc:2a:1a:52:
                    29:99:95:1e:94:96:6b:8c:7f:9c:c5:75:cb:64:ef:
                    90:5a:54:91:ba:f8:40:25:b9:13:d5:98:93:a1:a9:
                    79:70:87:ce:a3:54:e1:01:ad:4c:2b:32:aa:01:9b:
                    3d:2b:4b:4e:9e:dc:fb:77:cf:19:ea:d4:70:ad:d8:
                    5b:0e:aa:ce:35:f9:34:83:42:cf:ad:22:d7:86:b6:
                    cc:1b:23:20:ed:20:bf:08:cc:e2:52:8e:db:a0:ab:
                    26:82:ca:06:b7:2b:9e:0f:3c:65:c2:20:50:57:e8:
                    1b:86:40:82:58:b6:3b:f9:7b:53:f4:b1:70:d2:7f:
                    cf:b8:37:58:03:67:80:5c:37:ee:e5:d5:38:27:df:
                    45:ef:ea:62:f5:87:a6:36:d9:cf:60:dd:7b:d4:77:
                    cd:95:79:6b:ac:e5:75:f4:a4:8d:96:c0:93:e5:c8:
                    23:dd:e8:66:59:07:91:b2:8c:09:e2:0a:bf:6b:3a:
                    35:ad:fa:f1:5f:12:a9:e0:2c:3f:75:2d:25:07:fb:
                    44:76:7b
                Exponent: 65537 (0x10001)
        X509v3 extensions:
            X509v3 Basic Constraints: 
                CA:FALSE
            Netscape Comment: 
                Easy-RSA Generated Certificate
            X509v3 Subject Key Identifier: 
                F9:E7:00:19:9F:16:BB:94:91:6F:AE:9D:F4:CE:52:31:BC:BB:B4:EC
            X509v3 Authority Key Identifier: 
                keyid:12:CD:60:04:D2:A0:80:9E:70:ED:C6:99:B8:7B:2C:C6:52:FD:19:A1
                DirName:/C=US/ST=OH/L=Columbus/O=VikingVPN/OU=MyOrganizationalUnit/CN=VikingVPN CA/name=EasyRSA/emailAddress=me@myhost.mydomain
                serial:CF:35:85:EE:80:BF:2A:3E

            X509v3 Extended Key Usage: 
                TLS Web Client Authentication
            X509v3 Key Usage: 
                Digital Signature
    Signature Algorithm: sha256WithRSAEncryption
         97:7a:2d:88:ef:a7:49:7b:a4:54:58:da:f4:95:c7:c0:f3:ef:
         08:a3:1c:8f:ce:c2:3e:8d:25:9c:db:fa:b5:35:81:43:1a:3c:
         bc:e8:d8:99:11:58:47:7b:ba:9a:68:7d:8d:59:cc:2d:67:18:
         51:c8:f9:f9:72:42:76:08:f8:38:92:03:87:5b:45:cc:fa:0d:
         51:04:33:12:b9:4e:9f:e2:83:e9:ea:d1:8c:89:be:51:79:80:
         5d:92:19:2d:a1:a8:1c:01:88:59:30:81:e0:84:9f:aa:8d:33:
         82:c4:ff:f3:f9:36:91:b5:40:91:2a:ef:b9:36:96:25:13:1b:
         cc:2b:89:02:2c:90:b7:f0:1c:6a:af:e5:6a:f9:c6:74:76:35:
         ed:1f:92:22:cf:7d:c3:a3:9a:21:52:ab:fe:b2:4b:9b:3d:8c:
         5d:b5:45:6d:9c:34:22:7d:fb:d9:7b:42:8e:74:c2:5c:ca:d3:
         13:5e:5b:2e:22:c7:4f:d4:4c:eb:45:5f:b7:36:66:d0:95:70:
         ab:39:ee:e2:35:f2:74:80:11:f7:55:75:16:4a:73:47:57:d1:
         90:34:0c:f8:d7:33:aa:7f:6b:cc:35:f1:6a:6b:35:2e:37:d5:
         69:34:75:5a:c0:b4:24:c8:31:dd:eb:96:36:57:04:61:a7:b6:
         75:a1:60:9e:f6:3a:ef:23:be:cb:62:51:56:cc:08:7f:ba:0d:
         90:6d:21:67:ef:f1:59:f2:fb:be:0f:6d:e9:f9:89:c0:b1:de:
         c2:7d:79:32:43:24:3a:68:40:86:48:2e:69:12:a2:e0:9b:e7:
         2b:19:bc:6f:41:62:8f:98:69:da:b0:ec:4c:92:2e:89:bc:bd:
         56:72:80:68:d5:c0:fa:dd:02:33:f1:08:cd:92:6c:a3:6f:0e:
         ac:8f:fe:2f:ce:4b:e2:7d:d1:6a:1e:3b:a0:2c:cc:dc:6c:d8:
         a5:59:bd:bb:6f:86:c1:45:67:0c:95:77:af:69:db:c1:bb:e1:
         c6:5d:ad:22:97:b2:fc:6c:76:ef:57:42:da:e9:a8:1f:90:5a:
         5f:36:ce:9f:49:43:e1:c5:44:82:9e:e8:12:0d:2e:f7:d6:ef:
         21:76:18:b2:d3:07:c5:68:04:24:db:c3:f2:8e:aa:08:ea:61:
         eb:ea:14:fa:cf:25:ab:de:2f:ea:5e:2a:31:2e:e0:6b:79:36:
         ee:56:d2:60:09:83:49:c6:2a:ca:a6:f9:09:fc:53:24:4d:38:
         5e:89:35:7b:64:eb:3c:06:2d:e6:06:60:ec:e7:32:dd:b6:36:
         bc:6f:99:a2:18:8a:ec:0d:b8:5c:0e:e5:4f:e6:8e:0a:06:06:
         31:3d:0b:51:ad:8c:31:2e
-----BEGIN CERTIFICATE-----
MIIGrTCCBJWgAwIBAgICJFMwDQYJKoZIhvcNAQELBQAwgawxCzAJBgNVBAYTAlVT
MQswCQYDVQQIEwJPSDERMA8GA1UEBxMIQ29sdW1idXMxEjAQBgNVBAoTCVZpa2lu
Z1ZQTjEdMBsGA1UECxMUTXlPcmdhbml6YXRpb25hbFVuaXQxFTATBgNVBAMTDFZp
a2luZ1ZQTiBDQTEQMA4GA1UEKRMHRWFzeVJTQTEhMB8GCSqGSIb3DQEJARYSbWVA
bXlob3N0Lm15ZG9tYWluMB4XDTE2MTAyMjE5MjYwMloXDTI2MTAyMDE5MjYwMlow
HzEdMBsGA1UEAxMUQ2xpZW50MjU0N0NlcnQzMmJiZDYwggIiMA0GCSqGSIb3DQEB
AQUAA4ICDwAwggIKAoICAQCxFEquJjwKGo3ovLUp2qq2f64BSH6SzwR/QKYbSxUx
k6hBvec6gRfvymNoG/ZzbrIIFCfQhO2VkqRUveomFh1ezVNWgmIu/NAJrmg/mXys
ik6EURnpcKmSskpGyAEj17vS8brg8e14obkH8ySi/QPw9Igy+ZPWrS+V6NHnLDVS
AuyvqtTZLl7bhOEHlVJa0oryh+Y+M53YqlwFpy2jhJ4W5JT5MKzH8wvvnaszhr8T
kWhtOgXhwc4pnWrmL8Dg01JSKPV5yvevD/WoE6CI/I1UArl9QYqaj9oqeSpKDcYc
Qd+KgcDXWBCyHG5Asf2juJlKEKFUYt0PpTzI+OSE7LxpuPDdO+s5PDhtyHEsxSRn
63518BvAZy3vw6BbE3h33nlvuX0eY6q5n7StSw3gidDCAuAczaan3CoaUimZlR6U
lmuMf5zFdctk75BaVJG6+EAluRPVmJOhqXlwh86jVOEBrUwrMqoBmz0rS06e3Pt3
zxnq1HCt2FsOqs41+TSDQs+tIteGtswbIyDtIL8IzOJSjtugqyaCyga3K54PPGXC
IFBX6BuGQIJYtjv5e1P0sXDSf8+4N1gDZ4BcN+7l1Tgn30Xv6mL1h6Y22c9g3XvU
d82VeWus5XX0pI2WwJPlyCPd6GZZB5GyjAniCr9rOjWt+vFfEqngLD91LSUH+0R2
ewIDAQABo4IBYzCCAV8wCQYDVR0TBAIwADAtBglghkgBhvhCAQ0EIBYeRWFzeS1S
U0EgR2VuZXJhdGVkIENlcnRpZmljYXRlMB0GA1UdDgQWBBT55wAZnxa7lJFvrp30
zlIxvLu07DCB4QYDVR0jBIHZMIHWgBQSzWAE0qCAnnDtxpm4eyzGUv0ZoaGBsqSB
rzCBrDELMAkGA1UEBhMCVVMxCzAJBgNVBAgTAk9IMREwDwYDVQQHEwhDb2x1bWJ1
czESMBAGA1UEChMJVmlraW5nVlBOMR0wGwYDVQQLExRNeU9yZ2FuaXphdGlvbmFs
VW5pdDEVMBMGA1UEAxMMVmlraW5nVlBOIENBMRAwDgYDVQQpEwdFYXN5UlNBMSEw
HwYJKoZIhvcNAQkBFhJtZUBteWhvc3QubXlkb21haW6CCQDPNYXugL8qPjATBgNV
HSUEDDAKBggrBgEFBQcDAjALBgNVHQ8EBAMCB4AwDQYJKoZIhvcNAQELBQADggIB
AJd6LYjvp0l7pFRY2vSVx8Dz7wijHI/Owj6NJZzb+rU1gUMaPLzo2JkRWEd7uppo
fY1ZzC1nGFHI+flyQnYI+DiSA4dbRcz6DVEEMxK5Tp/ig+nq0YyJvlF5gF2SGS2h
qBwBiFkwgeCEn6qNM4LE//P5NpG1QJEq77k2liUTG8wriQIskLfwHGqv5Wr5xnR2
Ne0fkiLPfcOjmiFSq/6yS5s9jF21RW2cNCJ9+9l7Qo50wlzK0xNeWy4ix0/UTOtF
X7c2ZtCVcKs57uI18nSAEfdVdRZKc0dX0ZA0DPjXM6p/a8w18WprNS431Wk0dVrA
tCTIMd3rljZXBGGntnWhYJ72Ou8jvstiUVbMCH+6DZBtIWfv8Vny+74Pben5icCx
3sJ9eTJDJDpoQIZILmkSouCb5ysZvG9BYo+Yadqw7EySLom8vVZygGjVwPrdAjPx
CM2SbKNvDqyP/i/OS+J90WoeO6AszNxs2KVZvbtvhsFFZwyVd69p28G74cZdrSKX
svxsdu9XQtrpqB+QWl82zp9JQ+HFRIKe6BINLvfW7yF2GLLTB8VoBCTbw/KOqgjq
YevqFPrPJaveL+peKjEu4Gt5Nu5W0mAJg0nGKsqm+Qn8UyRNOF6JNXtk6zwGLeYG
YOznMt22NrxvmaIYiuwNuFwO5U/mjgoGBjE9C1GtjDEu
-----END CERTIFICATE-----
