Certificate:
    Data:
        Version: 3 (0x2)
        Serial Number: 12361 (0x3049)
    Signature Algorithm: sha256WithRSAEncryption
        Issuer: C=US, ST=OH, L=Columbus, O=VikingVPN, OU=MyOrganizationalUnit, CN=VikingVPN CA/name=EasyRSA/emailAddress=me@myhost.mydomain
        Validity
            Not Before: Jan  6 19:28:02 2018 GMT
            Not After : Jan  4 19:28:02 2028 GMT
        Subject: CN=Client2988Cert43c5b5
        Subject Public Key Info:
            Public Key Algorithm: rsaEncryption
                Public-Key: (4096 bit)
                Modulus:
                    00:d9:06:a5:f8:c5:ac:a5:bc:a4:dc:43:db:5d:a8:
                    18:66:82:09:c3:17:65:50:6f:d1:49:49:f1:4d:65:
                    17:d7:01:16:65:75:cb:0c:6d:d3:bb:ed:51:5c:8e:
                    c8:32:92:dc:ad:50:f6:69:30:fa:d7:83:f7:9f:88:
                    6a:a8:99:aa:0d:e0:6c:4c:c1:d7:19:16:5e:6c:c6:
                    ed:cb:ca:7c:87:d1:d0:aa:0d:95:14:71:0e:a0:46:
                    a5:95:38:ca:a4:0e:6a:6c:34:0c:61:f4:c2:02:00:
                    bc:52:7e:a9:4d:49:7f:bf:bc:b5:f5:bc:4b:16:c3:
                    a3:8e:ba:4c:13:a2:e1:e1:ec:81:87:b8:68:27:6e:
                    3c:f8:2a:b6:a0:62:80:53:b4:a0:ce:30:f5:9e:b1:
                    e3:16:a5:6d:14:b2:6d:35:9c:d8:d2:b9:f6:17:c3:
                    f9:70:67:32:5d:15:70:65:6e:93:26:8a:a1:36:8b:
                    e9:4d:a4:92:ae:c8:77:b8:db:36:a7:b5:ab:48:c0:
                    3c:2d:ff:a2:d9:14:1a:a8:f9:18:1c:f1:68:be:97:
                    57:3e:65:96:01:81:79:a2:63:8d:6d:9f:13:18:95:
                    dc:f8:97:41:7a:0f:d6:9d:64:09:48:96:58:e2:d4:
                    22:df:73:2a:d7:5b:bd:fa:ec:79:73:b3:27:bf:46:
                    0a:96:00:ef:2e:94:fd:ce:47:1e:21:f1:19:0c:01:
                    80:81:e4:e2:63:2c:96:6b:51:e8:00:e7:eb:ce:05:
                    a1:9c:37:5f:1c:3b:48:24:56:15:66:02:52:59:45:
                    9b:d6:e8:64:49:ef:bd:2e:f6:4c:bf:0c:4c:a7:70:
                    13:27:15:f6:90:05:45:1c:ca:03:ca:1f:d5:4d:33:
                    96:de:2d:20:6f:81:df:a4:55:6e:26:51:22:60:3a:
                    d5:96:c6:0f:cc:ef:78:71:f1:35:da:fa:b7:16:9a:
                    ea:89:e3:4c:24:ba:b1:10:73:7c:6a:3b:6d:2d:9c:
                    19:24:40:59:0a:37:19:ff:82:85:d4:72:62:62:28:
                    87:1d:29:45:5e:1c:d8:ba:9f:2b:0e:a4:32:1e:38:
                    4a:8c:c6:7a:a0:90:c5:9e:58:f9:73:7a:8d:75:38:
                    df:ee:ba:6b:c2:7e:84:19:e6:b5:ce:4c:8e:aa:0c:
                    f3:e1:80:92:3f:ee:e3:e5:1c:8e:95:6a:1d:21:aa:
                    8d:38:c7:81:45:67:eb:16:ee:26:43:f2:40:32:46:
                    20:e6:6d:48:c6:21:4b:39:e9:7c:9e:57:ae:64:39:
                    a0:f7:d5:cc:e6:97:4d:fd:bd:de:ad:8f:b3:91:d8:
                    22:46:17:8d:f4:35:74:73:14:00:1a:e4:c7:de:f1:
                    1e:4b:e1
                Exponent: 65537 (0x10001)
        X509v3 extensions:
            X509v3 Basic Constraints: 
                CA:FALSE
            Netscape Comment: 
                Easy-RSA Generated Certificate
            X509v3 Subject Key Identifier: 
                29:85:B9:B0:2E:51:17:0F:CB:91:E4:DA:F5:80:0B:04:90:4C:C4:D7
            X509v3 Authority Key Identifier: 
                keyid:12:CD:60:04:D2:A0:80:9E:70:ED:C6:99:B8:7B:2C:C6:52:FD:19:A1
                DirName:/C=US/ST=OH/L=Columbus/O=VikingVPN/OU=MyOrganizationalUnit/CN=VikingVPN CA/name=EasyRSA/emailAddress=me@myhost.mydomain
                serial:CF:35:85:EE:80:BF:2A:3E

            X509v3 Extended Key Usage: 
                TLS Web Client Authentication
            X509v3 Key Usage: 
                Digital Signature
    Signature Algorithm: sha256WithRSAEncryption
         4f:d7:8b:e4:bd:88:5f:3d:57:4e:1c:72:92:8e:14:26:0c:60:
         37:69:cc:0a:b8:fd:bf:38:d1:36:10:b6:cc:ab:b0:a5:7f:63:
         c5:0e:06:e6:80:0e:6e:db:74:6a:0f:a3:64:db:32:63:90:70:
         f8:10:8a:9a:99:45:e9:36:c7:39:ac:53:74:6a:d6:70:18:9f:
         01:1a:82:b0:9c:2e:2f:96:21:b5:ca:8b:0b:d6:48:85:29:26:
         92:5a:2e:d1:eb:80:bd:bc:41:e1:0a:ca:70:fb:76:35:28:77:
         e6:24:9e:21:83:2a:06:fb:13:b2:58:30:21:e9:e8:de:11:d0:
         f2:08:49:fa:df:be:65:f6:6f:38:7a:a4:9c:62:15:4c:31:9f:
         c2:41:57:10:c6:4b:5f:a2:cb:3c:48:48:16:02:55:85:9a:c5:
         6c:34:c0:ee:35:a6:2a:0a:73:73:85:ea:e2:3a:af:11:d3:d6:
         e1:30:b0:bd:79:4c:18:79:47:ff:ea:25:1c:d4:43:21:60:23:
         0a:be:a0:b8:c0:2d:84:f8:51:46:a2:b6:d8:a1:4c:93:02:0c:
         58:41:8a:d3:5a:f3:9b:c7:1a:a5:ae:44:b2:c6:b5:d1:ef:22:
         ee:f5:ab:d2:fa:95:22:a2:29:3e:1a:86:34:23:dc:37:c8:ef:
         09:bb:ae:d7:5b:0a:cd:c7:b6:e2:1f:bc:b4:80:03:17:15:82:
         a2:96:2a:43:55:c9:e4:ee:66:31:36:24:64:27:e8:a3:0e:10:
         c8:4e:89:8b:fc:9a:ac:03:3e:e3:92:4a:ea:94:46:e4:c5:02:
         9e:3c:5c:af:0e:67:77:9f:41:0f:33:2f:e1:33:6e:35:6f:30:
         fd:e1:9c:eb:f6:84:74:17:ff:3d:90:c5:62:2f:e2:75:79:b3:
         98:57:7e:67:2a:ce:af:20:3a:e0:3c:12:be:d6:74:94:8a:d7:
         c0:45:55:2e:2c:1e:bb:62:8d:75:22:12:59:0c:fb:a1:b6:fe:
         23:0a:38:4c:79:fc:05:c7:dd:a0:26:29:fc:52:1e:a1:c3:ce:
         dc:f8:ab:55:76:ee:35:63:2c:e9:a4:54:0c:b1:dd:2d:d9:87:
         ad:7a:3e:43:35:3b:9f:20:66:3d:61:74:44:46:31:9f:5d:d1:
         af:95:36:ed:9c:f8:cc:88:8b:15:85:4a:25:98:9a:bd:f7:62:
         e3:cd:0f:22:10:44:ea:96:26:c8:69:62:2f:a3:40:08:6c:a0:
         18:db:d8:98:58:ce:bb:59:79:a5:1d:37:7f:7b:ff:99:73:8b:
         eb:4c:96:5d:a0:ce:38:90:20:95:8a:3b:2e:56:3c:eb:a6:e1:
         a7:94:b7:b3:8e:47:7b:9c
-----BEGIN CERTIFICATE-----
MIIGrTCCBJWgAwIBAgICMEkwDQYJKoZIhvcNAQELBQAwgawxCzAJBgNVBAYTAlVT
MQswCQYDVQQIEwJPSDERMA8GA1UEBxMIQ29sdW1idXMxEjAQBgNVBAoTCVZpa2lu
Z1ZQTjEdMBsGA1UECxMUTXlPcmdhbml6YXRpb25hbFVuaXQxFTATBgNVBAMTDFZp
a2luZ1ZQTiBDQTEQMA4GA1UEKRMHRWFzeVJTQTEhMB8GCSqGSIb3DQEJARYSbWVA
bXlob3N0Lm15ZG9tYWluMB4XDTE4MDEwNjE5MjgwMloXDTI4MDEwNDE5MjgwMlow
HzEdMBsGA1UEAxMUQ2xpZW50Mjk4OENlcnQ0M2M1YjUwggIiMA0GCSqGSIb3DQEB
AQUAA4ICDwAwggIKAoICAQDZBqX4xaylvKTcQ9tdqBhmggnDF2VQb9FJSfFNZRfX
ARZldcsMbdO77VFcjsgyktytUPZpMPrXg/efiGqomaoN4GxMwdcZFl5sxu3LynyH
0dCqDZUUcQ6gRqWVOMqkDmpsNAxh9MICALxSfqlNSX+/vLX1vEsWw6OOukwTouHh
7IGHuGgnbjz4KragYoBTtKDOMPWeseMWpW0Usm01nNjSufYXw/lwZzJdFXBlbpMm
iqE2i+lNpJKuyHe42zantatIwDwt/6LZFBqo+Rgc8Wi+l1c+ZZYBgXmiY41tnxMY
ldz4l0F6D9adZAlIllji1CLfcyrXW7367Hlzsye/RgqWAO8ulP3ORx4h8RkMAYCB
5OJjLJZrUegA5+vOBaGcN18cO0gkVhVmAlJZRZvW6GRJ770u9ky/DEyncBMnFfaQ
BUUcygPKH9VNM5beLSBvgd+kVW4mUSJgOtWWxg/M73hx8TXa+rcWmuqJ40wkurEQ
c3xqO20tnBkkQFkKNxn/goXUcmJiKIcdKUVeHNi6nysOpDIeOEqMxnqgkMWeWPlz
eo11ON/uumvCfoQZ5rXOTI6qDPPhgJI/7uPlHI6Vah0hqo04x4FFZ+sW7iZD8kAy
RiDmbUjGIUs56XyeV65kOaD31czml039vd6tj7OR2CJGF430NXRzFAAa5Mfe8R5L
4QIDAQABo4IBYzCCAV8wCQYDVR0TBAIwADAtBglghkgBhvhCAQ0EIBYeRWFzeS1S
U0EgR2VuZXJhdGVkIENlcnRpZmljYXRlMB0GA1UdDgQWBBQphbmwLlEXD8uR5Nr1
gAsEkEzE1zCB4QYDVR0jBIHZMIHWgBQSzWAE0qCAnnDtxpm4eyzGUv0ZoaGBsqSB
rzCBrDELMAkGA1UEBhMCVVMxCzAJBgNVBAgTAk9IMREwDwYDVQQHEwhDb2x1bWJ1
czESMBAGA1UEChMJVmlraW5nVlBOMR0wGwYDVQQLExRNeU9yZ2FuaXphdGlvbmFs
VW5pdDEVMBMGA1UEAxMMVmlraW5nVlBOIENBMRAwDgYDVQQpEwdFYXN5UlNBMSEw
HwYJKoZIhvcNAQkBFhJtZUBteWhvc3QubXlkb21haW6CCQDPNYXugL8qPjATBgNV
HSUEDDAKBggrBgEFBQcDAjALBgNVHQ8EBAMCB4AwDQYJKoZIhvcNAQELBQADggIB
AE/Xi+S9iF89V04ccpKOFCYMYDdpzAq4/b840TYQtsyrsKV/Y8UOBuaADm7bdGoP
o2TbMmOQcPgQipqZRek2xzmsU3Rq1nAYnwEagrCcLi+WIbXKiwvWSIUpJpJaLtHr
gL28QeEKynD7djUod+YkniGDKgb7E7JYMCHp6N4R0PIISfrfvmX2bzh6pJxiFUwx
n8JBVxDGS1+iyzxISBYCVYWaxWw0wO41pioKc3OF6uI6rxHT1uEwsL15TBh5R//q
JRzUQyFgIwq+oLjALYT4UUaittihTJMCDFhBitNa85vHGqWuRLLGtdHvIu71q9L6
lSKiKT4ahjQj3DfI7wm7rtdbCs3HtuIfvLSAAxcVgqKWKkNVyeTuZjE2JGQn6KMO
EMhOiYv8mqwDPuOSSuqURuTFAp48XK8OZ3efQQ8zL+EzbjVvMP3hnOv2hHQX/z2Q
xWIv4nV5s5hXfmcqzq8gOuA8Er7WdJSK18BFVS4sHrtijXUiElkM+6G2/iMKOEx5
/AXH3aAmKfxSHqHDztz4q1V27jVjLOmkVAyx3S3Zh616PkM1O58gZj1hdERGMZ9d
0a+VNu2c+MyIixWFSiWYmr33YuPNDyIQROqWJshpYi+jQAhsoBjb2JhYzrtZeaUd
N397/5lzi+tMll2gzjiQIJWKOy5WPOum4aeUt7OOR3uc
-----END CERTIFICATE-----
