Certificate:
    Data:
        Version: 3 (0x2)
        Serial Number: 10987 (0x2aeb)
    Signature Algorithm: sha256WithRSAEncryption
        Issuer: C=US, ST=OH, L=Columbus, O=VikingVPN, OU=MyOrganizationalUnit, CN=VikingVPN CA/name=EasyRSA/emailAddress=me@myhost.mydomain
        Validity
            Not Before: May 21 08:10:18 2017 GMT
            Not After : May 19 08:10:18 2027 GMT
        Subject: CN=Client2924Cert275ae2
        Subject Public Key Info:
            Public Key Algorithm: rsaEncryption
                Public-Key: (4096 bit)
                Modulus:
                    00:c3:19:d1:2a:8f:8c:45:6a:76:35:f1:f4:8f:97:
                    7e:bb:a1:a4:25:1f:7d:76:90:76:ba:dd:58:f2:24:
                    81:11:10:35:f7:a1:a6:0e:5b:4f:44:41:0f:c2:3d:
                    55:8f:34:20:6e:67:af:87:6d:ad:57:9f:2c:57:32:
                    3d:a8:16:04:b0:35:c2:16:25:6b:ad:e0:9e:8c:64:
                    6f:87:1c:45:7d:c3:c7:38:f5:07:6b:b4:b0:78:ef:
                    ce:af:be:cd:dc:f9:f9:8b:e4:12:c2:81:93:a3:05:
                    48:48:fb:9a:ea:ee:e5:ba:d9:8d:7f:fb:55:bb:45:
                    b9:e9:f0:30:3b:1a:7c:bc:de:24:fb:cc:5c:4a:36:
                    14:94:65:4f:63:05:a6:ca:12:fc:4d:95:a6:68:0a:
                    9e:ce:74:2f:24:ff:a2:a7:45:af:c3:24:86:d4:d7:
                    67:f9:58:6a:46:f8:9e:c9:90:dd:e0:84:d0:68:ea:
                    02:45:9d:5b:59:ff:64:2e:3b:e8:20:7d:3a:ca:01:
                    c6:5e:dc:c6:56:ab:67:76:33:dc:54:3a:4a:76:33:
                    44:ce:17:a0:cd:6a:0c:1e:94:9c:05:dc:d9:7f:4b:
                    46:55:e2:83:72:29:71:9b:eb:91:03:92:52:12:e8:
                    f7:b1:67:2a:3a:fd:ac:a3:77:35:2d:f3:3f:fb:a6:
                    4b:0f:be:10:a9:fe:b0:b5:80:4c:ce:ab:db:24:78:
                    5d:b2:a5:18:a7:b4:c9:ad:a4:1a:47:9e:7a:22:6a:
                    25:3c:ae:72:5b:cc:f4:ec:d9:f7:22:2f:8f:2f:db:
                    1f:78:c4:8d:8e:8e:ac:08:eb:59:3a:19:eb:4c:f5:
                    e9:2a:99:a9:29:a5:f2:06:63:c0:70:8b:06:c8:80:
                    dd:55:a4:69:ec:ba:a8:36:9b:87:1c:87:6e:0f:7a:
                    bf:4e:99:23:2a:81:8a:ea:02:56:a4:f8:ae:5b:3f:
                    79:c9:9c:c8:19:20:4c:6f:bf:7f:27:e2:db:64:af:
                    87:a5:64:04:8e:e7:d0:d5:d3:c6:6a:91:15:c9:36:
                    a4:04:86:64:92:83:dc:de:5e:e7:72:7b:52:13:72:
                    51:47:54:24:a6:e9:a0:16:fe:40:ab:47:64:9f:1b:
                    0a:74:08:61:58:3c:09:a5:b1:88:d6:95:45:af:0d:
                    fe:5d:a8:9f:f9:31:d2:c7:66:34:ec:11:88:3e:0c:
                    91:c5:34:9e:d3:b7:63:0a:e4:c7:b0:e0:c8:6c:ce:
                    02:eb:01:30:58:ca:18:db:ab:22:dd:24:f2:ac:7c:
                    b4:8e:07:da:9d:2b:53:f7:21:64:28:30:87:c0:c6:
                    36:6b:70:71:89:32:bf:7c:b4:27:04:7e:b6:a6:4e:
                    9c:f6:69
                Exponent: 65537 (0x10001)
        X509v3 extensions:
            X509v3 Basic Constraints: 
                CA:FALSE
            Netscape Comment: 
                Easy-RSA Generated Certificate
            X509v3 Subject Key Identifier: 
                FD:7A:CD:F1:D7:ED:30:E3:CA:FB:64:D8:14:49:2D:4E:98:74:2F:3A
            X509v3 Authority Key Identifier: 
                keyid:12:CD:60:04:D2:A0:80:9E:70:ED:C6:99:B8:7B:2C:C6:52:FD:19:A1
                DirName:/C=US/ST=OH/L=Columbus/O=VikingVPN/OU=MyOrganizationalUnit/CN=VikingVPN CA/name=EasyRSA/emailAddress=me@myhost.mydomain
                serial:CF:35:85:EE:80:BF:2A:3E

            X509v3 Extended Key Usage: 
                TLS Web Client Authentication
            X509v3 Key Usage: 
                Digital Signature
    Signature Algorithm: sha256WithRSAEncryption
         2b:a0:16:4a:d8:47:f0:8a:ab:d5:0e:65:15:a1:36:4a:04:0c:
         8e:73:b5:2c:db:17:f1:18:ca:a2:bf:9a:b0:5a:b2:6b:0a:b7:
         63:0a:83:08:8c:78:8b:08:32:b3:3f:5a:a4:e0:0e:a5:47:7c:
         eb:11:82:b1:a4:1a:a0:f5:60:9d:27:4e:fe:5b:15:e1:46:42:
         e9:66:30:85:83:4c:23:6c:ca:66:f6:fe:99:04:00:15:f0:57:
         e0:3d:81:54:88:43:70:40:01:4d:40:ba:15:ef:4e:e5:fd:5d:
         39:9e:63:dd:0d:db:45:00:7a:78:fd:93:b9:c2:f8:1c:10:01:
         86:df:6c:34:73:a6:20:38:64:21:c9:5c:d3:5f:9a:51:dd:bd:
         86:ff:a4:40:b2:f3:17:6f:d4:01:51:4b:e6:f0:32:44:8f:5e:
         bd:de:7f:79:5f:cc:eb:dd:77:04:8b:df:a9:1c:da:d3:b4:62:
         c9:0c:f1:2a:4b:87:26:ae:2f:da:bc:37:08:96:ba:f2:dc:6f:
         59:ed:47:e5:69:df:60:2c:9b:fc:47:9e:cb:4d:d6:19:f3:5b:
         7c:a7:4c:5b:8c:03:d1:73:25:e9:fb:26:b5:84:da:5a:03:12:
         e9:85:7a:e0:60:ae:32:eb:a1:66:64:48:28:d9:ef:ac:af:84:
         64:be:73:3b:3a:18:65:06:af:38:c3:87:ea:80:28:69:d3:6a:
         10:84:ba:26:54:7c:fa:52:86:84:6c:05:95:d1:4f:96:72:37:
         2d:4c:3c:96:81:9b:39:0a:06:38:c3:fd:9a:32:4e:0d:e1:43:
         dc:e3:15:f2:d3:f5:7b:91:61:21:b0:e0:f3:1d:e8:71:0e:67:
         a3:d6:d8:ed:1a:d0:5d:4e:5e:69:a1:c5:51:97:ed:e2:aa:a8:
         16:8c:b8:d1:a0:5e:26:7b:1b:ad:37:d8:cb:03:78:9d:76:e6:
         93:fe:4f:e9:61:78:db:2c:a5:ba:2d:5f:47:1e:fa:61:1f:0b:
         29:d2:41:9f:d4:f7:03:9f:96:aa:ee:49:ae:e4:03:26:ac:e1:
         bb:73:10:d5:7e:d5:1c:4f:76:41:18:33:d0:3d:d9:69:21:14:
         9a:fa:5e:dd:5a:fe:60:aa:1a:fa:6c:3f:22:20:a4:11:2b:40:
         b7:6d:45:df:79:3c:90:b1:10:2d:82:ff:20:e1:24:8c:c4:86:
         45:f5:01:10:f1:95:f4:92:53:fa:50:dc:ca:76:37:d3:f0:ee:
         98:f5:5f:32:f4:ab:40:5e:e8:b7:d7:1d:c2:c1:fa:21:ff:8d:
         e0:8b:89:be:6c:e9:69:cc:bb:1f:23:dc:ca:41:fa:d7:11:56:
         05:e3:78:8b:8a:85:1a:a9
-----BEGIN CERTIFICATE-----
MIIGrTCCBJWgAwIBAgICKuswDQYJKoZIhvcNAQELBQAwgawxCzAJBgNVBAYTAlVT
MQswCQYDVQQIEwJPSDERMA8GA1UEBxMIQ29sdW1idXMxEjAQBgNVBAoTCVZpa2lu
Z1ZQTjEdMBsGA1UECxMUTXlPcmdhbml6YXRpb25hbFVuaXQxFTATBgNVBAMTDFZp
a2luZ1ZQTiBDQTEQMA4GA1UEKRMHRWFzeVJTQTEhMB8GCSqGSIb3DQEJARYSbWVA
bXlob3N0Lm15ZG9tYWluMB4XDTE3MDUyMTA4MTAxOFoXDTI3MDUxOTA4MTAxOFow
HzEdMBsGA1UEAxMUQ2xpZW50MjkyNENlcnQyNzVhZTIwggIiMA0GCSqGSIb3DQEB
AQUAA4ICDwAwggIKAoICAQDDGdEqj4xFanY18fSPl367oaQlH312kHa63VjyJIER
EDX3oaYOW09EQQ/CPVWPNCBuZ6+Hba1XnyxXMj2oFgSwNcIWJWut4J6MZG+HHEV9
w8c49QdrtLB4786vvs3c+fmL5BLCgZOjBUhI+5rq7uW62Y1/+1W7Rbnp8DA7Gny8
3iT7zFxKNhSUZU9jBabKEvxNlaZoCp7OdC8k/6KnRa/DJIbU12f5WGpG+J7JkN3g
hNBo6gJFnVtZ/2QuO+ggfTrKAcZe3MZWq2d2M9xUOkp2M0TOF6DNagwelJwF3Nl/
S0ZV4oNyKXGb65EDklIS6PexZyo6/ayjdzUt8z/7pksPvhCp/rC1gEzOq9skeF2y
pRintMmtpBpHnnoiaiU8rnJbzPTs2fciL48v2x94xI2OjqwI61k6GetM9ekqmakp
pfIGY8BwiwbIgN1VpGnsuqg2m4cch24Per9OmSMqgYrqAlak+K5bP3nJnMgZIExv
v38n4ttkr4elZASO59DV08ZqkRXJNqQEhmSSg9zeXudye1ITclFHVCSm6aAW/kCr
R2SfGwp0CGFYPAmlsYjWlUWvDf5dqJ/5MdLHZjTsEYg+DJHFNJ7Tt2MK5Mew4Mhs
zgLrATBYyhjbqyLdJPKsfLSOB9qdK1P3IWQoMIfAxjZrcHGJMr98tCcEframTpz2
aQIDAQABo4IBYzCCAV8wCQYDVR0TBAIwADAtBglghkgBhvhCAQ0EIBYeRWFzeS1S
U0EgR2VuZXJhdGVkIENlcnRpZmljYXRlMB0GA1UdDgQWBBT9es3x1+0w48r7ZNgU
SS1OmHQvOjCB4QYDVR0jBIHZMIHWgBQSzWAE0qCAnnDtxpm4eyzGUv0ZoaGBsqSB
rzCBrDELMAkGA1UEBhMCVVMxCzAJBgNVBAgTAk9IMREwDwYDVQQHEwhDb2x1bWJ1
czESMBAGA1UEChMJVmlraW5nVlBOMR0wGwYDVQQLExRNeU9yZ2FuaXphdGlvbmFs
VW5pdDEVMBMGA1UEAxMMVmlraW5nVlBOIENBMRAwDgYDVQQpEwdFYXN5UlNBMSEw
HwYJKoZIhvcNAQkBFhJtZUBteWhvc3QubXlkb21haW6CCQDPNYXugL8qPjATBgNV
HSUEDDAKBggrBgEFBQcDAjALBgNVHQ8EBAMCB4AwDQYJKoZIhvcNAQELBQADggIB
ACugFkrYR/CKq9UOZRWhNkoEDI5ztSzbF/EYyqK/mrBasmsKt2MKgwiMeIsIMrM/
WqTgDqVHfOsRgrGkGqD1YJ0nTv5bFeFGQulmMIWDTCNsymb2/pkEABXwV+A9gVSI
Q3BAAU1AuhXvTuX9XTmeY90N20UAenj9k7nC+BwQAYbfbDRzpiA4ZCHJXNNfmlHd
vYb/pECy8xdv1AFRS+bwMkSPXr3ef3lfzOvddwSL36kc2tO0YskM8SpLhyauL9q8
NwiWuvLcb1ntR+Vp32Asm/xHnstN1hnzW3ynTFuMA9FzJen7JrWE2loDEumFeuBg
rjLroWZkSCjZ76yvhGS+czs6GGUGrzjDh+qAKGnTahCEuiZUfPpShoRsBZXRT5Zy
Ny1MPJaBmzkKBjjD/ZoyTg3hQ9zjFfLT9XuRYSGw4PMd6HEOZ6PW2O0a0F1OXmmh
xVGX7eKqqBaMuNGgXiZ7G6032MsDeJ125pP+T+lheNsspbotX0ce+mEfCynSQZ/U
9wOflqruSa7kAyas4btzENV+1RxPdkEYM9A92WkhFJr6Xt1a/mCqGvpsPyIgpBEr
QLdtRd95PJCxEC2C/yDhJIzEhkX1ARDxlfSSU/pQ3Mp2N9Pw7pj1XzL0q0Be6LfX
HcLB+iH/jeCLib5s6WnMux8j3MpB+tcRVgXjeIuKhRqp
-----END CERTIFICATE-----
