Certificate:
    Data:
        Version: 3 (0x2)
        Serial Number: 1263 (0x4ef)
    Signature Algorithm: md5WithRSAEncryption
        Issuer: C=US, ST=OH, L=Columbus, O=VikingVPN, OU=MyOrganizationalUnit, CN=VikingVPN CA/name=EasyRSA/emailAddress=me@myhost.mydomain
        Validity
            Not Before: Mar 10 04:59:59 2014 GMT
            Not After : Mar  7 04:59:59 2024 GMT
        Subject: CN=Client462Certc73732
        Subject Public Key Info:
            Public Key Algorithm: rsaEncryption
                Public-Key: (4096 bit)
                Modulus:
                    00:c1:57:1b:40:75:7d:a6:cd:f0:76:bc:d7:67:93:
                    1a:d7:df:84:34:1b:33:5c:a6:8d:52:2d:10:d7:31:
                    8f:27:d4:71:3b:0b:8a:df:02:23:dd:c5:e2:9b:16:
                    19:a9:7a:d9:5d:0e:a7:63:16:ae:b0:41:80:56:dc:
                    67:45:6f:fe:e5:05:d6:ed:e2:22:4e:80:eb:ad:28:
                    e8:8b:e6:21:3b:8f:d9:3c:f6:b2:ec:4e:56:7c:f2:
                    76:73:34:0e:ed:9b:10:ed:24:a2:ff:3d:7e:75:e9:
                    17:32:52:be:df:43:13:d5:e1:79:97:40:72:17:5d:
                    67:74:60:a6:16:db:51:88:58:0d:69:60:23:f2:be:
                    42:87:e8:4a:49:30:93:75:f5:59:4d:84:dd:78:2c:
                    26:7e:40:71:7b:7e:3f:f4:ba:98:42:f2:18:c2:10:
                    70:a3:ba:3a:55:86:fc:cb:1b:8f:e6:29:12:36:2a:
                    3d:a7:f6:ab:45:7f:78:f4:31:26:6a:7c:a2:59:f0:
                    d9:0e:8c:90:09:cd:c2:a7:a8:91:f3:30:2e:bb:cb:
                    3b:34:6d:4f:41:2b:d0:1c:3c:01:47:ab:cb:cc:e3:
                    b1:a6:c5:5d:dd:c9:c7:0e:3d:14:54:34:2b:47:28:
                    c1:8a:48:6e:2a:e0:91:66:39:45:ce:89:11:79:c2:
                    93:7e:f1:c9:a6:28:b8:d4:f3:85:f2:c4:c2:a9:d0:
                    27:97:52:cb:d0:60:d9:44:ee:90:d1:97:1a:45:e5:
                    9b:95:fc:a6:53:f6:e7:04:43:f8:e3:ee:d5:5f:48:
                    2d:27:4c:d1:55:74:3b:e1:54:e4:87:0e:60:39:c5:
                    6f:ba:b4:22:76:3f:da:6d:5c:17:33:56:e3:8b:42:
                    3c:c0:20:d6:e7:ad:15:93:0f:b0:0a:30:3d:5f:55:
                    5c:dc:1b:50:9f:db:55:ef:83:50:23:4c:b0:6d:0a:
                    e5:7e:39:f0:5c:00:f6:76:f4:47:9d:e6:c8:83:37:
                    0a:a0:83:67:3c:ec:ad:a8:c2:b7:12:d8:0d:af:ea:
                    ab:97:71:f5:c1:02:01:b5:41:62:e8:4d:71:9e:9b:
                    22:18:96:45:c6:a1:3b:95:67:89:0f:61:3a:7d:a6:
                    a8:ad:89:c8:c0:49:16:e5:76:0a:bc:79:68:4d:cf:
                    8f:6b:d0:14:91:96:10:83:8b:55:78:e8:38:f2:c9:
                    49:06:69:89:5e:e0:31:f8:f9:5b:bb:f4:3d:ad:4f:
                    90:14:37:cf:61:aa:b0:b5:7f:fb:93:21:fe:84:16:
                    c7:8e:c1:03:a7:b9:c8:3b:d9:f0:c0:04:ea:fb:16:
                    58:ca:03:e0:7c:e1:93:a4:76:ee:00:07:ac:e1:63:
                    f3:77:e9
                Exponent: 65537 (0x10001)
        X509v3 extensions:
            X509v3 Basic Constraints: 
                CA:FALSE
            Netscape Comment: 
                Easy-RSA Generated Certificate
            X509v3 Subject Key Identifier: 
                1F:E1:EA:A8:3A:02:60:8E:66:15:40:36:35:24:6B:13:BC:B7:97:4A
            X509v3 Authority Key Identifier: 
                keyid:12:CD:60:04:D2:A0:80:9E:70:ED:C6:99:B8:7B:2C:C6:52:FD:19:A1
                DirName:/C=US/ST=OH/L=Columbus/O=VikingVPN/OU=MyOrganizationalUnit/CN=VikingVPN CA/name=EasyRSA/emailAddress=me@myhost.mydomain
                serial:CF:35:85:EE:80:BF:2A:3E

            X509v3 Extended Key Usage: 
                TLS Web Client Authentication
            X509v3 Key Usage: 
                Digital Signature
    Signature Algorithm: md5WithRSAEncryption
         89:eb:4d:bc:26:68:18:80:06:67:32:05:49:a4:82:61:d0:1e:
         c6:ad:ef:71:91:fa:08:33:88:41:3f:0e:48:15:e8:fd:a2:e7:
         1a:f9:75:84:47:7f:ec:6c:e7:64:8e:6d:92:2e:a6:01:7c:ea:
         38:be:98:83:3b:29:53:80:0a:02:a8:0b:be:9f:39:8f:6d:3f:
         b4:da:b9:f9:e0:c4:06:c6:2e:93:d4:6c:81:5d:cb:ce:60:78:
         78:ce:d8:da:4c:78:92:46:09:d4:b0:8b:76:f8:85:3c:4a:52:
         a5:18:79:a1:c2:2f:bb:98:5b:70:9d:5c:3f:97:43:83:a0:53:
         6f:0c:b0:49:39:b4:e2:19:85:03:4c:4e:1a:a3:4d:a6:b1:ca:
         32:59:f6:23:99:27:b4:df:48:7a:89:cd:71:d9:ca:d4:b9:7d:
         d2:31:c7:d1:5a:38:3a:71:6d:d7:93:ac:7e:85:c1:7e:92:e7:
         44:16:5b:67:0f:64:07:d8:7a:e5:c9:5c:c5:46:ef:3d:ec:11:
         99:3f:f5:a9:af:d0:28:0f:cd:05:f1:36:57:28:b2:84:8e:2a:
         07:53:e2:6f:90:35:cd:0d:41:10:8e:c8:a0:ef:da:cf:98:59:
         1e:3a:79:c4:18:8f:2d:df:4f:61:01:6e:b0:f2:74:41:09:c4:
         e1:ed:b5:b4:22:32:6a:97:fe:ed:12:01:db:6b:54:e8:f2:6d:
         2f:35:bf:0d:5b:95:9e:5d:47:a0:1c:98:57:ab:94:f7:20:5f:
         93:28:79:b4:44:06:00:48:a9:32:90:4b:66:14:10:53:24:7b:
         c9:bd:11:ff:8a:17:95:a8:36:13:3a:3b:01:7a:26:8e:6f:d7:
         80:57:da:8a:8c:bd:0f:32:d4:cb:57:fd:82:74:0b:3e:f1:11:
         0e:d0:09:e0:ff:e9:16:c9:2d:f4:25:9d:94:4a:fc:ed:c8:71:
         9f:ae:61:f2:81:bc:29:52:aa:d2:22:02:96:ba:9d:af:2f:4f:
         75:e9:40:15:cd:03:1b:53:6c:7d:be:31:c9:2a:9b:55:d0:1b:
         36:57:8d:60:96:23:9a:57:da:1f:1b:a5:79:ae:cc:a8:e2:e8:
         94:f7:d7:83:89:0b:55:5c:76:60:54:9a:b2:e6:85:e7:ae:ca:
         d2:df:12:c2:41:8a:e2:b6:76:15:14:fd:db:b8:36:bc:6b:1a:
         46:82:cc:49:8e:c9:f7:b7:83:de:54:34:be:30:f1:5c:9f:fe:
         46:2b:07:b1:e4:38:f2:0d:d7:fb:88:1e:e9:11:ac:0a:f4:6d:
         2d:61:41:f5:29:32:06:fb:d3:26:37:8c:97:15:b7:54:ba:86:
         ab:47:6f:4a:36:61:cc:e4
-----BEGIN CERTIFICATE-----
MIIGrDCCBJSgAwIBAgICBO8wDQYJKoZIhvcNAQEEBQAwgawxCzAJBgNVBAYTAlVT
MQswCQYDVQQIEwJPSDERMA8GA1UEBxMIQ29sdW1idXMxEjAQBgNVBAoTCVZpa2lu
Z1ZQTjEdMBsGA1UECxMUTXlPcmdhbml6YXRpb25hbFVuaXQxFTATBgNVBAMTDFZp
a2luZ1ZQTiBDQTEQMA4GA1UEKRMHRWFzeVJTQTEhMB8GCSqGSIb3DQEJARYSbWVA
bXlob3N0Lm15ZG9tYWluMB4XDTE0MDMxMDA0NTk1OVoXDTI0MDMwNzA0NTk1OVow
HjEcMBoGA1UEAxMTQ2xpZW50NDYyQ2VydGM3MzczMjCCAiIwDQYJKoZIhvcNAQEB
BQADggIPADCCAgoCggIBAMFXG0B1fabN8Ha812eTGtffhDQbM1ymjVItENcxjyfU
cTsLit8CI93F4psWGal62V0Op2MWrrBBgFbcZ0Vv/uUF1u3iIk6A660o6IvmITuP
2Tz2suxOVnzydnM0Du2bEO0kov89fnXpFzJSvt9DE9XheZdAchddZ3RgphbbUYhY
DWlgI/K+QofoSkkwk3X1WU2E3XgsJn5AcXt+P/S6mELyGMIQcKO6OlWG/Msbj+Yp
EjYqPaf2q0V/ePQxJmp8olnw2Q6MkAnNwqeokfMwLrvLOzRtT0Er0Bw8AUery8zj
sabFXd3Jxw49FFQ0K0cowYpIbirgkWY5Rc6JEXnCk37xyaYouNTzhfLEwqnQJ5dS
y9Bg2UTukNGXGkXlm5X8plP25wRD+OPu1V9ILSdM0VV0O+FU5IcOYDnFb7q0InY/
2m1cFzNW44tCPMAg1uetFZMPsAowPV9VXNwbUJ/bVe+DUCNMsG0K5X458FwA9nb0
R53myIM3CqCDZzzsrajCtxLYDa/qq5dx9cECAbVBYuhNcZ6bIhiWRcahO5VniQ9h
On2mqK2JyMBJFuV2Crx5aE3Pj2vQFJGWEIOLVXjoOPLJSQZpiV7gMfj5W7v0Pa1P
kBQ3z2GqsLV/+5Mh/oQWx47BA6e5yDvZ8MAE6vsWWMoD4Hzhk6R27gAHrOFj83fp
AgMBAAGjggFjMIIBXzAJBgNVHRMEAjAAMC0GCWCGSAGG+EIBDQQgFh5FYXN5LVJT
QSBHZW5lcmF0ZWQgQ2VydGlmaWNhdGUwHQYDVR0OBBYEFB/h6qg6AmCOZhVANjUk
axO8t5dKMIHhBgNVHSMEgdkwgdaAFBLNYATSoICecO3Gmbh7LMZS/RmhoYGypIGv
MIGsMQswCQYDVQQGEwJVUzELMAkGA1UECBMCT0gxETAPBgNVBAcTCENvbHVtYnVz
MRIwEAYDVQQKEwlWaWtpbmdWUE4xHTAbBgNVBAsTFE15T3JnYW5pemF0aW9uYWxV
bml0MRUwEwYDVQQDEwxWaWtpbmdWUE4gQ0ExEDAOBgNVBCkTB0Vhc3lSU0ExITAf
BgkqhkiG9w0BCQEWEm1lQG15aG9zdC5teWRvbWFpboIJAM81he6Avyo+MBMGA1Ud
JQQMMAoGCCsGAQUFBwMCMAsGA1UdDwQEAwIHgDANBgkqhkiG9w0BAQQFAAOCAgEA
ietNvCZoGIAGZzIFSaSCYdAexq3vcZH6CDOIQT8OSBXo/aLnGvl1hEd/7GznZI5t
ki6mAXzqOL6YgzspU4AKAqgLvp85j20/tNq5+eDEBsYuk9RsgV3LzmB4eM7Y2kx4
kkYJ1LCLdviFPEpSpRh5ocIvu5hbcJ1cP5dDg6BTbwywSTm04hmFA0xOGqNNprHK
Mln2I5kntN9IeonNcdnK1Ll90jHH0Vo4OnFt15OsfoXBfpLnRBZbZw9kB9h65clc
xUbvPewRmT/1qa/QKA/NBfE2VyiyhI4qB1Pib5A1zQ1BEI7IoO/az5hZHjp5xBiP
Ld9PYQFusPJ0QQnE4e21tCIyapf+7RIB22tU6PJtLzW/DVuVnl1HoByYV6uU9yBf
kyh5tEQGAEipMpBLZhQQUyR7yb0R/4oXlag2Ezo7AXomjm/XgFfaioy9DzLUy1f9
gnQLPvERDtAJ4P/pFskt9CWdlEr87chxn65h8oG8KVKq0iIClrqdry9PdelAFc0D
G1Nsfb4xySqbVdAbNleNYJYjmlfaHxulea7MqOLolPfXg4kLVVx2YFSasuaF567K
0t8SwkGK4rZ2FRT927g2vGsaRoLMSY7J97eD3lQ0vjDxXJ/+RisHseQ48g3X+4ge
6RGsCvRtLWFB9SkyBvvTJjeMlxW3VLqGq0dvSjZhzOQ=
-----END CERTIFICATE-----
