Certificate:
    Data:
        Version: 3 (0x2)
        Serial Number: 5168 (0x1430)
    Signature Algorithm: md5WithRSAEncryption
        Issuer: C=US, ST=OH, L=Columbus, O=VikingVPN, OU=MyOrganizationalUnit, CN=VikingVPN CA/name=EasyRSA/emailAddress=me@myhost.mydomain
        Validity
            Not Before: May  6 01:53:15 2015 GMT
            Not After : May  3 01:53:15 2025 GMT
        Subject: CN=Client1364Cert74b7e5
        Subject Public Key Info:
            Public Key Algorithm: rsaEncryption
                Public-Key: (4096 bit)
                Modulus:
                    00:c0:7b:f2:41:91:df:e8:01:13:8a:b4:5e:97:e9:
                    09:50:cf:53:e7:27:0c:eb:e3:2d:e5:ff:18:7b:c3:
                    45:94:98:4b:97:3f:ed:82:9f:ee:94:90:b2:56:8a:
                    e1:05:86:e9:7a:33:b5:27:99:d4:c8:3e:c2:81:ea:
                    30:95:9f:48:67:47:58:d3:0d:8a:b2:74:24:a7:07:
                    90:36:40:85:20:c9:95:b6:67:79:3b:5b:fb:77:8d:
                    06:fa:20:85:6b:f9:6d:6e:0e:d5:2e:74:63:61:20:
                    31:8b:3a:62:fe:01:68:2f:37:c1:90:72:c4:ed:51:
                    21:61:42:a1:7e:93:f4:19:9e:3a:dc:21:e9:3b:5c:
                    b0:aa:12:6d:d5:1b:57:2e:fd:e1:3a:ea:01:f3:0a:
                    6e:59:f1:d5:a2:39:05:47:c0:93:9e:e7:2d:0c:28:
                    15:e8:c6:c0:31:e1:ed:ef:ed:d0:42:27:bc:8a:dc:
                    da:bd:ed:6d:3c:9e:e1:ad:1d:e3:b3:87:95:62:bb:
                    65:88:7e:1f:66:6f:a0:13:6d:9f:f7:b0:42:2a:09:
                    9d:6e:6c:43:a1:fd:08:81:8e:81:7a:7c:45:b7:b5:
                    83:d5:27:5f:01:57:42:69:6f:c2:40:db:81:aa:c0:
                    c4:34:3d:48:01:7a:cc:82:c5:7e:ab:42:9e:1e:00:
                    99:73:51:65:08:fc:0b:c9:b9:f1:14:dc:6e:cf:4f:
                    ad:16:43:a6:b1:14:f1:88:83:50:a3:7f:80:c7:0f:
                    08:df:e8:81:9d:22:01:ce:66:ea:e0:f6:77:13:f1:
                    1a:76:2f:57:75:1e:91:b5:50:bb:8c:00:ce:e8:57:
                    d3:ad:f6:53:10:8c:15:64:71:2b:21:b5:ff:81:bf:
                    f7:4a:da:b0:8d:a4:d3:d6:44:90:53:5a:7b:31:b1:
                    72:f6:d4:d0:8b:30:19:9b:3b:9e:0a:51:fe:ce:03:
                    93:32:a9:c6:c3:46:4d:56:b2:df:71:de:d9:4d:02:
                    06:69:b7:40:0c:6c:c9:14:92:78:a4:11:bb:94:6d:
                    d3:5f:06:2d:5e:51:49:52:ad:f8:06:de:32:8b:74:
                    98:79:8c:96:df:07:73:ee:46:78:c3:7e:cf:e7:66:
                    ce:ba:44:0c:db:a8:a7:1f:80:c3:57:d3:71:45:31:
                    e8:fc:fd:2f:46:2f:fc:3b:5c:0a:0e:b5:a0:3f:d1:
                    69:4c:1b:fc:31:5f:e1:23:45:58:1c:e2:17:4a:f9:
                    c4:0e:20:61:d8:f3:f1:61:ff:c1:36:d5:c1:ef:5e:
                    67:16:7c:1d:25:73:5c:fc:ca:46:70:ff:44:ef:38:
                    60:73:20:a7:51:56:61:e5:d7:ba:46:6b:61:90:84:
                    0c:a6:0f
                Exponent: 65537 (0x10001)
        X509v3 extensions:
            X509v3 Basic Constraints: 
                CA:FALSE
            Netscape Comment: 
                Easy-RSA Generated Certificate
            X509v3 Subject Key Identifier: 
                8E:A9:1B:4E:EA:AC:45:62:CB:D3:7A:C2:01:97:93:6A:6E:EB:53:5D
            X509v3 Authority Key Identifier: 
                keyid:12:CD:60:04:D2:A0:80:9E:70:ED:C6:99:B8:7B:2C:C6:52:FD:19:A1
                DirName:/C=US/ST=OH/L=Columbus/O=VikingVPN/OU=MyOrganizationalUnit/CN=VikingVPN CA/name=EasyRSA/emailAddress=me@myhost.mydomain
                serial:CF:35:85:EE:80:BF:2A:3E

            X509v3 Extended Key Usage: 
                TLS Web Client Authentication
            X509v3 Key Usage: 
                Digital Signature
    Signature Algorithm: md5WithRSAEncryption
         67:1c:5c:78:0e:f7:c7:71:19:ff:c4:a2:9b:f8:2a:13:52:17:
         29:2d:2b:a9:98:9d:3f:9e:ce:d7:b3:39:a7:d4:27:7c:f7:a6:
         d5:33:fb:db:83:b8:78:0b:84:d4:c6:68:15:90:53:75:34:b3:
         dd:bb:62:e5:ae:43:14:d4:2e:71:5f:9d:1a:88:e9:4a:2d:c1:
         fc:33:d2:e5:ca:19:61:06:98:19:80:f8:22:44:62:10:b0:3a:
         d7:44:c4:e9:96:32:43:1a:9a:f4:2f:a2:4e:ab:21:e9:7c:93:
         c8:f1:20:16:21:17:4d:81:ee:ee:cf:8e:ad:83:d7:78:47:8f:
         7c:5d:30:5d:e2:c2:57:c6:2a:fc:75:a8:7d:be:0a:5d:eb:aa:
         1f:fd:79:44:ac:11:af:79:de:0d:c5:fa:61:ea:1a:3d:cc:dc:
         b2:81:89:4c:a6:c0:81:6e:33:6a:60:70:5d:25:ee:4f:32:13:
         43:cc:75:98:c1:4e:f8:87:38:bc:19:08:75:50:e4:f2:3a:e7:
         a5:70:7c:f7:c3:a5:27:58:21:ef:ce:b3:fa:79:f3:14:83:89:
         30:db:a3:95:27:ef:4a:41:79:e4:a0:8c:11:0d:0b:c1:c4:46:
         69:32:dd:ac:2e:2e:8b:85:ee:3d:93:75:23:0d:c9:ef:4c:6a:
         09:2d:86:85:0d:8a:d1:bb:a2:01:9e:9f:40:8f:8f:b1:ae:af:
         2a:8d:84:3e:a7:78:f7:76:a7:ad:31:bf:0f:de:5a:27:3a:1c:
         ea:1f:e7:06:33:3b:09:d3:58:5f:c7:5d:bb:70:8e:2d:da:77:
         ea:ae:5d:4f:a4:9a:48:b5:71:52:e2:c1:17:e6:c4:f4:8b:8d:
         a6:93:51:53:a9:6e:31:0b:8d:aa:8c:76:fc:e8:6e:7a:a1:7e:
         b4:62:d6:64:e8:d1:6a:c5:82:1d:6f:72:f8:a8:1a:81:22:8c:
         e3:2c:5f:b1:30:7e:66:71:31:da:de:4d:26:7f:c2:b4:79:60:
         bf:10:1b:c1:62:c0:59:1a:d0:81:4d:ed:5e:f1:04:29:6f:d9:
         b5:7f:cb:8b:85:a8:d6:72:d5:a7:47:52:e3:ba:29:ee:d0:b7:
         b3:66:53:dd:9e:c5:a2:0e:40:39:3e:08:b0:ac:c0:4b:0d:a8:
         a9:d0:39:99:54:d6:eb:df:86:08:67:1d:cb:c8:78:ae:de:9a:
         cb:04:cb:f3:61:47:f0:2d:52:45:f2:d1:d0:d2:96:b6:e9:0d:
         1e:66:0e:54:0f:87:4e:b3:ea:52:08:6f:54:31:97:7b:15:d3:
         93:ba:6c:69:46:ad:bf:28:9a:76:31:38:d5:6d:ae:d5:d8:b0:
         6e:ec:26:0c:9b:e9:47:d6
-----BEGIN CERTIFICATE-----
MIIGrTCCBJWgAwIBAgICFDAwDQYJKoZIhvcNAQEEBQAwgawxCzAJBgNVBAYTAlVT
MQswCQYDVQQIEwJPSDERMA8GA1UEBxMIQ29sdW1idXMxEjAQBgNVBAoTCVZpa2lu
Z1ZQTjEdMBsGA1UECxMUTXlPcmdhbml6YXRpb25hbFVuaXQxFTATBgNVBAMTDFZp
a2luZ1ZQTiBDQTEQMA4GA1UEKRMHRWFzeVJTQTEhMB8GCSqGSIb3DQEJARYSbWVA
bXlob3N0Lm15ZG9tYWluMB4XDTE1MDUwNjAxNTMxNVoXDTI1MDUwMzAxNTMxNVow
HzEdMBsGA1UEAxMUQ2xpZW50MTM2NENlcnQ3NGI3ZTUwggIiMA0GCSqGSIb3DQEB
AQUAA4ICDwAwggIKAoICAQDAe/JBkd/oAROKtF6X6QlQz1PnJwzr4y3l/xh7w0WU
mEuXP+2Cn+6UkLJWiuEFhul6M7UnmdTIPsKB6jCVn0hnR1jTDYqydCSnB5A2QIUg
yZW2Z3k7W/t3jQb6IIVr+W1uDtUudGNhIDGLOmL+AWgvN8GQcsTtUSFhQqF+k/QZ
njrcIek7XLCqEm3VG1cu/eE66gHzCm5Z8dWiOQVHwJOe5y0MKBXoxsAx4e3v7dBC
J7yK3Nq97W08nuGtHeOzh5Viu2WIfh9mb6ATbZ/3sEIqCZ1ubEOh/QiBjoF6fEW3
tYPVJ18BV0Jpb8JA24GqwMQ0PUgBesyCxX6rQp4eAJlzUWUI/AvJufEU3G7PT60W
Q6axFPGIg1Cjf4DHDwjf6IGdIgHOZurg9ncT8Rp2L1d1HpG1ULuMAM7oV9Ot9lMQ
jBVkcSshtf+Bv/dK2rCNpNPWRJBTWnsxsXL21NCLMBmbO54KUf7OA5MyqcbDRk1W
st9x3tlNAgZpt0AMbMkUknikEbuUbdNfBi1eUUlSrfgG3jKLdJh5jJbfB3PuRnjD
fs/nZs66RAzbqKcfgMNX03FFMej8/S9GL/w7XAoOtaA/0WlMG/wxX+EjRVgc4hdK
+cQOIGHY8/Fh/8E21cHvXmcWfB0lc1z8ykZw/0TvOGBzIKdRVmHl17pGa2GQhAym
DwIDAQABo4IBYzCCAV8wCQYDVR0TBAIwADAtBglghkgBhvhCAQ0EIBYeRWFzeS1S
U0EgR2VuZXJhdGVkIENlcnRpZmljYXRlMB0GA1UdDgQWBBSOqRtO6qxFYsvTesIB
l5NqbutTXTCB4QYDVR0jBIHZMIHWgBQSzWAE0qCAnnDtxpm4eyzGUv0ZoaGBsqSB
rzCBrDELMAkGA1UEBhMCVVMxCzAJBgNVBAgTAk9IMREwDwYDVQQHEwhDb2x1bWJ1
czESMBAGA1UEChMJVmlraW5nVlBOMR0wGwYDVQQLExRNeU9yZ2FuaXphdGlvbmFs
VW5pdDEVMBMGA1UEAxMMVmlraW5nVlBOIENBMRAwDgYDVQQpEwdFYXN5UlNBMSEw
HwYJKoZIhvcNAQkBFhJtZUBteWhvc3QubXlkb21haW6CCQDPNYXugL8qPjATBgNV
HSUEDDAKBggrBgEFBQcDAjALBgNVHQ8EBAMCB4AwDQYJKoZIhvcNAQEEBQADggIB
AGccXHgO98dxGf/Eopv4KhNSFyktK6mYnT+eztezOafUJ3z3ptUz+9uDuHgLhNTG
aBWQU3U0s927YuWuQxTULnFfnRqI6Uotwfwz0uXKGWEGmBmA+CJEYhCwOtdExOmW
MkMamvQvok6rIel8k8jxIBYhF02B7u7Pjq2D13hHj3xdMF3iwlfGKvx1qH2+Cl3r
qh/9eUSsEa953g3F+mHqGj3M3LKBiUymwIFuM2pgcF0l7k8yE0PMdZjBTviHOLwZ
CHVQ5PI656VwfPfDpSdYIe/Os/p58xSDiTDbo5Un70pBeeSgjBENC8HERmky3awu
LouF7j2TdSMNye9MagkthoUNitG7ogGen0CPj7GuryqNhD6nePd2p60xvw/eWic6
HOof5wYzOwnTWF/HXbtwji3ad+quXU+kmki1cVLiwRfmxPSLjaaTUVOpbjELjaqM
dvzobnqhfrRi1mTo0WrFgh1vcvioGoEijOMsX7EwfmZxMdreTSZ/wrR5YL8QG8Fi
wFka0IFN7V7xBClv2bV/y4uFqNZy1adHUuO6Ke7Qt7NmU92exaIOQDk+CLCswEsN
qKnQOZlU1uvfhghnHcvIeK7emssEy/NhR/AtUkXy0dDSlrbpDR5mDlQPh06z6lII
b1Qxl3sV05O6bGlGrb8omnYxONVtrtXYsG7sJgyb6UfW
-----END CERTIFICATE-----
