Certificate:
    Data:
        Version: 3 (0x2)
        Serial Number: 617 (0x269)
    Signature Algorithm: md5WithRSAEncryption
        Issuer: C=US, ST=OH, L=Columbus, O=VikingVPN, OU=MyOrganizationalUnit, CN=VikingVPN CA/name=EasyRSA/emailAddress=me@myhost.mydomain
        Validity
            Not Before: Dec 19 18:04:12 2013 GMT
            Not After : Dec 17 18:04:12 2023 GMT
        Subject: CN=Client241Cert561636
        Subject Public Key Info:
            Public Key Algorithm: rsaEncryption
                Public-Key: (4096 bit)
                Modulus:
                    00:ef:57:8a:f0:e7:63:c8:2c:f6:0e:ed:9e:bf:4a:
                    df:f0:68:56:6a:05:33:54:44:35:d9:12:80:77:f0:
                    03:c7:23:ad:ae:48:2b:7a:1f:5d:72:7c:68:4e:90:
                    83:34:e4:44:44:38:9a:2a:ed:ac:b6:1b:38:f0:49:
                    0e:52:02:21:66:a1:51:7e:c2:df:8d:31:2d:d0:39:
                    7c:d8:48:ef:18:fa:90:fd:7e:19:0e:ef:4e:84:ac:
                    fa:d8:cf:6e:81:75:eb:d0:6e:dd:33:bf:b1:d3:17:
                    c1:42:a5:6c:02:e2:c9:6e:e0:62:e7:a1:9f:78:97:
                    a6:62:96:cc:b5:37:a3:49:48:bd:01:bc:ef:e9:82:
                    fe:17:61:97:50:cd:a5:c5:3c:ef:10:67:3c:68:6b:
                    cf:56:c6:6f:ae:8f:0f:cf:28:cd:0e:4a:27:12:cf:
                    1a:50:20:37:5f:3c:2e:d6:4c:ca:4e:3e:45:1a:78:
                    37:0b:8d:4f:0a:d5:2f:09:f9:8b:d7:e9:a5:b8:f3:
                    44:5c:82:b1:e2:09:0d:42:57:3d:37:69:c6:ba:52:
                    36:0f:9d:33:83:26:73:c9:c0:d7:c7:07:41:91:23:
                    0b:d1:a9:1b:f0:92:f2:37:f1:05:af:50:a9:b1:b5:
                    7f:ad:6c:7f:f0:ba:f4:ab:53:fd:e5:b3:a7:ae:96:
                    16:0d:21:5f:0c:28:c0:64:1e:8b:fd:7d:33:9e:20:
                    3c:34:a8:26:80:0a:c3:fd:47:03:2a:d1:1c:b7:4c:
                    02:d4:fe:7a:e6:cd:a9:f0:69:6a:ef:e4:b0:55:db:
                    f5:5e:84:ce:73:39:21:98:a7:79:00:23:9c:40:7c:
                    ce:44:df:45:91:55:b1:87:bf:b3:43:3c:d9:c9:12:
                    0f:3b:d6:48:6e:07:a6:58:e8:fd:8f:45:cf:21:d3:
                    1b:58:dd:85:94:a8:7b:b0:57:6f:aa:20:1d:6d:62:
                    74:85:1c:06:16:2d:ad:dd:f2:c3:fd:f4:fa:37:ef:
                    59:09:8a:17:ee:19:67:67:f6:94:7e:62:83:9c:bc:
                    95:21:84:0e:9b:0d:83:9e:b5:5d:6c:b3:20:14:e7:
                    2f:0e:c2:6f:07:ec:8f:f2:9c:d5:ea:82:79:84:c3:
                    d3:2c:de:b3:15:ac:a0:3e:c2:7c:44:d5:bf:93:ef:
                    d4:85:a1:67:98:1d:ab:5f:3f:c3:2f:fe:62:52:f5:
                    0d:f7:89:6a:1a:c6:13:e4:24:cb:1d:67:ce:ac:8a:
                    f8:b5:59:20:41:cf:92:2d:52:4d:a4:c9:a1:d9:0a:
                    0f:6b:e7:4d:dc:0c:a9:7f:52:b8:c8:66:f9:01:87:
                    04:4e:5c:2d:a4:75:86:28:5f:25:59:04:19:76:96:
                    11:e8:7d
                Exponent: 65537 (0x10001)
        X509v3 extensions:
            X509v3 Basic Constraints: 
                CA:FALSE
            Netscape Comment: 
                Easy-RSA Generated Certificate
            X509v3 Subject Key Identifier: 
                5E:D9:A7:89:74:F9:CD:44:5C:B2:A7:98:52:BF:1D:8C:4F:82:A1:52
            X509v3 Authority Key Identifier: 
                keyid:12:CD:60:04:D2:A0:80:9E:70:ED:C6:99:B8:7B:2C:C6:52:FD:19:A1
                DirName:/C=US/ST=OH/L=Columbus/O=VikingVPN/OU=MyOrganizationalUnit/CN=VikingVPN CA/name=EasyRSA/emailAddress=me@myhost.mydomain
                serial:CF:35:85:EE:80:BF:2A:3E

            X509v3 Extended Key Usage: 
                TLS Web Client Authentication
            X509v3 Key Usage: 
                Digital Signature
    Signature Algorithm: md5WithRSAEncryption
         b5:f3:ae:2a:c5:57:52:0d:b8:81:f5:ca:86:1b:ff:96:0d:d8:
         71:87:b8:b1:75:1a:8c:6c:35:a1:45:64:ab:76:8b:2f:20:58:
         44:cc:80:c7:93:a1:0f:1c:73:87:2d:54:54:13:81:6a:c2:37:
         bd:51:5f:cc:6a:69:5d:70:ca:c9:63:80:20:bf:0f:eb:91:88:
         90:5b:94:c6:5b:1e:dd:4c:14:fc:e8:c9:9b:7e:c8:37:04:98:
         1c:10:07:22:ea:f7:17:32:a6:b3:5b:d8:35:cb:1d:19:7d:9c:
         2a:43:2c:ed:78:9e:c2:4e:b1:75:2d:01:fd:1c:d9:e5:a4:26:
         65:25:02:3a:71:5f:5a:0c:ae:69:b5:18:bf:fe:00:af:e5:06:
         b4:97:8c:1a:6f:c5:3f:b2:1c:1e:90:b2:2e:f1:64:22:ea:96:
         d0:74:69:8f:d4:59:70:ec:28:9d:59:35:c3:f4:ba:32:05:e2:
         2d:9c:c0:a8:5c:0c:73:6e:7d:51:e7:c2:50:bc:d3:0e:ed:e7:
         b4:af:0b:f3:c7:0b:7a:e9:04:3a:f7:29:a7:4b:3c:f1:b2:0c:
         69:2e:e7:6e:81:60:97:e1:f4:b2:68:05:3c:f7:7b:8b:34:21:
         8f:6c:b7:eb:49:2d:c6:a9:34:29:fe:e0:34:6b:fa:36:b8:4c:
         37:f2:2a:ad:53:d7:67:90:d2:69:02:eb:9b:9e:ef:01:92:3f:
         a6:22:98:8f:e9:a1:0e:23:60:6e:72:ef:d6:06:b8:64:04:39:
         54:af:0d:89:6c:1b:f0:d7:f9:08:73:fe:a4:be:7f:db:08:56:
         04:15:87:e3:be:66:dd:a3:f2:56:72:49:4d:2c:d6:8f:7f:3e:
         0a:51:4c:de:3a:ef:eb:04:9a:7c:5d:43:4e:9c:7a:d3:31:b5:
         64:90:d1:0a:0c:95:af:97:d8:b7:26:05:95:a4:5a:52:e5:80:
         4d:15:1e:34:4f:12:7e:a8:2c:c3:8d:15:44:ee:d9:f7:aa:08:
         29:ff:82:63:ee:a2:18:e3:66:52:01:09:9c:e3:49:a1:a0:dc:
         62:44:06:31:2b:05:45:a4:5d:5e:51:dd:40:fb:5a:1f:d5:d4:
         f9:ce:d8:5c:68:3c:c3:f4:f1:a2:f9:e9:99:30:32:4a:62:12:
         7f:6d:9e:04:48:b6:d2:98:1c:85:ba:1a:e7:6c:cd:97:79:4c:
         8c:59:c5:03:fe:60:1c:42:90:a1:02:5c:2d:93:2d:16:6e:3a:
         e3:f1:1e:f1:0e:c9:1b:1b:bd:dc:ae:b1:8c:6f:f0:ab:ee:33:
         36:7f:b5:81:22:60:99:a5:41:ce:a4:27:2d:bb:5f:df:a9:6b:
         0e:17:dd:38:50:e7:cb:31
-----BEGIN CERTIFICATE-----
MIIGrDCCBJSgAwIBAgICAmkwDQYJKoZIhvcNAQEEBQAwgawxCzAJBgNVBAYTAlVT
MQswCQYDVQQIEwJPSDERMA8GA1UEBxMIQ29sdW1idXMxEjAQBgNVBAoTCVZpa2lu
Z1ZQTjEdMBsGA1UECxMUTXlPcmdhbml6YXRpb25hbFVuaXQxFTATBgNVBAMTDFZp
a2luZ1ZQTiBDQTEQMA4GA1UEKRMHRWFzeVJTQTEhMB8GCSqGSIb3DQEJARYSbWVA
bXlob3N0Lm15ZG9tYWluMB4XDTEzMTIxOTE4MDQxMloXDTIzMTIxNzE4MDQxMlow
HjEcMBoGA1UEAxMTQ2xpZW50MjQxQ2VydDU2MTYzNjCCAiIwDQYJKoZIhvcNAQEB
BQADggIPADCCAgoCggIBAO9XivDnY8gs9g7tnr9K3/BoVmoFM1RENdkSgHfwA8cj
ra5IK3ofXXJ8aE6QgzTkREQ4mirtrLYbOPBJDlICIWahUX7C340xLdA5fNhI7xj6
kP1+GQ7vToSs+tjPboF169Bu3TO/sdMXwUKlbALiyW7gYuehn3iXpmKWzLU3o0lI
vQG87+mC/hdhl1DNpcU87xBnPGhrz1bGb66PD88ozQ5KJxLPGlAgN188LtZMyk4+
RRp4NwuNTwrVLwn5i9fppbjzRFyCseIJDUJXPTdpxrpSNg+dM4Mmc8nA18cHQZEj
C9GpG/CS8jfxBa9QqbG1f61sf/C69KtT/eWzp66WFg0hXwwowGQei/19M54gPDSo
JoAKw/1HAyrRHLdMAtT+eubNqfBpau/ksFXb9V6EznM5IZineQAjnEB8zkTfRZFV
sYe/s0M82ckSDzvWSG4Hpljo/Y9FzyHTG1jdhZSoe7BXb6ogHW1idIUcBhYtrd3y
w/30+jfvWQmKF+4ZZ2f2lH5ig5y8lSGEDpsNg561XWyzIBTnLw7Cbwfsj/Kc1eqC
eYTD0yzesxWsoD7CfETVv5Pv1IWhZ5gdq18/wy/+YlL1DfeJahrGE+Qkyx1nzqyK
+LVZIEHPki1STaTJodkKD2vnTdwMqX9SuMhm+QGHBE5cLaR1hihfJVkEGXaWEeh9
AgMBAAGjggFjMIIBXzAJBgNVHRMEAjAAMC0GCWCGSAGG+EIBDQQgFh5FYXN5LVJT
QSBHZW5lcmF0ZWQgQ2VydGlmaWNhdGUwHQYDVR0OBBYEFF7Zp4l0+c1EXLKnmFK/
HYxPgqFSMIHhBgNVHSMEgdkwgdaAFBLNYATSoICecO3Gmbh7LMZS/RmhoYGypIGv
MIGsMQswCQYDVQQGEwJVUzELMAkGA1UECBMCT0gxETAPBgNVBAcTCENvbHVtYnVz
MRIwEAYDVQQKEwlWaWtpbmdWUE4xHTAbBgNVBAsTFE15T3JnYW5pemF0aW9uYWxV
bml0MRUwEwYDVQQDEwxWaWtpbmdWUE4gQ0ExEDAOBgNVBCkTB0Vhc3lSU0ExITAf
BgkqhkiG9w0BCQEWEm1lQG15aG9zdC5teWRvbWFpboIJAM81he6Avyo+MBMGA1Ud
JQQMMAoGCCsGAQUFBwMCMAsGA1UdDwQEAwIHgDANBgkqhkiG9w0BAQQFAAOCAgEA
tfOuKsVXUg24gfXKhhv/lg3YcYe4sXUajGw1oUVkq3aLLyBYRMyAx5OhDxxzhy1U
VBOBasI3vVFfzGppXXDKyWOAIL8P65GIkFuUxlse3UwU/OjJm37INwSYHBAHIur3
FzKms1vYNcsdGX2cKkMs7Xiewk6xdS0B/RzZ5aQmZSUCOnFfWgyuabUYv/4Ar+UG
tJeMGm/FP7IcHpCyLvFkIuqW0HRpj9RZcOwonVk1w/S6MgXiLZzAqFwMc259UefC
ULzTDu3ntK8L88cLeukEOvcpp0s88bIMaS7nboFgl+H0smgFPPd7izQhj2y360kt
xqk0Kf7gNGv6NrhMN/IqrVPXZ5DSaQLrm57vAZI/piKYj+mhDiNgbnLv1ga4ZAQ5
VK8NiWwb8Nf5CHP+pL5/2whWBBWH475m3aPyVnJJTSzWj38+ClFM3jrv6wSafF1D
Tpx60zG1ZJDRCgyVr5fYtyYFlaRaUuWATRUeNE8Sfqgsw40VRO7Z96oIKf+CY+6i
GONmUgEJnONJoaDcYkQGMSsFRaRdXlHdQPtaH9XU+c7YXGg8w/TxovnpmTAySmIS
f22eBEi20pgchboa52zNl3lMjFnFA/5gHEKQoQJcLZMtFm464/Ee8Q7JGxu93K6x
jG/wq+4zNn+1gSJgmaVBzqQnLbtf36lrDhfdOFDnyzE=
-----END CERTIFICATE-----
