Certificate:
    Data:
        Version: 3 (0x2)
        Serial Number: 4301 (0x10cd)
    Signature Algorithm: md5WithRSAEncryption
        Issuer: C=US, ST=OH, L=Columbus, O=VikingVPN, OU=MyOrganizationalUnit, CN=VikingVPN CA/name=EasyRSA/emailAddress=me@myhost.mydomain
        Validity
            Not Before: Jan 27 20:31:48 2015 GMT
            Not After : Jan 24 20:31:48 2025 GMT
        Subject: CN=Client1407Certf5dfbc
        Subject Public Key Info:
            Public Key Algorithm: rsaEncryption
                Public-Key: (4096 bit)
                Modulus:
                    00:ab:f4:92:c9:ff:ac:4b:7c:c6:0f:c7:23:80:69:
                    3a:da:e2:65:96:90:ec:c9:da:5a:9b:23:ee:78:1c:
                    9e:6a:b9:7e:61:df:8c:6b:b8:d4:1a:d2:6b:9c:e7:
                    14:39:85:e5:f6:b9:e9:fa:02:85:eb:6a:48:28:0f:
                    75:b4:05:41:43:5d:a4:e1:47:57:80:be:f9:7f:7a:
                    59:c5:fc:4f:01:99:98:7e:58:73:82:63:9c:fd:f9:
                    ac:8a:96:b6:30:49:4e:29:54:d1:21:66:a8:d6:b2:
                    96:49:76:24:d3:fe:ff:e5:9f:f4:7f:16:f9:ea:ac:
                    89:42:d1:56:29:f3:a1:4d:3d:61:bd:30:99:55:88:
                    3c:2d:50:4c:fa:44:1a:e2:4a:fd:a5:c1:1f:d5:51:
                    65:37:2e:48:94:61:5c:e7:52:78:95:72:0d:42:18:
                    f4:b0:02:07:3d:48:5d:5f:a5:21:5c:e6:e8:b9:e8:
                    a3:6f:66:3b:12:98:81:25:ec:70:59:c3:e2:2e:a8:
                    3e:f4:a5:65:10:c6:48:c8:32:e6:97:19:4d:b9:53:
                    7b:5b:e9:49:48:ab:76:f4:31:71:ea:8f:44:9c:c3:
                    0b:d1:00:7e:3b:62:32:9f:78:72:06:b0:fb:80:d1:
                    ff:67:a0:3f:82:42:7d:6d:11:b5:14:60:b0:1c:97:
                    46:72:ec:0b:0e:c4:9b:32:96:96:2d:88:ee:f1:d2:
                    20:f4:c4:85:c1:a4:f1:f8:1d:45:8e:d1:1a:44:ea:
                    65:3c:f4:56:d6:5f:2b:4a:cb:a5:24:ab:30:97:8c:
                    ff:c4:1c:da:bc:96:32:3e:10:44:a1:b1:5a:be:a1:
                    39:a3:df:92:86:15:dc:87:60:63:8f:a9:d1:77:54:
                    de:b4:50:0d:8d:c4:3f:31:51:ba:8d:d7:fc:80:24:
                    f1:b3:d7:75:93:25:d0:d1:b6:02:b3:2f:da:76:db:
                    e4:70:08:37:cf:b6:42:3e:50:2d:9d:91:d2:65:49:
                    7d:77:29:2b:e4:16:36:22:43:ee:2c:19:1a:75:16:
                    fd:53:4b:bf:8d:e8:ec:c0:32:0b:de:49:9e:dd:df:
                    33:1a:61:8a:34:43:8a:01:d9:74:73:ae:83:25:cd:
                    7f:9a:2e:b3:9a:67:fe:10:7f:7e:57:c6:4b:23:b2:
                    12:6d:d1:fd:84:22:b5:93:78:83:52:46:32:41:c7:
                    a9:94:70:ca:51:e9:22:02:a6:a5:3b:16:48:52:f2:
                    0f:bb:d4:34:fe:4b:a5:58:0e:dd:7e:13:e4:3e:df:
                    fa:cb:42:80:e7:44:3f:e7:77:2d:90:f2:43:6b:c2:
                    bc:b3:9c:e5:67:1b:88:e5:10:d4:51:b9:f5:63:70:
                    d6:1e:79
                Exponent: 65537 (0x10001)
        X509v3 extensions:
            X509v3 Basic Constraints: 
                CA:FALSE
            Netscape Comment: 
                Easy-RSA Generated Certificate
            X509v3 Subject Key Identifier: 
                6A:86:57:39:71:DD:DD:AF:39:A9:BC:61:21:67:D0:33:15:49:34:3A
            X509v3 Authority Key Identifier: 
                keyid:12:CD:60:04:D2:A0:80:9E:70:ED:C6:99:B8:7B:2C:C6:52:FD:19:A1
                DirName:/C=US/ST=OH/L=Columbus/O=VikingVPN/OU=MyOrganizationalUnit/CN=VikingVPN CA/name=EasyRSA/emailAddress=me@myhost.mydomain
                serial:CF:35:85:EE:80:BF:2A:3E

            X509v3 Extended Key Usage: 
                TLS Web Client Authentication
            X509v3 Key Usage: 
                Digital Signature
    Signature Algorithm: md5WithRSAEncryption
         a8:cf:9f:a3:20:fd:80:08:38:ce:f0:94:4b:d9:4e:fc:1a:21:
         a8:ee:41:43:04:17:b9:e4:ac:84:3f:86:29:31:e2:9c:51:db:
         9e:63:2e:44:a4:37:ca:47:71:c7:92:c8:0e:16:64:03:40:4a:
         ae:f6:c4:5c:5f:0f:08:40:13:94:af:a8:15:dc:68:dd:db:eb:
         e8:49:fc:92:c6:f0:ad:94:a8:85:10:03:6b:3a:42:4f:e5:0b:
         71:d7:55:f7:f6:9b:4d:c4:6d:f4:85:44:ea:d3:a5:1f:9d:1b:
         e0:12:2d:cf:7a:a3:fd:8e:eb:16:95:91:ee:ce:b7:38:88:93:
         b0:b8:3c:8b:5f:2b:e3:69:a0:2a:1f:cb:1c:06:5a:c9:5b:e3:
         ec:3f:cd:4a:16:dc:69:af:9c:02:84:c9:4e:08:1c:3c:b4:ef:
         64:9a:42:4f:68:11:d1:c1:63:e1:0a:5a:f9:41:8e:0a:41:43:
         6d:6d:4a:5f:81:5f:10:44:24:17:80:e0:af:68:a8:2a:9c:68:
         1a:26:d2:89:9a:be:36:8a:59:13:eb:5f:b9:8a:7a:b9:ab:a2:
         d0:61:a8:18:07:ca:04:42:52:82:8d:a3:05:c3:ab:9d:b4:af:
         12:ea:d5:24:d4:ff:61:2f:40:97:a7:d0:d6:64:62:ea:09:73:
         01:d5:ab:d6:75:6c:35:46:f3:d9:cd:c8:5e:2a:3d:67:27:3e:
         76:23:65:f0:e4:46:0c:41:c8:91:c4:53:2e:14:6f:2d:69:31:
         ca:76:9d:fa:19:12:38:21:1b:97:94:81:68:ff:ae:8a:9c:5e:
         45:5e:f2:9c:6b:5d:0d:01:30:be:94:e7:6a:02:20:e5:69:ad:
         ac:50:3a:71:80:95:bd:0e:bf:db:3a:5b:de:61:34:f4:da:f3:
         f7:b4:f9:ed:ac:0a:f4:3d:1b:94:31:41:4c:61:f3:78:92:7e:
         06:6a:b1:64:ee:b3:96:4c:60:21:73:26:f2:ea:ad:7d:77:5d:
         82:c9:e7:0b:69:ee:81:d0:5d:08:b0:75:3e:32:2d:0b:ca:35:
         eb:81:ff:67:c9:c4:83:18:0b:38:81:36:76:3f:90:46:e2:9e:
         12:34:21:6f:64:d9:0a:30:7e:fa:38:6d:d6:df:e8:3c:38:45:
         c5:91:86:3f:27:a7:b1:a3:9b:31:4e:07:d7:aa:1a:9d:15:ca:
         cf:db:d3:7e:4a:a6:2f:a7:bc:67:4e:47:c5:4f:15:45:71:1e:
         05:6b:51:96:41:e2:88:68:74:c7:ef:79:c2:89:ec:8e:a8:fd:
         76:a9:df:9b:c9:74:e5:fe:0e:bc:38:78:84:83:9a:41:95:6e:
         57:bd:8e:a2:22:76:9c:38
-----BEGIN CERTIFICATE-----
MIIGrTCCBJWgAwIBAgICEM0wDQYJKoZIhvcNAQEEBQAwgawxCzAJBgNVBAYTAlVT
MQswCQYDVQQIEwJPSDERMA8GA1UEBxMIQ29sdW1idXMxEjAQBgNVBAoTCVZpa2lu
Z1ZQTjEdMBsGA1UECxMUTXlPcmdhbml6YXRpb25hbFVuaXQxFTATBgNVBAMTDFZp
a2luZ1ZQTiBDQTEQMA4GA1UEKRMHRWFzeVJTQTEhMB8GCSqGSIb3DQEJARYSbWVA
bXlob3N0Lm15ZG9tYWluMB4XDTE1MDEyNzIwMzE0OFoXDTI1MDEyNDIwMzE0OFow
HzEdMBsGA1UEAxMUQ2xpZW50MTQwN0NlcnRmNWRmYmMwggIiMA0GCSqGSIb3DQEB
AQUAA4ICDwAwggIKAoICAQCr9JLJ/6xLfMYPxyOAaTra4mWWkOzJ2lqbI+54HJ5q
uX5h34xruNQa0muc5xQ5heX2uen6AoXrakgoD3W0BUFDXaThR1eAvvl/elnF/E8B
mZh+WHOCY5z9+ayKlrYwSU4pVNEhZqjWspZJdiTT/v/ln/R/FvnqrIlC0VYp86FN
PWG9MJlViDwtUEz6RBriSv2lwR/VUWU3LkiUYVznUniVcg1CGPSwAgc9SF1fpSFc
5ui56KNvZjsSmIEl7HBZw+IuqD70pWUQxkjIMuaXGU25U3tb6UlIq3b0MXHqj0Sc
wwvRAH47YjKfeHIGsPuA0f9noD+CQn1tEbUUYLAcl0Zy7AsOxJsylpYtiO7x0iD0
xIXBpPH4HUWO0RpE6mU89FbWXytKy6UkqzCXjP/EHNq8ljI+EEShsVq+oTmj35KG
FdyHYGOPqdF3VN60UA2NxD8xUbqN1/yAJPGz13WTJdDRtgKzL9p22+RwCDfPtkI+
UC2dkdJlSX13KSvkFjYiQ+4sGRp1Fv1TS7+N6OzAMgveSZ7d3zMaYYo0Q4oB2XRz
roMlzX+aLrOaZ/4Qf35XxksjshJt0f2EIrWTeINSRjJBx6mUcMpR6SICpqU7FkhS
8g+71DT+S6VYDt1+E+Q+3/rLQoDnRD/ndy2Q8kNrwryznOVnG4jlENRRufVjcNYe
eQIDAQABo4IBYzCCAV8wCQYDVR0TBAIwADAtBglghkgBhvhCAQ0EIBYeRWFzeS1S
U0EgR2VuZXJhdGVkIENlcnRpZmljYXRlMB0GA1UdDgQWBBRqhlc5cd3drzmpvGEh
Z9AzFUk0OjCB4QYDVR0jBIHZMIHWgBQSzWAE0qCAnnDtxpm4eyzGUv0ZoaGBsqSB
rzCBrDELMAkGA1UEBhMCVVMxCzAJBgNVBAgTAk9IMREwDwYDVQQHEwhDb2x1bWJ1
czESMBAGA1UEChMJVmlraW5nVlBOMR0wGwYDVQQLExRNeU9yZ2FuaXphdGlvbmFs
VW5pdDEVMBMGA1UEAxMMVmlraW5nVlBOIENBMRAwDgYDVQQpEwdFYXN5UlNBMSEw
HwYJKoZIhvcNAQkBFhJtZUBteWhvc3QubXlkb21haW6CCQDPNYXugL8qPjATBgNV
HSUEDDAKBggrBgEFBQcDAjALBgNVHQ8EBAMCB4AwDQYJKoZIhvcNAQEEBQADggIB
AKjPn6Mg/YAIOM7wlEvZTvwaIajuQUMEF7nkrIQ/hikx4pxR255jLkSkN8pHcceS
yA4WZANASq72xFxfDwhAE5SvqBXcaN3b6+hJ/JLG8K2UqIUQA2s6Qk/lC3HXVff2
m03EbfSFROrTpR+dG+ASLc96o/2O6xaVke7OtziIk7C4PItfK+NpoCofyxwGWslb
4+w/zUoW3GmvnAKEyU4IHDy072SaQk9oEdHBY+EKWvlBjgpBQ21tSl+BXxBEJBeA
4K9oqCqcaBom0omavjaKWRPrX7mKermrotBhqBgHygRCUoKNowXDq520rxLq1STU
/2EvQJen0NZkYuoJcwHVq9Z1bDVG89nNyF4qPWcnPnYjZfDkRgxByJHEUy4Uby1p
Mcp2nfoZEjghG5eUgWj/roqcXkVe8pxrXQ0BML6U52oCIOVpraxQOnGAlb0Ov9s6
W95hNPTa8/e0+e2sCvQ9G5QxQUxh83iSfgZqsWTus5ZMYCFzJvLqrX13XYLJ5wtp
7oHQXQiwdT4yLQvKNeuB/2fJxIMYCziBNnY/kEbinhI0IW9k2Qowfvo4bdbf6Dw4
RcWRhj8np7GjmzFOB9eqGp0Vys/b035Kpi+nvGdOR8VPFUVxHgVrUZZB4ohodMfv
ecKJ7I6o/Xap35vJdOX+Drw4eISDmkGVble9jqIidpw4
-----END CERTIFICATE-----
