Certificate:
    Data:
        Version: 3 (0x2)
        Serial Number: 3734 (0xe96)
    Signature Algorithm: md5WithRSAEncryption
        Issuer: C=US, ST=OH, L=Columbus, O=VikingVPN, OU=MyOrganizationalUnit, CN=VikingVPN CA/name=EasyRSA/emailAddress=me@myhost.mydomain
        Validity
            Not Before: Dec 19 16:14:10 2014 GMT
            Not After : Dec 16 16:14:10 2024 GMT
        Subject: CN=Client1282Cert669dcc
        Subject Public Key Info:
            Public Key Algorithm: rsaEncryption
                Public-Key: (4096 bit)
                Modulus:
                    00:a6:0a:84:d2:a0:8d:21:69:13:56:74:be:cd:9a:
                    71:7b:1b:7e:22:80:55:5a:a8:08:be:80:e8:f5:6f:
                    66:8b:77:98:11:39:96:73:fc:58:28:3f:a9:3e:9d:
                    12:65:9b:6f:db:d2:2a:0c:c2:e9:3a:ec:b9:7a:1c:
                    23:19:5f:aa:5e:3b:69:ae:14:f9:f7:1a:03:03:0a:
                    ed:5f:1d:0f:94:1e:18:76:90:3e:3c:67:d9:f3:2d:
                    43:f6:f0:d5:57:1b:1b:ce:5b:c9:ca:00:ab:2e:fb:
                    e0:4b:dd:d9:2c:84:0a:31:7c:b5:54:ce:d1:3d:61:
                    3c:25:b5:63:c8:ad:a2:8f:1b:bf:5f:20:ad:e8:2b:
                    d5:6b:3b:35:c5:49:16:2e:d5:8e:1c:4c:f6:b5:cd:
                    c2:b6:4c:bf:1d:91:4a:94:14:30:77:e2:96:09:53:
                    fa:fc:e5:68:d4:89:9d:d4:87:1d:00:ca:04:27:0e:
                    7d:55:98:c9:a1:25:c4:0a:11:e7:bf:0f:ff:ba:4b:
                    b5:b6:e0:ee:75:91:09:eb:90:7e:8a:20:3d:b9:a4:
                    c9:33:d7:85:e6:6b:8a:6c:45:f2:d0:bc:9a:f5:23:
                    f5:ce:89:9a:84:99:b8:38:3f:78:5b:06:49:a4:28:
                    2f:0e:7c:b1:91:0a:66:a9:7b:f3:73:50:ab:ef:06:
                    dd:ba:c1:82:09:2d:52:13:da:0f:1a:33:99:31:6d:
                    4d:b7:33:70:95:27:6a:06:06:b3:18:7c:22:31:71:
                    d1:c4:58:36:27:a4:94:c7:28:52:9e:0e:72:b4:44:
                    cf:d2:bd:6e:34:60:06:0f:a0:67:07:96:d3:9c:8e:
                    49:50:20:72:62:34:ff:bd:fe:a5:2d:c1:a9:ec:aa:
                    f7:cd:e6:6a:32:62:2f:e5:36:0a:66:d3:ff:c0:8e:
                    71:df:b0:ab:ca:b6:5b:b9:76:28:bb:97:a9:0b:e6:
                    9b:aa:a2:24:55:1b:3b:a6:f4:12:03:35:3e:30:e1:
                    73:b5:53:a5:b7:7c:f8:f7:82:18:f8:e3:60:34:ed:
                    a9:34:5e:87:cf:53:6e:4f:00:25:91:94:00:74:32:
                    a1:34:a5:da:c9:6d:87:b3:74:89:52:6c:f3:f0:98:
                    20:7a:3d:5a:04:ef:89:55:f1:1f:1e:a4:b9:3b:e9:
                    cc:07:c6:c3:5a:35:62:b5:0b:d2:a5:74:06:3a:1e:
                    b2:2c:64:a2:fa:fb:dd:7a:5d:fb:1b:47:3f:5d:c8:
                    7d:ea:0b:88:8c:e5:bd:c8:5f:00:e6:2c:fe:65:db:
                    5c:9f:9c:1d:8b:48:13:c3:46:e7:95:94:75:06:b2:
                    c1:f8:0b:a1:dd:1a:91:df:e3:50:b1:1f:34:61:b6:
                    82:6a:71
                Exponent: 65537 (0x10001)
        X509v3 extensions:
            X509v3 Basic Constraints: 
                CA:FALSE
            Netscape Comment: 
                Easy-RSA Generated Certificate
            X509v3 Subject Key Identifier: 
                37:58:0A:1B:18:BF:3C:3C:E6:B7:6C:1B:35:78:8D:86:79:E5:24:AE
            X509v3 Authority Key Identifier: 
                keyid:12:CD:60:04:D2:A0:80:9E:70:ED:C6:99:B8:7B:2C:C6:52:FD:19:A1
                DirName:/C=US/ST=OH/L=Columbus/O=VikingVPN/OU=MyOrganizationalUnit/CN=VikingVPN CA/name=EasyRSA/emailAddress=me@myhost.mydomain
                serial:CF:35:85:EE:80:BF:2A:3E

            X509v3 Extended Key Usage: 
                TLS Web Client Authentication
            X509v3 Key Usage: 
                Digital Signature
    Signature Algorithm: md5WithRSAEncryption
         5f:1a:d0:e5:e5:20:3b:c2:1c:36:f3:a7:8f:64:43:02:3c:f2:
         53:af:bb:8d:5e:5a:79:51:30:ae:92:02:1b:74:c5:a5:cd:c0:
         5b:21:49:83:50:f9:9b:18:30:54:2f:4b:29:fd:4f:23:cc:9d:
         33:ed:82:a0:fc:29:c7:ff:5f:73:95:50:cb:3c:1a:a2:c9:34:
         ba:5c:7f:b7:02:32:e7:5c:d4:df:43:3e:c0:cf:7a:07:f5:f9:
         18:97:19:ee:f5:96:7c:e7:56:4a:da:aa:84:85:03:ce:7b:30:
         15:5f:24:2a:eb:2d:d3:b9:50:4c:d5:54:d9:93:94:5c:cb:ab:
         58:1e:b9:d2:f0:87:4c:4f:52:80:b3:85:29:b3:ac:b7:e9:0b:
         91:c0:04:3a:e7:17:1b:0d:3f:bc:90:12:69:bd:5b:2a:fb:2d:
         39:0f:51:e8:7b:48:c4:d9:35:a9:f1:c4:3e:c8:22:b4:bc:8b:
         fc:1b:c3:12:31:e7:a8:87:4c:11:fe:f3:22:cd:97:fa:4e:6e:
         46:e6:c3:2b:11:8a:00:2b:36:88:71:67:c3:9e:7c:44:b8:a8:
         49:62:15:fb:ef:ab:ea:22:d4:b9:6d:da:f6:28:8f:9b:30:09:
         ed:80:c5:ed:58:da:31:b5:9c:57:01:be:59:9d:fe:29:26:96:
         2a:9d:21:46:4f:2a:bf:a8:a8:f1:67:6e:74:cf:fe:6e:25:0d:
         40:9f:d2:05:0c:5b:75:8c:b3:db:70:0c:1f:d4:87:34:2e:7d:
         7f:19:c9:16:ae:24:39:28:58:38:aa:ae:ab:57:f7:dd:37:c3:
         c9:72:8e:22:52:71:3b:c4:c3:69:82:3f:74:d9:d2:89:54:52:
         6e:37:e6:50:f9:97:83:4a:cf:df:37:43:67:d1:9f:d4:fe:7f:
         5d:93:87:62:64:b2:93:62:97:0c:3e:ec:59:ad:99:bf:29:27:
         09:63:89:7b:f5:77:14:b9:f8:0c:6a:0b:e6:b1:0e:9e:e7:cd:
         62:7a:43:f8:d8:39:8f:13:c4:96:21:34:1f:38:22:20:69:47:
         71:d0:71:d6:cc:a3:6b:a5:a4:5e:03:9c:50:6f:52:1d:ef:03:
         a9:34:f5:1a:74:a3:17:53:d7:7d:cb:47:f8:cf:d6:8f:b9:cf:
         f0:f4:62:ea:81:1b:96:19:f3:82:3c:73:ff:e9:93:7b:da:b9:
         73:c7:c8:68:62:06:54:03:67:37:83:0a:7f:21:02:f0:2a:53:
         00:61:f4:f4:42:1b:ce:d5:f1:b1:47:e4:28:2f:f5:e4:74:ad:
         a6:6d:f7:d9:4d:42:ba:ac:36:ee:ca:b4:7a:db:15:5b:8d:dd:
         79:04:67:3c:e9:f3:a6:4b
-----BEGIN CERTIFICATE-----
MIIGrTCCBJWgAwIBAgICDpYwDQYJKoZIhvcNAQEEBQAwgawxCzAJBgNVBAYTAlVT
MQswCQYDVQQIEwJPSDERMA8GA1UEBxMIQ29sdW1idXMxEjAQBgNVBAoTCVZpa2lu
Z1ZQTjEdMBsGA1UECxMUTXlPcmdhbml6YXRpb25hbFVuaXQxFTATBgNVBAMTDFZp
a2luZ1ZQTiBDQTEQMA4GA1UEKRMHRWFzeVJTQTEhMB8GCSqGSIb3DQEJARYSbWVA
bXlob3N0Lm15ZG9tYWluMB4XDTE0MTIxOTE2MTQxMFoXDTI0MTIxNjE2MTQxMFow
HzEdMBsGA1UEAxMUQ2xpZW50MTI4MkNlcnQ2NjlkY2MwggIiMA0GCSqGSIb3DQEB
AQUAA4ICDwAwggIKAoICAQCmCoTSoI0haRNWdL7NmnF7G34igFVaqAi+gOj1b2aL
d5gROZZz/FgoP6k+nRJlm2/b0ioMwuk67Ll6HCMZX6peO2muFPn3GgMDCu1fHQ+U
Hhh2kD48Z9nzLUP28NVXGxvOW8nKAKsu++BL3dkshAoxfLVUztE9YTwltWPIraKP
G79fIK3oK9VrOzXFSRYu1Y4cTPa1zcK2TL8dkUqUFDB34pYJU/r85WjUiZ3Uhx0A
ygQnDn1VmMmhJcQKEee/D/+6S7W24O51kQnrkH6KID25pMkz14Xma4psRfLQvJr1
I/XOiZqEmbg4P3hbBkmkKC8OfLGRCmape/NzUKvvBt26wYIJLVIT2g8aM5kxbU23
M3CVJ2oGBrMYfCIxcdHEWDYnpJTHKFKeDnK0RM/SvW40YAYPoGcHltOcjklQIHJi
NP+9/qUtwansqvfN5moyYi/lNgpm0//AjnHfsKvKtlu5dii7l6kL5puqoiRVGzum
9BIDNT4w4XO1U6W3fPj3ghj442A07ak0XofPU25PACWRlAB0MqE0pdrJbYezdIlS
bPPwmCB6PVoE74lV8R8epLk76cwHxsNaNWK1C9KldAY6HrIsZKL6+916XfsbRz9d
yH3qC4iM5b3IXwDmLP5l21yfnB2LSBPDRueVlHUGssH4C6HdGpHf41CxHzRhtoJq
cQIDAQABo4IBYzCCAV8wCQYDVR0TBAIwADAtBglghkgBhvhCAQ0EIBYeRWFzeS1S
U0EgR2VuZXJhdGVkIENlcnRpZmljYXRlMB0GA1UdDgQWBBQ3WAobGL88POa3bBs1
eI2GeeUkrjCB4QYDVR0jBIHZMIHWgBQSzWAE0qCAnnDtxpm4eyzGUv0ZoaGBsqSB
rzCBrDELMAkGA1UEBhMCVVMxCzAJBgNVBAgTAk9IMREwDwYDVQQHEwhDb2x1bWJ1
czESMBAGA1UEChMJVmlraW5nVlBOMR0wGwYDVQQLExRNeU9yZ2FuaXphdGlvbmFs
VW5pdDEVMBMGA1UEAxMMVmlraW5nVlBOIENBMRAwDgYDVQQpEwdFYXN5UlNBMSEw
HwYJKoZIhvcNAQkBFhJtZUBteWhvc3QubXlkb21haW6CCQDPNYXugL8qPjATBgNV
HSUEDDAKBggrBgEFBQcDAjALBgNVHQ8EBAMCB4AwDQYJKoZIhvcNAQEEBQADggIB
AF8a0OXlIDvCHDbzp49kQwI88lOvu41eWnlRMK6SAht0xaXNwFshSYNQ+ZsYMFQv
Syn9TyPMnTPtgqD8Kcf/X3OVUMs8GqLJNLpcf7cCMudc1N9DPsDPegf1+RiXGe71
lnznVkraqoSFA857MBVfJCrrLdO5UEzVVNmTlFzLq1geudLwh0xPUoCzhSmzrLfp
C5HABDrnFxsNP7yQEmm9Wyr7LTkPUeh7SMTZNanxxD7IIrS8i/wbwxIx56iHTBH+
8yLNl/pObkbmwysRigArNohxZ8OefES4qEliFfvvq+oi1Llt2vYoj5swCe2Axe1Y
2jG1nFcBvlmd/ikmliqdIUZPKr+oqPFnbnTP/m4lDUCf0gUMW3WMs9twDB/UhzQu
fX8ZyRauJDkoWDiqrqtX9903w8lyjiJScTvEw2mCP3TZ0olUUm435lD5l4NKz983
Q2fRn9T+f12Th2JkspNilww+7Fmtmb8pJwljiXv1dxS5+AxqC+axDp7nzWJ6Q/jY
OY8TxJYhNB84IiBpR3HQcdbMo2ulpF4DnFBvUh3vA6k09Rp0oxdT133LR/jP1o+5
z/D0YuqBG5YZ84I8c//pk3vauXPHyGhiBlQDZzeDCn8hAvAqUwBh9PRCG87V8bFH
5Cgv9eR0raZt99lNQrqsNu7KtHrbFVuN3XkEZzzp86ZL
-----END CERTIFICATE-----
