Certificate:
    Data:
        Version: 3 (0x2)
        Serial Number: 10634 (0x298a)
    Signature Algorithm: sha256WithRSAEncryption
        Issuer: C=US, ST=OH, L=Columbus, O=VikingVPN, OU=MyOrganizationalUnit, CN=VikingVPN CA/name=EasyRSA/emailAddress=me@myhost.mydomain
        Validity
            Not Before: Apr 12 18:41:44 2017 GMT
            Not After : Apr 10 18:41:44 2027 GMT
        Subject: CN=Client1702Certa3bd0a
        Subject Public Key Info:
            Public Key Algorithm: rsaEncryption
                Public-Key: (4096 bit)
                Modulus:
                    00:b4:b6:be:b3:49:be:1f:9a:ae:63:df:0a:bc:b3:
                    12:ad:30:3d:2b:78:cf:36:96:5d:e9:69:b3:1b:18:
                    5d:c2:83:ad:5d:f9:1f:92:b6:63:19:b0:1a:e8:73:
                    7d:d9:54:25:48:de:c0:a4:89:15:dd:fd:8f:a9:9e:
                    ab:0d:0f:91:5f:46:a4:88:2f:b3:bc:1f:f7:ce:80:
                    3e:72:16:7f:72:8c:98:14:38:c7:c0:15:c3:d1:1b:
                    f9:9a:79:55:a9:9c:0c:78:92:d2:06:bd:89:15:93:
                    e5:89:20:b3:34:fd:13:94:18:a5:50:13:d8:ab:4a:
                    c0:ea:4c:40:a5:fa:c0:e5:8a:41:06:c7:bb:88:db:
                    60:78:de:30:69:cf:9d:84:28:3e:5a:c5:b5:6a:f9:
                    25:f3:66:81:ce:c7:ea:cb:64:b2:4b:16:10:9f:14:
                    7e:e3:97:40:74:b3:8f:fa:a9:d3:5b:34:22:f3:8d:
                    34:49:df:81:87:37:a3:9a:a6:77:a6:fb:cb:35:ec:
                    7a:da:0f:5c:92:24:af:47:22:23:b5:87:7d:7d:28:
                    76:12:a3:71:08:7a:f6:96:6e:96:a0:3a:72:fe:32:
                    24:fa:ee:15:70:58:e2:92:c9:58:07:c5:10:70:6c:
                    a5:72:d8:f4:2f:50:7b:27:3a:25:3d:c9:58:b2:e3:
                    2b:d6:1c:a6:28:96:99:42:f7:ca:d1:6e:3a:09:ba:
                    9c:ba:f1:24:8e:bf:88:f9:16:d6:ef:7b:3e:ad:ae:
                    51:57:1e:75:a5:ab:14:d3:eb:fe:c9:34:50:0f:d4:
                    bb:68:47:17:3a:81:a3:ef:aa:95:ba:2f:76:d6:77:
                    6a:83:ea:2b:af:8d:4a:b1:65:2c:57:80:07:97:17:
                    6c:19:ba:da:3a:f5:37:0f:7d:2c:1f:b8:ed:9f:f4:
                    ff:ca:ff:c4:91:d0:ee:f0:80:15:ee:c9:67:4a:fd:
                    ce:5f:62:7e:c1:34:82:72:78:4a:6a:c1:54:8a:6b:
                    08:9f:b8:17:bb:49:eb:e7:33:08:5a:7c:da:e1:4a:
                    b9:87:b4:4e:0a:2c:5b:90:e0:1c:b1:e9:20:2d:5e:
                    2b:65:04:b4:9c:2e:bc:5c:cb:d5:af:bd:10:54:4e:
                    ef:0a:4c:1e:a8:9f:0e:80:6d:7d:95:b0:01:4f:84:
                    cb:e1:5a:1d:18:27:a5:c6:42:86:16:83:cb:47:05:
                    8f:10:61:63:2c:1f:9d:08:52:67:49:f8:0a:f4:34:
                    8e:5c:0c:06:17:77:05:61:18:86:74:86:98:12:ae:
                    d2:13:83:f4:65:31:5a:4b:02:86:21:d2:53:1e:5d:
                    d9:44:9c:65:ca:c9:3a:ae:93:78:7e:2b:10:16:9a:
                    21:1c:27
                Exponent: 65537 (0x10001)
        X509v3 extensions:
            X509v3 Basic Constraints: 
                CA:FALSE
            Netscape Comment: 
                Easy-RSA Generated Certificate
            X509v3 Subject Key Identifier: 
                72:98:7C:EE:FE:45:B7:3E:E8:E1:7F:FD:BA:A9:1B:47:3F:71:89:25
            X509v3 Authority Key Identifier: 
                keyid:12:CD:60:04:D2:A0:80:9E:70:ED:C6:99:B8:7B:2C:C6:52:FD:19:A1
                DirName:/C=US/ST=OH/L=Columbus/O=VikingVPN/OU=MyOrganizationalUnit/CN=VikingVPN CA/name=EasyRSA/emailAddress=me@myhost.mydomain
                serial:CF:35:85:EE:80:BF:2A:3E

            X509v3 Extended Key Usage: 
                TLS Web Client Authentication
            X509v3 Key Usage: 
                Digital Signature
    Signature Algorithm: sha256WithRSAEncryption
         32:8e:50:42:69:94:18:ab:cf:3d:de:39:7f:7c:ff:62:c8:74:
         0f:6d:ab:e6:35:1e:16:f7:ae:e6:43:53:2f:80:7d:0d:2f:52:
         6b:9c:0d:24:88:23:4c:7a:28:3c:a1:76:90:cd:98:02:7f:4b:
         80:19:72:59:33:63:a0:04:03:e1:68:21:de:df:c9:c3:6f:ef:
         ef:02:f1:1c:ab:e7:a4:9f:e8:9a:8e:38:fd:01:3d:ce:7d:e4:
         e1:55:1a:c5:4c:d3:81:c1:41:39:52:c3:7a:98:82:49:61:92:
         ad:c2:b4:e5:9b:3d:41:9a:c9:c2:9f:b6:0a:33:b2:c6:d6:be:
         65:08:93:80:bd:1a:37:21:46:69:5a:c8:44:a6:cd:3a:7d:81:
         49:5f:c9:ec:f0:da:0c:97:aa:9f:e0:1c:bc:d0:a0:1c:25:71:
         37:df:d9:dd:80:80:70:c7:5e:4b:8d:7f:84:01:37:5f:5e:07:
         4e:b3:e5:47:14:df:f1:a1:29:37:34:3b:a2:ab:27:b5:a8:01:
         85:3c:08:68:ee:c0:f0:f4:b7:21:da:88:c2:7f:04:44:54:3e:
         d2:ea:b1:84:a7:e3:0a:14:09:30:8c:3b:80:78:f3:ae:3f:89:
         30:cd:93:0f:51:63:88:71:61:4f:51:dd:87:28:d9:32:76:e9:
         8d:d3:f6:95:37:27:65:56:cf:30:72:f4:43:9a:3e:9d:6b:35:
         0b:14:a2:58:3f:72:5a:e6:92:40:05:be:fd:c6:cc:a5:b2:65:
         b1:35:b5:c5:fc:d4:47:bd:7b:10:b6:24:7f:3f:38:84:c0:29:
         42:73:80:69:0d:e1:b8:49:ed:85:f5:87:be:61:db:36:b0:6c:
         8b:b3:de:a6:e2:f0:3b:b8:8a:cf:cd:74:93:a5:07:7b:99:73:
         70:1d:2a:dd:63:ad:9d:c8:a5:c2:bf:ae:71:be:bb:9d:9e:a5:
         4d:80:08:f1:d5:1f:4b:c4:69:03:f8:c7:88:e0:33:60:66:45:
         f9:0b:aa:5e:cb:72:6a:7d:d6:ab:33:c6:4a:6d:3d:aa:27:de:
         0a:c8:3d:c9:f2:11:21:05:85:d8:f9:21:d7:31:09:1d:08:f3:
         92:ef:9e:34:1a:5e:be:66:c6:92:29:8c:73:bf:9b:3e:f4:ec:
         7c:e2:46:d4:e1:e2:7c:99:b6:8f:da:f7:ea:4b:60:36:b6:58:
         36:50:a7:d0:69:48:37:f0:ef:68:5f:8a:2d:25:cb:e5:8b:9d:
         85:a5:ca:77:3c:bc:9a:84:8e:fc:52:f4:1c:fd:4a:9e:f3:1b:
         5c:b0:8b:2b:b2:86:96:75:ff:8b:68:3f:f3:d2:2e:02:c9:4b:
         d5:d3:a0:a5:46:9a:14:9d
-----BEGIN CERTIFICATE-----
MIIGrTCCBJWgAwIBAgICKYowDQYJKoZIhvcNAQELBQAwgawxCzAJBgNVBAYTAlVT
MQswCQYDVQQIEwJPSDERMA8GA1UEBxMIQ29sdW1idXMxEjAQBgNVBAoTCVZpa2lu
Z1ZQTjEdMBsGA1UECxMUTXlPcmdhbml6YXRpb25hbFVuaXQxFTATBgNVBAMTDFZp
a2luZ1ZQTiBDQTEQMA4GA1UEKRMHRWFzeVJTQTEhMB8GCSqGSIb3DQEJARYSbWVA
bXlob3N0Lm15ZG9tYWluMB4XDTE3MDQxMjE4NDE0NFoXDTI3MDQxMDE4NDE0NFow
HzEdMBsGA1UEAxMUQ2xpZW50MTcwMkNlcnRhM2JkMGEwggIiMA0GCSqGSIb3DQEB
AQUAA4ICDwAwggIKAoICAQC0tr6zSb4fmq5j3wq8sxKtMD0reM82ll3pabMbGF3C
g61d+R+StmMZsBroc33ZVCVI3sCkiRXd/Y+pnqsND5FfRqSIL7O8H/fOgD5yFn9y
jJgUOMfAFcPRG/maeVWpnAx4ktIGvYkVk+WJILM0/ROUGKVQE9irSsDqTECl+sDl
ikEGx7uI22B43jBpz52EKD5axbVq+SXzZoHOx+rLZLJLFhCfFH7jl0B0s4/6qdNb
NCLzjTRJ34GHN6Oapnem+8s17HraD1ySJK9HIiO1h319KHYSo3EIevaWbpagOnL+
MiT67hVwWOKSyVgHxRBwbKVy2PQvUHsnOiU9yViy4yvWHKYolplC98rRbjoJupy6
8SSOv4j5Ftbvez6trlFXHnWlqxTT6/7JNFAP1LtoRxc6gaPvqpW6L3bWd2qD6iuv
jUqxZSxXgAeXF2wZuto69TcPfSwfuO2f9P/K/8SR0O7wgBXuyWdK/c5fYn7BNIJy
eEpqwVSKawifuBe7SevnMwhafNrhSrmHtE4KLFuQ4Byx6SAtXitlBLScLrxcy9Wv
vRBUTu8KTB6onw6AbX2VsAFPhMvhWh0YJ6XGQoYWg8tHBY8QYWMsH50IUmdJ+Ar0
NI5cDAYXdwVhGIZ0hpgSrtITg/RlMVpLAoYh0lMeXdlEnGXKyTquk3h+KxAWmiEc
JwIDAQABo4IBYzCCAV8wCQYDVR0TBAIwADAtBglghkgBhvhCAQ0EIBYeRWFzeS1S
U0EgR2VuZXJhdGVkIENlcnRpZmljYXRlMB0GA1UdDgQWBBRymHzu/kW3Pujhf/26
qRtHP3GJJTCB4QYDVR0jBIHZMIHWgBQSzWAE0qCAnnDtxpm4eyzGUv0ZoaGBsqSB
rzCBrDELMAkGA1UEBhMCVVMxCzAJBgNVBAgTAk9IMREwDwYDVQQHEwhDb2x1bWJ1
czESMBAGA1UEChMJVmlraW5nVlBOMR0wGwYDVQQLExRNeU9yZ2FuaXphdGlvbmFs
VW5pdDEVMBMGA1UEAxMMVmlraW5nVlBOIENBMRAwDgYDVQQpEwdFYXN5UlNBMSEw
HwYJKoZIhvcNAQkBFhJtZUBteWhvc3QubXlkb21haW6CCQDPNYXugL8qPjATBgNV
HSUEDDAKBggrBgEFBQcDAjALBgNVHQ8EBAMCB4AwDQYJKoZIhvcNAQELBQADggIB
ADKOUEJplBirzz3eOX98/2LIdA9tq+Y1Hhb3ruZDUy+AfQ0vUmucDSSII0x6KDyh
dpDNmAJ/S4AZclkzY6AEA+FoId7fycNv7+8C8Ryr56Sf6JqOOP0BPc595OFVGsVM
04HBQTlSw3qYgklhkq3CtOWbPUGaycKftgozssbWvmUIk4C9GjchRmlayESmzTp9
gUlfyezw2gyXqp/gHLzQoBwlcTff2d2AgHDHXkuNf4QBN19eB06z5UcU3/GhKTc0
O6KrJ7WoAYU8CGjuwPD0tyHaiMJ/BERUPtLqsYSn4woUCTCMO4B4864/iTDNkw9R
Y4hxYU9R3Yco2TJ26Y3T9pU3J2VWzzBy9EOaPp1rNQsUolg/clrmkkAFvv3GzKWy
ZbE1tcX81Ee9exC2JH8/OITAKUJzgGkN4bhJ7YX1h75h2zawbIuz3qbi8Du4is/N
dJOlB3uZc3AdKt1jrZ3IpcK/rnG+u52epU2ACPHVH0vEaQP4x4jgM2BmRfkLql7L
cmp91qszxkptPaon3grIPcnyESEFhdj5IdcxCR0I85LvnjQaXr5mxpIpjHO/mz70
7HziRtTh4nyZto/a9+pLYDa2WDZQp9BpSDfw72hfii0ly+WLnYWlync8vJqEjvxS
9Bz9Sp7zG1ywiyuyhpZ1/4toP/PSLgLJS9XToKVGmhSd
-----END CERTIFICATE-----
