Certificate:
    Data:
        Version: 3 (0x2)
        Serial Number: 5684 (0x1634)
    Signature Algorithm: md5WithRSAEncryption
        Issuer: C=US, ST=OH, L=Columbus, O=VikingVPN, OU=MyOrganizationalUnit, CN=VikingVPN CA/name=EasyRSA/emailAddress=me@myhost.mydomain
        Validity
            Not Before: Jul  3 01:57:42 2015 GMT
            Not After : Jun 30 01:57:42 2025 GMT
        Subject: CN=Client344Cert16f003
        Subject Public Key Info:
            Public Key Algorithm: rsaEncryption
                Public-Key: (4096 bit)
                Modulus:
                    00:d0:8a:25:25:aa:e6:d8:77:f7:32:94:4d:b0:39:
                    45:0f:cb:90:b5:6e:fe:fa:0e:a7:7a:6b:39:33:23:
                    d9:32:7f:4a:39:c9:1a:76:53:9b:60:13:6b:fe:98:
                    39:b2:70:0a:bb:64:40:19:03:e4:bd:b6:e9:fc:83:
                    9f:57:9d:58:31:8a:01:67:28:ce:0d:15:ca:74:5e:
                    73:99:9f:19:af:80:e6:8b:db:29:20:6c:d7:7e:67:
                    ea:11:e3:21:26:9a:64:50:d4:63:f7:b1:4c:59:f9:
                    a8:2c:10:86:19:45:7c:89:cd:ef:48:6a:27:e0:35:
                    53:59:19:18:38:c9:02:c4:81:08:a2:f1:66:8e:bd:
                    d8:e1:cd:c9:82:98:6b:5e:17:2d:2b:f6:54:81:35:
                    5a:0f:3b:f7:47:c2:f7:76:c8:f0:1d:ce:d3:b2:62:
                    58:3d:b6:85:b4:fd:fa:e9:d7:0d:cb:58:1b:3a:86:
                    57:33:7b:0f:d1:a7:e7:a3:f5:a6:bd:ab:5c:ed:51:
                    97:5e:eb:40:7c:0b:9b:0e:66:16:0a:b0:ef:33:33:
                    e4:51:2a:f3:c6:66:be:e2:2b:06:7f:50:c6:06:41:
                    f2:aa:3e:ea:60:2a:9e:7b:7b:b0:95:06:33:63:a1:
                    44:40:f8:5e:a9:e2:fe:db:fe:f1:32:72:dc:dd:21:
                    95:b0:b6:be:88:c5:c9:9e:98:4e:06:8d:5f:77:e4:
                    03:c2:e9:98:da:b0:5e:1b:88:c8:b5:fc:3e:73:69:
                    3b:b1:df:4f:03:61:03:7d:53:56:5b:6e:17:a5:e9:
                    d1:cc:1d:bc:aa:94:8a:ed:11:4d:6e:40:f1:28:64:
                    df:7c:35:36:44:da:5f:74:6b:5f:2b:77:32:8d:a8:
                    03:65:ad:ab:a3:e2:2f:cc:a1:7a:08:ea:23:25:ba:
                    9f:03:52:5d:75:bb:ae:31:95:de:cf:fe:ce:45:9f:
                    42:a7:69:48:73:71:d2:97:2b:e5:7d:b3:e2:2c:2c:
                    33:52:a8:25:3e:4a:3a:7f:70:ef:7b:bc:19:29:3d:
                    5d:06:51:03:6a:85:e7:ff:29:66:cc:73:1e:c6:de:
                    2a:52:65:9f:56:61:14:9b:bb:fa:9d:8b:9d:ff:1f:
                    a9:0e:56:3f:98:ac:de:a4:32:72:8e:6c:9d:7b:33:
                    db:4f:62:d5:95:7d:42:36:79:e6:e7:6d:a1:4e:8c:
                    3f:b0:51:b9:b6:cd:02:e0:f9:9c:4f:e0:83:e6:26:
                    ce:da:2d:06:c6:83:08:16:f4:67:ae:8d:82:98:7f:
                    7a:7b:b1:d6:f8:ef:98:83:50:ef:c2:f9:24:8f:5b:
                    ca:cd:b0:12:92:1a:67:f8:d0:0a:4f:c3:55:0a:a0:
                    12:aa:a9
                Exponent: 65537 (0x10001)
        X509v3 extensions:
            X509v3 Basic Constraints: 
                CA:FALSE
            Netscape Comment: 
                Easy-RSA Generated Certificate
            X509v3 Subject Key Identifier: 
                E8:A6:53:F8:11:42:58:19:74:AE:52:B0:4D:AB:0A:D1:5C:6F:1D:15
            X509v3 Authority Key Identifier: 
                keyid:12:CD:60:04:D2:A0:80:9E:70:ED:C6:99:B8:7B:2C:C6:52:FD:19:A1
                DirName:/C=US/ST=OH/L=Columbus/O=VikingVPN/OU=MyOrganizationalUnit/CN=VikingVPN CA/name=EasyRSA/emailAddress=me@myhost.mydomain
                serial:CF:35:85:EE:80:BF:2A:3E

            X509v3 Extended Key Usage: 
                TLS Web Client Authentication
            X509v3 Key Usage: 
                Digital Signature
    Signature Algorithm: md5WithRSAEncryption
         b4:d4:7b:a7:40:70:bf:f0:f8:38:ff:8d:97:3b:47:09:81:b9:
         d9:42:dd:8b:50:b2:8e:61:96:a0:e3:21:6b:eb:ba:d2:5f:91:
         92:ae:db:3b:df:e0:91:1e:d1:41:ed:a9:d7:7c:b0:2b:28:11:
         93:60:7b:3e:de:21:57:fc:c0:a8:9d:7f:6a:af:f2:f8:83:20:
         1d:c2:9b:83:86:3d:d8:ed:87:b3:f6:8b:dc:a9:df:3a:59:4f:
         2e:44:63:df:0d:8c:e1:8e:b7:d7:20:1e:3d:52:3e:4e:18:33:
         53:88:16:e9:81:9b:f4:44:d1:9b:7a:8e:a4:53:41:a7:00:87:
         8b:22:1b:6e:58:49:ce:2d:fd:48:5c:ee:8c:f5:71:d8:9a:20:
         58:94:21:b9:a4:f2:5a:6e:93:fe:2a:9e:78:ba:be:39:38:75:
         e0:fb:94:61:aa:33:ca:bf:e1:9d:72:64:5f:7e:d7:6b:cd:e4:
         7f:18:c7:26:37:90:aa:a7:41:65:16:0a:ad:52:fe:91:06:4f:
         e2:7e:99:08:18:da:84:85:ab:54:12:d9:c9:7c:75:10:55:46:
         b2:bd:f1:77:9a:af:c9:f4:09:79:49:73:f0:76:14:1e:94:59:
         6d:87:e4:42:b9:da:c1:aa:05:4f:af:33:28:01:dc:f7:97:7d:
         14:01:c6:ed:f2:23:69:86:d8:57:56:b2:62:4e:f8:3f:fd:db:
         eb:72:d7:4e:31:ce:a4:8b:b9:78:c3:d6:0d:36:45:fa:c1:0f:
         bb:4b:62:b6:17:4d:dd:80:12:d8:64:a8:1f:a9:c0:ef:6a:10:
         33:c3:ae:69:d8:46:05:eb:bb:b6:f0:1d:b7:0e:b7:d7:a1:4b:
         e2:d2:6f:0c:bf:7c:dd:37:16:c9:68:55:fe:64:7b:bb:ef:35:
         19:38:78:6a:ba:d0:75:bd:4d:dd:13:98:0e:7f:56:d6:79:16:
         3d:e3:a6:51:a4:54:c7:b5:9e:73:51:04:11:0a:51:19:f8:e6:
         77:39:41:58:51:98:83:f1:cb:93:fc:51:a1:1f:db:a9:3c:fe:
         6a:11:6b:81:2a:9b:20:ca:85:44:6c:51:97:8b:32:f0:b4:96:
         cd:48:4a:e7:88:85:90:1d:37:22:c2:4b:53:1b:16:7d:e0:01:
         15:65:be:8c:28:19:2d:9e:ab:ab:b5:32:6e:91:43:27:3a:33:
         ec:01:d4:2e:20:c2:c0:8c:13:99:6d:c9:23:75:9e:42:3e:56:
         c4:f6:cf:86:f3:b2:23:dd:da:7b:8c:95:26:94:8e:7e:9b:1e:
         84:85:3b:2a:9b:e2:be:c9:9c:3a:52:f4:f7:a9:0b:0b:b4:b8:
         b4:11:27:9d:2b:97:18:48
-----BEGIN CERTIFICATE-----
MIIGrDCCBJSgAwIBAgICFjQwDQYJKoZIhvcNAQEEBQAwgawxCzAJBgNVBAYTAlVT
MQswCQYDVQQIEwJPSDERMA8GA1UEBxMIQ29sdW1idXMxEjAQBgNVBAoTCVZpa2lu
Z1ZQTjEdMBsGA1UECxMUTXlPcmdhbml6YXRpb25hbFVuaXQxFTATBgNVBAMTDFZp
a2luZ1ZQTiBDQTEQMA4GA1UEKRMHRWFzeVJTQTEhMB8GCSqGSIb3DQEJARYSbWVA
bXlob3N0Lm15ZG9tYWluMB4XDTE1MDcwMzAxNTc0MloXDTI1MDYzMDAxNTc0Mlow
HjEcMBoGA1UEAxMTQ2xpZW50MzQ0Q2VydDE2ZjAwMzCCAiIwDQYJKoZIhvcNAQEB
BQADggIPADCCAgoCggIBANCKJSWq5th39zKUTbA5RQ/LkLVu/voOp3prOTMj2TJ/
SjnJGnZTm2ATa/6YObJwCrtkQBkD5L226fyDn1edWDGKAWcozg0VynRec5mfGa+A
5ovbKSBs135n6hHjISaaZFDUY/exTFn5qCwQhhlFfInN70hqJ+A1U1kZGDjJAsSB
CKLxZo692OHNyYKYa14XLSv2VIE1Wg8790fC93bI8B3O07JiWD22hbT9+unXDctY
GzqGVzN7D9Gn56P1pr2rXO1Rl17rQHwLmw5mFgqw7zMz5FEq88ZmvuIrBn9QxgZB
8qo+6mAqnnt7sJUGM2OhRED4Xqni/tv+8TJy3N0hlbC2vojFyZ6YTgaNX3fkA8Lp
mNqwXhuIyLX8PnNpO7HfTwNhA31TVltuF6Xp0cwdvKqUiu0RTW5A8Shk33w1NkTa
X3RrXyt3Mo2oA2Wtq6PiL8yhegjqIyW6nwNSXXW7rjGV3s/+zkWfQqdpSHNx0pcr
5X2z4iwsM1KoJT5KOn9w73u8GSk9XQZRA2qF5/8pZsxzHsbeKlJln1ZhFJu7+p2L
nf8fqQ5WP5is3qQyco5snXsz209i1ZV9QjZ55udtoU6MP7BRubbNAuD5nE/gg+Ym
ztotBsaDCBb0Z66Ngph/enux1vjvmINQ78L5JI9bys2wEpIaZ/jQCk/DVQqgEqqp
AgMBAAGjggFjMIIBXzAJBgNVHRMEAjAAMC0GCWCGSAGG+EIBDQQgFh5FYXN5LVJT
QSBHZW5lcmF0ZWQgQ2VydGlmaWNhdGUwHQYDVR0OBBYEFOimU/gRQlgZdK5SsE2r
CtFcbx0VMIHhBgNVHSMEgdkwgdaAFBLNYATSoICecO3Gmbh7LMZS/RmhoYGypIGv
MIGsMQswCQYDVQQGEwJVUzELMAkGA1UECBMCT0gxETAPBgNVBAcTCENvbHVtYnVz
MRIwEAYDVQQKEwlWaWtpbmdWUE4xHTAbBgNVBAsTFE15T3JnYW5pemF0aW9uYWxV
bml0MRUwEwYDVQQDEwxWaWtpbmdWUE4gQ0ExEDAOBgNVBCkTB0Vhc3lSU0ExITAf
BgkqhkiG9w0BCQEWEm1lQG15aG9zdC5teWRvbWFpboIJAM81he6Avyo+MBMGA1Ud
JQQMMAoGCCsGAQUFBwMCMAsGA1UdDwQEAwIHgDANBgkqhkiG9w0BAQQFAAOCAgEA
tNR7p0Bwv/D4OP+NlztHCYG52ULdi1CyjmGWoOMha+u60l+Rkq7bO9/gkR7RQe2p
13ywKygRk2B7Pt4hV/zAqJ1/aq/y+IMgHcKbg4Y92O2Hs/aL3KnfOllPLkRj3w2M
4Y631yAePVI+ThgzU4gW6YGb9ETRm3qOpFNBpwCHiyIbblhJzi39SFzujPVx2Jog
WJQhuaTyWm6T/iqeeLq+OTh14PuUYaozyr/hnXJkX37Xa83kfxjHJjeQqqdBZRYK
rVL+kQZP4n6ZCBjahIWrVBLZyXx1EFVGsr3xd5qvyfQJeUlz8HYUHpRZbYfkQrna
waoFT68zKAHc95d9FAHG7fIjaYbYV1ayYk74P/3b63LXTjHOpIu5eMPWDTZF+sEP
u0tithdN3YAS2GSoH6nA72oQM8OuadhGBeu7tvAdtw6316FL4tJvDL983TcWyWhV
/mR7u+81GTh4arrQdb1N3ROYDn9W1nkWPeOmUaRUx7Wec1EEEQpRGfjmdzlBWFGY
g/HLk/xRoR/bqTz+ahFrgSqbIMqFRGxRl4sy8LSWzUhK54iFkB03IsJLUxsWfeAB
FWW+jCgZLZ6rq7UybpFDJzoz7AHULiDCwIwTmW3JI3WeQj5WxPbPhvOyI93ae4yV
JpSOfpsehIU7KpvivsmcOlL096kLC7S4tBEnnSuXGEg=
-----END CERTIFICATE-----
