Certificate:
    Data:
        Version: 3 (0x2)
        Serial Number: 10727 (0x29e7)
    Signature Algorithm: sha256WithRSAEncryption
        Issuer: C=US, ST=OH, L=Columbus, O=VikingVPN, OU=MyOrganizationalUnit, CN=VikingVPN CA/name=EasyRSA/emailAddress=me@myhost.mydomain
        Validity
            Not Before: Apr 20 13:44:05 2017 GMT
            Not After : Apr 18 13:44:05 2027 GMT
        Subject: CN=Client2874Cert283ad3
        Subject Public Key Info:
            Public Key Algorithm: rsaEncryption
                Public-Key: (4096 bit)
                Modulus:
                    00:d6:ce:e5:e2:26:1b:c9:64:62:fe:41:3d:46:47:
                    26:53:d7:d2:ad:64:64:cc:70:77:03:f9:da:f8:d7:
                    26:e7:6b:51:94:09:9d:34:95:11:70:67:65:91:e5:
                    ff:8e:40:ff:35:71:d7:af:a9:d2:cb:78:d9:2e:85:
                    48:ee:5d:6b:21:2f:44:0c:40:96:e2:6d:1d:63:d3:
                    8b:d8:bf:0e:9f:c9:e2:5b:12:27:b6:67:d1:44:19:
                    db:9a:17:2b:eb:28:97:33:a4:dd:3d:db:40:bc:07:
                    25:0c:54:9a:48:5a:06:7b:f9:29:d7:a1:d0:61:7a:
                    79:87:c2:e8:25:61:ec:22:e2:a9:4a:09:a4:90:3a:
                    76:a7:a0:ee:1d:a9:c0:82:db:d4:25:66:58:03:b8:
                    4a:24:fe:fe:c3:82:6f:d2:c8:49:7e:63:6d:e5:d1:
                    9b:69:f0:c2:f8:b6:bf:16:b9:6c:86:47:2b:ae:07:
                    04:29:06:79:7e:36:d8:46:98:68:09:89:0d:7f:2d:
                    72:83:2f:51:11:e1:94:4d:94:26:76:cb:bb:d2:2e:
                    bb:08:6a:13:af:5b:5e:8d:ce:f4:91:a6:2e:6d:23:
                    36:c9:d3:cc:3d:5e:bb:e4:bc:50:2a:51:a9:8a:c7:
                    32:c2:a0:dc:eb:3f:6e:c1:d1:4a:6e:ad:24:b3:77:
                    8f:5b:7a:95:89:a4:3f:7f:5c:ec:ab:ab:e9:b4:27:
                    19:de:57:cb:13:d2:2d:5a:e7:c9:44:0f:83:e2:9e:
                    3f:43:01:07:b3:ad:da:28:14:c7:cf:6c:68:9b:fc:
                    cd:6e:c4:0f:b5:bb:28:71:e2:2f:fd:0d:81:3b:44:
                    b6:f3:d8:16:97:13:28:ca:36:cb:41:57:d5:04:af:
                    50:06:bd:ba:b2:17:92:33:88:b5:64:b9:ac:56:fa:
                    4c:75:85:8c:20:d1:55:f2:20:e2:cf:0e:54:69:7a:
                    df:81:8c:e6:e4:a5:bb:48:37:22:a8:76:46:63:4b:
                    2d:0b:00:b9:aa:e8:82:ce:5b:20:06:c4:32:37:b4:
                    b3:91:07:fc:ce:7b:02:2a:43:4b:cb:a6:8c:71:b4:
                    83:1f:a4:a9:e7:48:5e:cd:da:eb:52:f0:ee:bf:7a:
                    01:80:5f:04:50:d6:7b:cb:cc:6b:3d:34:ae:45:83:
                    c7:64:41:d8:c7:10:3b:7e:e1:43:54:59:18:26:1c:
                    12:04:a1:2a:28:ef:ef:c9:34:bd:4a:12:96:89:53:
                    c1:17:f3:89:34:f2:a0:6d:d9:e7:60:81:66:01:fe:
                    ed:a6:60:85:ed:22:49:e7:d9:3c:d2:62:f5:f7:56:
                    c5:54:b8:a7:62:cb:b1:98:e2:91:5e:a9:e4:e3:09:
                    a4:64:a1
                Exponent: 65537 (0x10001)
        X509v3 extensions:
            X509v3 Basic Constraints: 
                CA:FALSE
            Netscape Comment: 
                Easy-RSA Generated Certificate
            X509v3 Subject Key Identifier: 
                DF:59:45:78:54:99:BA:59:A6:31:D1:15:D5:0D:2A:39:F8:AC:71:19
            X509v3 Authority Key Identifier: 
                keyid:12:CD:60:04:D2:A0:80:9E:70:ED:C6:99:B8:7B:2C:C6:52:FD:19:A1
                DirName:/C=US/ST=OH/L=Columbus/O=VikingVPN/OU=MyOrganizationalUnit/CN=VikingVPN CA/name=EasyRSA/emailAddress=me@myhost.mydomain
                serial:CF:35:85:EE:80:BF:2A:3E

            X509v3 Extended Key Usage: 
                TLS Web Client Authentication
            X509v3 Key Usage: 
                Digital Signature
    Signature Algorithm: sha256WithRSAEncryption
         32:c1:6a:e5:36:13:a5:ef:8b:aa:2c:02:9e:5d:c9:79:71:4d:
         1e:52:d6:8a:71:9c:53:b1:92:64:0b:5a:d2:05:2f:00:b5:1f:
         66:8e:5f:a8:40:55:99:f1:cc:ee:eb:dd:10:fd:b3:1a:15:dc:
         af:51:eb:df:62:3b:08:24:66:b7:41:72:19:4d:c7:14:0b:80:
         86:71:46:7d:38:3f:42:d3:a6:0c:0e:87:99:e4:0f:5f:13:32:
         cc:8b:6d:c5:9c:3e:ff:bf:e7:ec:69:56:7c:41:2f:ee:38:5d:
         76:df:c8:9d:c4:66:2d:af:09:2c:93:eb:89:74:7a:3c:de:dd:
         4d:d9:0a:69:02:91:f5:5f:51:c9:58:34:23:81:84:bd:06:24:
         e3:fb:eb:14:ec:bd:66:21:ca:7e:34:9c:8d:fd:25:e5:9f:9c:
         6c:45:47:fc:89:65:b3:7c:68:37:43:4c:0f:20:5f:60:5a:a3:
         e7:a7:e5:bb:9d:ad:64:bd:ce:0d:78:34:84:db:cd:4f:e7:d2:
         91:29:6a:d3:d0:dc:03:c2:f6:a8:c3:06:11:1d:a5:40:7b:2f:
         22:5e:6f:c9:c6:27:72:63:44:25:13:c6:fb:2a:ba:c0:30:57:
         d2:ce:88:41:61:8e:90:10:30:50:cc:ef:89:f3:30:24:45:2f:
         17:b2:f1:5e:86:43:78:10:d7:39:b1:ad:8c:98:a5:55:e5:4e:
         56:9f:f7:47:8c:2e:38:07:9b:d5:41:0c:f1:00:f6:6c:8f:8b:
         c8:da:21:a7:64:a7:77:74:97:d5:17:b5:0b:67:3c:e2:fc:87:
         b9:43:bb:df:ef:41:3a:7c:48:dd:75:f3:88:a1:2e:e1:3d:3b:
         46:e8:93:ec:1a:81:3c:ec:77:4f:33:f9:40:d3:67:6a:53:78:
         62:7e:09:bc:fc:3f:db:28:cb:ef:20:91:8b:95:f5:87:0f:03:
         1e:6f:81:ad:5f:c1:bf:cd:c8:2c:60:30:4c:9d:2f:05:f6:37:
         71:39:88:54:37:58:09:16:63:de:ab:0c:bc:8d:1c:a2:93:3a:
         ce:78:56:2b:bc:ca:e9:41:dd:1f:23:05:f1:5d:a1:9b:3d:e0:
         22:07:bb:0f:51:94:1b:9d:aa:7b:d8:cf:57:d7:38:4b:34:4e:
         0d:a5:90:7b:6e:98:ac:39:8c:7a:ee:5e:0c:00:40:cf:ed:d7:
         8b:8d:e7:53:f1:62:f7:7b:5a:56:2f:59:d8:7d:49:62:d2:e0:
         b0:48:e5:ec:d5:98:09:e8:f0:b4:4c:73:74:89:cf:6e:29:45:
         e1:f1:8e:55:ba:a0:64:d8:49:e4:e7:73:f7:f8:d5:52:73:95:
         5d:02:36:b0:4c:04:5f:1b
-----BEGIN CERTIFICATE-----
MIIGrTCCBJWgAwIBAgICKecwDQYJKoZIhvcNAQELBQAwgawxCzAJBgNVBAYTAlVT
MQswCQYDVQQIEwJPSDERMA8GA1UEBxMIQ29sdW1idXMxEjAQBgNVBAoTCVZpa2lu
Z1ZQTjEdMBsGA1UECxMUTXlPcmdhbml6YXRpb25hbFVuaXQxFTATBgNVBAMTDFZp
a2luZ1ZQTiBDQTEQMA4GA1UEKRMHRWFzeVJTQTEhMB8GCSqGSIb3DQEJARYSbWVA
bXlob3N0Lm15ZG9tYWluMB4XDTE3MDQyMDEzNDQwNVoXDTI3MDQxODEzNDQwNVow
HzEdMBsGA1UEAxMUQ2xpZW50Mjg3NENlcnQyODNhZDMwggIiMA0GCSqGSIb3DQEB
AQUAA4ICDwAwggIKAoICAQDWzuXiJhvJZGL+QT1GRyZT19KtZGTMcHcD+dr41ybn
a1GUCZ00lRFwZ2WR5f+OQP81cdevqdLLeNkuhUjuXWshL0QMQJbibR1j04vYvw6f
yeJbEie2Z9FEGduaFyvrKJczpN0920C8ByUMVJpIWgZ7+SnXodBhenmHwuglYewi
4qlKCaSQOnanoO4dqcCC29QlZlgDuEok/v7Dgm/SyEl+Y23l0Ztp8ML4tr8WuWyG
RyuuBwQpBnl+NthGmGgJiQ1/LXKDL1ER4ZRNlCZ2y7vSLrsIahOvW16NzvSRpi5t
IzbJ08w9XrvkvFAqUamKxzLCoNzrP27B0UpurSSzd49bepWJpD9/XOyrq+m0Jxne
V8sT0i1a58lED4Pinj9DAQezrdooFMfPbGib/M1uxA+1uyhx4i/9DYE7RLbz2BaX
EyjKNstBV9UEr1AGvbqyF5IziLVkuaxW+kx1hYwg0VXyIOLPDlRpet+BjObkpbtI
NyKodkZjSy0LALmq6ILOWyAGxDI3tLORB/zOewIqQ0vLpoxxtIMfpKnnSF7N2utS
8O6/egGAXwRQ1nvLzGs9NK5Fg8dkQdjHEDt+4UNUWRgmHBIEoSoo7+/JNL1KEpaJ
U8EX84k08qBt2edggWYB/u2mYIXtIknn2TzSYvX3VsVUuKdiy7GY4pFeqeTjCaRk
oQIDAQABo4IBYzCCAV8wCQYDVR0TBAIwADAtBglghkgBhvhCAQ0EIBYeRWFzeS1S
U0EgR2VuZXJhdGVkIENlcnRpZmljYXRlMB0GA1UdDgQWBBTfWUV4VJm6WaYx0RXV
DSo5+KxxGTCB4QYDVR0jBIHZMIHWgBQSzWAE0qCAnnDtxpm4eyzGUv0ZoaGBsqSB
rzCBrDELMAkGA1UEBhMCVVMxCzAJBgNVBAgTAk9IMREwDwYDVQQHEwhDb2x1bWJ1
czESMBAGA1UEChMJVmlraW5nVlBOMR0wGwYDVQQLExRNeU9yZ2FuaXphdGlvbmFs
VW5pdDEVMBMGA1UEAxMMVmlraW5nVlBOIENBMRAwDgYDVQQpEwdFYXN5UlNBMSEw
HwYJKoZIhvcNAQkBFhJtZUBteWhvc3QubXlkb21haW6CCQDPNYXugL8qPjATBgNV
HSUEDDAKBggrBgEFBQcDAjALBgNVHQ8EBAMCB4AwDQYJKoZIhvcNAQELBQADggIB
ADLBauU2E6Xvi6osAp5dyXlxTR5S1opxnFOxkmQLWtIFLwC1H2aOX6hAVZnxzO7r
3RD9sxoV3K9R699iOwgkZrdBchlNxxQLgIZxRn04P0LTpgwOh5nkD18TMsyLbcWc
Pv+/5+xpVnxBL+44XXbfyJ3EZi2vCSyT64l0ejze3U3ZCmkCkfVfUclYNCOBhL0G
JOP76xTsvWYhyn40nI39JeWfnGxFR/yJZbN8aDdDTA8gX2Bao+en5budrWS9zg14
NITbzU/n0pEpatPQ3APC9qjDBhEdpUB7LyJeb8nGJ3JjRCUTxvsqusAwV9LOiEFh
jpAQMFDM74nzMCRFLxey8V6GQ3gQ1zmxrYyYpVXlTlaf90eMLjgHm9VBDPEA9myP
i8jaIadkp3d0l9UXtQtnPOL8h7lDu9/vQTp8SN1184ihLuE9O0bok+wagTzsd08z
+UDTZ2pTeGJ+Cbz8P9soy+8gkYuV9YcPAx5vga1fwb/NyCxgMEydLwX2N3E5iFQ3
WAkWY96rDLyNHKKTOs54Viu8yulB3R8jBfFdoZs94CIHuw9RlBudqnvYz1fXOEs0
Tg2lkHtumKw5jHruXgwAQM/t14uN51PxYvd7WlYvWdh9SWLS4LBI5ezVmAno8LRM
c3SJz24pReHxjlW6oGTYSeTnc/f41VJzlV0CNrBMBF8b
-----END CERTIFICATE-----
