Certificate:
    Data:
        Version: 3 (0x2)
        Serial Number: 6961 (0x1b31)
    Signature Algorithm: md5WithRSAEncryption
        Issuer: C=US, ST=OH, L=Columbus, O=VikingVPN, OU=MyOrganizationalUnit, CN=VikingVPN CA/name=EasyRSA/emailAddress=me@myhost.mydomain
        Validity
            Not Before: Dec 27 16:28:14 2015 GMT
            Not After : Dec 24 16:28:14 2025 GMT
        Subject: CN=Client269Cert527d3a
        Subject Public Key Info:
            Public Key Algorithm: rsaEncryption
                Public-Key: (4096 bit)
                Modulus:
                    00:c5:2d:5f:41:d5:2c:b1:08:b7:e0:bc:30:d8:39:
                    fd:a6:62:81:64:a0:1b:9c:8a:35:69:6f:48:96:35:
                    5c:24:12:f0:f7:84:98:99:22:d8:d1:ec:c6:5f:22:
                    96:81:38:af:b7:18:70:7d:24:4f:30:03:3e:e0:52:
                    fc:d7:26:96:7a:73:dc:73:04:eb:6e:ed:f4:c3:47:
                    71:14:70:1d:e8:19:01:06:b2:71:c2:4c:a8:56:0c:
                    7f:37:39:d1:17:6c:4e:af:6a:8c:9d:78:e5:b7:20:
                    1b:d8:76:d8:cb:d6:1f:fc:6b:fe:fe:eb:66:5c:c8:
                    3c:0c:7d:1f:51:63:70:0e:00:5d:b9:4f:2a:ae:e0:
                    79:65:55:35:72:93:bc:a8:65:cc:00:b2:ba:f2:75:
                    3c:af:8b:bf:ef:40:69:82:98:04:08:50:0a:37:40:
                    d8:74:a5:99:76:4d:50:05:de:43:d4:04:ef:7a:11:
                    60:0a:17:82:f9:f5:4b:7a:57:fd:aa:48:7d:8f:e8:
                    b5:f7:c9:02:32:60:16:0c:41:28:af:93:aa:30:d8:
                    7e:38:73:e3:7b:67:e7:6c:d6:47:db:b3:eb:72:5a:
                    dd:ec:61:cd:24:92:eb:50:43:12:18:b8:9e:d0:89:
                    b3:7f:b8:81:28:7f:11:e7:b0:fe:33:1b:bf:c2:3d:
                    c6:a5:9b:82:4c:0d:87:3a:de:aa:98:04:87:b4:63:
                    e0:fa:cb:ff:ac:72:e0:52:29:3c:4c:4e:da:ba:fa:
                    21:70:80:36:66:c2:0b:ce:94:06:86:b6:38:a0:e9:
                    ac:ab:4c:95:0d:61:36:3d:8d:c2:cc:7c:64:b5:5e:
                    72:4e:e1:e7:33:58:91:d7:ce:b8:f0:73:33:92:d4:
                    13:c8:8d:e3:7f:9b:17:80:5d:d4:f9:c7:2d:12:a1:
                    54:8e:97:3b:af:5e:d2:1b:3c:a3:02:82:f8:b2:f8:
                    33:27:db:cc:f5:5f:7e:75:30:42:13:da:0c:07:cd:
                    da:4f:2e:bd:aa:0f:d5:76:93:d5:a2:d3:b3:be:fd:
                    a0:31:d1:cf:34:99:2e:1f:8b:6f:92:c1:cf:ca:45:
                    91:83:c7:a7:00:0a:55:d4:1d:1e:03:b6:69:8c:e1:
                    cc:de:44:d4:eb:96:00:2d:9e:e7:39:08:ea:c3:85:
                    79:c9:f5:a1:9b:8f:5d:64:f1:d3:c6:64:63:4e:71:
                    ff:38:ce:0e:5f:78:e4:63:9d:4c:1e:64:44:36:05:
                    38:28:94:59:67:2c:24:49:e7:61:d9:37:af:c6:3e:
                    4d:c6:ea:f7:56:78:5c:92:75:f7:e3:94:08:93:c2:
                    8a:c4:2a:7f:8c:a9:bd:49:fa:d4:0f:0f:46:a6:b1:
                    5b:01:3f
                Exponent: 65537 (0x10001)
        X509v3 extensions:
            X509v3 Basic Constraints: 
                CA:FALSE
            Netscape Comment: 
                Easy-RSA Generated Certificate
            X509v3 Subject Key Identifier: 
                78:BF:42:B4:76:75:93:50:0E:B9:78:F0:4E:F7:12:FC:50:B6:C3:F4
            X509v3 Authority Key Identifier: 
                keyid:12:CD:60:04:D2:A0:80:9E:70:ED:C6:99:B8:7B:2C:C6:52:FD:19:A1
                DirName:/C=US/ST=OH/L=Columbus/O=VikingVPN/OU=MyOrganizationalUnit/CN=VikingVPN CA/name=EasyRSA/emailAddress=me@myhost.mydomain
                serial:CF:35:85:EE:80:BF:2A:3E

            X509v3 Extended Key Usage: 
                TLS Web Client Authentication
            X509v3 Key Usage: 
                Digital Signature
    Signature Algorithm: md5WithRSAEncryption
         8c:a1:b9:29:31:61:ea:6e:00:0b:57:fe:19:1f:84:a9:4e:85:
         6d:71:21:bc:2e:5a:8e:c0:c5:ff:56:2d:c2:55:73:bf:f3:51:
         1c:dc:07:e7:f9:e6:2d:4c:71:e5:45:e9:6b:2a:61:c7:f2:21:
         0b:dc:71:bb:f9:79:7e:7b:32:11:44:0f:5c:0a:70:59:de:da:
         14:72:1e:9f:33:40:bd:b4:05:70:04:84:2c:14:d3:0a:90:8a:
         5e:97:22:2b:70:a5:a9:7e:5b:34:1e:34:f3:c8:92:db:b9:0f:
         5a:b4:70:8a:2c:48:b2:4e:a6:77:5a:1f:c8:02:91:10:b2:21:
         7d:28:ff:b6:54:3f:d2:c5:1c:8d:7c:8d:9e:63:f5:c6:2c:1d:
         8e:0b:37:0e:6c:33:fd:25:0a:ad:fc:66:3f:f3:71:39:87:b0:
         bf:c7:bc:ba:d2:10:b7:78:3e:27:8a:b6:eb:bb:b8:03:40:04:
         01:b4:84:c7:27:8d:60:79:27:22:06:19:6e:30:13:7d:9b:77:
         4b:eb:6d:9d:39:df:69:29:0c:32:db:4d:d9:c3:23:d9:d3:1f:
         cd:0b:f1:56:c5:62:7e:c7:74:cc:7a:9e:28:ae:23:0d:d1:22:
         00:f4:99:24:54:25:30:b3:33:20:49:8f:c9:62:99:7b:7d:4b:
         94:a4:64:09:7d:5d:f8:27:81:6d:9f:9a:ce:2e:af:5e:4d:2c:
         b2:6b:e5:cd:52:dd:4b:55:b2:54:bc:5b:43:c7:f7:a4:56:ce:
         84:f1:b3:98:8a:96:f8:f2:f3:98:67:cf:4f:26:7e:e7:ea:39:
         c3:02:29:88:db:f0:6f:cb:c1:d6:03:83:4c:b7:f8:8a:b5:8d:
         74:24:50:e3:d5:90:d9:9f:62:02:90:c7:6b:ac:94:5e:db:c8:
         4e:ae:8e:17:df:0b:8c:be:42:9c:b3:3e:1a:15:a6:48:02:9a:
         3d:ef:ab:b0:a0:88:2a:fa:f8:ac:49:d6:0d:d2:b0:0d:07:15:
         a3:4d:83:c6:30:4d:33:53:fd:f6:a5:d0:a9:a1:aa:2c:11:d6:
         be:2c:fa:c5:bf:5b:63:12:3d:e5:e9:6b:21:71:e4:50:80:c0:
         ab:86:d8:db:e6:9b:6a:ad:1a:ac:3a:c7:6f:bd:c6:a7:e5:14:
         6c:d7:2a:d9:6a:8f:2c:55:ea:bd:4b:97:ef:cd:14:61:a7:b0:
         1e:b7:27:95:9c:dc:68:3e:51:bf:0e:6c:58:6b:0e:21:81:13:
         12:ba:a6:74:0f:51:fa:19:7b:0d:a3:2a:87:70:1e:eb:70:be:
         76:a5:84:39:f9:13:8b:9b:55:f4:07:8b:ee:f2:8e:93:8f:5c:
         9a:ea:bf:df:c7:e4:e4:67
-----BEGIN CERTIFICATE-----
MIIGrDCCBJSgAwIBAgICGzEwDQYJKoZIhvcNAQEEBQAwgawxCzAJBgNVBAYTAlVT
MQswCQYDVQQIEwJPSDERMA8GA1UEBxMIQ29sdW1idXMxEjAQBgNVBAoTCVZpa2lu
Z1ZQTjEdMBsGA1UECxMUTXlPcmdhbml6YXRpb25hbFVuaXQxFTATBgNVBAMTDFZp
a2luZ1ZQTiBDQTEQMA4GA1UEKRMHRWFzeVJTQTEhMB8GCSqGSIb3DQEJARYSbWVA
bXlob3N0Lm15ZG9tYWluMB4XDTE1MTIyNzE2MjgxNFoXDTI1MTIyNDE2MjgxNFow
HjEcMBoGA1UEAxMTQ2xpZW50MjY5Q2VydDUyN2QzYTCCAiIwDQYJKoZIhvcNAQEB
BQADggIPADCCAgoCggIBAMUtX0HVLLEIt+C8MNg5/aZigWSgG5yKNWlvSJY1XCQS
8PeEmJki2NHsxl8iloE4r7cYcH0kTzADPuBS/Ncmlnpz3HME627t9MNHcRRwHegZ
AQayccJMqFYMfzc50RdsTq9qjJ145bcgG9h22MvWH/xr/v7rZlzIPAx9H1FjcA4A
XblPKq7geWVVNXKTvKhlzACyuvJ1PK+Lv+9AaYKYBAhQCjdA2HSlmXZNUAXeQ9QE
73oRYAoXgvn1S3pX/apIfY/otffJAjJgFgxBKK+TqjDYfjhz43tn52zWR9uz63Ja
3exhzSSS61BDEhi4ntCJs3+4gSh/Eeew/jMbv8I9xqWbgkwNhzreqpgEh7Rj4PrL
/6xy4FIpPExO2rr6IXCANmbCC86UBoa2OKDprKtMlQ1hNj2Nwsx8ZLVeck7h5zNY
kdfOuPBzM5LUE8iN43+bF4Bd1PnHLRKhVI6XO69e0hs8owKC+LL4MyfbzPVffnUw
QhPaDAfN2k8uvaoP1XaT1aLTs779oDHRzzSZLh+Lb5LBz8pFkYPHpwAKVdQdHgO2
aYzhzN5E1OuWAC2e5zkI6sOFecn1oZuPXWTx08ZkY05x/zjODl945GOdTB5kRDYF
OCiUWWcsJEnnYdk3r8Y+Tcbq91Z4XJJ19+OUCJPCisQqf4ypvUn61A8PRqaxWwE/
AgMBAAGjggFjMIIBXzAJBgNVHRMEAjAAMC0GCWCGSAGG+EIBDQQgFh5FYXN5LVJT
QSBHZW5lcmF0ZWQgQ2VydGlmaWNhdGUwHQYDVR0OBBYEFHi/QrR2dZNQDrl48E73
EvxQtsP0MIHhBgNVHSMEgdkwgdaAFBLNYATSoICecO3Gmbh7LMZS/RmhoYGypIGv
MIGsMQswCQYDVQQGEwJVUzELMAkGA1UECBMCT0gxETAPBgNVBAcTCENvbHVtYnVz
MRIwEAYDVQQKEwlWaWtpbmdWUE4xHTAbBgNVBAsTFE15T3JnYW5pemF0aW9uYWxV
bml0MRUwEwYDVQQDEwxWaWtpbmdWUE4gQ0ExEDAOBgNVBCkTB0Vhc3lSU0ExITAf
BgkqhkiG9w0BCQEWEm1lQG15aG9zdC5teWRvbWFpboIJAM81he6Avyo+MBMGA1Ud
JQQMMAoGCCsGAQUFBwMCMAsGA1UdDwQEAwIHgDANBgkqhkiG9w0BAQQFAAOCAgEA
jKG5KTFh6m4AC1f+GR+EqU6FbXEhvC5ajsDF/1YtwlVzv/NRHNwH5/nmLUxx5UXp
ayphx/IhC9xxu/l5fnsyEUQPXApwWd7aFHIenzNAvbQFcASELBTTCpCKXpciK3Cl
qX5bNB4088iS27kPWrRwiixIsk6md1ofyAKRELIhfSj/tlQ/0sUcjXyNnmP1xiwd
jgs3Dmwz/SUKrfxmP/NxOYewv8e8utIQt3g+J4q267u4A0AEAbSExyeNYHknIgYZ
bjATfZt3S+ttnTnfaSkMMttN2cMj2dMfzQvxVsVifsd0zHqeKK4jDdEiAPSZJFQl
MLMzIEmPyWKZe31LlKRkCX1d+CeBbZ+azi6vXk0ssmvlzVLdS1WyVLxbQ8f3pFbO
hPGzmIqW+PLzmGfPTyZ+5+o5wwIpiNvwb8vB1gODTLf4irWNdCRQ49WQ2Z9iApDH
a6yUXtvITq6OF98LjL5CnLM+GhWmSAKaPe+rsKCIKvr4rEnWDdKwDQcVo02DxjBN
M1P99qXQqaGqLBHWviz6xb9bYxI95elrIXHkUIDAq4bY2+abaq0arDrHb73Gp+UU
bNcq2WqPLFXqvUuX780UYaewHrcnlZzcaD5Rvw5sWGsOIYETErqmdA9R+hl7DaMq
h3Ae63C+dqWEOfkTi5tV9AeL7vKOk49cmuq/38fk5Gc=
-----END CERTIFICATE-----
