Certificate:
    Data:
        Version: 3 (0x2)
        Serial Number: 720 (0x2d0)
    Signature Algorithm: md5WithRSAEncryption
        Issuer: C=US, ST=OH, L=Columbus, O=VikingVPN, OU=MyOrganizationalUnit, CN=VikingVPN CA/name=EasyRSA/emailAddress=me@myhost.mydomain
        Validity
            Not Before: Jan  9 03:01:21 2014 GMT
            Not After : Jan  7 03:01:21 2024 GMT
        Subject: CN=Client208Cert69d8fb
        Subject Public Key Info:
            Public Key Algorithm: rsaEncryption
                Public-Key: (4096 bit)
                Modulus:
                    00:be:52:56:48:6d:b6:0e:ef:91:29:b7:48:f2:11:
                    9e:81:ed:9e:9e:f7:f3:03:f9:17:d9:b8:95:e7:17:
                    d9:26:2f:e1:0e:34:ba:e3:8a:e0:a2:3b:23:60:b8:
                    49:a8:74:dd:fa:e1:96:78:8d:56:b2:bc:b6:9a:3b:
                    a6:69:02:2c:a3:f3:57:d8:92:5d:a6:4b:26:ca:0a:
                    d9:fc:6f:6d:b6:24:06:f2:05:96:d0:f8:14:81:af:
                    98:8a:30:fc:09:d8:68:b7:fc:47:e9:da:81:8c:28:
                    ae:9e:c5:ea:ab:a3:fd:d6:c3:e7:cc:bd:ea:08:39:
                    05:54:52:6c:5b:d8:7d:d3:33:91:bd:db:95:b8:b5:
                    5b:16:71:e3:15:d6:a1:f5:9c:bb:5c:8c:b0:7c:5f:
                    a9:3f:3d:41:68:46:86:e7:0a:33:70:17:c4:5b:77:
                    ce:2e:70:d7:01:ac:9e:2e:30:37:ad:61:98:65:75:
                    6d:fa:bb:f4:29:99:27:de:96:cb:91:d1:af:22:30:
                    5a:3f:7e:b4:3e:44:94:40:3f:fb:5f:15:74:74:23:
                    ae:31:00:0a:b4:95:22:3e:f8:2f:3d:b3:7a:c0:16:
                    f5:17:6a:16:b2:a6:92:a0:20:ed:cc:00:e1:ae:dd:
                    90:35:4e:ee:a4:62:94:0b:ab:34:84:7b:97:ca:78:
                    15:32:55:8e:ef:16:a5:c7:a5:2e:10:10:88:c9:e8:
                    2c:b1:42:77:a6:8b:39:03:9a:a7:7d:f3:fe:bc:ee:
                    d9:72:32:9a:0d:d7:12:6a:26:7e:75:04:3a:a2:d6:
                    31:5a:4b:b2:51:9b:15:3f:75:d0:1f:5c:98:52:eb:
                    8c:05:2f:72:8a:39:92:89:a6:b8:1d:8e:12:4d:4b:
                    73:af:36:3b:39:a0:5a:c6:cd:27:7a:dd:f7:56:9a:
                    25:8c:3b:ee:9a:1e:67:33:a0:b5:79:1a:a0:15:67:
                    4c:50:d6:a6:64:a1:27:7e:12:fc:a4:a7:fd:8b:a4:
                    6e:71:88:c0:cb:34:b7:b7:f2:c2:a9:c2:3a:50:ba:
                    c7:2d:28:87:3d:1d:38:13:69:5c:8a:70:81:7e:e3:
                    05:c4:d8:4c:5e:fb:ed:de:96:cd:9b:36:ad:99:34:
                    75:b8:25:a1:f6:10:05:8c:90:51:9c:55:28:7b:f9:
                    0c:39:cb:7f:a1:c4:2d:62:6a:e6:73:b0:80:f0:1d:
                    0c:ce:67:b2:d7:64:df:f6:b9:20:ff:09:c1:e7:f9:
                    dc:6a:ed:bd:d5:a2:c2:09:e3:82:4c:a3:a3:fa:4e:
                    65:45:7a:9f:42:50:7f:fd:00:88:eb:13:5f:ef:51:
                    c4:16:6e:35:c1:f4:49:54:08:b4:b2:44:7a:bb:bb:
                    0a:a5:d5
                Exponent: 65537 (0x10001)
        X509v3 extensions:
            X509v3 Basic Constraints: 
                CA:FALSE
            Netscape Comment: 
                Easy-RSA Generated Certificate
            X509v3 Subject Key Identifier: 
                4E:00:D8:C4:10:D2:23:F8:7A:79:42:98:6F:FF:53:07:BE:F8:AA:58
            X509v3 Authority Key Identifier: 
                keyid:12:CD:60:04:D2:A0:80:9E:70:ED:C6:99:B8:7B:2C:C6:52:FD:19:A1
                DirName:/C=US/ST=OH/L=Columbus/O=VikingVPN/OU=MyOrganizationalUnit/CN=VikingVPN CA/name=EasyRSA/emailAddress=me@myhost.mydomain
                serial:CF:35:85:EE:80:BF:2A:3E

            X509v3 Extended Key Usage: 
                TLS Web Client Authentication
            X509v3 Key Usage: 
                Digital Signature
    Signature Algorithm: md5WithRSAEncryption
         31:bd:a9:16:e7:05:42:88:b2:54:52:cd:51:24:a0:9d:70:99:
         89:92:5a:47:f8:98:f6:54:9c:7b:cd:61:57:80:ae:b1:77:5c:
         3b:76:54:e4:2b:3c:de:c9:9e:95:d1:0b:d0:8d:a3:eb:f2:20:
         41:15:b9:cb:fe:35:39:4f:0d:43:58:8e:72:a7:26:a2:fb:84:
         ea:e6:0b:5c:22:44:c4:b5:fc:2b:85:e0:0a:14:9a:f8:45:35:
         6e:f9:6c:f2:40:55:e5:04:d5:06:08:0f:5f:e5:cb:7a:fa:56:
         38:1c:7e:09:88:e6:c3:4e:9a:de:4b:ce:fa:e0:38:75:d8:1d:
         c9:af:62:f0:80:46:6b:f7:e0:f9:9e:7f:c3:da:f0:ed:97:93:
         6c:7b:68:89:d1:02:68:c4:79:dc:45:a5:2b:cd:c1:1f:f5:05:
         00:8d:fb:f6:e2:d6:ba:8e:bf:c5:59:cc:21:35:af:bb:15:70:
         6a:90:78:ee:81:05:1a:db:3d:4d:f0:2b:15:36:0d:88:5a:b7:
         c8:6b:e1:9b:10:3d:b1:09:cb:1d:5c:54:0f:6a:21:0e:05:b2:
         12:20:32:f0:8d:e8:61:a7:78:bd:8f:75:74:95:9d:5f:ba:6a:
         72:d8:b6:11:b4:b8:f8:7f:b5:62:54:b8:e1:cf:0d:ab:57:18:
         e8:c1:c4:c4:9f:ce:86:99:a0:89:ee:5a:57:e2:77:5a:63:05:
         19:1f:5a:86:76:ba:2e:ab:cb:1b:02:00:47:b9:9e:2b:83:1b:
         c9:8f:ff:32:ff:a9:71:60:24:98:1f:4a:04:1e:8f:d2:27:f3:
         47:6c:77:d4:c4:5b:09:14:8b:64:bd:67:f6:b8:e5:89:9d:5f:
         06:c7:e9:06:bb:cf:26:f8:37:0e:ae:c8:6c:c7:69:b9:84:7f:
         6c:bf:22:13:12:18:68:e2:dc:20:33:48:c0:53:38:61:bd:86:
         7f:d2:1b:e6:18:1f:d4:df:83:ec:5c:2e:7e:54:16:dd:ed:60:
         bb:cc:31:9e:19:1a:8c:69:bf:a5:a6:15:0a:68:7b:d2:b9:81:
         b7:e1:44:ab:c2:b0:2b:ea:4f:d2:f8:66:cb:1b:b4:d4:fd:1a:
         ea:ac:5d:00:a9:bc:06:6c:08:a8:a2:a1:2f:e2:2c:a2:00:2e:
         c9:52:82:ca:a9:32:16:d3:f9:2f:e3:57:b6:93:0b:0d:35:60:
         ee:f4:40:45:e1:8e:38:9d:b7:35:34:d1:9c:35:e8:4f:25:01:
         5e:2e:39:01:02:40:1c:85:2e:84:51:7d:a9:d2:3c:2b:c4:74:
         f3:b2:aa:c0:19:27:5d:92:fc:8d:1b:f1:91:8e:fd:0f:13:3b:
         f6:7e:e1:38:33:93:50:6f
-----BEGIN CERTIFICATE-----
MIIGrDCCBJSgAwIBAgICAtAwDQYJKoZIhvcNAQEEBQAwgawxCzAJBgNVBAYTAlVT
MQswCQYDVQQIEwJPSDERMA8GA1UEBxMIQ29sdW1idXMxEjAQBgNVBAoTCVZpa2lu
Z1ZQTjEdMBsGA1UECxMUTXlPcmdhbml6YXRpb25hbFVuaXQxFTATBgNVBAMTDFZp
a2luZ1ZQTiBDQTEQMA4GA1UEKRMHRWFzeVJTQTEhMB8GCSqGSIb3DQEJARYSbWVA
bXlob3N0Lm15ZG9tYWluMB4XDTE0MDEwOTAzMDEyMVoXDTI0MDEwNzAzMDEyMVow
HjEcMBoGA1UEAxMTQ2xpZW50MjA4Q2VydDY5ZDhmYjCCAiIwDQYJKoZIhvcNAQEB
BQADggIPADCCAgoCggIBAL5SVkhttg7vkSm3SPIRnoHtnp738wP5F9m4lecX2SYv
4Q40uuOK4KI7I2C4Sah03frhlniNVrK8tpo7pmkCLKPzV9iSXaZLJsoK2fxvbbYk
BvIFltD4FIGvmIow/AnYaLf8R+nagYworp7F6quj/dbD58y96gg5BVRSbFvYfdMz
kb3blbi1WxZx4xXWofWcu1yMsHxfqT89QWhGhucKM3AXxFt3zi5w1wGsni4wN61h
mGV1bfq79CmZJ96Wy5HRryIwWj9+tD5ElEA/+18VdHQjrjEACrSVIj74Lz2zesAW
9RdqFrKmkqAg7cwA4a7dkDVO7qRilAurNIR7l8p4FTJVju8WpcelLhAQiMnoLLFC
d6aLOQOap33z/rzu2XIymg3XEmomfnUEOqLWMVpLslGbFT910B9cmFLrjAUvcoo5
kommuB2OEk1Lc682OzmgWsbNJ3rd91aaJYw77poeZzOgtXkaoBVnTFDWpmShJ34S
/KSn/YukbnGIwMs0t7fywqnCOlC6xy0ohz0dOBNpXIpwgX7jBcTYTF777d6WzZs2
rZk0dbglofYQBYyQUZxVKHv5DDnLf6HELWJq5nOwgPAdDM5nstdk3/a5IP8Jwef5
3GrtvdWiwgnjgkyjo/pOZUV6n0JQf/0AiOsTX+9RxBZuNcH0SVQItLJEeru7CqXV
AgMBAAGjggFjMIIBXzAJBgNVHRMEAjAAMC0GCWCGSAGG+EIBDQQgFh5FYXN5LVJT
QSBHZW5lcmF0ZWQgQ2VydGlmaWNhdGUwHQYDVR0OBBYEFE4A2MQQ0iP4enlCmG//
Uwe++KpYMIHhBgNVHSMEgdkwgdaAFBLNYATSoICecO3Gmbh7LMZS/RmhoYGypIGv
MIGsMQswCQYDVQQGEwJVUzELMAkGA1UECBMCT0gxETAPBgNVBAcTCENvbHVtYnVz
MRIwEAYDVQQKEwlWaWtpbmdWUE4xHTAbBgNVBAsTFE15T3JnYW5pemF0aW9uYWxV
bml0MRUwEwYDVQQDEwxWaWtpbmdWUE4gQ0ExEDAOBgNVBCkTB0Vhc3lSU0ExITAf
BgkqhkiG9w0BCQEWEm1lQG15aG9zdC5teWRvbWFpboIJAM81he6Avyo+MBMGA1Ud
JQQMMAoGCCsGAQUFBwMCMAsGA1UdDwQEAwIHgDANBgkqhkiG9w0BAQQFAAOCAgEA
Mb2pFucFQoiyVFLNUSSgnXCZiZJaR/iY9lSce81hV4CusXdcO3ZU5Cs83smeldEL
0I2j6/IgQRW5y/41OU8NQ1iOcqcmovuE6uYLXCJExLX8K4XgChSa+EU1bvls8kBV
5QTVBggPX+XLevpWOBx+CYjmw06a3kvO+uA4ddgdya9i8IBGa/fg+Z5/w9rw7ZeT
bHtoidECaMR53EWlK83BH/UFAI379uLWuo6/xVnMITWvuxVwapB47oEFGts9TfAr
FTYNiFq3yGvhmxA9sQnLHVxUD2ohDgWyEiAy8I3oYad4vY91dJWdX7pqcti2EbS4
+H+1YlS44c8Nq1cY6MHExJ/Ohpmgie5aV+J3WmMFGR9ahna6LqvLGwIAR7meK4Mb
yY//Mv+pcWAkmB9KBB6P0ifzR2x31MRbCRSLZL1n9rjliZ1fBsfpBrvPJvg3Dq7I
bMdpuYR/bL8iExIYaOLcIDNIwFM4Yb2Gf9Ib5hgf1N+D7FwuflQW3e1gu8wxnhka
jGm/paYVCmh70rmBt+FEq8KwK+pP0vhmyxu01P0a6qxdAKm8BmwIqKKhL+IsogAu
yVKCyqkyFtP5L+NXtpMLDTVg7vRAReGOOJ23NTTRnDXoTyUBXi45AQJAHIUuhFF9
qdI8K8R087KqwBknXZL8jRvxkY79DxM79n7hODOTUG8=
-----END CERTIFICATE-----
