Certificate:
    Data:
        Version: 3 (0x2)
        Serial Number: 198 (0xc6)
    Signature Algorithm: md5WithRSAEncryption
        Issuer: C=US, ST=OH, L=Columbus, O=VikingVPN, OU=MyOrganizationalUnit, CN=VikingVPN CA/name=EasyRSA/emailAddress=me@myhost.mydomain
        Validity
            Not Before: Sep 15 16:35:33 2013 GMT
            Not After : Sep 13 16:35:33 2023 GMT
        Subject: CN=Client74Certaddfb5
        Subject Public Key Info:
            Public Key Algorithm: rsaEncryption
                Public-Key: (4096 bit)
                Modulus:
                    00:cf:98:d0:0e:ec:8a:b0:91:b8:b8:d6:c6:3c:6a:
                    ba:9c:a6:75:2b:2c:00:c1:f4:7f:2b:00:4e:01:5e:
                    25:a0:80:ea:6f:c1:a2:1c:0c:b9:b2:3b:bd:ac:af:
                    30:c6:b9:b4:b9:99:d8:68:b0:3e:b0:e3:a4:c5:3c:
                    20:73:35:a7:f8:86:a3:64:ae:b4:59:04:af:8f:5e:
                    9a:5a:76:e6:7e:5a:46:18:76:4b:a0:8d:2d:b5:5b:
                    f9:bc:27:c9:20:93:54:b0:9e:3c:51:ac:b8:11:e2:
                    6d:e2:8a:9d:66:6b:a1:de:78:28:87:fe:0d:9a:6b:
                    d3:b4:ee:e5:4b:cd:53:16:0d:2a:9d:5a:cc:e3:6b:
                    06:83:06:56:60:f4:be:09:88:ec:62:24:e5:2d:f2:
                    cd:b8:7f:f3:9a:6e:a0:41:c3:39:a2:86:01:30:ae:
                    cc:2f:25:22:46:f3:05:9c:70:f8:0e:ab:38:5b:b3:
                    2d:3d:f6:2e:92:fb:1a:c4:49:57:44:79:1a:57:60:
                    a3:56:07:81:76:c2:59:77:09:63:c1:04:fb:bf:23:
                    bb:cf:7f:76:36:94:da:f9:c6:26:3b:dc:14:14:df:
                    d7:a6:da:c9:44:5b:d0:3b:9c:f4:41:3e:b8:77:d4:
                    b2:03:8c:f3:4e:44:ad:5a:04:44:09:dc:0a:a7:eb:
                    fe:a2:06:29:ef:7a:8b:ec:41:96:c1:96:8e:74:b4:
                    99:2d:ba:46:b9:90:b2:d2:47:df:40:d6:39:a4:2b:
                    35:24:24:a2:64:b4:77:3a:67:66:ac:1c:f7:0c:a3:
                    ce:f1:01:35:76:c9:eb:d3:9b:c4:7c:19:7c:54:a7:
                    53:59:53:de:03:64:e1:01:b7:06:b5:48:d0:ba:31:
                    21:43:33:01:f3:b0:05:5e:fd:c4:57:f0:80:57:3d:
                    bf:aa:b4:86:8f:32:02:74:6f:43:80:58:7a:82:0c:
                    d1:bb:bf:2b:d3:63:33:68:f4:5d:51:c1:de:2c:4b:
                    d8:b1:2e:ee:fc:92:c0:c9:b9:37:a6:23:a0:04:15:
                    d7:12:bc:55:08:3d:fc:12:ca:50:41:f1:90:a4:23:
                    0f:99:e8:f3:8f:71:07:da:9a:5b:74:16:47:7e:7d:
                    a9:55:6d:81:30:4d:c9:1a:4c:20:eb:4e:88:49:75:
                    3a:1e:30:9d:03:d3:ba:2c:c2:59:4c:70:e8:88:05:
                    5a:4b:ef:70:a8:a9:f7:1b:30:81:1b:35:6a:4d:9a:
                    c8:b9:fd:2e:32:c5:5a:02:5e:39:0b:0e:f0:2a:61:
                    27:14:06:a4:bf:c5:07:cf:93:07:f5:aa:dd:19:7c:
                    d8:0e:da:bd:a5:12:fe:b2:d7:2d:e1:b5:57:04:fa:
                    90:ad:2f
                Exponent: 65537 (0x10001)
        X509v3 extensions:
            X509v3 Basic Constraints: 
                CA:FALSE
            Netscape Comment: 
                Easy-RSA Generated Certificate
            X509v3 Subject Key Identifier: 
                B9:15:76:1A:75:DB:34:83:D3:18:C8:09:F4:29:A7:A6:76:83:5A:00
            X509v3 Authority Key Identifier: 
                keyid:12:CD:60:04:D2:A0:80:9E:70:ED:C6:99:B8:7B:2C:C6:52:FD:19:A1
                DirName:/C=US/ST=OH/L=Columbus/O=VikingVPN/OU=MyOrganizationalUnit/CN=VikingVPN CA/name=EasyRSA/emailAddress=me@myhost.mydomain
                serial:CF:35:85:EE:80:BF:2A:3E

            X509v3 Extended Key Usage: 
                TLS Web Client Authentication
            X509v3 Key Usage: 
                Digital Signature
    Signature Algorithm: md5WithRSAEncryption
         3c:64:c6:86:78:30:38:e9:52:bb:dd:75:c0:0b:35:46:7b:c3:
         8e:e1:c2:e2:d5:8f:dd:be:31:8f:a8:03:7b:ef:f9:95:6e:53:
         cd:b2:43:ac:4b:46:38:62:b8:3f:7c:51:20:04:a6:c0:16:0a:
         2b:9f:17:da:ab:92:a8:10:b2:bb:70:e4:04:92:7d:88:6d:52:
         49:0e:38:d7:14:5f:72:99:ee:52:ea:a6:22:e3:20:8f:7f:a2:
         42:9b:de:49:0e:01:1a:58:ed:1a:3a:50:d3:d6:e2:a3:42:51:
         e4:5e:9d:5d:aa:22:4a:cd:5f:0b:e2:0b:27:32:75:63:78:ee:
         ac:73:33:7a:da:99:e5:5e:40:61:b8:14:0d:8d:c1:a1:61:d9:
         fc:7f:b3:01:ce:46:71:e4:5b:44:65:14:8e:34:0b:4c:92:f8:
         52:e2:53:10:45:c6:b3:a5:bc:8e:8b:d0:d2:5b:4c:15:fa:6a:
         39:75:1f:65:7c:05:3d:82:64:ed:24:6f:f0:a8:de:e2:a4:50:
         92:d7:18:1a:a1:b9:70:c2:8f:18:cd:fb:b2:65:a0:18:8b:28:
         ec:13:28:03:cc:9e:67:3a:d6:97:87:f8:90:ac:cd:73:54:fd:
         b7:14:b0:89:ca:42:0d:28:af:a2:db:cf:b2:e3:37:37:4b:54:
         53:2b:c5:cb:29:0f:83:af:98:e3:58:a7:f3:d1:06:43:b2:04:
         e0:ea:c7:5c:2f:41:4f:33:d4:8d:ac:c8:ba:2d:5e:42:3a:d7:
         35:b6:c1:28:17:4a:41:66:a1:91:2f:2d:d7:06:2a:ee:f7:1b:
         e0:23:b1:e0:07:8e:b1:47:a8:ee:16:d4:84:33:9d:50:65:61:
         a1:8b:86:8d:03:73:2a:45:08:44:fd:04:60:fd:5b:9d:4e:ea:
         8d:95:30:99:11:e4:96:44:25:2b:66:74:08:15:36:95:41:4a:
         ee:6d:76:5a:85:b4:69:84:27:ea:e2:b0:15:e3:23:3b:66:ae:
         ab:45:c7:dc:49:94:87:e4:a3:12:97:a3:e4:b8:69:fb:8f:77:
         5f:71:7d:2f:88:43:0d:2d:11:94:08:8f:16:77:54:6b:86:7e:
         fb:e9:94:f0:16:87:87:f6:17:1f:21:a8:af:21:b6:9a:63:cd:
         5c:31:8d:b3:7e:db:ab:a8:df:f2:9a:9b:24:c6:1f:b1:e7:a6:
         c4:a8:c5:17:9d:63:17:ce:35:10:08:c3:01:82:6c:36:7b:19:
         35:14:0c:97:74:7d:11:c1:d9:f6:d2:7c:fc:e6:2b:80:c3:37:
         36:0c:87:03:d4:54:82:20:0d:48:2d:6f:ed:5e:18:6b:94:72:
         22:ba:5d:f2:7a:fe:82:2e
-----BEGIN CERTIFICATE-----
MIIGqzCCBJOgAwIBAgICAMYwDQYJKoZIhvcNAQEEBQAwgawxCzAJBgNVBAYTAlVT
MQswCQYDVQQIEwJPSDERMA8GA1UEBxMIQ29sdW1idXMxEjAQBgNVBAoTCVZpa2lu
Z1ZQTjEdMBsGA1UECxMUTXlPcmdhbml6YXRpb25hbFVuaXQxFTATBgNVBAMTDFZp
a2luZ1ZQTiBDQTEQMA4GA1UEKRMHRWFzeVJTQTEhMB8GCSqGSIb3DQEJARYSbWVA
bXlob3N0Lm15ZG9tYWluMB4XDTEzMDkxNTE2MzUzM1oXDTIzMDkxMzE2MzUzM1ow
HTEbMBkGA1UEAxMSQ2xpZW50NzRDZXJ0YWRkZmI1MIICIjANBgkqhkiG9w0BAQEF
AAOCAg8AMIICCgKCAgEAz5jQDuyKsJG4uNbGPGq6nKZ1KywAwfR/KwBOAV4loIDq
b8GiHAy5sju9rK8wxrm0uZnYaLA+sOOkxTwgczWn+IajZK60WQSvj16aWnbmflpG
GHZLoI0ttVv5vCfJIJNUsJ48Uay4EeJt4oqdZmuh3ngoh/4NmmvTtO7lS81TFg0q
nVrM42sGgwZWYPS+CYjsYiTlLfLNuH/zmm6gQcM5ooYBMK7MLyUiRvMFnHD4Dqs4
W7MtPfYukvsaxElXRHkaV2CjVgeBdsJZdwljwQT7vyO7z392NpTa+cYmO9wUFN/X
ptrJRFvQO5z0QT64d9SyA4zzTkStWgRECdwKp+v+ogYp73qL7EGWwZaOdLSZLbpG
uZCy0kffQNY5pCs1JCSiZLR3OmdmrBz3DKPO8QE1dsnr05vEfBl8VKdTWVPeA2Th
AbcGtUjQujEhQzMB87AFXv3EV/CAVz2/qrSGjzICdG9DgFh6ggzRu78r02MzaPRd
UcHeLEvYsS7u/JLAybk3piOgBBXXErxVCD38EspQQfGQpCMPmejzj3EH2ppbdBZH
fn2pVW2BME3JGkwg606ISXU6HjCdA9O6LMJZTHDoiAVaS+9wqKn3GzCBGzVqTZrI
uf0uMsVaAl45Cw7wKmEnFAakv8UHz5MH9ardGXzYDtq9pRL+stct4bVXBPqQrS8C
AwEAAaOCAWMwggFfMAkGA1UdEwQCMAAwLQYJYIZIAYb4QgENBCAWHkVhc3ktUlNB
IEdlbmVyYXRlZCBDZXJ0aWZpY2F0ZTAdBgNVHQ4EFgQUuRV2GnXbNIPTGMgJ9Cmn
pnaDWgAwgeEGA1UdIwSB2TCB1oAUEs1gBNKggJ5w7caZuHssxlL9GaGhgbKkga8w
gawxCzAJBgNVBAYTAlVTMQswCQYDVQQIEwJPSDERMA8GA1UEBxMIQ29sdW1idXMx
EjAQBgNVBAoTCVZpa2luZ1ZQTjEdMBsGA1UECxMUTXlPcmdhbml6YXRpb25hbFVu
aXQxFTATBgNVBAMTDFZpa2luZ1ZQTiBDQTEQMA4GA1UEKRMHRWFzeVJTQTEhMB8G
CSqGSIb3DQEJARYSbWVAbXlob3N0Lm15ZG9tYWluggkAzzWF7oC/Kj4wEwYDVR0l
BAwwCgYIKwYBBQUHAwIwCwYDVR0PBAQDAgeAMA0GCSqGSIb3DQEBBAUAA4ICAQA8
ZMaGeDA46VK73XXACzVGe8OO4cLi1Y/dvjGPqAN77/mVblPNskOsS0Y4Yrg/fFEg
BKbAFgornxfaq5KoELK7cOQEkn2IbVJJDjjXFF9yme5S6qYi4yCPf6JCm95JDgEa
WO0aOlDT1uKjQlHkXp1dqiJKzV8L4gsnMnVjeO6sczN62pnlXkBhuBQNjcGhYdn8
f7MBzkZx5FtEZRSONAtMkvhS4lMQRcazpbyOi9DSW0wV+mo5dR9lfAU9gmTtJG/w
qN7ipFCS1xgaoblwwo8YzfuyZaAYiyjsEygDzJ5nOtaXh/iQrM1zVP23FLCJykIN
KK+i28+y4zc3S1RTK8XLKQ+Dr5jjWKfz0QZDsgTg6sdcL0FPM9SNrMi6LV5COtc1
tsEoF0pBZqGRLy3XBiru9xvgI7HgB46xR6juFtSEM51QZWGhi4aNA3MqRQhE/QRg
/VudTuqNlTCZEeSWRCUrZnQIFTaVQUrubXZahbRphCfq4rAV4yM7Zq6rRcfcSZSH
5KMSl6PkuGn7j3dfcX0viEMNLRGUCI8Wd1Rrhn776ZTwFoeH9hcfIaivIbaaY81c
MY2zfturqN/ympskxh+x56bEqMUXnWMXzjUQCMMBgmw2exk1FAyXdH0Rwdn20nz8
5iuAwzc2DIcD1FSCIA1ILW/tXhhrlHIiul3yev6CLg==
-----END CERTIFICATE-----
