Certificate:
    Data:
        Version: 3 (0x2)
        Serial Number: 6065 (0x17b1)
    Signature Algorithm: md5WithRSAEncryption
        Issuer: C=US, ST=OH, L=Columbus, O=VikingVPN, OU=MyOrganizationalUnit, CN=VikingVPN CA/name=EasyRSA/emailAddress=me@myhost.mydomain
        Validity
            Not Before: Aug 12 21:24:26 2015 GMT
            Not After : Aug  9 21:24:26 2025 GMT
        Subject: CN=Client1578Certed54dc
        Subject Public Key Info:
            Public Key Algorithm: rsaEncryption
                Public-Key: (4096 bit)
                Modulus:
                    00:b5:b6:ca:3e:bf:fe:58:54:d9:cb:09:ac:22:e5:
                    83:c7:f3:9e:1c:b7:9b:18:3a:7b:3e:b4:82:a0:77:
                    1f:23:7a:5e:02:4c:16:9a:ca:07:aa:eb:c7:05:b7:
                    24:8e:1c:cd:bf:1f:a4:8e:b7:2f:99:7f:b1:2d:d1:
                    f0:1f:b0:2c:c0:32:00:bf:0b:36:2f:71:d9:65:55:
                    be:6f:6b:53:64:c8:9d:04:e0:4d:c0:40:e8:e3:c0:
                    2f:4c:93:c7:fc:42:eb:09:4b:54:3c:cc:a9:dc:22:
                    a2:7f:07:5a:fd:ee:1b:eb:a4:b3:06:a4:35:f2:be:
                    5c:5b:05:25:0b:8d:c5:e3:85:c7:4b:ee:f8:7c:6b:
                    62:71:dc:f6:e6:2c:0e:a6:81:ff:81:64:92:6f:1d:
                    07:73:82:af:33:a5:00:28:a0:b8:83:7c:1f:5c:e8:
                    8f:74:7d:22:3b:6e:bd:a7:6d:16:18:19:47:2f:63:
                    4b:62:07:b9:71:11:2f:0b:70:03:17:a2:76:4a:5c:
                    13:f3:fc:8c:56:ab:5d:b7:79:f6:ea:2c:ba:dd:c1:
                    2c:cb:ea:a7:0b:7f:47:c9:42:23:d6:8f:6d:2d:8c:
                    b0:33:42:53:79:62:08:29:65:00:61:4b:74:a5:6f:
                    b0:60:9b:77:76:a4:37:7e:90:d1:84:f2:a8:58:73:
                    a6:09:f1:af:77:a7:04:ab:24:5d:8a:0f:3d:48:5c:
                    ff:5c:20:3c:e0:8c:a3:55:50:1f:9c:ec:68:61:f3:
                    00:22:cd:90:5a:e8:08:ac:fe:59:69:c9:b6:b4:bb:
                    fe:dd:57:1d:3a:95:a6:a6:3d:64:bf:8c:56:7a:d9:
                    0d:0b:6b:5f:47:5a:95:9f:f8:c9:86:06:ed:d6:d8:
                    17:77:d1:ba:c8:d4:33:75:71:74:3d:7b:96:83:df:
                    ce:7d:c0:be:31:03:17:25:0b:d4:fb:1a:2d:ce:d1:
                    86:c4:32:c8:49:9e:7f:f2:55:92:13:e1:83:87:84:
                    fb:d5:f4:0b:3e:e3:2b:82:87:6b:12:2b:79:7e:d6:
                    45:00:3f:b4:d5:a4:17:d6:45:dc:af:73:df:75:f3:
                    8d:ac:00:7a:43:ec:d9:83:ee:08:4e:99:09:de:05:
                    73:cb:12:2e:50:ff:fb:f5:76:71:d9:9b:ca:c0:39:
                    6f:44:e6:01:f0:9b:da:f8:0e:45:8e:52:65:79:6d:
                    f1:1f:89:1d:e9:a2:a4:54:64:3c:2f:d2:f6:be:c5:
                    e8:da:8d:f0:f9:ba:da:dc:64:01:50:4a:fe:dc:7c:
                    b6:79:a1:82:04:6c:a9:8d:d8:5e:36:1c:f0:6b:cf:
                    07:8e:45:45:fe:76:3d:34:39:c9:ff:59:80:da:4a:
                    a8:d5:37
                Exponent: 65537 (0x10001)
        X509v3 extensions:
            X509v3 Basic Constraints: 
                CA:FALSE
            Netscape Comment: 
                Easy-RSA Generated Certificate
            X509v3 Subject Key Identifier: 
                91:94:82:49:0D:F6:13:90:D7:04:79:73:C8:CB:D1:47:D1:07:1C:50
            X509v3 Authority Key Identifier: 
                keyid:12:CD:60:04:D2:A0:80:9E:70:ED:C6:99:B8:7B:2C:C6:52:FD:19:A1
                DirName:/C=US/ST=OH/L=Columbus/O=VikingVPN/OU=MyOrganizationalUnit/CN=VikingVPN CA/name=EasyRSA/emailAddress=me@myhost.mydomain
                serial:CF:35:85:EE:80:BF:2A:3E

            X509v3 Extended Key Usage: 
                TLS Web Client Authentication
            X509v3 Key Usage: 
                Digital Signature
    Signature Algorithm: md5WithRSAEncryption
         8d:15:0d:22:b9:bd:53:77:f6:8e:c9:aa:1d:7f:60:67:74:67:
         a4:bc:03:cd:9b:89:e9:49:56:2e:4c:39:43:5a:29:fb:18:3e:
         3b:1f:cd:73:a5:dd:4f:68:e3:dd:9e:73:a6:02:4d:70:7e:ad:
         bd:04:5b:81:34:db:cb:b6:ac:a8:c9:52:59:1c:99:3e:b3:2f:
         a6:1d:2d:93:d4:3d:31:8f:07:6d:d3:f2:33:98:18:af:1a:ea:
         cf:cd:9d:b5:e4:a7:63:f5:fd:b5:3b:90:06:ba:6c:91:89:a6:
         1e:0c:d8:f4:40:92:cb:58:40:65:9d:02:ec:4a:62:49:1f:30:
         33:6d:58:54:4a:70:b0:aa:12:e7:a5:48:50:86:d0:06:48:a1:
         59:2f:0f:a2:44:a3:67:2f:b3:6f:9e:21:93:05:2c:51:22:74:
         3e:f8:d0:b4:81:80:97:7b:a9:37:8f:ff:96:72:69:63:6b:56:
         bd:77:36:93:2f:2d:6c:54:29:0a:13:fc:9e:75:28:bb:45:87:
         2f:dc:14:6b:6f:75:b3:e3:51:90:ce:fb:ce:d9:ef:a3:b4:c5:
         db:7a:ca:88:97:14:74:44:26:75:38:95:fb:e7:97:a5:38:cb:
         95:04:8e:35:d0:78:97:98:bf:5c:09:85:42:a5:4c:18:c2:98:
         99:aa:8e:e0:5f:f1:dc:7c:d7:d1:40:52:6f:07:39:f0:e4:c4:
         7d:65:ae:00:12:f9:9f:0c:8c:13:de:89:f2:18:d1:03:99:91:
         f5:ba:52:ed:76:34:8b:13:07:f0:bb:03:c8:5d:97:0d:3c:19:
         aa:b2:19:78:fe:4f:d7:5d:b9:26:bc:1c:5e:e3:37:53:39:2e:
         f1:3d:98:06:7b:87:32:31:50:af:87:21:6d:2d:78:eb:ce:ce:
         98:e3:6d:72:c9:01:a1:83:b0:0d:50:06:73:7c:a4:a6:28:9b:
         c9:48:1f:2b:0b:7e:e3:88:31:9b:67:fb:c2:e8:58:d3:a0:e7:
         15:a8:1a:50:1f:cc:68:34:8c:fb:cc:20:77:12:53:5d:eb:3e:
         42:71:27:fe:be:52:5e:16:dd:32:34:3a:00:aa:9b:a4:df:c2:
         25:30:53:fa:cb:74:c7:1f:ef:d4:0c:9b:44:7b:68:3b:ca:e6:
         69:64:45:e8:9a:2a:88:1c:86:5b:cb:11:dc:99:b1:c9:97:fb:
         a5:53:f4:38:08:d7:39:1f:ac:aa:51:88:31:ec:64:83:28:a8:
         43:56:fe:27:f5:86:46:b9:8e:ad:16:56:db:ee:b3:e1:66:b8:
         b5:e7:26:23:b9:73:78:6a:96:49:a8:c9:62:23:f9:3c:b7:d7:
         81:cc:ca:16:33:ae:5f:a3
-----BEGIN CERTIFICATE-----
MIIGrTCCBJWgAwIBAgICF7EwDQYJKoZIhvcNAQEEBQAwgawxCzAJBgNVBAYTAlVT
MQswCQYDVQQIEwJPSDERMA8GA1UEBxMIQ29sdW1idXMxEjAQBgNVBAoTCVZpa2lu
Z1ZQTjEdMBsGA1UECxMUTXlPcmdhbml6YXRpb25hbFVuaXQxFTATBgNVBAMTDFZp
a2luZ1ZQTiBDQTEQMA4GA1UEKRMHRWFzeVJTQTEhMB8GCSqGSIb3DQEJARYSbWVA
bXlob3N0Lm15ZG9tYWluMB4XDTE1MDgxMjIxMjQyNloXDTI1MDgwOTIxMjQyNlow
HzEdMBsGA1UEAxMUQ2xpZW50MTU3OENlcnRlZDU0ZGMwggIiMA0GCSqGSIb3DQEB
AQUAA4ICDwAwggIKAoICAQC1tso+v/5YVNnLCawi5YPH854ct5sYOns+tIKgdx8j
el4CTBaaygeq68cFtySOHM2/H6SOty+Zf7Et0fAfsCzAMgC/CzYvcdllVb5va1Nk
yJ0E4E3AQOjjwC9Mk8f8QusJS1Q8zKncIqJ/B1r97hvrpLMGpDXyvlxbBSULjcXj
hcdL7vh8a2Jx3PbmLA6mgf+BZJJvHQdzgq8zpQAooLiDfB9c6I90fSI7br2nbRYY
GUcvY0tiB7lxES8LcAMXonZKXBPz/IxWq123efbqLLrdwSzL6qcLf0fJQiPWj20t
jLAzQlN5YggpZQBhS3Slb7Bgm3d2pDd+kNGE8qhYc6YJ8a93pwSrJF2KDz1IXP9c
IDzgjKNVUB+c7Ghh8wAizZBa6Ais/llpyba0u/7dVx06laamPWS/jFZ62Q0La19H
WpWf+MmGBu3W2Bd30brI1DN1cXQ9e5aD3859wL4xAxclC9T7Gi3O0YbEMshJnn/y
VZIT4YOHhPvV9As+4yuCh2sSK3l+1kUAP7TVpBfWRdyvc991842sAHpD7NmD7ghO
mQneBXPLEi5Q//v1dnHZm8rAOW9E5gHwm9r4DkWOUmV5bfEfiR3poqRUZDwv0va+
xejajfD5utrcZAFQSv7cfLZ5oYIEbKmN2F42HPBrzweORUX+dj00Ocn/WYDaSqjV
NwIDAQABo4IBYzCCAV8wCQYDVR0TBAIwADAtBglghkgBhvhCAQ0EIBYeRWFzeS1S
U0EgR2VuZXJhdGVkIENlcnRpZmljYXRlMB0GA1UdDgQWBBSRlIJJDfYTkNcEeXPI
y9FH0QccUDCB4QYDVR0jBIHZMIHWgBQSzWAE0qCAnnDtxpm4eyzGUv0ZoaGBsqSB
rzCBrDELMAkGA1UEBhMCVVMxCzAJBgNVBAgTAk9IMREwDwYDVQQHEwhDb2x1bWJ1
czESMBAGA1UEChMJVmlraW5nVlBOMR0wGwYDVQQLExRNeU9yZ2FuaXphdGlvbmFs
VW5pdDEVMBMGA1UEAxMMVmlraW5nVlBOIENBMRAwDgYDVQQpEwdFYXN5UlNBMSEw
HwYJKoZIhvcNAQkBFhJtZUBteWhvc3QubXlkb21haW6CCQDPNYXugL8qPjATBgNV
HSUEDDAKBggrBgEFBQcDAjALBgNVHQ8EBAMCB4AwDQYJKoZIhvcNAQEEBQADggIB
AI0VDSK5vVN39o7Jqh1/YGd0Z6S8A82bielJVi5MOUNaKfsYPjsfzXOl3U9o492e
c6YCTXB+rb0EW4E028u2rKjJUlkcmT6zL6YdLZPUPTGPB23T8jOYGK8a6s/NnbXk
p2P1/bU7kAa6bJGJph4M2PRAkstYQGWdAuxKYkkfMDNtWFRKcLCqEuelSFCG0AZI
oVkvD6JEo2cvs2+eIZMFLFEidD740LSBgJd7qTeP/5ZyaWNrVr13NpMvLWxUKQoT
/J51KLtFhy/cFGtvdbPjUZDO+87Z76O0xdt6yoiXFHREJnU4lfvnl6U4y5UEjjXQ
eJeYv1wJhUKlTBjCmJmqjuBf8dx819FAUm8HOfDkxH1lrgAS+Z8MjBPeifIY0QOZ
kfW6Uu12NIsTB/C7A8hdlw08GaqyGXj+T9dduSa8HF7jN1M5LvE9mAZ7hzIxUK+H
IW0teOvOzpjjbXLJAaGDsA1QBnN8pKYom8lIHysLfuOIMZtn+8LoWNOg5xWoGlAf
zGg0jPvMIHcSU13rPkJxJ/6+Ul4W3TI0OgCqm6TfwiUwU/rLdMcf79QMm0R7aDvK
5mlkReiaKogchlvLEdyZscmX+6VT9DgI1zkfrKpRiDHsZIMoqENW/if1hka5jq0W
Vtvus+FmuLXnJiO5c3hqlkmoyWIj+Ty314HMyhYzrl+j
-----END CERTIFICATE-----
