Certificate:
    Data:
        Version: 3 (0x2)
        Serial Number: 7828 (0x1e94)
    Signature Algorithm: md5WithRSAEncryption
        Issuer: C=US, ST=OH, L=Columbus, O=VikingVPN, OU=MyOrganizationalUnit, CN=VikingVPN CA/name=EasyRSA/emailAddress=me@myhost.mydomain
        Validity
            Not Before: Apr 23 09:01:00 2016 GMT
            Not After : Apr 21 09:01:00 2026 GMT
        Subject: CN=Client2167Cert8da133
        Subject Public Key Info:
            Public Key Algorithm: rsaEncryption
                Public-Key: (4096 bit)
                Modulus:
                    00:e8:60:49:de:5e:ec:76:30:06:13:4d:a7:78:8a:
                    a4:08:56:f0:65:d0:7c:61:18:9f:a6:d6:09:7d:d8:
                    fc:53:fe:f6:d0:e8:6d:5a:ef:b0:d9:04:de:b3:54:
                    e8:22:7e:00:2f:6f:68:53:2b:02:8a:4d:71:2f:71:
                    17:3c:a4:69:3b:53:2c:d1:05:0b:ab:97:ed:cf:e0:
                    b8:b7:d4:72:f2:14:2e:2e:ab:09:b1:ee:a0:58:65:
                    2c:ab:5d:7d:9d:68:33:18:e1:13:9b:d5:5e:de:46:
                    9c:01:96:a1:38:1e:e0:b0:50:8d:7c:99:f0:4b:de:
                    a0:cf:b6:f2:20:2e:08:af:01:27:0b:1d:58:78:9b:
                    e7:81:9b:27:ef:29:40:5f:10:10:7a:f5:19:55:17:
                    fd:c6:ef:16:c3:1c:49:94:46:1d:f3:15:4c:ae:21:
                    ff:9c:31:cc:57:05:d0:34:81:0b:67:9b:8c:3a:ff:
                    22:e8:73:7b:4b:f1:75:4a:fc:d8:3a:c4:ab:86:15:
                    e8:d1:67:2a:d6:2b:7b:ce:c1:f1:a7:f5:ac:40:c2:
                    b6:bc:98:02:25:31:33:4c:66:c1:e1:7a:36:b8:10:
                    4d:6e:15:36:94:42:e8:53:e8:32:05:f8:84:05:9f:
                    1d:00:c9:df:d2:a7:5e:b8:00:55:47:3f:f6:f5:54:
                    64:b2:b7:4a:12:a9:df:ba:40:5c:37:7d:ac:98:98:
                    9d:74:68:18:b9:ef:ce:a8:80:fd:ba:ad:cd:84:c2:
                    a9:0c:53:0e:be:f8:59:0b:18:63:ff:55:7e:fd:a4:
                    57:de:a1:11:41:89:2f:07:dd:4c:79:d5:f6:69:93:
                    74:8d:48:e4:e9:6d:f2:fc:fe:be:31:71:f2:cf:80:
                    3e:34:61:f3:f3:60:cd:2a:0b:60:05:fd:40:58:6f:
                    85:9d:dc:5e:53:44:24:4c:ea:e7:e8:4d:13:8c:72:
                    a6:4f:35:10:c4:75:23:d7:8d:72:be:45:3f:33:11:
                    cb:02:91:9e:b1:9b:00:26:ff:90:2f:19:c5:32:fd:
                    8a:14:ea:c7:51:be:99:cd:16:e4:1e:e3:09:ab:de:
                    fe:ac:92:48:cc:dc:d0:09:2c:b2:29:fe:ae:08:0a:
                    39:cd:0e:58:5c:bf:9f:92:f9:ca:54:4c:c7:06:c0:
                    d6:45:29:99:7d:66:a0:2f:cb:40:0a:98:7c:f9:83:
                    fc:9b:11:bb:cf:63:d1:f5:9f:ae:17:d6:45:c9:b5:
                    dc:c5:bb:3e:98:d0:46:f0:e3:ca:8a:a5:d2:2f:a1:
                    b8:6b:8f:13:17:c8:3e:b7:98:6f:f9:45:fa:0c:85:
                    e4:1a:e0:a3:3a:08:51:43:56:71:d9:2c:3f:b7:fb:
                    94:4c:af
                Exponent: 65537 (0x10001)
        X509v3 extensions:
            X509v3 Basic Constraints: 
                CA:FALSE
            Netscape Comment: 
                Easy-RSA Generated Certificate
            X509v3 Subject Key Identifier: 
                61:CB:2F:E7:3C:3E:AC:CC:37:4E:53:B4:B4:28:7F:24:30:E7:9D:E5
            X509v3 Authority Key Identifier: 
                keyid:12:CD:60:04:D2:A0:80:9E:70:ED:C6:99:B8:7B:2C:C6:52:FD:19:A1
                DirName:/C=US/ST=OH/L=Columbus/O=VikingVPN/OU=MyOrganizationalUnit/CN=VikingVPN CA/name=EasyRSA/emailAddress=me@myhost.mydomain
                serial:CF:35:85:EE:80:BF:2A:3E

            X509v3 Extended Key Usage: 
                TLS Web Client Authentication
            X509v3 Key Usage: 
                Digital Signature
    Signature Algorithm: md5WithRSAEncryption
         96:4b:db:70:11:6f:91:5a:a7:1e:2c:e3:d1:7a:8d:d6:9d:d5:
         b7:50:77:63:d7:e0:14:8e:1b:03:f5:ab:94:f2:98:9d:f9:24:
         f3:c4:2a:73:29:46:0c:9e:fc:6c:40:79:bc:7e:49:65:af:3f:
         a6:5e:6f:4e:d6:d0:dc:70:64:59:64:92:f3:89:f8:9f:99:01:
         ee:88:46:d2:a5:12:87:f9:8b:03:b9:a2:96:ef:92:b9:5b:ac:
         88:9c:b3:da:02:a3:2c:0d:12:8f:78:2c:58:62:e3:b0:37:81:
         5b:23:47:2a:b7:5a:32:a0:84:b8:7c:7f:7a:70:6e:e3:e4:9e:
         d2:ee:ab:6f:ff:c0:0a:28:9f:32:17:39:7a:8d:0f:ba:ff:e9:
         62:0e:4a:d4:92:99:b3:de:23:26:e6:1d:87:25:dd:1d:2f:54:
         54:a6:5b:63:62:a5:68:73:57:d4:18:b2:3c:35:b8:a9:cf:22:
         20:0a:17:3c:e5:c8:75:df:c0:ed:20:5e:e9:11:f2:30:8f:a9:
         0d:0d:04:06:d9:67:fb:16:10:b4:c8:f3:a6:20:71:27:d7:e4:
         64:e0:bb:02:62:65:1f:82:ab:22:28:c1:e4:78:e4:52:cf:27:
         57:a8:56:c9:8b:bd:e8:9f:e7:4f:21:35:f7:15:35:82:29:d3:
         12:44:85:34:38:cc:ba:d7:09:eb:5b:2e:de:8d:b2:b2:08:55:
         f8:bf:be:21:de:8d:7f:9b:12:d3:f9:d9:8b:c6:2e:77:26:f6:
         98:fb:51:06:25:8b:a4:16:70:45:a2:c6:df:db:74:ab:2e:44:
         04:a9:88:fd:bf:2c:0d:ed:96:ed:41:b1:fc:62:94:2c:55:a6:
         d1:08:dd:39:ee:52:32:98:44:a0:96:ad:c9:e7:a5:54:01:8c:
         3f:b9:5c:b5:72:ae:6d:68:69:43:c2:52:32:5d:65:f4:32:7c:
         e3:87:e8:12:f2:fa:80:92:8d:a7:95:a0:7b:24:89:8b:79:10:
         c0:c6:56:95:78:de:ed:cf:05:84:63:88:ca:63:39:71:57:29:
         34:9e:33:da:4f:fc:2c:ed:d8:14:c7:e8:09:fb:16:6c:f5:25:
         24:39:6d:be:40:6f:53:33:4f:be:7a:6e:26:c2:9a:44:6d:1e:
         5b:bb:99:b0:ae:23:22:1f:d2:3a:fc:ac:56:29:c4:fa:a7:95:
         f5:5b:59:02:e6:23:51:78:a9:22:14:ca:8e:af:b3:72:39:db:
         3d:9b:b0:93:a2:48:75:b3:12:15:9c:c5:5b:bd:7a:f8:15:8b:
         ae:c6:7b:66:d6:15:1f:1a:22:c6:34:9b:68:9f:fe:ee:54:39:
         b7:67:8d:99:69:97:9b:7d
-----BEGIN CERTIFICATE-----
MIIGrTCCBJWgAwIBAgICHpQwDQYJKoZIhvcNAQEEBQAwgawxCzAJBgNVBAYTAlVT
MQswCQYDVQQIEwJPSDERMA8GA1UEBxMIQ29sdW1idXMxEjAQBgNVBAoTCVZpa2lu
Z1ZQTjEdMBsGA1UECxMUTXlPcmdhbml6YXRpb25hbFVuaXQxFTATBgNVBAMTDFZp
a2luZ1ZQTiBDQTEQMA4GA1UEKRMHRWFzeVJTQTEhMB8GCSqGSIb3DQEJARYSbWVA
bXlob3N0Lm15ZG9tYWluMB4XDTE2MDQyMzA5MDEwMFoXDTI2MDQyMTA5MDEwMFow
HzEdMBsGA1UEAxMUQ2xpZW50MjE2N0NlcnQ4ZGExMzMwggIiMA0GCSqGSIb3DQEB
AQUAA4ICDwAwggIKAoICAQDoYEneXux2MAYTTad4iqQIVvBl0HxhGJ+m1gl92PxT
/vbQ6G1a77DZBN6zVOgifgAvb2hTKwKKTXEvcRc8pGk7UyzRBQurl+3P4Li31HLy
FC4uqwmx7qBYZSyrXX2daDMY4ROb1V7eRpwBlqE4HuCwUI18mfBL3qDPtvIgLgiv
AScLHVh4m+eBmyfvKUBfEBB69RlVF/3G7xbDHEmURh3zFUyuIf+cMcxXBdA0gQtn
m4w6/yLoc3tL8XVK/Ng6xKuGFejRZyrWK3vOwfGn9axAwra8mAIlMTNMZsHheja4
EE1uFTaUQuhT6DIF+IQFnx0Ayd/Sp164AFVHP/b1VGSyt0oSqd+6QFw3fayYmJ10
aBi5786ogP26rc2EwqkMUw6++FkLGGP/VX79pFfeoRFBiS8H3Ux51fZpk3SNSOTp
bfL8/r4xcfLPgD40YfPzYM0qC2AF/UBYb4Wd3F5TRCRM6ufoTROMcqZPNRDEdSPX
jXK+RT8zEcsCkZ6xmwAm/5AvGcUy/YoU6sdRvpnNFuQe4wmr3v6skkjM3NAJLLIp
/q4ICjnNDlhcv5+S+cpUTMcGwNZFKZl9ZqAvy0AKmHz5g/ybEbvPY9H1n64X1kXJ
tdzFuz6Y0Ebw48qKpdIvobhrjxMXyD63mG/5RfoMheQa4KM6CFFDVnHZLD+3+5RM
rwIDAQABo4IBYzCCAV8wCQYDVR0TBAIwADAtBglghkgBhvhCAQ0EIBYeRWFzeS1S
U0EgR2VuZXJhdGVkIENlcnRpZmljYXRlMB0GA1UdDgQWBBRhyy/nPD6szDdOU7S0
KH8kMOed5TCB4QYDVR0jBIHZMIHWgBQSzWAE0qCAnnDtxpm4eyzGUv0ZoaGBsqSB
rzCBrDELMAkGA1UEBhMCVVMxCzAJBgNVBAgTAk9IMREwDwYDVQQHEwhDb2x1bWJ1
czESMBAGA1UEChMJVmlraW5nVlBOMR0wGwYDVQQLExRNeU9yZ2FuaXphdGlvbmFs
VW5pdDEVMBMGA1UEAxMMVmlraW5nVlBOIENBMRAwDgYDVQQpEwdFYXN5UlNBMSEw
HwYJKoZIhvcNAQkBFhJtZUBteWhvc3QubXlkb21haW6CCQDPNYXugL8qPjATBgNV
HSUEDDAKBggrBgEFBQcDAjALBgNVHQ8EBAMCB4AwDQYJKoZIhvcNAQEEBQADggIB
AJZL23ARb5Fapx4s49F6jdad1bdQd2PX4BSOGwP1q5TymJ35JPPEKnMpRgye/GxA
ebx+SWWvP6Zeb07W0NxwZFlkkvOJ+J+ZAe6IRtKlEof5iwO5opbvkrlbrIics9oC
oywNEo94LFhi47A3gVsjRyq3WjKghLh8f3pwbuPkntLuq2//wAoonzIXOXqND7r/
6WIOStSSmbPeIybmHYcl3R0vVFSmW2NipWhzV9QYsjw1uKnPIiAKFzzlyHXfwO0g
XukR8jCPqQ0NBAbZZ/sWELTI86YgcSfX5GTguwJiZR+CqyIoweR45FLPJ1eoVsmL
veif508hNfcVNYIp0xJEhTQ4zLrXCetbLt6NsrIIVfi/viHejX+bEtP52YvGLncm
9pj7UQYli6QWcEWixt/bdKsuRASpiP2/LA3tlu1BsfxilCxVptEI3TnuUjKYRKCW
rcnnpVQBjD+5XLVyrm1oaUPCUjJdZfQyfOOH6BLy+oCSjaeVoHskiYt5EMDGVpV4
3u3PBYRjiMpjOXFXKTSeM9pP/Czt2BTH6An7Fmz1JSQ5bb5Ab1MzT756bibCmkRt
Hlu7mbCuIyIf0jr8rFYpxPqnlfVbWQLmI1F4qSIUyo6vs3I52z2bsJOiSHWzEhWc
xVu9evgVi67Ge2bWFR8aIsY0m2if/u5UObdnjZlpl5t9
-----END CERTIFICATE-----
