Certificate:
    Data:
        Version: 3 (0x2)
        Serial Number: 8170 (0x1fea)
    Signature Algorithm: md5WithRSAEncryption
        Issuer: C=US, ST=OH, L=Columbus, O=VikingVPN, OU=MyOrganizationalUnit, CN=VikingVPN CA/name=EasyRSA/emailAddress=me@myhost.mydomain
        Validity
            Not Before: Jun  5 06:14:39 2016 GMT
            Not After : Jun  3 06:14:39 2026 GMT
        Subject: CN=Client2373Cert058993
        Subject Public Key Info:
            Public Key Algorithm: rsaEncryption
                Public-Key: (4096 bit)
                Modulus:
                    00:d6:b7:72:10:25:5b:d5:7f:82:da:4b:9f:d4:85:
                    0a:41:1d:dc:63:5a:f1:ac:76:f0:48:a1:6b:13:8b:
                    32:ab:15:db:ba:bb:1f:85:17:61:22:e5:07:d5:f5:
                    e7:0a:19:97:ad:39:2f:67:15:3c:be:57:11:66:f8:
                    12:01:d9:a7:a1:5c:f6:ff:c3:6e:31:f7:2d:df:ba:
                    08:86:55:23:1b:34:ed:c2:47:25:13:d8:57:9f:f3:
                    45:88:1a:4f:22:b4:29:67:54:c6:cc:f7:83:c7:05:
                    e4:aa:1f:e2:5b:9b:a5:a0:d3:84:3d:ac:3b:22:fb:
                    3a:e0:fe:ba:15:56:92:f1:52:fa:84:86:46:4a:ea:
                    de:c4:f2:64:d1:62:45:83:d5:8a:8a:15:55:3c:d9:
                    54:00:fd:1d:3d:f6:1f:bd:85:13:56:e2:e5:f2:83:
                    90:e8:48:42:3f:4a:f6:26:11:1f:2c:30:29:b9:f7:
                    9e:c5:1b:aa:f7:8b:a1:2d:09:1e:b0:32:15:1b:1f:
                    8a:0a:2a:58:35:d2:3b:f0:dc:9c:98:37:84:7d:46:
                    11:c0:6a:d4:57:fb:df:24:69:23:1d:1d:e7:39:ae:
                    81:30:bb:c6:ea:db:3e:99:ea:2c:bd:5e:be:2c:c9:
                    c3:ee:81:09:31:f5:65:5d:7e:6a:08:d2:93:1b:3e:
                    92:42:38:2e:eb:58:a0:ba:bd:7f:ae:0c:ca:aa:9a:
                    70:6e:14:00:3a:8a:6c:46:87:2d:06:dd:30:d3:86:
                    94:4d:a9:69:f9:1c:2a:d0:5b:bb:a6:26:ca:ac:0f:
                    f6:8b:17:25:b1:f6:f2:ec:99:e0:0b:cf:1f:1d:b2:
                    2c:40:8e:94:d7:90:6a:e9:f7:01:70:23:02:34:f4:
                    38:51:d8:42:9d:80:8c:f4:8b:0a:cc:f3:8e:43:2d:
                    10:13:bc:ea:33:1b:c5:ee:03:94:37:82:ee:d0:42:
                    a8:09:00:2a:c5:c6:7c:5a:11:cb:1e:be:56:84:9c:
                    a1:69:a1:6c:e8:db:fd:1d:21:b6:b9:86:ba:66:5d:
                    c9:5a:9e:db:b8:81:b3:83:3f:3f:b9:78:34:ee:e3:
                    e6:21:ff:08:d7:0c:ed:2b:ad:55:08:0c:71:c5:8c:
                    c2:c6:68:8b:09:5f:8b:81:6b:02:d0:39:de:ac:87:
                    26:2e:ef:cf:01:d9:bf:a4:e9:8a:3c:2d:c6:4e:c3:
                    24:60:cb:57:ad:6b:82:5e:d6:81:9d:83:3b:46:f3:
                    e4:6b:7f:ff:4e:31:6e:aa:cb:a4:48:c2:34:d4:5a:
                    ff:54:a5:56:aa:3e:02:29:3b:24:38:b2:31:80:37:
                    49:4a:49:3c:a5:0a:e6:7f:d2:db:af:d6:1d:0d:f4:
                    12:36:13
                Exponent: 65537 (0x10001)
        X509v3 extensions:
            X509v3 Basic Constraints: 
                CA:FALSE
            Netscape Comment: 
                Easy-RSA Generated Certificate
            X509v3 Subject Key Identifier: 
                B2:C2:10:73:71:C7:B1:4A:BB:E2:85:49:96:FB:7A:3F:31:DB:71:4C
            X509v3 Authority Key Identifier: 
                keyid:12:CD:60:04:D2:A0:80:9E:70:ED:C6:99:B8:7B:2C:C6:52:FD:19:A1
                DirName:/C=US/ST=OH/L=Columbus/O=VikingVPN/OU=MyOrganizationalUnit/CN=VikingVPN CA/name=EasyRSA/emailAddress=me@myhost.mydomain
                serial:CF:35:85:EE:80:BF:2A:3E

            X509v3 Extended Key Usage: 
                TLS Web Client Authentication
            X509v3 Key Usage: 
                Digital Signature
    Signature Algorithm: md5WithRSAEncryption
         2f:5d:3b:4f:cf:1c:67:f8:15:ec:08:3a:c8:aa:c8:02:68:16:
         3a:3e:ac:b5:b1:1a:34:1e:e7:c2:7e:f3:70:5b:26:45:ec:c1:
         a0:2b:03:10:5a:6b:10:9f:8e:fb:8a:38:42:8d:a3:2c:a9:82:
         ae:0b:32:a4:fa:36:76:5c:f7:21:78:a6:8b:1c:78:5f:16:dd:
         b4:1e:31:1f:12:df:f4:c6:1c:e3:41:07:e2:8e:6e:fb:0b:c6:
         b9:00:26:c7:4e:e4:71:6d:ac:af:aa:1c:b5:c9:80:64:d9:ac:
         b3:ed:dd:87:2d:07:f2:a7:0b:b2:2e:c4:7f:68:c2:bc:ff:18:
         56:b3:06:37:81:b6:41:af:1e:b4:be:0c:82:b8:cc:63:5e:f2:
         89:1b:15:cc:e2:c2:55:8a:b8:e0:e2:8b:1f:9a:c5:3b:c4:a2:
         bf:ae:f3:39:6f:1c:87:e7:83:23:5b:9b:6d:28:c4:db:4d:e5:
         e0:ee:79:e9:e8:61:9b:2a:66:c3:4c:9f:a4:80:32:be:43:05:
         04:40:cf:e8:0f:30:e0:ff:99:4a:33:4c:47:71:26:e0:88:2f:
         b4:86:26:6d:f9:de:be:9a:1e:72:44:01:0f:10:12:b2:4f:4b:
         4e:72:7b:6b:77:ba:a5:7a:02:bd:6f:f2:c5:6f:51:e5:d7:03:
         5e:7e:e5:d6:58:53:77:7b:97:5d:bf:c2:6c:fa:06:b4:c0:3d:
         c0:c0:9e:8c:3e:3f:26:c7:c7:48:55:79:7c:28:a5:eb:81:93:
         87:d2:95:89:9f:ce:74:02:dc:de:50:e2:5a:83:46:c2:5a:3b:
         3d:59:23:8f:a3:75:bc:02:a1:65:ab:7d:a2:55:d8:54:38:cb:
         ed:cd:62:73:f4:69:0f:3c:1f:25:b5:be:ca:31:de:2e:5b:6e:
         1e:bf:9c:d6:ab:c8:6d:d1:eb:cd:57:e3:eb:4f:a2:2f:f0:cd:
         22:a4:90:78:cb:ee:17:15:2a:03:52:3a:94:d4:19:88:91:ba:
         a2:93:ef:d8:47:5e:a1:0a:45:86:1e:c2:ff:a7:35:82:b7:b9:
         6f:58:47:26:94:40:67:d4:f8:04:a5:cb:cb:b8:b4:ac:6b:2f:
         9c:82:87:f0:b0:99:c1:3b:46:85:3c:9d:38:28:8e:4a:6a:73:
         3e:8a:f9:35:75:1b:4a:04:cc:09:71:72:33:93:27:dd:f0:c7:
         6c:0d:8d:cd:16:d1:a7:bd:9c:22:ea:ad:62:72:f4:b1:57:43:
         ba:bb:96:9b:c5:87:59:d3:bb:86:29:fd:3d:0a:3d:7c:07:c1:
         4d:44:10:88:29:23:3a:e2:27:a6:26:fb:9e:51:0a:d4:0a:a6:
         ca:b9:d2:49:87:f6:fc:12
-----BEGIN CERTIFICATE-----
MIIGrTCCBJWgAwIBAgICH+owDQYJKoZIhvcNAQEEBQAwgawxCzAJBgNVBAYTAlVT
MQswCQYDVQQIEwJPSDERMA8GA1UEBxMIQ29sdW1idXMxEjAQBgNVBAoTCVZpa2lu
Z1ZQTjEdMBsGA1UECxMUTXlPcmdhbml6YXRpb25hbFVuaXQxFTATBgNVBAMTDFZp
a2luZ1ZQTiBDQTEQMA4GA1UEKRMHRWFzeVJTQTEhMB8GCSqGSIb3DQEJARYSbWVA
bXlob3N0Lm15ZG9tYWluMB4XDTE2MDYwNTA2MTQzOVoXDTI2MDYwMzA2MTQzOVow
HzEdMBsGA1UEAxMUQ2xpZW50MjM3M0NlcnQwNTg5OTMwggIiMA0GCSqGSIb3DQEB
AQUAA4ICDwAwggIKAoICAQDWt3IQJVvVf4LaS5/UhQpBHdxjWvGsdvBIoWsTizKr
Fdu6ux+FF2Ei5QfV9ecKGZetOS9nFTy+VxFm+BIB2aehXPb/w24x9y3fugiGVSMb
NO3CRyUT2Fef80WIGk8itClnVMbM94PHBeSqH+Jbm6Wg04Q9rDsi+zrg/roVVpLx
UvqEhkZK6t7E8mTRYkWD1YqKFVU82VQA/R099h+9hRNW4uXyg5DoSEI/SvYmER8s
MCm5957FG6r3i6EtCR6wMhUbH4oKKlg10jvw3JyYN4R9RhHAatRX+98kaSMdHec5
roEwu8bq2z6Z6iy9Xr4sycPugQkx9WVdfmoI0pMbPpJCOC7rWKC6vX+uDMqqmnBu
FAA6imxGhy0G3TDThpRNqWn5HCrQW7umJsqsD/aLFyWx9vLsmeALzx8dsixAjpTX
kGrp9wFwIwI09DhR2EKdgIz0iwrM845DLRATvOozG8XuA5Q3gu7QQqgJACrFxnxa
EcsevlaEnKFpoWzo2/0dIba5hrpmXclantu4gbODPz+5eDTu4+Yh/wjXDO0rrVUI
DHHFjMLGaIsJX4uBawLQOd6shyYu788B2b+k6Yo8LcZOwyRgy1eta4Je1oGdgztG
8+Rrf/9OMW6qy6RIwjTUWv9UpVaqPgIpOyQ4sjGAN0lKSTylCuZ/0tuv1h0N9BI2
EwIDAQABo4IBYzCCAV8wCQYDVR0TBAIwADAtBglghkgBhvhCAQ0EIBYeRWFzeS1S
U0EgR2VuZXJhdGVkIENlcnRpZmljYXRlMB0GA1UdDgQWBBSywhBzccexSrvihUmW
+3o/MdtxTDCB4QYDVR0jBIHZMIHWgBQSzWAE0qCAnnDtxpm4eyzGUv0ZoaGBsqSB
rzCBrDELMAkGA1UEBhMCVVMxCzAJBgNVBAgTAk9IMREwDwYDVQQHEwhDb2x1bWJ1
czESMBAGA1UEChMJVmlraW5nVlBOMR0wGwYDVQQLExRNeU9yZ2FuaXphdGlvbmFs
VW5pdDEVMBMGA1UEAxMMVmlraW5nVlBOIENBMRAwDgYDVQQpEwdFYXN5UlNBMSEw
HwYJKoZIhvcNAQkBFhJtZUBteWhvc3QubXlkb21haW6CCQDPNYXugL8qPjATBgNV
HSUEDDAKBggrBgEFBQcDAjALBgNVHQ8EBAMCB4AwDQYJKoZIhvcNAQEEBQADggIB
AC9dO0/PHGf4FewIOsiqyAJoFjo+rLWxGjQe58J+83BbJkXswaArAxBaaxCfjvuK
OEKNoyypgq4LMqT6NnZc9yF4posceF8W3bQeMR8S3/TGHONBB+KObvsLxrkAJsdO
5HFtrK+qHLXJgGTZrLPt3YctB/KnC7IuxH9owrz/GFazBjeBtkGvHrS+DIK4zGNe
8okbFcziwlWKuODiix+axTvEor+u8zlvHIfngyNbm20oxNtN5eDueenoYZsqZsNM
n6SAMr5DBQRAz+gPMOD/mUozTEdxJuCIL7SGJm353r6aHnJEAQ8QErJPS05ye2t3
uqV6Ar1v8sVvUeXXA15+5dZYU3d7l12/wmz6BrTAPcDAnow+PybHx0hVeXwopeuB
k4fSlYmfznQC3N5Q4lqDRsJaOz1ZI4+jdbwCoWWrfaJV2FQ4y+3NYnP0aQ88HyW1
vsox3i5bbh6/nNaryG3R681X4+tPoi/wzSKkkHjL7hcVKgNSOpTUGYiRuqKT79hH
XqEKRYYewv+nNYK3uW9YRyaUQGfU+ASly8u4tKxrL5yCh/CwmcE7RoU8nTgojkpq
cz6K+TV1G0oEzAlxcjOTJ93wx2wNjc0W0ae9nCLqrWJy9LFXQ7q7lpvFh1nTu4Yp
/T0KPXwHwU1EEIgpIzriJ6Ym+55RCtQKpsq50kmH9vwS
-----END CERTIFICATE-----
