Certificate:
    Data:
        Version: 3 (0x2)
        Serial Number: 8183 (0x1ff7)
    Signature Algorithm: md5WithRSAEncryption
        Issuer: C=US, ST=OH, L=Columbus, O=VikingVPN, OU=MyOrganizationalUnit, CN=VikingVPN CA/name=EasyRSA/emailAddress=me@myhost.mydomain
        Validity
            Not Before: Jun  5 20:28:18 2016 GMT
            Not After : Jun  3 20:28:18 2026 GMT
        Subject: CN=Client1647Certea89f0
        Subject Public Key Info:
            Public Key Algorithm: rsaEncryption
                Public-Key: (4096 bit)
                Modulus:
                    00:bc:a0:71:37:99:03:79:62:21:21:c5:c8:65:4c:
                    10:47:a5:32:0d:b8:7b:60:94:db:71:77:68:ef:75:
                    84:9c:92:a0:53:22:0a:c1:5e:75:8e:a4:a0:45:75:
                    7d:1b:20:60:a7:0a:f6:30:87:ea:cf:0d:c1:ff:38:
                    90:33:d0:57:47:9b:c7:ed:08:76:3e:27:c5:46:e9:
                    f3:2d:95:19:52:cc:03:c1:2a:e9:5b:38:2c:14:80:
                    d5:a6:2a:87:c9:a0:29:f4:6e:80:5c:a3:81:69:a5:
                    b3:2b:76:0e:99:30:c0:4e:38:99:9a:a2:4e:66:8d:
                    49:23:1e:79:a0:3c:5b:f9:53:03:61:86:c0:94:6e:
                    c9:0d:83:2e:b8:21:30:fd:03:64:e7:fc:ba:51:64:
                    1d:6c:b4:8d:b8:55:08:61:68:9e:86:3c:44:df:dd:
                    44:e1:0f:e2:3c:3e:a5:f2:c8:01:e9:70:ed:0b:66:
                    60:fd:79:bb:80:0b:25:4e:41:41:45:e0:3b:b0:98:
                    60:ac:4e:68:3b:69:2f:ad:75:18:21:7b:ed:95:ab:
                    37:48:50:af:d1:0a:44:8e:69:7c:c6:96:a4:f3:1d:
                    45:b7:e0:e9:30:74:12:90:1f:b8:36:91:f2:95:a2:
                    4d:58:23:04:fb:86:0e:5c:91:76:c1:19:99:9f:35:
                    6a:4d:16:b5:62:c7:19:5b:8b:7d:d3:38:34:25:89:
                    8a:8f:29:d9:79:05:42:2b:55:b9:2b:5b:d8:4b:b0:
                    31:84:c3:ad:bc:39:63:36:a9:ca:7c:8a:40:a2:63:
                    fa:92:b1:03:e3:83:d3:79:ed:6c:a4:e4:a2:38:8f:
                    7d:05:a4:3b:6a:3c:19:e2:e8:5c:9f:9a:c5:0b:48:
                    01:2b:b8:f6:b0:21:ea:25:7a:91:89:14:0c:55:0f:
                    45:f8:be:ad:e7:3f:40:94:87:d5:bd:cc:84:f2:4f:
                    84:60:d0:76:c3:20:76:28:ba:20:8d:9e:2b:a6:ee:
                    6a:54:11:88:33:88:1c:d9:b7:24:95:a9:66:60:ef:
                    af:fa:62:03:ec:f8:f5:bf:39:e0:30:ad:74:fd:51:
                    46:2b:77:61:52:96:c3:1d:9e:11:57:bc:f3:a1:60:
                    db:17:86:3f:2b:2a:e3:7a:77:89:bc:25:d4:34:96:
                    9a:be:a0:b7:20:aa:e9:5c:58:bf:3f:72:dc:ed:07:
                    15:f9:02:46:83:95:42:64:82:60:7b:db:7b:78:c7:
                    23:38:2f:1e:2a:e5:8f:b5:d8:f6:31:60:60:0c:c2:
                    41:2e:3b:8b:56:2b:3c:7f:31:9d:97:f1:d4:b5:48:
                    ba:49:ea:74:e8:b5:66:7a:31:aa:79:bc:1e:3b:a6:
                    7a:0d:a7
                Exponent: 65537 (0x10001)
        X509v3 extensions:
            X509v3 Basic Constraints: 
                CA:FALSE
            Netscape Comment: 
                Easy-RSA Generated Certificate
            X509v3 Subject Key Identifier: 
                08:FE:16:20:72:9F:EA:A6:09:0B:AC:98:38:86:BC:8E:85:04:4F:F8
            X509v3 Authority Key Identifier: 
                keyid:12:CD:60:04:D2:A0:80:9E:70:ED:C6:99:B8:7B:2C:C6:52:FD:19:A1
                DirName:/C=US/ST=OH/L=Columbus/O=VikingVPN/OU=MyOrganizationalUnit/CN=VikingVPN CA/name=EasyRSA/emailAddress=me@myhost.mydomain
                serial:CF:35:85:EE:80:BF:2A:3E

            X509v3 Extended Key Usage: 
                TLS Web Client Authentication
            X509v3 Key Usage: 
                Digital Signature
    Signature Algorithm: md5WithRSAEncryption
         3e:a0:80:a3:4b:90:3f:b6:aa:77:4e:58:e1:82:dc:15:b0:19:
         37:63:b8:16:59:97:e7:85:e4:df:7f:1c:3b:b9:dd:c5:ac:e8:
         5c:fe:8d:88:0e:20:bd:03:0a:37:f1:14:90:e6:10:2e:e0:18:
         da:9e:cf:a0:c5:6e:18:02:93:5f:7a:26:08:21:cf:76:70:8f:
         4f:d2:9d:bb:87:be:17:eb:9a:1f:c6:3d:7d:5f:8c:82:23:90:
         f2:2b:3a:f5:45:78:c2:98:8b:1f:88:07:fd:7e:c5:5c:3f:99:
         77:90:41:03:31:e7:a8:bd:99:63:3a:90:15:b7:3b:60:0c:f0:
         aa:fb:34:f2:f0:b5:ae:82:bd:bd:c4:c5:c9:97:9a:65:70:de:
         2a:f5:77:f1:94:0f:34:28:37:47:45:84:36:7e:65:87:3c:76:
         5b:0a:a8:35:cc:b5:93:b9:68:e5:d3:6c:56:d9:61:60:ca:fb:
         3c:5b:b4:60:d0:88:cd:a5:00:9e:e2:2a:ef:38:c3:24:99:c1:
         ce:6a:28:09:27:a2:7c:04:d6:0f:fd:40:00:14:7e:bf:55:c0:
         54:56:3e:7b:57:85:f7:05:d0:35:f0:c7:5e:68:36:d8:18:56:
         6c:09:d2:3a:fd:de:6a:f2:0b:8f:0c:a2:6c:3b:60:a7:4c:7a:
         b7:e6:62:33:95:0e:6a:62:ca:e3:3e:12:b1:fe:1d:54:6d:22:
         20:2d:ca:98:ca:35:bb:05:d0:58:0a:72:b9:94:72:77:6d:ea:
         35:79:76:68:02:9b:b5:54:24:57:52:c8:9d:01:5d:84:0a:a8:
         2f:d5:d1:72:c5:8d:0a:fa:4a:f9:e9:df:60:55:c4:13:8d:a6:
         85:0a:3e:31:37:1d:58:26:2a:2f:4c:fb:c7:91:2d:90:70:ec:
         5d:db:52:f8:24:96:83:4b:d3:b4:a0:29:7b:16:dc:3c:1d:36:
         9d:08:66:f2:f9:1e:0e:bd:1d:c9:50:8f:dc:70:92:72:39:3e:
         e7:1c:f0:2f:61:a0:fa:62:79:f1:3e:a9:f1:8d:6d:33:ab:3e:
         5a:a1:e3:30:da:d0:ee:f8:9d:2e:55:8f:0a:d3:5d:3b:23:05:
         9d:5a:68:d6:91:f2:fb:66:e8:f2:bb:79:e9:dd:32:b0:06:a4:
         98:25:a0:e1:b6:f9:b2:59:b0:80:d5:a8:3d:38:39:14:8d:ed:
         32:0c:0d:09:16:c5:d4:ad:e8:08:35:07:18:67:68:d2:dc:58:
         e9:35:6b:ab:d3:43:b1:05:05:1d:ad:47:9e:95:e5:2d:37:a2:
         27:aa:3f:3a:1d:74:50:ee:70:69:30:35:d1:68:b4:36:83:6a:
         59:45:66:28:54:1a:04:b3
-----BEGIN CERTIFICATE-----
MIIGrTCCBJWgAwIBAgICH/cwDQYJKoZIhvcNAQEEBQAwgawxCzAJBgNVBAYTAlVT
MQswCQYDVQQIEwJPSDERMA8GA1UEBxMIQ29sdW1idXMxEjAQBgNVBAoTCVZpa2lu
Z1ZQTjEdMBsGA1UECxMUTXlPcmdhbml6YXRpb25hbFVuaXQxFTATBgNVBAMTDFZp
a2luZ1ZQTiBDQTEQMA4GA1UEKRMHRWFzeVJTQTEhMB8GCSqGSIb3DQEJARYSbWVA
bXlob3N0Lm15ZG9tYWluMB4XDTE2MDYwNTIwMjgxOFoXDTI2MDYwMzIwMjgxOFow
HzEdMBsGA1UEAxMUQ2xpZW50MTY0N0NlcnRlYTg5ZjAwggIiMA0GCSqGSIb3DQEB
AQUAA4ICDwAwggIKAoICAQC8oHE3mQN5YiEhxchlTBBHpTINuHtglNtxd2jvdYSc
kqBTIgrBXnWOpKBFdX0bIGCnCvYwh+rPDcH/OJAz0FdHm8ftCHY+J8VG6fMtlRlS
zAPBKulbOCwUgNWmKofJoCn0boBco4FppbMrdg6ZMMBOOJmaok5mjUkjHnmgPFv5
UwNhhsCUbskNgy64ITD9A2Tn/LpRZB1stI24VQhhaJ6GPETf3UThD+I8PqXyyAHp
cO0LZmD9ebuACyVOQUFF4DuwmGCsTmg7aS+tdRghe+2VqzdIUK/RCkSOaXzGlqTz
HUW34OkwdBKQH7g2kfKVok1YIwT7hg5ckXbBGZmfNWpNFrVixxlbi33TODQliYqP
Kdl5BUIrVbkrW9hLsDGEw628OWM2qcp8ikCiY/qSsQPjg9N57Wyk5KI4j30FpDtq
PBni6FyfmsULSAEruPawIeolepGJFAxVD0X4vq3nP0CUh9W9zITyT4Rg0HbDIHYo
uiCNnium7mpUEYgziBzZtySVqWZg76/6YgPs+PW/OeAwrXT9UUYrd2FSlsMdnhFX
vPOhYNsXhj8rKuN6d4m8JdQ0lpq+oLcgqulcWL8/ctztBxX5AkaDlUJkgmB723t4
xyM4Lx4q5Y+12PYxYGAMwkEuO4tWKzx/MZ2X8dS1SLpJ6nTotWZ6Map5vB47pnoN
pwIDAQABo4IBYzCCAV8wCQYDVR0TBAIwADAtBglghkgBhvhCAQ0EIBYeRWFzeS1S
U0EgR2VuZXJhdGVkIENlcnRpZmljYXRlMB0GA1UdDgQWBBQI/hYgcp/qpgkLrJg4
hryOhQRP+DCB4QYDVR0jBIHZMIHWgBQSzWAE0qCAnnDtxpm4eyzGUv0ZoaGBsqSB
rzCBrDELMAkGA1UEBhMCVVMxCzAJBgNVBAgTAk9IMREwDwYDVQQHEwhDb2x1bWJ1
czESMBAGA1UEChMJVmlraW5nVlBOMR0wGwYDVQQLExRNeU9yZ2FuaXphdGlvbmFs
VW5pdDEVMBMGA1UEAxMMVmlraW5nVlBOIENBMRAwDgYDVQQpEwdFYXN5UlNBMSEw
HwYJKoZIhvcNAQkBFhJtZUBteWhvc3QubXlkb21haW6CCQDPNYXugL8qPjATBgNV
HSUEDDAKBggrBgEFBQcDAjALBgNVHQ8EBAMCB4AwDQYJKoZIhvcNAQEEBQADggIB
AD6ggKNLkD+2qndOWOGC3BWwGTdjuBZZl+eF5N9/HDu53cWs6Fz+jYgOIL0DCjfx
FJDmEC7gGNqez6DFbhgCk196Jgghz3Zwj0/SnbuHvhfrmh/GPX1fjIIjkPIrOvVF
eMKYix+IB/1+xVw/mXeQQQMx56i9mWM6kBW3O2AM8Kr7NPLwta6Cvb3ExcmXmmVw
3ir1d/GUDzQoN0dFhDZ+ZYc8dlsKqDXMtZO5aOXTbFbZYWDK+zxbtGDQiM2lAJ7i
Ku84wySZwc5qKAknonwE1g/9QAAUfr9VwFRWPntXhfcF0DXwx15oNtgYVmwJ0jr9
3mryC48Momw7YKdMerfmYjOVDmpiyuM+ErH+HVRtIiAtypjKNbsF0FgKcrmUcndt
6jV5dmgCm7VUJFdSyJ0BXYQKqC/V0XLFjQr6Svnp32BVxBONpoUKPjE3HVgmKi9M
+8eRLZBw7F3bUvgkloNL07SgKXsW3DwdNp0IZvL5Hg69HclQj9xwknI5Pucc8C9h
oPpiefE+qfGNbTOrPlqh4zDa0O74nS5VjwrTXTsjBZ1aaNaR8vtm6PK7eendMrAG
pJgloOG2+bJZsIDVqD04ORSN7TIMDQkWxdSt6Ag1BxhnaNLcWOk1a6vTQ7EFBR2t
R56V5S03oieqPzoddFDucGkwNdFotDaDallFZihUGgSz
-----END CERTIFICATE-----
