Certificate:
    Data:
        Version: 3 (0x2)
        Serial Number: 1286 (0x506)
    Signature Algorithm: md5WithRSAEncryption
        Issuer: C=US, ST=OH, L=Columbus, O=VikingVPN, OU=MyOrganizationalUnit, CN=VikingVPN CA/name=EasyRSA/emailAddress=me@myhost.mydomain
        Validity
            Not Before: Mar 13 04:26:57 2014 GMT
            Not After : Mar 10 04:26:57 2024 GMT
        Subject: CN=Client476Cert9b568f
        Subject Public Key Info:
            Public Key Algorithm: rsaEncryption
                Public-Key: (4096 bit)
                Modulus:
                    00:ef:46:ef:83:ba:c8:a2:f7:e2:c9:d6:f6:2c:73:
                    24:f5:2d:80:9d:5e:a6:4b:02:07:56:85:a9:cc:f4:
                    05:c0:1d:a3:ce:96:61:f0:6a:b9:2f:cb:d2:28:2d:
                    65:88:95:e2:40:ea:ae:ca:2f:ee:48:6a:7c:8f:05:
                    2f:00:f3:12:b8:ce:f8:c5:f7:9d:51:22:1a:01:9c:
                    bf:79:c1:c1:0e:22:2d:fd:bc:bf:8d:3c:f0:36:6c:
                    ab:54:c7:6e:71:9e:56:53:57:24:31:88:d2:94:ca:
                    aa:02:67:e8:d6:bd:72:ed:23:4b:7e:4b:4f:4c:3c:
                    67:68:10:b9:f3:5d:0c:5d:73:b4:ea:92:b3:1a:c5:
                    b2:4c:12:39:70:cc:54:28:ec:18:1b:21:24:18:8f:
                    6d:2b:a9:90:1d:cd:85:21:5b:2d:9e:15:fc:d5:ad:
                    f5:69:56:4b:3b:fa:21:ba:56:4d:93:31:f2:9a:fb:
                    38:24:58:39:b0:45:c4:e3:f9:61:e4:f5:63:19:be:
                    e5:18:bc:b8:2f:26:70:e6:6c:81:cb:3c:47:0f:54:
                    e8:ff:ef:f9:b5:10:1b:fa:db:cd:be:64:ca:a4:d2:
                    00:c6:79:94:06:29:9c:1b:bf:18:9a:df:41:e4:d1:
                    01:18:72:cd:43:a8:d8:b5:d6:ab:c0:ac:e4:91:6b:
                    aa:25:1d:3c:6d:8f:69:0c:ef:f0:e9:75:0f:64:19:
                    4e:15:53:87:21:03:d4:c7:ec:10:d6:50:6f:e7:48:
                    0b:da:50:5f:0b:ed:a9:c8:07:09:71:47:28:ef:3b:
                    bc:29:d6:4d:62:de:d9:3a:34:92:29:cc:c6:84:4c:
                    99:56:a0:28:10:bc:65:62:2c:d5:ef:87:8a:07:01:
                    5d:3a:af:8f:58:9e:22:e3:ec:38:16:42:6f:e9:bd:
                    ca:b6:2e:43:b9:82:4c:b6:c2:03:40:4c:7e:6c:5a:
                    8f:3f:c0:c7:99:d7:01:91:3e:b4:6a:08:2e:9d:48:
                    68:c3:3a:aa:2a:3e:bf:eb:ac:8b:d2:35:02:f6:e7:
                    d2:dc:74:68:79:d9:a1:a3:ec:58:5d:a5:dc:ff:97:
                    a1:1f:d6:f7:dd:05:0d:63:ae:2f:93:09:e9:46:c2:
                    bc:26:44:b7:21:f4:a8:c6:d5:75:f7:94:93:2b:59:
                    17:77:f8:7e:03:41:f1:50:5e:86:15:9d:1a:6f:d9:
                    25:24:96:d7:1e:c1:5e:ae:02:68:96:18:9a:b1:73:
                    68:dc:dc:08:5b:df:bf:73:3e:0b:52:36:ce:50:f0:
                    81:de:64:11:1f:2a:5f:4f:2d:01:d4:a4:3a:5b:15:
                    ff:f8:5a:2b:c5:4b:1a:a0:a1:06:6e:ff:9b:a4:fb:
                    68:63:79
                Exponent: 65537 (0x10001)
        X509v3 extensions:
            X509v3 Basic Constraints: 
                CA:FALSE
            Netscape Comment: 
                Easy-RSA Generated Certificate
            X509v3 Subject Key Identifier: 
                C2:1D:1E:CF:D3:75:85:0E:F9:36:61:AB:4A:70:46:6D:60:B0:2E:86
            X509v3 Authority Key Identifier: 
                keyid:12:CD:60:04:D2:A0:80:9E:70:ED:C6:99:B8:7B:2C:C6:52:FD:19:A1
                DirName:/C=US/ST=OH/L=Columbus/O=VikingVPN/OU=MyOrganizationalUnit/CN=VikingVPN CA/name=EasyRSA/emailAddress=me@myhost.mydomain
                serial:CF:35:85:EE:80:BF:2A:3E

            X509v3 Extended Key Usage: 
                TLS Web Client Authentication
            X509v3 Key Usage: 
                Digital Signature
    Signature Algorithm: md5WithRSAEncryption
         8c:01:99:89:27:64:75:17:b8:00:47:8d:51:8f:a7:ec:3a:ca:
         b1:bf:81:3b:1c:c9:2a:02:ee:26:66:83:da:3b:5a:88:44:67:
         05:11:71:9a:9b:c9:da:5d:38:e8:2e:5c:2b:1b:b8:e4:98:a2:
         ae:9b:a3:e8:83:62:80:3d:0b:d3:e4:9e:9e:71:51:f9:1f:c1:
         2b:e7:10:4d:da:27:fc:87:3b:85:de:50:12:b4:dc:22:37:a5:
         e6:9e:33:2f:92:97:60:af:59:f2:9d:a2:19:f7:85:df:51:a4:
         94:6c:14:42:9d:07:e2:4b:63:91:73:a7:8e:f9:3b:6b:0d:a3:
         f4:f5:d3:7f:4e:6b:0e:5b:47:b0:24:fb:00:2d:89:3c:c7:6f:
         da:7c:80:cb:f1:f9:c5:ec:43:6d:a7:c3:51:71:6a:0a:f1:df:
         a1:35:a9:68:5e:31:55:e3:fe:00:63:fc:52:6e:49:c2:29:9b:
         0b:0c:13:1e:49:1f:d9:09:85:d4:5d:fc:f7:c9:08:19:1c:4b:
         03:e2:9a:66:f9:bb:4b:2c:56:9a:bc:bb:24:71:94:9d:d6:26:
         5d:61:6b:c3:59:fc:20:a5:5b:be:65:3d:df:f3:ba:fc:d4:4a:
         5e:f5:a3:06:a2:87:1e:25:6e:ce:e3:13:42:87:17:c6:32:be:
         84:39:6c:36:87:9f:38:d7:89:c6:da:32:b4:d3:c4:ff:26:1a:
         e2:fb:4c:22:47:13:dd:87:d9:52:78:2a:71:2e:3f:36:34:87:
         7b:6f:63:0f:50:a6:b3:ca:35:51:17:3b:ae:2b:56:b2:31:d0:
         81:a5:11:d3:69:6b:3b:7c:ca:36:65:d4:c8:45:fb:ae:86:86:
         8b:2c:55:d3:e4:97:cb:e2:19:c8:12:48:47:0f:ae:dd:66:d7:
         89:cf:43:c2:71:69:10:ab:6f:d2:cb:05:43:fe:c5:63:0d:ec:
         ee:36:ec:d4:7d:87:30:1d:3d:09:1a:13:5c:29:33:c3:63:e7:
         6c:11:41:fd:22:3a:af:a6:a1:b0:55:9a:7d:73:47:fb:db:33:
         c1:59:a6:78:92:70:96:6a:d5:c4:30:69:1c:c3:2d:6f:59:9f:
         4f:64:b6:71:03:fb:87:47:31:7b:e7:67:37:43:fd:08:f6:d5:
         18:1a:d6:07:e7:89:bf:29:10:2b:c4:ad:9f:ad:62:fe:48:7d:
         ba:8a:2f:b1:55:e5:53:24:cd:29:30:f1:3a:61:ca:c9:cb:0f:
         81:8d:f8:1f:a3:ff:a1:fc:0a:4c:e0:f6:b7:4b:35:28:ad:87:
         0f:e7:6b:18:83:df:dc:aa:d9:dc:59:a5:f7:16:e6:b3:0c:44:
         c5:3c:fd:22:dd:90:6b:50
-----BEGIN CERTIFICATE-----
MIIGrDCCBJSgAwIBAgICBQYwDQYJKoZIhvcNAQEEBQAwgawxCzAJBgNVBAYTAlVT
MQswCQYDVQQIEwJPSDERMA8GA1UEBxMIQ29sdW1idXMxEjAQBgNVBAoTCVZpa2lu
Z1ZQTjEdMBsGA1UECxMUTXlPcmdhbml6YXRpb25hbFVuaXQxFTATBgNVBAMTDFZp
a2luZ1ZQTiBDQTEQMA4GA1UEKRMHRWFzeVJTQTEhMB8GCSqGSIb3DQEJARYSbWVA
bXlob3N0Lm15ZG9tYWluMB4XDTE0MDMxMzA0MjY1N1oXDTI0MDMxMDA0MjY1N1ow
HjEcMBoGA1UEAxMTQ2xpZW50NDc2Q2VydDliNTY4ZjCCAiIwDQYJKoZIhvcNAQEB
BQADggIPADCCAgoCggIBAO9G74O6yKL34snW9ixzJPUtgJ1epksCB1aFqcz0BcAd
o86WYfBquS/L0igtZYiV4kDqrsov7khqfI8FLwDzErjO+MX3nVEiGgGcv3nBwQ4i
Lf28v4088DZsq1THbnGeVlNXJDGI0pTKqgJn6Na9cu0jS35LT0w8Z2gQufNdDF1z
tOqSsxrFskwSOXDMVCjsGBshJBiPbSupkB3NhSFbLZ4V/NWt9WlWSzv6IbpWTZMx
8pr7OCRYObBFxOP5YeT1Yxm+5Ri8uC8mcOZsgcs8Rw9U6P/v+bUQG/rbzb5kyqTS
AMZ5lAYpnBu/GJrfQeTRARhyzUOo2LXWq8Cs5JFrqiUdPG2PaQzv8Ol1D2QZThVT
hyED1MfsENZQb+dIC9pQXwvtqcgHCXFHKO87vCnWTWLe2To0kinMxoRMmVagKBC8
ZWIs1e+HigcBXTqvj1ieIuPsOBZCb+m9yrYuQ7mCTLbCA0BMfmxajz/Ax5nXAZE+
tGoILp1IaMM6qio+v+usi9I1Avbn0tx0aHnZoaPsWF2l3P+XoR/W990FDWOuL5MJ
6UbCvCZEtyH0qMbVdfeUkytZF3f4fgNB8VBehhWdGm/ZJSSW1x7BXq4CaJYYmrFz
aNzcCFvfv3M+C1I2zlDwgd5kER8qX08tAdSkOlsV//haK8VLGqChBm7/m6T7aGN5
AgMBAAGjggFjMIIBXzAJBgNVHRMEAjAAMC0GCWCGSAGG+EIBDQQgFh5FYXN5LVJT
QSBHZW5lcmF0ZWQgQ2VydGlmaWNhdGUwHQYDVR0OBBYEFMIdHs/TdYUO+TZhq0pw
Rm1gsC6GMIHhBgNVHSMEgdkwgdaAFBLNYATSoICecO3Gmbh7LMZS/RmhoYGypIGv
MIGsMQswCQYDVQQGEwJVUzELMAkGA1UECBMCT0gxETAPBgNVBAcTCENvbHVtYnVz
MRIwEAYDVQQKEwlWaWtpbmdWUE4xHTAbBgNVBAsTFE15T3JnYW5pemF0aW9uYWxV
bml0MRUwEwYDVQQDEwxWaWtpbmdWUE4gQ0ExEDAOBgNVBCkTB0Vhc3lSU0ExITAf
BgkqhkiG9w0BCQEWEm1lQG15aG9zdC5teWRvbWFpboIJAM81he6Avyo+MBMGA1Ud
JQQMMAoGCCsGAQUFBwMCMAsGA1UdDwQEAwIHgDANBgkqhkiG9w0BAQQFAAOCAgEA
jAGZiSdkdRe4AEeNUY+n7DrKsb+BOxzJKgLuJmaD2jtaiERnBRFxmpvJ2l046C5c
Kxu45Jiirpuj6INigD0L0+SennFR+R/BK+cQTdon/Ic7hd5QErTcIjel5p4zL5KX
YK9Z8p2iGfeF31GklGwUQp0H4ktjkXOnjvk7aw2j9PXTf05rDltHsCT7AC2JPMdv
2nyAy/H5xexDbafDUXFqCvHfoTWpaF4xVeP+AGP8Um5JwimbCwwTHkkf2QmF1F38
98kIGRxLA+KaZvm7SyxWmry7JHGUndYmXWFrw1n8IKVbvmU93/O6/NRKXvWjBqKH
HiVuzuMTQocXxjK+hDlsNoefONeJxtoytNPE/yYa4vtMIkcT3YfZUngqcS4/NjSH
e29jD1Cms8o1URc7ritWsjHQgaUR02lrO3zKNmXUyEX7roaGiyxV0+SXy+IZyBJI
Rw+u3WbXic9DwnFpEKtv0ssFQ/7FYw3s7jbs1H2HMB09CRoTXCkzw2PnbBFB/SI6
r6ahsFWafXNH+9szwVmmeJJwlmrVxDBpHMMtb1mfT2S2cQP7h0cxe+dnN0P9CPbV
GBrWB+eJvykQK8Stn61i/kh9uoovsVXlUyTNKTDxOmHKycsPgY34H6P/ofwKTOD2
t0s1KK2HD+drGIPf3KrZ3Fml9xbmswxExTz9It2Qa1A=
-----END CERTIFICATE-----
