Certificate:
    Data:
        Version: 3 (0x2)
        Serial Number: 3782 (0xec6)
    Signature Algorithm: md5WithRSAEncryption
        Issuer: C=US, ST=OH, L=Columbus, O=VikingVPN, OU=MyOrganizationalUnit, CN=VikingVPN CA/name=EasyRSA/emailAddress=me@myhost.mydomain
        Validity
            Not Before: Dec 26 09:39:30 2014 GMT
            Not After : Dec 23 09:39:30 2024 GMT
        Subject: CN=Client1299Certc404b0
        Subject Public Key Info:
            Public Key Algorithm: rsaEncryption
                Public-Key: (4096 bit)
                Modulus:
                    00:af:07:1d:98:c2:22:29:28:fa:2a:48:21:a4:8f:
                    a0:93:80:7d:15:a5:1f:45:af:f2:c8:6e:c8:7d:d6:
                    08:f1:34:f4:ec:d7:ab:d4:fc:0b:7c:02:e8:4d:09:
                    e2:e2:73:44:88:e4:75:20:9c:88:36:a2:50:f2:99:
                    40:17:f9:14:19:62:6f:e1:e5:64:3f:3c:93:44:47:
                    59:6e:b7:8c:8b:7d:a2:91:9c:de:36:11:8c:e8:ee:
                    14:f1:e2:c1:04:84:b3:d9:54:49:5c:c5:63:ff:96:
                    11:1f:c2:49:19:de:ec:a7:40:91:70:1a:c4:2e:6d:
                    69:db:22:e2:6c:78:91:a4:c3:f2:0a:0b:4b:d5:4e:
                    49:88:da:40:d7:e3:a7:bb:1f:7e:d8:3a:55:40:3b:
                    54:0b:81:75:3b:fd:5d:a4:14:e1:95:93:96:09:e5:
                    c3:90:77:e5:27:b7:28:11:50:09:09:f5:ec:af:15:
                    c8:8f:8d:7b:f1:b0:b7:4d:58:a9:7e:01:20:ad:84:
                    e1:b4:b5:e1:8a:7d:bf:ee:7d:d3:f0:ac:67:b1:a0:
                    cc:f8:79:fc:41:48:85:d2:fa:67:f4:63:65:7a:59:
                    9a:9f:fd:22:38:b9:4f:dd:04:a5:79:06:ed:b5:b2:
                    11:23:51:a2:1a:ae:30:31:e6:6c:db:53:70:b2:53:
                    16:a1:f8:d0:63:e8:cd:26:c6:c2:fa:ed:f7:f0:29:
                    ef:57:26:4d:14:04:f2:2a:f7:5c:dd:73:11:8b:c4:
                    78:b2:7f:f6:e5:1a:54:e4:05:62:6a:da:2b:b8:bd:
                    51:b4:90:21:0a:09:44:59:8f:9d:46:a6:8b:8f:5c:
                    cc:cb:da:50:b0:80:b8:02:d1:1d:0e:6c:be:b8:e4:
                    a8:7b:75:fe:86:f4:b5:28:b2:14:68:52:c1:0f:c3:
                    ef:7e:83:b8:c0:eb:d5:fb:0f:c3:1a:bf:c5:f3:f4:
                    29:c6:40:85:a7:ab:5b:8c:47:91:9e:25:64:62:a4:
                    e5:5a:74:05:97:99:e1:62:55:dc:e4:a7:a6:fb:a2:
                    c9:13:34:c3:46:b7:16:59:9e:0b:c6:2c:d4:dc:0b:
                    30:61:49:3f:65:a3:1e:15:0f:04:1c:21:95:a8:a0:
                    53:a6:5c:48:3f:ce:b7:65:fc:fc:a1:61:30:1b:b4:
                    4f:cf:a7:a1:59:7b:64:73:96:31:bf:a4:11:15:ca:
                    f1:b9:53:5f:56:c2:06:eb:8f:b5:aa:f4:b8:8d:37:
                    ae:e0:f7:a2:a5:12:d2:8b:2f:0e:f3:85:66:a2:65:
                    75:da:a8:e7:11:79:30:28:a1:b8:5e:dd:82:d8:dd:
                    5b:03:36:49:76:02:15:64:2a:7f:7f:d1:c8:b7:ef:
                    2d:91:39
                Exponent: 65537 (0x10001)
        X509v3 extensions:
            X509v3 Basic Constraints: 
                CA:FALSE
            Netscape Comment: 
                Easy-RSA Generated Certificate
            X509v3 Subject Key Identifier: 
                AF:AC:5B:4B:41:FC:A0:44:A4:20:B3:6E:93:4C:E7:E6:CA:23:DC:03
            X509v3 Authority Key Identifier: 
                keyid:12:CD:60:04:D2:A0:80:9E:70:ED:C6:99:B8:7B:2C:C6:52:FD:19:A1
                DirName:/C=US/ST=OH/L=Columbus/O=VikingVPN/OU=MyOrganizationalUnit/CN=VikingVPN CA/name=EasyRSA/emailAddress=me@myhost.mydomain
                serial:CF:35:85:EE:80:BF:2A:3E

            X509v3 Extended Key Usage: 
                TLS Web Client Authentication
            X509v3 Key Usage: 
                Digital Signature
    Signature Algorithm: md5WithRSAEncryption
         0d:a1:fa:79:7e:9a:dd:57:64:86:e2:a2:90:94:2e:e2:43:21:
         87:a5:09:79:86:c8:52:08:6c:19:1c:22:d0:c7:c5:4c:95:e5:
         f7:b7:8f:e0:45:ec:71:b1:3c:05:ed:ae:2e:24:0b:96:77:5a:
         de:e2:cf:25:4c:6a:3e:6a:6f:fd:91:38:a3:1d:c9:8e:58:09:
         61:84:48:9b:01:d2:2f:5f:e3:ee:1a:58:18:24:b7:df:46:36:
         74:a3:83:56:0a:35:08:d7:c3:1a:0e:de:7f:82:58:7c:1e:1c:
         01:99:16:93:8a:68:4a:06:43:3d:5e:ea:da:2d:9f:d3:48:9d:
         2c:da:6f:57:2b:67:c0:5b:49:ef:d3:23:51:0e:9d:aa:4b:3a:
         b0:d4:fe:aa:be:25:d5:69:b9:15:28:31:5f:74:a4:21:c2:c8:
         7b:8a:4f:64:51:7e:fa:9d:05:2b:68:22:c0:c8:10:33:58:0f:
         c3:58:d9:4a:2a:52:10:72:d6:e4:d6:18:0d:46:eb:75:3d:8a:
         a9:35:bc:74:95:5e:c8:78:7b:fd:c1:18:4d:96:4a:3f:f9:09:
         e0:04:65:3b:2d:22:31:de:29:2e:77:ca:4d:3f:42:ab:64:c0:
         72:eb:74:26:8c:86:fd:86:e0:d2:d4:58:7d:78:d6:3e:8f:29:
         b9:83:91:21:19:2f:f3:d9:96:55:7e:6a:a5:87:69:08:ce:a5:
         a8:0d:9b:d1:92:f8:10:3c:c5:f0:2e:89:f7:e6:ad:42:ad:54:
         6f:6b:e5:e2:97:30:b7:91:58:ec:d3:65:78:a9:18:24:eb:dd:
         04:8d:53:fd:d8:4d:d9:06:64:bc:1d:6c:ac:d9:c7:e2:3d:83:
         86:9f:ba:79:78:3c:4c:2c:71:76:2e:5a:42:b7:30:a5:c1:44:
         ba:a4:95:ee:6f:cf:cc:e2:0c:d4:c8:c6:53:e4:0c:31:1d:8f:
         7a:6a:ee:1d:3a:c5:0e:2c:9d:93:f8:6f:7f:d0:85:8f:c5:1b:
         ce:d6:3e:92:db:76:21:14:64:88:35:b4:f0:22:47:43:ad:46:
         bf:1b:de:ab:98:55:fa:bf:16:6a:ae:47:a2:ff:17:c0:ba:74:
         b1:b9:b0:29:02:86:78:ea:61:d2:b0:37:00:09:ea:da:eb:6e:
         6c:aa:b4:f1:3a:90:7a:9c:e3:8a:ed:27:fa:3f:8e:b3:41:74:
         50:96:a7:30:71:88:16:66:1f:ca:20:53:4e:dc:dd:e0:6b:bd:
         cb:7d:e7:2f:24:e6:a5:15:c7:7f:92:76:7c:7a:46:f1:d3:c7:
         29:2a:64:2a:b6:33:4e:09:3e:57:77:85:ea:a2:da:56:d6:ee:
         ea:29:69:89:83:43:5a:fb
-----BEGIN CERTIFICATE-----
MIIGrTCCBJWgAwIBAgICDsYwDQYJKoZIhvcNAQEEBQAwgawxCzAJBgNVBAYTAlVT
MQswCQYDVQQIEwJPSDERMA8GA1UEBxMIQ29sdW1idXMxEjAQBgNVBAoTCVZpa2lu
Z1ZQTjEdMBsGA1UECxMUTXlPcmdhbml6YXRpb25hbFVuaXQxFTATBgNVBAMTDFZp
a2luZ1ZQTiBDQTEQMA4GA1UEKRMHRWFzeVJTQTEhMB8GCSqGSIb3DQEJARYSbWVA
bXlob3N0Lm15ZG9tYWluMB4XDTE0MTIyNjA5MzkzMFoXDTI0MTIyMzA5MzkzMFow
HzEdMBsGA1UEAxMUQ2xpZW50MTI5OUNlcnRjNDA0YjAwggIiMA0GCSqGSIb3DQEB
AQUAA4ICDwAwggIKAoICAQCvBx2YwiIpKPoqSCGkj6CTgH0VpR9Fr/LIbsh91gjx
NPTs16vU/At8AuhNCeLic0SI5HUgnIg2olDymUAX+RQZYm/h5WQ/PJNER1lut4yL
faKRnN42EYzo7hTx4sEEhLPZVElcxWP/lhEfwkkZ3uynQJFwGsQubWnbIuJseJGk
w/IKC0vVTkmI2kDX46e7H37YOlVAO1QLgXU7/V2kFOGVk5YJ5cOQd+UntygRUAkJ
9eyvFciPjXvxsLdNWKl+ASCthOG0teGKfb/ufdPwrGexoMz4efxBSIXS+mf0Y2V6
WZqf/SI4uU/dBKV5Bu21shEjUaIarjAx5mzbU3CyUxah+NBj6M0mxsL67ffwKe9X
Jk0UBPIq91zdcxGLxHiyf/blGlTkBWJq2iu4vVG0kCEKCURZj51GpouPXMzL2lCw
gLgC0R0ObL645Kh7df6G9LUoshRoUsEPw+9+g7jA69X7D8Mav8Xz9CnGQIWnq1uM
R5GeJWRipOVadAWXmeFiVdzkp6b7oskTNMNGtxZZngvGLNTcCzBhST9lox4VDwQc
IZWooFOmXEg/zrdl/PyhYTAbtE/Pp6FZe2RzljG/pBEVyvG5U19Wwgbrj7Wq9LiN
N67g96KlEtKLLw7zhWaiZXXaqOcReTAoobhe3YLY3VsDNkl2AhVkKn9/0ci37y2R
OQIDAQABo4IBYzCCAV8wCQYDVR0TBAIwADAtBglghkgBhvhCAQ0EIBYeRWFzeS1S
U0EgR2VuZXJhdGVkIENlcnRpZmljYXRlMB0GA1UdDgQWBBSvrFtLQfygRKQgs26T
TOfmyiPcAzCB4QYDVR0jBIHZMIHWgBQSzWAE0qCAnnDtxpm4eyzGUv0ZoaGBsqSB
rzCBrDELMAkGA1UEBhMCVVMxCzAJBgNVBAgTAk9IMREwDwYDVQQHEwhDb2x1bWJ1
czESMBAGA1UEChMJVmlraW5nVlBOMR0wGwYDVQQLExRNeU9yZ2FuaXphdGlvbmFs
VW5pdDEVMBMGA1UEAxMMVmlraW5nVlBOIENBMRAwDgYDVQQpEwdFYXN5UlNBMSEw
HwYJKoZIhvcNAQkBFhJtZUBteWhvc3QubXlkb21haW6CCQDPNYXugL8qPjATBgNV
HSUEDDAKBggrBgEFBQcDAjALBgNVHQ8EBAMCB4AwDQYJKoZIhvcNAQEEBQADggIB
AA2h+nl+mt1XZIbiopCULuJDIYelCXmGyFIIbBkcItDHxUyV5fe3j+BF7HGxPAXt
ri4kC5Z3Wt7izyVMaj5qb/2ROKMdyY5YCWGESJsB0i9f4+4aWBgkt99GNnSjg1YK
NQjXwxoO3n+CWHweHAGZFpOKaEoGQz1e6totn9NInSzab1crZ8BbSe/TI1EOnapL
OrDU/qq+JdVpuRUoMV90pCHCyHuKT2RRfvqdBStoIsDIEDNYD8NY2UoqUhBy1uTW
GA1G63U9iqk1vHSVXsh4e/3BGE2WSj/5CeAEZTstIjHeKS53yk0/QqtkwHLrdCaM
hv2G4NLUWH141j6PKbmDkSEZL/PZllV+aqWHaQjOpagNm9GS+BA8xfAuiffmrUKt
VG9r5eKXMLeRWOzTZXipGCTr3QSNU/3YTdkGZLwdbKzZx+I9g4afunl4PEwscXYu
WkK3MKXBRLqkle5vz8ziDNTIxlPkDDEdj3pq7h06xQ4snZP4b3/QhY/FG87WPpLb
diEUZIg1tPAiR0OtRr8b3quYVfq/FmquR6L/F8C6dLG5sCkChnjqYdKwNwAJ6trr
bmyqtPE6kHqc44rtJ/o/jrNBdFCWpzBxiBZmH8ogU07c3eBrvct95y8k5qUVx3+S
dnx6RvHTxykqZCq2M04JPld3heqi2lbW7uopaYmDQ1r7
-----END CERTIFICATE-----
