Certificate:
    Data:
        Version: 3 (0x2)
        Serial Number: 9036 (0x234c)
    Signature Algorithm: sha256WithRSAEncryption
        Issuer: C=US, ST=OH, L=Columbus, O=VikingVPN, OU=MyOrganizationalUnit, CN=VikingVPN CA/name=EasyRSA/emailAddress=me@myhost.mydomain
        Validity
            Not Before: Sep 16 08:32:25 2016 GMT
            Not After : Sep 14 08:32:25 2026 GMT
        Subject: CN=Client2216Cert86415e
        Subject Public Key Info:
            Public Key Algorithm: rsaEncryption
                Public-Key: (4096 bit)
                Modulus:
                    00:c5:4a:fa:de:b7:82:04:67:c6:d9:7a:d3:45:f7:
                    9c:20:2b:5d:75:8f:cc:f0:46:97:98:e7:98:d2:7c:
                    74:80:32:8d:9e:2b:8a:b8:b2:59:ae:b4:56:46:33:
                    08:77:c6:bb:7b:be:8e:b8:df:11:14:d3:5b:d3:73:
                    be:37:ad:0d:85:0b:23:82:2a:e1:89:f0:12:64:3c:
                    c8:f1:c4:df:5a:db:ae:8c:e9:f6:c0:4b:65:91:ac:
                    fc:0a:84:1d:c2:4a:53:59:71:c1:2f:78:79:49:81:
                    a6:08:a6:a0:bb:5c:1b:0d:52:cb:31:f6:e4:85:ee:
                    42:80:38:d9:88:9a:95:77:a3:7a:ba:88:8d:e0:ca:
                    2d:03:b4:df:0e:5a:7d:9d:f2:18:16:e4:f4:a2:3c:
                    f8:8d:c2:db:cd:cb:10:f6:67:3f:c1:5a:29:df:ca:
                    d2:02:8b:15:e9:2f:32:ae:65:d8:31:ce:b3:45:d3:
                    fa:b4:36:2e:0d:9f:35:03:6e:68:0c:a0:87:a4:22:
                    f3:9d:05:04:1e:fc:9d:31:c7:f5:43:59:ac:fc:2d:
                    ce:75:3d:1d:68:1f:a4:69:c8:c8:ab:20:9f:77:ef:
                    b2:bf:8a:19:59:4d:eb:c4:9c:13:8e:e2:e7:6d:87:
                    10:a0:fe:55:ac:61:d6:a2:e0:e3:65:3b:b1:12:b2:
                    6b:0f:0c:7a:8f:0c:5c:24:0d:ba:44:00:dd:aa:b1:
                    d6:28:50:82:15:d1:7f:a6:d0:b1:a1:2c:6c:86:5b:
                    c9:58:e4:6a:9a:88:c7:ae:aa:8c:c9:aa:d0:bf:12:
                    36:9f:77:75:2d:28:f9:42:a1:f7:59:67:9e:1a:24:
                    97:40:b3:17:ad:4f:25:e4:cc:60:e3:cf:15:6d:9b:
                    ad:24:19:82:37:5d:fe:e3:e3:f9:07:c4:c0:26:05:
                    1b:ba:f7:fb:6e:55:58:30:8d:45:8e:2d:81:d9:c6:
                    ff:d5:62:c5:72:b2:f2:0d:df:26:14:6a:79:5c:65:
                    96:ec:a7:2b:31:d0:b2:26:bf:b8:06:11:2c:62:2b:
                    2b:8b:73:72:a8:19:bd:b5:03:62:ee:b2:76:eb:2b:
                    47:c4:53:4e:e1:1b:b5:e2:1f:19:71:e2:59:00:06:
                    a9:7d:af:5b:31:0e:85:ca:ca:a0:5d:46:18:6f:7f:
                    9a:47:f6:24:fd:9f:da:22:14:eb:e4:52:ea:74:eb:
                    7a:48:3d:d6:ca:89:c6:1c:0a:4f:34:7a:6d:58:4b:
                    0c:c4:6a:78:cb:dc:b2:a7:61:04:38:21:9e:d1:ec:
                    10:e5:59:b9:d7:3d:c6:ef:43:dc:d5:b5:30:48:eb:
                    5a:77:5d:54:23:76:65:32:fc:da:e6:b3:f3:19:a0:
                    b0:81:2d
                Exponent: 65537 (0x10001)
        X509v3 extensions:
            X509v3 Basic Constraints: 
                CA:FALSE
            Netscape Comment: 
                Easy-RSA Generated Certificate
            X509v3 Subject Key Identifier: 
                03:27:48:01:81:05:19:06:92:D1:6D:A7:4B:95:D7:84:59:18:3C:E4
            X509v3 Authority Key Identifier: 
                keyid:12:CD:60:04:D2:A0:80:9E:70:ED:C6:99:B8:7B:2C:C6:52:FD:19:A1
                DirName:/C=US/ST=OH/L=Columbus/O=VikingVPN/OU=MyOrganizationalUnit/CN=VikingVPN CA/name=EasyRSA/emailAddress=me@myhost.mydomain
                serial:CF:35:85:EE:80:BF:2A:3E

            X509v3 Extended Key Usage: 
                TLS Web Client Authentication
            X509v3 Key Usage: 
                Digital Signature
    Signature Algorithm: sha256WithRSAEncryption
         15:db:81:6d:b9:48:fa:e9:1d:ef:f1:9a:31:a1:0c:1a:89:b8:
         35:11:aa:dd:9c:ea:ea:34:f3:fe:df:ea:eb:c4:71:0f:12:e2:
         8f:82:51:63:1f:4c:6d:fb:88:71:f5:be:9b:c8:60:88:e8:56:
         1f:49:4c:12:f7:8c:5a:f1:8d:e3:99:4a:d9:d9:42:29:b7:a4:
         76:1d:e6:bc:f9:2c:fe:a1:58:ca:06:50:fa:a6:eb:7a:57:e1:
         da:37:ff:2b:53:7b:dc:d6:f7:ca:bf:c5:bd:c4:ba:d1:e4:18:
         32:2c:2a:12:a8:7f:57:f5:d9:ee:ab:a0:89:6a:46:60:5c:dc:
         38:97:4e:d5:76:8c:5e:4f:2d:0c:7d:b3:8c:82:df:bb:61:32:
         3e:da:c5:db:23:17:63:82:55:3d:e8:1d:8d:aa:b0:c3:08:90:
         ee:bd:e5:85:9f:dc:2a:d8:ae:b0:ee:bf:68:38:b8:b9:70:c5:
         f7:c0:0a:c0:1b:29:37:77:ba:59:65:d4:53:29:84:62:84:fc:
         ba:6c:57:c8:fa:05:62:1f:85:b0:b5:b5:11:aa:89:65:cb:0b:
         fd:22:7b:55:19:44:97:53:36:e9:28:06:eb:f2:ec:e0:ce:1d:
         a2:95:dc:b8:6f:98:16:ae:93:8f:a6:b1:2f:38:0d:4a:65:f4:
         a9:88:cf:69:b5:41:c9:85:d4:49:e9:76:ad:50:6e:d7:68:60:
         ff:7f:97:d7:e6:d8:b9:d5:88:f4:b1:5e:a3:cf:c0:f3:6c:47:
         fd:28:f6:12:20:6a:0d:34:47:97:57:8f:35:06:3f:ab:2f:ea:
         50:4e:22:93:89:b8:b9:9e:a6:ac:c4:3c:de:8a:2c:13:ac:3e:
         c5:f6:b0:03:78:c5:4c:6d:cf:d7:b5:85:b3:49:2e:cc:ad:eb:
         2b:bb:2c:7c:0a:19:d1:68:1c:79:78:e4:72:b4:e0:a2:f5:93:
         23:4b:9e:15:e6:84:aa:dd:25:48:23:d3:d9:b8:2b:21:b9:7b:
         93:00:21:dc:e6:5e:72:a5:2f:5f:dd:e0:5f:6e:d5:71:d9:56:
         c5:f4:ca:34:ed:a0:99:37:e6:73:8c:57:24:ed:dc:60:de:df:
         56:92:08:31:f4:35:8b:f3:1e:91:17:93:3f:51:75:5d:84:d0:
         51:4e:5c:77:73:b2:2c:84:20:d7:cd:17:52:32:ab:ff:42:cf:
         e4:cf:00:21:31:b9:01:76:b2:72:f3:84:32:03:8e:a4:aa:af:
         14:63:cc:07:c7:07:2b:4d:0b:1d:ed:42:d2:4d:bb:14:c5:9d:
         2b:fe:41:62:5d:32:ab:4b:94:c6:83:01:0e:3a:30:5d:e5:b2:
         f2:12:71:e1:b7:75:9a:59
-----BEGIN CERTIFICATE-----
MIIGrTCCBJWgAwIBAgICI0wwDQYJKoZIhvcNAQELBQAwgawxCzAJBgNVBAYTAlVT
MQswCQYDVQQIEwJPSDERMA8GA1UEBxMIQ29sdW1idXMxEjAQBgNVBAoTCVZpa2lu
Z1ZQTjEdMBsGA1UECxMUTXlPcmdhbml6YXRpb25hbFVuaXQxFTATBgNVBAMTDFZp
a2luZ1ZQTiBDQTEQMA4GA1UEKRMHRWFzeVJTQTEhMB8GCSqGSIb3DQEJARYSbWVA
bXlob3N0Lm15ZG9tYWluMB4XDTE2MDkxNjA4MzIyNVoXDTI2MDkxNDA4MzIyNVow
HzEdMBsGA1UEAxMUQ2xpZW50MjIxNkNlcnQ4NjQxNWUwggIiMA0GCSqGSIb3DQEB
AQUAA4ICDwAwggIKAoICAQDFSvret4IEZ8bZetNF95wgK111j8zwRpeY55jSfHSA
Mo2eK4q4slmutFZGMwh3xrt7vo643xEU01vTc743rQ2FCyOCKuGJ8BJkPMjxxN9a
266M6fbAS2WRrPwKhB3CSlNZccEveHlJgaYIpqC7XBsNUssx9uSF7kKAONmImpV3
o3q6iI3gyi0DtN8OWn2d8hgW5PSiPPiNwtvNyxD2Zz/BWinfytICixXpLzKuZdgx
zrNF0/q0Ni4NnzUDbmgMoIekIvOdBQQe/J0xx/VDWaz8Lc51PR1oH6RpyMirIJ93
77K/ihlZTevEnBOO4udthxCg/lWsYdai4ONlO7ESsmsPDHqPDFwkDbpEAN2qsdYo
UIIV0X+m0LGhLGyGW8lY5GqaiMeuqozJqtC/Ejafd3UtKPlCofdZZ54aJJdAsxet
TyXkzGDjzxVtm60kGYI3Xf7j4/kHxMAmBRu69/tuVVgwjUWOLYHZxv/VYsVysvIN
3yYUanlcZZbspysx0LImv7gGESxiKyuLc3KoGb21A2LusnbrK0fEU07hG7XiHxlx
4lkABql9r1sxDoXKyqBdRhhvf5pH9iT9n9oiFOvkUup063pIPdbKicYcCk80em1Y
SwzEanjL3LKnYQQ4IZ7R7BDlWbnXPcbvQ9zVtTBI61p3XVQjdmUy/Nrms/MZoLCB
LQIDAQABo4IBYzCCAV8wCQYDVR0TBAIwADAtBglghkgBhvhCAQ0EIBYeRWFzeS1S
U0EgR2VuZXJhdGVkIENlcnRpZmljYXRlMB0GA1UdDgQWBBQDJ0gBgQUZBpLRbadL
ldeEWRg85DCB4QYDVR0jBIHZMIHWgBQSzWAE0qCAnnDtxpm4eyzGUv0ZoaGBsqSB
rzCBrDELMAkGA1UEBhMCVVMxCzAJBgNVBAgTAk9IMREwDwYDVQQHEwhDb2x1bWJ1
czESMBAGA1UEChMJVmlraW5nVlBOMR0wGwYDVQQLExRNeU9yZ2FuaXphdGlvbmFs
VW5pdDEVMBMGA1UEAxMMVmlraW5nVlBOIENBMRAwDgYDVQQpEwdFYXN5UlNBMSEw
HwYJKoZIhvcNAQkBFhJtZUBteWhvc3QubXlkb21haW6CCQDPNYXugL8qPjATBgNV
HSUEDDAKBggrBgEFBQcDAjALBgNVHQ8EBAMCB4AwDQYJKoZIhvcNAQELBQADggIB
ABXbgW25SPrpHe/xmjGhDBqJuDURqt2c6uo08/7f6uvEcQ8S4o+CUWMfTG37iHH1
vpvIYIjoVh9JTBL3jFrxjeOZStnZQim3pHYd5rz5LP6hWMoGUPqm63pX4do3/ytT
e9zW98q/xb3EutHkGDIsKhKof1f12e6roIlqRmBc3DiXTtV2jF5PLQx9s4yC37th
Mj7axdsjF2OCVT3oHY2qsMMIkO695YWf3CrYrrDuv2g4uLlwxffACsAbKTd3ulll
1FMphGKE/LpsV8j6BWIfhbC1tRGqiWXLC/0ie1UZRJdTNukoBuvy7ODOHaKV3Lhv
mBauk4+msS84DUpl9KmIz2m1QcmF1Enpdq1QbtdoYP9/l9fm2LnViPSxXqPPwPNs
R/0o9hIgag00R5dXjzUGP6sv6lBOIpOJuLmepqzEPN6KLBOsPsX2sAN4xUxtz9e1
hbNJLsyt6yu7LHwKGdFoHHl45HK04KL1kyNLnhXmhKrdJUgj09m4KyG5e5MAIdzm
XnKlL1/d4F9u1XHZVsX0yjTtoJk35nOMVyTt3GDe31aSCDH0NYvzHpEXkz9RdV2E
0FFOXHdzsiyEINfNF1Iyq/9Cz+TPACExuQF2snLzhDIDjqSqrxRjzAfHBytNCx3t
QtJNuxTFnSv+QWJdMqtLlMaDAQ46MF3lsvISceG3dZpZ
-----END CERTIFICATE-----
