Certificate:
    Data:
        Version: 3 (0x2)
        Serial Number: 7714 (0x1e22)
    Signature Algorithm: md5WithRSAEncryption
        Issuer: C=US, ST=OH, L=Columbus, O=VikingVPN, OU=MyOrganizationalUnit, CN=VikingVPN CA/name=EasyRSA/emailAddress=me@myhost.mydomain
        Validity
            Not Before: Apr 10 21:51:10 2016 GMT
            Not After : Apr  8 21:51:10 2026 GMT
        Subject: CN=Client1736Cert50ece3
        Subject Public Key Info:
            Public Key Algorithm: rsaEncryption
                Public-Key: (4096 bit)
                Modulus:
                    00:bb:0a:a6:b8:d5:c0:a7:9d:59:2c:a9:03:e6:59:
                    6b:fb:17:c0:f3:f3:11:5e:93:01:0e:d3:b2:b8:2d:
                    dc:66:8d:92:e3:52:99:ed:9b:a2:02:3a:20:35:78:
                    1a:80:0a:a9:94:a6:d5:c1:c4:b4:70:27:5c:4a:37:
                    ba:c6:b6:9a:63:e4:e8:27:23:9b:7a:23:70:fd:19:
                    e3:9e:c3:6f:6f:0b:f0:63:f1:9d:80:36:1f:2e:4c:
                    fa:24:fa:7d:d1:e9:87:07:30:b0:4c:0a:8c:02:32:
                    1c:dd:de:a4:08:39:bf:d6:8a:d3:bf:c4:88:ef:97:
                    72:e8:b8:b7:b2:ab:c0:5b:4e:33:cb:0c:b1:0e:c5:
                    94:8d:5f:52:36:74:03:d1:30:0f:2e:aa:25:c8:e2:
                    9d:0f:8c:84:49:77:57:ca:db:01:c2:7e:d5:77:e2:
                    f5:e0:f4:3a:a6:dc:8e:ba:43:98:cf:40:a8:38:66:
                    98:9c:7e:4c:17:04:8b:14:eb:76:9a:56:03:ae:d2:
                    48:35:18:f0:cf:01:c9:67:f8:97:ac:ac:f8:e0:86:
                    25:48:bb:48:38:25:47:47:87:a5:26:b0:c8:23:fd:
                    92:1f:f9:9e:be:5e:0f:2e:3e:18:48:1f:6b:23:a6:
                    02:67:f3:dd:3d:ee:05:fc:88:30:ac:aa:39:5d:29:
                    5f:1c:57:8f:f6:61:70:3e:ac:da:3f:59:83:34:8c:
                    9b:b0:93:bf:58:fe:a6:36:4f:e9:9a:8b:92:d9:68:
                    86:69:1b:ab:ef:5f:4e:7d:d5:af:59:e5:ac:5b:be:
                    58:c1:5f:44:27:0c:96:8e:84:6e:4d:75:93:45:99:
                    ed:1d:3d:ec:0a:f8:36:61:77:ce:a0:53:ff:74:c3:
                    6c:0d:f9:c5:51:c9:11:7a:0f:b0:9a:09:fa:43:1b:
                    fc:82:ff:62:72:2d:99:bc:17:31:7e:9c:68:22:fe:
                    bb:83:89:c3:00:26:37:93:ea:a8:40:f7:95:6a:ec:
                    cb:78:7c:f0:29:ea:6b:f3:b1:1f:ae:41:5c:fb:b9:
                    da:a1:c4:94:c7:ec:8c:61:9d:5f:48:a4:12:ef:be:
                    e9:ee:e2:23:05:e4:16:da:6b:27:25:3d:17:c0:61:
                    6e:03:20:f1:12:fd:75:66:02:71:8b:d8:4c:ce:95:
                    f6:f5:5e:28:19:44:b8:c9:37:07:a2:e3:70:0d:45:
                    7d:df:17:09:d0:1f:e0:e9:52:ca:b6:cc:15:c7:a8:
                    c9:be:d4:3d:44:d7:e5:fe:9b:a6:e7:dd:14:b7:fb:
                    62:45:88:63:c4:bf:c3:94:10:5a:17:6c:64:55:59:
                    fc:a7:6b:a9:2a:86:92:1c:92:19:a3:85:c2:f9:94:
                    2a:eb:13
                Exponent: 65537 (0x10001)
        X509v3 extensions:
            X509v3 Basic Constraints: 
                CA:FALSE
            Netscape Comment: 
                Easy-RSA Generated Certificate
            X509v3 Subject Key Identifier: 
                56:8F:2E:21:68:B2:FE:03:06:30:BA:CC:84:DD:6B:4A:28:DF:67:D4
            X509v3 Authority Key Identifier: 
                keyid:12:CD:60:04:D2:A0:80:9E:70:ED:C6:99:B8:7B:2C:C6:52:FD:19:A1
                DirName:/C=US/ST=OH/L=Columbus/O=VikingVPN/OU=MyOrganizationalUnit/CN=VikingVPN CA/name=EasyRSA/emailAddress=me@myhost.mydomain
                serial:CF:35:85:EE:80:BF:2A:3E

            X509v3 Extended Key Usage: 
                TLS Web Client Authentication
            X509v3 Key Usage: 
                Digital Signature
    Signature Algorithm: md5WithRSAEncryption
         0d:c2:8d:cd:a0:29:7f:1c:a2:40:a6:49:ab:10:b1:8e:6d:7c:
         f5:e8:17:2a:ac:df:df:a3:fd:6c:4a:55:93:18:b9:e4:d9:6c:
         2d:0b:93:95:3f:33:4d:bd:8f:5b:f9:24:0c:b4:7d:77:55:e9:
         97:6a:12:cd:69:fe:89:af:ea:ae:1f:10:15:67:d6:7f:49:7a:
         b3:55:b9:66:ae:46:b5:79:83:b6:af:7d:6f:f5:bf:21:dd:94:
         1c:0f:e2:eb:6e:01:db:32:47:41:14:07:df:32:68:08:77:1b:
         d8:41:77:d3:7f:7c:5d:a4:1b:9d:82:6b:45:a0:fc:bd:dd:1a:
         97:67:ad:91:dc:91:23:a3:75:f4:2c:cb:28:a0:ce:c3:95:ae:
         4a:60:d3:db:de:32:89:d7:94:7a:f0:f5:22:10:a0:54:a4:a9:
         42:89:52:88:75:eb:0b:f7:93:a8:1e:4e:bc:0f:08:dd:c4:3b:
         df:f8:7c:98:50:1e:45:b7:ec:e9:61:e1:3c:29:46:0e:6a:d7:
         6c:6e:a3:fd:de:96:26:25:c0:b8:0f:b5:61:42:85:7c:58:ea:
         e2:28:e5:be:e7:18:86:11:f2:b0:7d:90:d0:43:fd:bf:f8:c3:
         eb:41:2d:19:60:30:69:87:eb:78:0f:81:16:0c:05:92:39:91:
         aa:bc:05:a3:58:35:a8:da:2c:46:51:42:99:90:68:0f:ed:55:
         1d:0d:3c:a1:04:6e:56:0b:f5:4f:78:2c:d2:1f:e7:de:96:cb:
         99:e2:cf:c9:b2:e1:73:6a:55:20:1e:57:34:e8:4b:5f:0b:1a:
         7f:1a:23:57:99:57:f1:ab:1d:e5:bc:29:36:8e:ae:cf:25:10:
         df:2e:92:9e:ba:2c:f7:9b:4b:af:75:8f:52:5a:ff:5f:cf:82:
         57:d3:c0:48:20:d0:3b:3a:89:73:3e:f2:39:55:22:6e:08:4d:
         64:af:47:2f:f9:6c:eb:c0:b6:f8:c3:a6:f6:57:72:f8:ea:1c:
         35:83:73:be:44:e6:c2:9a:77:3d:93:7d:5c:52:48:15:50:52:
         66:17:ce:1c:49:c7:2b:d1:82:67:3b:f5:2e:a6:d2:90:59:6a:
         d2:11:cf:7d:88:30:df:b6:c6:a0:7f:32:69:20:5f:4a:1e:6f:
         dd:1f:0a:cc:5c:c6:aa:c6:9d:49:4b:60:95:a9:e6:02:4d:56:
         34:e3:05:b5:03:b6:3f:00:42:33:45:12:5a:88:71:73:49:73:
         2a:f3:50:cb:8d:12:c8:d0:9b:4b:f4:4d:f0:bf:f7:e9:d0:25:
         8c:08:cc:92:62:84:86:63:7c:01:d4:60:75:0f:10:4a:0a:27:
         d1:36:60:72:0c:3d:ec:36
-----BEGIN CERTIFICATE-----
MIIGrTCCBJWgAwIBAgICHiIwDQYJKoZIhvcNAQEEBQAwgawxCzAJBgNVBAYTAlVT
MQswCQYDVQQIEwJPSDERMA8GA1UEBxMIQ29sdW1idXMxEjAQBgNVBAoTCVZpa2lu
Z1ZQTjEdMBsGA1UECxMUTXlPcmdhbml6YXRpb25hbFVuaXQxFTATBgNVBAMTDFZp
a2luZ1ZQTiBDQTEQMA4GA1UEKRMHRWFzeVJTQTEhMB8GCSqGSIb3DQEJARYSbWVA
bXlob3N0Lm15ZG9tYWluMB4XDTE2MDQxMDIxNTExMFoXDTI2MDQwODIxNTExMFow
HzEdMBsGA1UEAxMUQ2xpZW50MTczNkNlcnQ1MGVjZTMwggIiMA0GCSqGSIb3DQEB
AQUAA4ICDwAwggIKAoICAQC7Cqa41cCnnVksqQPmWWv7F8Dz8xFekwEO07K4Ldxm
jZLjUpntm6ICOiA1eBqACqmUptXBxLRwJ1xKN7rGtppj5OgnI5t6I3D9GeOew29v
C/Bj8Z2ANh8uTPok+n3R6YcHMLBMCowCMhzd3qQIOb/WitO/xIjvl3LouLeyq8Bb
TjPLDLEOxZSNX1I2dAPRMA8uqiXI4p0PjIRJd1fK2wHCftV34vXg9Dqm3I66Q5jP
QKg4ZpicfkwXBIsU63aaVgOu0kg1GPDPAcln+JesrPjghiVIu0g4JUdHh6UmsMgj
/ZIf+Z6+Xg8uPhhIH2sjpgJn89097gX8iDCsqjldKV8cV4/2YXA+rNo/WYM0jJuw
k79Y/qY2T+mai5LZaIZpG6vvX0591a9Z5axbvljBX0QnDJaOhG5NdZNFme0dPewK
+DZhd86gU/90w2wN+cVRyRF6D7CaCfpDG/yC/2JyLZm8FzF+nGgi/ruDicMAJjeT
6qhA95Vq7Mt4fPAp6mvzsR+uQVz7udqhxJTH7IxhnV9IpBLvvunu4iMF5Bbaaycl
PRfAYW4DIPES/XVmAnGL2EzOlfb1XigZRLjJNwei43ANRX3fFwnQH+DpUsq2zBXH
qMm+1D1E1+X+m6bn3RS3+2JFiGPEv8OUEFoXbGRVWfyna6kqhpIckhmjhcL5lCrr
EwIDAQABo4IBYzCCAV8wCQYDVR0TBAIwADAtBglghkgBhvhCAQ0EIBYeRWFzeS1S
U0EgR2VuZXJhdGVkIENlcnRpZmljYXRlMB0GA1UdDgQWBBRWjy4haLL+AwYwusyE
3WtKKN9n1DCB4QYDVR0jBIHZMIHWgBQSzWAE0qCAnnDtxpm4eyzGUv0ZoaGBsqSB
rzCBrDELMAkGA1UEBhMCVVMxCzAJBgNVBAgTAk9IMREwDwYDVQQHEwhDb2x1bWJ1
czESMBAGA1UEChMJVmlraW5nVlBOMR0wGwYDVQQLExRNeU9yZ2FuaXphdGlvbmFs
VW5pdDEVMBMGA1UEAxMMVmlraW5nVlBOIENBMRAwDgYDVQQpEwdFYXN5UlNBMSEw
HwYJKoZIhvcNAQkBFhJtZUBteWhvc3QubXlkb21haW6CCQDPNYXugL8qPjATBgNV
HSUEDDAKBggrBgEFBQcDAjALBgNVHQ8EBAMCB4AwDQYJKoZIhvcNAQEEBQADggIB
AA3Cjc2gKX8cokCmSasQsY5tfPXoFyqs39+j/WxKVZMYueTZbC0Lk5U/M029j1v5
JAy0fXdV6ZdqEs1p/omv6q4fEBVn1n9JerNVuWauRrV5g7avfW/1vyHdlBwP4utu
AdsyR0EUB98yaAh3G9hBd9N/fF2kG52Ca0Wg/L3dGpdnrZHckSOjdfQsyyigzsOV
rkpg09veMonXlHrw9SIQoFSkqUKJUoh16wv3k6geTrwPCN3EO9/4fJhQHkW37Olh
4TwpRg5q12xuo/3eliYlwLgPtWFChXxY6uIo5b7nGIYR8rB9kNBD/b/4w+tBLRlg
MGmH63gPgRYMBZI5kaq8BaNYNajaLEZRQpmQaA/tVR0NPKEEblYL9U94LNIf596W
y5niz8my4XNqVSAeVzToS18LGn8aI1eZV/GrHeW8KTaOrs8lEN8ukp66LPebS691
j1Ja/1/PglfTwEgg0Ds6iXM+8jlVIm4ITWSvRy/5bOvAtvjDpvZXcvjqHDWDc75E
5sKadz2TfVxSSBVQUmYXzhxJxyvRgmc79S6m0pBZatIRz32IMN+2xqB/MmkgX0oe
b90fCsxcxqrGnUlLYJWp5gJNVjTjBbUDtj8AQjNFElqIcXNJcyrzUMuNEsjQm0v0
TfC/9+nQJYwIzJJihIZjfAHUYHUPEEoKJ9E2YHIMPew2
-----END CERTIFICATE-----
