Certificate:
    Data:
        Version: 3 (0x2)
        Serial Number: 11366 (0x2c66)
    Signature Algorithm: sha256WithRSAEncryption
        Issuer: C=US, ST=OH, L=Columbus, O=VikingVPN, OU=MyOrganizationalUnit, CN=VikingVPN CA/name=EasyRSA/emailAddress=me@myhost.mydomain
        Validity
            Not Before: Jul 21 03:14:20 2017 GMT
            Not After : Jul 19 03:14:20 2027 GMT
        Subject: CN=Client2795Cert2c7228
        Subject Public Key Info:
            Public Key Algorithm: rsaEncryption
                Public-Key: (4096 bit)
                Modulus:
                    00:d4:b5:b6:1c:07:22:a3:24:3b:2d:7a:0d:e6:3d:
                    21:25:5e:b5:9c:1b:20:bb:10:c8:23:0e:c2:96:17:
                    6a:32:21:16:f2:8a:10:fc:7b:cd:6a:fe:85:ab:ce:
                    d9:89:80:ac:68:94:38:99:3b:54:a3:17:ad:a0:f8:
                    c6:70:34:f2:01:8a:f1:ae:2b:58:73:b7:ef:88:1f:
                    55:89:a9:7e:d6:49:f6:b0:e6:7c:26:8b:ea:fb:ba:
                    62:fa:23:57:47:97:b9:7f:f3:20:bd:80:17:5b:6b:
                    d2:b2:7f:8c:a4:db:22:1d:79:54:85:8d:68:56:82:
                    fe:7b:3a:15:08:57:f8:c8:43:e2:f0:04:ad:70:ea:
                    0f:b8:c4:14:13:34:38:f3:f3:b0:74:85:a7:1f:d6:
                    13:61:6e:86:96:60:d9:23:df:97:15:70:6a:05:83:
                    3a:e3:2b:f8:29:b7:f3:02:83:4b:a6:52:ca:ba:b1:
                    7a:da:51:4c:14:e5:6a:66:c7:3c:79:ee:f5:1e:dd:
                    ce:15:66:a3:f5:12:a7:63:81:db:86:af:74:7c:f7:
                    67:05:94:d8:0c:b7:4b:20:f4:75:e7:75:9f:00:09:
                    eb:36:2e:b6:c8:aa:eb:76:8c:d8:f6:1f:54:46:c0:
                    5f:5e:02:c1:3c:03:76:42:a7:52:73:47:af:f9:1e:
                    b0:b9:cf:08:38:09:a6:e1:f1:36:fd:6a:21:6a:e0:
                    09:74:c5:bb:47:de:4a:02:be:fc:e2:c5:31:19:7d:
                    26:a6:34:58:51:33:77:70:21:1a:08:32:51:1e:bf:
                    5c:8c:8b:3f:c2:a8:ac:92:ff:c7:02:f2:d6:f9:a6:
                    50:ef:4e:0e:3e:b0:83:ef:0a:30:a9:92:7c:f9:18:
                    c2:98:e0:7e:eb:29:9a:40:8f:b2:39:89:70:2a:7d:
                    5e:00:ed:fb:dc:21:bb:63:4b:ae:31:a9:68:74:de:
                    23:c5:9f:af:25:70:96:a1:f7:99:68:00:ed:e6:53:
                    5c:ed:87:b6:9a:51:a2:c1:96:8b:31:ec:ac:82:5e:
                    43:71:b8:d8:d1:03:f2:28:6f:4c:d8:b2:2e:01:c4:
                    1f:85:b2:fb:a2:8d:ab:77:f6:87:32:4a:f1:53:00:
                    f4:25:61:2c:0c:10:bb:6e:63:71:30:0e:72:8c:e7:
                    44:25:33:a4:bf:f0:a5:26:12:51:5f:33:f7:fd:de:
                    cd:4b:3a:4b:52:5e:63:a9:73:82:02:0d:6e:91:09:
                    2f:ff:91:ed:18:ad:79:15:61:c1:96:a3:2d:0d:ed:
                    0e:4a:40:cc:51:58:05:fc:ef:b9:aa:72:ae:e6:20:
                    51:8a:8e:92:6c:54:27:29:07:6c:c0:02:1b:09:a8:
                    10:d1:eb
                Exponent: 65537 (0x10001)
        X509v3 extensions:
            X509v3 Basic Constraints: 
                CA:FALSE
            Netscape Comment: 
                Easy-RSA Generated Certificate
            X509v3 Subject Key Identifier: 
                48:5B:06:DC:5E:F9:80:3E:65:21:2F:13:47:C4:32:55:B2:B5:F2:43
            X509v3 Authority Key Identifier: 
                keyid:12:CD:60:04:D2:A0:80:9E:70:ED:C6:99:B8:7B:2C:C6:52:FD:19:A1
                DirName:/C=US/ST=OH/L=Columbus/O=VikingVPN/OU=MyOrganizationalUnit/CN=VikingVPN CA/name=EasyRSA/emailAddress=me@myhost.mydomain
                serial:CF:35:85:EE:80:BF:2A:3E

            X509v3 Extended Key Usage: 
                TLS Web Client Authentication
            X509v3 Key Usage: 
                Digital Signature
    Signature Algorithm: sha256WithRSAEncryption
         96:95:eb:65:37:9a:de:a8:1b:b1:ef:19:c1:6b:11:4d:92:86:
         cc:43:7d:36:59:5e:e0:8e:eb:87:61:59:47:83:af:57:c8:91:
         2d:da:13:c9:0a:a8:9b:2d:7d:b1:ac:64:13:81:71:8b:59:3f:
         50:bc:9f:8c:78:72:c2:ce:0c:f4:d9:64:6e:fc:31:a4:17:13:
         f2:0d:0b:ce:57:35:9f:bb:72:2a:49:d4:4d:d6:12:8d:35:ac:
         9a:c8:c4:c1:8c:6c:6d:14:f1:67:b9:69:92:c6:11:6f:74:27:
         e1:d9:4f:8e:00:06:0e:a5:a5:f9:9f:bf:f2:3e:a3:c7:53:c8:
         d7:d5:9c:22:d8:92:2a:1f:6d:b5:23:3b:47:f0:d1:79:82:3c:
         58:72:4a:17:29:56:c8:92:91:bd:d6:4f:29:96:6c:95:11:52:
         54:dc:43:db:e7:7c:32:9b:3d:80:be:ae:6e:47:f2:21:52:46:
         28:09:c9:3e:d7:06:e6:17:bf:9e:91:f8:1a:bb:1f:22:aa:9a:
         8b:c7:22:56:04:94:6c:99:d4:9c:58:59:fe:a9:8a:c6:31:df:
         e1:55:71:ad:4f:09:63:28:b0:72:60:f3:a1:9d:08:9f:1d:dd:
         33:4f:37:61:b2:54:df:48:11:78:64:e7:a8:59:73:16:86:9c:
         91:f1:f4:90:ff:31:c7:55:08:82:c1:c3:3c:b5:eb:3e:3e:5e:
         0d:29:34:09:dd:b7:82:a3:82:17:68:d5:25:9a:4e:19:f6:35:
         a3:4c:72:f1:6b:59:3d:7a:2c:0b:72:b1:32:55:0d:84:38:c6:
         6d:5c:65:ae:3b:5e:d0:32:68:88:f8:9a:c3:f8:bb:07:c4:cc:
         0d:c0:3c:a0:e7:9c:e2:b2:0b:ef:2a:a4:35:3e:08:47:59:37:
         fb:67:c5:2b:c2:3a:1c:e6:b8:d9:1f:3b:00:92:6a:a9:4f:af:
         87:ff:b5:bc:0f:f5:b1:61:96:5e:00:9d:75:40:5a:f3:70:bb:
         78:43:88:23:3b:27:ee:3b:39:30:a1:a8:f5:6e:b5:fe:91:47:
         15:e6:87:7b:dc:b4:b4:fb:1b:04:90:21:86:ff:82:b9:bf:6d:
         7e:de:e4:a3:de:29:70:14:c3:19:88:38:bd:7b:57:ae:26:1f:
         f5:15:97:6b:16:91:fb:26:2b:09:8d:f3:2a:b5:f4:7c:87:7f:
         6b:0c:22:d9:97:07:41:19:94:e6:44:27:87:17:8b:ad:5c:b9:
         b5:d7:b6:77:25:99:3d:76:3c:d3:83:8a:96:17:7b:22:90:56:
         12:3f:5b:95:69:79:d6:f6:11:93:11:2c:51:a9:53:8c:66:a1:
         6f:4f:e3:31:ee:4f:01:bc
-----BEGIN CERTIFICATE-----
MIIGrTCCBJWgAwIBAgICLGYwDQYJKoZIhvcNAQELBQAwgawxCzAJBgNVBAYTAlVT
MQswCQYDVQQIEwJPSDERMA8GA1UEBxMIQ29sdW1idXMxEjAQBgNVBAoTCVZpa2lu
Z1ZQTjEdMBsGA1UECxMUTXlPcmdhbml6YXRpb25hbFVuaXQxFTATBgNVBAMTDFZp
a2luZ1ZQTiBDQTEQMA4GA1UEKRMHRWFzeVJTQTEhMB8GCSqGSIb3DQEJARYSbWVA
bXlob3N0Lm15ZG9tYWluMB4XDTE3MDcyMTAzMTQyMFoXDTI3MDcxOTAzMTQyMFow
HzEdMBsGA1UEAxMUQ2xpZW50Mjc5NUNlcnQyYzcyMjgwggIiMA0GCSqGSIb3DQEB
AQUAA4ICDwAwggIKAoICAQDUtbYcByKjJDsteg3mPSElXrWcGyC7EMgjDsKWF2oy
IRbyihD8e81q/oWrztmJgKxolDiZO1SjF62g+MZwNPIBivGuK1hzt++IH1WJqX7W
Sfaw5nwmi+r7umL6I1dHl7l/8yC9gBdba9Kyf4yk2yIdeVSFjWhWgv57OhUIV/jI
Q+LwBK1w6g+4xBQTNDjz87B0hacf1hNhboaWYNkj35cVcGoFgzrjK/gpt/MCg0um
Usq6sXraUUwU5Wpmxzx57vUe3c4VZqP1EqdjgduGr3R892cFlNgMt0sg9HXndZ8A
Ces2LrbIqut2jNj2H1RGwF9eAsE8A3ZCp1JzR6/5HrC5zwg4Cabh8Tb9aiFq4Al0
xbtH3koCvvzixTEZfSamNFhRM3dwIRoIMlEev1yMiz/CqKyS/8cC8tb5plDvTg4+
sIPvCjCpknz5GMKY4H7rKZpAj7I5iXAqfV4A7fvcIbtjS64xqWh03iPFn68lcJah
95loAO3mU1zth7aaUaLBlosx7KyCXkNxuNjRA/Iob0zYsi4BxB+Fsvuijat39ocy
SvFTAPQlYSwMELtuY3EwDnKM50QlM6S/8KUmElFfM/f93s1LOktSXmOpc4ICDW6R
CS//ke0YrXkVYcGWoy0N7Q5KQMxRWAX877mqcq7mIFGKjpJsVCcpB2zAAhsJqBDR
6wIDAQABo4IBYzCCAV8wCQYDVR0TBAIwADAtBglghkgBhvhCAQ0EIBYeRWFzeS1S
U0EgR2VuZXJhdGVkIENlcnRpZmljYXRlMB0GA1UdDgQWBBRIWwbcXvmAPmUhLxNH
xDJVsrXyQzCB4QYDVR0jBIHZMIHWgBQSzWAE0qCAnnDtxpm4eyzGUv0ZoaGBsqSB
rzCBrDELMAkGA1UEBhMCVVMxCzAJBgNVBAgTAk9IMREwDwYDVQQHEwhDb2x1bWJ1
czESMBAGA1UEChMJVmlraW5nVlBOMR0wGwYDVQQLExRNeU9yZ2FuaXphdGlvbmFs
VW5pdDEVMBMGA1UEAxMMVmlraW5nVlBOIENBMRAwDgYDVQQpEwdFYXN5UlNBMSEw
HwYJKoZIhvcNAQkBFhJtZUBteWhvc3QubXlkb21haW6CCQDPNYXugL8qPjATBgNV
HSUEDDAKBggrBgEFBQcDAjALBgNVHQ8EBAMCB4AwDQYJKoZIhvcNAQELBQADggIB
AJaV62U3mt6oG7HvGcFrEU2ShsxDfTZZXuCO64dhWUeDr1fIkS3aE8kKqJstfbGs
ZBOBcYtZP1C8n4x4csLODPTZZG78MaQXE/INC85XNZ+7cipJ1E3WEo01rJrIxMGM
bG0U8We5aZLGEW90J+HZT44ABg6lpfmfv/I+o8dTyNfVnCLYkiofbbUjO0fw0XmC
PFhyShcpVsiSkb3WTymWbJURUlTcQ9vnfDKbPYC+rm5H8iFSRigJyT7XBuYXv56R
+Bq7HyKqmovHIlYElGyZ1JxYWf6pisYx3+FVca1PCWMosHJg86GdCJ8d3TNPN2Gy
VN9IEXhk56hZcxaGnJHx9JD/McdVCILBwzy16z4+Xg0pNAndt4Kjghdo1SWaThn2
NaNMcvFrWT16LAtysTJVDYQ4xm1cZa47XtAyaIj4msP4uwfEzA3APKDnnOKyC+8q
pDU+CEdZN/tnxSvCOhzmuNkfOwCSaqlPr4f/tbwP9bFhll4AnXVAWvNwu3hDiCM7
J+47OTChqPVutf6RRxXmh3vctLT7GwSQIYb/grm/bX7e5KPeKXAUwxmIOL17V64m
H/UVl2sWkfsmKwmN8yq19HyHf2sMItmXB0EZlOZEJ4cXi61cubXXtnclmT12PNOD
ipYXeyKQVhI/W5Vpedb2EZMRLFGpU4xmoW9P4zHuTwG8
-----END CERTIFICATE-----
