Certificate:
    Data:
        Version: 3 (0x2)
        Serial Number: 6715 (0x1a3b)
    Signature Algorithm: md5WithRSAEncryption
        Issuer: C=US, ST=OH, L=Columbus, O=VikingVPN, OU=MyOrganizationalUnit, CN=VikingVPN CA/name=EasyRSA/emailAddress=me@myhost.mydomain
        Validity
            Not Before: Nov 19 23:33:22 2015 GMT
            Not After : Nov 16 23:33:22 2025 GMT
        Subject: CN=Client1291Certc8bb38
        Subject Public Key Info:
            Public Key Algorithm: rsaEncryption
                Public-Key: (4096 bit)
                Modulus:
                    00:d3:8d:ae:f5:f5:ad:cd:4f:91:e0:5a:b9:4b:4a:
                    5c:95:53:4d:25:6b:e9:bf:05:49:dc:32:1a:3b:1f:
                    c4:f7:ee:1e:1e:7e:7c:69:cb:52:c3:32:b0:e2:05:
                    eb:25:ef:83:f6:8a:31:7e:3c:87:08:32:a0:dd:b1:
                    e3:2f:d5:47:d6:d7:fa:70:80:b4:74:ed:26:54:d8:
                    0e:52:65:0e:bf:4e:0b:c8:29:74:a0:9f:94:e8:ba:
                    c6:ff:41:60:b8:f1:bb:0a:ed:59:02:ab:c1:bf:a5:
                    4b:f3:8f:59:09:26:d9:ae:0d:f2:fc:ab:8e:12:32:
                    9d:ac:0b:2b:89:9f:52:2a:f2:d0:39:b9:d6:df:68:
                    6e:4d:fe:34:51:84:dc:2b:22:0f:d0:cb:a9:00:2c:
                    42:eb:48:ce:9d:b7:2e:af:cf:a4:19:79:5e:41:7c:
                    53:1f:a3:d4:31:c2:6e:3d:86:fb:fe:ac:0c:f8:33:
                    32:36:c3:48:e9:2f:8b:d4:fe:a7:9e:b2:71:92:22:
                    64:64:2b:c1:02:0b:e7:55:c4:72:be:8f:5c:ea:6b:
                    f9:8a:2e:31:bb:fd:ef:e6:ec:f5:72:9d:a0:30:f5:
                    da:53:bd:93:41:3a:93:d6:a7:8a:c4:c1:9c:de:66:
                    b1:42:6f:9e:9b:ff:37:4d:d4:ba:de:23:10:a9:ea:
                    14:80:fd:30:5a:60:0d:49:54:7d:8e:b9:83:a0:56:
                    10:d5:12:0e:71:94:e3:56:bd:ea:34:a5:12:bf:fd:
                    c4:6b:92:4e:ab:13:94:dc:37:65:d9:a9:73:32:6a:
                    0e:0b:9e:f0:4f:26:c3:34:96:42:bd:e4:38:a9:5a:
                    3a:d3:0e:5e:86:45:93:84:7c:5c:82:62:16:12:22:
                    f8:28:0d:3f:c4:93:99:54:5b:fd:10:5a:2b:92:1a:
                    d1:80:72:61:65:42:e7:f5:2a:d2:cf:1b:e8:e9:e0:
                    e8:70:0c:1a:12:2f:ab:7d:e8:fa:7e:c1:3e:92:e6:
                    ea:41:36:35:3b:89:5f:83:6e:19:cd:85:92:5c:98:
                    4b:0d:3b:89:d4:e1:74:53:02:6b:40:4e:f9:f0:05:
                    33:d8:f5:df:a8:3d:ec:28:1c:8d:0b:aa:47:de:24:
                    30:63:f3:e4:fe:d7:c4:ac:de:b9:e3:f0:43:ad:42:
                    fc:49:71:f2:e9:3c:78:e6:c9:d1:2b:5f:c0:ac:6a:
                    04:75:67:0f:b7:3f:c1:49:c4:63:90:c0:ec:7e:3b:
                    eb:ef:a6:d0:fb:e3:25:c0:c6:8a:4a:62:67:89:e7:
                    25:f2:fd:d6:7a:77:53:30:48:31:f4:79:4c:21:04:
                    34:31:b3:a0:5c:bc:bd:a6:df:1c:35:83:b1:a2:ce:
                    08:21:49
                Exponent: 65537 (0x10001)
        X509v3 extensions:
            X509v3 Basic Constraints: 
                CA:FALSE
            Netscape Comment: 
                Easy-RSA Generated Certificate
            X509v3 Subject Key Identifier: 
                9E:D6:EA:32:78:BC:BB:45:68:0F:32:37:CE:09:82:FF:85:BC:FB:8A
            X509v3 Authority Key Identifier: 
                keyid:12:CD:60:04:D2:A0:80:9E:70:ED:C6:99:B8:7B:2C:C6:52:FD:19:A1
                DirName:/C=US/ST=OH/L=Columbus/O=VikingVPN/OU=MyOrganizationalUnit/CN=VikingVPN CA/name=EasyRSA/emailAddress=me@myhost.mydomain
                serial:CF:35:85:EE:80:BF:2A:3E

            X509v3 Extended Key Usage: 
                TLS Web Client Authentication
            X509v3 Key Usage: 
                Digital Signature
    Signature Algorithm: md5WithRSAEncryption
         0a:65:05:9f:69:fd:00:e2:01:30:18:93:ca:3e:e3:9d:ea:c0:
         bc:ce:17:6f:82:03:45:a6:f6:aa:a7:bc:a1:cf:24:38:1c:d0:
         6a:db:a3:7c:04:85:4e:ad:8e:53:77:28:1c:46:c0:26:43:c5:
         b7:25:57:36:88:89:10:76:1c:45:d2:86:1f:6d:35:e0:69:bf:
         86:82:d7:63:d5:e9:0e:cb:95:38:db:9c:b4:87:97:7e:7e:80:
         87:23:83:18:3f:3a:e3:8c:3d:10:1d:1c:56:e2:76:d0:c9:8d:
         c6:75:86:e5:3b:e7:5d:5f:f7:9c:ff:e0:8a:2f:14:93:07:e3:
         a2:75:35:ed:e6:5a:f9:70:38:13:c9:14:e5:17:fa:90:26:93:
         42:d3:e4:6d:e5:21:aa:f6:b1:ea:6b:da:e6:04:ef:15:6b:14:
         93:2f:ce:12:80:6f:55:e0:70:f9:ec:e3:9c:b5:b8:ce:ce:b4:
         e9:ae:44:e5:20:03:9f:f9:71:0d:e6:dc:cc:91:82:74:83:26:
         11:4d:b4:ec:ce:74:dc:31:7f:3b:01:9f:f8:d6:93:39:c9:04:
         39:68:55:a5:19:96:c9:14:22:9a:03:15:d0:ed:46:0d:e6:b5:
         ba:f1:60:6d:43:e3:c6:ec:dd:9b:1f:3c:23:e5:e4:c1:c4:97:
         07:cc:5e:6e:79:3a:9b:af:e5:bf:44:fd:6d:c4:bd:29:10:dc:
         87:d7:a4:48:74:08:65:ec:dc:36:e3:dc:da:a9:76:cc:e1:10:
         18:c6:8e:0f:4f:24:f1:77:8d:54:6f:64:47:df:97:50:6b:91:
         a7:8f:c3:60:a9:14:3b:75:39:7f:45:41:14:17:8b:ff:67:25:
         dd:2e:44:6b:81:94:dc:47:b7:fd:e2:10:29:0a:80:c2:e9:1b:
         86:75:1d:79:99:4b:d0:1c:7a:49:ca:12:bb:2b:af:39:aa:c3:
         df:ee:b4:4c:5c:50:b8:27:d1:cd:56:f0:10:d6:0f:43:0b:e8:
         a8:bb:95:27:c5:01:53:3a:6e:a4:ed:40:5c:18:cf:d8:52:7e:
         2d:df:3e:ad:84:a3:a3:29:86:ba:41:a0:5f:15:5b:4b:a4:01:
         e7:af:a1:4c:3d:e9:d6:7f:6f:54:7b:95:d5:37:d0:66:b6:01:
         75:ed:7b:2c:6e:eb:c6:84:cd:a5:da:85:bd:d7:ea:99:09:c1:
         00:e4:ed:0d:fd:ab:e0:c8:5e:bc:85:86:be:73:00:c7:d7:d3:
         ce:6d:7f:22:65:75:a2:2f:0a:1a:00:a0:37:60:78:54:44:f2:
         0f:72:e6:d8:87:99:e1:a5:91:ba:aa:c7:2a:21:0d:d5:ce:25:
         23:c7:38:01:96:1d:c6:18
-----BEGIN CERTIFICATE-----
MIIGrTCCBJWgAwIBAgICGjswDQYJKoZIhvcNAQEEBQAwgawxCzAJBgNVBAYTAlVT
MQswCQYDVQQIEwJPSDERMA8GA1UEBxMIQ29sdW1idXMxEjAQBgNVBAoTCVZpa2lu
Z1ZQTjEdMBsGA1UECxMUTXlPcmdhbml6YXRpb25hbFVuaXQxFTATBgNVBAMTDFZp
a2luZ1ZQTiBDQTEQMA4GA1UEKRMHRWFzeVJTQTEhMB8GCSqGSIb3DQEJARYSbWVA
bXlob3N0Lm15ZG9tYWluMB4XDTE1MTExOTIzMzMyMloXDTI1MTExNjIzMzMyMlow
HzEdMBsGA1UEAxMUQ2xpZW50MTI5MUNlcnRjOGJiMzgwggIiMA0GCSqGSIb3DQEB
AQUAA4ICDwAwggIKAoICAQDTja719a3NT5HgWrlLSlyVU00la+m/BUncMho7H8T3
7h4efnxpy1LDMrDiBesl74P2ijF+PIcIMqDdseMv1UfW1/pwgLR07SZU2A5SZQ6/
TgvIKXSgn5Tousb/QWC48bsK7VkCq8G/pUvzj1kJJtmuDfL8q44SMp2sCyuJn1Iq
8tA5udbfaG5N/jRRhNwrIg/Qy6kALELrSM6dty6vz6QZeV5BfFMfo9Qxwm49hvv+
rAz4MzI2w0jpL4vU/qeesnGSImRkK8ECC+dVxHK+j1zqa/mKLjG7/e/m7PVynaAw
9dpTvZNBOpPWp4rEwZzeZrFCb56b/zdN1LreIxCp6hSA/TBaYA1JVH2OuYOgVhDV
Eg5xlONWveo0pRK//cRrkk6rE5TcN2XZqXMyag4LnvBPJsM0lkK95DipWjrTDl6G
RZOEfFyCYhYSIvgoDT/Ek5lUW/0QWiuSGtGAcmFlQuf1KtLPG+jp4OhwDBoSL6t9
6Pp+wT6S5upBNjU7iV+DbhnNhZJcmEsNO4nU4XRTAmtATvnwBTPY9d+oPewoHI0L
qkfeJDBj8+T+18Ss3rnj8EOtQvxJcfLpPHjmydErX8CsagR1Zw+3P8FJxGOQwOx+
O+vvptD74yXAxopKYmeJ5yXy/dZ6d1MwSDH0eUwhBDQxs6BcvL2m3xw1g7Gizggh
SQIDAQABo4IBYzCCAV8wCQYDVR0TBAIwADAtBglghkgBhvhCAQ0EIBYeRWFzeS1S
U0EgR2VuZXJhdGVkIENlcnRpZmljYXRlMB0GA1UdDgQWBBSe1uoyeLy7RWgPMjfO
CYL/hbz7ijCB4QYDVR0jBIHZMIHWgBQSzWAE0qCAnnDtxpm4eyzGUv0ZoaGBsqSB
rzCBrDELMAkGA1UEBhMCVVMxCzAJBgNVBAgTAk9IMREwDwYDVQQHEwhDb2x1bWJ1
czESMBAGA1UEChMJVmlraW5nVlBOMR0wGwYDVQQLExRNeU9yZ2FuaXphdGlvbmFs
VW5pdDEVMBMGA1UEAxMMVmlraW5nVlBOIENBMRAwDgYDVQQpEwdFYXN5UlNBMSEw
HwYJKoZIhvcNAQkBFhJtZUBteWhvc3QubXlkb21haW6CCQDPNYXugL8qPjATBgNV
HSUEDDAKBggrBgEFBQcDAjALBgNVHQ8EBAMCB4AwDQYJKoZIhvcNAQEEBQADggIB
AAplBZ9p/QDiATAYk8o+453qwLzOF2+CA0Wm9qqnvKHPJDgc0Grbo3wEhU6tjlN3
KBxGwCZDxbclVzaIiRB2HEXShh9tNeBpv4aC12PV6Q7LlTjbnLSHl35+gIcjgxg/
OuOMPRAdHFbidtDJjcZ1huU7511f95z/4IovFJMH46J1Ne3mWvlwOBPJFOUX+pAm
k0LT5G3lIar2sepr2uYE7xVrFJMvzhKAb1XgcPns45y1uM7OtOmuROUgA5/5cQ3m
3MyRgnSDJhFNtOzOdNwxfzsBn/jWkznJBDloVaUZlskUIpoDFdDtRg3mtbrxYG1D
48bs3ZsfPCPl5MHElwfMXm55Opuv5b9E/W3EvSkQ3IfXpEh0CGXs3Dbj3Nqpdszh
EBjGjg9PJPF3jVRvZEffl1BrkaePw2CpFDt1OX9FQRQXi/9nJd0uRGuBlNxHt/3i
ECkKgMLpG4Z1HXmZS9AceknKErsrrzmqw9/utExcULgn0c1W8BDWD0ML6Ki7lSfF
AVM6bqTtQFwYz9hSfi3fPq2Eo6MphrpBoF8VW0ukAeevoUw96dZ/b1R7ldU30Ga2
AXXteyxu68aEzaXahb3X6pkJwQDk7Q39q+DIXryFhr5zAMfX085tfyJldaIvChoA
oDdgeFRE8g9y5tiHmeGlkbqqxyohDdXOJSPHOAGWHcYY
-----END CERTIFICATE-----
