Certificate:
    Data:
        Version: 3 (0x2)
        Serial Number: 2439 (0x987)
    Signature Algorithm: md5WithRSAEncryption
        Issuer: C=US, ST=OH, L=Columbus, O=VikingVPN, OU=MyOrganizationalUnit, CN=VikingVPN CA/name=EasyRSA/emailAddress=me@myhost.mydomain
        Validity
            Not Before: Aug  1 12:14:30 2014 GMT
            Not After : Jul 29 12:14:30 2024 GMT
        Subject: CN=Client850Certd25a21
        Subject Public Key Info:
            Public Key Algorithm: rsaEncryption
                Public-Key: (4096 bit)
                Modulus:
                    00:9f:2a:d1:09:51:7c:4e:5e:1d:a7:b7:87:06:3b:
                    68:01:23:26:d4:cc:8b:ea:eb:f4:3a:05:7e:a3:e2:
                    94:d8:5d:7e:13:3d:fb:33:72:5e:7f:d5:fc:d9:d5:
                    cc:c6:50:19:0d:5f:63:c6:8b:bb:b9:9d:3f:61:3a:
                    3b:39:87:43:1f:d1:a2:5c:e8:ed:da:1d:dd:92:a3:
                    2e:38:0b:3d:57:01:02:dc:37:2e:a8:01:be:7b:bf:
                    6d:c1:e9:fe:19:7c:a1:52:e3:fa:5a:05:08:11:95:
                    9d:6e:7f:4f:01:d6:42:ad:6a:e7:cc:5b:17:fb:69:
                    4f:19:bc:f1:06:65:ae:4a:07:50:76:91:fe:e9:d9:
                    55:4c:24:ab:ac:03:14:02:9b:56:f4:b6:bc:32:78:
                    61:3c:12:19:95:27:89:d2:92:c2:ea:5f:39:89:6b:
                    e1:f3:15:3f:49:42:7e:d0:36:82:c3:0d:6b:68:be:
                    f0:2d:22:81:8e:16:ca:21:59:c9:86:0b:45:93:bf:
                    2d:7c:7c:e2:8b:36:7b:e7:2a:5c:e0:be:58:30:0f:
                    1b:4a:bb:f5:77:77:e5:ba:64:5a:17:66:f1:16:0b:
                    97:db:9a:ea:d7:d6:3f:a7:8a:5b:ce:ce:3b:02:50:
                    96:92:c4:e3:6f:c4:96:7a:86:b1:c8:01:50:4e:e5:
                    51:84:71:fb:a1:14:59:6c:86:13:8d:21:47:22:ee:
                    b6:e6:c1:00:88:a7:df:ac:9b:77:0c:cb:5e:a5:01:
                    c8:6c:31:71:2f:61:b4:cb:87:ed:95:d6:3b:9a:91:
                    ef:c6:65:68:c2:e8:f7:92:01:3b:e4:a7:d2:b4:21:
                    2d:97:83:f4:d2:d7:ac:0e:57:40:86:a4:e0:53:d6:
                    1e:2b:b8:fe:35:d2:92:bb:9b:8f:5e:e2:83:6d:7f:
                    90:eb:08:29:19:a2:0e:4d:c1:09:f8:1e:54:b1:44:
                    a0:4c:89:ad:4d:8c:73:6f:26:a9:0b:7f:08:9e:4e:
                    fb:f6:72:d9:97:ff:ae:58:35:8f:29:26:5a:4a:30:
                    5e:b4:70:f8:2a:09:cb:3c:d7:61:be:31:4e:b0:38:
                    f3:14:9d:62:70:9e:5a:cd:ea:30:3d:71:92:87:06:
                    97:96:37:e1:88:ca:90:58:5c:e6:e7:ee:82:b2:85:
                    f7:de:b4:f5:32:81:01:e5:7b:c7:da:98:49:19:b1:
                    15:96:92:97:b9:ef:c3:4c:46:58:81:df:42:c8:3a:
                    ff:dc:2c:87:85:b4:5b:d7:ff:c0:98:d4:2b:4e:e4:
                    68:dd:ad:8e:2b:cc:af:e7:2b:22:89:8c:9d:24:26:
                    c6:ff:6c:09:8d:bf:bc:d8:e8:2b:80:c0:ff:34:3f:
                    25:50:cb
                Exponent: 65537 (0x10001)
        X509v3 extensions:
            X509v3 Basic Constraints: 
                CA:FALSE
            Netscape Comment: 
                Easy-RSA Generated Certificate
            X509v3 Subject Key Identifier: 
                85:A3:EE:D5:DB:48:C4:62:E8:93:3B:86:1D:5B:05:BC:54:3C:0F:8D
            X509v3 Authority Key Identifier: 
                keyid:12:CD:60:04:D2:A0:80:9E:70:ED:C6:99:B8:7B:2C:C6:52:FD:19:A1
                DirName:/C=US/ST=OH/L=Columbus/O=VikingVPN/OU=MyOrganizationalUnit/CN=VikingVPN CA/name=EasyRSA/emailAddress=me@myhost.mydomain
                serial:CF:35:85:EE:80:BF:2A:3E

            X509v3 Extended Key Usage: 
                TLS Web Client Authentication
            X509v3 Key Usage: 
                Digital Signature
    Signature Algorithm: md5WithRSAEncryption
         a8:39:67:4a:40:20:fa:63:fb:e9:36:b3:55:1e:cc:43:3d:53:
         13:c6:81:ad:83:e6:2b:8d:34:d1:e8:e8:4e:8c:0c:c6:37:4c:
         4d:08:1f:cd:a7:d7:89:ef:48:05:92:32:0a:62:b4:95:db:0b:
         94:a3:29:ba:0d:7b:64:49:4a:7c:f1:88:00:cb:a8:b6:eb:bb:
         f0:73:dc:dd:bf:0f:86:64:96:84:fd:72:d4:1a:55:d9:8b:52:
         a5:27:87:a9:88:ed:86:d4:5c:80:43:d2:c9:e3:44:3d:26:2f:
         b7:a1:6a:5a:0b:6f:fc:c1:b8:2c:26:06:db:c8:6b:f4:23:05:
         31:74:72:2c:de:e1:ac:59:7b:cc:80:ae:d1:b6:43:26:98:b3:
         32:bd:95:64:15:9c:63:bd:f6:69:89:96:7d:b4:32:1c:40:1a:
         5c:e6:47:66:f5:c2:8d:34:0e:89:73:0a:41:f7:47:81:e6:25:
         1c:7c:dc:05:01:69:fa:c8:13:83:42:fc:3e:55:3b:e8:cc:73:
         25:d0:3a:a3:dd:86:76:1b:83:3d:46:f0:18:99:6a:56:15:5a:
         82:b3:85:72:15:a6:9a:09:3c:f6:95:a0:e7:d2:9a:47:a9:d2:
         e8:29:0c:c4:cb:0d:74:bd:51:f8:a1:72:a4:d7:2b:e0:b5:da:
         6c:37:81:b9:da:c5:80:6d:5b:46:ab:43:db:c7:a9:25:ce:4d:
         98:a6:12:e9:c5:43:1b:1b:56:11:2a:76:a6:29:4f:78:a8:01:
         9c:69:f2:24:2e:43:d2:b0:5d:5d:04:81:8d:bc:9e:f3:12:3f:
         63:91:eb:ad:c2:b6:db:7d:a3:37:5b:72:87:0d:2f:66:6c:83:
         b7:7d:02:90:81:ac:ab:45:bc:fc:7e:5f:d0:0c:e3:a8:39:1d:
         5f:2e:6b:7b:c2:4b:ae:e1:9d:00:17:09:7a:8c:98:fe:c1:95:
         9b:9f:73:69:fc:84:e1:52:7c:e7:7b:e5:aa:2c:73:0f:fb:86:
         eb:87:7b:a3:7c:26:c8:8f:d4:80:09:58:88:1a:0d:b7:8f:78:
         81:73:32:89:3a:30:ae:ae:e3:3b:9d:d7:2e:60:0e:e2:bb:f2:
         1a:56:67:b6:fa:c1:50:0e:bb:39:83:06:e1:54:2e:7f:c6:96:
         c3:ec:0e:e0:b0:52:e8:d5:71:e6:93:dc:f8:ea:ca:ce:7b:9f:
         37:01:02:62:fc:52:e4:d6:11:04:cb:8f:52:73:b1:84:5f:56:
         df:2c:81:88:80:3d:30:ff:4d:cc:f4:7e:84:aa:da:78:00:1a:
         65:6d:d2:72:a7:3d:4d:3c:d9:a7:08:a1:ac:9e:b0:de:c5:44:
         da:42:4c:8a:12:dd:b9:a8
-----BEGIN CERTIFICATE-----
MIIGrDCCBJSgAwIBAgICCYcwDQYJKoZIhvcNAQEEBQAwgawxCzAJBgNVBAYTAlVT
MQswCQYDVQQIEwJPSDERMA8GA1UEBxMIQ29sdW1idXMxEjAQBgNVBAoTCVZpa2lu
Z1ZQTjEdMBsGA1UECxMUTXlPcmdhbml6YXRpb25hbFVuaXQxFTATBgNVBAMTDFZp
a2luZ1ZQTiBDQTEQMA4GA1UEKRMHRWFzeVJTQTEhMB8GCSqGSIb3DQEJARYSbWVA
bXlob3N0Lm15ZG9tYWluMB4XDTE0MDgwMTEyMTQzMFoXDTI0MDcyOTEyMTQzMFow
HjEcMBoGA1UEAxMTQ2xpZW50ODUwQ2VydGQyNWEyMTCCAiIwDQYJKoZIhvcNAQEB
BQADggIPADCCAgoCggIBAJ8q0QlRfE5eHae3hwY7aAEjJtTMi+rr9DoFfqPilNhd
fhM9+zNyXn/V/NnVzMZQGQ1fY8aLu7mdP2E6OzmHQx/Rolzo7dod3ZKjLjgLPVcB
Atw3LqgBvnu/bcHp/hl8oVLj+loFCBGVnW5/TwHWQq1q58xbF/tpTxm88QZlrkoH
UHaR/unZVUwkq6wDFAKbVvS2vDJ4YTwSGZUnidKSwupfOYlr4fMVP0lCftA2gsMN
a2i+8C0igY4WyiFZyYYLRZO/LXx84os2e+cqXOC+WDAPG0q79Xd35bpkWhdm8RYL
l9ua6tfWP6eKW87OOwJQlpLE42/ElnqGscgBUE7lUYRx+6EUWWyGE40hRyLutubB
AIin36ybdwzLXqUByGwxcS9htMuH7ZXWO5qR78ZlaMLo95IBO+Sn0rQhLZeD9NLX
rA5XQIak4FPWHiu4/jXSkrubj17ig21/kOsIKRmiDk3BCfgeVLFEoEyJrU2Mc28m
qQt/CJ5O+/Zy2Zf/rlg1jykmWkowXrRw+CoJyzzXYb4xTrA48xSdYnCeWs3qMD1x
kocGl5Y34YjKkFhc5ufugrKF99609TKBAeV7x9qYSRmxFZaSl7nvw0xGWIHfQsg6
/9wsh4W0W9f/wJjUK07kaN2tjivMr+crIomMnSQmxv9sCY2/vNjoK4DA/zQ/JVDL
AgMBAAGjggFjMIIBXzAJBgNVHRMEAjAAMC0GCWCGSAGG+EIBDQQgFh5FYXN5LVJT
QSBHZW5lcmF0ZWQgQ2VydGlmaWNhdGUwHQYDVR0OBBYEFIWj7tXbSMRi6JM7hh1b
BbxUPA+NMIHhBgNVHSMEgdkwgdaAFBLNYATSoICecO3Gmbh7LMZS/RmhoYGypIGv
MIGsMQswCQYDVQQGEwJVUzELMAkGA1UECBMCT0gxETAPBgNVBAcTCENvbHVtYnVz
MRIwEAYDVQQKEwlWaWtpbmdWUE4xHTAbBgNVBAsTFE15T3JnYW5pemF0aW9uYWxV
bml0MRUwEwYDVQQDEwxWaWtpbmdWUE4gQ0ExEDAOBgNVBCkTB0Vhc3lSU0ExITAf
BgkqhkiG9w0BCQEWEm1lQG15aG9zdC5teWRvbWFpboIJAM81he6Avyo+MBMGA1Ud
JQQMMAoGCCsGAQUFBwMCMAsGA1UdDwQEAwIHgDANBgkqhkiG9w0BAQQFAAOCAgEA
qDlnSkAg+mP76TazVR7MQz1TE8aBrYPmK4000ejoTowMxjdMTQgfzafXie9IBZIy
CmK0ldsLlKMpug17ZElKfPGIAMuotuu78HPc3b8PhmSWhP1y1BpV2YtSpSeHqYjt
htRcgEPSyeNEPSYvt6FqWgtv/MG4LCYG28hr9CMFMXRyLN7hrFl7zICu0bZDJpiz
Mr2VZBWcY732aYmWfbQyHEAaXOZHZvXCjTQOiXMKQfdHgeYlHHzcBQFp+sgTg0L8
PlU76MxzJdA6o92GdhuDPUbwGJlqVhVagrOFchWmmgk89pWg59KaR6nS6CkMxMsN
dL1R+KFypNcr4LXabDeBudrFgG1bRqtD28epJc5NmKYS6cVDGxtWESp2pilPeKgB
nGnyJC5D0rBdXQSBjbye8xI/Y5HrrcK2232jN1tyhw0vZmyDt30CkIGsq0W8/H5f
0AzjqDkdXy5re8JLruGdABcJeoyY/sGVm59zafyE4VJ853vlqixzD/uG64d7o3wm
yI/UgAlYiBoNt494gXMyiTowrq7jO53XLmAO4rvyGlZntvrBUA67OYMG4VQuf8aW
w+wO4LBS6NVx5pPc+OrKznufNwECYvxS5NYRBMuPUnOxhF9W3yyBiIA9MP9NzPR+
hKraeAAaZW3Scqc9TTzZpwihrJ6w3sVE2kJMihLduag=
-----END CERTIFICATE-----
