Certificate:
    Data:
        Version: 3 (0x2)
        Serial Number: 2516 (0x9d4)
    Signature Algorithm: md5WithRSAEncryption
        Issuer: C=US, ST=OH, L=Columbus, O=VikingVPN, OU=MyOrganizationalUnit, CN=VikingVPN CA/name=EasyRSA/emailAddress=me@myhost.mydomain
        Validity
            Not Before: Aug  9 17:06:09 2014 GMT
            Not After : Aug  6 17:06:09 2024 GMT
        Subject: CN=Client873Cert201359
        Subject Public Key Info:
            Public Key Algorithm: rsaEncryption
                Public-Key: (4096 bit)
                Modulus:
                    00:c0:4d:ce:bc:90:fb:58:18:61:db:34:2b:a8:32:
                    13:a1:3f:89:1e:79:bd:dc:8f:9f:20:f0:b6:fc:6c:
                    21:c9:58:06:08:46:da:df:d9:37:4c:8a:61:2c:0b:
                    d5:54:a4:d3:82:88:6b:c7:d7:1c:90:35:3e:3c:a3:
                    a2:c3:de:d0:e7:c8:1e:77:dd:2c:02:a3:e6:85:b4:
                    ed:da:e6:4f:af:a8:0e:b0:b3:9f:1a:3d:15:c5:61:
                    32:b4:3c:a9:10:22:53:51:a5:b5:c2:7a:7d:86:dc:
                    cd:ad:9b:19:39:42:bb:34:d0:bd:16:bf:87:96:6f:
                    a6:c4:8c:36:80:9e:f9:2e:53:47:8f:45:a1:44:b3:
                    98:dc:a1:93:51:df:8f:38:c4:ae:e5:2b:e1:2b:d3:
                    47:bf:d7:a6:e0:01:f3:6f:f3:f0:7d:6d:c6:c4:2a:
                    02:34:3b:d4:be:ff:bf:52:50:73:7f:bf:5a:16:88:
                    f5:ed:71:b0:10:f3:78:0d:11:38:56:ee:52:08:5f:
                    de:0a:f4:de:bd:0b:8e:19:8a:aa:5e:99:b8:b8:48:
                    ab:63:be:af:77:c0:b3:60:07:d3:18:0a:58:3f:50:
                    8b:72:99:26:98:2c:6f:f5:35:20:90:76:20:e6:bc:
                    52:b3:00:f1:c6:3a:fc:f9:c5:30:98:14:c3:66:f4:
                    56:94:f3:56:96:d9:c1:4b:a3:4f:3a:7e:3f:80:d9:
                    1e:87:ad:2c:7e:ce:46:3d:65:64:28:a1:e4:f7:71:
                    69:ce:fe:2c:ba:f5:94:89:55:4c:20:34:c9:76:3f:
                    b0:06:7c:c2:b6:82:55:b3:e7:20:8e:3b:c3:19:80:
                    6c:06:33:be:7f:d8:c8:18:36:ea:35:59:32:8a:f3:
                    c0:51:b5:e8:04:b8:74:05:65:02:1a:53:52:28:77:
                    a1:41:d7:d3:56:46:94:f3:23:7c:a7:89:2e:09:65:
                    24:70:90:db:d5:c3:c3:c9:55:97:49:97:9c:62:ef:
                    96:c0:75:31:8c:1e:76:24:28:6e:ac:f8:40:cf:24:
                    a8:15:78:7b:43:e4:b1:6c:ba:fc:7a:81:be:17:6d:
                    cf:61:c7:02:c0:9e:89:5d:ff:54:cb:b1:ab:a9:00:
                    0e:bb:bf:8b:2f:01:dd:52:f2:42:d2:a7:62:7c:10:
                    7d:1d:96:42:d2:38:15:d2:72:42:a9:5d:2a:66:13:
                    c9:8e:98:0c:a7:48:71:1f:4c:e1:a4:b6:77:85:a6:
                    98:63:d0:a2:d9:44:8a:8d:71:b5:b2:e3:1c:c6:37:
                    1f:38:9b:49:0b:57:05:36:59:72:9a:98:a4:d6:b4:
                    ed:18:5b:e5:4f:d6:6a:c6:f4:76:71:6b:bf:e7:89:
                    02:37:0f
                Exponent: 65537 (0x10001)
        X509v3 extensions:
            X509v3 Basic Constraints: 
                CA:FALSE
            Netscape Comment: 
                Easy-RSA Generated Certificate
            X509v3 Subject Key Identifier: 
                E4:30:3F:BF:0F:EC:1B:CE:62:19:D5:B7:7E:2A:92:C2:5B:AC:33:06
            X509v3 Authority Key Identifier: 
                keyid:12:CD:60:04:D2:A0:80:9E:70:ED:C6:99:B8:7B:2C:C6:52:FD:19:A1
                DirName:/C=US/ST=OH/L=Columbus/O=VikingVPN/OU=MyOrganizationalUnit/CN=VikingVPN CA/name=EasyRSA/emailAddress=me@myhost.mydomain
                serial:CF:35:85:EE:80:BF:2A:3E

            X509v3 Extended Key Usage: 
                TLS Web Client Authentication
            X509v3 Key Usage: 
                Digital Signature
    Signature Algorithm: md5WithRSAEncryption
         75:f6:af:58:09:31:4a:bc:8d:ff:98:c6:aa:01:27:4c:c0:ee:
         58:71:d0:2f:d9:f3:f1:e5:73:e5:3e:0a:22:2f:e9:dd:e9:a0:
         1e:38:94:60:90:11:c1:d2:b5:4f:92:25:60:99:ea:d2:12:f1:
         aa:e6:d0:ed:cd:9c:fd:1c:b8:5b:44:15:9f:23:28:6b:15:0b:
         4e:19:f8:73:43:f5:06:a1:ff:87:b0:37:21:dd:04:19:bc:1d:
         f5:68:f9:b1:a7:fa:0f:4f:ac:f2:b1:f7:33:a0:87:b8:1a:55:
         5f:47:c2:78:4a:5e:b7:af:79:98:54:6b:38:ab:00:a6:00:ba:
         98:33:92:c9:c6:9d:f0:dd:7a:c2:db:df:63:8c:5e:0a:ce:94:
         96:e3:72:0e:3f:ff:72:c5:02:f0:79:6d:96:1a:3b:0c:cb:69:
         e9:3e:ee:11:1d:de:be:ff:28:7a:02:e9:c0:08:5f:b4:89:c7:
         0d:84:99:1f:a1:fa:76:f8:27:2a:e1:34:33:40:cf:a4:2b:45:
         87:2d:8b:23:f8:5f:f0:5e:09:82:bc:7e:d7:8f:aa:7d:fc:b5:
         d2:11:53:93:e8:ee:2f:86:4d:0d:1b:a6:09:97:8b:c1:52:ed:
         37:13:10:83:84:dd:d5:d0:7d:27:47:71:e2:11:71:91:dc:69:
         3b:ee:ee:bf:10:12:ff:98:cd:7c:1f:37:83:6a:e0:bb:05:3a:
         8d:f2:cb:d1:cc:29:04:d3:be:d7:3d:5e:c1:d9:5e:f3:e1:e0:
         a8:0e:13:1e:bc:61:30:7f:83:0e:21:ec:a7:8e:ba:7d:71:47:
         b1:2a:d6:0d:e8:bf:20:18:b3:f0:f3:b0:c8:0a:5b:8e:5b:fe:
         d5:1e:a6:2b:ee:31:97:e0:24:21:81:3b:d3:68:dd:25:c6:b0:
         25:86:81:dd:94:d1:1c:1e:21:e9:f8:fc:58:4f:91:40:45:63:
         52:03:fb:33:db:2e:e8:54:af:45:62:99:53:6a:37:23:d8:00:
         61:7a:1e:b9:b2:a7:88:45:e4:ae:bf:1c:02:ec:85:8f:6b:cf:
         d5:a9:c3:cb:0f:0c:43:c4:60:cd:f3:29:bd:16:2d:57:22:58:
         7b:67:81:40:29:c3:6c:8c:63:09:b7:c5:fb:01:cd:1d:35:13:
         27:5f:1c:fd:4c:89:ce:5f:25:32:36:0b:3c:d4:a3:ba:a1:95:
         01:ca:34:c6:9c:69:68:07:0f:3c:ab:03:95:b3:13:15:03:a9:
         30:b1:0b:71:e9:91:2f:bc:fa:52:3e:90:94:1c:80:de:3a:f2:
         e0:14:26:2f:45:b7:fe:0f:a0:89:b1:0b:4a:34:13:38:58:61:
         82:44:65:4c:30:ac:a2:a7
-----BEGIN CERTIFICATE-----
MIIGrDCCBJSgAwIBAgICCdQwDQYJKoZIhvcNAQEEBQAwgawxCzAJBgNVBAYTAlVT
MQswCQYDVQQIEwJPSDERMA8GA1UEBxMIQ29sdW1idXMxEjAQBgNVBAoTCVZpa2lu
Z1ZQTjEdMBsGA1UECxMUTXlPcmdhbml6YXRpb25hbFVuaXQxFTATBgNVBAMTDFZp
a2luZ1ZQTiBDQTEQMA4GA1UEKRMHRWFzeVJTQTEhMB8GCSqGSIb3DQEJARYSbWVA
bXlob3N0Lm15ZG9tYWluMB4XDTE0MDgwOTE3MDYwOVoXDTI0MDgwNjE3MDYwOVow
HjEcMBoGA1UEAxMTQ2xpZW50ODczQ2VydDIwMTM1OTCCAiIwDQYJKoZIhvcNAQEB
BQADggIPADCCAgoCggIBAMBNzryQ+1gYYds0K6gyE6E/iR55vdyPnyDwtvxsIclY
BghG2t/ZN0yKYSwL1VSk04KIa8fXHJA1PjyjosPe0OfIHnfdLAKj5oW07drmT6+o
DrCznxo9FcVhMrQ8qRAiU1GltcJ6fYbcza2bGTlCuzTQvRa/h5ZvpsSMNoCe+S5T
R49FoUSzmNyhk1HfjzjEruUr4SvTR7/XpuAB82/z8H1txsQqAjQ71L7/v1JQc3+/
WhaI9e1xsBDzeA0ROFbuUghf3gr03r0LjhmKql6ZuLhIq2O+r3fAs2AH0xgKWD9Q
i3KZJpgsb/U1IJB2IOa8UrMA8cY6/PnFMJgUw2b0VpTzVpbZwUujTzp+P4DZHoet
LH7ORj1lZCih5Pdxac7+LLr1lIlVTCA0yXY/sAZ8wraCVbPnII47wxmAbAYzvn/Y
yBg26jVZMorzwFG16AS4dAVlAhpTUih3oUHX01ZGlPMjfKeJLgllJHCQ29XDw8lV
l0mXnGLvlsB1MYwediQobqz4QM8kqBV4e0PksWy6/HqBvhdtz2HHAsCeiV3/VMux
q6kADru/iy8B3VLyQtKnYnwQfR2WQtI4FdJyQqldKmYTyY6YDKdIcR9M4aS2d4Wm
mGPQotlEio1xtbLjHMY3HzibSQtXBTZZcpqYpNa07Rhb5U/Wasb0dnFrv+eJAjcP
AgMBAAGjggFjMIIBXzAJBgNVHRMEAjAAMC0GCWCGSAGG+EIBDQQgFh5FYXN5LVJT
QSBHZW5lcmF0ZWQgQ2VydGlmaWNhdGUwHQYDVR0OBBYEFOQwP78P7BvOYhnVt34q
ksJbrDMGMIHhBgNVHSMEgdkwgdaAFBLNYATSoICecO3Gmbh7LMZS/RmhoYGypIGv
MIGsMQswCQYDVQQGEwJVUzELMAkGA1UECBMCT0gxETAPBgNVBAcTCENvbHVtYnVz
MRIwEAYDVQQKEwlWaWtpbmdWUE4xHTAbBgNVBAsTFE15T3JnYW5pemF0aW9uYWxV
bml0MRUwEwYDVQQDEwxWaWtpbmdWUE4gQ0ExEDAOBgNVBCkTB0Vhc3lSU0ExITAf
BgkqhkiG9w0BCQEWEm1lQG15aG9zdC5teWRvbWFpboIJAM81he6Avyo+MBMGA1Ud
JQQMMAoGCCsGAQUFBwMCMAsGA1UdDwQEAwIHgDANBgkqhkiG9w0BAQQFAAOCAgEA
dfavWAkxSryN/5jGqgEnTMDuWHHQL9nz8eVz5T4KIi/p3emgHjiUYJARwdK1T5Il
YJnq0hLxqubQ7c2c/Ry4W0QVnyMoaxULThn4c0P1BqH/h7A3Id0EGbwd9Wj5saf6
D0+s8rH3M6CHuBpVX0fCeEpet695mFRrOKsApgC6mDOSycad8N16wtvfY4xeCs6U
luNyDj//csUC8Hltlho7DMtp6T7uER3evv8oegLpwAhftInHDYSZH6H6dvgnKuE0
M0DPpCtFhy2LI/hf8F4Jgrx+14+qffy10hFTk+juL4ZNDRumCZeLwVLtNxMQg4Td
1dB9J0dx4hFxkdxpO+7uvxAS/5jNfB83g2rguwU6jfLL0cwpBNO+1z1ewdle8+Hg
qA4THrxhMH+DDiHsp466fXFHsSrWDei/IBiz8POwyApbjlv+1R6mK+4xl+AkIYE7
02jdJcawJYaB3ZTRHB4h6fj8WE+RQEVjUgP7M9su6FSvRWKZU2o3I9gAYXoeubKn
iEXkrr8cAuyFj2vP1anDyw8MQ8RgzfMpvRYtVyJYe2eBQCnDbIxjCbfF+wHNHTUT
J18c/UyJzl8lMjYLPNSjuqGVAco0xpxpaAcPPKsDlbMTFQOpMLELcemRL7z6Uj6Q
lByA3jry4BQmL0W3/g+gibELSjQTOFhhgkRlTDCsoqc=
-----END CERTIFICATE-----
