Certificate:
    Data:
        Version: 3 (0x2)
        Serial Number: 12990 (0x32be)
    Signature Algorithm: sha256WithRSAEncryption
        Issuer: C=US, ST=OH, L=Columbus, O=VikingVPN, OU=MyOrganizationalUnit, CN=VikingVPN CA/name=EasyRSA/emailAddress=me@myhost.mydomain
        Validity
            Not Before: Apr 17 00:17:38 2018 GMT
            Not After : Apr 14 00:17:38 2028 GMT
        Subject: CN=Client2823Cert937e83
        Subject Public Key Info:
            Public Key Algorithm: rsaEncryption
                Public-Key: (4096 bit)
                Modulus:
                    00:f5:8b:e2:0e:0f:b3:a9:f1:d4:ca:e7:54:47:8b:
                    1c:25:42:aa:3d:19:f3:be:1f:0b:8f:7b:c5:7d:33:
                    61:63:21:23:80:76:13:2e:ee:2e:b7:ee:e6:88:f5:
                    87:97:9b:f7:88:f3:08:bf:b6:a2:83:bf:cc:78:fa:
                    d5:e8:a6:6c:05:33:3e:2b:74:a7:40:60:6f:8b:31:
                    9a:c8:c2:9d:2c:52:8e:b7:c8:76:07:57:3b:87:2e:
                    0a:6a:97:9d:00:8b:46:39:3d:fa:ba:61:67:57:8b:
                    70:17:82:f0:cc:08:a0:c4:ed:32:ed:32:f9:d4:ab:
                    d2:24:ac:39:e7:fe:44:27:83:e4:0b:80:78:f7:d7:
                    4d:a2:3f:df:26:21:86:94:50:c5:84:73:d8:bd:7b:
                    81:c1:81:94:6b:fd:ee:0d:81:4e:26:c6:28:74:d8:
                    0e:0c:60:29:fb:3e:2b:12:ef:1e:4d:b3:6d:7f:81:
                    d7:48:a5:75:b7:10:e3:3d:99:be:be:92:a6:f7:d4:
                    81:08:42:60:74:7a:ac:0d:ad:9d:cf:a7:59:b6:a1:
                    00:d3:fe:30:3d:0f:43:7e:6e:7f:82:49:ae:f8:3c:
                    41:ff:55:ed:5d:38:1b:a4:f8:4e:78:4b:ca:13:8d:
                    a0:0b:91:b8:29:8f:ab:ed:74:58:c1:a8:0b:a7:d5:
                    6c:11:cf:b4:a3:9e:d8:3d:df:5c:d8:29:01:77:63:
                    aa:29:75:06:6e:c4:1e:08:91:c6:5b:9f:f3:bf:2f:
                    ef:bf:7a:6a:2e:37:31:82:77:65:87:2f:ff:ec:77:
                    db:33:3d:07:7e:a3:9d:1a:d0:05:31:f5:00:ee:f5:
                    18:94:4f:d0:3d:f3:7a:ae:62:2a:35:c8:f2:39:ba:
                    5c:30:80:33:b3:00:fc:c9:a9:38:67:ab:87:52:50:
                    bd:87:cb:46:a3:8f:e9:1a:14:da:59:f4:66:4f:eb:
                    79:60:d0:c5:c2:f1:d6:69:5c:9a:0e:f5:ae:73:60:
                    43:d9:ab:af:c2:07:58:f6:e4:ff:eb:0a:26:b5:b2:
                    43:5a:02:54:f1:6d:f0:29:d8:de:f6:06:47:8a:5d:
                    ab:24:97:15:20:2d:a8:1d:26:23:b0:1c:5c:c6:ac:
                    65:26:26:c3:17:ec:e2:94:88:04:db:94:d1:4f:93:
                    92:6c:e2:76:a5:e4:d8:21:e2:59:cb:16:fa:d7:c1:
                    53:35:97:2d:a8:0d:f6:48:d8:f8:eb:d9:be:a0:f7:
                    00:a2:52:bf:1c:a0:1b:bb:da:87:5a:e7:16:dd:eb:
                    53:45:9b:84:fc:0d:49:5c:05:f1:cf:43:9b:b8:01:
                    63:d8:24:d9:46:06:8f:f7:94:5a:a0:54:3c:45:c2:
                    39:bd:3d
                Exponent: 65537 (0x10001)
        X509v3 extensions:
            X509v3 Basic Constraints: 
                CA:FALSE
            Netscape Comment: 
                Easy-RSA Generated Certificate
            X509v3 Subject Key Identifier: 
                19:60:87:FC:70:FB:E9:33:CE:25:3D:EA:A4:D0:13:23:AB:4F:AF:88
            X509v3 Authority Key Identifier: 
                keyid:12:CD:60:04:D2:A0:80:9E:70:ED:C6:99:B8:7B:2C:C6:52:FD:19:A1
                DirName:/C=US/ST=OH/L=Columbus/O=VikingVPN/OU=MyOrganizationalUnit/CN=VikingVPN CA/name=EasyRSA/emailAddress=me@myhost.mydomain
                serial:CF:35:85:EE:80:BF:2A:3E

            X509v3 Extended Key Usage: 
                TLS Web Client Authentication
            X509v3 Key Usage: 
                Digital Signature
    Signature Algorithm: sha256WithRSAEncryption
         6d:77:06:55:d3:4d:0a:bd:e7:a7:e7:eb:c4:77:19:9f:a3:b9:
         f3:44:d7:04:7d:6b:a4:db:ba:c7:41:f6:c3:8e:13:0c:b6:3c:
         78:6e:50:f1:28:10:d8:8d:fb:c8:9b:51:b8:0b:ea:0c:5c:7e:
         a8:c1:6a:3a:03:a9:de:0c:0a:1c:91:59:5d:b7:70:4f:dc:bb:
         17:2c:4d:3f:fc:3a:a5:a6:60:a3:36:be:fd:82:2c:c3:f8:3d:
         7d:0c:3d:f9:d1:a6:3c:fb:e2:03:d6:be:91:ae:88:a0:fb:e5:
         06:19:a5:0c:62:9c:c0:3a:3e:b3:bd:1a:81:76:cd:a0:3e:67:
         11:06:5b:c7:08:f2:32:47:18:19:fa:75:34:fa:2e:fc:29:04:
         82:0e:0b:31:99:96:da:5f:af:14:8b:3e:58:68:40:62:86:6c:
         b8:f8:40:80:2a:7b:9b:d9:c5:d8:8b:4f:9d:b6:50:a0:82:ea:
         f0:66:62:00:f0:2f:2c:97:ad:fc:ce:6d:3a:32:f4:67:13:82:
         5b:e7:9b:2a:98:01:6c:a5:c2:45:7b:a5:55:9b:2a:ca:d9:96:
         5c:1c:8c:0d:4e:e1:28:12:80:b8:21:d9:b0:9c:d5:fb:51:b3:
         d1:bd:78:27:74:b7:9b:56:19:1b:ae:b4:26:e6:4c:cb:db:f1:
         51:c0:6c:1e:ca:cc:d7:67:71:29:ca:e7:4a:21:0e:c5:eb:d5:
         40:0f:44:b5:27:30:92:45:e8:4f:06:5b:3a:5f:ea:33:fc:c4:
         f5:ef:90:1b:2d:26:3e:68:97:a5:59:21:25:61:0e:f3:88:b8:
         71:67:9d:1f:ab:45:7b:ab:6f:62:92:55:40:6e:f0:a3:97:35:
         cf:70:2f:e4:ab:d8:61:37:3d:51:2a:33:a9:cd:94:dd:5b:3f:
         ef:ce:ef:e7:61:49:61:01:dd:1a:6b:85:fe:e8:9c:5b:e6:5b:
         23:f2:1a:f0:90:ba:56:50:77:8d:87:91:fb:e4:01:77:44:bf:
         a6:ff:59:62:19:56:06:25:88:10:9e:9a:5c:c9:f9:45:e5:05:
         c5:25:37:84:88:d2:a6:96:8d:85:8a:ed:94:f1:8e:05:21:9e:
         29:d8:6e:3d:65:7f:8c:0e:2e:ee:0b:e2:f6:cd:69:8e:83:1c:
         b3:6d:ba:1f:c1:30:46:86:2d:85:fb:43:dd:c1:c5:cf:08:f1:
         2a:cf:9e:20:e6:55:2a:1b:07:25:cf:a3:63:62:c2:53:32:f9:
         da:96:4a:1c:1b:95:6f:9b:3e:35:6e:8d:71:ad:d8:d9:d9:4b:
         36:67:ee:6f:08:cf:bb:97:73:c7:8c:5a:6d:46:1f:d1:31:33:
         35:f4:f0:1e:dc:3b:35:bd
-----BEGIN CERTIFICATE-----
MIIGrTCCBJWgAwIBAgICMr4wDQYJKoZIhvcNAQELBQAwgawxCzAJBgNVBAYTAlVT
MQswCQYDVQQIEwJPSDERMA8GA1UEBxMIQ29sdW1idXMxEjAQBgNVBAoTCVZpa2lu
Z1ZQTjEdMBsGA1UECxMUTXlPcmdhbml6YXRpb25hbFVuaXQxFTATBgNVBAMTDFZp
a2luZ1ZQTiBDQTEQMA4GA1UEKRMHRWFzeVJTQTEhMB8GCSqGSIb3DQEJARYSbWVA
bXlob3N0Lm15ZG9tYWluMB4XDTE4MDQxNzAwMTczOFoXDTI4MDQxNDAwMTczOFow
HzEdMBsGA1UEAxMUQ2xpZW50MjgyM0NlcnQ5MzdlODMwggIiMA0GCSqGSIb3DQEB
AQUAA4ICDwAwggIKAoICAQD1i+IOD7Op8dTK51RHixwlQqo9GfO+HwuPe8V9M2Fj
ISOAdhMu7i637uaI9YeXm/eI8wi/tqKDv8x4+tXopmwFMz4rdKdAYG+LMZrIwp0s
Uo63yHYHVzuHLgpql50Ai0Y5Pfq6YWdXi3AXgvDMCKDE7TLtMvnUq9IkrDnn/kQn
g+QLgHj3102iP98mIYaUUMWEc9i9e4HBgZRr/e4NgU4mxih02A4MYCn7PisS7x5N
s21/gddIpXW3EOM9mb6+kqb31IEIQmB0eqwNrZ3Pp1m2oQDT/jA9D0N+bn+CSa74
PEH/Ve1dOBuk+E54S8oTjaALkbgpj6vtdFjBqAun1WwRz7Sjntg931zYKQF3Y6op
dQZuxB4IkcZbn/O/L++/emouNzGCd2WHL//sd9szPQd+o50a0AUx9QDu9RiUT9A9
83quYio1yPI5ulwwgDOzAPzJqThnq4dSUL2Hy0ajj+kaFNpZ9GZP63lg0MXC8dZp
XJoO9a5zYEPZq6/CB1j25P/rCia1skNaAlTxbfAp2N72BkeKXasklxUgLagdJiOw
HFzGrGUmJsMX7OKUiATblNFPk5Js4nal5Ngh4lnLFvrXwVM1ly2oDfZI2Pjr2b6g
9wCiUr8coBu72oda5xbd61NFm4T8DUlcBfHPQ5u4AWPYJNlGBo/3lFqgVDxFwjm9
PQIDAQABo4IBYzCCAV8wCQYDVR0TBAIwADAtBglghkgBhvhCAQ0EIBYeRWFzeS1S
U0EgR2VuZXJhdGVkIENlcnRpZmljYXRlMB0GA1UdDgQWBBQZYIf8cPvpM84lPeqk
0BMjq0+viDCB4QYDVR0jBIHZMIHWgBQSzWAE0qCAnnDtxpm4eyzGUv0ZoaGBsqSB
rzCBrDELMAkGA1UEBhMCVVMxCzAJBgNVBAgTAk9IMREwDwYDVQQHEwhDb2x1bWJ1
czESMBAGA1UEChMJVmlraW5nVlBOMR0wGwYDVQQLExRNeU9yZ2FuaXphdGlvbmFs
VW5pdDEVMBMGA1UEAxMMVmlraW5nVlBOIENBMRAwDgYDVQQpEwdFYXN5UlNBMSEw
HwYJKoZIhvcNAQkBFhJtZUBteWhvc3QubXlkb21haW6CCQDPNYXugL8qPjATBgNV
HSUEDDAKBggrBgEFBQcDAjALBgNVHQ8EBAMCB4AwDQYJKoZIhvcNAQELBQADggIB
AG13BlXTTQq956fn68R3GZ+jufNE1wR9a6TbusdB9sOOEwy2PHhuUPEoENiN+8ib
UbgL6gxcfqjBajoDqd4MChyRWV23cE/cuxcsTT/8OqWmYKM2vv2CLMP4PX0MPfnR
pjz74gPWvpGuiKD75QYZpQxinMA6PrO9GoF2zaA+ZxEGW8cI8jJHGBn6dTT6Lvwp
BIIOCzGZltpfrxSLPlhoQGKGbLj4QIAqe5vZxdiLT522UKCC6vBmYgDwLyyXrfzO
bToy9GcTglvnmyqYAWylwkV7pVWbKsrZllwcjA1O4SgSgLgh2bCc1ftRs9G9eCd0
t5tWGRuutCbmTMvb8VHAbB7KzNdncSnK50ohDsXr1UAPRLUnMJJF6E8GWzpf6jP8
xPXvkBstJj5ol6VZISVhDvOIuHFnnR+rRXurb2KSVUBu8KOXNc9wL+Sr2GE3PVEq
M6nNlN1bP+/O7+dhSWEB3Rprhf7onFvmWyPyGvCQulZQd42HkfvkAXdEv6b/WWIZ
VgYliBCemlzJ+UXlBcUlN4SI0qaWjYWK7ZTxjgUhninYbj1lf4wOLu4L4vbNaY6D
HLNtuh/BMEaGLYX7Q93Bxc8I8SrPniDmVSobByXPo2NiwlMy+dqWShwblW+bPjVu
jXGt2NnZSzZn7m8Iz7uXc8eMWm1GH9ExMzX08B7cOzW9
-----END CERTIFICATE-----
