Certificate:
    Data:
        Version: 3 (0x2)
        Serial Number: 4978 (0x1372)
    Signature Algorithm: md5WithRSAEncryption
        Issuer: C=US, ST=OH, L=Columbus, O=VikingVPN, OU=MyOrganizationalUnit, CN=VikingVPN CA/name=EasyRSA/emailAddress=me@myhost.mydomain
        Validity
            Not Before: Apr 16 23:38:24 2015 GMT
            Not After : Apr 13 23:38:24 2025 GMT
        Subject: CN=Client719Certc6c1a8
        Subject Public Key Info:
            Public Key Algorithm: rsaEncryption
                Public-Key: (4096 bit)
                Modulus:
                    00:b5:8f:1d:f8:41:71:47:18:ca:de:2d:b5:1e:e8:
                    6c:49:25:76:a2:94:57:af:86:0c:d5:d9:6f:41:85:
                    bb:66:9f:ad:1e:f9:e3:ce:65:98:5c:0f:c4:5e:68:
                    eb:ed:ef:6a:56:c3:43:bf:14:73:66:24:a0:08:bd:
                    ef:50:cd:34:3c:59:c3:a8:e2:5d:78:ae:f8:35:f7:
                    60:a4:73:00:29:45:9c:b7:0e:b9:87:d2:1f:76:27:
                    a4:b7:d3:19:f1:5f:74:d8:fa:04:fb:68:f2:eb:5f:
                    bb:96:5e:05:e5:5b:71:dc:c3:59:6b:68:9b:b5:a2:
                    65:69:21:12:d2:67:f7:f4:89:6f:39:95:e0:ee:6a:
                    28:45:83:cd:05:8b:b8:7b:12:2f:35:8d:95:36:35:
                    4b:c5:3a:d0:3e:de:c4:03:5d:3b:5b:dc:7d:79:11:
                    68:db:67:11:a4:7d:55:b8:c1:8a:12:e0:3c:d1:9c:
                    e7:3e:fb:c2:a2:ea:d3:d2:52:61:1f:67:3d:b0:e6:
                    b4:35:34:44:5c:39:ed:57:6a:4e:55:c2:84:73:37:
                    5a:5e:dd:94:f6:6d:1b:98:1a:c6:31:73:96:e5:b3:
                    59:10:94:a5:e2:c4:c1:23:5b:f1:01:14:c9:b9:4e:
                    56:a5:cf:61:bf:50:aa:3f:fb:51:8f:78:0f:07:74:
                    08:7a:e0:0f:b2:6b:63:b9:ba:47:4c:a8:1e:c0:89:
                    44:43:d2:3e:2f:8e:6b:a8:9d:8a:77:62:95:16:fa:
                    8e:5e:bf:c2:bf:dd:21:24:20:60:75:3d:85:eb:cc:
                    4d:31:a8:48:ac:30:9b:11:13:90:ac:f1:e7:e5:e5:
                    74:81:cc:0e:a3:6b:77:51:88:74:82:df:0c:b1:15:
                    94:8f:57:09:d3:ac:4e:74:43:24:b0:35:9e:ac:6e:
                    d8:33:db:d2:c7:57:fa:41:75:23:63:3f:d8:57:56:
                    16:a9:d8:7b:4e:3c:f4:cf:fd:98:31:b9:a3:f7:49:
                    25:f3:8e:bf:71:aa:9b:90:7e:19:8d:1a:6a:41:a4:
                    fe:d2:c7:2f:f0:1a:48:c9:27:c7:70:f5:fe:73:1d:
                    ce:83:32:c5:01:de:e1:7b:38:0b:f0:95:9b:2d:e9:
                    7c:54:f1:5c:cc:ae:e6:0c:27:38:51:c1:8d:ee:ff:
                    d6:0c:83:fa:56:fc:5a:ef:67:dc:1c:9d:8f:24:94:
                    06:35:25:e2:c6:66:f1:b9:df:ce:7b:ae:c5:c1:dc:
                    82:3f:f4:27:84:b5:2c:78:04:d3:2c:8f:fa:3e:cc:
                    1d:fa:e3:f7:5f:5a:c7:f6:de:94:d2:8a:42:67:01:
                    b5:2e:af:60:3b:f4:57:df:64:8e:74:82:3e:cc:e4:
                    80:7c:3d
                Exponent: 65537 (0x10001)
        X509v3 extensions:
            X509v3 Basic Constraints: 
                CA:FALSE
            Netscape Comment: 
                Easy-RSA Generated Certificate
            X509v3 Subject Key Identifier: 
                1E:ED:5E:2A:E1:6F:FB:4F:05:DB:1B:8A:49:D3:2F:89:79:59:4B:28
            X509v3 Authority Key Identifier: 
                keyid:12:CD:60:04:D2:A0:80:9E:70:ED:C6:99:B8:7B:2C:C6:52:FD:19:A1
                DirName:/C=US/ST=OH/L=Columbus/O=VikingVPN/OU=MyOrganizationalUnit/CN=VikingVPN CA/name=EasyRSA/emailAddress=me@myhost.mydomain
                serial:CF:35:85:EE:80:BF:2A:3E

            X509v3 Extended Key Usage: 
                TLS Web Client Authentication
            X509v3 Key Usage: 
                Digital Signature
    Signature Algorithm: md5WithRSAEncryption
         5e:db:b0:da:03:e0:12:85:48:3e:1a:42:3d:c0:19:bc:0e:a2:
         e7:b3:fe:0b:60:1a:2d:23:d1:1b:6c:a8:83:95:d8:9a:71:b0:
         f0:83:9e:af:5b:47:78:19:e2:7a:b5:75:9a:4b:20:c6:52:9f:
         51:7b:46:76:39:5e:56:27:80:49:6e:ca:b8:34:b4:b6:75:2e:
         8d:5a:75:59:83:3f:b7:28:1e:b0:11:fe:32:a3:64:df:43:75:
         77:b4:57:d4:06:49:a3:82:13:54:e1:41:8a:42:2a:d2:4a:9d:
         df:2a:e0:a6:89:f2:0b:52:f6:a2:a1:85:8d:1c:29:d2:4c:aa:
         38:8b:97:6c:be:72:02:d1:26:e2:be:e2:93:a3:b2:50:0c:d7:
         17:76:e2:bc:04:9e:d4:80:05:7e:6a:11:3d:99:a1:3a:53:5b:
         72:1c:6c:01:a3:d3:7a:98:5f:40:0a:1f:fb:8d:48:0d:55:fb:
         c1:e1:40:d4:61:f1:6b:8a:7b:d0:9f:b0:e3:47:4b:b0:c7:20:
         68:37:53:52:bd:ed:5b:87:f3:c2:e2:78:ad:27:c1:bb:a4:68:
         78:9c:61:c7:f1:15:62:bd:78:2c:a0:26:85:b6:28:8b:f0:14:
         35:0e:7c:a5:db:f9:c9:84:17:8e:52:1c:a1:da:2f:5e:62:77:
         dd:33:ad:a4:85:4a:48:05:c8:af:c6:09:41:56:dd:6d:93:a0:
         a9:81:67:4c:e1:06:52:c5:e0:11:a4:3f:c5:1d:03:4e:77:48:
         bd:12:21:18:8d:22:32:fc:5a:df:1b:b8:90:2d:9c:cf:99:42:
         1a:f1:e2:fc:a1:dc:9d:78:14:ee:43:89:7c:45:99:ae:8a:94:
         7e:e1:32:38:5b:38:0d:20:5e:ca:a8:05:42:b9:9a:27:b5:f1:
         22:44:07:68:37:06:63:62:62:ce:63:91:47:44:c2:f7:19:10:
         7b:39:ca:88:96:6c:00:6d:62:e3:dc:84:c8:a9:43:76:04:b5:
         fd:f7:24:6b:3b:82:2a:96:2c:bc:5a:c2:ba:4d:bf:5d:b2:6c:
         bb:c1:ef:e0:6e:24:24:64:4f:43:f6:d5:5f:bb:d8:cd:87:b9:
         89:17:7c:96:6f:a0:58:18:fd:a8:ef:b5:c8:83:62:2e:13:4e:
         b8:66:59:7b:ef:94:5b:0c:b5:13:3c:c8:0f:e6:a4:d9:29:50:
         70:49:ca:22:78:a0:85:a3:3e:76:4a:68:a7:e5:ab:df:b9:36:
         97:8b:c4:ba:59:2b:be:27:ca:06:45:56:a4:10:79:6c:ac:de:
         21:01:96:eb:a5:fc:e2:58:06:a5:89:4d:2d:38:29:59:94:4b:
         66:9b:af:7e:cf:37:28:9a
-----BEGIN CERTIFICATE-----
MIIGrDCCBJSgAwIBAgICE3IwDQYJKoZIhvcNAQEEBQAwgawxCzAJBgNVBAYTAlVT
MQswCQYDVQQIEwJPSDERMA8GA1UEBxMIQ29sdW1idXMxEjAQBgNVBAoTCVZpa2lu
Z1ZQTjEdMBsGA1UECxMUTXlPcmdhbml6YXRpb25hbFVuaXQxFTATBgNVBAMTDFZp
a2luZ1ZQTiBDQTEQMA4GA1UEKRMHRWFzeVJTQTEhMB8GCSqGSIb3DQEJARYSbWVA
bXlob3N0Lm15ZG9tYWluMB4XDTE1MDQxNjIzMzgyNFoXDTI1MDQxMzIzMzgyNFow
HjEcMBoGA1UEAxMTQ2xpZW50NzE5Q2VydGM2YzFhODCCAiIwDQYJKoZIhvcNAQEB
BQADggIPADCCAgoCggIBALWPHfhBcUcYyt4ttR7obEkldqKUV6+GDNXZb0GFu2af
rR75485lmFwPxF5o6+3valbDQ78Uc2YkoAi971DNNDxZw6jiXXiu+DX3YKRzAClF
nLcOuYfSH3YnpLfTGfFfdNj6BPto8utfu5ZeBeVbcdzDWWtom7WiZWkhEtJn9/SJ
bzmV4O5qKEWDzQWLuHsSLzWNlTY1S8U60D7exANdO1vcfXkRaNtnEaR9VbjBihLg
PNGc5z77wqLq09JSYR9nPbDmtDU0RFw57VdqTlXChHM3Wl7dlPZtG5gaxjFzluWz
WRCUpeLEwSNb8QEUyblOVqXPYb9Qqj/7UY94Dwd0CHrgD7JrY7m6R0yoHsCJREPS
Pi+Oa6idindilRb6jl6/wr/dISQgYHU9hevMTTGoSKwwmxETkKzx5+XldIHMDqNr
d1GIdILfDLEVlI9XCdOsTnRDJLA1nqxu2DPb0sdX+kF1I2M/2FdWFqnYe0489M/9
mDG5o/dJJfOOv3Gqm5B+GY0aakGk/tLHL/AaSMknx3D1/nMdzoMyxQHe4Xs4C/CV
my3pfFTxXMyu5gwnOFHBje7/1gyD+lb8Wu9n3BydjySUBjUl4sZm8bnfznuuxcHc
gj/0J4S1LHgE0yyP+j7MHfrj919ax/belNKKQmcBtS6vYDv0V99kjnSCPszkgHw9
AgMBAAGjggFjMIIBXzAJBgNVHRMEAjAAMC0GCWCGSAGG+EIBDQQgFh5FYXN5LVJT
QSBHZW5lcmF0ZWQgQ2VydGlmaWNhdGUwHQYDVR0OBBYEFB7tXirhb/tPBdsbiknT
L4l5WUsoMIHhBgNVHSMEgdkwgdaAFBLNYATSoICecO3Gmbh7LMZS/RmhoYGypIGv
MIGsMQswCQYDVQQGEwJVUzELMAkGA1UECBMCT0gxETAPBgNVBAcTCENvbHVtYnVz
MRIwEAYDVQQKEwlWaWtpbmdWUE4xHTAbBgNVBAsTFE15T3JnYW5pemF0aW9uYWxV
bml0MRUwEwYDVQQDEwxWaWtpbmdWUE4gQ0ExEDAOBgNVBCkTB0Vhc3lSU0ExITAf
BgkqhkiG9w0BCQEWEm1lQG15aG9zdC5teWRvbWFpboIJAM81he6Avyo+MBMGA1Ud
JQQMMAoGCCsGAQUFBwMCMAsGA1UdDwQEAwIHgDANBgkqhkiG9w0BAQQFAAOCAgEA
Xtuw2gPgEoVIPhpCPcAZvA6i57P+C2AaLSPRG2yog5XYmnGw8IOer1tHeBnierV1
mksgxlKfUXtGdjleVieASW7KuDS0tnUujVp1WYM/tygesBH+MqNk30N1d7RX1AZJ
o4ITVOFBikIq0kqd3yrgponyC1L2oqGFjRwp0kyqOIuXbL5yAtEm4r7ik6OyUAzX
F3bivASe1IAFfmoRPZmhOlNbchxsAaPTephfQAof+41IDVX7weFA1GHxa4p70J+w
40dLsMcgaDdTUr3tW4fzwuJ4rSfBu6RoeJxhx/EVYr14LKAmhbYoi/AUNQ58pdv5
yYQXjlIcodovXmJ33TOtpIVKSAXIr8YJQVbdbZOgqYFnTOEGUsXgEaQ/xR0DTndI
vRIhGI0iMvxa3xu4kC2cz5lCGvHi/KHcnXgU7kOJfEWZroqUfuEyOFs4DSBeyqgF
QrmaJ7XxIkQHaDcGY2JizmORR0TC9xkQeznKiJZsAG1i49yEyKlDdgS1/fckazuC
KpYsvFrCuk2/XbJsu8Hv4G4kJGRPQ/bVX7vYzYe5iRd8lm+gWBj9qO+1yINiLhNO
uGZZe++UWwy1EzzID+ak2SlQcEnKInighaM+dkpop+Wr37k2l4vEulkrvifKBkVW
pBB5bKzeIQGW66X84lgGpYlNLTgpWZRLZpuvfs83KJo=
-----END CERTIFICATE-----
