Certificate:
    Data:
        Version: 3 (0x2)
        Serial Number: 12016 (0x2ef0)
    Signature Algorithm: sha256WithRSAEncryption
        Issuer: C=US, ST=OH, L=Columbus, O=VikingVPN, OU=MyOrganizationalUnit, CN=VikingVPN CA/name=EasyRSA/emailAddress=me@myhost.mydomain
        Validity
            Not Before: Oct 23 17:19:48 2017 GMT
            Not After : Oct 21 17:19:48 2027 GMT
        Subject: CN=Client3134Certbd0f5a
        Subject Public Key Info:
            Public Key Algorithm: rsaEncryption
                Public-Key: (4096 bit)
                Modulus:
                    00:ae:d7:83:4e:17:7c:d8:20:ea:90:92:d1:3d:47:
                    d6:15:eb:46:95:2b:e2:b1:8f:fe:59:8d:58:a1:56:
                    32:ea:96:5e:28:cc:69:be:4a:b0:26:c3:ad:46:58:
                    50:75:19:e4:05:5b:e7:42:b5:f2:16:37:5d:54:8c:
                    e1:1d:43:b7:24:35:a7:ab:bb:94:70:c1:6f:6b:b8:
                    cf:52:dd:8d:6b:ba:04:89:17:ec:53:51:2e:7e:0d:
                    aa:53:23:bd:21:97:6f:8e:c2:bb:a6:ad:b5:e5:48:
                    c5:65:f3:6c:32:c8:8a:0a:23:60:37:50:f2:55:10:
                    e9:31:e5:a5:72:ce:23:5b:44:6f:c0:14:fc:d5:86:
                    64:d4:95:2e:00:a8:16:00:6e:17:85:04:ea:71:d1:
                    64:88:6a:cb:5b:80:32:f6:cb:4d:29:c9:65:dd:b9:
                    a4:10:dc:db:a6:59:b3:ac:2b:ac:cd:88:65:0f:e4:
                    a6:27:64:c6:02:06:d5:08:b0:f8:39:d0:bb:b8:5d:
                    02:9e:b6:cc:a8:78:84:84:c0:a8:88:88:a8:1e:1c:
                    5c:f9:3e:4f:9d:63:bf:01:42:85:58:65:c4:ce:f0:
                    a8:d1:47:82:88:79:5b:5a:07:b3:58:90:1b:41:97:
                    d8:e7:b7:aa:a1:63:5c:82:68:e6:4f:c0:e0:3d:8b:
                    5a:59:aa:81:5e:32:64:ec:6e:22:f4:51:f4:13:1c:
                    2b:b6:d1:11:d5:39:14:28:96:59:3c:ff:41:32:cb:
                    67:95:36:6d:56:b3:f0:0b:fa:0a:59:de:6d:fb:fb:
                    6a:b5:da:70:ed:0c:89:6a:16:8f:86:b2:f2:17:76:
                    d4:f2:75:69:e0:b6:fe:be:61:ee:f6:f2:b1:77:46:
                    9e:c8:00:1e:95:56:15:34:16:55:d3:bc:67:85:6c:
                    51:52:c7:94:d1:45:7f:73:70:76:f0:62:43:2c:95:
                    5a:db:f3:62:f9:e5:4b:35:8f:61:da:04:eb:ff:6b:
                    58:15:f6:79:9e:2c:5b:85:0d:e7:f6:26:dd:af:05:
                    52:43:54:b5:33:09:a5:d0:d7:01:1a:02:8f:f9:04:
                    14:55:ae:49:e2:78:9c:6c:89:ce:02:c5:17:54:5a:
                    af:b1:bc:42:dd:a7:e6:0b:0a:a5:8c:21:19:a4:a9:
                    b4:6d:2d:3f:6e:5e:ce:a5:9d:60:23:ef:3d:e5:6c:
                    a2:dd:ef:73:97:10:56:47:d7:05:f0:d1:77:b0:9d:
                    cc:08:20:99:6b:34:b9:20:34:5f:ec:22:6f:51:da:
                    91:e0:8a:90:f0:56:e1:cf:f4:51:9f:e7:87:ea:cb:
                    03:42:f5:7a:cb:1c:eb:96:34:8c:09:2d:bd:03:9c:
                    bb:5d:17
                Exponent: 65537 (0x10001)
        X509v3 extensions:
            X509v3 Basic Constraints: 
                CA:FALSE
            Netscape Comment: 
                Easy-RSA Generated Certificate
            X509v3 Subject Key Identifier: 
                96:C7:A9:69:F8:27:AD:71:52:E3:C9:D8:46:A2:34:0D:E8:1F:54:A9
            X509v3 Authority Key Identifier: 
                keyid:12:CD:60:04:D2:A0:80:9E:70:ED:C6:99:B8:7B:2C:C6:52:FD:19:A1
                DirName:/C=US/ST=OH/L=Columbus/O=VikingVPN/OU=MyOrganizationalUnit/CN=VikingVPN CA/name=EasyRSA/emailAddress=me@myhost.mydomain
                serial:CF:35:85:EE:80:BF:2A:3E

            X509v3 Extended Key Usage: 
                TLS Web Client Authentication
            X509v3 Key Usage: 
                Digital Signature
    Signature Algorithm: sha256WithRSAEncryption
         7e:3d:12:84:71:2d:a8:32:90:77:75:26:56:54:f4:0c:2e:07:
         3d:ba:d4:4b:d2:64:07:d2:f9:18:43:f8:d5:a7:14:9a:cb:47:
         15:38:3b:2c:ba:6b:de:4c:ea:e7:d4:6d:49:bc:c7:eb:c7:32:
         29:54:e1:8d:57:de:c8:40:87:c4:2f:2f:e9:77:fc:98:8d:3e:
         db:7d:fb:3d:88:fb:eb:49:78:5d:86:2f:91:4a:b6:a3:51:6d:
         8d:cc:88:6a:2e:32:49:f7:65:fd:0a:73:c6:9a:9b:85:10:28:
         5b:1a:cb:d9:60:d9:af:9b:ac:0c:b4:df:89:ef:c2:e1:ab:e0:
         b6:4c:6a:23:b2:71:60:2b:cc:ee:84:b4:b5:7a:97:79:80:b4:
         f9:ca:0b:fe:ab:de:fc:a7:05:83:75:db:2e:28:54:3c:9f:10:
         1f:0b:28:31:0a:45:27:2d:d7:5c:d1:60:ea:66:2e:8e:cf:58:
         4a:67:57:c6:c4:34:90:70:b4:26:60:22:4c:52:fe:51:85:96:
         2c:41:4c:a0:3c:f7:bb:ed:d6:ef:29:f8:0a:79:f8:bc:dd:74:
         eb:14:33:4b:ca:e1:c1:08:7b:eb:14:b3:cb:0a:a6:2f:ff:e1:
         41:2c:0f:fb:fb:75:d7:7d:f1:c4:69:f2:34:e6:44:61:e9:e8:
         76:3c:f7:db:28:88:b0:ae:a3:a3:ae:10:21:4a:c7:c3:7d:5a:
         09:53:b8:70:ba:98:22:f9:71:f8:c6:e4:ce:04:6c:d2:9d:55:
         0c:cc:fb:65:46:5e:d8:3c:80:e2:d7:cf:2c:4a:dc:99:99:7c:
         8e:eb:6b:d4:2b:29:62:9a:e1:0c:e0:73:55:91:9b:d9:fe:1f:
         e5:04:6e:c6:c6:d5:f7:5f:ac:09:c8:e2:5a:cb:5b:77:73:6e:
         59:58:d4:4f:97:bb:f1:e5:29:a9:3e:dc:1b:13:86:5a:30:a8:
         58:d5:65:8a:e2:7d:34:53:94:82:9c:4e:c1:62:55:ad:d7:10:
         6e:b7:b2:3c:f9:39:17:5f:f6:f4:51:e3:70:79:9e:bb:f4:44:
         c3:71:14:e3:dc:0c:b3:10:1e:58:84:79:80:c0:bc:72:20:41:
         17:46:d3:d8:5e:79:be:d0:68:9f:77:8b:15:78:f8:fa:48:96:
         f6:04:d5:7e:68:ee:3a:6e:5c:37:0d:14:f3:6c:70:87:b3:60:
         f5:05:32:ae:78:41:f7:7e:f8:50:f6:7a:66:10:97:ee:8d:48:
         9e:af:7f:32:ea:99:43:54:f8:36:3b:85:37:65:ab:32:84:d7:
         84:99:bd:41:17:52:9b:bd:6c:fd:3c:0d:08:8c:3d:03:99:a8:
         00:3f:cf:a3:0d:af:f1:99
-----BEGIN CERTIFICATE-----
MIIGrTCCBJWgAwIBAgICLvAwDQYJKoZIhvcNAQELBQAwgawxCzAJBgNVBAYTAlVT
MQswCQYDVQQIEwJPSDERMA8GA1UEBxMIQ29sdW1idXMxEjAQBgNVBAoTCVZpa2lu
Z1ZQTjEdMBsGA1UECxMUTXlPcmdhbml6YXRpb25hbFVuaXQxFTATBgNVBAMTDFZp
a2luZ1ZQTiBDQTEQMA4GA1UEKRMHRWFzeVJTQTEhMB8GCSqGSIb3DQEJARYSbWVA
bXlob3N0Lm15ZG9tYWluMB4XDTE3MTAyMzE3MTk0OFoXDTI3MTAyMTE3MTk0OFow
HzEdMBsGA1UEAxMUQ2xpZW50MzEzNENlcnRiZDBmNWEwggIiMA0GCSqGSIb3DQEB
AQUAA4ICDwAwggIKAoICAQCu14NOF3zYIOqQktE9R9YV60aVK+Kxj/5ZjVihVjLq
ll4ozGm+SrAmw61GWFB1GeQFW+dCtfIWN11UjOEdQ7ckNaeru5RwwW9ruM9S3Y1r
ugSJF+xTUS5+DapTI70hl2+OwrumrbXlSMVl82wyyIoKI2A3UPJVEOkx5aVyziNb
RG/AFPzVhmTUlS4AqBYAbheFBOpx0WSIastbgDL2y00pyWXduaQQ3NumWbOsK6zN
iGUP5KYnZMYCBtUIsPg50Lu4XQKetsyoeISEwKiIiKgeHFz5Pk+dY78BQoVYZcTO
8KjRR4KIeVtaB7NYkBtBl9jnt6qhY1yCaOZPwOA9i1pZqoFeMmTsbiL0UfQTHCu2
0RHVORQollk8/0Eyy2eVNm1Ws/AL+gpZ3m37+2q12nDtDIlqFo+GsvIXdtTydWng
tv6+Ye728rF3Rp7IAB6VVhU0FlXTvGeFbFFSx5TRRX9zcHbwYkMslVrb82L55Us1
j2HaBOv/a1gV9nmeLFuFDef2Jt2vBVJDVLUzCaXQ1wEaAo/5BBRVrknieJxsic4C
xRdUWq+xvELdp+YLCqWMIRmkqbRtLT9uXs6lnWAj7z3lbKLd73OXEFZH1wXw0Xew
ncwIIJlrNLkgNF/sIm9R2pHgipDwVuHP9FGf54fqywNC9XrLHOuWNIwJLb0DnLtd
FwIDAQABo4IBYzCCAV8wCQYDVR0TBAIwADAtBglghkgBhvhCAQ0EIBYeRWFzeS1S
U0EgR2VuZXJhdGVkIENlcnRpZmljYXRlMB0GA1UdDgQWBBSWx6lp+CetcVLjydhG
ojQN6B9UqTCB4QYDVR0jBIHZMIHWgBQSzWAE0qCAnnDtxpm4eyzGUv0ZoaGBsqSB
rzCBrDELMAkGA1UEBhMCVVMxCzAJBgNVBAgTAk9IMREwDwYDVQQHEwhDb2x1bWJ1
czESMBAGA1UEChMJVmlraW5nVlBOMR0wGwYDVQQLExRNeU9yZ2FuaXphdGlvbmFs
VW5pdDEVMBMGA1UEAxMMVmlraW5nVlBOIENBMRAwDgYDVQQpEwdFYXN5UlNBMSEw
HwYJKoZIhvcNAQkBFhJtZUBteWhvc3QubXlkb21haW6CCQDPNYXugL8qPjATBgNV
HSUEDDAKBggrBgEFBQcDAjALBgNVHQ8EBAMCB4AwDQYJKoZIhvcNAQELBQADggIB
AH49EoRxLagykHd1JlZU9AwuBz261EvSZAfS+RhD+NWnFJrLRxU4Oyy6a95M6ufU
bUm8x+vHMilU4Y1X3shAh8QvL+l3/JiNPtt9+z2I++tJeF2GL5FKtqNRbY3MiGou
Mkn3Zf0Kc8aam4UQKFsay9lg2a+brAy034nvwuGr4LZMaiOycWArzO6EtLV6l3mA
tPnKC/6r3vynBYN12y4oVDyfEB8LKDEKRSct11zRYOpmLo7PWEpnV8bENJBwtCZg
IkxS/lGFlixBTKA897vt1u8p+Ap5+LzddOsUM0vK4cEIe+sUs8sKpi//4UEsD/v7
ddd98cRp8jTmRGHp6HY899soiLCuo6OuECFKx8N9WglTuHC6mCL5cfjG5M4EbNKd
VQzM+2VGXtg8gOLXzyxK3JmZfI7ra9QrKWKa4Qzgc1WRm9n+H+UEbsbG1fdfrAnI
4lrLW3dzbllY1E+Xu/HlKak+3BsThlowqFjVZYrifTRTlIKcTsFiVa3XEG63sjz5
ORdf9vRR43B5nrv0RMNxFOPcDLMQHliEeYDAvHIgQRdG09heeb7QaJ93ixV4+PpI
lvYE1X5o7jpuXDcNFPNscIezYPUFMq54Qfd++FD2emYQl+6NSJ6vfzLqmUNU+DY7
hTdlqzKE14SZvUEXUpu9bP08DQiMPQOZqAA/z6MNr/GZ
-----END CERTIFICATE-----
