Certificate:
    Data:
        Version: 3 (0x2)
        Serial Number: 8607 (0x219f)
    Signature Algorithm: sha256WithRSAEncryption
        Issuer: C=US, ST=OH, L=Columbus, O=VikingVPN, OU=MyOrganizationalUnit, CN=VikingVPN CA/name=EasyRSA/emailAddress=me@myhost.mydomain
        Validity
            Not Before: Jul 31 13:07:48 2016 GMT
            Not After : Jul 29 13:07:48 2026 GMT
        Subject: CN=Client1882Cert1b2512
        Subject Public Key Info:
            Public Key Algorithm: rsaEncryption
                Public-Key: (4096 bit)
                Modulus:
                    00:d0:18:8a:3d:f9:99:da:b0:77:e6:f2:2e:85:67:
                    17:ac:42:ce:89:6f:29:cf:38:7f:34:05:75:5b:62:
                    d5:b8:fb:b1:d6:ff:fa:8b:f8:95:b2:72:99:59:c8:
                    aa:23:ed:af:c0:09:d5:ea:4c:71:ed:16:97:0d:2d:
                    bf:e7:e0:d2:1d:fb:20:82:f7:76:d5:82:43:5d:9e:
                    17:b8:ea:3a:18:e6:20:66:96:3a:df:0b:de:a1:c4:
                    85:64:33:c6:68:42:bf:b2:6a:33:33:40:a3:d9:48:
                    eb:86:ef:b8:eb:06:17:39:9e:8f:e7:95:de:60:cf:
                    e8:6d:a1:87:0c:79:24:84:1b:75:2e:57:33:74:13:
                    6c:ce:31:bd:46:f1:03:46:c2:6d:a6:85:86:94:e0:
                    b9:7c:d0:9b:71:0c:01:cb:4c:2e:a2:4a:2c:c5:3c:
                    e3:fa:a3:fa:1c:e7:d4:90:49:f5:f8:32:81:b6:36:
                    cd:0e:1f:ef:8b:a5:ae:54:7f:34:b5:01:22:6d:ca:
                    5b:19:b1:3d:b4:eb:6d:b1:14:67:7d:74:8b:ca:42:
                    96:80:c1:fd:f4:02:8b:42:4d:f5:43:a2:fe:01:db:
                    f5:b7:1e:de:66:cf:78:7d:cc:d2:db:a1:cd:9d:fb:
                    05:79:e7:8c:8c:62:05:ea:da:b8:d9:b9:e1:31:f1:
                    bf:b4:13:6c:55:ab:3f:28:d1:49:79:f4:67:63:c6:
                    96:39:61:b8:0e:a9:9b:bf:aa:29:97:10:bd:6d:f9:
                    30:4d:8d:4d:48:55:cd:86:0d:8a:c3:d2:df:84:39:
                    5e:1f:31:3a:0f:91:a9:47:38:e8:99:a2:44:ee:04:
                    1d:58:f8:d7:cc:c2:d7:e0:fc:df:7f:9e:d4:9e:a7:
                    4c:bc:bc:ac:e4:c4:34:2e:73:d3:e6:fb:d2:95:7f:
                    06:cc:7b:f7:f3:7f:1c:e2:69:77:ed:83:b9:40:23:
                    2b:e9:40:fb:cf:04:5d:ca:ba:1e:e2:c5:9d:76:d5:
                    cf:e8:0e:8c:2f:41:9c:47:d9:d8:9c:e2:32:c1:a9:
                    c8:4c:50:7c:fa:99:18:1a:24:0e:7f:28:15:c8:2b:
                    b0:df:2f:4a:8e:51:8b:cf:d1:1f:ae:88:d1:08:d6:
                    39:7e:df:78:de:40:13:d6:04:87:a3:ee:bc:9a:a3:
                    66:b7:38:86:b3:a7:dd:26:ed:90:af:cf:05:51:41:
                    ef:39:e3:74:0d:52:58:07:25:22:48:ac:f0:fc:21:
                    d9:d1:61:32:33:1f:3f:0f:91:89:0a:ad:98:6e:d8:
                    6a:8c:08:19:f8:9b:11:29:10:a3:ab:2f:db:13:b2:
                    37:34:83:58:6b:51:61:5b:c2:07:ba:a8:f1:16:3b:
                    77:47:1f
                Exponent: 65537 (0x10001)
        X509v3 extensions:
            X509v3 Basic Constraints: 
                CA:FALSE
            Netscape Comment: 
                Easy-RSA Generated Certificate
            X509v3 Subject Key Identifier: 
                6E:11:81:2B:20:E7:C3:C2:86:3D:99:FB:8A:AC:9B:09:07:FE:C7:C4
            X509v3 Authority Key Identifier: 
                keyid:12:CD:60:04:D2:A0:80:9E:70:ED:C6:99:B8:7B:2C:C6:52:FD:19:A1
                DirName:/C=US/ST=OH/L=Columbus/O=VikingVPN/OU=MyOrganizationalUnit/CN=VikingVPN CA/name=EasyRSA/emailAddress=me@myhost.mydomain
                serial:CF:35:85:EE:80:BF:2A:3E

            X509v3 Extended Key Usage: 
                TLS Web Client Authentication
            X509v3 Key Usage: 
                Digital Signature
    Signature Algorithm: sha256WithRSAEncryption
         18:1a:fb:4e:4d:e1:3b:4e:64:45:d3:0b:2d:4d:6a:00:68:11:
         98:e4:55:12:c8:8a:f7:a9:8b:9c:de:61:e0:5a:9d:61:5b:24:
         d0:6b:ba:6d:45:a3:49:22:b7:c0:19:e5:0a:16:3c:a8:81:98:
         ac:e6:01:10:d8:f0:94:13:a2:7d:1e:ac:62:fb:a5:8a:80:d0:
         c4:ff:63:9c:d5:9a:d3:3c:3b:27:9e:28:c3:84:b9:20:df:4c:
         17:5d:ed:c7:1b:de:4f:36:8a:bb:5e:bf:38:53:77:fc:d4:b0:
         47:93:97:33:ad:82:59:45:4b:51:fb:8c:d0:d9:7d:eb:50:a4:
         09:52:73:25:16:f0:16:e4:f2:ac:13:8c:37:dd:fd:3d:b0:b7:
         9b:52:57:a8:f2:80:1d:b9:a6:7a:8c:65:d6:4f:5c:a3:f8:db:
         be:39:9d:47:78:69:cc:a6:e7:6e:e2:e2:44:73:bc:6e:32:d9:
         c1:9e:f2:7d:0f:62:28:7e:cc:46:d0:df:23:df:01:a9:2f:cc:
         5b:14:f5:51:7b:3b:17:2c:cb:39:73:94:9c:bc:66:9b:8e:bd:
         30:cc:27:b9:fc:e4:17:84:90:9c:89:41:e3:8b:4b:a2:b7:dc:
         a2:52:32:3c:25:c0:6d:b4:b8:4f:04:39:09:26:8e:53:0c:09:
         f9:70:79:d8:45:5b:e0:19:5a:df:2f:de:a4:7d:ce:06:fd:f9:
         99:8c:9a:f7:db:33:7c:85:4b:9c:b7:59:e4:2b:1e:b5:b8:18:
         a3:6e:c6:c1:7b:0c:ce:0a:17:3c:8c:b4:f5:27:ba:bc:33:57:
         b7:86:3a:f2:07:95:12:e0:09:09:54:cb:48:4f:28:55:bc:24:
         b6:d2:10:96:d2:c3:b3:25:c9:3e:4a:92:d3:67:75:d8:67:94:
         13:39:a3:3f:f7:e6:89:1e:45:34:54:45:f5:68:6e:b9:bf:a9:
         47:05:5e:0d:d4:ed:08:35:5a:7d:a0:88:d2:a2:f3:12:27:6d:
         39:9f:22:41:bd:0a:f8:7e:07:e3:c2:12:1c:a4:f5:39:0d:d3:
         bd:d8:5e:8c:d7:20:1d:9a:ad:5d:e4:24:a2:6b:2d:ed:d5:17:
         5f:dd:f6:78:8f:d0:51:27:11:4d:36:83:48:ff:44:d2:0c:e5:
         e0:01:b6:c8:be:61:c9:3d:83:9e:43:95:27:e5:3d:12:c4:39:
         83:d2:8a:17:ba:a5:9d:1f:1c:60:f6:fc:6d:77:d7:66:f9:74:
         c7:dc:df:10:13:ce:12:c7:75:b7:18:08:fc:ce:fe:97:74:bd:
         6e:25:d2:47:1e:7b:9b:fe:f2:ae:36:98:16:e3:70:5f:21:d9:
         47:8e:d9:d6:7f:67:e1:ea
-----BEGIN CERTIFICATE-----
MIIGrTCCBJWgAwIBAgICIZ8wDQYJKoZIhvcNAQELBQAwgawxCzAJBgNVBAYTAlVT
MQswCQYDVQQIEwJPSDERMA8GA1UEBxMIQ29sdW1idXMxEjAQBgNVBAoTCVZpa2lu
Z1ZQTjEdMBsGA1UECxMUTXlPcmdhbml6YXRpb25hbFVuaXQxFTATBgNVBAMTDFZp
a2luZ1ZQTiBDQTEQMA4GA1UEKRMHRWFzeVJTQTEhMB8GCSqGSIb3DQEJARYSbWVA
bXlob3N0Lm15ZG9tYWluMB4XDTE2MDczMTEzMDc0OFoXDTI2MDcyOTEzMDc0OFow
HzEdMBsGA1UEAxMUQ2xpZW50MTg4MkNlcnQxYjI1MTIwggIiMA0GCSqGSIb3DQEB
AQUAA4ICDwAwggIKAoICAQDQGIo9+ZnasHfm8i6FZxesQs6JbynPOH80BXVbYtW4
+7HW//qL+JWycplZyKoj7a/ACdXqTHHtFpcNLb/n4NId+yCC93bVgkNdnhe46joY
5iBmljrfC96hxIVkM8ZoQr+yajMzQKPZSOuG77jrBhc5no/nld5gz+htoYcMeSSE
G3UuVzN0E2zOMb1G8QNGwm2mhYaU4Ll80JtxDAHLTC6iSizFPOP6o/oc59SQSfX4
MoG2Ns0OH++Lpa5UfzS1ASJtylsZsT20622xFGd9dIvKQpaAwf30AotCTfVDov4B
2/W3Ht5mz3h9zNLboc2d+wV554yMYgXq2rjZueEx8b+0E2xVqz8o0Ul59GdjxpY5
YbgOqZu/qimXEL1t+TBNjU1IVc2GDYrD0t+EOV4fMToPkalHOOiZokTuBB1Y+NfM
wtfg/N9/ntSep0y8vKzkxDQuc9Pm+9KVfwbMe/fzfxziaXftg7lAIyvpQPvPBF3K
uh7ixZ121c/oDowvQZxH2dic4jLBqchMUHz6mRgaJA5/KBXIK7DfL0qOUYvP0R+u
iNEI1jl+33jeQBPWBIej7ryao2a3OIazp90m7ZCvzwVRQe8543QNUlgHJSJIrPD8
IdnRYTIzHz8PkYkKrZhu2GqMCBn4mxEpEKOrL9sTsjc0g1hrUWFbwge6qPEWO3dH
HwIDAQABo4IBYzCCAV8wCQYDVR0TBAIwADAtBglghkgBhvhCAQ0EIBYeRWFzeS1S
U0EgR2VuZXJhdGVkIENlcnRpZmljYXRlMB0GA1UdDgQWBBRuEYErIOfDwoY9mfuK
rJsJB/7HxDCB4QYDVR0jBIHZMIHWgBQSzWAE0qCAnnDtxpm4eyzGUv0ZoaGBsqSB
rzCBrDELMAkGA1UEBhMCVVMxCzAJBgNVBAgTAk9IMREwDwYDVQQHEwhDb2x1bWJ1
czESMBAGA1UEChMJVmlraW5nVlBOMR0wGwYDVQQLExRNeU9yZ2FuaXphdGlvbmFs
VW5pdDEVMBMGA1UEAxMMVmlraW5nVlBOIENBMRAwDgYDVQQpEwdFYXN5UlNBMSEw
HwYJKoZIhvcNAQkBFhJtZUBteWhvc3QubXlkb21haW6CCQDPNYXugL8qPjATBgNV
HSUEDDAKBggrBgEFBQcDAjALBgNVHQ8EBAMCB4AwDQYJKoZIhvcNAQELBQADggIB
ABga+05N4TtOZEXTCy1NagBoEZjkVRLIivepi5zeYeBanWFbJNBrum1Fo0kit8AZ
5QoWPKiBmKzmARDY8JQTon0erGL7pYqA0MT/Y5zVmtM8OyeeKMOEuSDfTBdd7ccb
3k82irtevzhTd/zUsEeTlzOtgllFS1H7jNDZfetQpAlScyUW8Bbk8qwTjDfd/T2w
t5tSV6jygB25pnqMZdZPXKP42745nUd4acym527i4kRzvG4y2cGe8n0PYih+zEbQ
3yPfAakvzFsU9VF7OxcsyzlzlJy8ZpuOvTDMJ7n85BeEkJyJQeOLS6K33KJSMjwl
wG20uE8EOQkmjlMMCflwedhFW+AZWt8v3qR9zgb9+ZmMmvfbM3yFS5y3WeQrHrW4
GKNuxsF7DM4KFzyMtPUnurwzV7eGOvIHlRLgCQlUy0hPKFW8JLbSEJbSw7MlyT5K
ktNnddhnlBM5oz/35okeRTRURfVobrm/qUcFXg3U7Qg1Wn2giNKi8xInbTmfIkG9
Cvh+B+PCEhyk9TkN073YXozXIB2arV3kJKJrLe3VF1/d9niP0FEnEU02g0j/RNIM
5eABtsi+Yck9g55DlSflPRLEOYPSihe6pZ0fHGD2/G1312b5dMfc3xATzhLHdbcY
CPzO/pd0vW4l0kcee5v+8q42mBbjcF8h2UeO2dZ/Z+Hq
-----END CERTIFICATE-----
