Certificate:
    Data:
        Version: 3 (0x2)
        Serial Number: 10777 (0x2a19)
    Signature Algorithm: sha256WithRSAEncryption
        Issuer: C=US, ST=OH, L=Columbus, O=VikingVPN, OU=MyOrganizationalUnit, CN=VikingVPN CA/name=EasyRSA/emailAddress=me@myhost.mydomain
        Validity
            Not Before: Apr 24 06:34:05 2017 GMT
            Not After : Apr 22 06:34:05 2027 GMT
        Subject: CN=Client2307Certf16f64
        Subject Public Key Info:
            Public Key Algorithm: rsaEncryption
                Public-Key: (4096 bit)
                Modulus:
                    00:e8:83:3f:83:97:77:c8:a7:31:7c:5c:ca:e0:4c:
                    56:92:8c:6a:b8:50:55:93:c0:9d:67:48:9e:dd:71:
                    52:b5:55:22:2d:41:5f:27:57:ea:fd:08:d9:40:bc:
                    bc:ef:4f:b5:1c:91:e9:9c:ba:e5:e3:86:ca:28:db:
                    7b:b8:c9:0b:6a:e6:6b:2c:12:23:fb:24:f9:00:63:
                    ad:bb:30:0f:ec:ca:3c:cc:ff:3e:b8:b4:31:97:f2:
                    71:f7:17:3e:e5:64:b2:a6:86:5e:56:ff:e8:0e:17:
                    1f:a2:8b:8d:cd:f1:23:ac:75:09:31:c0:3c:a5:68:
                    2c:4a:70:15:c2:35:ea:96:f0:87:de:89:c2:2c:b6:
                    dd:44:08:7c:0b:43:5c:5c:c2:3a:c1:22:4c:34:8a:
                    1b:e3:55:45:04:0d:7a:b5:6e:62:a7:ec:22:93:4b:
                    1a:be:99:a4:e9:54:2a:81:8b:1a:fe:92:7e:17:cd:
                    b6:d7:7a:3b:14:51:cd:06:1a:50:a3:37:f6:86:56:
                    d9:86:a9:14:9e:4c:f3:8c:70:d8:8d:16:f4:97:f0:
                    68:b9:24:a4:d8:8d:dd:39:28:dd:72:c4:9f:fc:97:
                    bf:38:d6:dd:e0:19:84:a6:0d:97:c3:2c:42:fe:dd:
                    d1:21:41:9d:01:68:1b:78:4d:40:05:5e:0e:f5:e2:
                    9d:89:1f:8c:92:3a:0d:9c:c5:bf:8a:94:ed:a2:00:
                    33:83:df:9b:90:62:70:bc:87:30:d8:82:6c:0d:60:
                    5a:c2:ca:73:c2:a2:bd:da:86:d6:ba:ed:db:53:d7:
                    98:1d:47:d7:49:22:56:5a:77:34:21:24:16:2d:0d:
                    e4:63:55:92:01:e5:b6:b8:9e:dc:5d:56:2f:78:d7:
                    e5:01:e1:0a:38:22:cf:8a:48:bb:2e:cc:76:7a:20:
                    8f:1d:6c:f5:0b:19:49:4d:5f:79:25:18:cf:04:a7:
                    6a:38:9e:f0:42:98:02:35:5a:c5:7d:c5:bd:21:4f:
                    6a:a9:f0:3a:c8:87:d9:24:6a:17:9c:ac:73:b7:bf:
                    a7:b8:18:6b:94:91:82:df:26:30:d4:b9:96:0d:aa:
                    e6:59:a6:c2:0c:7f:48:ea:9d:b8:1f:c4:f9:0b:6c:
                    71:c8:0e:90:d4:94:9e:b1:e7:6d:fe:2f:01:7a:d3:
                    02:a6:5d:28:ec:4d:b5:97:d8:73:ce:d7:40:5e:b5:
                    51:61:9a:dc:7c:f8:6c:30:32:1c:cd:e4:19:81:25:
                    d7:9c:62:f6:e9:dc:78:60:8a:e4:9c:25:1f:d2:03:
                    30:f1:56:3f:1f:ed:82:c9:95:f5:50:d5:99:b7:bb:
                    59:63:6c:18:7f:6d:44:7e:84:74:c7:7e:7f:22:20:
                    0a:37:0b
                Exponent: 65537 (0x10001)
        X509v3 extensions:
            X509v3 Basic Constraints: 
                CA:FALSE
            Netscape Comment: 
                Easy-RSA Generated Certificate
            X509v3 Subject Key Identifier: 
                E0:65:91:C5:BA:4A:B8:43:D8:18:99:07:3F:A8:27:B5:26:92:A5:E9
            X509v3 Authority Key Identifier: 
                keyid:12:CD:60:04:D2:A0:80:9E:70:ED:C6:99:B8:7B:2C:C6:52:FD:19:A1
                DirName:/C=US/ST=OH/L=Columbus/O=VikingVPN/OU=MyOrganizationalUnit/CN=VikingVPN CA/name=EasyRSA/emailAddress=me@myhost.mydomain
                serial:CF:35:85:EE:80:BF:2A:3E

            X509v3 Extended Key Usage: 
                TLS Web Client Authentication
            X509v3 Key Usage: 
                Digital Signature
    Signature Algorithm: sha256WithRSAEncryption
         45:4d:74:32:3f:f8:7d:43:2b:1c:d6:4c:f4:ac:22:62:76:77:
         1c:9d:19:1a:05:02:f4:74:f9:b0:2a:32:53:bd:ac:bf:b8:33:
         a9:a2:a3:dd:47:8f:a9:25:9e:1b:dd:59:b9:e5:e7:3c:c1:46:
         b7:e8:eb:c7:cd:b7:d0:d6:8a:03:fa:45:40:77:07:20:18:4c:
         e6:aa:df:73:05:91:87:bb:e2:fc:f8:d9:4f:80:60:77:6a:d0:
         d8:8c:b2:a3:19:61:af:02:e0:f3:84:28:e6:f2:7a:a6:5c:95:
         f3:4d:37:17:f6:25:61:85:97:b5:9f:97:70:74:f4:9d:64:10:
         42:b0:40:57:e5:d4:50:22:f9:2e:62:78:d7:bc:c7:e5:ae:eb:
         9a:fe:80:f3:4e:53:b9:e3:81:70:35:9f:75:86:a1:79:ff:d7:
         eb:d9:b8:51:56:99:27:79:4a:69:71:c4:2d:d4:8d:4f:19:1b:
         5a:6a:54:a8:79:57:c7:45:16:d6:54:fd:be:58:66:b6:83:a5:
         53:1e:2b:8d:dd:85:1b:03:50:4e:0b:35:58:a4:90:29:5e:42:
         df:84:8a:48:2f:91:87:47:97:c0:eb:2b:b7:cf:e8:63:c3:46:
         10:4c:aa:16:04:b6:ca:19:55:ea:38:3c:4b:db:53:24:50:08:
         1d:92:21:b4:51:2e:c9:e5:e1:18:49:4a:0a:a2:04:fb:59:4d:
         95:ba:99:92:68:fe:b0:fd:2a:98:3f:37:65:7f:c3:0a:7d:a9:
         52:09:e1:57:2c:30:c9:3a:df:eb:a4:ec:ae:75:f3:8c:b6:40:
         25:b5:96:0c:86:75:f8:7a:13:29:11:2c:40:de:98:12:67:15:
         98:9d:3e:ac:b3:18:b4:37:8f:16:b5:2a:8e:12:66:5d:a5:80:
         ed:a6:af:13:11:78:a9:29:00:fe:11:53:9d:71:4d:7c:f0:9c:
         c3:31:35:f9:2d:00:d4:22:97:1a:6a:e9:19:73:75:b7:82:da:
         4e:e7:43:de:68:09:f7:2a:71:1b:30:e8:7c:b9:70:8c:7c:5d:
         12:6d:d1:3c:38:d3:e4:64:79:73:ab:6f:9e:f7:d4:58:22:44:
         94:96:e0:09:cc:13:e0:1f:15:76:26:de:61:17:b5:50:49:0c:
         14:b6:0c:2c:0a:3c:f1:26:1e:7c:da:d8:ec:5d:31:fd:ec:4a:
         5b:80:5a:be:2b:02:f4:83:c9:76:bb:56:33:2d:80:d8:45:f0:
         9d:07:34:14:79:53:6b:14:e1:ea:be:c0:05:89:d4:c6:7b:23:
         fe:c6:02:70:b1:59:bc:cb:b9:92:5d:3f:db:1e:37:1d:27:56:
         ee:ad:4e:9a:7f:6d:0c:9f
-----BEGIN CERTIFICATE-----
MIIGrTCCBJWgAwIBAgICKhkwDQYJKoZIhvcNAQELBQAwgawxCzAJBgNVBAYTAlVT
MQswCQYDVQQIEwJPSDERMA8GA1UEBxMIQ29sdW1idXMxEjAQBgNVBAoTCVZpa2lu
Z1ZQTjEdMBsGA1UECxMUTXlPcmdhbml6YXRpb25hbFVuaXQxFTATBgNVBAMTDFZp
a2luZ1ZQTiBDQTEQMA4GA1UEKRMHRWFzeVJTQTEhMB8GCSqGSIb3DQEJARYSbWVA
bXlob3N0Lm15ZG9tYWluMB4XDTE3MDQyNDA2MzQwNVoXDTI3MDQyMjA2MzQwNVow
HzEdMBsGA1UEAxMUQ2xpZW50MjMwN0NlcnRmMTZmNjQwggIiMA0GCSqGSIb3DQEB
AQUAA4ICDwAwggIKAoICAQDogz+Dl3fIpzF8XMrgTFaSjGq4UFWTwJ1nSJ7dcVK1
VSItQV8nV+r9CNlAvLzvT7UckemcuuXjhsoo23u4yQtq5mssEiP7JPkAY627MA/s
yjzM/z64tDGX8nH3Fz7lZLKmhl5W/+gOFx+ii43N8SOsdQkxwDylaCxKcBXCNeqW
8IfeicIstt1ECHwLQ1xcwjrBIkw0ihvjVUUEDXq1bmKn7CKTSxq+maTpVCqBixr+
kn4XzbbXejsUUc0GGlCjN/aGVtmGqRSeTPOMcNiNFvSX8Gi5JKTYjd05KN1yxJ/8
l7841t3gGYSmDZfDLEL+3dEhQZ0BaBt4TUAFXg714p2JH4ySOg2cxb+KlO2iADOD
35uQYnC8hzDYgmwNYFrCynPCor3ahta67dtT15gdR9dJIlZadzQhJBYtDeRjVZIB
5ba4ntxdVi941+UB4Qo4Is+KSLsuzHZ6II8dbPULGUlNX3klGM8Ep2o4nvBCmAI1
WsV9xb0hT2qp8DrIh9kkahecrHO3v6e4GGuUkYLfJjDUuZYNquZZpsIMf0jqnbgf
xPkLbHHIDpDUlJ6x523+LwF60wKmXSjsTbWX2HPO10BetVFhmtx8+GwwMhzN5BmB
JdecYvbp3HhgiuScJR/SAzDxVj8f7YLJlfVQ1Zm3u1ljbBh/bUR+hHTHfn8iIAo3
CwIDAQABo4IBYzCCAV8wCQYDVR0TBAIwADAtBglghkgBhvhCAQ0EIBYeRWFzeS1S
U0EgR2VuZXJhdGVkIENlcnRpZmljYXRlMB0GA1UdDgQWBBTgZZHFukq4Q9gYmQc/
qCe1JpKl6TCB4QYDVR0jBIHZMIHWgBQSzWAE0qCAnnDtxpm4eyzGUv0ZoaGBsqSB
rzCBrDELMAkGA1UEBhMCVVMxCzAJBgNVBAgTAk9IMREwDwYDVQQHEwhDb2x1bWJ1
czESMBAGA1UEChMJVmlraW5nVlBOMR0wGwYDVQQLExRNeU9yZ2FuaXphdGlvbmFs
VW5pdDEVMBMGA1UEAxMMVmlraW5nVlBOIENBMRAwDgYDVQQpEwdFYXN5UlNBMSEw
HwYJKoZIhvcNAQkBFhJtZUBteWhvc3QubXlkb21haW6CCQDPNYXugL8qPjATBgNV
HSUEDDAKBggrBgEFBQcDAjALBgNVHQ8EBAMCB4AwDQYJKoZIhvcNAQELBQADggIB
AEVNdDI/+H1DKxzWTPSsImJ2dxydGRoFAvR0+bAqMlO9rL+4M6mio91Hj6klnhvd
Wbnl5zzBRrfo68fNt9DWigP6RUB3ByAYTOaq33MFkYe74vz42U+AYHdq0NiMsqMZ
Ya8C4POEKObyeqZclfNNNxf2JWGFl7Wfl3B09J1kEEKwQFfl1FAi+S5ieNe8x+Wu
65r+gPNOU7njgXA1n3WGoXn/1+vZuFFWmSd5SmlxxC3UjU8ZG1pqVKh5V8dFFtZU
/b5YZraDpVMeK43dhRsDUE4LNVikkCleQt+EikgvkYdHl8DrK7fP6GPDRhBMqhYE
tsoZVeo4PEvbUyRQCB2SIbRRLsnl4RhJSgqiBPtZTZW6mZJo/rD9Kpg/N2V/wwp9
qVIJ4VcsMMk63+uk7K5184y2QCW1lgyGdfh6EykRLEDemBJnFZidPqyzGLQ3jxa1
Ko4SZl2lgO2mrxMReKkpAP4RU51xTXzwnMMxNfktANQilxpq6RlzdbeC2k7nQ95o
CfcqcRsw6Hy5cIx8XRJt0Tw40+RkeXOrb5731FgiRJSW4AnME+AfFXYm3mEXtVBJ
DBS2DCwKPPEmHnza2OxdMf3sSluAWr4rAvSDyXa7VjMtgNhF8J0HNBR5U2sU4eq+
wAWJ1MZ7I/7GAnCxWbzLuZJdP9seNx0nVu6tTpp/bQyf
-----END CERTIFICATE-----
