Certificate:
    Data:
        Version: 3 (0x2)
        Serial Number: 1705 (0x6a9)
    Signature Algorithm: md5WithRSAEncryption
        Issuer: C=US, ST=OH, L=Columbus, O=VikingVPN, OU=MyOrganizationalUnit, CN=VikingVPN CA/name=EasyRSA/emailAddress=me@myhost.mydomain
        Validity
            Not Before: Apr 23 15:58:27 2014 GMT
            Not After : Apr 20 15:58:27 2024 GMT
        Subject: CN=Client607Cert8130b3
        Subject Public Key Info:
            Public Key Algorithm: rsaEncryption
                Public-Key: (4096 bit)
                Modulus:
                    00:da:5c:00:f5:db:78:f1:ef:55:dd:3b:4c:03:3e:
                    70:a8:3a:51:66:c6:c7:06:e9:5a:b0:f9:b7:e0:ac:
                    63:7b:61:a9:6a:90:dd:a2:8d:c1:2b:ae:c2:7e:be:
                    67:fe:39:0e:e3:ea:c8:8b:08:dc:21:b0:fd:07:69:
                    b4:fc:d6:c0:dd:02:d9:30:72:34:f3:52:bf:02:ac:
                    a7:32:0f:7f:36:ff:56:f8:8f:61:c7:61:fc:5b:c8:
                    6a:47:41:c7:eb:ea:31:82:50:de:46:2f:1f:d1:94:
                    32:48:8d:d0:b9:86:2d:e2:a1:be:66:92:cd:fa:e1:
                    d9:35:f4:d8:f3:4b:8f:04:60:64:3d:98:d4:ef:62:
                    6f:c5:74:f6:95:f2:81:8d:d1:6a:02:37:83:59:50:
                    a8:47:f1:3b:2b:02:4f:b4:81:0b:b6:6b:45:c0:0f:
                    97:8e:94:2d:20:8c:84:91:d6:ef:bc:86:6e:b0:48:
                    8b:8b:65:a6:08:a3:0a:a0:d0:26:71:b2:cf:63:fa:
                    6c:37:60:70:88:a5:cd:e3:ad:e8:5c:ea:de:ff:75:
                    2f:67:da:c2:3c:87:b9:d0:29:39:05:1f:38:2e:24:
                    7a:4f:bc:9c:26:1b:9d:ed:31:9b:e0:e5:22:dc:3f:
                    f7:c2:1c:4d:12:42:18:91:34:36:7d:68:01:28:30:
                    eb:21:9f:ac:b5:63:d4:75:bb:41:d6:5c:b3:74:fc:
                    07:56:92:a2:df:43:62:d2:a7:3f:c0:e2:c7:09:d1:
                    ea:8a:99:91:3d:36:88:fb:86:53:2c:0e:c9:0d:b5:
                    79:98:59:a0:d8:32:41:08:02:bc:18:b4:04:47:c9:
                    2e:08:a1:a9:a0:ea:e3:34:5f:24:c7:89:80:48:1b:
                    b0:c4:1f:06:af:16:1f:4c:6f:1a:48:b7:73:8e:a0:
                    0a:72:1b:a8:8f:68:cb:af:86:0a:88:f4:0f:1f:dd:
                    83:27:a5:3c:bf:9e:1f:81:16:4c:b5:1e:ae:fe:61:
                    36:cd:67:1c:ee:a5:56:9e:d4:48:41:b4:5a:bc:36:
                    5e:b7:2c:26:ba:20:a1:39:b7:d0:59:05:7f:45:31:
                    be:8a:53:8d:ec:dc:ff:ef:73:f9:90:ed:0b:86:63:
                    9c:9f:c3:fa:8e:a7:1a:b2:48:98:cb:b2:95:6f:c3:
                    38:8c:1c:2a:7d:c9:eb:71:a6:7e:55:39:9c:82:71:
                    25:35:10:94:73:67:88:88:4d:48:75:f4:a7:7d:ac:
                    0b:a3:90:3f:01:c4:73:ec:41:6b:14:89:6e:4b:de:
                    27:58:b2:33:ea:29:d9:a5:f2:2e:c6:9d:8b:4e:d6:
                    a3:18:cf:70:d4:a3:e7:58:27:08:95:f4:3f:94:a4:
                    f2:5c:f9
                Exponent: 65537 (0x10001)
        X509v3 extensions:
            X509v3 Basic Constraints: 
                CA:FALSE
            Netscape Comment: 
                Easy-RSA Generated Certificate
            X509v3 Subject Key Identifier: 
                94:A2:05:F5:9E:DE:CB:D3:6C:86:F6:CF:F2:3D:77:3A:4C:A8:9F:31
            X509v3 Authority Key Identifier: 
                keyid:12:CD:60:04:D2:A0:80:9E:70:ED:C6:99:B8:7B:2C:C6:52:FD:19:A1
                DirName:/C=US/ST=OH/L=Columbus/O=VikingVPN/OU=MyOrganizationalUnit/CN=VikingVPN CA/name=EasyRSA/emailAddress=me@myhost.mydomain
                serial:CF:35:85:EE:80:BF:2A:3E

            X509v3 Extended Key Usage: 
                TLS Web Client Authentication
            X509v3 Key Usage: 
                Digital Signature
    Signature Algorithm: md5WithRSAEncryption
         61:5d:1d:9f:98:b3:29:54:82:df:74:e0:e7:67:d3:32:14:30:
         01:4b:b8:b7:21:c6:d4:45:14:61:82:4d:bb:f0:15:a8:48:e9:
         03:91:07:2c:1a:ba:17:35:df:ed:23:ea:b9:e7:0f:7b:cf:d1:
         27:c1:a6:e1:57:b1:fe:9a:ce:24:85:12:1e:37:b8:6b:b1:cb:
         a9:36:3b:e5:6e:fb:0e:70:58:09:46:8b:39:29:2d:bb:c3:b8:
         5b:e4:fd:f8:91:1d:61:e6:c6:78:b0:7b:cb:e6:58:da:9b:32:
         4a:32:e7:12:10:30:4a:95:c7:12:9b:a9:fc:1d:80:64:96:b3:
         22:a1:cb:dd:79:74:86:12:c1:df:cf:38:6b:06:9c:36:69:bd:
         44:98:1f:12:25:f1:02:cf:b5:2f:d1:b2:0b:65:0b:2e:41:1a:
         ac:b5:d1:e1:ee:44:d2:cb:34:e3:b3:88:2a:f3:22:02:4b:e0:
         7a:af:ea:83:06:0f:c8:de:24:08:d9:b7:ff:09:f7:ec:2b:a0:
         b1:76:c4:d3:50:43:7e:e6:ee:09:ee:fb:91:83:3f:2c:e5:b1:
         3a:fe:42:96:cd:86:d1:ab:9a:35:75:84:55:d7:9b:bf:f0:2f:
         2e:c4:18:7a:16:4f:d8:1a:24:6d:89:7a:0a:bc:d1:44:d9:71:
         04:f0:71:59:d7:0f:5e:8b:89:cf:76:fa:5c:66:e5:96:20:4c:
         c4:8a:2b:bd:94:80:c6:30:3c:77:78:5d:2d:15:f8:b2:0c:50:
         20:62:1c:0a:14:45:90:2d:ef:50:85:f4:77:a8:c5:58:5f:a0:
         d5:80:16:71:69:5d:e3:7c:15:96:6d:eb:3c:32:ce:0f:6f:57:
         bc:76:b4:bf:bd:f1:90:ba:76:be:59:fc:6c:4b:bc:a4:39:f1:
         8b:56:bb:01:9e:2e:d3:8a:c5:19:0b:ba:d8:06:97:4d:75:64:
         13:38:9f:ed:a6:6d:9a:1e:c0:41:25:8c:14:7e:3a:60:84:5a:
         fe:8e:2e:81:19:cb:bb:26:e1:b0:a2:26:5a:17:21:f6:32:85:
         4e:4b:6a:10:23:83:91:3c:34:15:14:a9:20:06:b9:a3:f6:e7:
         ac:2f:1c:4a:4b:3e:db:70:73:47:c9:14:6c:5c:30:43:67:f5:
         f4:a7:99:c6:ab:9e:81:c2:56:67:68:40:f3:44:58:ae:df:bf:
         9c:52:d1:08:ad:77:3a:c2:b5:bf:3c:8b:89:97:8b:57:ed:9e:
         46:53:62:cd:3b:0b:0b:b3:a3:20:6e:13:e9:24:e9:0a:22:a6:
         d3:5e:eb:29:c4:09:f8:bb:60:7a:f7:9d:7c:7b:6f:00:4c:8d:
         de:4e:20:b7:87:5c:44:36
-----BEGIN CERTIFICATE-----
MIIGrDCCBJSgAwIBAgICBqkwDQYJKoZIhvcNAQEEBQAwgawxCzAJBgNVBAYTAlVT
MQswCQYDVQQIEwJPSDERMA8GA1UEBxMIQ29sdW1idXMxEjAQBgNVBAoTCVZpa2lu
Z1ZQTjEdMBsGA1UECxMUTXlPcmdhbml6YXRpb25hbFVuaXQxFTATBgNVBAMTDFZp
a2luZ1ZQTiBDQTEQMA4GA1UEKRMHRWFzeVJTQTEhMB8GCSqGSIb3DQEJARYSbWVA
bXlob3N0Lm15ZG9tYWluMB4XDTE0MDQyMzE1NTgyN1oXDTI0MDQyMDE1NTgyN1ow
HjEcMBoGA1UEAxMTQ2xpZW50NjA3Q2VydDgxMzBiMzCCAiIwDQYJKoZIhvcNAQEB
BQADggIPADCCAgoCggIBANpcAPXbePHvVd07TAM+cKg6UWbGxwbpWrD5t+CsY3th
qWqQ3aKNwSuuwn6+Z/45DuPqyIsI3CGw/QdptPzWwN0C2TByNPNSvwKspzIPfzb/
VviPYcdh/FvIakdBx+vqMYJQ3kYvH9GUMkiN0LmGLeKhvmaSzfrh2TX02PNLjwRg
ZD2Y1O9ib8V09pXygY3RagI3g1lQqEfxOysCT7SBC7ZrRcAPl46ULSCMhJHW77yG
brBIi4tlpgijCqDQJnGyz2P6bDdgcIilzeOt6Fzq3v91L2fawjyHudApOQUfOC4k
ek+8nCYbne0xm+DlItw/98IcTRJCGJE0Nn1oASgw6yGfrLVj1HW7QdZcs3T8B1aS
ot9DYtKnP8DixwnR6oqZkT02iPuGUywOyQ21eZhZoNgyQQgCvBi0BEfJLgihqaDq
4zRfJMeJgEgbsMQfBq8WH0xvGki3c46gCnIbqI9oy6+GCoj0Dx/dgyelPL+eH4EW
TLUerv5hNs1nHO6lVp7USEG0Wrw2XrcsJrogoTm30FkFf0UxvopTjezc/+9z+ZDt
C4ZjnJ/D+o6nGrJImMuylW/DOIwcKn3J63GmflU5nIJxJTUQlHNniIhNSHX0p32s
C6OQPwHEc+xBaxSJbkveJ1iyM+op2aXyLsadi07WoxjPcNSj51gnCJX0P5Sk8lz5
AgMBAAGjggFjMIIBXzAJBgNVHRMEAjAAMC0GCWCGSAGG+EIBDQQgFh5FYXN5LVJT
QSBHZW5lcmF0ZWQgQ2VydGlmaWNhdGUwHQYDVR0OBBYEFJSiBfWe3svTbIb2z/I9
dzpMqJ8xMIHhBgNVHSMEgdkwgdaAFBLNYATSoICecO3Gmbh7LMZS/RmhoYGypIGv
MIGsMQswCQYDVQQGEwJVUzELMAkGA1UECBMCT0gxETAPBgNVBAcTCENvbHVtYnVz
MRIwEAYDVQQKEwlWaWtpbmdWUE4xHTAbBgNVBAsTFE15T3JnYW5pemF0aW9uYWxV
bml0MRUwEwYDVQQDEwxWaWtpbmdWUE4gQ0ExEDAOBgNVBCkTB0Vhc3lSU0ExITAf
BgkqhkiG9w0BCQEWEm1lQG15aG9zdC5teWRvbWFpboIJAM81he6Avyo+MBMGA1Ud
JQQMMAoGCCsGAQUFBwMCMAsGA1UdDwQEAwIHgDANBgkqhkiG9w0BAQQFAAOCAgEA
YV0dn5izKVSC33Tg52fTMhQwAUu4tyHG1EUUYYJNu/AVqEjpA5EHLBq6FzXf7SPq
uecPe8/RJ8Gm4Vex/prOJIUSHje4a7HLqTY75W77DnBYCUaLOSktu8O4W+T9+JEd
YebGeLB7y+ZY2psySjLnEhAwSpXHEpup/B2AZJazIqHL3Xl0hhLB3884awacNmm9
RJgfEiXxAs+1L9GyC2ULLkEarLXR4e5E0ss047OIKvMiAkvgeq/qgwYPyN4kCNm3
/wn37CugsXbE01BDfubuCe77kYM/LOWxOv5Cls2G0auaNXWEVdebv/AvLsQYehZP
2BokbYl6CrzRRNlxBPBxWdcPXouJz3b6XGblliBMxIorvZSAxjA8d3hdLRX4sgxQ
IGIcChRFkC3vUIX0d6jFWF+g1YAWcWld43wVlm3rPDLOD29XvHa0v73xkLp2vln8
bEu8pDnxi1a7AZ4u04rFGQu62AaXTXVkEzif7aZtmh7AQSWMFH46YIRa/o4ugRnL
uybhsKImWhch9jKFTktqECODkTw0FRSpIAa5o/bnrC8cSks+23BzR8kUbFwwQ2f1
9KeZxquegcJWZ2hA80RYrt+/nFLRCK13OsK1vzyLiZeLV+2eRlNizTsLC7OjIG4T
6STpCiKm017rKcQJ+LtgevedfHtvAEyN3k4gt4dcRDY=
-----END CERTIFICATE-----
