Certificate:
    Data:
        Version: 3 (0x2)
        Serial Number: 82 (0x52)
    Signature Algorithm: md5WithRSAEncryption
        Issuer: C=US, ST=OH, L=Columbus, O=VikingVPN, OU=MyOrganizationalUnit, CN=VikingVPN CA/name=EasyRSA/emailAddress=me@myhost.mydomain
        Validity
            Not Before: Aug 19 11:54:13 2013 GMT
            Not After : Aug 17 11:54:13 2023 GMT
        Subject: CN=Client58Certc7d2c8
        Subject Public Key Info:
            Public Key Algorithm: rsaEncryption
                Public-Key: (4096 bit)
                Modulus:
                    00:b6:e3:95:65:2a:6c:9a:13:02:29:c9:2c:f5:82:
                    14:6f:ae:4d:38:a9:ca:47:92:d7:de:83:6a:c2:f5:
                    74:eb:d1:4f:9e:a1:19:1d:b4:a1:8b:35:1b:70:91:
                    08:6a:90:58:05:65:87:03:33:84:a2:ff:a7:6f:14:
                    a5:f3:63:b5:a0:d6:59:01:35:60:e8:c4:47:3c:77:
                    0e:ce:a4:aa:1f:ac:df:a3:45:b3:78:42:59:9c:da:
                    4c:b9:5e:e0:8f:6a:61:16:85:36:ac:d1:67:71:18:
                    0d:69:1d:6e:28:65:15:bc:9b:91:22:77:a1:a4:ac:
                    b1:f2:4e:1d:d9:6f:fb:7b:d0:c1:8c:62:b1:29:c7:
                    10:81:3e:68:94:60:ab:b4:e4:aa:a4:82:fb:be:2d:
                    c6:0e:dd:c9:a9:b9:b5:9c:01:3d:20:e7:ce:29:fe:
                    de:c2:54:10:a5:f8:99:17:ea:f6:b1:61:0e:6e:e5:
                    0c:d5:60:73:5a:58:ab:08:0b:83:7d:84:56:05:0b:
                    ab:04:dd:e9:50:1b:25:37:eb:25:db:0e:27:7b:34:
                    f2:41:4b:c0:9d:5d:3b:12:32:9a:b0:db:e0:0e:db:
                    fd:a6:03:2c:b3:65:30:a0:aa:12:2b:09:63:ac:4a:
                    60:cc:f3:19:3c:62:b1:7e:eb:b3:89:80:ab:58:3f:
                    39:d4:d9:3a:0d:cc:3e:d5:eb:fb:e9:28:1e:60:14:
                    78:ae:4d:4d:7a:ff:3a:53:a5:f7:f6:6e:e5:ac:a8:
                    be:9d:15:84:aa:f0:1c:52:0f:c1:ab:f3:f9:1a:f4:
                    8b:15:97:2b:6c:1f:f2:50:ff:85:72:47:8b:72:97:
                    97:bc:3a:d6:02:0d:74:1e:54:b7:d6:3e:22:38:33:
                    27:83:14:24:72:f1:af:64:e1:9f:3e:88:22:a9:3c:
                    24:30:4c:74:05:be:96:42:55:03:97:dd:b2:4c:d3:
                    8c:3e:c8:e6:a0:8c:38:68:33:d1:84:d8:97:97:d6:
                    29:25:b6:45:e6:8c:16:a4:64:d7:a0:7d:fe:69:c0:
                    a7:13:30:a5:b0:3a:ac:8e:75:3a:15:b0:44:7d:0a:
                    41:4b:d2:9c:82:af:94:2c:f8:91:7e:32:24:ff:7b:
                    13:0f:61:d9:71:b5:36:79:cf:44:c9:de:2a:21:09:
                    65:e0:3d:7d:fb:23:09:c1:0d:74:69:17:7b:35:ed:
                    c6:a2:0c:41:25:65:c2:91:8a:d1:6d:95:b5:22:54:
                    18:b8:93:c1:db:81:03:bd:d0:9f:71:13:a3:fc:93:
                    05:9f:ff:d0:71:ec:18:04:e6:89:2d:36:ab:22:87:
                    ef:32:01:64:de:91:57:55:36:f2:88:13:2a:3f:59:
                    2b:58:49
                Exponent: 65537 (0x10001)
        X509v3 extensions:
            X509v3 Basic Constraints: 
                CA:FALSE
            Netscape Comment: 
                Easy-RSA Generated Certificate
            X509v3 Subject Key Identifier: 
                41:DA:80:F4:2A:08:EE:87:7A:EA:38:DF:A6:A1:2D:D0:15:4C:81:1F
            X509v3 Authority Key Identifier: 
                keyid:12:CD:60:04:D2:A0:80:9E:70:ED:C6:99:B8:7B:2C:C6:52:FD:19:A1
                DirName:/C=US/ST=OH/L=Columbus/O=VikingVPN/OU=MyOrganizationalUnit/CN=VikingVPN CA/name=EasyRSA/emailAddress=me@myhost.mydomain
                serial:CF:35:85:EE:80:BF:2A:3E

            X509v3 Extended Key Usage: 
                TLS Web Client Authentication
            X509v3 Key Usage: 
                Digital Signature
    Signature Algorithm: md5WithRSAEncryption
         0b:06:42:0e:8b:d2:91:a1:29:3e:1b:c7:26:6b:d1:6e:fd:80:
         e0:99:76:aa:b7:65:25:fc:2b:92:64:ee:c6:f4:7c:2c:1c:c7:
         19:62:20:ec:87:ff:bb:ba:b9:3e:f1:f1:5f:5c:f6:d3:83:00:
         7e:48:57:d5:35:1d:ea:5c:b9:8a:b7:ea:5f:1b:6e:b5:a4:76:
         49:ef:71:3e:ce:13:c8:3c:48:26:39:6c:de:43:2c:77:6a:cd:
         92:73:62:48:b8:1a:8d:20:70:1f:8a:40:53:d0:df:7a:33:d6:
         40:29:c6:7c:0e:80:ab:9d:f3:ac:4c:c0:ff:91:ba:4a:f1:c9:
         54:e0:45:51:4a:0b:71:14:a1:d6:af:48:1a:8f:95:1d:6e:e2:
         83:ad:3c:72:cf:a1:ec:11:e3:43:0f:8d:3b:0b:51:6a:37:e8:
         28:45:da:2d:fe:76:8f:7a:c6:22:66:6c:f2:dc:2c:c2:8a:6a:
         12:84:fb:a0:e0:2b:bd:97:09:ef:76:c2:d3:e3:11:02:85:02:
         e7:c4:05:69:a0:9b:32:0f:a1:ef:aa:6b:1f:a0:be:4b:ff:1b:
         4c:64:a6:26:b3:67:3d:34:6c:df:d1:77:5a:78:0f:d8:6f:35:
         c6:45:bf:4d:f8:8d:7f:db:dd:8e:2f:36:7e:b5:ab:26:78:c7:
         3e:6c:3a:e4:87:d8:69:7a:d0:80:d3:e9:93:bb:80:5e:54:07:
         fe:2c:d6:bb:9c:2d:4e:2b:0a:36:41:fa:20:ac:c5:c5:2f:fc:
         cc:2e:bd:d7:be:37:c2:c8:3c:13:34:10:4a:23:2f:ea:a0:32:
         d7:35:6b:ef:4f:a0:16:28:24:cc:0d:2d:34:d5:32:92:7b:70:
         be:23:ed:e1:74:20:7d:8d:08:e0:42:fe:ef:23:7c:a6:89:32:
         be:d8:67:10:d4:45:15:73:06:e7:82:59:dc:c8:7d:2b:8f:79:
         06:c5:51:7f:d5:da:83:d0:58:46:11:25:dc:5f:53:be:57:50:
         36:89:3c:1c:d5:e8:e4:7a:ee:65:be:66:74:9d:70:d7:90:94:
         13:ba:c0:ac:16:0c:23:3d:87:71:a1:d4:95:94:be:e9:0e:0b:
         6d:f5:7e:91:09:bf:61:ca:04:d4:38:36:74:b9:df:31:dd:01:
         6d:4c:25:5d:8e:84:31:a9:db:22:84:ea:f7:de:c9:01:82:50:
         d9:08:bf:0a:1c:bd:66:8d:85:15:9a:b7:0e:55:6c:7e:33:84:
         a5:bd:aa:5c:0b:3c:29:ea:fe:c9:01:57:55:18:11:89:a1:97:
         67:ff:7f:f7:a1:5c:6c:ff:a3:0c:9c:93:bb:66:a3:ec:4c:32:
         07:c8:75:78:15:7f:b0:4f
-----BEGIN CERTIFICATE-----
MIIGqjCCBJKgAwIBAgIBUjANBgkqhkiG9w0BAQQFADCBrDELMAkGA1UEBhMCVVMx
CzAJBgNVBAgTAk9IMREwDwYDVQQHEwhDb2x1bWJ1czESMBAGA1UEChMJVmlraW5n
VlBOMR0wGwYDVQQLExRNeU9yZ2FuaXphdGlvbmFsVW5pdDEVMBMGA1UEAxMMVmlr
aW5nVlBOIENBMRAwDgYDVQQpEwdFYXN5UlNBMSEwHwYJKoZIhvcNAQkBFhJtZUBt
eWhvc3QubXlkb21haW4wHhcNMTMwODE5MTE1NDEzWhcNMjMwODE3MTE1NDEzWjAd
MRswGQYDVQQDExJDbGllbnQ1OENlcnRjN2QyYzgwggIiMA0GCSqGSIb3DQEBAQUA
A4ICDwAwggIKAoICAQC245VlKmyaEwIpySz1ghRvrk04qcpHktfeg2rC9XTr0U+e
oRkdtKGLNRtwkQhqkFgFZYcDM4Si/6dvFKXzY7Wg1lkBNWDoxEc8dw7OpKofrN+j
RbN4Qlmc2ky5XuCPamEWhTas0WdxGA1pHW4oZRW8m5Eid6GkrLHyTh3Zb/t70MGM
YrEpxxCBPmiUYKu05Kqkgvu+LcYO3cmpubWcAT0g584p/t7CVBCl+JkX6vaxYQ5u
5QzVYHNaWKsIC4N9hFYFC6sE3elQGyU36yXbDid7NPJBS8CdXTsSMpqw2+AO2/2m
AyyzZTCgqhIrCWOsSmDM8xk8YrF+67OJgKtYPznU2ToNzD7V6/vpKB5gFHiuTU16
/zpTpff2buWsqL6dFYSq8BxSD8Gr8/ka9IsVlytsH/JQ/4VyR4tyl5e8OtYCDXQe
VLfWPiI4MyeDFCRy8a9k4Z8+iCKpPCQwTHQFvpZCVQOX3bJM04w+yOagjDhoM9GE
2JeX1ikltkXmjBakZNegff5pwKcTMKWwOqyOdToVsER9CkFL0pyCr5Qs+JF+MiT/
exMPYdlxtTZ5z0TJ3iohCWXgPX37IwnBDXRpF3s17caiDEElZcKRitFtlbUiVBi4
k8HbgQO90J9xE6P8kwWf/9Bx7BgE5oktNqsih+8yAWTekVdVNvKIEyo/WStYSQID
AQABo4IBYzCCAV8wCQYDVR0TBAIwADAtBglghkgBhvhCAQ0EIBYeRWFzeS1SU0Eg
R2VuZXJhdGVkIENlcnRpZmljYXRlMB0GA1UdDgQWBBRB2oD0Kgjuh3rqON+moS3Q
FUyBHzCB4QYDVR0jBIHZMIHWgBQSzWAE0qCAnnDtxpm4eyzGUv0ZoaGBsqSBrzCB
rDELMAkGA1UEBhMCVVMxCzAJBgNVBAgTAk9IMREwDwYDVQQHEwhDb2x1bWJ1czES
MBAGA1UEChMJVmlraW5nVlBOMR0wGwYDVQQLExRNeU9yZ2FuaXphdGlvbmFsVW5p
dDEVMBMGA1UEAxMMVmlraW5nVlBOIENBMRAwDgYDVQQpEwdFYXN5UlNBMSEwHwYJ
KoZIhvcNAQkBFhJtZUBteWhvc3QubXlkb21haW6CCQDPNYXugL8qPjATBgNVHSUE
DDAKBggrBgEFBQcDAjALBgNVHQ8EBAMCB4AwDQYJKoZIhvcNAQEEBQADggIBAAsG
Qg6L0pGhKT4bxyZr0W79gOCZdqq3ZSX8K5Jk7sb0fCwcxxliIOyH/7u6uT7x8V9c
9tODAH5IV9U1HepcuYq36l8bbrWkdknvcT7OE8g8SCY5bN5DLHdqzZJzYki4Go0g
cB+KQFPQ33oz1kApxnwOgKud86xMwP+RukrxyVTgRVFKC3EUodavSBqPlR1u4oOt
PHLPoewR40MPjTsLUWo36ChF2i3+do96xiJmbPLcLMKKahKE+6DgK72XCe92wtPj
EQKFAufEBWmgmzIPoe+qax+gvkv/G0xkpiazZz00bN/Rd1p4D9hvNcZFv034jX/b
3Y4vNn61qyZ4xz5sOuSH2Gl60IDT6ZO7gF5UB/4s1rucLU4rCjZB+iCsxcUv/Mwu
vde+N8LIPBM0EEojL+qgMtc1a+9PoBYoJMwNLTTVMpJ7cL4j7eF0IH2NCOBC/u8j
fKaJMr7YZxDURRVzBueCWdzIfSuPeQbFUX/V2oPQWEYRJdxfU75XUDaJPBzV6OR6
7mW+ZnSdcNeQlBO6wKwWDCM9h3Gh1JWUvukOC231fpEJv2HKBNQ4NnS53zHdAW1M
JV2OhDGp2yKE6vfeyQGCUNkIvwocvWaNhRWatw5VbH4zhKW9qlwLPCnq/skBV1UY
EYmhl2f/f/ehXGz/owyck7tmo+xMMgfIdXgVf7BP
-----END CERTIFICATE-----
