Certificate:
    Data:
        Version: 3 (0x2)
        Serial Number: 215 (0xd7)
    Signature Algorithm: md5WithRSAEncryption
        Issuer: C=US, ST=OH, L=Columbus, O=VikingVPN, OU=MyOrganizationalUnit, CN=VikingVPN CA/name=EasyRSA/emailAddress=me@myhost.mydomain
        Validity
            Not Before: Sep 19 14:54:45 2013 GMT
            Not After : Sep 17 14:54:45 2023 GMT
        Subject: CN=Client107Cert7d1382
        Subject Public Key Info:
            Public Key Algorithm: rsaEncryption
                Public-Key: (4096 bit)
                Modulus:
                    00:b4:76:11:4b:7c:87:34:22:ec:f4:39:23:6e:7f:
                    49:00:93:67:32:61:44:0a:4a:99:d1:1b:11:69:14:
                    2a:a5:8a:a8:e9:4d:70:8e:be:ed:30:b1:cb:ac:91:
                    2d:35:68:00:24:55:83:9f:75:f7:0c:65:8a:b4:e4:
                    fc:48:3f:6e:69:ff:fc:76:14:ee:fe:1e:7d:1a:e6:
                    a1:25:a3:66:f3:fe:57:21:d3:92:c4:a9:ad:c9:75:
                    22:23:4b:03:4f:19:5b:09:c8:d7:74:a5:4f:ff:86:
                    dd:cb:7f:3b:3a:0f:ae:40:14:6b:36:59:35:54:01:
                    c0:4a:fb:05:cf:44:93:3a:be:e7:e3:ab:23:de:3d:
                    ed:05:45:b8:3b:8b:27:59:95:3e:d7:b6:43:33:6c:
                    bf:7b:9b:90:ca:39:70:10:77:91:5f:85:06:48:1c:
                    bf:fd:f9:54:19:8b:2d:d6:26:97:04:c6:cd:5f:60:
                    68:d5:2b:b6:84:27:c4:9f:b2:b5:da:91:5f:eb:ba:
                    8b:f2:53:2b:59:94:d7:1d:13:8f:68:9c:f1:42:3b:
                    51:06:35:e9:40:22:8f:a1:0b:76:8d:16:cf:99:bd:
                    91:ca:00:ac:c6:1d:1f:24:15:16:1e:32:af:21:c1:
                    33:37:1e:7a:c6:45:cb:95:b7:45:fc:7e:88:8e:50:
                    3f:b9:cb:64:0a:81:0f:ce:11:0e:9e:6d:1f:28:0e:
                    1b:4e:19:e1:b4:8c:f7:13:7c:ce:3e:ec:a6:40:28:
                    97:9b:aa:ef:5d:fb:e9:b1:44:b2:07:e4:f1:9d:53:
                    8c:20:25:bd:c8:bc:0f:a9:7b:33:a6:21:e4:d5:45:
                    a8:2b:9a:0c:81:ca:58:95:45:d1:de:4b:bf:da:e8:
                    3b:fd:e5:08:07:3a:40:e8:46:18:ac:1b:e1:62:64:
                    9c:98:41:66:0c:79:2b:16:c2:4e:f3:63:8a:97:7c:
                    28:2f:c2:5d:8d:ae:1f:1d:49:3f:19:b9:59:2b:bc:
                    3e:53:59:e6:cc:ec:86:ce:e8:cf:dc:28:7d:b4:5a:
                    b0:94:ea:ca:4d:c9:3d:8a:c7:11:45:a1:ba:b9:c1:
                    66:ed:53:63:97:99:20:fb:24:b6:40:0a:b3:44:4f:
                    fa:1e:37:3e:04:81:79:8e:5e:41:e9:1d:a2:37:21:
                    bc:55:c7:ac:ad:8a:d9:40:0e:c7:b6:c8:20:83:64:
                    8f:a0:ab:eb:2e:02:de:f8:74:df:73:19:15:36:c9:
                    07:15:d8:ca:f5:f4:6c:df:7a:08:ae:ea:9d:63:3e:
                    32:3e:31:0b:69:74:e8:da:f6:f5:36:59:21:6c:3a:
                    ed:2b:57:30:9c:1c:d9:bc:e6:39:23:3a:e5:81:98:
                    e2:e6:0d
                Exponent: 65537 (0x10001)
        X509v3 extensions:
            X509v3 Basic Constraints: 
                CA:FALSE
            Netscape Comment: 
                Easy-RSA Generated Certificate
            X509v3 Subject Key Identifier: 
                D9:B4:84:2E:A5:E8:C8:83:25:6C:CC:14:B2:C0:FF:D8:FA:0A:D5:A4
            X509v3 Authority Key Identifier: 
                keyid:12:CD:60:04:D2:A0:80:9E:70:ED:C6:99:B8:7B:2C:C6:52:FD:19:A1
                DirName:/C=US/ST=OH/L=Columbus/O=VikingVPN/OU=MyOrganizationalUnit/CN=VikingVPN CA/name=EasyRSA/emailAddress=me@myhost.mydomain
                serial:CF:35:85:EE:80:BF:2A:3E

            X509v3 Extended Key Usage: 
                TLS Web Client Authentication
            X509v3 Key Usage: 
                Digital Signature
    Signature Algorithm: md5WithRSAEncryption
         17:20:a0:11:be:f6:c7:c3:f8:08:69:d6:95:be:f2:02:01:ef:
         9f:d1:01:45:7b:01:7c:97:5e:9f:68:22:3b:88:44:49:9c:46:
         51:7c:e3:51:2b:5a:e2:2e:cf:03:d9:90:fb:59:be:5e:04:62:
         1c:0c:e2:67:16:76:60:49:b6:0f:a1:d5:26:e6:0c:14:58:46:
         ce:b2:18:bf:0e:1b:23:d9:2c:1f:5b:16:8c:ec:29:03:62:eb:
         1e:a4:5b:ac:93:d9:25:6d:5a:39:c7:cd:a3:42:25:83:63:a4:
         47:0c:4d:45:90:2b:ee:ee:9c:66:ff:a9:98:fb:b2:53:cc:cc:
         0f:30:0d:31:25:14:a6:41:16:2f:f7:10:49:68:2b:1a:a0:77:
         35:04:ad:a3:43:b2:f6:f8:ff:e6:ef:a3:76:1a:10:9e:67:a5:
         92:82:6c:94:66:da:cf:28:7e:4c:05:7f:a5:8d:55:aa:f4:8d:
         59:b5:d5:c2:1a:ac:b7:6e:e0:6b:b1:28:3d:ab:01:82:ff:12:
         7e:6f:48:80:40:b4:ea:5f:07:10:03:48:0b:5d:e9:b1:37:bf:
         b2:22:26:29:49:8c:db:4e:bd:e3:c2:f4:e5:50:98:41:be:3a:
         9c:89:2f:60:2c:7a:86:9d:d4:bc:4c:47:e4:b3:18:73:8f:9b:
         60:23:a7:51:d9:14:bf:63:f0:66:6d:3c:5d:e7:91:36:d3:4b:
         bb:a6:8f:9f:35:b4:71:5a:b0:70:c5:ad:00:15:75:dc:dd:76:
         e0:6a:1a:65:33:ca:0f:85:19:4c:bd:0d:21:95:76:03:d2:e3:
         26:80:20:65:96:f3:d2:b4:99:8d:d1:2c:41:31:d0:0d:2d:71:
         c7:d2:ff:bd:4c:6c:27:4c:3d:19:35:ca:dc:92:af:00:2b:90:
         d1:af:d3:67:28:3d:00:e4:60:05:f1:0d:1d:88:68:15:09:68:
         42:e0:03:df:9e:33:3b:58:a1:8e:35:c5:38:32:c1:27:08:7d:
         87:7a:3e:1a:d3:82:bb:77:49:fc:7f:8a:37:8b:88:d0:fd:bd:
         97:cd:eb:96:96:1a:f5:ad:99:1f:31:0d:cf:d1:55:b0:64:e3:
         53:bf:c8:cc:89:90:d1:78:b6:b3:05:0d:cc:1b:80:a6:b4:68:
         e6:26:00:75:20:40:4f:a6:d9:f8:3a:b2:1b:73:19:9a:01:19:
         52:e8:54:0c:4e:96:37:39:cc:91:bd:f2:7c:5f:2b:44:16:25:
         f9:23:3f:8e:7f:ba:30:71:10:72:23:5a:23:52:3b:95:d2:d0:
         77:2b:70:d6:16:41:b4:f8:64:49:69:78:4d:81:e9:ef:78:ee:
         2d:cc:4d:84:c4:7c:1a:68
-----BEGIN CERTIFICATE-----
MIIGrDCCBJSgAwIBAgICANcwDQYJKoZIhvcNAQEEBQAwgawxCzAJBgNVBAYTAlVT
MQswCQYDVQQIEwJPSDERMA8GA1UEBxMIQ29sdW1idXMxEjAQBgNVBAoTCVZpa2lu
Z1ZQTjEdMBsGA1UECxMUTXlPcmdhbml6YXRpb25hbFVuaXQxFTATBgNVBAMTDFZp
a2luZ1ZQTiBDQTEQMA4GA1UEKRMHRWFzeVJTQTEhMB8GCSqGSIb3DQEJARYSbWVA
bXlob3N0Lm15ZG9tYWluMB4XDTEzMDkxOTE0NTQ0NVoXDTIzMDkxNzE0NTQ0NVow
HjEcMBoGA1UEAxMTQ2xpZW50MTA3Q2VydDdkMTM4MjCCAiIwDQYJKoZIhvcNAQEB
BQADggIPADCCAgoCggIBALR2EUt8hzQi7PQ5I25/SQCTZzJhRApKmdEbEWkUKqWK
qOlNcI6+7TCxy6yRLTVoACRVg5919wxlirTk/Eg/bmn//HYU7v4efRrmoSWjZvP+
VyHTksSprcl1IiNLA08ZWwnI13SlT/+G3ct/OzoPrkAUazZZNVQBwEr7Bc9Ekzq+
5+OrI9497QVFuDuLJ1mVPte2QzNsv3ubkMo5cBB3kV+FBkgcv/35VBmLLdYmlwTG
zV9gaNUrtoQnxJ+ytdqRX+u6i/JTK1mU1x0Tj2ic8UI7UQY16UAij6ELdo0Wz5m9
kcoArMYdHyQVFh4yryHBMzceesZFy5W3Rfx+iI5QP7nLZAqBD84RDp5tHygOG04Z
4bSM9xN8zj7spkAol5uq71376bFEsgfk8Z1TjCAlvci8D6l7M6Yh5NVFqCuaDIHK
WJVF0d5Lv9roO/3lCAc6QOhGGKwb4WJknJhBZgx5KxbCTvNjipd8KC/CXY2uHx1J
Pxm5WSu8PlNZ5szshs7oz9wofbRasJTqyk3JPYrHEUWhurnBZu1TY5eZIPsktkAK
s0RP+h43PgSBeY5eQekdojchvFXHrK2K2UAOx7bIIINkj6Cr6y4C3vh033MZFTbJ
BxXYyvX0bN96CK7qnWM+Mj4xC2l06Nr29TZZIWw67StXMJwc2bzmOSM65YGY4uYN
AgMBAAGjggFjMIIBXzAJBgNVHRMEAjAAMC0GCWCGSAGG+EIBDQQgFh5FYXN5LVJT
QSBHZW5lcmF0ZWQgQ2VydGlmaWNhdGUwHQYDVR0OBBYEFNm0hC6l6MiDJWzMFLLA
/9j6CtWkMIHhBgNVHSMEgdkwgdaAFBLNYATSoICecO3Gmbh7LMZS/RmhoYGypIGv
MIGsMQswCQYDVQQGEwJVUzELMAkGA1UECBMCT0gxETAPBgNVBAcTCENvbHVtYnVz
MRIwEAYDVQQKEwlWaWtpbmdWUE4xHTAbBgNVBAsTFE15T3JnYW5pemF0aW9uYWxV
bml0MRUwEwYDVQQDEwxWaWtpbmdWUE4gQ0ExEDAOBgNVBCkTB0Vhc3lSU0ExITAf
BgkqhkiG9w0BCQEWEm1lQG15aG9zdC5teWRvbWFpboIJAM81he6Avyo+MBMGA1Ud
JQQMMAoGCCsGAQUFBwMCMAsGA1UdDwQEAwIHgDANBgkqhkiG9w0BAQQFAAOCAgEA
FyCgEb72x8P4CGnWlb7yAgHvn9EBRXsBfJden2giO4hESZxGUXzjUSta4i7PA9mQ
+1m+XgRiHAziZxZ2YEm2D6HVJuYMFFhGzrIYvw4bI9ksH1sWjOwpA2LrHqRbrJPZ
JW1aOcfNo0Ilg2OkRwxNRZAr7u6cZv+pmPuyU8zMDzANMSUUpkEWL/cQSWgrGqB3
NQSto0Oy9vj/5u+jdhoQnmelkoJslGbazyh+TAV/pY1VqvSNWbXVwhqst27ga7Eo
PasBgv8Sfm9IgEC06l8HEANIC13psTe/siImKUmM206948L05VCYQb46nIkvYCx6
hp3UvExH5LMYc4+bYCOnUdkUv2PwZm08XeeRNtNLu6aPnzW0cVqwcMWtABV13N12
4GoaZTPKD4UZTL0NIZV2A9LjJoAgZZbz0rSZjdEsQTHQDS1xx9L/vUxsJ0w9GTXK
3JKvACuQ0a/TZyg9AORgBfENHYhoFQloQuAD354zO1ihjjXFODLBJwh9h3o+GtOC
u3dJ/H+KN4uI0P29l83rlpYa9a2ZHzENz9FVsGTjU7/IzImQ0Xi2swUNzBuAprRo
5iYAdSBAT6bZ+DqyG3MZmgEZUuhUDE6WNznMkb3yfF8rRBYl+SM/jn+6MHEQciNa
I1I7ldLQdytw1hZBtPhkSWl4TYHp73juLcxNhMR8Gmg=
-----END CERTIFICATE-----
