Certificate:
    Data:
        Version: 3 (0x2)
        Serial Number: 218 (0xda)
    Signature Algorithm: md5WithRSAEncryption
        Issuer: C=US, ST=OH, L=Columbus, O=VikingVPN, OU=MyOrganizationalUnit, CN=VikingVPN CA/name=EasyRSA/emailAddress=me@myhost.mydomain
        Validity
            Not Before: Sep 19 17:12:01 2013 GMT
            Not After : Sep 17 17:12:01 2023 GMT
        Subject: CN=Client107Certff71a5
        Subject Public Key Info:
            Public Key Algorithm: rsaEncryption
                Public-Key: (4096 bit)
                Modulus:
                    00:d6:ca:ec:85:93:43:f3:c2:1d:3a:b3:54:99:e9:
                    92:65:89:06:60:4b:a3:9e:03:92:d2:10:6c:32:c0:
                    65:1a:f5:fb:43:ba:ca:6d:b4:e8:b8:fa:53:ef:94:
                    c2:72:cd:01:73:5d:e8:fc:39:1f:d1:31:5b:42:64:
                    63:26:fa:f9:df:3f:5f:9d:b4:2c:1c:db:bd:21:72:
                    c1:a0:15:a6:82:02:a6:68:8c:f6:6e:9e:7f:4c:2d:
                    57:eb:de:01:7a:77:86:67:90:0f:7d:95:68:30:f0:
                    8e:18:0a:40:32:64:4f:c6:13:2b:9c:57:7f:13:82:
                    58:13:8f:bd:b1:3a:fe:7b:d1:05:be:d0:fb:d3:0f:
                    a3:e2:ab:2e:d6:8d:e6:79:d1:a0:bb:05:80:c7:15:
                    c9:df:bc:3e:b0:22:9b:aa:58:9e:13:72:c6:24:16:
                    d7:29:57:76:16:dd:7a:a1:71:5d:43:28:45:06:1c:
                    43:99:b6:b8:98:5c:37:e9:de:f4:4c:a8:dc:e7:6d:
                    01:5a:39:18:cd:6c:41:c9:cc:9d:81:1b:1a:f9:ec:
                    f1:3a:fa:51:b4:13:8c:20:a7:12:a8:02:5c:37:6d:
                    cc:d3:c9:9d:e8:52:9e:44:65:e9:b3:89:80:83:f5:
                    8d:e6:ce:a6:e9:8d:0d:02:0b:c7:f0:23:ee:b6:af:
                    23:82:5c:31:98:ba:08:f3:72:ee:d5:84:16:9d:9e:
                    ab:0e:b8:f7:0f:6d:1b:12:fa:c4:dc:4e:99:d9:ca:
                    2d:af:d4:61:66:cc:cd:26:8e:ed:eb:40:06:a7:da:
                    fc:31:c7:df:f2:e5:31:44:65:c1:4f:df:3e:40:9d:
                    bf:7a:01:23:fc:4f:73:4e:e7:d7:4d:b5:0c:ef:42:
                    64:7d:4e:ea:ec:16:22:93:41:cf:0c:79:c7:d0:1a:
                    a3:5c:df:8c:dd:74:0f:56:62:8c:eb:21:33:34:af:
                    b9:16:9c:2b:cd:41:8f:a4:a3:2e:6f:2d:24:6c:87:
                    74:d0:27:00:e2:31:22:1e:16:31:8a:76:c6:9d:62:
                    2e:7c:43:f9:0e:28:e7:ac:a3:47:9d:55:2f:28:dc:
                    97:97:b0:3b:c6:78:cb:13:66:fa:e7:24:7b:68:90:
                    40:1a:89:7f:f4:c4:df:5a:7f:4e:41:35:bf:20:50:
                    4b:53:ba:72:f2:da:d5:50:fc:28:47:3a:9a:b5:e1:
                    5c:a7:3f:bd:42:32:0c:c8:21:f8:4a:64:db:46:16:
                    97:07:6f:d1:08:87:a8:44:32:5c:ec:4b:b2:64:b2:
                    c9:31:51:ed:87:e0:d5:13:3d:76:64:3f:f6:39:51:
                    98:1b:76:11:bd:98:3f:70:2b:27:1c:17:10:89:f5:
                    43:19:59
                Exponent: 65537 (0x10001)
        X509v3 extensions:
            X509v3 Basic Constraints: 
                CA:FALSE
            Netscape Comment: 
                Easy-RSA Generated Certificate
            X509v3 Subject Key Identifier: 
                88:5C:E5:E7:14:B0:45:5C:01:01:04:D4:64:9C:25:30:8D:E9:11:62
            X509v3 Authority Key Identifier: 
                keyid:12:CD:60:04:D2:A0:80:9E:70:ED:C6:99:B8:7B:2C:C6:52:FD:19:A1
                DirName:/C=US/ST=OH/L=Columbus/O=VikingVPN/OU=MyOrganizationalUnit/CN=VikingVPN CA/name=EasyRSA/emailAddress=me@myhost.mydomain
                serial:CF:35:85:EE:80:BF:2A:3E

            X509v3 Extended Key Usage: 
                TLS Web Client Authentication
            X509v3 Key Usage: 
                Digital Signature
    Signature Algorithm: md5WithRSAEncryption
         48:35:6e:9e:10:8b:29:f1:4c:30:33:d7:e9:60:0f:39:8e:06:
         f7:44:a5:9c:70:57:11:4d:ff:fa:85:cf:3a:29:f7:f8:ee:29:
         96:e2:c2:24:e3:17:87:5a:6f:f4:94:09:87:c6:53:fc:b4:19:
         cd:16:5f:70:f9:07:b9:89:d1:c8:d3:f6:6c:32:b3:c3:e6:c5:
         4a:a7:94:92:05:cb:53:41:c7:22:37:67:a8:52:bd:04:a0:f6:
         73:fd:c2:bb:29:39:6a:4b:00:74:29:35:93:cb:3a:4b:35:62:
         b2:69:da:3f:c9:6c:96:87:de:7d:4d:ec:3e:23:73:b8:73:6c:
         21:b0:25:39:f7:de:2f:7a:6c:5b:9f:53:15:34:7d:1a:e4:44:
         8f:2d:1f:19:09:4c:cb:01:15:b6:e7:cf:41:d1:98:5a:0e:57:
         0c:46:fd:d8:f9:d9:e7:e2:68:0b:d2:cf:d1:0b:8e:cb:a4:fc:
         06:c1:19:c0:1e:cc:de:52:02:b0:3c:21:8a:52:40:50:2e:d6:
         f9:8b:0f:b1:b4:9a:3e:5d:17:48:ac:5b:48:01:22:3a:91:41:
         62:b7:cc:63:7c:f7:ee:56:ac:9a:11:52:4a:3b:cb:2a:c1:19:
         51:5e:d2:b7:45:eb:48:0e:3d:83:11:df:cf:07:28:4f:7c:61:
         78:04:5b:2e:c2:5b:99:20:0d:dd:ca:d2:9d:de:52:fd:16:34:
         93:ef:7f:62:96:96:da:bd:ce:a9:f6:b0:ec:7a:fc:a7:fb:bf:
         eb:b0:cd:93:c2:fd:c2:cf:08:51:ab:3e:c2:3c:db:5f:e2:3f:
         53:b0:de:f4:3a:08:5b:9c:ae:7d:b5:25:4d:4c:89:b2:e0:d6:
         e7:d7:a6:2a:aa:17:74:e9:a0:cf:0f:12:31:43:19:22:ca:60:
         c0:c7:47:89:10:3d:b6:e4:65:fb:a1:1a:60:b4:53:ef:fd:62:
         6b:7e:34:1c:9b:7e:97:2e:77:06:a0:55:5b:c1:1a:2c:b9:9d:
         a5:0c:c8:8e:f8:24:06:e8:23:9c:cc:95:63:98:59:7d:4e:18:
         80:ae:49:3e:78:79:8b:2e:c3:8f:9c:ef:8b:6f:60:7c:45:5f:
         b0:0c:c9:ec:cc:3c:59:9e:04:0b:01:f4:e8:ab:83:47:6c:83:
         16:e9:5d:6d:84:af:6e:0d:4b:a4:1b:1a:5b:bc:49:7b:6f:f9:
         f4:dc:b7:e5:ec:a9:2f:9b:66:53:c6:cc:97:1e:aa:38:84:35:
         3d:e4:1f:af:31:63:dd:11:8c:1f:8a:e1:fa:19:7e:6d:6f:a0:
         b2:dc:9c:8b:51:cc:32:ce:98:fa:ba:aa:ce:f8:95:b3:c6:4f:
         1b:43:44:21:9a:85:18:a4
-----BEGIN CERTIFICATE-----
MIIGrDCCBJSgAwIBAgICANowDQYJKoZIhvcNAQEEBQAwgawxCzAJBgNVBAYTAlVT
MQswCQYDVQQIEwJPSDERMA8GA1UEBxMIQ29sdW1idXMxEjAQBgNVBAoTCVZpa2lu
Z1ZQTjEdMBsGA1UECxMUTXlPcmdhbml6YXRpb25hbFVuaXQxFTATBgNVBAMTDFZp
a2luZ1ZQTiBDQTEQMA4GA1UEKRMHRWFzeVJTQTEhMB8GCSqGSIb3DQEJARYSbWVA
bXlob3N0Lm15ZG9tYWluMB4XDTEzMDkxOTE3MTIwMVoXDTIzMDkxNzE3MTIwMVow
HjEcMBoGA1UEAxMTQ2xpZW50MTA3Q2VydGZmNzFhNTCCAiIwDQYJKoZIhvcNAQEB
BQADggIPADCCAgoCggIBANbK7IWTQ/PCHTqzVJnpkmWJBmBLo54DktIQbDLAZRr1
+0O6ym206Lj6U++UwnLNAXNd6Pw5H9ExW0JkYyb6+d8/X520LBzbvSFywaAVpoIC
pmiM9m6ef0wtV+veAXp3hmeQD32VaDDwjhgKQDJkT8YTK5xXfxOCWBOPvbE6/nvR
Bb7Q+9MPo+KrLtaN5nnRoLsFgMcVyd+8PrAim6pYnhNyxiQW1ylXdhbdeqFxXUMo
RQYcQ5m2uJhcN+ne9Eyo3OdtAVo5GM1sQcnMnYEbGvns8Tr6UbQTjCCnEqgCXDdt
zNPJnehSnkRl6bOJgIP1jebOpumNDQILx/Aj7ravI4JcMZi6CPNy7tWEFp2eqw64
9w9tGxL6xNxOmdnKLa/UYWbMzSaO7etABqfa/DHH3/LlMURlwU/fPkCdv3oBI/xP
c07n1021DO9CZH1O6uwWIpNBzwx5x9Aao1zfjN10D1ZijOshMzSvuRacK81Bj6Sj
Lm8tJGyHdNAnAOIxIh4WMYp2xp1iLnxD+Q4o56yjR51VLyjcl5ewO8Z4yxNm+uck
e2iQQBqJf/TE31p/TkE1vyBQS1O6cvLa1VD8KEc6mrXhXKc/vUIyDMgh+Epk20YW
lwdv0QiHqEQyXOxLsmSyyTFR7Yfg1RM9dmQ/9jlRmBt2Eb2YP3ArJxwXEIn1QxlZ
AgMBAAGjggFjMIIBXzAJBgNVHRMEAjAAMC0GCWCGSAGG+EIBDQQgFh5FYXN5LVJT
QSBHZW5lcmF0ZWQgQ2VydGlmaWNhdGUwHQYDVR0OBBYEFIhc5ecUsEVcAQEE1GSc
JTCN6RFiMIHhBgNVHSMEgdkwgdaAFBLNYATSoICecO3Gmbh7LMZS/RmhoYGypIGv
MIGsMQswCQYDVQQGEwJVUzELMAkGA1UECBMCT0gxETAPBgNVBAcTCENvbHVtYnVz
MRIwEAYDVQQKEwlWaWtpbmdWUE4xHTAbBgNVBAsTFE15T3JnYW5pemF0aW9uYWxV
bml0MRUwEwYDVQQDEwxWaWtpbmdWUE4gQ0ExEDAOBgNVBCkTB0Vhc3lSU0ExITAf
BgkqhkiG9w0BCQEWEm1lQG15aG9zdC5teWRvbWFpboIJAM81he6Avyo+MBMGA1Ud
JQQMMAoGCCsGAQUFBwMCMAsGA1UdDwQEAwIHgDANBgkqhkiG9w0BAQQFAAOCAgEA
SDVunhCLKfFMMDPX6WAPOY4G90SlnHBXEU3/+oXPOin3+O4pluLCJOMXh1pv9JQJ
h8ZT/LQZzRZfcPkHuYnRyNP2bDKzw+bFSqeUkgXLU0HHIjdnqFK9BKD2c/3Cuyk5
aksAdCk1k8s6SzVismnaP8lslofefU3sPiNzuHNsIbAlOffeL3psW59TFTR9GuRE
jy0fGQlMywEVtufPQdGYWg5XDEb92PnZ5+JoC9LP0QuOy6T8BsEZwB7M3lICsDwh
ilJAUC7W+YsPsbSaPl0XSKxbSAEiOpFBYrfMY3z37lasmhFSSjvLKsEZUV7St0Xr
SA49gxHfzwcoT3xheARbLsJbmSAN3crSnd5S/RY0k+9/YpaW2r3Oqfaw7Hr8p/u/
67DNk8L9ws8IUas+wjzbX+I/U7De9DoIW5yufbUlTUyJsuDW59emKqoXdOmgzw8S
MUMZIspgwMdHiRA9tuRl+6EaYLRT7/1ia340HJt+ly53BqBVW8EaLLmdpQzIjvgk
BugjnMyVY5hZfU4YgK5JPnh5iy7Dj5zvi29gfEVfsAzJ7Mw8WZ4ECwH06KuDR2yD
FuldbYSvbg1LpBsaW7xJe2/59Ny35eypL5tmU8bMlx6qOIQ1PeQfrzFj3RGMH4rh
+hl+bW+gstyci1HMMs6Y+rqqzviVs8ZPG0NEIZqFGKQ=
-----END CERTIFICATE-----
