Certificate:
    Data:
        Version: 3 (0x2)
        Serial Number: 235 (0xeb)
    Signature Algorithm: md5WithRSAEncryption
        Issuer: C=US, ST=OH, L=Columbus, O=VikingVPN, OU=MyOrganizationalUnit, CN=VikingVPN CA/name=EasyRSA/emailAddress=me@myhost.mydomain
        Validity
            Not Before: Sep 24 11:26:35 2013 GMT
            Not After : Sep 22 11:26:35 2023 GMT
        Subject: CN=Client116Certf88d16
        Subject Public Key Info:
            Public Key Algorithm: rsaEncryption
                Public-Key: (4096 bit)
                Modulus:
                    00:af:0c:89:f5:b2:7d:ab:12:54:ba:c1:a5:df:ae:
                    ba:27:6d:15:5d:13:7f:f7:e8:1d:76:de:fd:6e:4a:
                    b8:5b:9d:91:3a:9b:4b:83:22:0b:07:58:de:77:64:
                    fd:cc:e5:d7:84:13:0a:25:68:92:4f:bf:65:fa:11:
                    87:91:fe:d0:81:fa:ed:6c:00:cd:c7:c5:a9:87:4a:
                    02:6f:df:d9:75:88:ca:16:fb:55:c3:79:bf:38:6f:
                    e5:46:de:7e:b8:a3:c6:18:33:ad:b8:a0:11:07:4d:
                    db:84:71:dc:7d:d2:ff:4e:d1:6e:71:8e:36:fd:35:
                    93:a4:53:76:69:17:e9:0a:54:eb:fa:3a:82:6d:2e:
                    a8:1a:6e:a8:80:90:a3:3d:d0:f0:ae:eb:90:f0:80:
                    52:77:c0:82:4e:e9:f2:32:75:bd:d2:b0:a1:89:1f:
                    bc:91:c9:fa:51:ac:66:4d:75:7b:91:0a:3d:b6:b8:
                    b9:f5:d4:d2:d8:aa:86:c1:04:84:45:52:4c:37:31:
                    35:50:f3:5c:4f:c1:b6:99:3c:24:36:29:82:05:92:
                    bb:40:c7:ac:5d:ad:d4:53:9c:43:20:3c:ed:21:87:
                    c8:65:b4:75:3b:f6:ae:c2:e1:b6:0c:ee:9a:eb:31:
                    b2:27:3d:8b:87:18:72:65:18:4b:21:19:2d:8b:21:
                    34:e0:16:04:0e:f4:e6:48:51:2b:90:a0:22:d2:35:
                    34:4a:df:d9:c5:37:65:4e:ab:f8:0f:b2:13:c1:4b:
                    a4:2c:0f:6c:3a:b2:65:b5:d8:36:b3:40:e9:54:0b:
                    c2:d7:f4:b2:a9:2d:53:f1:c7:68:c5:01:62:82:e2:
                    31:9b:3f:9a:d7:d0:19:05:dc:90:84:f6:f0:e4:29:
                    df:c3:93:78:c8:2b:d8:99:50:5b:7c:3c:e2:d9:e9:
                    42:4f:f6:48:61:03:88:e5:48:9d:a1:b9:84:6a:84:
                    b7:b3:3f:53:27:0f:21:bb:3f:a0:68:25:32:0e:a7:
                    89:8c:c4:57:7b:b3:55:77:a3:59:3c:85:89:cf:59:
                    da:0c:e3:19:2f:ae:65:c6:49:1b:2e:c6:54:ce:38:
                    2e:0a:06:79:0e:2d:e1:9d:f2:3a:65:98:73:6c:cc:
                    4e:1d:fd:fe:ad:fe:4d:b1:c4:cb:1e:61:83:8b:7c:
                    b2:49:0d:d4:64:6e:f5:ed:fb:5f:0e:c0:b4:be:97:
                    f1:b1:22:92:a1:7c:53:d5:5f:bb:59:6b:db:6c:84:
                    0e:e4:0f:9c:d4:22:9d:b2:0e:38:c3:fd:16:5f:6a:
                    46:65:cf:af:c9:d4:bd:38:8e:f3:96:8a:0a:24:ac:
                    54:15:7b:1e:87:e8:8b:77:4e:c4:b0:83:02:22:2a:
                    bd:59:ed
                Exponent: 65537 (0x10001)
        X509v3 extensions:
            X509v3 Basic Constraints: 
                CA:FALSE
            Netscape Comment: 
                Easy-RSA Generated Certificate
            X509v3 Subject Key Identifier: 
                7D:B7:20:E2:E4:97:C0:18:21:0A:A9:C8:92:55:BB:E2:54:69:7D:0C
            X509v3 Authority Key Identifier: 
                keyid:12:CD:60:04:D2:A0:80:9E:70:ED:C6:99:B8:7B:2C:C6:52:FD:19:A1
                DirName:/C=US/ST=OH/L=Columbus/O=VikingVPN/OU=MyOrganizationalUnit/CN=VikingVPN CA/name=EasyRSA/emailAddress=me@myhost.mydomain
                serial:CF:35:85:EE:80:BF:2A:3E

            X509v3 Extended Key Usage: 
                TLS Web Client Authentication
            X509v3 Key Usage: 
                Digital Signature
    Signature Algorithm: md5WithRSAEncryption
         5c:0e:6c:84:4c:db:e7:35:9b:53:83:aa:7c:05:92:cb:0e:4c:
         1b:bb:43:52:7b:0b:7d:5d:13:ea:90:55:89:87:1b:1a:b8:86:
         91:5b:f3:43:eb:db:b7:56:57:94:f7:1d:3a:f8:80:ac:0a:f5:
         7e:34:c0:f0:4c:7e:95:70:e5:5e:d9:46:60:00:54:3d:3e:e8:
         c2:64:b1:4b:63:06:aa:5d:df:b7:19:96:0e:be:2a:b6:ca:f6:
         44:44:e3:40:4a:f4:1f:e5:b4:02:d5:47:2b:b3:01:45:47:10:
         ae:4b:d2:b6:52:03:02:f0:66:17:f2:21:96:e0:e8:10:7a:a0:
         04:d9:57:94:57:ff:4b:06:89:bc:68:28:bf:48:c5:55:cb:10:
         f5:5c:1e:01:12:21:b5:21:50:e0:e6:77:90:14:39:12:a0:57:
         33:11:7f:1b:37:9e:9a:12:1d:7a:84:f0:33:65:25:67:98:02:
         44:ae:16:16:4a:2e:aa:1a:7f:27:ca:0e:76:65:7d:e6:a9:a3:
         d1:fe:f0:c0:84:8a:f8:40:2e:1e:9d:b2:90:ca:f9:4f:6e:eb:
         09:e2:15:2c:c9:4e:23:29:b0:44:67:ae:2e:52:04:ff:41:b2:
         74:47:72:7f:a7:b0:13:db:6e:e8:64:32:cd:7a:78:3e:bd:f8:
         ba:45:bc:73:fb:a5:03:aa:70:6c:72:36:91:65:f1:a2:a2:f7:
         66:44:3c:83:e3:c1:25:9c:ef:25:25:3d:c5:de:77:fb:78:46:
         70:54:97:f6:69:6f:3a:0a:1a:48:8c:93:3c:50:a2:eb:fb:2d:
         16:47:47:b3:c6:18:3b:40:da:85:a2:ed:f5:76:4a:66:e8:c3:
         a9:03:ef:13:ff:7b:99:db:17:68:d7:d3:88:bf:37:81:96:b7:
         e0:2c:97:d2:8c:b7:82:36:aa:e2:52:f4:f6:f3:7c:dc:93:f7:
         28:a4:8e:04:12:75:f9:e8:76:bb:84:d4:f7:b3:81:e4:d8:a1:
         cf:18:83:ae:75:4f:08:1d:cc:7f:d6:b0:0c:bf:8a:03:d7:fe:
         5c:96:02:1d:44:56:62:9e:23:af:13:ec:79:f0:25:b0:0a:b5:
         5e:ba:d1:ef:a1:ea:2f:27:7d:d7:70:c6:a7:f0:83:c6:6c:27:
         5f:d3:10:b6:00:58:09:71:4e:23:7a:8d:17:1e:a6:40:d5:5c:
         fd:dc:99:a8:32:21:b0:69:18:e6:9a:f5:88:88:42:83:e9:ad:
         8a:a8:3e:e8:0c:20:2f:88:55:9f:f7:21:e8:54:5d:94:2e:29:
         15:39:13:69:54:b3:70:db:ca:b2:48:39:7a:77:4d:fa:33:75:
         70:71:c5:4d:52:6b:10:5d
-----BEGIN CERTIFICATE-----
MIIGrDCCBJSgAwIBAgICAOswDQYJKoZIhvcNAQEEBQAwgawxCzAJBgNVBAYTAlVT
MQswCQYDVQQIEwJPSDERMA8GA1UEBxMIQ29sdW1idXMxEjAQBgNVBAoTCVZpa2lu
Z1ZQTjEdMBsGA1UECxMUTXlPcmdhbml6YXRpb25hbFVuaXQxFTATBgNVBAMTDFZp
a2luZ1ZQTiBDQTEQMA4GA1UEKRMHRWFzeVJTQTEhMB8GCSqGSIb3DQEJARYSbWVA
bXlob3N0Lm15ZG9tYWluMB4XDTEzMDkyNDExMjYzNVoXDTIzMDkyMjExMjYzNVow
HjEcMBoGA1UEAxMTQ2xpZW50MTE2Q2VydGY4OGQxNjCCAiIwDQYJKoZIhvcNAQEB
BQADggIPADCCAgoCggIBAK8MifWyfasSVLrBpd+uuidtFV0Tf/foHXbe/W5KuFud
kTqbS4MiCwdY3ndk/czl14QTCiVokk+/ZfoRh5H+0IH67WwAzcfFqYdKAm/f2XWI
yhb7VcN5vzhv5UbefrijxhgzrbigEQdN24Rx3H3S/07RbnGONv01k6RTdmkX6QpU
6/o6gm0uqBpuqICQoz3Q8K7rkPCAUnfAgk7p8jJ1vdKwoYkfvJHJ+lGsZk11e5EK
Pba4ufXU0tiqhsEEhEVSTDcxNVDzXE/Btpk8JDYpggWSu0DHrF2t1FOcQyA87SGH
yGW0dTv2rsLhtgzumusxsic9i4cYcmUYSyEZLYshNOAWBA705khRK5CgItI1NErf
2cU3ZU6r+A+yE8FLpCwPbDqyZbXYNrNA6VQLwtf0sqktU/HHaMUBYoLiMZs/mtfQ
GQXckIT28OQp38OTeMgr2JlQW3w84tnpQk/2SGEDiOVInaG5hGqEt7M/UycPIbs/
oGglMg6niYzEV3uzVXejWTyFic9Z2gzjGS+uZcZJGy7GVM44LgoGeQ4t4Z3yOmWY
c2zMTh39/q3+TbHEyx5hg4t8skkN1GRu9e37Xw7AtL6X8bEikqF8U9Vfu1lr22yE
DuQPnNQinbIOOMP9Fl9qRmXPr8nUvTiO85aKCiSsVBV7Hofoi3dOxLCDAiIqvVnt
AgMBAAGjggFjMIIBXzAJBgNVHRMEAjAAMC0GCWCGSAGG+EIBDQQgFh5FYXN5LVJT
QSBHZW5lcmF0ZWQgQ2VydGlmaWNhdGUwHQYDVR0OBBYEFH23IOLkl8AYIQqpyJJV
u+JUaX0MMIHhBgNVHSMEgdkwgdaAFBLNYATSoICecO3Gmbh7LMZS/RmhoYGypIGv
MIGsMQswCQYDVQQGEwJVUzELMAkGA1UECBMCT0gxETAPBgNVBAcTCENvbHVtYnVz
MRIwEAYDVQQKEwlWaWtpbmdWUE4xHTAbBgNVBAsTFE15T3JnYW5pemF0aW9uYWxV
bml0MRUwEwYDVQQDEwxWaWtpbmdWUE4gQ0ExEDAOBgNVBCkTB0Vhc3lSU0ExITAf
BgkqhkiG9w0BCQEWEm1lQG15aG9zdC5teWRvbWFpboIJAM81he6Avyo+MBMGA1Ud
JQQMMAoGCCsGAQUFBwMCMAsGA1UdDwQEAwIHgDANBgkqhkiG9w0BAQQFAAOCAgEA
XA5shEzb5zWbU4OqfAWSyw5MG7tDUnsLfV0T6pBViYcbGriGkVvzQ+vbt1ZXlPcd
OviArAr1fjTA8Ex+lXDlXtlGYABUPT7owmSxS2MGql3ftxmWDr4qtsr2RETjQEr0
H+W0AtVHK7MBRUcQrkvStlIDAvBmF/IhluDoEHqgBNlXlFf/SwaJvGgov0jFVcsQ
9VweARIhtSFQ4OZ3kBQ5EqBXMxF/GzeemhIdeoTwM2UlZ5gCRK4WFkouqhp/J8oO
dmV95qmj0f7wwISK+EAuHp2ykMr5T27rCeIVLMlOIymwRGeuLlIE/0GydEdyf6ew
E9tu6GQyzXp4Pr34ukW8c/ulA6pwbHI2kWXxoqL3ZkQ8g+PBJZzvJSU9xd53+3hG
cFSX9mlvOgoaSIyTPFCi6/stFkdHs8YYO0DahaLt9XZKZujDqQPvE/97mdsXaNfT
iL83gZa34CyX0oy3gjaq4lL09vN83JP3KKSOBBJ1+eh2u4TU97OB5NihzxiDrnVP
CB3Mf9awDL+KA9f+XJYCHURWYp4jrxPsefAlsAq1XrrR76HqLyd913DGp/CDxmwn
X9MQtgBYCXFOI3qNFx6mQNVc/dyZqDIhsGkY5pr1iIhCg+mtiqg+6AwgL4hVn/ch
6FRdlC4pFTkTaVSzcNvKskg5endN+jN1cHHFTVJrEF0=
-----END CERTIFICATE-----
