Certificate:
    Data:
        Version: 3 (0x2)
        Serial Number: 237 (0xed)
    Signature Algorithm: md5WithRSAEncryption
        Issuer: C=US, ST=OH, L=Columbus, O=VikingVPN, OU=MyOrganizationalUnit, CN=VikingVPN CA/name=EasyRSA/emailAddress=me@myhost.mydomain
        Validity
            Not Before: Sep 24 14:03:35 2013 GMT
            Not After : Sep 22 14:03:35 2023 GMT
        Subject: CN=Client117Cert806985
        Subject Public Key Info:
            Public Key Algorithm: rsaEncryption
                Public-Key: (4096 bit)
                Modulus:
                    00:b5:e1:07:ce:9e:0b:ef:30:a0:77:12:02:22:d2:
                    fb:34:09:78:ca:83:90:29:5b:e4:2e:c6:c4:f5:ab:
                    d4:2c:d4:66:21:87:a2:5e:3a:68:9e:f8:55:81:e1:
                    5d:8a:4f:60:55:af:d9:86:1d:74:8f:aa:2b:05:2d:
                    58:1c:39:46:0f:03:12:79:33:a2:4a:c1:43:b4:21:
                    ae:7a:80:af:c3:b4:39:b7:27:77:98:4b:83:23:ae:
                    97:43:c5:e9:0f:81:0e:b1:56:83:bf:fb:2e:ed:f9:
                    2f:98:6d:b9:f9:5f:58:1f:2f:e2:b8:a3:b4:d9:a3:
                    57:25:7e:30:6b:04:e5:20:99:8f:b6:83:6a:78:67:
                    77:a7:83:59:2a:74:69:3d:06:d4:ad:93:39:d7:35:
                    62:6f:78:5b:43:60:46:e3:fc:20:01:e3:78:68:10:
                    1a:86:74:a5:1c:27:18:a7:11:1b:b7:88:34:70:7c:
                    00:e6:99:62:3b:0f:dc:36:23:28:df:1c:39:ba:fa:
                    01:f4:97:78:d3:d6:2a:c7:e6:d8:13:1a:82:ea:e0:
                    3d:a6:fd:a6:ae:80:da:2f:ec:f4:60:58:e5:c8:b7:
                    bc:7f:d2:e4:a7:df:14:0a:6e:4e:c6:b2:d0:01:1d:
                    41:19:99:66:ae:e6:6c:dc:85:cd:c8:8d:67:23:90:
                    7f:b8:7b:0d:70:e0:60:93:1a:3b:2d:6f:56:62:93:
                    b8:b7:f6:44:9f:0e:2b:cd:6a:5a:1b:8e:e2:42:1a:
                    52:49:14:9e:a5:bb:bd:01:f0:d2:03:ce:49:57:f2:
                    2c:32:e7:c4:4f:89:5f:44:a7:99:ed:a7:82:bb:d6:
                    43:37:c9:13:49:1b:b8:2e:62:b4:c3:55:9e:b4:e5:
                    67:4f:bd:df:66:5d:7e:c3:9f:70:e9:fb:cd:8c:83:
                    e7:6d:19:7a:14:59:2d:9f:87:6e:70:0c:40:13:f6:
                    87:37:3a:f9:4b:7b:8a:da:8c:0b:69:71:72:45:ac:
                    61:ae:b7:0b:ab:ef:ec:83:5e:d4:fc:5b:56:2b:95:
                    f1:12:af:c5:d9:87:9d:d5:03:d7:28:c6:95:9e:48:
                    28:3d:c8:43:e7:16:67:47:6d:b7:60:4a:1a:69:5d:
                    aa:ba:17:fb:bd:08:04:97:73:94:f5:b1:80:62:e4:
                    57:86:9c:ce:c2:30:70:4c:75:82:46:07:4d:14:24:
                    2a:7f:b1:77:e8:5b:f2:d7:29:6d:25:13:6b:98:ce:
                    e4:50:16:8f:a6:02:3e:d8:56:7a:df:75:9e:48:bd:
                    3c:85:e3:78:dd:27:83:c5:40:cc:71:aa:4e:21:6b:
                    2e:30:a6:8f:de:8f:94:96:f7:4f:a5:bd:6d:1a:e1:
                    66:99:91
                Exponent: 65537 (0x10001)
        X509v3 extensions:
            X509v3 Basic Constraints: 
                CA:FALSE
            Netscape Comment: 
                Easy-RSA Generated Certificate
            X509v3 Subject Key Identifier: 
                DE:92:31:CA:7A:4B:D4:59:A9:48:BC:C8:3D:4D:07:0B:6D:D0:36:BD
            X509v3 Authority Key Identifier: 
                keyid:12:CD:60:04:D2:A0:80:9E:70:ED:C6:99:B8:7B:2C:C6:52:FD:19:A1
                DirName:/C=US/ST=OH/L=Columbus/O=VikingVPN/OU=MyOrganizationalUnit/CN=VikingVPN CA/name=EasyRSA/emailAddress=me@myhost.mydomain
                serial:CF:35:85:EE:80:BF:2A:3E

            X509v3 Extended Key Usage: 
                TLS Web Client Authentication
            X509v3 Key Usage: 
                Digital Signature
    Signature Algorithm: md5WithRSAEncryption
         48:fe:bd:6a:27:ef:10:c9:87:8a:ff:bc:da:46:64:26:54:6f:
         9d:38:c6:ce:3a:e7:eb:67:44:e2:b7:c9:93:68:5e:d4:ae:af:
         04:79:a5:0c:81:72:99:97:46:f0:0b:44:dc:82:b6:db:30:77:
         46:51:39:52:11:a0:eb:25:0d:7f:09:04:c8:e5:07:59:77:1f:
         3d:77:fd:94:90:9b:bb:3c:39:2e:dd:77:d0:35:48:fc:1a:cf:
         50:aa:68:ef:ad:cd:56:45:b2:16:b1:f0:f2:03:68:93:c8:ac:
         5a:6c:95:fc:30:3c:10:ba:a0:90:2d:83:71:18:3d:de:46:94:
         14:2d:d4:a2:33:9b:e2:89:3b:9a:02:ef:a9:cd:58:aa:bb:d2:
         40:71:6d:2d:46:bc:d7:e7:ef:7a:68:2a:69:70:6b:43:d1:7e:
         2a:26:16:77:ff:d2:5f:19:fb:90:66:e8:88:29:48:88:50:3b:
         e7:2f:70:db:5e:c1:fa:85:73:63:ed:fc:02:e4:f8:24:0e:12:
         c3:92:a1:dc:e0:52:0e:f0:54:fe:8e:03:1d:d5:9b:6e:62:cb:
         f2:9e:e1:b4:9c:97:85:54:ff:bd:d0:31:f8:fd:60:81:ed:0b:
         39:9d:f5:88:ba:56:00:7e:43:15:be:51:74:81:c5:a5:60:e3:
         9d:f6:74:d7:af:2f:a0:b9:7c:b6:dc:04:0b:7e:6d:c7:8d:5d:
         d8:8a:df:21:ec:97:5e:1d:dc:d3:c4:25:ee:7e:01:a6:ba:12:
         ce:5a:1d:7c:c4:aa:88:f4:09:7f:85:3d:5c:13:18:15:70:66:
         f9:0f:ba:dc:eb:71:9c:bb:5a:4b:b2:ed:01:95:1f:ea:09:84:
         81:75:61:d7:a5:90:f9:36:27:a5:a6:de:19:2c:e6:5b:11:ed:
         ec:11:6a:63:37:7d:2f:0c:9d:65:2d:d2:2c:90:9c:1b:b8:f1:
         3a:14:fe:5d:09:20:a1:fe:6e:2d:30:28:c3:b3:24:6e:be:a4:
         01:39:cf:0e:a1:b3:59:1d:61:5c:43:b8:4e:ff:b2:36:52:c6:
         3d:99:63:bb:a2:da:cb:7a:5b:48:5e:29:8f:3b:6c:89:7b:6b:
         4e:25:6e:c7:4d:8f:46:57:34:70:73:30:a9:d3:90:14:1e:8f:
         83:ee:31:d8:a0:dd:4d:aa:e2:1f:c8:d6:82:00:9a:7e:5f:94:
         6d:28:4a:fc:48:f6:aa:6c:77:82:1a:d2:4b:c1:fb:39:c1:e2:
         48:38:d0:29:eb:1c:d4:ee:6b:dc:71:14:e7:e4:f4:12:cf:83:
         a8:6f:4e:c6:2e:30:3f:5e:f0:e0:25:b4:62:6e:01:48:0b:69:
         93:7f:b0:3b:e8:be:c8:76
-----BEGIN CERTIFICATE-----
MIIGrDCCBJSgAwIBAgICAO0wDQYJKoZIhvcNAQEEBQAwgawxCzAJBgNVBAYTAlVT
MQswCQYDVQQIEwJPSDERMA8GA1UEBxMIQ29sdW1idXMxEjAQBgNVBAoTCVZpa2lu
Z1ZQTjEdMBsGA1UECxMUTXlPcmdhbml6YXRpb25hbFVuaXQxFTATBgNVBAMTDFZp
a2luZ1ZQTiBDQTEQMA4GA1UEKRMHRWFzeVJTQTEhMB8GCSqGSIb3DQEJARYSbWVA
bXlob3N0Lm15ZG9tYWluMB4XDTEzMDkyNDE0MDMzNVoXDTIzMDkyMjE0MDMzNVow
HjEcMBoGA1UEAxMTQ2xpZW50MTE3Q2VydDgwNjk4NTCCAiIwDQYJKoZIhvcNAQEB
BQADggIPADCCAgoCggIBALXhB86eC+8woHcSAiLS+zQJeMqDkClb5C7GxPWr1CzU
ZiGHol46aJ74VYHhXYpPYFWv2YYddI+qKwUtWBw5Rg8DEnkzokrBQ7QhrnqAr8O0
Obcnd5hLgyOul0PF6Q+BDrFWg7/7Lu35L5htuflfWB8v4rijtNmjVyV+MGsE5SCZ
j7aDanhnd6eDWSp0aT0G1K2TOdc1Ym94W0NgRuP8IAHjeGgQGoZ0pRwnGKcRG7eI
NHB8AOaZYjsP3DYjKN8cObr6AfSXeNPWKsfm2BMagurgPab9pq6A2i/s9GBY5ci3
vH/S5KffFApuTsay0AEdQRmZZq7mbNyFzciNZyOQf7h7DXDgYJMaOy1vVmKTuLf2
RJ8OK81qWhuO4kIaUkkUnqW7vQHw0gPOSVfyLDLnxE+JX0Snme2ngrvWQzfJE0kb
uC5itMNVnrTlZ0+932ZdfsOfcOn7zYyD520ZehRZLZ+HbnAMQBP2hzc6+Ut7itqM
C2lxckWsYa63C6vv7INe1PxbViuV8RKvxdmHndUD1yjGlZ5IKD3IQ+cWZ0dtt2BK
GmldqroX+70IBJdzlPWxgGLkV4aczsIwcEx1gkYHTRQkKn+xd+hb8tcpbSUTa5jO
5FAWj6YCPthWet91nki9PIXjeN0ng8VAzHGqTiFrLjCmj96PlJb3T6W9bRrhZpmR
AgMBAAGjggFjMIIBXzAJBgNVHRMEAjAAMC0GCWCGSAGG+EIBDQQgFh5FYXN5LVJT
QSBHZW5lcmF0ZWQgQ2VydGlmaWNhdGUwHQYDVR0OBBYEFN6SMcp6S9RZqUi8yD1N
Bwtt0Da9MIHhBgNVHSMEgdkwgdaAFBLNYATSoICecO3Gmbh7LMZS/RmhoYGypIGv
MIGsMQswCQYDVQQGEwJVUzELMAkGA1UECBMCT0gxETAPBgNVBAcTCENvbHVtYnVz
MRIwEAYDVQQKEwlWaWtpbmdWUE4xHTAbBgNVBAsTFE15T3JnYW5pemF0aW9uYWxV
bml0MRUwEwYDVQQDEwxWaWtpbmdWUE4gQ0ExEDAOBgNVBCkTB0Vhc3lSU0ExITAf
BgkqhkiG9w0BCQEWEm1lQG15aG9zdC5teWRvbWFpboIJAM81he6Avyo+MBMGA1Ud
JQQMMAoGCCsGAQUFBwMCMAsGA1UdDwQEAwIHgDANBgkqhkiG9w0BAQQFAAOCAgEA
SP69aifvEMmHiv+82kZkJlRvnTjGzjrn62dE4rfJk2he1K6vBHmlDIFymZdG8AtE
3IK22zB3RlE5UhGg6yUNfwkEyOUHWXcfPXf9lJCbuzw5Lt130DVI/BrPUKpo763N
VkWyFrHw8gNok8isWmyV/DA8ELqgkC2DcRg93kaUFC3UojOb4ok7mgLvqc1YqrvS
QHFtLUa81+fvemgqaXBrQ9F+KiYWd//SXxn7kGboiClIiFA75y9w217B+oVzY+38
AuT4JA4Sw5Kh3OBSDvBU/o4DHdWbbmLL8p7htJyXhVT/vdAx+P1gge0LOZ31iLpW
AH5DFb5RdIHFpWDjnfZ0168voLl8ttwEC35tx41d2IrfIeyXXh3c08Ql7n4BproS
zlodfMSqiPQJf4U9XBMYFXBm+Q+63OtxnLtaS7LtAZUf6gmEgXVh16WQ+TYnpabe
GSzmWxHt7BFqYzd9LwydZS3SLJCcG7jxOhT+XQkgof5uLTAow7Mkbr6kATnPDqGz
WR1hXEO4Tv+yNlLGPZlju6Lay3pbSF4pjztsiXtrTiVux02PRlc0cHMwqdOQFB6P
g+4x2KDdTariH8jWggCafl+UbShK/Ej2qmx3ghrSS8H7OcHiSDjQKesc1O5r3HEU
5+T0Es+DqG9Oxi4wP17w4CW0Ym4BSAtpk3+wO+i+yHY=
-----END CERTIFICATE-----
