Certificate:
    Data:
        Version: 3 (0x2)
        Serial Number: 241 (0xf1)
    Signature Algorithm: md5WithRSAEncryption
        Issuer: C=US, ST=OH, L=Columbus, O=VikingVPN, OU=MyOrganizationalUnit, CN=VikingVPN CA/name=EasyRSA/emailAddress=me@myhost.mydomain
        Validity
            Not Before: Sep 28 09:50:00 2013 GMT
            Not After : Sep 26 09:50:00 2023 GMT
        Subject: CN=Client49Cert933390
        Subject Public Key Info:
            Public Key Algorithm: rsaEncryption
                Public-Key: (4096 bit)
                Modulus:
                    00:e1:19:98:d5:f8:46:b3:95:56:73:41:4e:3c:01:
                    12:ce:4e:b0:3a:6b:ad:71:94:73:53:77:97:f1:02:
                    6d:50:5e:97:fe:58:f3:7f:70:40:4e:46:38:13:60:
                    d4:4c:0d:36:2e:06:17:89:34:b6:6e:4e:8e:2e:31:
                    d7:38:eb:a5:5a:d0:ed:ee:36:90:a4:27:ef:3d:cd:
                    37:49:0f:a4:f0:86:91:ab:a4:c6:37:f4:4b:a5:7f:
                    40:db:7c:8f:03:c7:dc:0d:81:26:5a:aa:8e:80:01:
                    af:5a:51:09:31:9f:b1:eb:27:20:96:76:9b:31:bd:
                    8c:7f:69:52:aa:a0:c8:ac:ff:18:10:cd:7c:a1:66:
                    35:fa:19:0b:7c:a9:da:03:32:1d:5e:2c:d2:db:8c:
                    37:20:7a:d1:de:c2:b8:63:e9:27:71:27:9c:9e:95:
                    eb:ed:cf:66:7c:e1:11:35:ed:cc:f5:9e:ad:7c:0f:
                    9a:65:ad:9a:80:de:60:79:86:b3:b8:df:1f:44:39:
                    f7:55:d1:12:9d:8a:c6:ba:f2:16:fb:d7:18:d1:a4:
                    d1:31:8f:56:a0:ee:b7:f5:11:7f:23:b8:e7:43:97:
                    1a:b3:4c:8f:13:16:2c:95:9e:af:ec:cd:10:a5:d6:
                    aa:ad:6f:75:88:3f:4a:34:cd:43:31:24:c1:7c:3e:
                    b7:80:f4:2f:d5:fc:a0:3a:a6:01:41:ac:a8:8b:25:
                    8e:be:02:9b:72:6a:8b:54:c3:b1:43:8e:97:1c:b4:
                    fc:d9:fa:76:84:25:e6:79:9b:d9:1c:37:4b:f8:70:
                    51:c2:a5:90:e7:42:74:a7:ab:34:9b:40:72:c1:92:
                    e9:b4:05:ab:cf:33:fd:e6:80:d1:0a:ec:ae:46:cf:
                    d4:11:fe:0a:0b:97:3b:8f:83:6d:0e:ce:f1:56:8d:
                    58:f5:d6:2e:ff:e8:51:13:0d:ed:c4:1a:4f:27:1b:
                    97:dc:b1:ed:0c:b5:c2:8b:cc:c8:e8:3e:aa:04:d3:
                    d6:d9:01:3e:d0:84:ac:25:e9:6a:cb:fd:44:93:e0:
                    a0:f2:a6:15:18:08:3f:c9:4f:de:cd:92:29:01:e0:
                    bc:d9:d2:a1:5b:46:1d:2b:e5:ac:71:8f:36:a0:cc:
                    34:82:18:8a:e1:db:29:e5:42:39:38:5c:52:63:aa:
                    f0:b0:5b:8b:62:62:23:d1:5f:a2:58:92:35:38:45:
                    0f:cd:da:70:32:dd:df:93:42:ca:c4:32:8e:1b:ae:
                    e0:df:74:53:82:61:96:48:38:41:4d:18:50:f0:b1:
                    fe:f3:40:3b:14:0d:a7:b5:3d:49:15:90:a5:3f:7c:
                    39:22:20:bb:a5:0d:7a:53:c8:5b:69:e0:f1:05:e7:
                    20:00:35
                Exponent: 65537 (0x10001)
        X509v3 extensions:
            X509v3 Basic Constraints: 
                CA:FALSE
            Netscape Comment: 
                Easy-RSA Generated Certificate
            X509v3 Subject Key Identifier: 
                18:71:60:B1:33:14:59:B3:44:6B:AC:AB:C0:A6:E2:0C:22:83:AC:9F
            X509v3 Authority Key Identifier: 
                keyid:12:CD:60:04:D2:A0:80:9E:70:ED:C6:99:B8:7B:2C:C6:52:FD:19:A1
                DirName:/C=US/ST=OH/L=Columbus/O=VikingVPN/OU=MyOrganizationalUnit/CN=VikingVPN CA/name=EasyRSA/emailAddress=me@myhost.mydomain
                serial:CF:35:85:EE:80:BF:2A:3E

            X509v3 Extended Key Usage: 
                TLS Web Client Authentication
            X509v3 Key Usage: 
                Digital Signature
    Signature Algorithm: md5WithRSAEncryption
         a6:cc:e0:8f:2b:a1:3c:b5:d9:96:73:1c:c8:c0:ff:aa:b3:9a:
         2c:e1:e6:26:59:d9:4f:5d:ea:56:6d:7e:e9:e3:ab:57:77:26:
         7f:9f:80:4f:cb:5d:13:5c:5c:4f:a6:2e:e3:73:ae:c6:b3:a1:
         70:96:35:dc:cf:cd:73:0e:35:8e:e7:49:7d:42:6d:e5:72:68:
         88:73:12:cc:a3:81:47:3f:d9:bc:24:88:08:a9:68:4e:97:74:
         38:cb:93:a4:c9:b4:43:2f:a9:79:ce:8a:12:ae:a2:40:87:a7:
         41:77:45:c0:3c:28:1e:99:6d:94:7d:ae:1c:42:fa:4b:14:36:
         b3:8a:5f:a1:5e:13:65:b0:f3:0f:99:3f:47:bd:e9:ef:ab:b8:
         20:db:8e:38:68:96:43:03:b0:06:64:99:eb:3a:6c:b9:8d:39:
         4b:c4:1b:57:df:d1:59:35:80:07:d5:73:21:d1:c8:bc:16:68:
         6c:70:f7:77:92:09:57:cc:f6:cb:3e:ba:f6:13:07:ad:85:b3:
         4b:21:fd:b4:78:7d:d3:91:90:c3:09:6f:19:cd:8a:6d:af:63:
         d0:eb:69:4b:ef:8b:b7:69:63:b4:6a:d5:5e:7f:36:40:8d:c5:
         73:60:4d:ce:9a:5a:ac:4b:c5:82:e1:45:c0:8d:1b:07:c8:e6:
         1a:c7:d7:b4:ce:80:1e:cf:6b:d2:44:47:3d:bc:b4:13:6e:3f:
         a0:0b:c5:e0:04:19:4c:81:cf:f5:69:f2:12:72:08:32:c4:2c:
         53:fe:e0:51:50:3d:7a:e0:1f:f6:e6:7f:9c:bf:80:67:7f:ae:
         ab:47:84:cc:ba:50:00:55:ee:4a:80:5f:28:9b:26:76:aa:6d:
         b2:c5:71:e3:65:34:6d:e2:ca:f2:dd:65:4b:77:e7:a6:e5:e1:
         f0:71:c5:b9:d0:de:81:78:0a:52:54:b3:6c:cf:c9:cf:9a:5f:
         66:3f:6a:e7:e3:8d:58:61:ab:3b:fd:c0:72:8e:d6:32:39:3a:
         1a:f8:c4:a6:b6:0f:78:29:b3:4d:1f:e8:6c:9c:5b:58:27:72:
         5c:28:b9:85:9c:77:4d:ac:e6:af:89:7f:9e:f3:f2:01:e7:3b:
         e7:5b:85:c5:c6:e7:5a:26:44:74:b6:c6:ef:0f:0d:92:34:97:
         af:36:ee:b7:cc:77:ba:e6:4b:55:4f:e5:52:a7:f7:55:f9:b0:
         9d:08:79:7f:27:8c:47:e8:12:e2:cd:c1:8c:e4:bb:53:b0:ab:
         d9:12:3c:a4:4f:83:f3:bc:4a:81:9d:86:9c:6e:2b:d1:97:05:
         13:be:6d:4c:cc:d8:67:bb:d0:c5:4a:6c:77:00:b9:a0:bb:68:
         da:b9:f7:31:9f:7e:c0:61
-----BEGIN CERTIFICATE-----
MIIGqzCCBJOgAwIBAgICAPEwDQYJKoZIhvcNAQEEBQAwgawxCzAJBgNVBAYTAlVT
MQswCQYDVQQIEwJPSDERMA8GA1UEBxMIQ29sdW1idXMxEjAQBgNVBAoTCVZpa2lu
Z1ZQTjEdMBsGA1UECxMUTXlPcmdhbml6YXRpb25hbFVuaXQxFTATBgNVBAMTDFZp
a2luZ1ZQTiBDQTEQMA4GA1UEKRMHRWFzeVJTQTEhMB8GCSqGSIb3DQEJARYSbWVA
bXlob3N0Lm15ZG9tYWluMB4XDTEzMDkyODA5NTAwMFoXDTIzMDkyNjA5NTAwMFow
HTEbMBkGA1UEAxMSQ2xpZW50NDlDZXJ0OTMzMzkwMIICIjANBgkqhkiG9w0BAQEF
AAOCAg8AMIICCgKCAgEA4RmY1fhGs5VWc0FOPAESzk6wOmutcZRzU3eX8QJtUF6X
/ljzf3BATkY4E2DUTA02LgYXiTS2bk6OLjHXOOulWtDt7jaQpCfvPc03SQ+k8IaR
q6TGN/RLpX9A23yPA8fcDYEmWqqOgAGvWlEJMZ+x6ycglnabMb2Mf2lSqqDIrP8Y
EM18oWY1+hkLfKnaAzIdXizS24w3IHrR3sK4Y+kncSecnpXr7c9mfOERNe3M9Z6t
fA+aZa2agN5geYazuN8fRDn3VdESnYrGuvIW+9cY0aTRMY9WoO639RF/I7jnQ5ca
s0yPExYslZ6v7M0QpdaqrW91iD9KNM1DMSTBfD63gPQv1fygOqYBQayoiyWOvgKb
cmqLVMOxQ46XHLT82fp2hCXmeZvZHDdL+HBRwqWQ50J0p6s0m0BywZLptAWrzzP9
5oDRCuyuRs/UEf4KC5c7j4NtDs7xVo1Y9dYu/+hREw3txBpPJxuX3LHtDLXCi8zI
6D6qBNPW2QE+0ISsJelqy/1Ek+Cg8qYVGAg/yU/ezZIpAeC82dKhW0YdK+WscY82
oMw0ghiK4dsp5UI5OFxSY6rwsFuLYmIj0V+iWJI1OEUPzdpwMt3fk0LKxDKOG67g
33RTgmGWSDhBTRhQ8LH+80A7FA2ntT1JFZClP3w5IiC7pQ16U8hbaeDxBecgADUC
AwEAAaOCAWMwggFfMAkGA1UdEwQCMAAwLQYJYIZIAYb4QgENBCAWHkVhc3ktUlNB
IEdlbmVyYXRlZCBDZXJ0aWZpY2F0ZTAdBgNVHQ4EFgQUGHFgsTMUWbNEa6yrwKbi
DCKDrJ8wgeEGA1UdIwSB2TCB1oAUEs1gBNKggJ5w7caZuHssxlL9GaGhgbKkga8w
gawxCzAJBgNVBAYTAlVTMQswCQYDVQQIEwJPSDERMA8GA1UEBxMIQ29sdW1idXMx
EjAQBgNVBAoTCVZpa2luZ1ZQTjEdMBsGA1UECxMUTXlPcmdhbml6YXRpb25hbFVu
aXQxFTATBgNVBAMTDFZpa2luZ1ZQTiBDQTEQMA4GA1UEKRMHRWFzeVJTQTEhMB8G
CSqGSIb3DQEJARYSbWVAbXlob3N0Lm15ZG9tYWluggkAzzWF7oC/Kj4wEwYDVR0l
BAwwCgYIKwYBBQUHAwIwCwYDVR0PBAQDAgeAMA0GCSqGSIb3DQEBBAUAA4ICAQCm
zOCPK6E8tdmWcxzIwP+qs5os4eYmWdlPXepWbX7p46tXdyZ/n4BPy10TXFxPpi7j
c67Gs6FwljXcz81zDjWO50l9Qm3lcmiIcxLMo4FHP9m8JIgIqWhOl3Q4y5OkybRD
L6l5zooSrqJAh6dBd0XAPCgemW2Ufa4cQvpLFDazil+hXhNlsPMPmT9Hvenvq7gg
2444aJZDA7AGZJnrOmy5jTlLxBtX39FZNYAH1XMh0ci8FmhscPd3kglXzPbLPrr2
EwethbNLIf20eH3TkZDDCW8ZzYptr2PQ62lL74u3aWO0atVefzZAjcVzYE3Omlqs
S8WC4UXAjRsHyOYax9e0zoAez2vSREc9vLQTbj+gC8XgBBlMgc/1afIScggyxCxT
/uBRUD164B/25n+cv4Bnf66rR4TMulAAVe5KgF8omyZ2qm2yxXHjZTRt4sry3WVL
d+em5eHwccW50N6BeApSVLNsz8nPml9mP2rn441YYas7/cByjtYyOToa+MSmtg94
KbNNH+hsnFtYJ3JcKLmFnHdNrOaviX+e8/IB5zvnW4XFxudaJkR0tsbvDw2SNJev
Nu63zHe65ktVT+VSp/dV+bCdCHl/J4xH6BLizcGM5LtTsKvZEjykT4PzvEqBnYac
bivRlwUTvm1MzNhnu9DFSmx3ALmgu2jaufcxn37AYQ==
-----END CERTIFICATE-----
