Certificate:
    Data:
        Version: 3 (0x2)
        Serial Number: 246 (0xf6)
    Signature Algorithm: md5WithRSAEncryption
        Issuer: C=US, ST=OH, L=Columbus, O=VikingVPN, OU=MyOrganizationalUnit, CN=VikingVPN CA/name=EasyRSA/emailAddress=me@myhost.mydomain
        Validity
            Not Before: Sep 28 15:30:25 2013 GMT
            Not After : Sep 26 15:30:25 2023 GMT
        Subject: CN=Client120Certdfd195
        Subject Public Key Info:
            Public Key Algorithm: rsaEncryption
                Public-Key: (4096 bit)
                Modulus:
                    00:b0:62:27:84:fd:f9:d6:7a:27:be:60:78:fd:c3:
                    0a:09:33:e7:19:4f:13:f1:41:61:80:46:99:e2:ad:
                    8e:4e:8b:a2:d4:6d:47:0f:da:10:e0:92:6a:83:3d:
                    3b:07:52:26:5a:f9:15:34:d6:cd:88:ba:37:04:e1:
                    53:b0:cc:15:02:b7:fa:90:f6:ac:40:37:5a:c2:06:
                    79:1e:71:94:ad:3b:c7:70:17:44:1f:66:7c:47:39:
                    99:68:d2:fb:0b:00:dc:dd:72:63:0d:27:32:f6:ed:
                    94:14:a1:c7:dd:b7:e1:72:cd:50:c7:03:ad:db:1b:
                    11:20:7b:6f:36:29:bb:de:e0:c6:f1:2a:3c:8e:21:
                    fb:84:9b:1e:7a:31:de:60:e6:79:5f:e6:d3:1f:e0:
                    bb:0d:75:a7:65:02:bd:65:ea:b3:37:2c:da:43:bf:
                    61:7f:3c:39:8c:3a:45:0a:2c:00:26:bb:e7:88:de:
                    9a:dd:67:b9:37:a2:92:6e:ee:33:4f:e7:b8:af:8f:
                    d0:7c:24:bc:db:2a:64:5f:58:08:fd:56:6f:0e:5f:
                    ba:c7:a8:5b:9a:d8:89:66:cc:24:83:83:5c:61:e9:
                    0c:ef:a3:70:bd:ad:9c:d7:d1:e2:b3:b9:b9:38:66:
                    92:c0:1c:4c:74:b3:d6:50:72:51:03:4c:d6:25:eb:
                    47:a3:f2:7d:b2:db:af:9c:90:39:19:98:dc:a8:60:
                    2b:b7:94:be:60:cf:4d:1e:94:f6:2e:ec:db:de:ed:
                    72:23:4b:47:ad:f5:b0:d2:6d:d7:9c:dc:ab:68:61:
                    c8:ce:e1:ff:21:97:6e:68:a3:77:8d:55:c5:f7:71:
                    c9:61:35:89:21:33:8b:be:e3:b9:76:75:bf:13:ed:
                    9a:da:fc:55:01:5f:e2:80:c6:58:79:cb:54:a9:c4:
                    56:0c:20:78:f6:65:be:02:b6:90:d1:c2:bb:1f:a9:
                    78:21:f8:28:a6:76:f6:a1:08:64:fe:9a:e6:48:1c:
                    9f:b4:8a:98:1e:fe:01:98:39:34:59:c2:95:c9:e3:
                    72:ad:b5:78:1f:36:28:b7:2d:e8:62:7b:d4:0d:55:
                    d2:fe:7c:36:01:f2:04:36:71:69:2c:b5:a3:bb:70:
                    93:7d:37:6f:32:46:6a:8e:43:c7:ec:6b:f5:a5:eb:
                    6f:eb:32:89:de:27:a7:ce:05:44:9c:7b:54:11:30:
                    b5:d2:47:c4:d2:a4:5d:dd:95:70:f7:c6:9d:c0:71:
                    24:ef:71:43:f1:61:04:2d:b0:44:cf:d1:cf:e2:88:
                    dc:b2:48:2d:20:35:2f:75:dd:bd:10:03:07:75:4f:
                    ee:76:8c:b9:66:c3:1b:33:0f:b6:55:36:c2:ca:ea:
                    e3:0f:ab
                Exponent: 65537 (0x10001)
        X509v3 extensions:
            X509v3 Basic Constraints: 
                CA:FALSE
            Netscape Comment: 
                Easy-RSA Generated Certificate
            X509v3 Subject Key Identifier: 
                E3:43:F1:67:CD:0B:26:86:A0:69:11:04:58:F8:BD:5F:3C:C9:2E:E8
            X509v3 Authority Key Identifier: 
                keyid:12:CD:60:04:D2:A0:80:9E:70:ED:C6:99:B8:7B:2C:C6:52:FD:19:A1
                DirName:/C=US/ST=OH/L=Columbus/O=VikingVPN/OU=MyOrganizationalUnit/CN=VikingVPN CA/name=EasyRSA/emailAddress=me@myhost.mydomain
                serial:CF:35:85:EE:80:BF:2A:3E

            X509v3 Extended Key Usage: 
                TLS Web Client Authentication
            X509v3 Key Usage: 
                Digital Signature
    Signature Algorithm: md5WithRSAEncryption
         92:08:95:db:4c:08:c0:ed:5b:10:ff:7a:ad:90:4b:7c:54:1c:
         9f:b9:d5:9a:1d:38:4c:60:86:aa:88:e3:b3:33:28:be:71:14:
         db:3d:e2:35:20:3d:fe:f2:ee:0c:6c:e0:ad:5b:5a:6c:7e:7e:
         2b:dd:18:06:60:ac:76:3b:30:76:c1:f8:e7:c5:8e:7e:5f:a9:
         35:6e:d0:69:83:19:94:1c:b8:a3:99:bb:47:e5:d9:e1:91:4d:
         52:1c:db:2a:27:82:8d:33:fc:03:cd:fd:89:fd:80:74:ca:7e:
         c8:c8:c9:af:77:36:ad:e0:6f:c9:05:9a:e2:30:1b:b8:af:22:
         b5:2e:89:ad:6a:37:fd:2e:42:1e:d2:0c:33:fc:75:6b:e5:2b:
         1a:ed:63:0c:31:22:d1:4e:c7:29:74:b5:f7:fd:a9:5b:cd:c1:
         54:be:33:6c:ce:f6:fe:e8:e0:0c:7c:d4:41:2a:68:4e:6c:ea:
         40:4b:2e:39:2d:ef:2e:63:d9:c3:be:57:60:11:7e:f1:aa:7a:
         3a:d0:ce:d8:be:b4:a1:63:a1:86:7e:46:04:35:1a:01:80:9e:
         dd:bb:e2:cf:61:8a:92:7e:af:69:7b:92:1a:83:42:33:6a:9b:
         54:e2:08:bd:e2:7a:50:58:51:8c:60:14:8a:87:38:35:53:91:
         18:a7:79:56:de:a7:eb:e5:e0:b0:29:a1:b0:1e:e6:4a:e7:e1:
         24:59:a0:61:16:0b:32:9f:68:98:77:35:37:2b:c1:31:03:76:
         3e:d8:20:8b:d6:6e:c3:23:4c:67:67:ec:61:e7:b1:55:91:3b:
         ab:34:37:e2:a9:be:36:af:49:33:71:54:61:db:74:d5:10:10:
         55:7f:18:69:33:b9:44:a9:96:db:db:4d:4e:29:f5:85:18:1a:
         1b:95:75:b9:68:56:c8:d4:52:bf:66:00:54:d1:75:ee:68:01:
         57:3e:61:fe:07:7e:7c:9e:9a:c2:1f:6d:33:3d:0c:a4:90:e3:
         e0:a6:7e:75:82:f7:9e:82:8e:e7:09:a9:b2:9c:40:4c:b5:70:
         23:45:02:c5:a5:cc:97:a8:b6:d0:19:ec:ae:6c:0a:77:38:16:
         8b:6e:46:74:20:06:b7:75:bb:f2:62:aa:49:db:a6:bb:df:6d:
         92:bb:75:11:a1:3c:3d:59:53:56:c2:c0:cd:76:65:5a:6e:c5:
         98:60:c6:35:00:f0:9f:0e:d8:7c:d6:27:5a:0f:05:96:ee:e3:
         79:0c:1a:e6:04:e5:18:e9:b5:2d:91:f8:b2:d7:e2:4e:c8:27:
         22:8f:82:85:80:eb:d0:43:88:e7:6f:d3:c0:24:b0:79:3a:b9:
         40:2d:7d:0f:de:a0:c8:30
-----BEGIN CERTIFICATE-----
MIIGrDCCBJSgAwIBAgICAPYwDQYJKoZIhvcNAQEEBQAwgawxCzAJBgNVBAYTAlVT
MQswCQYDVQQIEwJPSDERMA8GA1UEBxMIQ29sdW1idXMxEjAQBgNVBAoTCVZpa2lu
Z1ZQTjEdMBsGA1UECxMUTXlPcmdhbml6YXRpb25hbFVuaXQxFTATBgNVBAMTDFZp
a2luZ1ZQTiBDQTEQMA4GA1UEKRMHRWFzeVJTQTEhMB8GCSqGSIb3DQEJARYSbWVA
bXlob3N0Lm15ZG9tYWluMB4XDTEzMDkyODE1MzAyNVoXDTIzMDkyNjE1MzAyNVow
HjEcMBoGA1UEAxMTQ2xpZW50MTIwQ2VydGRmZDE5NTCCAiIwDQYJKoZIhvcNAQEB
BQADggIPADCCAgoCggIBALBiJ4T9+dZ6J75geP3DCgkz5xlPE/FBYYBGmeKtjk6L
otRtRw/aEOCSaoM9OwdSJlr5FTTWzYi6NwThU7DMFQK3+pD2rEA3WsIGeR5xlK07
x3AXRB9mfEc5mWjS+wsA3N1yYw0nMvbtlBShx9234XLNUMcDrdsbESB7bzYpu97g
xvEqPI4h+4SbHnox3mDmeV/m0x/guw11p2UCvWXqszcs2kO/YX88OYw6RQosACa7
54jemt1nuTeikm7uM0/nuK+P0HwkvNsqZF9YCP1Wbw5fuseoW5rYiWbMJIODXGHp
DO+jcL2tnNfR4rO5uThmksAcTHSz1lByUQNM1iXrR6PyfbLbr5yQORmY3KhgK7eU
vmDPTR6U9i7s297tciNLR631sNJt15zcq2hhyM7h/yGXbmijd41VxfdxyWE1iSEz
i77juXZ1vxPtmtr8VQFf4oDGWHnLVKnEVgwgePZlvgK2kNHCux+peCH4KKZ29qEI
ZP6a5kgcn7SKmB7+AZg5NFnClcnjcq21eB82KLct6GJ71A1V0v58NgHyBDZxaSy1
o7twk303bzJGao5Dx+xr9aXrb+syid4np84FRJx7VBEwtdJHxNKkXd2VcPfGncBx
JO9xQ/FhBC2wRM/Rz+KI3LJILSA1L3XdvRADB3VP7naMuWbDGzMPtlU2wsrq4w+r
AgMBAAGjggFjMIIBXzAJBgNVHRMEAjAAMC0GCWCGSAGG+EIBDQQgFh5FYXN5LVJT
QSBHZW5lcmF0ZWQgQ2VydGlmaWNhdGUwHQYDVR0OBBYEFOND8WfNCyaGoGkRBFj4
vV88yS7oMIHhBgNVHSMEgdkwgdaAFBLNYATSoICecO3Gmbh7LMZS/RmhoYGypIGv
MIGsMQswCQYDVQQGEwJVUzELMAkGA1UECBMCT0gxETAPBgNVBAcTCENvbHVtYnVz
MRIwEAYDVQQKEwlWaWtpbmdWUE4xHTAbBgNVBAsTFE15T3JnYW5pemF0aW9uYWxV
bml0MRUwEwYDVQQDEwxWaWtpbmdWUE4gQ0ExEDAOBgNVBCkTB0Vhc3lSU0ExITAf
BgkqhkiG9w0BCQEWEm1lQG15aG9zdC5teWRvbWFpboIJAM81he6Avyo+MBMGA1Ud
JQQMMAoGCCsGAQUFBwMCMAsGA1UdDwQEAwIHgDANBgkqhkiG9w0BAQQFAAOCAgEA
kgiV20wIwO1bEP96rZBLfFQcn7nVmh04TGCGqojjszMovnEU2z3iNSA9/vLuDGzg
rVtabH5+K90YBmCsdjswdsH458WOfl+pNW7QaYMZlBy4o5m7R+XZ4ZFNUhzbKieC
jTP8A839if2AdMp+yMjJr3c2reBvyQWa4jAbuK8itS6JrWo3/S5CHtIMM/x1a+Ur
Gu1jDDEi0U7HKXS19/2pW83BVL4zbM72/ujgDHzUQSpoTmzqQEsuOS3vLmPZw75X
YBF+8ap6OtDO2L60oWOhhn5GBDUaAYCe3bviz2GKkn6vaXuSGoNCM2qbVOIIveJ6
UFhRjGAUioc4NVORGKd5Vt6n6+XgsCmhsB7mSufhJFmgYRYLMp9omHc1NyvBMQN2
Ptggi9ZuwyNMZ2fsYeexVZE7qzQ34qm+Nq9JM3FUYdt01RAQVX8YaTO5RKmW29tN
Tin1hRgaG5V1uWhWyNRSv2YAVNF17mgBVz5h/gd+fJ6awh9tMz0MpJDj4KZ+dYL3
noKO5wmpspxATLVwI0UCxaXMl6i20BnsrmwKdzgWi25GdCAGt3W78mKqSdumu99t
krt1EaE8PVlTVsLAzXZlWm7FmGDGNQDwnw7YfNYnWg8Flu7jeQwa5gTlGOm1LZH4
stfiTsgnIo+ChYDr0EOI52/TwCSweTq5QC19D96gyDA=
-----END CERTIFICATE-----
